ARM GAS  C:\Users\MM1005~1\AppData\Local\Temp\ccTXRdVU.s 			page 1


   1              		.cpu cortex-m0plus
   2              		.fpu softvfp
   3              		.eabi_attribute 20, 1
   4              		.eabi_attribute 21, 1
   5              		.eabi_attribute 23, 3
   6              		.eabi_attribute 24, 1
   7              		.eabi_attribute 25, 1
   8              		.eabi_attribute 26, 1
   9              		.eabi_attribute 30, 1
  10              		.eabi_attribute 34, 0
  11              		.eabi_attribute 18, 4
  12              		.code	16
  13              		.file	"animation.c"
  14              		.text
  15              	.Ltext0:
  16              		.cfi_sections	.debug_frame
  17              		.section	.text.animate_all_colors,"ax",%progbits
  18              		.align	2
  19              		.global	animate_all_colors
  20              		.code	16
  21              		.thumb_func
  22              		.type	animate_all_colors, %function
  23              	animate_all_colors:
  24              	.LFB35:
  25              		.file 1 "..\\Slider.cydsn\\animation.c"
   1:..\Slider.cydsn/animation.c **** /* ========================================
   2:..\Slider.cydsn/animation.c ****  *
   3:..\Slider.cydsn/animation.c ****  * Copyright YOUR COMPANY, THE YEAR
   4:..\Slider.cydsn/animation.c ****  * All Rights Reserved
   5:..\Slider.cydsn/animation.c ****  * UNPUBLISHED, LICENSED SOFTWARE.
   6:..\Slider.cydsn/animation.c ****  *
   7:..\Slider.cydsn/animation.c ****  * CONFIDENTIAL AND PROPRIETARY INFORMATION
   8:..\Slider.cydsn/animation.c ****  * WHICH IS THE PROPERTY OF your company.
   9:..\Slider.cydsn/animation.c ****  *
  10:..\Slider.cydsn/animation.c ****  * ========================================
  11:..\Slider.cydsn/animation.c **** */
  12:..\Slider.cydsn/animation.c **** #include <math.h>
  13:..\Slider.cydsn/animation.c **** 
  14:..\Slider.cydsn/animation.c **** #include "animation.h"
  15:..\Slider.cydsn/animation.c **** #include "command_telemetry.h"
  16:..\Slider.cydsn/animation.c **** #include "util.h"
  17:..\Slider.cydsn/animation.c **** 
  18:..\Slider.cydsn/animation.c **** //=============================================================================
  19:..\Slider.cydsn/animation.c **** //============================================================ static variables
  20:..\Slider.cydsn/animation.c **** //=============================================================================
  21:..\Slider.cydsn/animation.c **** static t_struct_animation vec_call_back_anim[ANIM_UNKNOWN] = {{ANIM_BUTTON_SMOOTH_SLOW   , TRUE , F
  22:..\Slider.cydsn/animation.c ****                                                               {ANIM_BUTTON_SMOOTH_FAST   , TRUE , F
  23:..\Slider.cydsn/animation.c ****                                                               {ANIM_LEFT_RIGHT           , FALSE, F
  24:..\Slider.cydsn/animation.c ****                                                               {ANIM_INTENSITY            , FALSE, F
  25:..\Slider.cydsn/animation.c ****                                                               {ANIM_2_LEDS               , FALSE, F
  26:..\Slider.cydsn/animation.c ****                                                               {ANIM_RED_INTENSITY        , FALSE, F
  27:..\Slider.cydsn/animation.c ****                                                               {ANIM_GREEN_INTENSITY      , FALSE, F
  28:..\Slider.cydsn/animation.c ****                                                               {ANIM_BLUE_INTENSITY       , FALSE, F
  29:..\Slider.cydsn/animation.c ****                                                               {ANIM_RED_WHITE_INTENSITY  , FALSE, F
  30:..\Slider.cydsn/animation.c ****                                                               {ANIM_GREEN_WHITE_INTENSITY, FALSE, F
  31:..\Slider.cydsn/animation.c ****                                                               {ANIM_BLUE_WHITE_INTENSITY , FALSE, F
  32:..\Slider.cydsn/animation.c ****                                                               {ANIM_COLORS_INTENSITY     , FALSE, F
ARM GAS  C:\Users\MM1005~1\AppData\Local\Temp\ccTXRdVU.s 			page 2


  33:..\Slider.cydsn/animation.c ****                                                               {ANIM_RAINBOW_COLORS       , FALSE, F
  34:..\Slider.cydsn/animation.c ****                                                               {ANIM_FIX_WHITE            , FALSE, F
  35:..\Slider.cydsn/animation.c **** 
  36:..\Slider.cydsn/animation.c **** 
  37:..\Slider.cydsn/animation.c **** #if USE_128_POINTS_FOR_BREATHING
  38:..\Slider.cydsn/animation.c **** #define SINE_VEC_SIZE 128                                                                 // Indexe
  39:..\Slider.cydsn/animation.c **** static uint16 sine_vec[SINE_VEC_SIZE] = {0x800,0x864,0x8c8,0x92c,0x98f,0x9f1,0xa52,0xab1, // [000..
  40:..\Slider.cydsn/animation.c ****                                          0xb0f,0xb6b,0xbc5,0xc1c,0xc71,0xcc3,0xd12,0xd5f, // [008..
  41:..\Slider.cydsn/animation.c ****                                          0xda7,0xded,0xe2e,0xe6c,0xea6,0xedc,0xf0d,0xf3a, // [016..
  42:..\Slider.cydsn/animation.c ****                                          0xf63,0xf87,0xfa7,0xfc2,0xfd8,0xfe9,0xff5,0xffd, // [024..
  43:..\Slider.cydsn/animation.c ****                                          0xfff,0xffd,0xff5,0xfe9,0xfd8,0xfc2,0xfa7,0xf87, // [032..
  44:..\Slider.cydsn/animation.c ****                                          0xf63,0xf3a,0xf0d,0xedc,0xea6,0xe6c,0xe2e,0xded, // [040..
  45:..\Slider.cydsn/animation.c ****                                          0xda7,0xd5f,0xd12,0xcc3,0xc71,0xc1c,0xbc5,0xb6b, // [048..
  46:..\Slider.cydsn/animation.c ****                                          0xb0f,0xab1,0xa52,0x9f1,0x98f,0x92c,0x8c8,0x864, // [056..
  47:..\Slider.cydsn/animation.c ****                                          0x800,0x79b,0x737,0x6d3,0x670,0x60e,0x5ad,0x54e, // [064..
  48:..\Slider.cydsn/animation.c ****                                          0x4f0,0x494,0x43a,0x3e3,0x38e,0x33c,0x2ed,0x2a0, // [072..
  49:..\Slider.cydsn/animation.c ****                                          0x258,0x212,0x1d1,0x193,0x159,0x123,0x0f2,0x0c5, // [080..
  50:..\Slider.cydsn/animation.c ****                                          0x09c,0x078,0x058,0x03d,0x027,0x016,0x00a,0x002, // [088..
  51:..\Slider.cydsn/animation.c ****                                          0x000,0x002,0x00a,0x016,0x027,0x03d,0x058,0x078, // [096..
  52:..\Slider.cydsn/animation.c ****                                          0x09c,0x0c5,0x0f2,0x123,0x159,0x193,0x1d1,0x212, // [104..
  53:..\Slider.cydsn/animation.c ****                                          0x258,0x2a0,0x2ed,0x33c,0x38e,0x3e3,0x43a,0x494, // [112..
  54:..\Slider.cydsn/animation.c ****                                          0x4f0,0x54e,0x5ad,0x60e,0x670,0x6d3,0x737,0x79b};// [120..
  55:..\Slider.cydsn/animation.c **** #else
  56:..\Slider.cydsn/animation.c **** #define SINE_VEC_SIZE 256
  57:..\Slider.cydsn/animation.c **** static uint16 sine_vec[SINE_VEC_SIZE] = {0x800,0x832,0x864,0x896,0x8c8,0x8fa,0x92c,0x95e,
  58:..\Slider.cydsn/animation.c ****                                          0x98f,0x9c0,0x9f1,0xa22,0xa52,0xa82,0xab1,0xae0,
  59:..\Slider.cydsn/animation.c ****                                          0xb0f,0xb3d,0xb6b,0xb98,0xbc5,0xbf1,0xc1c,0xc47,
  60:..\Slider.cydsn/animation.c ****                                          0xc71,0xc9a,0xcc3,0xceb,0xd12,0xd39,0xd5f,0xd83,
  61:..\Slider.cydsn/animation.c ****                                          0xda7,0xdca,0xded,0xe0e,0xe2e,0xe4e,0xe6c,0xe8a,
  62:..\Slider.cydsn/animation.c ****                                          0xea6,0xec1,0xedc,0xef5,0xf0d,0xf24,0xf3a,0xf4f,
  63:..\Slider.cydsn/animation.c ****                                          0xf63,0xf76,0xf87,0xf98,0xfa7,0xfb5,0xfc2,0xfcd,
  64:..\Slider.cydsn/animation.c ****                                          0xfd8,0xfe1,0xfe9,0xff0,0xff5,0xff9,0xffd,0xffe,
  65:..\Slider.cydsn/animation.c ****                                          0xfff,0xffe,0xffd,0xff9,0xff5,0xff0,0xfe9,0xfe1,
  66:..\Slider.cydsn/animation.c ****                                          0xfd8,0xfcd,0xfc2,0xfb5,0xfa7,0xf98,0xf87,0xf76,
  67:..\Slider.cydsn/animation.c ****                                          0xf63,0xf4f,0xf3a,0xf24,0xf0d,0xef5,0xedc,0xec1,
  68:..\Slider.cydsn/animation.c ****                                          0xea6,0xe8a,0xe6c,0xe4e,0xe2e,0xe0e,0xded,0xdca,
  69:..\Slider.cydsn/animation.c ****                                          0xda7,0xd83,0xd5f,0xd39,0xd12,0xceb,0xcc3,0xc9a,
  70:..\Slider.cydsn/animation.c ****                                          0xc71,0xc47,0xc1c,0xbf1,0xbc5,0xb98,0xb6b,0xb3d,
  71:..\Slider.cydsn/animation.c ****                                          0xb0f,0xae0,0xab1,0xa82,0xa52,0xa22,0x9f1,0x9c0,
  72:..\Slider.cydsn/animation.c ****                                          0x98f,0x95e,0x92c,0x8fa,0x8c8,0x896,0x864,0x832,
  73:..\Slider.cydsn/animation.c ****                                          0x800,0x7cd,0x79b,0x769,0x737,0x705,0x6d3,0x6a1,
  74:..\Slider.cydsn/animation.c ****                                          0x670,0x63f,0x60e,0x5dd,0x5ad,0x57d,0x54e,0x51f,
  75:..\Slider.cydsn/animation.c ****                                          0x4f0,0x4c2,0x494,0x467,0x43a,0x40e,0x3e3,0x3b8,
  76:..\Slider.cydsn/animation.c ****                                          0x38e,0x365,0x33c,0x314,0x2ed,0x2c6,0x2a0,0x27c,
  77:..\Slider.cydsn/animation.c ****                                          0x258,0x235,0x212,0x1f1,0x1d1,0x1b1,0x193,0x175,
  78:..\Slider.cydsn/animation.c ****                                          0x159,0x13e,0x123,0x10a,0x0f2,0x0db,0x0c5,0x0b0,
  79:..\Slider.cydsn/animation.c ****                                          0x09c,0x089,0x078,0x067,0x058,0x04a,0x03d,0x032,
  80:..\Slider.cydsn/animation.c ****                                          0x027,0x01e,0x016,0x00f,0x00a,0x006,0x002,0x001,
  81:..\Slider.cydsn/animation.c ****                                          0x000,0x001,0x002,0x006,0x00a,0x00f,0x016,0x01e,
  82:..\Slider.cydsn/animation.c ****                                          0x027,0x032,0x03d,0x04a,0x058,0x067,0x078,0x089,
  83:..\Slider.cydsn/animation.c ****                                          0x09c,0x0b0,0x0c5,0x0db,0x0f2,0x10a,0x123,0x13e,
  84:..\Slider.cydsn/animation.c ****                                          0x159,0x175,0x193,0x1b1,0x1d1,0x1f1,0x212,0x235,
  85:..\Slider.cydsn/animation.c ****                                          0x258,0x27c,0x2a0,0x2c6,0x2ed,0x314,0x33c,0x365,
  86:..\Slider.cydsn/animation.c ****                                          0x38e,0x3b8,0x3e3,0x40e,0x43a,0x467,0x494,0x4c2,
  87:..\Slider.cydsn/animation.c ****                                          0x4f0,0x51f,0x54e,0x57d,0x5ad,0x5dd,0x60e,0x63f,
  88:..\Slider.cydsn/animation.c ****                                          0x670,0x6a1,0x6d3,0x705,0x737,0x769,0x79b,0x7cd};         
  89:..\Slider.cydsn/animation.c **** #endif // USE_128_POINTS_FOR_BREATHING
ARM GAS  C:\Users\MM1005~1\AppData\Local\Temp\ccTXRdVU.s 			page 3


  90:..\Slider.cydsn/animation.c ****                                                
  91:..\Slider.cydsn/animation.c **** #define PI_0_INDEX   0                  // 0   degrees
  92:..\Slider.cydsn/animation.c **** #define PI_90_INDEX  (SINE_VEC_SIZE / 4)// 90  degrees
  93:..\Slider.cydsn/animation.c **** #define PI_120_INDEX (SINE_VEC_SIZE / 3)// 120 degrees
  94:..\Slider.cydsn/animation.c **** #define PI_180_INDEX (PI_90_INDEX   * 2)// 180 degrees
  95:..\Slider.cydsn/animation.c **** #define PI_270_INDEX (PI_90_INDEX   * 3)// 270 degrees
  96:..\Slider.cydsn/animation.c **** 
  97:..\Slider.cydsn/animation.c **** static BOOL             is_auto_anim_rotation_enable = FALSE; // when enable: auto rotation of the 
  98:..\Slider.cydsn/animation.c **** static BOOL             is_anim_on_button_up_enable  = FALSE; // when anable: start the selected li
  99:..\Slider.cydsn/animation.c **** static t_enum_animation current_callback_anim        = ANIM_BUTTON_SMOOTH_SLOW;
 100:..\Slider.cydsn/animation.c **** 
 101:..\Slider.cydsn/animation.c **** //=============================================================================
 102:..\Slider.cydsn/animation.c **** //========================================================== animate_all_colors
 103:..\Slider.cydsn/animation.c **** //=============================================================================
 104:..\Slider.cydsn/animation.c **** void animate_all_colors(void)
 105:..\Slider.cydsn/animation.c **** {
  26              		.loc 1 105 0
  27              		.cfi_startproc
  28 0000 10B5     		push	{r4, lr}
  29              		.cfi_def_cfa_offset 8
  30              		.cfi_offset 4, -8
  31              		.cfi_offset 14, -4
  32              	.LVL0:
 106:..\Slider.cydsn/animation.c ****     static uint16 red             = 0;
 107:..\Slider.cydsn/animation.c ****     static uint16 green           = 0;
 108:..\Slider.cydsn/animation.c ****     static uint16 blue            = 0;
 109:..\Slider.cydsn/animation.c ****     static BOOL   intensity_up    = TRUE;
 110:..\Slider.cydsn/animation.c ****            uint16 blue_increment  = 64 ;
 111:..\Slider.cydsn/animation.c ****            uint16 green_increment = 128;
 112:..\Slider.cydsn/animation.c ****            uint16 red_increment   = 256;
 113:..\Slider.cydsn/animation.c ****            
 114:..\Slider.cydsn/animation.c ****     set_led(E_LED_LEFT_RED   ,  red  );
  33              		.loc 1 114 0
  34 0002 354C     		ldr	r4, .L10
  35 0004 2188     		ldrh	r1, [r4]
  36 0006 1520     		mov	r0, #21
  37 0008 FFF7FEFF 		bl	set_led
  38              	.LVL1:
 115:..\Slider.cydsn/animation.c ****     set_led(E_LED_LEFT_GREEN ,  green);
  39              		.loc 1 115 0
  40 000c 6188     		ldrh	r1, [r4, #2]
  41 000e 1620     		mov	r0, #22
  42 0010 FFF7FEFF 		bl	set_led
  43              	.LVL2:
 116:..\Slider.cydsn/animation.c ****     set_led(E_LED_LEFT_BLUE  ,  blue );
  44              		.loc 1 116 0
  45 0014 A188     		ldrh	r1, [r4, #4]
  46 0016 1720     		mov	r0, #23
  47 0018 FFF7FEFF 		bl	set_led
  48              	.LVL3:
 117:..\Slider.cydsn/animation.c ****     set_led(E_LED_RIGHT_RED  , ~red  );
  49              		.loc 1 117 0
  50 001c 2188     		ldrh	r1, [r4]
  51 001e C943     		mvn	r1, r1
  52 0020 89B2     		uxth	r1, r1
  53 0022 1220     		mov	r0, #18
  54 0024 FFF7FEFF 		bl	set_led
ARM GAS  C:\Users\MM1005~1\AppData\Local\Temp\ccTXRdVU.s 			page 4


  55              	.LVL4:
 118:..\Slider.cydsn/animation.c ****     set_led(E_LED_RIGHT_GREEN, ~green);
  56              		.loc 1 118 0
  57 0028 6188     		ldrh	r1, [r4, #2]
  58 002a C943     		mvn	r1, r1
  59 002c 89B2     		uxth	r1, r1
  60 002e 1320     		mov	r0, #19
  61 0030 FFF7FEFF 		bl	set_led
  62              	.LVL5:
 119:..\Slider.cydsn/animation.c ****     set_led(E_LED_RIGHT_BLUE , ~blue );
  63              		.loc 1 119 0
  64 0034 A188     		ldrh	r1, [r4, #4]
  65 0036 C943     		mvn	r1, r1
  66 0038 89B2     		uxth	r1, r1
  67 003a 1420     		mov	r0, #20
  68 003c FFF7FEFF 		bl	set_led
  69              	.LVL6:
 120:..\Slider.cydsn/animation.c ****    
 121:..\Slider.cydsn/animation.c ****     if (intensity_up)
  70              		.loc 1 121 0
  71 0040 264B     		ldr	r3, .L10+4
  72 0042 1B78     		ldrb	r3, [r3]
  73 0044 002B     		cmp	r3, #0
  74 0046 24D0     		beq	.L2
 122:..\Slider.cydsn/animation.c ****     {   
 123:..\Slider.cydsn/animation.c ****         if (red >= MAX_COLOR)
  75              		.loc 1 123 0
  76 0048 234B     		ldr	r3, .L10
  77 004a 1B88     		ldrh	r3, [r3]
  78 004c 244A     		ldr	r2, .L10+8
  79 004e 9342     		cmp	r3, r2
  80 0050 03D9     		bls	.L3
 124:..\Slider.cydsn/animation.c ****         {
 125:..\Slider.cydsn/animation.c ****             intensity_up = FALSE;
  81              		.loc 1 125 0
  82 0052 0022     		mov	r2, #0
  83 0054 214B     		ldr	r3, .L10+4
  84 0056 1A70     		strb	r2, [r3]
  85 0058 3CE0     		b	.L1
  86              	.L3:
 126:..\Slider.cydsn/animation.c ****         }
 127:..\Slider.cydsn/animation.c ****         else if (green >= MAX_COLOR) 
  87              		.loc 1 127 0
  88 005a 1F4A     		ldr	r2, .L10
  89 005c 5288     		ldrh	r2, [r2, #2]
  90 005e 2049     		ldr	r1, .L10+8
  91 0060 8A42     		cmp	r2, r1
  92 0062 07D9     		bls	.L5
 128:..\Slider.cydsn/animation.c ****         {
 129:..\Slider.cydsn/animation.c ****            red   += red_increment;
  93              		.loc 1 129 0
  94 0064 1C4A     		ldr	r2, .L10
  95 0066 0133     		add	r3, r3, #1
  96 0068 FF33     		add	r3, r3, #255
  97 006a 1380     		strh	r3, [r2]
 130:..\Slider.cydsn/animation.c ****            green  = 0;
  98              		.loc 1 130 0
ARM GAS  C:\Users\MM1005~1\AppData\Local\Temp\ccTXRdVU.s 			page 5


  99 006c 0023     		mov	r3, #0
 100 006e 5380     		strh	r3, [r2, #2]
 131:..\Slider.cydsn/animation.c ****            blue   = 0;
 101              		.loc 1 131 0
 102 0070 9380     		strh	r3, [r2, #4]
 103 0072 2FE0     		b	.L1
 104              	.L5:
 132:..\Slider.cydsn/animation.c ****         } 
 133:..\Slider.cydsn/animation.c ****         else if (blue >= MAX_COLOR)
 105              		.loc 1 133 0
 106 0074 184B     		ldr	r3, .L10
 107 0076 9B88     		ldrh	r3, [r3, #4]
 108 0078 1949     		ldr	r1, .L10+8
 109 007a 8B42     		cmp	r3, r1
 110 007c 05D9     		bls	.L6
 134:..\Slider.cydsn/animation.c ****         {
 135:..\Slider.cydsn/animation.c ****             green += green_increment;
 111              		.loc 1 135 0
 112 007e 164B     		ldr	r3, .L10
 113 0080 8032     		add	r2, r2, #128
 114 0082 5A80     		strh	r2, [r3, #2]
 136:..\Slider.cydsn/animation.c ****             blue   = 0;
 115              		.loc 1 136 0
 116 0084 0022     		mov	r2, #0
 117 0086 9A80     		strh	r2, [r3, #4]
 118 0088 24E0     		b	.L1
 119              	.L6:
 137:..\Slider.cydsn/animation.c ****         }
 138:..\Slider.cydsn/animation.c ****         else
 139:..\Slider.cydsn/animation.c ****         {
 140:..\Slider.cydsn/animation.c ****             blue += blue_increment;    
 120              		.loc 1 140 0
 121 008a 4033     		add	r3, r3, #64
 122 008c 124A     		ldr	r2, .L10
 123 008e 9380     		strh	r3, [r2, #4]
 124 0090 20E0     		b	.L1
 125              	.L2:
 141:..\Slider.cydsn/animation.c ****         }
 142:..\Slider.cydsn/animation.c ****     }// if the intensity is going up
 143:..\Slider.cydsn/animation.c ****     else
 144:..\Slider.cydsn/animation.c ****     {
 145:..\Slider.cydsn/animation.c ****         if (red == 0)
 126              		.loc 1 145 0
 127 0092 114B     		ldr	r3, .L10
 128 0094 1B88     		ldrh	r3, [r3]
 129 0096 002B     		cmp	r3, #0
 130 0098 03D1     		bne	.L7
 146:..\Slider.cydsn/animation.c ****         {
 147:..\Slider.cydsn/animation.c ****             intensity_up = TRUE;
 131              		.loc 1 147 0
 132 009a 0122     		mov	r2, #1
 133 009c 0F4B     		ldr	r3, .L10+4
 134 009e 1A70     		strb	r2, [r3]
 135 00a0 18E0     		b	.L1
 136              	.L7:
 148:..\Slider.cydsn/animation.c ****         }
 149:..\Slider.cydsn/animation.c ****         else if (green == 0)
ARM GAS  C:\Users\MM1005~1\AppData\Local\Temp\ccTXRdVU.s 			page 6


 137              		.loc 1 149 0
 138 00a2 0D4A     		ldr	r2, .L10
 139 00a4 5288     		ldrh	r2, [r2, #2]
 140 00a6 002A     		cmp	r2, #0
 141 00a8 07D1     		bne	.L8
 150:..\Slider.cydsn/animation.c ****         {
 151:..\Slider.cydsn/animation.c ****            red   -= red_increment;
 142              		.loc 1 151 0
 143 00aa 0B4A     		ldr	r2, .L10
 144 00ac 013B     		sub	r3, r3, #1
 145 00ae FF3B     		sub	r3, r3, #255
 146 00b0 1380     		strh	r3, [r2]
 152:..\Slider.cydsn/animation.c ****            green  = MAX_COLOR;
 147              		.loc 1 152 0
 148 00b2 0C4B     		ldr	r3, .L10+12
 149 00b4 5380     		strh	r3, [r2, #2]
 153:..\Slider.cydsn/animation.c ****            blue   = MAX_COLOR;
 150              		.loc 1 153 0
 151 00b6 9380     		strh	r3, [r2, #4]
 152 00b8 0CE0     		b	.L1
 153              	.L8:
 154:..\Slider.cydsn/animation.c ****         } 
 155:..\Slider.cydsn/animation.c ****         else if (blue == 0)
 154              		.loc 1 155 0
 155 00ba 074B     		ldr	r3, .L10
 156 00bc 9B88     		ldrh	r3, [r3, #4]
 157 00be 002B     		cmp	r3, #0
 158 00c0 05D1     		bne	.L9
 156:..\Slider.cydsn/animation.c ****         {
 157:..\Slider.cydsn/animation.c ****             green -= green_increment;
 159              		.loc 1 157 0
 160 00c2 054B     		ldr	r3, .L10
 161 00c4 803A     		sub	r2, r2, #128
 162 00c6 5A80     		strh	r2, [r3, #2]
 158:..\Slider.cydsn/animation.c ****             blue   = MAX_COLOR;
 163              		.loc 1 158 0
 164 00c8 064A     		ldr	r2, .L10+12
 165 00ca 9A80     		strh	r2, [r3, #4]
 166 00cc 02E0     		b	.L1
 167              	.L9:
 159:..\Slider.cydsn/animation.c ****         }
 160:..\Slider.cydsn/animation.c ****         else
 161:..\Slider.cydsn/animation.c ****         {
 162:..\Slider.cydsn/animation.c ****             blue -= blue_increment;    
 168              		.loc 1 162 0
 169 00ce 403B     		sub	r3, r3, #64
 170 00d0 014A     		ldr	r2, .L10
 171 00d2 9380     		strh	r3, [r2, #4]
 172              	.L1:
 163:..\Slider.cydsn/animation.c ****         }
 164:..\Slider.cydsn/animation.c ****     }// // else, the intensity is going down
 165:..\Slider.cydsn/animation.c **** }// animate_all_colors
 173              		.loc 1 165 0
 174              		@ sp needed
 175 00d4 10BD     		pop	{r4, pc}
 176              	.L11:
 177 00d6 C046     		.align	2
ARM GAS  C:\Users\MM1005~1\AppData\Local\Temp\ccTXRdVU.s 			page 7


 178              	.L10:
 179 00d8 00000000 		.word	.LANCHOR0
 180 00dc 00000000 		.word	.LANCHOR1
 181 00e0 FE0F0000 		.word	4094
 182 00e4 FF0F0000 		.word	4095
 183              		.cfi_endproc
 184              	.LFE35:
 185              		.size	animate_all_colors, .-animate_all_colors
 186              		.section	.text.animate_fix_white,"ax",%progbits
 187              		.align	2
 188              		.global	animate_fix_white
 189              		.code	16
 190              		.thumb_func
 191              		.type	animate_fix_white, %function
 192              	animate_fix_white:
 193              	.LFB36:
 166:..\Slider.cydsn/animation.c **** 
 167:..\Slider.cydsn/animation.c **** //=============================================================================
 168:..\Slider.cydsn/animation.c **** //=========================================================== animate_fix_white
 169:..\Slider.cydsn/animation.c **** //=============================================================================
 170:..\Slider.cydsn/animation.c **** void animate_fix_white(void)
 171:..\Slider.cydsn/animation.c **** {
 194              		.loc 1 171 0
 195              		.cfi_startproc
 196 0000 10B5     		push	{r4, lr}
 197              		.cfi_def_cfa_offset 8
 198              		.cfi_offset 4, -8
 199              		.cfi_offset 14, -4
 172:..\Slider.cydsn/animation.c ****     set_led(6, MAX_INTENSITY);
 200              		.loc 1 172 0
 201 0002 094C     		ldr	r4, .L13
 202 0004 0620     		mov	r0, #6
 203 0006 211C     		mov	r1, r4
 204 0008 FFF7FEFF 		bl	set_led
 205              	.LVL7:
 173:..\Slider.cydsn/animation.c ****     set_led(7, MAX_INTENSITY);
 206              		.loc 1 173 0
 207 000c 0720     		mov	r0, #7
 208 000e 211C     		mov	r1, r4
 209 0010 FFF7FEFF 		bl	set_led
 210              	.LVL8:
 174:..\Slider.cydsn/animation.c ****     set_led(8, MAX_INTENSITY);
 211              		.loc 1 174 0
 212 0014 0820     		mov	r0, #8
 213 0016 211C     		mov	r1, r4
 214 0018 FFF7FEFF 		bl	set_led
 215              	.LVL9:
 175:..\Slider.cydsn/animation.c ****     set_led(9, MAX_INTENSITY);
 216              		.loc 1 175 0
 217 001c 0920     		mov	r0, #9
 218 001e 211C     		mov	r1, r4
 219 0020 FFF7FEFF 		bl	set_led
 220              	.LVL10:
 176:..\Slider.cydsn/animation.c **** }// animate_fix_led_0
 221              		.loc 1 176 0
 222              		@ sp needed
 223 0024 10BD     		pop	{r4, pc}
ARM GAS  C:\Users\MM1005~1\AppData\Local\Temp\ccTXRdVU.s 			page 8


 224              	.L14:
 225 0026 C046     		.align	2
 226              	.L13:
 227 0028 FF0F0000 		.word	4095
 228              		.cfi_endproc
 229              	.LFE36:
 230              		.size	animate_fix_white, .-animate_fix_white
 231              		.section	.text.animate_red_intensity,"ax",%progbits
 232              		.align	2
 233              		.global	animate_red_intensity
 234              		.code	16
 235              		.thumb_func
 236              		.type	animate_red_intensity, %function
 237              	animate_red_intensity:
 238              	.LFB38:
 177:..\Slider.cydsn/animation.c **** 
 178:..\Slider.cydsn/animation.c **** //=============================================================================
 179:..\Slider.cydsn/animation.c **** //========================================================== animate_fix_led_14
 180:..\Slider.cydsn/animation.c **** //=============================================================================
 181:..\Slider.cydsn/animation.c **** void animate_fix_led_14(void)
 182:..\Slider.cydsn/animation.c **** {
 183:..\Slider.cydsn/animation.c ****     set_led(14, MAX_INTENSITY);
 184:..\Slider.cydsn/animation.c **** }// animate_fix_led_0
 185:..\Slider.cydsn/animation.c **** 
 186:..\Slider.cydsn/animation.c **** //=============================================================================
 187:..\Slider.cydsn/animation.c **** //======================================================= animate_red_intensity
 188:..\Slider.cydsn/animation.c **** //=============================================================================
 189:..\Slider.cydsn/animation.c **** void animate_red_intensity  (void)
 190:..\Slider.cydsn/animation.c **** {
 239              		.loc 1 190 0
 240              		.cfi_startproc
 241 0000 10B5     		push	{r4, lr}
 242              		.cfi_def_cfa_offset 8
 243              		.cfi_offset 4, -8
 244              		.cfi_offset 14, -4
 191:..\Slider.cydsn/animation.c **** #if FOR_COLIN    
 192:..\Slider.cydsn/animation.c ****     animate_color_intensity(E_RED);
 193:..\Slider.cydsn/animation.c **** #else
 194:..\Slider.cydsn/animation.c ****     set_led(E_LED_LEFT_RED   , MAX_COLOR);
 245              		.loc 1 194 0
 246 0002 0D4C     		ldr	r4, .L16
 247 0004 1520     		mov	r0, #21
 248 0006 211C     		mov	r1, r4
 249 0008 FFF7FEFF 		bl	set_led
 250              	.LVL11:
 195:..\Slider.cydsn/animation.c ****     set_led(E_LED_LEFT_GREEN , 0x00     );
 251              		.loc 1 195 0
 252 000c 1620     		mov	r0, #22
 253 000e 0021     		mov	r1, #0
 254 0010 FFF7FEFF 		bl	set_led
 255              	.LVL12:
 196:..\Slider.cydsn/animation.c ****     set_led(E_LED_LEFT_BLUE  , 0x00     );
 256              		.loc 1 196 0
 257 0014 1720     		mov	r0, #23
 258 0016 0021     		mov	r1, #0
 259 0018 FFF7FEFF 		bl	set_led
 260              	.LVL13:
ARM GAS  C:\Users\MM1005~1\AppData\Local\Temp\ccTXRdVU.s 			page 9


 197:..\Slider.cydsn/animation.c ****     set_led(E_LED_RIGHT_RED  , MAX_COLOR);
 261              		.loc 1 197 0
 262 001c 1220     		mov	r0, #18
 263 001e 211C     		mov	r1, r4
 264 0020 FFF7FEFF 		bl	set_led
 265              	.LVL14:
 198:..\Slider.cydsn/animation.c ****     set_led(E_LED_RIGHT_GREEN, 0x00     );
 266              		.loc 1 198 0
 267 0024 1320     		mov	r0, #19
 268 0026 0021     		mov	r1, #0
 269 0028 FFF7FEFF 		bl	set_led
 270              	.LVL15:
 199:..\Slider.cydsn/animation.c ****     set_led(E_LED_RIGHT_BLUE , 0x00     );
 271              		.loc 1 199 0
 272 002c 1420     		mov	r0, #20
 273 002e 0021     		mov	r1, #0
 274 0030 FFF7FEFF 		bl	set_led
 275              	.LVL16:
 200:..\Slider.cydsn/animation.c **** #endif        
 201:..\Slider.cydsn/animation.c **** }// animate_red_intensity
 276              		.loc 1 201 0
 277              		@ sp needed
 278 0034 10BD     		pop	{r4, pc}
 279              	.L17:
 280 0036 C046     		.align	2
 281              	.L16:
 282 0038 FF0F0000 		.word	4095
 283              		.cfi_endproc
 284              	.LFE38:
 285              		.size	animate_red_intensity, .-animate_red_intensity
 286              		.section	.text.animate_green_intensity,"ax",%progbits
 287              		.align	2
 288              		.global	animate_green_intensity
 289              		.code	16
 290              		.thumb_func
 291              		.type	animate_green_intensity, %function
 292              	animate_green_intensity:
 293              	.LFB39:
 202:..\Slider.cydsn/animation.c **** 
 203:..\Slider.cydsn/animation.c **** //=============================================================================
 204:..\Slider.cydsn/animation.c **** //===================================================== animate_green_intensity
 205:..\Slider.cydsn/animation.c **** //=============================================================================
 206:..\Slider.cydsn/animation.c **** void animate_green_intensity(void)
 207:..\Slider.cydsn/animation.c **** {
 294              		.loc 1 207 0
 295              		.cfi_startproc
 296 0000 10B5     		push	{r4, lr}
 297              		.cfi_def_cfa_offset 8
 298              		.cfi_offset 4, -8
 299              		.cfi_offset 14, -4
 208:..\Slider.cydsn/animation.c **** #if FOR_COLIN    
 209:..\Slider.cydsn/animation.c ****     animate_color_intensity(E_GREEN);
 210:..\Slider.cydsn/animation.c **** #else
 211:..\Slider.cydsn/animation.c ****     set_led(E_LED_LEFT_RED   , 0x00     );
 300              		.loc 1 211 0
 301 0002 1520     		mov	r0, #21
 302 0004 0021     		mov	r1, #0
ARM GAS  C:\Users\MM1005~1\AppData\Local\Temp\ccTXRdVU.s 			page 10


 303 0006 FFF7FEFF 		bl	set_led
 304              	.LVL17:
 212:..\Slider.cydsn/animation.c ****     set_led(E_LED_LEFT_GREEN , MAX_COLOR);
 305              		.loc 1 212 0
 306 000a 0B4C     		ldr	r4, .L19
 307 000c 1620     		mov	r0, #22
 308 000e 211C     		mov	r1, r4
 309 0010 FFF7FEFF 		bl	set_led
 310              	.LVL18:
 213:..\Slider.cydsn/animation.c ****     set_led(E_LED_LEFT_BLUE  , 0x00     );
 311              		.loc 1 213 0
 312 0014 1720     		mov	r0, #23
 313 0016 0021     		mov	r1, #0
 314 0018 FFF7FEFF 		bl	set_led
 315              	.LVL19:
 214:..\Slider.cydsn/animation.c ****     set_led(E_LED_RIGHT_RED  , 0x00     );
 316              		.loc 1 214 0
 317 001c 1220     		mov	r0, #18
 318 001e 0021     		mov	r1, #0
 319 0020 FFF7FEFF 		bl	set_led
 320              	.LVL20:
 215:..\Slider.cydsn/animation.c ****     set_led(E_LED_RIGHT_GREEN, MAX_COLOR);
 321              		.loc 1 215 0
 322 0024 1320     		mov	r0, #19
 323 0026 211C     		mov	r1, r4
 324 0028 FFF7FEFF 		bl	set_led
 325              	.LVL21:
 216:..\Slider.cydsn/animation.c ****     set_led(E_LED_RIGHT_BLUE , 0x00     );
 326              		.loc 1 216 0
 327 002c 1420     		mov	r0, #20
 328 002e 0021     		mov	r1, #0
 329 0030 FFF7FEFF 		bl	set_led
 330              	.LVL22:
 217:..\Slider.cydsn/animation.c **** #endif    
 218:..\Slider.cydsn/animation.c **** }// animate_green_intensity
 331              		.loc 1 218 0
 332              		@ sp needed
 333 0034 10BD     		pop	{r4, pc}
 334              	.L20:
 335 0036 C046     		.align	2
 336              	.L19:
 337 0038 FF0F0000 		.word	4095
 338              		.cfi_endproc
 339              	.LFE39:
 340              		.size	animate_green_intensity, .-animate_green_intensity
 341              		.section	.text.animate_blue_intensity,"ax",%progbits
 342              		.align	2
 343              		.global	animate_blue_intensity
 344              		.code	16
 345              		.thumb_func
 346              		.type	animate_blue_intensity, %function
 347              	animate_blue_intensity:
 348              	.LFB40:
 219:..\Slider.cydsn/animation.c **** 
 220:..\Slider.cydsn/animation.c **** //=============================================================================
 221:..\Slider.cydsn/animation.c **** //====================================================== animate_blue_intensity
 222:..\Slider.cydsn/animation.c **** //=============================================================================
ARM GAS  C:\Users\MM1005~1\AppData\Local\Temp\ccTXRdVU.s 			page 11


 223:..\Slider.cydsn/animation.c **** void animate_blue_intensity (void)
 224:..\Slider.cydsn/animation.c **** {
 349              		.loc 1 224 0
 350              		.cfi_startproc
 351 0000 10B5     		push	{r4, lr}
 352              		.cfi_def_cfa_offset 8
 353              		.cfi_offset 4, -8
 354              		.cfi_offset 14, -4
 225:..\Slider.cydsn/animation.c **** #if FOR_COLIN    
 226:..\Slider.cydsn/animation.c ****     animate_color_intensity(E_BLUE);
 227:..\Slider.cydsn/animation.c **** #else
 228:..\Slider.cydsn/animation.c ****     set_led(E_LED_LEFT_RED   , 0x00     );
 355              		.loc 1 228 0
 356 0002 1520     		mov	r0, #21
 357 0004 0021     		mov	r1, #0
 358 0006 FFF7FEFF 		bl	set_led
 359              	.LVL23:
 229:..\Slider.cydsn/animation.c ****     set_led(E_LED_LEFT_GREEN , 0x00     );
 360              		.loc 1 229 0
 361 000a 1620     		mov	r0, #22
 362 000c 0021     		mov	r1, #0
 363 000e FFF7FEFF 		bl	set_led
 364              	.LVL24:
 230:..\Slider.cydsn/animation.c ****     set_led(E_LED_LEFT_BLUE  , MAX_COLOR);
 365              		.loc 1 230 0
 366 0012 094C     		ldr	r4, .L22
 367 0014 1720     		mov	r0, #23
 368 0016 211C     		mov	r1, r4
 369 0018 FFF7FEFF 		bl	set_led
 370              	.LVL25:
 231:..\Slider.cydsn/animation.c ****     set_led(E_LED_RIGHT_RED  , 0x00     );
 371              		.loc 1 231 0
 372 001c 1220     		mov	r0, #18
 373 001e 0021     		mov	r1, #0
 374 0020 FFF7FEFF 		bl	set_led
 375              	.LVL26:
 232:..\Slider.cydsn/animation.c ****     set_led(E_LED_RIGHT_GREEN, 0x00     );
 376              		.loc 1 232 0
 377 0024 1320     		mov	r0, #19
 378 0026 0021     		mov	r1, #0
 379 0028 FFF7FEFF 		bl	set_led
 380              	.LVL27:
 233:..\Slider.cydsn/animation.c ****     set_led(E_LED_RIGHT_BLUE , MAX_COLOR);
 381              		.loc 1 233 0
 382 002c 1420     		mov	r0, #20
 383 002e 211C     		mov	r1, r4
 384 0030 FFF7FEFF 		bl	set_led
 385              	.LVL28:
 234:..\Slider.cydsn/animation.c **** #endif        
 235:..\Slider.cydsn/animation.c **** }// animate_blue_intensity
 386              		.loc 1 235 0
 387              		@ sp needed
 388 0034 10BD     		pop	{r4, pc}
 389              	.L23:
 390 0036 C046     		.align	2
 391              	.L22:
 392 0038 FF0F0000 		.word	4095
ARM GAS  C:\Users\MM1005~1\AppData\Local\Temp\ccTXRdVU.s 			page 12


 393              		.cfi_endproc
 394              	.LFE40:
 395              		.size	animate_blue_intensity, .-animate_blue_intensity
 396              		.section	.text.animate_rainbow_colors,"ax",%progbits
 397              		.align	2
 398              		.global	animate_rainbow_colors
 399              		.code	16
 400              		.thumb_func
 401              		.type	animate_rainbow_colors, %function
 402              	animate_rainbow_colors:
 403              	.LFB45:
 236:..\Slider.cydsn/animation.c **** 
 237:..\Slider.cydsn/animation.c **** //=============================================================================
 238:..\Slider.cydsn/animation.c **** //================================================= animate_red_white_intensity
 239:..\Slider.cydsn/animation.c **** //=============================================================================
 240:..\Slider.cydsn/animation.c **** void animate_red_white_intensity  (void)
 241:..\Slider.cydsn/animation.c **** {
 242:..\Slider.cydsn/animation.c ****     static uint8 intensity_white_index = PI_0_INDEX  ;
 243:..\Slider.cydsn/animation.c ****     static uint8 intensity_color_index = PI_180_INDEX;
 244:..\Slider.cydsn/animation.c ****       
 245:..\Slider.cydsn/animation.c ****     set_all_white_leds(sine_vec[intensity_white_index++]);
 246:..\Slider.cydsn/animation.c ****     set_led           (E_LED_LEFT_RED, sine_vec[intensity_color_index  ]);
 247:..\Slider.cydsn/animation.c ****     set_led           (E_LED_LEFT_RED, sine_vec[intensity_color_index++]);
 248:..\Slider.cydsn/animation.c ****     
 249:..\Slider.cydsn/animation.c **** #if USE_128_POINTS_FOR_BREATHING
 250:..\Slider.cydsn/animation.c ****     left_index  %= SINE_VEC_SIZE;
 251:..\Slider.cydsn/animation.c ****     right_index %= SINE_VEC_SIZE;
 252:..\Slider.cydsn/animation.c **** #endif // at 256 points, the index value (uint8) will rotate by them self
 253:..\Slider.cydsn/animation.c ****     
 254:..\Slider.cydsn/animation.c **** }// animate_red_white_intensity
 255:..\Slider.cydsn/animation.c **** 
 256:..\Slider.cydsn/animation.c **** //=============================================================================
 257:..\Slider.cydsn/animation.c **** //=============================================== animate_green_white_intensity
 258:..\Slider.cydsn/animation.c **** //=============================================================================
 259:..\Slider.cydsn/animation.c **** void animate_green_white_intensity(void)
 260:..\Slider.cydsn/animation.c **** {
 261:..\Slider.cydsn/animation.c ****     static uint8 intensity_white_index = PI_0_INDEX  ;
 262:..\Slider.cydsn/animation.c ****     static uint8 intensity_color_index = PI_180_INDEX;
 263:..\Slider.cydsn/animation.c ****       
 264:..\Slider.cydsn/animation.c ****     set_all_white_leds(sine_vec[intensity_white_index++]);
 265:..\Slider.cydsn/animation.c ****     set_led           (E_LED_LEFT_GREEN, sine_vec[intensity_color_index  ]);
 266:..\Slider.cydsn/animation.c ****     set_led           (E_LED_LEFT_GREEN, sine_vec[intensity_color_index++]);
 267:..\Slider.cydsn/animation.c ****     
 268:..\Slider.cydsn/animation.c **** #if USE_128_POINTS_FOR_BREATHING
 269:..\Slider.cydsn/animation.c ****     left_index  %= SINE_VEC_SIZE;
 270:..\Slider.cydsn/animation.c ****     right_index %= SINE_VEC_SIZE;
 271:..\Slider.cydsn/animation.c **** #endif // at 256 points, the index value (uint8) will rotate by them self
 272:..\Slider.cydsn/animation.c **** }// animate_green_white_intensity
 273:..\Slider.cydsn/animation.c **** 
 274:..\Slider.cydsn/animation.c **** //=============================================================================
 275:..\Slider.cydsn/animation.c **** //================================================ animate_blue_white_intensity
 276:..\Slider.cydsn/animation.c **** //=============================================================================
 277:..\Slider.cydsn/animation.c **** void animate_blue_white_intensity (void)
 278:..\Slider.cydsn/animation.c **** {
 279:..\Slider.cydsn/animation.c ****     static uint8 intensity_white_index = PI_0_INDEX  ;
 280:..\Slider.cydsn/animation.c ****     static uint8 intensity_color_index = PI_180_INDEX;
 281:..\Slider.cydsn/animation.c ****       
ARM GAS  C:\Users\MM1005~1\AppData\Local\Temp\ccTXRdVU.s 			page 13


 282:..\Slider.cydsn/animation.c ****     set_all_white_leds(sine_vec[intensity_white_index++]);
 283:..\Slider.cydsn/animation.c ****     set_led           (E_LED_LEFT_BLUE, sine_vec[intensity_color_index  ]);
 284:..\Slider.cydsn/animation.c ****     set_led           (E_LED_LEFT_BLUE, sine_vec[intensity_color_index++]);
 285:..\Slider.cydsn/animation.c ****     
 286:..\Slider.cydsn/animation.c **** #if USE_128_POINTS_FOR_BREATHING
 287:..\Slider.cydsn/animation.c ****     left_index  %= SINE_VEC_SIZE;
 288:..\Slider.cydsn/animation.c ****     right_index %= SINE_VEC_SIZE;
 289:..\Slider.cydsn/animation.c **** #endif // at 256 points, the index value (uint8) will rotate by them self  
 290:..\Slider.cydsn/animation.c **** }// animate_blue_white_intensity
 291:..\Slider.cydsn/animation.c **** 
 292:..\Slider.cydsn/animation.c **** //=============================================================================
 293:..\Slider.cydsn/animation.c **** //===================================================== animate_color_intensity
 294:..\Slider.cydsn/animation.c **** //=============================================================================
 295:..\Slider.cydsn/animation.c **** void animate_color_intensity(t_enum_primary_color color)
 296:..\Slider.cydsn/animation.c **** {
 297:..\Slider.cydsn/animation.c ****     static uint16 intensity    = 0   ;
 298:..\Slider.cydsn/animation.c ****     static BOOL   intensity_up = TRUE;
 299:..\Slider.cydsn/animation.c ****            uint16 increment    = 1   ;
 300:..\Slider.cydsn/animation.c **** 
 301:..\Slider.cydsn/animation.c ****     switch (color)
 302:..\Slider.cydsn/animation.c ****     {
 303:..\Slider.cydsn/animation.c ****         case E_PRIMARY_COLOR_RED  : set_led(E_LED_LEFT_RED   , intensity);
 304:..\Slider.cydsn/animation.c ****                                     set_led(E_LED_RIGHT_RED  , intensity);
 305:..\Slider.cydsn/animation.c ****                                     break;
 306:..\Slider.cydsn/animation.c ****         case E_PRIMARY_COLOR_GREEN: set_led(E_LED_LEFT_GREEN , intensity);
 307:..\Slider.cydsn/animation.c ****                                     set_led(E_LED_RIGHT_GREEN, intensity);
 308:..\Slider.cydsn/animation.c ****                                     break;
 309:..\Slider.cydsn/animation.c ****         case E_PRIMARY_COLOR_BLUE : set_led(E_LED_LEFT_BLUE  , intensity);
 310:..\Slider.cydsn/animation.c ****                                     set_led(E_LED_RIGHT_BLUE , intensity);
 311:..\Slider.cydsn/animation.c ****                                     break;
 312:..\Slider.cydsn/animation.c ****         default                   : break;
 313:..\Slider.cydsn/animation.c ****     }// switch color
 314:..\Slider.cydsn/animation.c ****                    
 315:..\Slider.cydsn/animation.c ****     if (intensity_up)
 316:..\Slider.cydsn/animation.c ****     {
 317:..\Slider.cydsn/animation.c ****         intensity += increment;
 318:..\Slider.cydsn/animation.c ****         if (intensity >= MAX_COLOR)
 319:..\Slider.cydsn/animation.c ****         {
 320:..\Slider.cydsn/animation.c ****             intensity_up = FALSE;
 321:..\Slider.cydsn/animation.c ****         }
 322:..\Slider.cydsn/animation.c ****     }// if the intensity is going up
 323:..\Slider.cydsn/animation.c ****     else
 324:..\Slider.cydsn/animation.c ****     {
 325:..\Slider.cydsn/animation.c ****         intensity -= increment;
 326:..\Slider.cydsn/animation.c ****         if (intensity == 0)
 327:..\Slider.cydsn/animation.c ****         {
 328:..\Slider.cydsn/animation.c ****             intensity_up = TRUE;
 329:..\Slider.cydsn/animation.c ****         }
 330:..\Slider.cydsn/animation.c ****     }  
 331:..\Slider.cydsn/animation.c **** }// animate_color_intensity
 332:..\Slider.cydsn/animation.c **** 
 333:..\Slider.cydsn/animation.c **** //=============================================================================
 334:..\Slider.cydsn/animation.c **** //====================================================== animate_rainbow_colors
 335:..\Slider.cydsn/animation.c **** //=============================================================================
 336:..\Slider.cydsn/animation.c **** void animate_rainbow_colors()
 337:..\Slider.cydsn/animation.c **** {
 404              		.loc 1 337 0
ARM GAS  C:\Users\MM1005~1\AppData\Local\Temp\ccTXRdVU.s 			page 14


 405              		.cfi_startproc
 406 0000 38B5     		push	{r3, r4, r5, lr}
 407              		.cfi_def_cfa_offset 16
 408              		.cfi_offset 3, -16
 409              		.cfi_offset 4, -12
 410              		.cfi_offset 5, -8
 411              		.cfi_offset 14, -4
 338:..\Slider.cydsn/animation.c ****     static uint16             cycle         = 0;
 339:..\Slider.cydsn/animation.c ****     static uint16             color_index   = 0;
 340:..\Slider.cydsn/animation.c ****     static t_struct_rgb_color vec_rainbow[] = {{148,   0, 211}, // violet
 341:..\Slider.cydsn/animation.c ****                                                { 75,   0, 130}, // indigo
 342:..\Slider.cydsn/animation.c ****                                                {  0,   0, 255}, // blue
 343:..\Slider.cydsn/animation.c ****                                                {  0, 255,   0}, // green
 344:..\Slider.cydsn/animation.c ****                                                {255, 255,   0}, // yellow
 345:..\Slider.cydsn/animation.c ****                                                {255, 127,   0}, // orange
 346:..\Slider.cydsn/animation.c ****                                                {255,   0,   0}, // red
 347:..\Slider.cydsn/animation.c ****                                                {  0,   0,   0}};
 348:..\Slider.cydsn/animation.c ****         
 349:..\Slider.cydsn/animation.c ****     cycle++;
 412              		.loc 1 349 0
 413 0002 254A     		ldr	r2, .L27
 414 0004 D388     		ldrh	r3, [r2, #6]
 415 0006 0133     		add	r3, r3, #1
 416 0008 9BB2     		uxth	r3, r3
 417 000a D380     		strh	r3, [r2, #6]
 350:..\Slider.cydsn/animation.c ****     if (cycle % 64)
 418              		.loc 1 350 0
 419 000c 9B06     		lsl	r3, r3, #26
 420 000e 41D1     		bne	.L24
 351:..\Slider.cydsn/animation.c ****     {
 352:..\Slider.cydsn/animation.c ****         return;
 353:..\Slider.cydsn/animation.c ****     }
 354:..\Slider.cydsn/animation.c ****     
 355:..\Slider.cydsn/animation.c ****     if ((vec_rainbow[color_index].red + vec_rainbow[color_index].green + vec_rainbow[color_index].b
 421              		.loc 1 355 0
 422 0010 1289     		ldrh	r2, [r2, #8]
 423 0012 2248     		ldr	r0, .L27+4
 424 0014 5300     		lsl	r3, r2, #1
 425 0016 9B18     		add	r3, r3, r2
 426 0018 195C     		ldrb	r1, [r3, r0]
 427 001a C318     		add	r3, r0, r3
 428 001c 5A78     		ldrb	r2, [r3, #1]
 429 001e 8918     		add	r1, r1, r2
 430 0020 9A78     		ldrb	r2, [r3, #2]
 431 0022 8B18     		add	r3, r1, r2
 432 0024 002B     		cmp	r3, #0
 433 0026 02D1     		bne	.L26
 356:..\Slider.cydsn/animation.c ****     {
 357:..\Slider.cydsn/animation.c ****         color_index = 0;      
 434              		.loc 1 357 0
 435 0028 0022     		mov	r2, #0
 436 002a 1B4B     		ldr	r3, .L27
 437 002c 1A81     		strh	r2, [r3, #8]
 438              	.L26:
 358:..\Slider.cydsn/animation.c ****     }
 359:..\Slider.cydsn/animation.c ****     
 360:..\Slider.cydsn/animation.c ****     set_led(E_LED_LEFT_RED   , vec_rainbow[color_index].red  );
ARM GAS  C:\Users\MM1005~1\AppData\Local\Temp\ccTXRdVU.s 			page 15


 439              		.loc 1 360 0
 440 002e 1B4D     		ldr	r5, .L27+4
 441 0030 194C     		ldr	r4, .L27
 442 0032 2389     		ldrh	r3, [r4, #8]
 443 0034 5A00     		lsl	r2, r3, #1
 444 0036 D318     		add	r3, r2, r3
 445 0038 E95C     		ldrb	r1, [r5, r3]
 446 003a 1520     		mov	r0, #21
 447 003c FFF7FEFF 		bl	set_led
 448              	.LVL29:
 361:..\Slider.cydsn/animation.c ****     set_led(E_LED_RIGHT_RED  , vec_rainbow[color_index].red  );
 449              		.loc 1 361 0
 450 0040 2389     		ldrh	r3, [r4, #8]
 451 0042 5A00     		lsl	r2, r3, #1
 452 0044 D318     		add	r3, r2, r3
 453 0046 E95C     		ldrb	r1, [r5, r3]
 454 0048 1220     		mov	r0, #18
 455 004a FFF7FEFF 		bl	set_led
 456              	.LVL30:
 362:..\Slider.cydsn/animation.c ****     set_led(E_LED_LEFT_GREEN , vec_rainbow[color_index].green);
 457              		.loc 1 362 0
 458 004e 2389     		ldrh	r3, [r4, #8]
 459 0050 5A00     		lsl	r2, r3, #1
 460 0052 D318     		add	r3, r2, r3
 461 0054 EB18     		add	r3, r5, r3
 462 0056 5978     		ldrb	r1, [r3, #1]
 463 0058 1620     		mov	r0, #22
 464 005a FFF7FEFF 		bl	set_led
 465              	.LVL31:
 363:..\Slider.cydsn/animation.c ****     set_led(E_LED_RIGHT_GREEN, vec_rainbow[color_index].green);  
 466              		.loc 1 363 0
 467 005e 2389     		ldrh	r3, [r4, #8]
 468 0060 5A00     		lsl	r2, r3, #1
 469 0062 D318     		add	r3, r2, r3
 470 0064 EB18     		add	r3, r5, r3
 471 0066 5978     		ldrb	r1, [r3, #1]
 472 0068 1320     		mov	r0, #19
 473 006a FFF7FEFF 		bl	set_led
 474              	.LVL32:
 364:..\Slider.cydsn/animation.c ****     set_led(E_LED_LEFT_BLUE  , vec_rainbow[color_index].blue );
 475              		.loc 1 364 0
 476 006e 2389     		ldrh	r3, [r4, #8]
 477 0070 5A00     		lsl	r2, r3, #1
 478 0072 D318     		add	r3, r2, r3
 479 0074 EB18     		add	r3, r5, r3
 480 0076 9978     		ldrb	r1, [r3, #2]
 481 0078 1720     		mov	r0, #23
 482 007a FFF7FEFF 		bl	set_led
 483              	.LVL33:
 365:..\Slider.cydsn/animation.c ****     set_led(E_LED_RIGHT_BLUE , vec_rainbow[color_index].blue );
 484              		.loc 1 365 0
 485 007e 2389     		ldrh	r3, [r4, #8]
 486 0080 5A00     		lsl	r2, r3, #1
 487 0082 D318     		add	r3, r2, r3
 488 0084 EB18     		add	r3, r5, r3
 489 0086 9978     		ldrb	r1, [r3, #2]
 490 0088 1420     		mov	r0, #20
ARM GAS  C:\Users\MM1005~1\AppData\Local\Temp\ccTXRdVU.s 			page 16


 491 008a FFF7FEFF 		bl	set_led
 492              	.LVL34:
 366:..\Slider.cydsn/animation.c ****     color_index++;    
 493              		.loc 1 366 0
 494 008e 2389     		ldrh	r3, [r4, #8]
 495 0090 0133     		add	r3, r3, #1
 496 0092 2381     		strh	r3, [r4, #8]
 497              	.L24:
 367:..\Slider.cydsn/animation.c **** }// animate_rainbow_colors
 498              		.loc 1 367 0
 499              		@ sp needed
 500 0094 38BD     		pop	{r3, r4, r5, pc}
 501              	.L28:
 502 0096 C046     		.align	2
 503              	.L27:
 504 0098 00000000 		.word	.LANCHOR0
 505 009c 00000000 		.word	.LANCHOR2
 506              		.cfi_endproc
 507              	.LFE45:
 508              		.size	animate_rainbow_colors, .-animate_rainbow_colors
 509              		.global	__aeabi_uidivmod
 510              		.section	.text.animate_left_right,"ax",%progbits
 511              		.align	2
 512              		.global	animate_left_right
 513              		.code	16
 514              		.thumb_func
 515              		.type	animate_left_right, %function
 516              	animate_left_right:
 517              	.LFB46:
 368:..\Slider.cydsn/animation.c **** 
 369:..\Slider.cydsn/animation.c **** //=============================================================================
 370:..\Slider.cydsn/animation.c **** //========================================================== animate_left_right
 371:..\Slider.cydsn/animation.c **** //=============================================================================
 372:..\Slider.cydsn/animation.c **** void animate_left_right()
 373:..\Slider.cydsn/animation.c **** {
 518              		.loc 1 373 0
 519              		.cfi_startproc
 520 0000 10B5     		push	{r4, lr}
 521              		.cfi_def_cfa_offset 8
 522              		.cfi_offset 4, -8
 523              		.cfi_offset 14, -4
 374:..\Slider.cydsn/animation.c ****     static uint16 cycle   = 0;
 375:..\Slider.cydsn/animation.c ****     static uint16 led_pos = 0;
 376:..\Slider.cydsn/animation.c ****          
 377:..\Slider.cydsn/animation.c ****     cycle++;
 524              		.loc 1 377 0
 525 0002 0E4B     		ldr	r3, .L31
 526 0004 5889     		ldrh	r0, [r3, #10]
 527 0006 0130     		add	r0, r0, #1
 528 0008 80B2     		uxth	r0, r0
 529 000a 5881     		strh	r0, [r3, #10]
 378:..\Slider.cydsn/animation.c ****     if (cycle % 13)
 530              		.loc 1 378 0
 531 000c 0D21     		mov	r1, #13
 532 000e FFF7FEFF 		bl	__aeabi_uidivmod
 533              	.LVL35:
 534 0012 89B2     		uxth	r1, r1
ARM GAS  C:\Users\MM1005~1\AppData\Local\Temp\ccTXRdVU.s 			page 17


 535 0014 0029     		cmp	r1, #0
 536 0016 0FD1     		bne	.L29
 379:..\Slider.cydsn/animation.c ****     {
 380:..\Slider.cydsn/animation.c ****         return;
 381:..\Slider.cydsn/animation.c ****     }
 382:..\Slider.cydsn/animation.c **** 
 383:..\Slider.cydsn/animation.c ****     set_led(led_pos, 0x00);
 537              		.loc 1 383 0
 538 0018 084C     		ldr	r4, .L31
 539 001a 207B     		ldrb	r0, [r4, #12]
 540 001c FFF7FEFF 		bl	set_led
 541              	.LVL36:
 384:..\Slider.cydsn/animation.c **** 
 385:..\Slider.cydsn/animation.c ****     led_pos++;
 542              		.loc 1 385 0
 543 0020 A089     		ldrh	r0, [r4, #12]
 544 0022 0130     		add	r0, r0, #1
 545 0024 80B2     		uxth	r0, r0
 386:..\Slider.cydsn/animation.c ****     led_pos %= NUMBER_OF_WHITE_LEDS;
 546              		.loc 1 386 0
 547 0026 0F21     		mov	r1, #15
 548 0028 FFF7FEFF 		bl	__aeabi_uidivmod
 549              	.LVL37:
 550 002c 88B2     		uxth	r0, r1
 551 002e A081     		strh	r0, [r4, #12]
 387:..\Slider.cydsn/animation.c **** 
 388:..\Slider.cydsn/animation.c ****     set_led(led_pos, MAX_INTENSITY);
 552              		.loc 1 388 0
 553 0030 C0B2     		uxtb	r0, r0
 554 0032 0349     		ldr	r1, .L31+4
 555 0034 FFF7FEFF 		bl	set_led
 556              	.LVL38:
 557              	.L29:
 389:..\Slider.cydsn/animation.c **** }// animate_left_right
 558              		.loc 1 389 0
 559              		@ sp needed
 560 0038 10BD     		pop	{r4, pc}
 561              	.L32:
 562 003a C046     		.align	2
 563              	.L31:
 564 003c 00000000 		.word	.LANCHOR0
 565 0040 FF0F0000 		.word	4095
 566              		.cfi_endproc
 567              	.LFE46:
 568              		.size	animate_left_right, .-animate_left_right
 569              		.section	.text.animate_intensity,"ax",%progbits
 570              		.align	2
 571              		.global	animate_intensity
 572              		.code	16
 573              		.thumb_func
 574              		.type	animate_intensity, %function
 575              	animate_intensity:
 576              	.LFB47:
 390:..\Slider.cydsn/animation.c **** 
 391:..\Slider.cydsn/animation.c **** //=============================================================================
 392:..\Slider.cydsn/animation.c **** //=========================================================== animate_intensity
 393:..\Slider.cydsn/animation.c **** //=============================================================================
ARM GAS  C:\Users\MM1005~1\AppData\Local\Temp\ccTXRdVU.s 			page 18


 394:..\Slider.cydsn/animation.c **** void animate_intensity()
 395:..\Slider.cydsn/animation.c **** {
 577              		.loc 1 395 0
 578              		.cfi_startproc
 579 0000 10B5     		push	{r4, lr}
 580              		.cfi_def_cfa_offset 8
 581              		.cfi_offset 4, -8
 582              		.cfi_offset 14, -4
 583              	.LVL39:
 396:..\Slider.cydsn/animation.c ****     static uint8 intensity_left_index  = PI_0_INDEX ;
 397:..\Slider.cydsn/animation.c ****     static uint8 intensity_right_index = PI_180_INDEX;
 398:..\Slider.cydsn/animation.c ****     static uint8 half_white            = NUMBER_OF_WHITE_LEDS / 2;
 399:..\Slider.cydsn/animation.c ****     int i;
 400:..\Slider.cydsn/animation.c ****        
 401:..\Slider.cydsn/animation.c ****     for (i = 0; i < half_white; i++)
 584              		.loc 1 401 0
 585 0002 0024     		mov	r4, #0
 586 0004 09E0     		b	.L34
 587              	.LVL40:
 588              	.L35:
 402:..\Slider.cydsn/animation.c ****     {
 403:..\Slider.cydsn/animation.c ****         set_led(i, sine_vec[intensity_left_index]);
 589              		.loc 1 403 0 discriminator 3
 590 0006 E0B2     		uxtb	r0, r4
 591 0008 194B     		ldr	r3, .L38
 592 000a 9B7B     		ldrb	r3, [r3, #14]
 593 000c 5B00     		lsl	r3, r3, #1
 594 000e 194A     		ldr	r2, .L38+4
 595 0010 D318     		add	r3, r2, r3
 596 0012 198B     		ldrh	r1, [r3, #24]
 597 0014 FFF7FEFF 		bl	set_led
 598              	.LVL41:
 401:..\Slider.cydsn/animation.c ****     {
 599              		.loc 1 401 0 discriminator 3
 600 0018 0134     		add	r4, r4, #1
 601              	.LVL42:
 602              	.L34:
 401:..\Slider.cydsn/animation.c ****     {
 603              		.loc 1 401 0 is_stmt 0 discriminator 1
 604 001a 062C     		cmp	r4, #6
 605 001c F3DD     		ble	.L35
 404:..\Slider.cydsn/animation.c ****     }
 405:..\Slider.cydsn/animation.c ****     
 406:..\Slider.cydsn/animation.c ****     for (i = half_white; i < NUMBER_OF_WHITE_LEDS; i++)
 606              		.loc 1 406 0 is_stmt 1
 607 001e 0724     		mov	r4, #7
 608              	.LVL43:
 609 0020 09E0     		b	.L36
 610              	.LVL44:
 611              	.L37:
 407:..\Slider.cydsn/animation.c ****     {
 408:..\Slider.cydsn/animation.c ****         set_led(i, sine_vec[intensity_right_index]);
 612              		.loc 1 408 0 discriminator 3
 613 0022 E0B2     		uxtb	r0, r4
 614 0024 144B     		ldr	r3, .L38+8
 615 0026 5B78     		ldrb	r3, [r3, #1]
 616 0028 5B00     		lsl	r3, r3, #1
ARM GAS  C:\Users\MM1005~1\AppData\Local\Temp\ccTXRdVU.s 			page 19


 617 002a 124A     		ldr	r2, .L38+4
 618 002c D318     		add	r3, r2, r3
 619 002e 198B     		ldrh	r1, [r3, #24]
 620 0030 FFF7FEFF 		bl	set_led
 621              	.LVL45:
 406:..\Slider.cydsn/animation.c ****     {
 622              		.loc 1 406 0 discriminator 3
 623 0034 0134     		add	r4, r4, #1
 624              	.LVL46:
 625              	.L36:
 406:..\Slider.cydsn/animation.c ****     {
 626              		.loc 1 406 0 is_stmt 0 discriminator 1
 627 0036 0E2C     		cmp	r4, #14
 628 0038 F3DD     		ble	.L37
 409:..\Slider.cydsn/animation.c ****     }
 410:..\Slider.cydsn/animation.c ****     
 411:..\Slider.cydsn/animation.c ****     intensity_left_index++;
 629              		.loc 1 411 0 is_stmt 1
 630 003a 0D4A     		ldr	r2, .L38
 631 003c 937B     		ldrb	r3, [r2, #14]
 632 003e 0133     		add	r3, r3, #1
 633 0040 9373     		strb	r3, [r2, #14]
 412:..\Slider.cydsn/animation.c ****     intensity_right_index++;
 634              		.loc 1 412 0
 635 0042 0D4A     		ldr	r2, .L38+8
 636 0044 5378     		ldrb	r3, [r2, #1]
 637 0046 0133     		add	r3, r3, #1
 638 0048 5370     		strb	r3, [r2, #1]
 413:..\Slider.cydsn/animation.c **** 
 414:..\Slider.cydsn/animation.c ****     set_led(E_LED_LEFT_RED   , MAX_INTENSITY);
 639              		.loc 1 414 0
 640 004a 0C4C     		ldr	r4, .L38+12
 641              	.LVL47:
 642 004c 1520     		mov	r0, #21
 643 004e 211C     		mov	r1, r4
 644 0050 FFF7FEFF 		bl	set_led
 645              	.LVL48:
 415:..\Slider.cydsn/animation.c ****     set_led(E_LED_LEFT_GREEN , MAX_INTENSITY);
 646              		.loc 1 415 0
 647 0054 1620     		mov	r0, #22
 648 0056 211C     		mov	r1, r4
 649 0058 FFF7FEFF 		bl	set_led
 650              	.LVL49:
 416:..\Slider.cydsn/animation.c ****     set_led(E_LED_RIGHT_RED  , MAX_INTENSITY);
 651              		.loc 1 416 0
 652 005c 1220     		mov	r0, #18
 653 005e 211C     		mov	r1, r4
 654 0060 FFF7FEFF 		bl	set_led
 655              	.LVL50:
 417:..\Slider.cydsn/animation.c ****     set_led(E_LED_RIGHT_GREEN, MAX_INTENSITY);
 656              		.loc 1 417 0
 657 0064 1320     		mov	r0, #19
 658 0066 211C     		mov	r1, r4
 659 0068 FFF7FEFF 		bl	set_led
 660              	.LVL51:
 418:..\Slider.cydsn/animation.c ****     
 419:..\Slider.cydsn/animation.c **** #if USE_128_POINTS_FOR_BREATHING
ARM GAS  C:\Users\MM1005~1\AppData\Local\Temp\ccTXRdVU.s 			page 20


 420:..\Slider.cydsn/animation.c ****     intensity_left_index  %= SINE_VEC_SIZE;
 421:..\Slider.cydsn/animation.c ****     intensity_right_index %= SINE_VEC_SIZE;
 422:..\Slider.cydsn/animation.c **** #endif // at 256 points, the index value (uint8) will rotate by them self  
 423:..\Slider.cydsn/animation.c **** }// animate_intensity
 661              		.loc 1 423 0
 662              		@ sp needed
 663 006c 10BD     		pop	{r4, pc}
 664              	.L39:
 665 006e C046     		.align	2
 666              	.L38:
 667 0070 00000000 		.word	.LANCHOR0
 668 0074 00000000 		.word	.LANCHOR2
 669 0078 00000000 		.word	.LANCHOR1
 670 007c FF0F0000 		.word	4095
 671              		.cfi_endproc
 672              	.LFE47:
 673              		.size	animate_intensity, .-animate_intensity
 674              		.section	.text.animate_red_white_intensity,"ax",%progbits
 675              		.align	2
 676              		.global	animate_red_white_intensity
 677              		.code	16
 678              		.thumb_func
 679              		.type	animate_red_white_intensity, %function
 680              	animate_red_white_intensity:
 681              	.LFB41:
 241:..\Slider.cydsn/animation.c ****     static uint8 intensity_white_index = PI_0_INDEX  ;
 682              		.loc 1 241 0
 683              		.cfi_startproc
 684 0000 38B5     		push	{r3, r4, r5, lr}
 685              		.cfi_def_cfa_offset 16
 686              		.cfi_offset 3, -16
 687              		.cfi_offset 4, -12
 688              		.cfi_offset 5, -8
 689              		.cfi_offset 14, -4
 245:..\Slider.cydsn/animation.c ****     set_led           (E_LED_LEFT_RED, sine_vec[intensity_color_index  ]);
 690              		.loc 1 245 0
 691 0002 0E4A     		ldr	r2, .L41
 692 0004 D37B     		ldrb	r3, [r2, #15]
 693 0006 591C     		add	r1, r3, #1
 694 0008 D173     		strb	r1, [r2, #15]
 695 000a 0D4C     		ldr	r4, .L41+4
 696 000c 5B00     		lsl	r3, r3, #1
 697 000e E318     		add	r3, r4, r3
 698 0010 188B     		ldrh	r0, [r3, #24]
 699 0012 FFF7FEFF 		bl	set_all_white_leds
 700              	.LVL52:
 246:..\Slider.cydsn/animation.c ****     set_led           (E_LED_LEFT_RED, sine_vec[intensity_color_index++]);
 701              		.loc 1 246 0
 702 0016 0B4D     		ldr	r5, .L41+8
 703 0018 AB78     		ldrb	r3, [r5, #2]
 704 001a 5B00     		lsl	r3, r3, #1
 705 001c E318     		add	r3, r4, r3
 706 001e 198B     		ldrh	r1, [r3, #24]
 707 0020 1520     		mov	r0, #21
 708 0022 FFF7FEFF 		bl	set_led
 709              	.LVL53:
 247:..\Slider.cydsn/animation.c ****     
ARM GAS  C:\Users\MM1005~1\AppData\Local\Temp\ccTXRdVU.s 			page 21


 710              		.loc 1 247 0
 711 0026 AB78     		ldrb	r3, [r5, #2]
 712 0028 5A1C     		add	r2, r3, #1
 713 002a AA70     		strb	r2, [r5, #2]
 714 002c 5B00     		lsl	r3, r3, #1
 715 002e E318     		add	r3, r4, r3
 716 0030 198B     		ldrh	r1, [r3, #24]
 717 0032 1520     		mov	r0, #21
 718 0034 FFF7FEFF 		bl	set_led
 719              	.LVL54:
 254:..\Slider.cydsn/animation.c **** 
 720              		.loc 1 254 0
 721              		@ sp needed
 722 0038 38BD     		pop	{r3, r4, r5, pc}
 723              	.L42:
 724 003a C046     		.align	2
 725              	.L41:
 726 003c 00000000 		.word	.LANCHOR0
 727 0040 00000000 		.word	.LANCHOR2
 728 0044 00000000 		.word	.LANCHOR1
 729              		.cfi_endproc
 730              	.LFE41:
 731              		.size	animate_red_white_intensity, .-animate_red_white_intensity
 732              		.section	.text.animate_green_white_intensity,"ax",%progbits
 733              		.align	2
 734              		.global	animate_green_white_intensity
 735              		.code	16
 736              		.thumb_func
 737              		.type	animate_green_white_intensity, %function
 738              	animate_green_white_intensity:
 739              	.LFB42:
 260:..\Slider.cydsn/animation.c ****     static uint8 intensity_white_index = PI_0_INDEX  ;
 740              		.loc 1 260 0
 741              		.cfi_startproc
 742 0000 38B5     		push	{r3, r4, r5, lr}
 743              		.cfi_def_cfa_offset 16
 744              		.cfi_offset 3, -16
 745              		.cfi_offset 4, -12
 746              		.cfi_offset 5, -8
 747              		.cfi_offset 14, -4
 264:..\Slider.cydsn/animation.c ****     set_led           (E_LED_LEFT_GREEN, sine_vec[intensity_color_index  ]);
 748              		.loc 1 264 0
 749 0002 0E4A     		ldr	r2, .L44
 750 0004 137C     		ldrb	r3, [r2, #16]
 751 0006 591C     		add	r1, r3, #1
 752 0008 1174     		strb	r1, [r2, #16]
 753 000a 0D4C     		ldr	r4, .L44+4
 754 000c 5B00     		lsl	r3, r3, #1
 755 000e E318     		add	r3, r4, r3
 756 0010 188B     		ldrh	r0, [r3, #24]
 757 0012 FFF7FEFF 		bl	set_all_white_leds
 758              	.LVL55:
 265:..\Slider.cydsn/animation.c ****     set_led           (E_LED_LEFT_GREEN, sine_vec[intensity_color_index++]);
 759              		.loc 1 265 0
 760 0016 0B4D     		ldr	r5, .L44+8
 761 0018 EB78     		ldrb	r3, [r5, #3]
 762 001a 5B00     		lsl	r3, r3, #1
ARM GAS  C:\Users\MM1005~1\AppData\Local\Temp\ccTXRdVU.s 			page 22


 763 001c E318     		add	r3, r4, r3
 764 001e 198B     		ldrh	r1, [r3, #24]
 765 0020 1620     		mov	r0, #22
 766 0022 FFF7FEFF 		bl	set_led
 767              	.LVL56:
 266:..\Slider.cydsn/animation.c ****     
 768              		.loc 1 266 0
 769 0026 EB78     		ldrb	r3, [r5, #3]
 770 0028 5A1C     		add	r2, r3, #1
 771 002a EA70     		strb	r2, [r5, #3]
 772 002c 5B00     		lsl	r3, r3, #1
 773 002e E318     		add	r3, r4, r3
 774 0030 198B     		ldrh	r1, [r3, #24]
 775 0032 1620     		mov	r0, #22
 776 0034 FFF7FEFF 		bl	set_led
 777              	.LVL57:
 272:..\Slider.cydsn/animation.c **** 
 778              		.loc 1 272 0
 779              		@ sp needed
 780 0038 38BD     		pop	{r3, r4, r5, pc}
 781              	.L45:
 782 003a C046     		.align	2
 783              	.L44:
 784 003c 00000000 		.word	.LANCHOR0
 785 0040 00000000 		.word	.LANCHOR2
 786 0044 00000000 		.word	.LANCHOR1
 787              		.cfi_endproc
 788              	.LFE42:
 789              		.size	animate_green_white_intensity, .-animate_green_white_intensity
 790              		.section	.text.animate_blue_white_intensity,"ax",%progbits
 791              		.align	2
 792              		.global	animate_blue_white_intensity
 793              		.code	16
 794              		.thumb_func
 795              		.type	animate_blue_white_intensity, %function
 796              	animate_blue_white_intensity:
 797              	.LFB43:
 278:..\Slider.cydsn/animation.c ****     static uint8 intensity_white_index = PI_0_INDEX  ;
 798              		.loc 1 278 0
 799              		.cfi_startproc
 800 0000 38B5     		push	{r3, r4, r5, lr}
 801              		.cfi_def_cfa_offset 16
 802              		.cfi_offset 3, -16
 803              		.cfi_offset 4, -12
 804              		.cfi_offset 5, -8
 805              		.cfi_offset 14, -4
 282:..\Slider.cydsn/animation.c ****     set_led           (E_LED_LEFT_BLUE, sine_vec[intensity_color_index  ]);
 806              		.loc 1 282 0
 807 0002 0E4A     		ldr	r2, .L47
 808 0004 537C     		ldrb	r3, [r2, #17]
 809 0006 591C     		add	r1, r3, #1
 810 0008 5174     		strb	r1, [r2, #17]
 811 000a 0D4C     		ldr	r4, .L47+4
 812 000c 5B00     		lsl	r3, r3, #1
 813 000e E318     		add	r3, r4, r3
 814 0010 188B     		ldrh	r0, [r3, #24]
 815 0012 FFF7FEFF 		bl	set_all_white_leds
ARM GAS  C:\Users\MM1005~1\AppData\Local\Temp\ccTXRdVU.s 			page 23


 816              	.LVL58:
 283:..\Slider.cydsn/animation.c ****     set_led           (E_LED_LEFT_BLUE, sine_vec[intensity_color_index++]);
 817              		.loc 1 283 0
 818 0016 0B4D     		ldr	r5, .L47+8
 819 0018 2B79     		ldrb	r3, [r5, #4]
 820 001a 5B00     		lsl	r3, r3, #1
 821 001c E318     		add	r3, r4, r3
 822 001e 198B     		ldrh	r1, [r3, #24]
 823 0020 1720     		mov	r0, #23
 824 0022 FFF7FEFF 		bl	set_led
 825              	.LVL59:
 284:..\Slider.cydsn/animation.c ****     
 826              		.loc 1 284 0
 827 0026 2B79     		ldrb	r3, [r5, #4]
 828 0028 5A1C     		add	r2, r3, #1
 829 002a 2A71     		strb	r2, [r5, #4]
 830 002c 5B00     		lsl	r3, r3, #1
 831 002e E318     		add	r3, r4, r3
 832 0030 198B     		ldrh	r1, [r3, #24]
 833 0032 1720     		mov	r0, #23
 834 0034 FFF7FEFF 		bl	set_led
 835              	.LVL60:
 290:..\Slider.cydsn/animation.c **** 
 836              		.loc 1 290 0
 837              		@ sp needed
 838 0038 38BD     		pop	{r3, r4, r5, pc}
 839              	.L48:
 840 003a C046     		.align	2
 841              	.L47:
 842 003c 00000000 		.word	.LANCHOR0
 843 0040 00000000 		.word	.LANCHOR2
 844 0044 00000000 		.word	.LANCHOR1
 845              		.cfi_endproc
 846              	.LFE43:
 847              		.size	animate_blue_white_intensity, .-animate_blue_white_intensity
 848              		.section	.text.animate_2_leds,"ax",%progbits
 849              		.align	2
 850              		.global	animate_2_leds
 851              		.code	16
 852              		.thumb_func
 853              		.type	animate_2_leds, %function
 854              	animate_2_leds:
 855              	.LFB48:
 424:..\Slider.cydsn/animation.c **** 
 425:..\Slider.cydsn/animation.c **** //=============================================================================
 426:..\Slider.cydsn/animation.c **** //============================================================== animate_2_leds
 427:..\Slider.cydsn/animation.c **** //=============================================================================
 428:..\Slider.cydsn/animation.c **** void animate_2_leds()
 429:..\Slider.cydsn/animation.c **** {
 856              		.loc 1 429 0
 857              		.cfi_startproc
 858 0000 38B5     		push	{r3, r4, r5, lr}
 859              		.cfi_def_cfa_offset 16
 860              		.cfi_offset 3, -16
 861              		.cfi_offset 4, -12
 862              		.cfi_offset 5, -8
 863              		.cfi_offset 14, -4
ARM GAS  C:\Users\MM1005~1\AppData\Local\Temp\ccTXRdVU.s 			page 24


 430:..\Slider.cydsn/animation.c ****     static uint16               cycle         = 0;
 431:..\Slider.cydsn/animation.c ****     static uint16               right_led     = (NUMBER_OF_WHITE_LEDS / 2);
 432:..\Slider.cydsn/animation.c ****     static uint16               left_led      = (NUMBER_OF_WHITE_LEDS / 2) - 1;
 433:..\Slider.cydsn/animation.c ****     static BOOL                 outward       = TRUE;
 434:..\Slider.cydsn/animation.c ****     static t_enum_primary_color primary_color = E_PRIMARY_COLOR_RED;
 435:..\Slider.cydsn/animation.c ****           
 436:..\Slider.cydsn/animation.c ****     cycle++;
 864              		.loc 1 436 0
 865 0002 324B     		ldr	r3, .L55
 866 0004 588A     		ldrh	r0, [r3, #18]
 867 0006 0130     		add	r0, r0, #1
 868 0008 80B2     		uxth	r0, r0
 869 000a 5882     		strh	r0, [r3, #18]
 437:..\Slider.cydsn/animation.c ****     if (cycle % 20)
 870              		.loc 1 437 0
 871 000c 1421     		mov	r1, #20
 872 000e FFF7FEFF 		bl	__aeabi_uidivmod
 873              	.LVL61:
 874 0012 89B2     		uxth	r1, r1
 875 0014 0029     		cmp	r1, #0
 876 0016 58D1     		bne	.L49
 438:..\Slider.cydsn/animation.c ****     {
 439:..\Slider.cydsn/animation.c ****         return;
 440:..\Slider.cydsn/animation.c ****     }
 441:..\Slider.cydsn/animation.c ****  
 442:..\Slider.cydsn/animation.c ****     set_all_white_leds(0x00);
 877              		.loc 1 442 0
 878 0018 0020     		mov	r0, #0
 879 001a FFF7FEFF 		bl	set_all_white_leds
 880              	.LVL62:
 443:..\Slider.cydsn/animation.c **** 
 444:..\Slider.cydsn/animation.c ****     set_led(left_led , MAX_INTENSITY);
 881              		.loc 1 444 0
 882 001e 2C4C     		ldr	r4, .L55+4
 883 0020 A079     		ldrb	r0, [r4, #6]
 884 0022 2C4D     		ldr	r5, .L55+8
 885 0024 291C     		mov	r1, r5
 886 0026 FFF7FEFF 		bl	set_led
 887              	.LVL63:
 445:..\Slider.cydsn/animation.c ****     set_led(right_led, MAX_INTENSITY);
 888              		.loc 1 445 0
 889 002a 207A     		ldrb	r0, [r4, #8]
 890 002c 291C     		mov	r1, r5
 891 002e FFF7FEFF 		bl	set_led
 892              	.LVL64:
 446:..\Slider.cydsn/animation.c ****     
 447:..\Slider.cydsn/animation.c ****     if (outward)
 893              		.loc 1 447 0
 894 0032 A37A     		ldrb	r3, [r4, #10]
 895 0034 002B     		cmp	r3, #0
 896 0036 09D0     		beq	.L51
 448:..\Slider.cydsn/animation.c ****     {
 449:..\Slider.cydsn/animation.c ****         left_led --;
 897              		.loc 1 449 0
 898 0038 254A     		ldr	r2, .L55+4
 899 003a D388     		ldrh	r3, [r2, #6]
 900 003c 013B     		sub	r3, r3, #1
ARM GAS  C:\Users\MM1005~1\AppData\Local\Temp\ccTXRdVU.s 			page 25


 901 003e 9BB2     		uxth	r3, r3
 902 0040 D380     		strh	r3, [r2, #6]
 450:..\Slider.cydsn/animation.c ****         right_led++;
 903              		.loc 1 450 0
 904 0042 1189     		ldrh	r1, [r2, #8]
 905 0044 0131     		add	r1, r1, #1
 906 0046 1181     		strh	r1, [r2, #8]
 451:..\Slider.cydsn/animation.c ****         outward = left_led; // if left_led == 0, we go inward
 907              		.loc 1 451 0
 908 0048 9372     		strb	r3, [r2, #10]
 909 004a 3EE0     		b	.L49
 910              	.L51:
 452:..\Slider.cydsn/animation.c ****     }// if we go outward
 453:..\Slider.cydsn/animation.c ****     else
 454:..\Slider.cydsn/animation.c ****     {
 455:..\Slider.cydsn/animation.c ****         left_led ++;
 911              		.loc 1 455 0
 912 004c 204A     		ldr	r2, .L55+4
 913 004e D388     		ldrh	r3, [r2, #6]
 914 0050 0133     		add	r3, r3, #1
 915 0052 D380     		strh	r3, [r2, #6]
 456:..\Slider.cydsn/animation.c ****         right_led--;
 916              		.loc 1 456 0
 917 0054 1389     		ldrh	r3, [r2, #8]
 918 0056 013B     		sub	r3, r3, #1
 919 0058 9BB2     		uxth	r3, r3
 920 005a 1381     		strh	r3, [r2, #8]
 457:..\Slider.cydsn/animation.c ****         outward = (right_led == (NUMBER_OF_WHITE_LEDS / 2));
 921              		.loc 1 457 0
 922 005c 073B     		sub	r3, r3, #7
 923 005e 5942     		neg	r1, r3
 924 0060 4B41     		adc	r3, r3, r1
 925 0062 DBB2     		uxtb	r3, r3
 926 0064 9372     		strb	r3, [r2, #10]
 458:..\Slider.cydsn/animation.c ****         if (outward)
 927              		.loc 1 458 0
 928 0066 002B     		cmp	r3, #0
 929 0068 2FD0     		beq	.L49
 459:..\Slider.cydsn/animation.c ****         {
 460:..\Slider.cydsn/animation.c ****             primary_color++;
 930              		.loc 1 460 0
 931 006a 184C     		ldr	r4, .L55
 932 006c 207D     		ldrb	r0, [r4, #20]
 933 006e 0130     		add	r0, r0, #1
 934 0070 C0B2     		uxtb	r0, r0
 461:..\Slider.cydsn/animation.c ****             primary_color %= E_PRIMARY_COLOR_NUMBER;
 935              		.loc 1 461 0
 936 0072 0321     		mov	r1, #3
 937 0074 FFF7FEFF 		bl	__aeabi_uidivmod
 938              	.LVL65:
 939 0078 2175     		strb	r1, [r4, #20]
 462:..\Slider.cydsn/animation.c ****             set_all_colored_leds(0x00);
 940              		.loc 1 462 0
 941 007a 0020     		mov	r0, #0
 942 007c FFF7FEFF 		bl	set_all_colored_leds
 943              	.LVL66:
 463:..\Slider.cydsn/animation.c ****             switch (primary_color)
ARM GAS  C:\Users\MM1005~1\AppData\Local\Temp\ccTXRdVU.s 			page 26


 944              		.loc 1 463 0
 945 0080 237D     		ldrb	r3, [r4, #20]
 946 0082 012B     		cmp	r3, #1
 947 0084 0ED0     		beq	.L52
 948 0086 002B     		cmp	r3, #0
 949 0088 02D0     		beq	.L53
 950 008a 022B     		cmp	r3, #2
 951 008c 14D0     		beq	.L54
 952 008e 1CE0     		b	.L49
 953              	.L53:
 464:..\Slider.cydsn/animation.c ****             {
 465:..\Slider.cydsn/animation.c ****                 case E_PRIMARY_COLOR_RED  : set_led(E_LED_LEFT_RED   , MAX_INTENSITY);
 954              		.loc 1 465 0
 955 0090 104C     		ldr	r4, .L55+8
 956 0092 1520     		mov	r0, #21
 957 0094 211C     		mov	r1, r4
 958 0096 FFF7FEFF 		bl	set_led
 959              	.LVL67:
 466:..\Slider.cydsn/animation.c ****                                             set_led(E_LED_RIGHT_RED  , MAX_INTENSITY);
 960              		.loc 1 466 0
 961 009a 1220     		mov	r0, #18
 962 009c 211C     		mov	r1, r4
 963 009e FFF7FEFF 		bl	set_led
 964              	.LVL68:
 467:..\Slider.cydsn/animation.c ****                                             break;
 965              		.loc 1 467 0
 966 00a2 12E0     		b	.L49
 967              	.L52:
 468:..\Slider.cydsn/animation.c ****                 case E_PRIMARY_COLOR_GREEN: set_led(E_LED_LEFT_GREEN , MAX_INTENSITY);
 968              		.loc 1 468 0
 969 00a4 0B4C     		ldr	r4, .L55+8
 970 00a6 1620     		mov	r0, #22
 971 00a8 211C     		mov	r1, r4
 972 00aa FFF7FEFF 		bl	set_led
 973              	.LVL69:
 469:..\Slider.cydsn/animation.c ****                                             set_led(E_LED_RIGHT_GREEN, MAX_INTENSITY);
 974              		.loc 1 469 0
 975 00ae 1320     		mov	r0, #19
 976 00b0 211C     		mov	r1, r4
 977 00b2 FFF7FEFF 		bl	set_led
 978              	.LVL70:
 470:..\Slider.cydsn/animation.c ****                                             break; 
 979              		.loc 1 470 0
 980 00b6 08E0     		b	.L49
 981              	.L54:
 471:..\Slider.cydsn/animation.c ****                 case E_PRIMARY_COLOR_BLUE : set_led(E_LED_LEFT_BLUE  , MAX_INTENSITY);
 982              		.loc 1 471 0
 983 00b8 064C     		ldr	r4, .L55+8
 984 00ba 1720     		mov	r0, #23
 985 00bc 211C     		mov	r1, r4
 986 00be FFF7FEFF 		bl	set_led
 987              	.LVL71:
 472:..\Slider.cydsn/animation.c ****                                             set_led(E_LED_RIGHT_BLUE , MAX_INTENSITY);
 988              		.loc 1 472 0
 989 00c2 1420     		mov	r0, #20
 990 00c4 211C     		mov	r1, r4
 991 00c6 FFF7FEFF 		bl	set_led
ARM GAS  C:\Users\MM1005~1\AppData\Local\Temp\ccTXRdVU.s 			page 27


 992              	.LVL72:
 993              	.L49:
 473:..\Slider.cydsn/animation.c ****                                             break;
 474:..\Slider.cydsn/animation.c ****                 default:                    break;
 475:..\Slider.cydsn/animation.c ****             }
 476:..\Slider.cydsn/animation.c ****         }
 477:..\Slider.cydsn/animation.c ****     }// we go inward
 478:..\Slider.cydsn/animation.c **** }// animate_2_leds
 994              		.loc 1 478 0
 995              		@ sp needed
 996 00ca 38BD     		pop	{r3, r4, r5, pc}
 997              	.L56:
 998              		.align	2
 999              	.L55:
 1000 00cc 00000000 		.word	.LANCHOR0
 1001 00d0 00000000 		.word	.LANCHOR1
 1002 00d4 FF0F0000 		.word	4095
 1003              		.cfi_endproc
 1004              	.LFE48:
 1005              		.size	animate_2_leds, .-animate_2_leds
 1006              		.section	.text.animate_fix_led_14,"ax",%progbits
 1007              		.align	2
 1008              		.global	animate_fix_led_14
 1009              		.code	16
 1010              		.thumb_func
 1011              		.type	animate_fix_led_14, %function
 1012              	animate_fix_led_14:
 1013              	.LFB37:
 182:..\Slider.cydsn/animation.c ****     set_led(14, MAX_INTENSITY);
 1014              		.loc 1 182 0
 1015              		.cfi_startproc
 1016 0000 08B5     		push	{r3, lr}
 1017              		.cfi_def_cfa_offset 8
 1018              		.cfi_offset 3, -8
 1019              		.cfi_offset 14, -4
 183:..\Slider.cydsn/animation.c **** }// animate_fix_led_0
 1020              		.loc 1 183 0
 1021 0002 0E20     		mov	r0, #14
 1022 0004 0149     		ldr	r1, .L58
 1023 0006 FFF7FEFF 		bl	set_led
 1024              	.LVL73:
 184:..\Slider.cydsn/animation.c **** 
 1025              		.loc 1 184 0
 1026              		@ sp needed
 1027 000a 08BD     		pop	{r3, pc}
 1028              	.L59:
 1029              		.align	2
 1030              	.L58:
 1031 000c FF0F0000 		.word	4095
 1032              		.cfi_endproc
 1033              	.LFE37:
 1034              		.size	animate_fix_led_14, .-animate_fix_led_14
 1035              		.section	.text.animate_color_intensity,"ax",%progbits
 1036              		.align	2
 1037              		.global	animate_color_intensity
 1038              		.code	16
 1039              		.thumb_func
ARM GAS  C:\Users\MM1005~1\AppData\Local\Temp\ccTXRdVU.s 			page 28


 1040              		.type	animate_color_intensity, %function
 1041              	animate_color_intensity:
 1042              	.LFB44:
 296:..\Slider.cydsn/animation.c ****     static uint16 intensity    = 0   ;
 1043              		.loc 1 296 0
 1044              		.cfi_startproc
 1045              	.LVL74:
 1046 0000 10B5     		push	{r4, lr}
 1047              		.cfi_def_cfa_offset 8
 1048              		.cfi_offset 4, -8
 1049              		.cfi_offset 14, -4
 1050              	.LVL75:
 301:..\Slider.cydsn/animation.c ****     {
 1051              		.loc 1 301 0
 1052 0002 0128     		cmp	r0, #1
 1053 0004 0ED0     		beq	.L62
 1054 0006 0028     		cmp	r0, #0
 1055 0008 02D0     		beq	.L63
 1056 000a 0228     		cmp	r0, #2
 1057 000c 14D0     		beq	.L64
 1058 000e 1CE0     		b	.L61
 1059              	.L63:
 303:..\Slider.cydsn/animation.c ****                                     set_led(E_LED_RIGHT_RED  , intensity);
 1060              		.loc 1 303 0
 1061 0010 1B4C     		ldr	r4, .L67
 1062 0012 E18A     		ldrh	r1, [r4, #22]
 1063 0014 1520     		mov	r0, #21
 1064              	.LVL76:
 1065 0016 FFF7FEFF 		bl	set_led
 1066              	.LVL77:
 304:..\Slider.cydsn/animation.c ****                                     break;
 1067              		.loc 1 304 0
 1068 001a E18A     		ldrh	r1, [r4, #22]
 1069 001c 1220     		mov	r0, #18
 1070 001e FFF7FEFF 		bl	set_led
 1071              	.LVL78:
 305:..\Slider.cydsn/animation.c ****         case E_PRIMARY_COLOR_GREEN: set_led(E_LED_LEFT_GREEN , intensity);
 1072              		.loc 1 305 0
 1073 0022 12E0     		b	.L61
 1074              	.LVL79:
 1075              	.L62:
 306:..\Slider.cydsn/animation.c ****                                     set_led(E_LED_RIGHT_GREEN, intensity);
 1076              		.loc 1 306 0
 1077 0024 164C     		ldr	r4, .L67
 1078 0026 E18A     		ldrh	r1, [r4, #22]
 1079 0028 1620     		mov	r0, #22
 1080              	.LVL80:
 1081 002a FFF7FEFF 		bl	set_led
 1082              	.LVL81:
 307:..\Slider.cydsn/animation.c ****                                     break;
 1083              		.loc 1 307 0
 1084 002e E18A     		ldrh	r1, [r4, #22]
 1085 0030 1320     		mov	r0, #19
 1086 0032 FFF7FEFF 		bl	set_led
 1087              	.LVL82:
 308:..\Slider.cydsn/animation.c ****         case E_PRIMARY_COLOR_BLUE : set_led(E_LED_LEFT_BLUE  , intensity);
 1088              		.loc 1 308 0
ARM GAS  C:\Users\MM1005~1\AppData\Local\Temp\ccTXRdVU.s 			page 29


 1089 0036 08E0     		b	.L61
 1090              	.LVL83:
 1091              	.L64:
 309:..\Slider.cydsn/animation.c ****                                     set_led(E_LED_RIGHT_BLUE , intensity);
 1092              		.loc 1 309 0
 1093 0038 114C     		ldr	r4, .L67
 1094 003a E18A     		ldrh	r1, [r4, #22]
 1095 003c 1720     		mov	r0, #23
 1096              	.LVL84:
 1097 003e FFF7FEFF 		bl	set_led
 1098              	.LVL85:
 310:..\Slider.cydsn/animation.c ****                                     break;
 1099              		.loc 1 310 0
 1100 0042 E18A     		ldrh	r1, [r4, #22]
 1101 0044 1420     		mov	r0, #20
 1102 0046 FFF7FEFF 		bl	set_led
 1103              	.LVL86:
 1104              	.L61:
 315:..\Slider.cydsn/animation.c ****     {
 1105              		.loc 1 315 0
 1106 004a 0E4B     		ldr	r3, .L67+4
 1107 004c DB7A     		ldrb	r3, [r3, #11]
 1108 004e 002B     		cmp	r3, #0
 1109 0050 0BD0     		beq	.L65
 317:..\Slider.cydsn/animation.c ****         if (intensity >= MAX_COLOR)
 1110              		.loc 1 317 0
 1111 0052 0B4A     		ldr	r2, .L67
 1112 0054 D38A     		ldrh	r3, [r2, #22]
 1113 0056 0133     		add	r3, r3, #1
 1114 0058 9BB2     		uxth	r3, r3
 1115 005a D382     		strh	r3, [r2, #22]
 318:..\Slider.cydsn/animation.c ****         {
 1116              		.loc 1 318 0
 1117 005c 0A4A     		ldr	r2, .L67+8
 1118 005e 9342     		cmp	r3, r2
 1119 0060 0DD9     		bls	.L60
 320:..\Slider.cydsn/animation.c ****         }
 1120              		.loc 1 320 0
 1121 0062 0022     		mov	r2, #0
 1122 0064 074B     		ldr	r3, .L67+4
 1123 0066 DA72     		strb	r2, [r3, #11]
 1124 0068 09E0     		b	.L60
 1125              	.L65:
 325:..\Slider.cydsn/animation.c ****         if (intensity == 0)
 1126              		.loc 1 325 0
 1127 006a 054A     		ldr	r2, .L67
 1128 006c D38A     		ldrh	r3, [r2, #22]
 1129 006e 013B     		sub	r3, r3, #1
 1130 0070 9BB2     		uxth	r3, r3
 1131 0072 D382     		strh	r3, [r2, #22]
 326:..\Slider.cydsn/animation.c ****         {
 1132              		.loc 1 326 0
 1133 0074 002B     		cmp	r3, #0
 1134 0076 02D1     		bne	.L60
 328:..\Slider.cydsn/animation.c ****         }
 1135              		.loc 1 328 0
 1136 0078 0122     		mov	r2, #1
ARM GAS  C:\Users\MM1005~1\AppData\Local\Temp\ccTXRdVU.s 			page 30


 1137 007a 024B     		ldr	r3, .L67+4
 1138 007c DA72     		strb	r2, [r3, #11]
 1139              	.L60:
 331:..\Slider.cydsn/animation.c **** 
 1140              		.loc 1 331 0
 1141              		@ sp needed
 1142 007e 10BD     		pop	{r4, pc}
 1143              	.L68:
 1144              		.align	2
 1145              	.L67:
 1146 0080 00000000 		.word	.LANCHOR0
 1147 0084 00000000 		.word	.LANCHOR1
 1148 0088 FE0F0000 		.word	4094
 1149              		.cfi_endproc
 1150              	.LFE44:
 1151              		.size	animate_color_intensity, .-animate_color_intensity
 1152              		.section	.text.animate_button_smooth,"ax",%progbits
 1153              		.align	2
 1154              		.global	animate_button_smooth
 1155              		.code	16
 1156              		.thumb_func
 1157              		.type	animate_button_smooth, %function
 1158              	animate_button_smooth:
 1159              	.LFB49:
 479:..\Slider.cydsn/animation.c **** 
 480:..\Slider.cydsn/animation.c **** void animate_button_smooth(uint16 breather_skip_cycle)
 481:..\Slider.cydsn/animation.c **** {
 1160              		.loc 1 481 0
 1161              		.cfi_startproc
 1162              	.LVL87:
 1163 0000 38B5     		push	{r3, r4, r5, lr}
 1164              		.cfi_def_cfa_offset 16
 1165              		.cfi_offset 3, -16
 1166              		.cfi_offset 4, -12
 1167              		.cfi_offset 5, -8
 1168              		.cfi_offset 14, -4
 1169 0002 011C     		mov	r1, r0
 1170              	.LVL88:
 482:..\Slider.cydsn/animation.c ****     static uint16 led_up      = TRUE;
 483:..\Slider.cydsn/animation.c ****     static uint16 left_led    = 1  ;
 484:..\Slider.cydsn/animation.c ****     static uint16 right_led   = 2   ;
 485:..\Slider.cydsn/animation.c ****     static uint8  left_index  = PI_0_INDEX  ;
 486:..\Slider.cydsn/animation.c ****     static uint8  right_index = PI_180_INDEX;
 487:..\Slider.cydsn/animation.c ****     static uint16 cycle       = 0;
 488:..\Slider.cydsn/animation.c ****            uint16 tmp         = 0;
 489:..\Slider.cydsn/animation.c ****     
 490:..\Slider.cydsn/animation.c ****     cycle++;
 1171              		.loc 1 490 0
 1172 0004 284B     		ldr	r3, .L76
 1173 0006 188B     		ldrh	r0, [r3, #24]
 1174              	.LVL89:
 1175 0008 0130     		add	r0, r0, #1
 1176 000a 80B2     		uxth	r0, r0
 1177 000c 1883     		strh	r0, [r3, #24]
 491:..\Slider.cydsn/animation.c ****     
 492:..\Slider.cydsn/animation.c ****  #if 1   
 493:..\Slider.cydsn/animation.c ****     if ((breather_skip_cycle) && (cycle % breather_skip_cycle))
ARM GAS  C:\Users\MM1005~1\AppData\Local\Temp\ccTXRdVU.s 			page 31


 1178              		.loc 1 493 0
 1179 000e 0029     		cmp	r1, #0
 1180 0010 04D0     		beq	.L70
 1181              		.loc 1 493 0 is_stmt 0 discriminator 1
 1182 0012 FFF7FEFF 		bl	__aeabi_uidivmod
 1183              	.LVL90:
 1184 0016 89B2     		uxth	r1, r1
 1185 0018 0029     		cmp	r1, #0
 1186 001a 43D1     		bne	.L69
 1187              	.L70:
 494:..\Slider.cydsn/animation.c ****     {
 495:..\Slider.cydsn/animation.c ****         return;    
 496:..\Slider.cydsn/animation.c ****     }
 497:..\Slider.cydsn/animation.c ****  #endif   
 498:..\Slider.cydsn/animation.c ****     
 499:..\Slider.cydsn/animation.c **** #if USE_128_POINTS_FOR_BREATHING
 500:..\Slider.cydsn/animation.c ****     left_index  %= SINE_VEC_SIZE;
 501:..\Slider.cydsn/animation.c ****     right_index %= SINE_VEC_SIZE;
 502:..\Slider.cydsn/animation.c **** #endif // at 256 points, the index value (uint8) will rotate by them self
 503:..\Slider.cydsn/animation.c **** 
 504:..\Slider.cydsn/animation.c **** #if 1
 505:..\Slider.cydsn/animation.c ****     if (led_up)
 1188              		.loc 1 505 0 is_stmt 1
 1189 001c 234B     		ldr	r3, .L76+4
 1190 001e 9B89     		ldrh	r3, [r3, #12]
 1191 0020 002B     		cmp	r3, #0
 1192 0022 17D0     		beq	.L72
 506:..\Slider.cydsn/animation.c ****     {
 507:..\Slider.cydsn/animation.c ****         if (left_index == PI_270_INDEX) // left to right breathing cycle completed
 1193              		.loc 1 507 0
 1194 0024 204B     		ldr	r3, .L76
 1195 0026 9B7E     		ldrb	r3, [r3, #26]
 1196 0028 C02B     		cmp	r3, #192
 1197 002a 29D1     		bne	.L73
 508:..\Slider.cydsn/animation.c ****         {
 509:..\Slider.cydsn/animation.c ****             if (right_led >= NUMBER_OF_WHITE_LEDS - 1)
 1198              		.loc 1 509 0
 1199 002c 1F4A     		ldr	r2, .L76+4
 1200 002e D289     		ldrh	r2, [r2, #14]
 1201 0030 0D2A     		cmp	r2, #13
 1202 0032 03D9     		bls	.L74
 510:..\Slider.cydsn/animation.c ****             {
 511:..\Slider.cydsn/animation.c ****                 led_up = FALSE; 
 1203              		.loc 1 511 0
 1204 0034 0022     		mov	r2, #0
 1205 0036 1D4B     		ldr	r3, .L76+4
 1206 0038 9A81     		strh	r2, [r3, #12]
 1207 003a 21E0     		b	.L73
 1208              	.L74:
 512:..\Slider.cydsn/animation.c ****             }
 513:..\Slider.cydsn/animation.c ****             else
 514:..\Slider.cydsn/animation.c ****             {
 515:..\Slider.cydsn/animation.c ****                 left_led++;
 1209              		.loc 1 515 0
 1210 003c 1B49     		ldr	r1, .L76+4
 1211 003e 0A8A     		ldrh	r2, [r1, #16]
 1212 0040 0132     		add	r2, r2, #1
ARM GAS  C:\Users\MM1005~1\AppData\Local\Temp\ccTXRdVU.s 			page 32


 1213 0042 92B2     		uxth	r2, r2
 1214 0044 0A82     		strh	r2, [r1, #16]
 516:..\Slider.cydsn/animation.c ****                 right_led   = left_led + 1;
 1215              		.loc 1 516 0
 1216 0046 0132     		add	r2, r2, #1
 1217 0048 CA81     		strh	r2, [r1, #14]
 1218              	.LVL91:
 517:..\Slider.cydsn/animation.c ****                 tmp         = left_index;
 518:..\Slider.cydsn/animation.c ****                 left_index  = right_index;
 1219              		.loc 1 518 0
 1220 004a 887C     		ldrb	r0, [r1, #18]
 1221 004c 164A     		ldr	r2, .L76
 1222 004e 9076     		strb	r0, [r2, #26]
 519:..\Slider.cydsn/animation.c ****                 right_index = tmp;
 1223              		.loc 1 519 0
 1224 0050 8B74     		strb	r3, [r1, #18]
 1225 0052 15E0     		b	.L73
 1226              	.LVL92:
 1227              	.L72:
 520:..\Slider.cydsn/animation.c ****             }
 521:..\Slider.cydsn/animation.c ****         }// If the left led is at 0 intensity
 522:..\Slider.cydsn/animation.c ****     }// led up, left to right
 523:..\Slider.cydsn/animation.c ****     else
 524:..\Slider.cydsn/animation.c ****     {
 525:..\Slider.cydsn/animation.c ****         if (right_index == PI_270_INDEX) // right to left breathing cycle completed
 1228              		.loc 1 525 0
 1229 0054 154B     		ldr	r3, .L76+4
 1230 0056 9B7C     		ldrb	r3, [r3, #18]
 1231 0058 C02B     		cmp	r3, #192
 1232 005a 11D1     		bne	.L73
 526:..\Slider.cydsn/animation.c ****         {
 527:..\Slider.cydsn/animation.c ****             if (left_led == 1)
 1233              		.loc 1 527 0
 1234 005c 134A     		ldr	r2, .L76+4
 1235 005e 128A     		ldrh	r2, [r2, #16]
 1236 0060 012A     		cmp	r2, #1
 1237 0062 02D1     		bne	.L75
 528:..\Slider.cydsn/animation.c ****             {
 529:..\Slider.cydsn/animation.c ****                 led_up = TRUE;
 1238              		.loc 1 529 0
 1239 0064 114B     		ldr	r3, .L76+4
 1240 0066 9A81     		strh	r2, [r3, #12]
 1241 0068 0AE0     		b	.L73
 1242              	.L75:
 530:..\Slider.cydsn/animation.c ****             }
 531:..\Slider.cydsn/animation.c ****             else
 532:..\Slider.cydsn/animation.c ****             {
 533:..\Slider.cydsn/animation.c ****                 right_led--;    
 1243              		.loc 1 533 0
 1244 006a 1049     		ldr	r1, .L76+4
 1245 006c CA89     		ldrh	r2, [r1, #14]
 1246 006e 013A     		sub	r2, r2, #1
 1247 0070 92B2     		uxth	r2, r2
 1248 0072 CA81     		strh	r2, [r1, #14]
 534:..\Slider.cydsn/animation.c ****                 left_led    = right_led - 1;
 1249              		.loc 1 534 0
 1250 0074 013A     		sub	r2, r2, #1
ARM GAS  C:\Users\MM1005~1\AppData\Local\Temp\ccTXRdVU.s 			page 33


 1251 0076 0A82     		strh	r2, [r1, #16]
 535:..\Slider.cydsn/animation.c ****                 tmp         = left_index;
 1252              		.loc 1 535 0
 1253 0078 0B4A     		ldr	r2, .L76
 1254 007a 907E     		ldrb	r0, [r2, #26]
 1255              	.LVL93:
 536:..\Slider.cydsn/animation.c ****                 left_index  = right_index;
 1256              		.loc 1 536 0
 1257 007c 9376     		strb	r3, [r2, #26]
 537:..\Slider.cydsn/animation.c ****                 right_index = tmp;
 1258              		.loc 1 537 0
 1259 007e 8874     		strb	r0, [r1, #18]
 1260              	.LVL94:
 1261              	.L73:
 538:..\Slider.cydsn/animation.c ****             }  
 539:..\Slider.cydsn/animation.c ****         }// If the right led is at 0 intensity
 540:..\Slider.cydsn/animation.c ****     }// else, led down, right to left
 541:..\Slider.cydsn/animation.c **** #endif
 542:..\Slider.cydsn/animation.c **** 
 543:..\Slider.cydsn/animation.c ****     set_led_pair(left_led, sine_vec[left_index++], sine_vec[right_index++]); 
 1262              		.loc 1 543 0
 1263 0080 0A4C     		ldr	r4, .L76+4
 1264 0082 207C     		ldrb	r0, [r4, #16]
 1265 0084 084B     		ldr	r3, .L76
 1266 0086 9A7E     		ldrb	r2, [r3, #26]
 1267 0088 511C     		add	r1, r2, #1
 1268 008a 9976     		strb	r1, [r3, #26]
 1269 008c 084D     		ldr	r5, .L76+8
 1270 008e 5200     		lsl	r2, r2, #1
 1271 0090 AA18     		add	r2, r5, r2
 1272 0092 118B     		ldrh	r1, [r2, #24]
 1273 0094 A37C     		ldrb	r3, [r4, #18]
 1274 0096 5A1C     		add	r2, r3, #1
 1275 0098 A274     		strb	r2, [r4, #18]
 1276 009a 5B00     		lsl	r3, r3, #1
 1277 009c EB18     		add	r3, r5, r3
 1278 009e 1A8B     		ldrh	r2, [r3, #24]
 1279 00a0 FFF7FEFF 		bl	set_led_pair
 1280              	.LVL95:
 1281              	.L69:
 544:..\Slider.cydsn/animation.c **** }// animate_button_smooth
 1282              		.loc 1 544 0
 1283              		@ sp needed
 1284 00a4 38BD     		pop	{r3, r4, r5, pc}
 1285              	.L77:
 1286 00a6 C046     		.align	2
 1287              	.L76:
 1288 00a8 00000000 		.word	.LANCHOR0
 1289 00ac 00000000 		.word	.LANCHOR1
 1290 00b0 00000000 		.word	.LANCHOR2
 1291              		.cfi_endproc
 1292              	.LFE49:
 1293              		.size	animate_button_smooth, .-animate_button_smooth
 1294              		.section	.text.animate_button_smooth_slow,"ax",%progbits
 1295              		.align	2
 1296              		.global	animate_button_smooth_slow
 1297              		.code	16
ARM GAS  C:\Users\MM1005~1\AppData\Local\Temp\ccTXRdVU.s 			page 34


 1298              		.thumb_func
 1299              		.type	animate_button_smooth_slow, %function
 1300              	animate_button_smooth_slow:
 1301              	.LFB50:
 545:..\Slider.cydsn/animation.c **** 
 546:..\Slider.cydsn/animation.c **** //=============================================================================
 547:..\Slider.cydsn/animation.c **** //================================================== animate_button_smooth_slow
 548:..\Slider.cydsn/animation.c **** //=============================================================================
 549:..\Slider.cydsn/animation.c **** void animate_button_smooth_slow(void)
 550:..\Slider.cydsn/animation.c **** {
 1302              		.loc 1 550 0
 1303              		.cfi_startproc
 1304 0000 08B5     		push	{r3, lr}
 1305              		.cfi_def_cfa_offset 8
 1306              		.cfi_offset 3, -8
 1307              		.cfi_offset 14, -4
 551:..\Slider.cydsn/animation.c ****     animate_button_smooth(vec_call_back_anim[ANIM_BUTTON_SMOOTH_SLOW].high_speed ? 0x10 : 0x04);
 1308              		.loc 1 551 0
 1309 0002 054B     		ldr	r3, .L81
 1310 0004 5B7D     		ldrb	r3, [r3, #21]
 1311 0006 002B     		cmp	r3, #0
 1312 0008 01D0     		beq	.L80
 1313 000a 1020     		mov	r0, #16
 1314 000c 00E0     		b	.L79
 1315              	.L80:
 1316 000e 0420     		mov	r0, #4
 1317              	.L79:
 1318              		.loc 1 551 0 is_stmt 0 discriminator 4
 1319 0010 FFF7FEFF 		bl	animate_button_smooth
 1320              	.LVL96:
 552:..\Slider.cydsn/animation.c **** }// animate_button_smooth_slow
 1321              		.loc 1 552 0 is_stmt 1 discriminator 4
 1322              		@ sp needed
 1323 0014 08BD     		pop	{r3, pc}
 1324              	.L82:
 1325 0016 C046     		.align	2
 1326              	.L81:
 1327 0018 00000000 		.word	.LANCHOR1
 1328              		.cfi_endproc
 1329              	.LFE50:
 1330              		.size	animate_button_smooth_slow, .-animate_button_smooth_slow
 1331              		.section	.text.animate_button_smooth_fast,"ax",%progbits
 1332              		.align	2
 1333              		.global	animate_button_smooth_fast
 1334              		.code	16
 1335              		.thumb_func
 1336              		.type	animate_button_smooth_fast, %function
 1337              	animate_button_smooth_fast:
 1338              	.LFB51:
 553:..\Slider.cydsn/animation.c **** 
 554:..\Slider.cydsn/animation.c **** //=============================================================================
 555:..\Slider.cydsn/animation.c **** //================================================== animate_button_smooth_fast
 556:..\Slider.cydsn/animation.c **** //=============================================================================
 557:..\Slider.cydsn/animation.c **** void animate_button_smooth_fast(void)
 558:..\Slider.cydsn/animation.c **** {
 1339              		.loc 1 558 0
 1340              		.cfi_startproc
ARM GAS  C:\Users\MM1005~1\AppData\Local\Temp\ccTXRdVU.s 			page 35


 1341 0000 08B5     		push	{r3, lr}
 1342              		.cfi_def_cfa_offset 8
 1343              		.cfi_offset 3, -8
 1344              		.cfi_offset 14, -4
 559:..\Slider.cydsn/animation.c ****     animate_button_smooth(vec_call_back_anim[ANIM_BUTTON_SMOOTH_FAST].high_speed ? 0x02 : 0x00);
 1345              		.loc 1 559 0
 1346 0002 2123     		mov	r3, #33
 1347 0004 044A     		ldr	r2, .L86
 1348 0006 D35C     		ldrb	r3, [r2, r3]
 1349 0008 002B     		cmp	r3, #0
 1350 000a 01D0     		beq	.L85
 1351 000c 0220     		mov	r0, #2
 1352 000e 00E0     		b	.L84
 1353              	.L85:
 1354 0010 0020     		mov	r0, #0
 1355              	.L84:
 1356              		.loc 1 559 0 is_stmt 0 discriminator 4
 1357 0012 FFF7FEFF 		bl	animate_button_smooth
 1358              	.LVL97:
 560:..\Slider.cydsn/animation.c **** }// animate_button_smooth_fast
 1359              		.loc 1 560 0 is_stmt 1 discriminator 4
 1360              		@ sp needed
 1361 0016 08BD     		pop	{r3, pc}
 1362              	.L87:
 1363              		.align	2
 1364              	.L86:
 1365 0018 00000000 		.word	.LANCHOR1
 1366              		.cfi_endproc
 1367              	.LFE51:
 1368              		.size	animate_button_smooth_fast, .-animate_button_smooth_fast
 1369              		.section	.text.get_animation,"ax",%progbits
 1370              		.align	2
 1371              		.global	get_animation
 1372              		.code	16
 1373              		.thumb_func
 1374              		.type	get_animation, %function
 1375              	get_animation:
 1376              	.LFB52:
 561:..\Slider.cydsn/animation.c **** 
 562:..\Slider.cydsn/animation.c **** //=============================================================================
 563:..\Slider.cydsn/animation.c **** //=============================================================== get_animation
 564:..\Slider.cydsn/animation.c **** //=============================================================================
 565:..\Slider.cydsn/animation.c **** void get_animation (t_enum_animation anim_id, t_struct_animation* p_animation)
 566:..\Slider.cydsn/animation.c **** {
 1377              		.loc 1 566 0
 1378              		.cfi_startproc
 1379              	.LVL98:
 1380 0000 70B5     		push	{r4, r5, r6, lr}
 1381              		.cfi_def_cfa_offset 16
 1382              		.cfi_offset 4, -16
 1383              		.cfi_offset 5, -12
 1384              		.cfi_offset 6, -8
 1385              		.cfi_offset 14, -4
 567:..\Slider.cydsn/animation.c ****     p_animation->id          = vec_call_back_anim[anim_id].id;
 1386              		.loc 1 567 0
 1387 0002 0A4A     		ldr	r2, .L89
 1388 0004 4400     		lsl	r4, r0, #1
ARM GAS  C:\Users\MM1005~1\AppData\Local\Temp\ccTXRdVU.s 			page 36


 1389 0006 2318     		add	r3, r4, r0
 1390 0008 9B00     		lsl	r3, r3, #2
 1391 000a D318     		add	r3, r2, r3
 1392 000c 1D1C     		mov	r5, r3
 1393 000e 1E7D     		ldrb	r6, [r3, #20]
 1394 0010 0E70     		strb	r6, [r1]
 568:..\Slider.cydsn/animation.c ****     p_animation->high_speed  = vec_call_back_anim[anim_id].high_speed;
 1395              		.loc 1 568 0
 1396 0012 5E7D     		ldrb	r6, [r3, #21]
 567:..\Slider.cydsn/animation.c ****     p_animation->id          = vec_call_back_anim[anim_id].id;
 1397              		.loc 1 567 0
 1398 0014 1435     		add	r5, r5, #20
 1399              		.loc 1 568 0
 1400 0016 4E70     		strb	r6, [r1, #1]
 569:..\Slider.cydsn/animation.c ****     p_animation->started     = vec_call_back_anim[anim_id].started;
 1401              		.loc 1 569 0
 1402 0018 AD78     		ldrb	r5, [r5, #2]
 1403 001a 8D70     		strb	r5, [r1, #2]
 570:..\Slider.cydsn/animation.c ****     p_animation->description = vec_call_back_anim[anim_id].description;
 1404              		.loc 1 570 0
 1405 001c DB69     		ldr	r3, [r3, #28]
 1406 001e 8B60     		str	r3, [r1, #8]
 571:..\Slider.cydsn/animation.c ****     p_animation->callback    = vec_call_back_anim[anim_id].callback;
 1407              		.loc 1 571 0
 1408 0020 2018     		add	r0, r4, r0
 1409              	.LVL99:
 1410 0022 8000     		lsl	r0, r0, #2
 1411 0024 1018     		add	r0, r2, r0
 1412 0026 8369     		ldr	r3, [r0, #24]
 1413 0028 4B60     		str	r3, [r1, #4]
 572:..\Slider.cydsn/animation.c **** }// get_animation
 1414              		.loc 1 572 0
 1415              		@ sp needed
 1416 002a 70BD     		pop	{r4, r5, r6, pc}
 1417              	.L90:
 1418              		.align	2
 1419              	.L89:
 1420 002c 00000000 		.word	.LANCHOR1
 1421              		.cfi_endproc
 1422              	.LFE52:
 1423              		.size	get_animation, .-get_animation
 1424              		.section	.text.get_is_auto_anim_rotation_enable,"ax",%progbits
 1425              		.align	2
 1426              		.global	get_is_auto_anim_rotation_enable
 1427              		.code	16
 1428              		.thumb_func
 1429              		.type	get_is_auto_anim_rotation_enable, %function
 1430              	get_is_auto_anim_rotation_enable:
 1431              	.LFB53:
 573:..\Slider.cydsn/animation.c **** 
 574:..\Slider.cydsn/animation.c **** //=============================================================================
 575:..\Slider.cydsn/animation.c **** //============================================ get_is_auto_anim_rotation_enable
 576:..\Slider.cydsn/animation.c **** //=============================================================================
 577:..\Slider.cydsn/animation.c **** BOOL get_is_auto_anim_rotation_enable()
 578:..\Slider.cydsn/animation.c **** {
 1432              		.loc 1 578 0
 1433              		.cfi_startproc
ARM GAS  C:\Users\MM1005~1\AppData\Local\Temp\ccTXRdVU.s 			page 37


 579:..\Slider.cydsn/animation.c ****     return is_auto_anim_rotation_enable;
 1434              		.loc 1 579 0
 1435 0000 014B     		ldr	r3, .L92
 1436 0002 D87E     		ldrb	r0, [r3, #27]
 580:..\Slider.cydsn/animation.c **** }// get_is_auto_anim_rotation_enable
 1437              		.loc 1 580 0
 1438              		@ sp needed
 1439 0004 7047     		bx	lr
 1440              	.L93:
 1441 0006 C046     		.align	2
 1442              	.L92:
 1443 0008 00000000 		.word	.LANCHOR0
 1444              		.cfi_endproc
 1445              	.LFE53:
 1446              		.size	get_is_auto_anim_rotation_enable, .-get_is_auto_anim_rotation_enable
 1447              		.section	.text.set_is_auto_anim_rotation_enable,"ax",%progbits
 1448              		.align	2
 1449              		.global	set_is_auto_anim_rotation_enable
 1450              		.code	16
 1451              		.thumb_func
 1452              		.type	set_is_auto_anim_rotation_enable, %function
 1453              	set_is_auto_anim_rotation_enable:
 1454              	.LFB54:
 581:..\Slider.cydsn/animation.c **** 
 582:..\Slider.cydsn/animation.c **** //=============================================================================
 583:..\Slider.cydsn/animation.c **** //============================================ set_is_auto_anim_rotation_enable
 584:..\Slider.cydsn/animation.c **** //=============================================================================
 585:..\Slider.cydsn/animation.c **** void set_is_auto_anim_rotation_enable(BOOL the_is_auto_anim_rotation_enable)
 586:..\Slider.cydsn/animation.c **** {
 1455              		.loc 1 586 0
 1456              		.cfi_startproc
 1457              	.LVL100:
 587:..\Slider.cydsn/animation.c ****     is_auto_anim_rotation_enable = the_is_auto_anim_rotation_enable;
 1458              		.loc 1 587 0
 1459 0000 014B     		ldr	r3, .L95
 1460 0002 D876     		strb	r0, [r3, #27]
 588:..\Slider.cydsn/animation.c **** }// set_is_auto_anim_rotation_enable
 1461              		.loc 1 588 0
 1462              		@ sp needed
 1463 0004 7047     		bx	lr
 1464              	.L96:
 1465 0006 C046     		.align	2
 1466              	.L95:
 1467 0008 00000000 		.word	.LANCHOR0
 1468              		.cfi_endproc
 1469              	.LFE54:
 1470              		.size	set_is_auto_anim_rotation_enable, .-set_is_auto_anim_rotation_enable
 1471              		.section	.text.get_is_anim_on_button_up_enable,"ax",%progbits
 1472              		.align	2
 1473              		.global	get_is_anim_on_button_up_enable
 1474              		.code	16
 1475              		.thumb_func
 1476              		.type	get_is_anim_on_button_up_enable, %function
 1477              	get_is_anim_on_button_up_enable:
 1478              	.LFB55:
 589:..\Slider.cydsn/animation.c **** 
 590:..\Slider.cydsn/animation.c **** //=============================================================================
ARM GAS  C:\Users\MM1005~1\AppData\Local\Temp\ccTXRdVU.s 			page 38


 591:..\Slider.cydsn/animation.c **** //============================================= get_is_anim_on_button_up_enable
 592:..\Slider.cydsn/animation.c **** //=============================================================================
 593:..\Slider.cydsn/animation.c **** BOOL get_is_anim_on_button_up_enable()
 594:..\Slider.cydsn/animation.c **** {
 1479              		.loc 1 594 0
 1480              		.cfi_startproc
 595:..\Slider.cydsn/animation.c ****     return is_anim_on_button_up_enable;
 1481              		.loc 1 595 0
 1482 0000 014B     		ldr	r3, .L98
 1483 0002 187F     		ldrb	r0, [r3, #28]
 596:..\Slider.cydsn/animation.c **** }// get_is_anim_on_button_up_enable
 1484              		.loc 1 596 0
 1485              		@ sp needed
 1486 0004 7047     		bx	lr
 1487              	.L99:
 1488 0006 C046     		.align	2
 1489              	.L98:
 1490 0008 00000000 		.word	.LANCHOR0
 1491              		.cfi_endproc
 1492              	.LFE55:
 1493              		.size	get_is_anim_on_button_up_enable, .-get_is_anim_on_button_up_enable
 1494              		.section	.text.set_is_anim_on_button_up_enable,"ax",%progbits
 1495              		.align	2
 1496              		.global	set_is_anim_on_button_up_enable
 1497              		.code	16
 1498              		.thumb_func
 1499              		.type	set_is_anim_on_button_up_enable, %function
 1500              	set_is_anim_on_button_up_enable:
 1501              	.LFB56:
 597:..\Slider.cydsn/animation.c **** 
 598:..\Slider.cydsn/animation.c **** //=============================================================================
 599:..\Slider.cydsn/animation.c **** //============================================= set_is_anim_on_button_up_enable
 600:..\Slider.cydsn/animation.c **** //=============================================================================
 601:..\Slider.cydsn/animation.c **** void set_is_anim_on_button_up_enable(BOOL the_is_anim_on_button_up_enable)
 602:..\Slider.cydsn/animation.c **** {
 1502              		.loc 1 602 0
 1503              		.cfi_startproc
 1504              	.LVL101:
 1505 0000 10B5     		push	{r4, lr}
 1506              		.cfi_def_cfa_offset 8
 1507              		.cfi_offset 4, -8
 1508              		.cfi_offset 14, -4
 1509 0002 041C     		mov	r4, r0
 603:..\Slider.cydsn/animation.c ****     if (current_callback_anim < ANIM_UNKNOWN)
 1510              		.loc 1 603 0
 1511 0004 0A4B     		ldr	r3, .L104
 1512 0006 587F     		ldrb	r0, [r3, #29]
 1513              	.LVL102:
 1514 0008 0D28     		cmp	r0, #13
 1515 000a 0ED8     		bhi	.L101
 604:..\Slider.cydsn/animation.c ****     {
 605:..\Slider.cydsn/animation.c ****         send_animation_telemetry(current_callback_anim, the_is_anim_on_button_up_enable ? "starting
 1516              		.loc 1 605 0
 1517 000c 002C     		cmp	r4, #0
 1518 000e 01D0     		beq	.L103
 1519 0010 0849     		ldr	r1, .L104+4
 1520 0012 00E0     		b	.L102
ARM GAS  C:\Users\MM1005~1\AppData\Local\Temp\ccTXRdVU.s 			page 39


 1521              	.L103:
 1522 0014 0849     		ldr	r1, .L104+8
 1523              	.L102:
 1524              		.loc 1 605 0 is_stmt 0 discriminator 4
 1525 0016 FFF7FEFF 		bl	send_animation_telemetry
 1526              	.LVL103:
 606:..\Slider.cydsn/animation.c ****         vec_call_back_anim[current_callback_anim].started = the_is_anim_on_button_up_enable;
 1527              		.loc 1 606 0 is_stmt 1 discriminator 4
 1528 001a 054B     		ldr	r3, .L104
 1529 001c 5B7F     		ldrb	r3, [r3, #29]
 1530 001e 5A00     		lsl	r2, r3, #1
 1531 0020 D318     		add	r3, r2, r3
 1532 0022 9B00     		lsl	r3, r3, #2
 1533 0024 054A     		ldr	r2, .L104+12
 1534 0026 D318     		add	r3, r2, r3
 1535 0028 9C75     		strb	r4, [r3, #22]
 1536              	.L101:
 607:..\Slider.cydsn/animation.c ****     }
 608:..\Slider.cydsn/animation.c ****     
 609:..\Slider.cydsn/animation.c ****     is_anim_on_button_up_enable = the_is_anim_on_button_up_enable;
 1537              		.loc 1 609 0
 1538 002a 014B     		ldr	r3, .L104
 1539 002c 1C77     		strb	r4, [r3, #28]
 610:..\Slider.cydsn/animation.c **** }// set_is_anim_on_button_up_enable
 1540              		.loc 1 610 0
 1541              		@ sp needed
 1542 002e 10BD     		pop	{r4, pc}
 1543              	.L105:
 1544              		.align	2
 1545              	.L104:
 1546 0030 00000000 		.word	.LANCHOR0
 1547 0034 00000000 		.word	.LC30
 1548 0038 0C000000 		.word	.LC32
 1549 003c 00000000 		.word	.LANCHOR1
 1550              		.cfi_endproc
 1551              	.LFE56:
 1552              		.size	set_is_anim_on_button_up_enable, .-set_is_anim_on_button_up_enable
 1553              		.section	.text.get_current_callback_anim,"ax",%progbits
 1554              		.align	2
 1555              		.global	get_current_callback_anim
 1556              		.code	16
 1557              		.thumb_func
 1558              		.type	get_current_callback_anim, %function
 1559              	get_current_callback_anim:
 1560              	.LFB57:
 611:..\Slider.cydsn/animation.c **** 
 612:..\Slider.cydsn/animation.c **** //=============================================================================
 613:..\Slider.cydsn/animation.c **** //=================================================== get_current_callback_anim
 614:..\Slider.cydsn/animation.c **** //=============================================================================
 615:..\Slider.cydsn/animation.c **** t_enum_animation get_current_callback_anim()
 616:..\Slider.cydsn/animation.c **** {
 1561              		.loc 1 616 0
 1562              		.cfi_startproc
 617:..\Slider.cydsn/animation.c ****     return current_callback_anim;
 1563              		.loc 1 617 0
 1564 0000 014B     		ldr	r3, .L107
 1565 0002 587F     		ldrb	r0, [r3, #29]
ARM GAS  C:\Users\MM1005~1\AppData\Local\Temp\ccTXRdVU.s 			page 40


 618:..\Slider.cydsn/animation.c **** }// get_current_callback_anim
 1566              		.loc 1 618 0
 1567              		@ sp needed
 1568 0004 7047     		bx	lr
 1569              	.L108:
 1570 0006 C046     		.align	2
 1571              	.L107:
 1572 0008 00000000 		.word	.LANCHOR0
 1573              		.cfi_endproc
 1574              	.LFE57:
 1575              		.size	get_current_callback_anim, .-get_current_callback_anim
 1576              		.section	.text.is_smooth_button_anim_on,"ax",%progbits
 1577              		.align	2
 1578              		.global	is_smooth_button_anim_on
 1579              		.code	16
 1580              		.thumb_func
 1581              		.type	is_smooth_button_anim_on, %function
 1582              	is_smooth_button_anim_on:
 1583              	.LFB58:
 619:..\Slider.cydsn/animation.c **** 
 620:..\Slider.cydsn/animation.c **** //=============================================================================
 621:..\Slider.cydsn/animation.c **** //==================================================== is_smooth_button_anim_on
 622:..\Slider.cydsn/animation.c **** //=============================================================================
 623:..\Slider.cydsn/animation.c **** BOOL is_smooth_button_anim_on()
 624:..\Slider.cydsn/animation.c **** {
 1584              		.loc 1 624 0
 1585              		.cfi_startproc
 625:..\Slider.cydsn/animation.c ****     return ((current_callback_anim == ANIM_BUTTON_SMOOTH_SLOW) || (current_callback_anim == ANIM_BU
 1586              		.loc 1 625 0
 1587 0000 034B     		ldr	r3, .L110
 1588 0002 5B7F     		ldrb	r3, [r3, #29]
 1589 0004 0020     		mov	r0, #0
 1590 0006 0122     		mov	r2, #1
 1591 0008 9A42     		cmp	r2, r3
 1592 000a 4041     		adc	r0, r0, r0
 1593 000c C0B2     		uxtb	r0, r0
 626:..\Slider.cydsn/animation.c **** }// get_current_callback_anim
 1594              		.loc 1 626 0
 1595              		@ sp needed
 1596 000e 7047     		bx	lr
 1597              	.L111:
 1598              		.align	2
 1599              	.L110:
 1600 0010 00000000 		.word	.LANCHOR0
 1601              		.cfi_endproc
 1602              	.LFE58:
 1603              		.size	is_smooth_button_anim_on, .-is_smooth_button_anim_on
 1604              		.section	.text.set_current_callback_anim,"ax",%progbits
 1605              		.align	2
 1606              		.global	set_current_callback_anim
 1607              		.code	16
 1608              		.thumb_func
 1609              		.type	set_current_callback_anim, %function
 1610              	set_current_callback_anim:
 1611              	.LFB59:
 627:..\Slider.cydsn/animation.c **** 
 628:..\Slider.cydsn/animation.c **** //=============================================================================
ARM GAS  C:\Users\MM1005~1\AppData\Local\Temp\ccTXRdVU.s 			page 41


 629:..\Slider.cydsn/animation.c **** //=================================================== set_current_callback_anim
 630:..\Slider.cydsn/animation.c **** //=============================================================================
 631:..\Slider.cydsn/animation.c **** void set_current_callback_anim(t_enum_animation the_current_callback_anim)
 632:..\Slider.cydsn/animation.c **** {
 1612              		.loc 1 632 0
 1613              		.cfi_startproc
 1614              	.LVL104:
 1615 0000 10B5     		push	{r4, lr}
 1616              		.cfi_def_cfa_offset 8
 1617              		.cfi_offset 4, -8
 1618              		.cfi_offset 14, -4
 1619 0002 041E     		sub	r4, r0, #0
 633:..\Slider.cydsn/animation.c ****     if (the_current_callback_anim >= ANIM_UNKNOWN)
 1620              		.loc 1 633 0
 1621 0004 0D2C     		cmp	r4, #13
 1622 0006 05D9     		bls	.L113
 634:..\Slider.cydsn/animation.c ****     {
 635:..\Slider.cydsn/animation.c ****         send_alarm_telemetry(ALARM_ERROR, "firmware", "invalid animation id");
 1623              		.loc 1 635 0
 1624 0008 0320     		mov	r0, #3
 1625              	.LVL105:
 1626 000a 0F49     		ldr	r1, .L116
 1627 000c 0F4A     		ldr	r2, .L116+4
 1628 000e FFF7FEFF 		bl	send_alarm_telemetry
 1629              	.LVL106:
 636:..\Slider.cydsn/animation.c ****         return;
 1630              		.loc 1 636 0
 1631 0012 17E0     		b	.L112
 1632              	.LVL107:
 1633              	.L113:
 637:..\Slider.cydsn/animation.c ****     }
 638:..\Slider.cydsn/animation.c ****     
 639:..\Slider.cydsn/animation.c ****     if (vec_call_back_anim[the_current_callback_anim].started)
 1634              		.loc 1 639 0
 1635 0014 4300     		lsl	r3, r0, #1
 1636 0016 1B18     		add	r3, r3, r0
 1637 0018 9B00     		lsl	r3, r3, #2
 1638 001a 0D4A     		ldr	r2, .L116+8
 1639 001c D318     		add	r3, r2, r3
 1640 001e 9B7D     		ldrb	r3, [r3, #22]
 1641 0020 002B     		cmp	r3, #0
 1642 0022 09D0     		beq	.L115
 640:..\Slider.cydsn/animation.c ****     {
 641:..\Slider.cydsn/animation.c ****         send_animation_telemetry(the_current_callback_anim, "stopping");
 1643              		.loc 1 641 0
 1644 0024 0B49     		ldr	r1, .L116+12
 1645 0026 FFF7FEFF 		bl	send_animation_telemetry
 1646              	.LVL108:
 642:..\Slider.cydsn/animation.c ****         vec_call_back_anim[the_current_callback_anim].started = FALSE;
 1647              		.loc 1 642 0
 1648 002a 6300     		lsl	r3, r4, #1
 1649 002c 1B19     		add	r3, r3, r4
 1650 002e 9B00     		lsl	r3, r3, #2
 1651 0030 074A     		ldr	r2, .L116+8
 1652 0032 D318     		add	r3, r2, r3
 1653 0034 0022     		mov	r2, #0
 1654 0036 9A75     		strb	r2, [r3, #22]
ARM GAS  C:\Users\MM1005~1\AppData\Local\Temp\ccTXRdVU.s 			page 42


 1655              	.L115:
 643:..\Slider.cydsn/animation.c ****     }
 644:..\Slider.cydsn/animation.c ****     
 645:..\Slider.cydsn/animation.c ****     current_callback_anim = the_current_callback_anim;
 1656              		.loc 1 645 0
 1657 0038 074B     		ldr	r3, .L116+16
 1658 003a 5C77     		strb	r4, [r3, #29]
 646:..\Slider.cydsn/animation.c ****     send_animation_telemetry(current_callback_anim, "selected");
 1659              		.loc 1 646 0
 1660 003c 201C     		mov	r0, r4
 1661 003e 0749     		ldr	r1, .L116+20
 1662 0040 FFF7FEFF 		bl	send_animation_telemetry
 1663              	.LVL109:
 1664              	.L112:
 647:..\Slider.cydsn/animation.c **** }// set_current_callback_anim
 1665              		.loc 1 647 0
 1666              		@ sp needed
 1667 0044 10BD     		pop	{r4, pc}
 1668              	.L117:
 1669 0046 C046     		.align	2
 1670              	.L116:
 1671 0048 18000000 		.word	.LC38
 1672 004c 24000000 		.word	.LC40
 1673 0050 00000000 		.word	.LANCHOR1
 1674 0054 0C000000 		.word	.LC32
 1675 0058 00000000 		.word	.LANCHOR0
 1676 005c 3C000000 		.word	.LC45
 1677              		.cfi_endproc
 1678              	.LFE59:
 1679              		.size	set_current_callback_anim, .-set_current_callback_anim
 1680              		.section	.text.run_current_animation,"ax",%progbits
 1681              		.align	2
 1682              		.global	run_current_animation
 1683              		.code	16
 1684              		.thumb_func
 1685              		.type	run_current_animation, %function
 1686              	run_current_animation:
 1687              	.LFB60:
 648:..\Slider.cydsn/animation.c **** 
 649:..\Slider.cydsn/animation.c **** //=============================================================================
 650:..\Slider.cydsn/animation.c **** //======================================================= run_current_animation
 651:..\Slider.cydsn/animation.c **** //=============================================================================
 652:..\Slider.cydsn/animation.c **** void run_current_animation(BOOL high_speed)
 653:..\Slider.cydsn/animation.c **** {
 1688              		.loc 1 653 0
 1689              		.cfi_startproc
 1690              	.LVL110:
 1691 0000 08B5     		push	{r3, lr}
 1692              		.cfi_def_cfa_offset 8
 1693              		.cfi_offset 3, -8
 1694              		.cfi_offset 14, -4
 654:..\Slider.cydsn/animation.c ****     if ((current_callback_anim >= ANIM_UNKNOWN) || (vec_call_back_anim[current_callback_anim].high_
 1695              		.loc 1 654 0
 1696 0002 154B     		ldr	r3, .L121
 1697 0004 5A7F     		ldrb	r2, [r3, #29]
 1698 0006 0D2A     		cmp	r2, #13
 1699 0008 24D8     		bhi	.L118
ARM GAS  C:\Users\MM1005~1\AppData\Local\Temp\ccTXRdVU.s 			page 43


 1700              		.loc 1 654 0 is_stmt 0 discriminator 1
 1701 000a 5300     		lsl	r3, r2, #1
 1702 000c 9B18     		add	r3, r3, r2
 1703 000e 9B00     		lsl	r3, r3, #2
 1704 0010 1249     		ldr	r1, .L121+4
 1705 0012 CB18     		add	r3, r1, r3
 1706 0014 5B7D     		ldrb	r3, [r3, #21]
 1707 0016 8342     		cmp	r3, r0
 1708 0018 1CD1     		bne	.L118
 655:..\Slider.cydsn/animation.c ****     {
 656:..\Slider.cydsn/animation.c ****         return;
 657:..\Slider.cydsn/animation.c ****     }
 658:..\Slider.cydsn/animation.c ****     
 659:..\Slider.cydsn/animation.c ****     if (! vec_call_back_anim[current_callback_anim].started)
 1709              		.loc 1 659 0 is_stmt 1
 1710 001a 5300     		lsl	r3, r2, #1
 1711 001c 9B18     		add	r3, r3, r2
 1712 001e 9B00     		lsl	r3, r3, #2
 1713 0020 CB18     		add	r3, r1, r3
 1714 0022 9B7D     		ldrb	r3, [r3, #22]
 1715 0024 002B     		cmp	r3, #0
 1716 0026 0CD1     		bne	.L120
 660:..\Slider.cydsn/animation.c ****     {
 661:..\Slider.cydsn/animation.c ****         send_animation_telemetry(current_callback_anim, "started");
 1717              		.loc 1 661 0
 1718 0028 101C     		mov	r0, r2
 1719              	.LVL111:
 1720 002a 0D49     		ldr	r1, .L121+8
 1721 002c FFF7FEFF 		bl	send_animation_telemetry
 1722              	.LVL112:
 662:..\Slider.cydsn/animation.c ****         vec_call_back_anim[current_callback_anim].started = TRUE;
 1723              		.loc 1 662 0
 1724 0030 094B     		ldr	r3, .L121
 1725 0032 5B7F     		ldrb	r3, [r3, #29]
 1726 0034 5A00     		lsl	r2, r3, #1
 1727 0036 D318     		add	r3, r2, r3
 1728 0038 9B00     		lsl	r3, r3, #2
 1729 003a 084A     		ldr	r2, .L121+4
 1730 003c D318     		add	r3, r2, r3
 1731 003e 0122     		mov	r2, #1
 1732 0040 9A75     		strb	r2, [r3, #22]
 1733              	.L120:
 663:..\Slider.cydsn/animation.c ****     }
 664:..\Slider.cydsn/animation.c ****     
 665:..\Slider.cydsn/animation.c ****     vec_call_back_anim[current_callback_anim].callback();
 1734              		.loc 1 665 0
 1735 0042 054B     		ldr	r3, .L121
 1736 0044 5B7F     		ldrb	r3, [r3, #29]
 1737 0046 5A00     		lsl	r2, r3, #1
 1738 0048 D318     		add	r3, r2, r3
 1739 004a 9B00     		lsl	r3, r3, #2
 1740 004c 034A     		ldr	r2, .L121+4
 1741 004e D318     		add	r3, r2, r3
 1742 0050 9B69     		ldr	r3, [r3, #24]
 1743 0052 9847     		blx	r3
 1744              	.LVL113:
 1745              	.L118:
ARM GAS  C:\Users\MM1005~1\AppData\Local\Temp\ccTXRdVU.s 			page 44


 666:..\Slider.cydsn/animation.c **** }// run_current_animation
 1746              		.loc 1 666 0
 1747              		@ sp needed
 1748 0054 08BD     		pop	{r3, pc}
 1749              	.L122:
 1750 0056 C046     		.align	2
 1751              	.L121:
 1752 0058 00000000 		.word	.LANCHOR0
 1753 005c 00000000 		.word	.LANCHOR1
 1754 0060 48000000 		.word	.LC49
 1755              		.cfi_endproc
 1756              	.LFE60:
 1757              		.size	run_current_animation, .-run_current_animation
 1758              		.section	.rodata
 1759              		.align	2
 1760              		.set	.LANCHOR2,. + 0
 1761              		.type	vec_rainbow.6719, %object
 1762              		.size	vec_rainbow.6719, 24
 1763              	vec_rainbow.6719:
 1764 0000 94       		.byte	-108
 1765 0001 00       		.byte	0
 1766 0002 D3       		.byte	-45
 1767 0003 4B       		.byte	75
 1768 0004 00       		.byte	0
 1769 0005 82       		.byte	-126
 1770 0006 00       		.byte	0
 1771 0007 00       		.byte	0
 1772 0008 FF       		.byte	-1
 1773 0009 00       		.byte	0
 1774 000a FF       		.byte	-1
 1775 000b 00       		.byte	0
 1776 000c FF       		.byte	-1
 1777 000d FF       		.byte	-1
 1778 000e 00       		.byte	0
 1779 000f FF       		.byte	-1
 1780 0010 7F       		.byte	127
 1781 0011 00       		.byte	0
 1782 0012 FF       		.byte	-1
 1783 0013 00       		.byte	0
 1784 0014 00       		.byte	0
 1785 0015 00       		.byte	0
 1786 0016 00       		.byte	0
 1787 0017 00       		.byte	0
 1788              		.type	sine_vec, %object
 1789              		.size	sine_vec, 512
 1790              	sine_vec:
 1791 0018 0008     		.short	2048
 1792 001a 3208     		.short	2098
 1793 001c 6408     		.short	2148
 1794 001e 9608     		.short	2198
 1795 0020 C808     		.short	2248
 1796 0022 FA08     		.short	2298
 1797 0024 2C09     		.short	2348
 1798 0026 5E09     		.short	2398
 1799 0028 8F09     		.short	2447
 1800 002a C009     		.short	2496
 1801 002c F109     		.short	2545
ARM GAS  C:\Users\MM1005~1\AppData\Local\Temp\ccTXRdVU.s 			page 45


 1802 002e 220A     		.short	2594
 1803 0030 520A     		.short	2642
 1804 0032 820A     		.short	2690
 1805 0034 B10A     		.short	2737
 1806 0036 E00A     		.short	2784
 1807 0038 0F0B     		.short	2831
 1808 003a 3D0B     		.short	2877
 1809 003c 6B0B     		.short	2923
 1810 003e 980B     		.short	2968
 1811 0040 C50B     		.short	3013
 1812 0042 F10B     		.short	3057
 1813 0044 1C0C     		.short	3100
 1814 0046 470C     		.short	3143
 1815 0048 710C     		.short	3185
 1816 004a 9A0C     		.short	3226
 1817 004c C30C     		.short	3267
 1818 004e EB0C     		.short	3307
 1819 0050 120D     		.short	3346
 1820 0052 390D     		.short	3385
 1821 0054 5F0D     		.short	3423
 1822 0056 830D     		.short	3459
 1823 0058 A70D     		.short	3495
 1824 005a CA0D     		.short	3530
 1825 005c ED0D     		.short	3565
 1826 005e 0E0E     		.short	3598
 1827 0060 2E0E     		.short	3630
 1828 0062 4E0E     		.short	3662
 1829 0064 6C0E     		.short	3692
 1830 0066 8A0E     		.short	3722
 1831 0068 A60E     		.short	3750
 1832 006a C10E     		.short	3777
 1833 006c DC0E     		.short	3804
 1834 006e F50E     		.short	3829
 1835 0070 0D0F     		.short	3853
 1836 0072 240F     		.short	3876
 1837 0074 3A0F     		.short	3898
 1838 0076 4F0F     		.short	3919
 1839 0078 630F     		.short	3939
 1840 007a 760F     		.short	3958
 1841 007c 870F     		.short	3975
 1842 007e 980F     		.short	3992
 1843 0080 A70F     		.short	4007
 1844 0082 B50F     		.short	4021
 1845 0084 C20F     		.short	4034
 1846 0086 CD0F     		.short	4045
 1847 0088 D80F     		.short	4056
 1848 008a E10F     		.short	4065
 1849 008c E90F     		.short	4073
 1850 008e F00F     		.short	4080
 1851 0090 F50F     		.short	4085
 1852 0092 F90F     		.short	4089
 1853 0094 FD0F     		.short	4093
 1854 0096 FE0F     		.short	4094
 1855 0098 FF0F     		.short	4095
 1856 009a FE0F     		.short	4094
 1857 009c FD0F     		.short	4093
 1858 009e F90F     		.short	4089
ARM GAS  C:\Users\MM1005~1\AppData\Local\Temp\ccTXRdVU.s 			page 46


 1859 00a0 F50F     		.short	4085
 1860 00a2 F00F     		.short	4080
 1861 00a4 E90F     		.short	4073
 1862 00a6 E10F     		.short	4065
 1863 00a8 D80F     		.short	4056
 1864 00aa CD0F     		.short	4045
 1865 00ac C20F     		.short	4034
 1866 00ae B50F     		.short	4021
 1867 00b0 A70F     		.short	4007
 1868 00b2 980F     		.short	3992
 1869 00b4 870F     		.short	3975
 1870 00b6 760F     		.short	3958
 1871 00b8 630F     		.short	3939
 1872 00ba 4F0F     		.short	3919
 1873 00bc 3A0F     		.short	3898
 1874 00be 240F     		.short	3876
 1875 00c0 0D0F     		.short	3853
 1876 00c2 F50E     		.short	3829
 1877 00c4 DC0E     		.short	3804
 1878 00c6 C10E     		.short	3777
 1879 00c8 A60E     		.short	3750
 1880 00ca 8A0E     		.short	3722
 1881 00cc 6C0E     		.short	3692
 1882 00ce 4E0E     		.short	3662
 1883 00d0 2E0E     		.short	3630
 1884 00d2 0E0E     		.short	3598
 1885 00d4 ED0D     		.short	3565
 1886 00d6 CA0D     		.short	3530
 1887 00d8 A70D     		.short	3495
 1888 00da 830D     		.short	3459
 1889 00dc 5F0D     		.short	3423
 1890 00de 390D     		.short	3385
 1891 00e0 120D     		.short	3346
 1892 00e2 EB0C     		.short	3307
 1893 00e4 C30C     		.short	3267
 1894 00e6 9A0C     		.short	3226
 1895 00e8 710C     		.short	3185
 1896 00ea 470C     		.short	3143
 1897 00ec 1C0C     		.short	3100
 1898 00ee F10B     		.short	3057
 1899 00f0 C50B     		.short	3013
 1900 00f2 980B     		.short	2968
 1901 00f4 6B0B     		.short	2923
 1902 00f6 3D0B     		.short	2877
 1903 00f8 0F0B     		.short	2831
 1904 00fa E00A     		.short	2784
 1905 00fc B10A     		.short	2737
 1906 00fe 820A     		.short	2690
 1907 0100 520A     		.short	2642
 1908 0102 220A     		.short	2594
 1909 0104 F109     		.short	2545
 1910 0106 C009     		.short	2496
 1911 0108 8F09     		.short	2447
 1912 010a 5E09     		.short	2398
 1913 010c 2C09     		.short	2348
 1914 010e FA08     		.short	2298
 1915 0110 C808     		.short	2248
ARM GAS  C:\Users\MM1005~1\AppData\Local\Temp\ccTXRdVU.s 			page 47


 1916 0112 9608     		.short	2198
 1917 0114 6408     		.short	2148
 1918 0116 3208     		.short	2098
 1919 0118 0008     		.short	2048
 1920 011a CD07     		.short	1997
 1921 011c 9B07     		.short	1947
 1922 011e 6907     		.short	1897
 1923 0120 3707     		.short	1847
 1924 0122 0507     		.short	1797
 1925 0124 D306     		.short	1747
 1926 0126 A106     		.short	1697
 1927 0128 7006     		.short	1648
 1928 012a 3F06     		.short	1599
 1929 012c 0E06     		.short	1550
 1930 012e DD05     		.short	1501
 1931 0130 AD05     		.short	1453
 1932 0132 7D05     		.short	1405
 1933 0134 4E05     		.short	1358
 1934 0136 1F05     		.short	1311
 1935 0138 F004     		.short	1264
 1936 013a C204     		.short	1218
 1937 013c 9404     		.short	1172
 1938 013e 6704     		.short	1127
 1939 0140 3A04     		.short	1082
 1940 0142 0E04     		.short	1038
 1941 0144 E303     		.short	995
 1942 0146 B803     		.short	952
 1943 0148 8E03     		.short	910
 1944 014a 6503     		.short	869
 1945 014c 3C03     		.short	828
 1946 014e 1403     		.short	788
 1947 0150 ED02     		.short	749
 1948 0152 C602     		.short	710
 1949 0154 A002     		.short	672
 1950 0156 7C02     		.short	636
 1951 0158 5802     		.short	600
 1952 015a 3502     		.short	565
 1953 015c 1202     		.short	530
 1954 015e F101     		.short	497
 1955 0160 D101     		.short	465
 1956 0162 B101     		.short	433
 1957 0164 9301     		.short	403
 1958 0166 7501     		.short	373
 1959 0168 5901     		.short	345
 1960 016a 3E01     		.short	318
 1961 016c 2301     		.short	291
 1962 016e 0A01     		.short	266
 1963 0170 F200     		.short	242
 1964 0172 DB00     		.short	219
 1965 0174 C500     		.short	197
 1966 0176 B000     		.short	176
 1967 0178 9C00     		.short	156
 1968 017a 8900     		.short	137
 1969 017c 7800     		.short	120
 1970 017e 6700     		.short	103
 1971 0180 5800     		.short	88
 1972 0182 4A00     		.short	74
ARM GAS  C:\Users\MM1005~1\AppData\Local\Temp\ccTXRdVU.s 			page 48


 1973 0184 3D00     		.short	61
 1974 0186 3200     		.short	50
 1975 0188 2700     		.short	39
 1976 018a 1E00     		.short	30
 1977 018c 1600     		.short	22
 1978 018e 0F00     		.short	15
 1979 0190 0A00     		.short	10
 1980 0192 0600     		.short	6
 1981 0194 0200     		.short	2
 1982 0196 0100     		.short	1
 1983 0198 0000     		.short	0
 1984 019a 0100     		.short	1
 1985 019c 0200     		.short	2
 1986 019e 0600     		.short	6
 1987 01a0 0A00     		.short	10
 1988 01a2 0F00     		.short	15
 1989 01a4 1600     		.short	22
 1990 01a6 1E00     		.short	30
 1991 01a8 2700     		.short	39
 1992 01aa 3200     		.short	50
 1993 01ac 3D00     		.short	61
 1994 01ae 4A00     		.short	74
 1995 01b0 5800     		.short	88
 1996 01b2 6700     		.short	103
 1997 01b4 7800     		.short	120
 1998 01b6 8900     		.short	137
 1999 01b8 9C00     		.short	156
 2000 01ba B000     		.short	176
 2001 01bc C500     		.short	197
 2002 01be DB00     		.short	219
 2003 01c0 F200     		.short	242
 2004 01c2 0A01     		.short	266
 2005 01c4 2301     		.short	291
 2006 01c6 3E01     		.short	318
 2007 01c8 5901     		.short	345
 2008 01ca 7501     		.short	373
 2009 01cc 9301     		.short	403
 2010 01ce B101     		.short	433
 2011 01d0 D101     		.short	465
 2012 01d2 F101     		.short	497
 2013 01d4 1202     		.short	530
 2014 01d6 3502     		.short	565
 2015 01d8 5802     		.short	600
 2016 01da 7C02     		.short	636
 2017 01dc A002     		.short	672
 2018 01de C602     		.short	710
 2019 01e0 ED02     		.short	749
 2020 01e2 1403     		.short	788
 2021 01e4 3C03     		.short	828
 2022 01e6 6503     		.short	869
 2023 01e8 8E03     		.short	910
 2024 01ea B803     		.short	952
 2025 01ec E303     		.short	995
 2026 01ee 0E04     		.short	1038
 2027 01f0 3A04     		.short	1082
 2028 01f2 6704     		.short	1127
 2029 01f4 9404     		.short	1172
ARM GAS  C:\Users\MM1005~1\AppData\Local\Temp\ccTXRdVU.s 			page 49


 2030 01f6 C204     		.short	1218
 2031 01f8 F004     		.short	1264
 2032 01fa 1F05     		.short	1311
 2033 01fc 4E05     		.short	1358
 2034 01fe 7D05     		.short	1405
 2035 0200 AD05     		.short	1453
 2036 0202 DD05     		.short	1501
 2037 0204 0E06     		.short	1550
 2038 0206 3F06     		.short	1599
 2039 0208 7006     		.short	1648
 2040 020a A106     		.short	1697
 2041 020c D306     		.short	1747
 2042 020e 0507     		.short	1797
 2043 0210 3707     		.short	1847
 2044 0212 6907     		.short	1897
 2045 0214 9B07     		.short	1947
 2046 0216 CD07     		.short	1997
 2047              		.data
 2048              		.align	2
 2049              		.set	.LANCHOR1,. + 0
 2050              		.type	intensity_up.6670, %object
 2051              		.size	intensity_up.6670, 1
 2052              	intensity_up.6670:
 2053 0000 01       		.byte	1
 2054              		.type	intensity_right_index.6727, %object
 2055              		.size	intensity_right_index.6727, 1
 2056              	intensity_right_index.6727:
 2057 0001 80       		.byte	-128
 2058              		.type	intensity_color_index.6693, %object
 2059              		.size	intensity_color_index.6693, 1
 2060              	intensity_color_index.6693:
 2061 0002 80       		.byte	-128
 2062              		.type	intensity_color_index.6698, %object
 2063              		.size	intensity_color_index.6698, 1
 2064              	intensity_color_index.6698:
 2065 0003 80       		.byte	-128
 2066              		.type	intensity_color_index.6703, %object
 2067              		.size	intensity_color_index.6703, 1
 2068              	intensity_color_index.6703:
 2069 0004 80       		.byte	-128
 2070 0005 00       		.space	1
 2071              		.type	left_led.6740, %object
 2072              		.size	left_led.6740, 2
 2073              	left_led.6740:
 2074 0006 0600     		.short	6
 2075              		.type	right_led.6739, %object
 2076              		.size	right_led.6739, 2
 2077              	right_led.6739:
 2078 0008 0700     		.short	7
 2079              		.type	outward.6741, %object
 2080              		.size	outward.6741, 1
 2081              	outward.6741:
 2082 000a 01       		.byte	1
 2083              		.type	intensity_up.6708, %object
 2084              		.size	intensity_up.6708, 1
 2085              	intensity_up.6708:
 2086 000b 01       		.byte	1
ARM GAS  C:\Users\MM1005~1\AppData\Local\Temp\ccTXRdVU.s 			page 50


 2087              		.type	led_up.6751, %object
 2088              		.size	led_up.6751, 2
 2089              	led_up.6751:
 2090 000c 0100     		.short	1
 2091              		.type	right_led.6753, %object
 2092              		.size	right_led.6753, 2
 2093              	right_led.6753:
 2094 000e 0200     		.short	2
 2095              		.type	left_led.6752, %object
 2096              		.size	left_led.6752, 2
 2097              	left_led.6752:
 2098 0010 0100     		.short	1
 2099              		.type	right_index.6755, %object
 2100              		.size	right_index.6755, 1
 2101              	right_index.6755:
 2102 0012 80       		.byte	-128
 2103 0013 00       		.space	1
 2104              		.type	vec_call_back_anim, %object
 2105              		.size	vec_call_back_anim, 168
 2106              	vec_call_back_anim:
 2107 0014 00       		.byte	0
 2108 0015 01       		.byte	1
 2109 0016 00       		.byte	0
 2110 0017 00       		.space	1
 2111 0018 00000000 		.word	animate_button_smooth_slow
 2112 001c 50000000 		.word	.LC51
 2113 0020 01       		.byte	1
 2114 0021 01       		.byte	1
 2115 0022 00       		.byte	0
 2116 0023 00       		.space	1
 2117 0024 00000000 		.word	animate_button_smooth_fast
 2118 0028 60000000 		.word	.LC52
 2119 002c 02       		.byte	2
 2120 002d 00       		.byte	0
 2121 002e 00       		.byte	0
 2122 002f 00       		.space	1
 2123 0030 00000000 		.word	animate_left_right
 2124 0034 70000000 		.word	.LC53
 2125 0038 03       		.byte	3
 2126 0039 00       		.byte	0
 2127 003a 00       		.byte	0
 2128 003b 00       		.space	1
 2129 003c 00000000 		.word	animate_intensity
 2130 0040 7C000000 		.word	.LC54
 2131 0044 04       		.byte	4
 2132 0045 00       		.byte	0
 2133 0046 00       		.byte	0
 2134 0047 00       		.space	1
 2135 0048 00000000 		.word	animate_2_leds
 2136 004c 8C000000 		.word	.LC55
 2137 0050 05       		.byte	5
 2138 0051 00       		.byte	0
 2139 0052 00       		.byte	0
 2140 0053 00       		.space	1
 2141 0054 00000000 		.word	animate_red_intensity
 2142 0058 94000000 		.word	.LC56
 2143 005c 06       		.byte	6
ARM GAS  C:\Users\MM1005~1\AppData\Local\Temp\ccTXRdVU.s 			page 51


 2144 005d 00       		.byte	0
 2145 005e 00       		.byte	0
 2146 005f 00       		.space	1
 2147 0060 00000000 		.word	animate_green_intensity
 2148 0064 A4000000 		.word	.LC57
 2149 0068 07       		.byte	7
 2150 0069 00       		.byte	0
 2151 006a 00       		.byte	0
 2152 006b 00       		.space	1
 2153 006c 00000000 		.word	animate_blue_intensity
 2154 0070 B4000000 		.word	.LC58
 2155 0074 08       		.byte	8
 2156 0075 00       		.byte	0
 2157 0076 00       		.byte	0
 2158 0077 00       		.space	1
 2159 0078 00000000 		.word	animate_red_white_intensity
 2160 007c C4000000 		.word	.LC59
 2161 0080 09       		.byte	9
 2162 0081 00       		.byte	0
 2163 0082 00       		.byte	0
 2164 0083 00       		.space	1
 2165 0084 00000000 		.word	animate_green_white_intensity
 2166 0088 D8000000 		.word	.LC60
 2167 008c 0A       		.byte	10
 2168 008d 00       		.byte	0
 2169 008e 00       		.byte	0
 2170 008f 00       		.space	1
 2171 0090 00000000 		.word	animate_blue_white_intensity
 2172 0094 F0000000 		.word	.LC61
 2173 0098 0B       		.byte	11
 2174 0099 00       		.byte	0
 2175 009a 00       		.byte	0
 2176 009b 00       		.space	1
 2177 009c 00000000 		.word	animate_all_colors
 2178 00a0 08010000 		.word	.LC62
 2179 00a4 0C       		.byte	12
 2180 00a5 00       		.byte	0
 2181 00a6 00       		.byte	0
 2182 00a7 00       		.space	1
 2183 00a8 00000000 		.word	animate_rainbow_colors
 2184 00ac 14010000 		.word	.LC63
 2185 00b0 0D       		.byte	13
 2186 00b1 00       		.byte	0
 2187 00b2 00       		.byte	0
 2188 00b3 00       		.space	1
 2189 00b4 00000000 		.word	animate_fix_white
 2190 00b8 24010000 		.word	.LC64
 2191              		.section	.rodata.str1.4,"aMS",%progbits,1
 2192              		.align	2
 2193              	.LC30:
 2194 0000 73746172 		.ascii	"starting\000"
 2194      74696E67 
 2194      00
 2195 0009 000000   		.space	3
 2196              	.LC32:
 2197 000c 73746F70 		.ascii	"stopping\000"
 2197      70696E67 
ARM GAS  C:\Users\MM1005~1\AppData\Local\Temp\ccTXRdVU.s 			page 52


 2197      00
 2198 0015 000000   		.space	3
 2199              	.LC38:
 2200 0018 6669726D 		.ascii	"firmware\000"
 2200      77617265 
 2200      00
 2201 0021 000000   		.space	3
 2202              	.LC40:
 2203 0024 696E7661 		.ascii	"invalid animation id\000"
 2203      6C696420 
 2203      616E696D 
 2203      6174696F 
 2203      6E206964 
 2204 0039 000000   		.space	3
 2205              	.LC45:
 2206 003c 73656C65 		.ascii	"selected\000"
 2206      63746564 
 2206      00
 2207 0045 000000   		.space	3
 2208              	.LC49:
 2209 0048 73746172 		.ascii	"started\000"
 2209      74656400 
 2210              	.LC51:
 2211 0050 736C6F77 		.ascii	"slow breather\000"
 2211      20627265 
 2211      61746865 
 2211      7200
 2212 005e 0000     		.space	2
 2213              	.LC52:
 2214 0060 66617374 		.ascii	"fast breather\000"
 2214      20627265 
 2214      61746865 
 2214      7200
 2215 006e 0000     		.space	2
 2216              	.LC53:
 2217 0070 6C656674 		.ascii	"left-right\000"
 2217      2D726967 
 2217      687400
 2218 007b 00       		.space	1
 2219              	.LC54:
 2220 007c 77686974 		.ascii	"white intensity\000"
 2220      6520696E 
 2220      74656E73 
 2220      69747900 
 2221              	.LC55:
 2222 008c 32206C65 		.ascii	"2 leds\000"
 2222      647300
 2223 0093 00       		.space	1
 2224              	.LC56:
 2225 0094 72656420 		.ascii	"red intensity\000"
 2225      696E7465 
 2225      6E736974 
 2225      7900
 2226 00a2 0000     		.space	2
 2227              	.LC57:
 2228 00a4 67726565 		.ascii	"green intensity\000"
 2228      6E20696E 
ARM GAS  C:\Users\MM1005~1\AppData\Local\Temp\ccTXRdVU.s 			page 53


 2228      74656E73 
 2228      69747900 
 2229              	.LC58:
 2230 00b4 626C7565 		.ascii	"blue intensity\000"
 2230      20696E74 
 2230      656E7369 
 2230      747900
 2231 00c3 00       		.space	1
 2232              	.LC59:
 2233 00c4 7265642D 		.ascii	"red-white intensity\000"
 2233      77686974 
 2233      6520696E 
 2233      74656E73 
 2233      69747900 
 2234              	.LC60:
 2235 00d8 67726565 		.ascii	"green-white  intensity\000"
 2235      6E2D7768 
 2235      69746520 
 2235      20696E74 
 2235      656E7369 
 2236 00ef 00       		.space	1
 2237              	.LC61:
 2238 00f0 626C7565 		.ascii	"blue-white  intensity\000"
 2238      2D776869 
 2238      74652020 
 2238      696E7465 
 2238      6E736974 
 2239 0106 0000     		.space	2
 2240              	.LC62:
 2241 0108 616C6C20 		.ascii	"all colors\000"
 2241      636F6C6F 
 2241      727300
 2242 0113 00       		.space	1
 2243              	.LC63:
 2244 0114 7261696E 		.ascii	"rainbow colors\000"
 2244      626F7720 
 2244      636F6C6F 
 2244      727300
 2245 0123 00       		.space	1
 2246              	.LC64:
 2247 0124 34206669 		.ascii	"4 fix white LEDs at full intensity\000"
 2247      78207768 
 2247      69746520 
 2247      4C454473 
 2247      20617420 
 2248 0147 00       		.bss
 2249              		.align	1
 2250              		.set	.LANCHOR0,. + 0
 2251              		.type	red.6667, %object
 2252              		.size	red.6667, 2
 2253              	red.6667:
 2254 0000 0000     		.space	2
 2255              		.type	green.6668, %object
 2256              		.size	green.6668, 2
 2257              	green.6668:
 2258 0002 0000     		.space	2
 2259              		.type	blue.6669, %object
ARM GAS  C:\Users\MM1005~1\AppData\Local\Temp\ccTXRdVU.s 			page 54


 2260              		.size	blue.6669, 2
 2261              	blue.6669:
 2262 0004 0000     		.space	2
 2263              		.type	cycle.6717, %object
 2264              		.size	cycle.6717, 2
 2265              	cycle.6717:
 2266 0006 0000     		.space	2
 2267              		.type	color_index.6718, %object
 2268              		.size	color_index.6718, 2
 2269              	color_index.6718:
 2270 0008 0000     		.space	2
 2271              		.type	cycle.6722, %object
 2272              		.size	cycle.6722, 2
 2273              	cycle.6722:
 2274 000a 0000     		.space	2
 2275              		.type	led_pos.6723, %object
 2276              		.size	led_pos.6723, 2
 2277              	led_pos.6723:
 2278 000c 0000     		.space	2
 2279              		.type	intensity_left_index.6726, %object
 2280              		.size	intensity_left_index.6726, 1
 2281              	intensity_left_index.6726:
 2282 000e 00       		.space	1
 2283              		.type	intensity_white_index.6692, %object
 2284              		.size	intensity_white_index.6692, 1
 2285              	intensity_white_index.6692:
 2286 000f 00       		.space	1
 2287              		.type	intensity_white_index.6697, %object
 2288              		.size	intensity_white_index.6697, 1
 2289              	intensity_white_index.6697:
 2290 0010 00       		.space	1
 2291              		.type	intensity_white_index.6702, %object
 2292              		.size	intensity_white_index.6702, 1
 2293              	intensity_white_index.6702:
 2294 0011 00       		.space	1
 2295              		.type	cycle.6738, %object
 2296              		.size	cycle.6738, 2
 2297              	cycle.6738:
 2298 0012 0000     		.space	2
 2299              		.type	primary_color.6742, %object
 2300              		.size	primary_color.6742, 1
 2301              	primary_color.6742:
 2302 0014 00       		.space	1
 2303 0015 00       		.space	1
 2304              		.type	intensity.6707, %object
 2305              		.size	intensity.6707, 2
 2306              	intensity.6707:
 2307 0016 0000     		.space	2
 2308              		.type	cycle.6756, %object
 2309              		.size	cycle.6756, 2
 2310              	cycle.6756:
 2311 0018 0000     		.space	2
 2312              		.type	left_index.6754, %object
 2313              		.size	left_index.6754, 1
 2314              	left_index.6754:
 2315 001a 00       		.space	1
 2316              		.type	is_auto_anim_rotation_enable, %object
ARM GAS  C:\Users\MM1005~1\AppData\Local\Temp\ccTXRdVU.s 			page 55


 2317              		.size	is_auto_anim_rotation_enable, 1
 2318              	is_auto_anim_rotation_enable:
 2319 001b 00       		.space	1
 2320              		.type	is_anim_on_button_up_enable, %object
 2321              		.size	is_anim_on_button_up_enable, 1
 2322              	is_anim_on_button_up_enable:
 2323 001c 00       		.space	1
 2324              		.type	current_callback_anim, %object
 2325              		.size	current_callback_anim, 1
 2326              	current_callback_anim:
 2327 001d 00       		.space	1
 2328              		.text
 2329              	.Letext0:
 2330              		.file 2 "Generated_Source\\PSoC4/cytypes.h"
 2331              		.file 3 "..\\Slider.cydsn\\led.h"
 2332              		.file 4 "..\\Slider.cydsn\\animation.h"
 2333              		.file 5 "..\\Slider.cydsn\\command_telemetry.h"