ARM GAS  C:\Users\MM1005~1\AppData\Local\Temp\ccTXRdVU.s 			page 1


   1              		.cpu cortex-m0plus
   2              		.fpu softvfp
   3              		.eabi_attribute 20, 1
   4              		.eabi_attribute 21, 1
   5              		.eabi_attribute 23, 3
   6              		.eabi_attribute 24, 1
   7              		.eabi_attribute 25, 1
   8              		.eabi_attribute 26, 1
   9              		.eabi_attribute 30, 1
  10              		.eabi_attribute 34, 0
  11              		.eabi_attribute 18, 4
  12              		.code	16
  13              		.file	"animation.c"
  14              		.text
  15              	.Ltext0:
  16              		.cfi_sections	.debug_frame
  17              		.section	.text.animate_all_colors,"ax",%progbits
  18              		.align	2
  19              		.global	animate_all_colors
  20              		.code	16
  21              		.thumb_func
  22              		.type	animate_all_colors, %function
  23              	animate_all_colors:
  24              	.LFB35:
  25              		.file 1 "..\\Slider.cydsn\\animation.c"
   1:..\Slider.cydsn/animation.c **** /* ========================================
   2:..\Slider.cydsn/animation.c ****  *
   3:..\Slider.cydsn/animation.c ****  * Copyright YOUR COMPANY, THE YEAR
   4:..\Slider.cydsn/animation.c ****  * All Rights Reserved
   5:..\Slider.cydsn/animation.c ****  * UNPUBLISHED, LICENSED SOFTWARE.
   6:..\Slider.cydsn/animation.c ****  *
   7:..\Slider.cydsn/animation.c ****  * CONFIDENTIAL AND PROPRIETARY INFORMATION
   8:..\Slider.cydsn/animation.c ****  * WHICH IS THE PROPERTY OF your company.
   9:..\Slider.cydsn/animation.c ****  *
  10:..\Slider.cydsn/animation.c ****  * ========================================
  11:..\Slider.cydsn/animation.c **** */
  12:..\Slider.cydsn/animation.c **** #include <math.h>
  13:..\Slider.cydsn/animation.c **** 
  14:..\Slider.cydsn/animation.c **** #include "animation.h"
  15:..\Slider.cydsn/animation.c **** #include "command_telemetry.h"
  16:..\Slider.cydsn/animation.c **** #include "util.h"
  17:..\Slider.cydsn/animation.c **** 
  18:..\Slider.cydsn/animation.c **** //=============================================================================
  19:..\Slider.cydsn/animation.c **** //============================================================ static variables
  20:..\Slider.cydsn/animation.c **** //=============================================================================
  21:..\Slider.cydsn/animation.c **** static t_struct_animation vec_call_back_anim[ANIM_UNKNOWN] = {{ANIM_BUTTON_SMOOTH_SLOW   , TRUE , F
  22:..\Slider.cydsn/animation.c ****                                                               {ANIM_BUTTON_SMOOTH_FAST   , TRUE , F
  23:..\Slider.cydsn/animation.c ****                                                               {ANIM_LEFT_RIGHT           , FALSE, F
  24:..\Slider.cydsn/animation.c ****                                                               {ANIM_INTENSITY            , FALSE, F
  25:..\Slider.cydsn/animation.c ****                                                               {ANIM_2_LEDS               , FALSE, F
  26:..\Slider.cydsn/animation.c ****                                                               {ANIM_RED_INTENSITY        , FALSE, F
  27:..\Slider.cydsn/animation.c ****                                                               {ANIM_GREEN_INTENSITY      , FALSE, F
  28:..\Slider.cydsn/animation.c ****                                                               {ANIM_BLUE_INTENSITY       , FALSE, F
  29:..\Slider.cydsn/animation.c ****                                                               {ANIM_RED_WHITE_INTENSITY  , FALSE, F
  30:..\Slider.cydsn/animation.c ****                                                               {ANIM_GREEN_WHITE_INTENSITY, FALSE, F
  31:..\Slider.cydsn/animation.c ****                                                               {ANIM_BLUE_WHITE_INTENSITY , FALSE, F
  32:..\Slider.cydsn/animation.c ****                                                               {ANIM_COLORS_INTENSITY     , FALSE, F
ARM GAS  C:\Users\MM1005~1\AppData\Local\Temp\ccTXRdVU.s 			page 2


  33:..\Slider.cydsn/animation.c ****                                                               {ANIM_RAINBOW_COLORS       , FALSE, F
  34:..\Slider.cydsn/animation.c ****                                                               {ANIM_FIX_WHITE            , FALSE, F
  35:..\Slider.cydsn/animation.c **** 
  36:..\Slider.cydsn/animation.c **** 
  37:..\Slider.cydsn/animation.c **** #if USE_128_POINTS_FOR_BREATHING
  38:..\Slider.cydsn/animation.c **** #define SINE_VEC_SIZE 128                                                                 // Indexe
  39:..\Slider.cydsn/animation.c **** static uint16 sine_vec[SINE_VEC_SIZE] = {0x800,0x864,0x8c8,0x92c,0x98f,0x9f1,0xa52,0xab1, // [000..
  40:..\Slider.cydsn/animation.c ****                                          0xb0f,0xb6b,0xbc5,0xc1c,0xc71,0xcc3,0xd12,0xd5f, // [008..
  41:..\Slider.cydsn/animation.c ****                                          0xda7,0xded,0xe2e,0xe6c,0xea6,0xedc,0xf0d,0xf3a, // [016..
  42:..\Slider.cydsn/animation.c ****                                          0xf63,0xf87,0xfa7,0xfc2,0xfd8,0xfe9,0xff5,0xffd, // [024..
  43:..\Slider.cydsn/animation.c ****                                          0xfff,0xffd,0xff5,0xfe9,0xfd8,0xfc2,0xfa7,0xf87, // [032..
  44:..\Slider.cydsn/animation.c ****                                          0xf63,0xf3a,0xf0d,0xedc,0xea6,0xe6c,0xe2e,0xded, // [040..
  45:..\Slider.cydsn/animation.c ****                                          0xda7,0xd5f,0xd12,0xcc3,0xc71,0xc1c,0xbc5,0xb6b, // [048..
  46:..\Slider.cydsn/animation.c ****                                          0xb0f,0xab1,0xa52,0x9f1,0x98f,0x92c,0x8c8,0x864, // [056..
  47:..\Slider.cydsn/animation.c ****                                          0x800,0x79b,0x737,0x6d3,0x670,0x60e,0x5ad,0x54e, // [064..
  48:..\Slider.cydsn/animation.c ****                                          0x4f0,0x494,0x43a,0x3e3,0x38e,0x33c,0x2ed,0x2a0, // [072..
  49:..\Slider.cydsn/animation.c ****                                          0x258,0x212,0x1d1,0x193,0x159,0x123,0x0f2,0x0c5, // [080..
  50:..\Slider.cydsn/animation.c ****                                          0x09c,0x078,0x058,0x03d,0x027,0x016,0x00a,0x002, // [088..
  51:..\Slider.cydsn/animation.c ****                                          0x000,0x002,0x00a,0x016,0x027,0x03d,0x058,0x078, // [096..
  52:..\Slider.cydsn/animation.c ****                                          0x09c,0x0c5,0x0f2,0x123,0x159,0x193,0x1d1,0x212, // [104..
  53:..\Slider.cydsn/animation.c ****                                          0x258,0x2a0,0x2ed,0x33c,0x38e,0x3e3,0x43a,0x494, // [112..
  54:..\Slider.cydsn/animation.c ****                                          0x4f0,0x54e,0x5ad,0x60e,0x670,0x6d3,0x737,0x79b};// [120..
  55:..\Slider.cydsn/animation.c **** #else
  56:..\Slider.cydsn/animation.c **** #define SINE_VEC_SIZE 256
  57:..\Slider.cydsn/animation.c **** static uint16 sine_vec[SINE_VEC_SIZE] = {0x800,0x832,0x864,0x896,0x8c8,0x8fa,0x92c,0x95e,
  58:..\Slider.cydsn/animation.c ****                                          0x98f,0x9c0,0x9f1,0xa22,0xa52,0xa82,0xab1,0xae0,
  59:..\Slider.cydsn/animation.c ****                                          0xb0f,0xb3d,0xb6b,0xb98,0xbc5,0xbf1,0xc1c,0xc47,
  60:..\Slider.cydsn/animation.c ****                                          0xc71,0xc9a,0xcc3,0xceb,0xd12,0xd39,0xd5f,0xd83,
  61:..\Slider.cydsn/animation.c ****                                          0xda7,0xdca,0xded,0xe0e,0xe2e,0xe4e,0xe6c,0xe8a,
  62:..\Slider.cydsn/animation.c ****                                          0xea6,0xec1,0xedc,0xef5,0xf0d,0xf24,0xf3a,0xf4f,
  63:..\Slider.cydsn/animation.c ****                                          0xf63,0xf76,0xf87,0xf98,0xfa7,0xfb5,0xfc2,0xfcd,
  64:..\Slider.cydsn/animation.c ****                                          0xfd8,0xfe1,0xfe9,0xff0,0xff5,0xff9,0xffd,0xffe,
  65:..\Slider.cydsn/animation.c ****                                          0xfff,0xffe,0xffd,0xff9,0xff5,0xff0,0xfe9,0xfe1,
  66:..\Slider.cydsn/animation.c ****                                          0xfd8,0xfcd,0xfc2,0xfb5,0xfa7,0xf98,0xf87,0xf76,
  67:..\Slider.cydsn/animation.c ****                                          0xf63,0xf4f,0xf3a,0xf24,0xf0d,0xef5,0xedc,0xec1,
  68:..\Slider.cydsn/animation.c ****                                          0xea6,0xe8a,0xe6c,0xe4e,0xe2e,0xe0e,0xded,0xdca,
  69:..\Slider.cydsn/animation.c ****                                          0xda7,0xd83,0xd5f,0xd39,0xd12,0xceb,0xcc3,0xc9a,
  70:..\Slider.cydsn/animation.c ****                                          0xc71,0xc47,0xc1c,0xbf1,0xbc5,0xb98,0xb6b,0xb3d,
  71:..\Slider.cydsn/animation.c ****                                          0xb0f,0xae0,0xab1,0xa82,0xa52,0xa22,0x9f1,0x9c0,
  72:..\Slider.cydsn/animation.c ****                                          0x98f,0x95e,0x92c,0x8fa,0x8c8,0x896,0x864,0x832,
  73:..\Slider.cydsn/animation.c ****                                          0x800,0x7cd,0x79b,0x769,0x737,0x705,0x6d3,0x6a1,
  74:..\Slider.cydsn/animation.c ****                                          0x670,0x63f,0x60e,0x5dd,0x5ad,0x57d,0x54e,0x51f,
  75:..\Slider.cydsn/animation.c ****                                          0x4f0,0x4c2,0x494,0x467,0x43a,0x40e,0x3e3,0x3b8,
  76:..\Slider.cydsn/animation.c ****                                          0x38e,0x365,0x33c,0x314,0x2ed,0x2c6,0x2a0,0x27c,
  77:..\Slider.cydsn/animation.c ****                                          0x258,0x235,0x212,0x1f1,0x1d1,0x1b1,0x193,0x175,
  78:..\Slider.cydsn/animation.c ****                                          0x159,0x13e,0x123,0x10a,0x0f2,0x0db,0x0c5,0x0b0,
  79:..\Slider.cydsn/animation.c ****                                          0x09c,0x089,0x078,0x067,0x058,0x04a,0x03d,0x032,
  80:..\Slider.cydsn/animation.c ****                                          0x027,0x01e,0x016,0x00f,0x00a,0x006,0x002,0x001,
  81:..\Slider.cydsn/animation.c ****                                          0x000,0x001,0x002,0x006,0x00a,0x00f,0x016,0x01e,
  82:..\Slider.cydsn/animation.c ****                                          0x027,0x032,0x03d,0x04a,0x058,0x067,0x078,0x089,
  83:..\Slider.cydsn/animation.c ****                                          0x09c,0x0b0,0x0c5,0x0db,0x0f2,0x10a,0x123,0x13e,
  84:..\Slider.cydsn/animation.c ****                                          0x159,0x175,0x193,0x1b1,0x1d1,0x1f1,0x212,0x235,
  85:..\Slider.cydsn/animation.c ****                                          0x258,0x27c,0x2a0,0x2c6,0x2ed,0x314,0x33c,0x365,
  86:..\Slider.cydsn/animation.c ****                                          0x38e,0x3b8,0x3e3,0x40e,0x43a,0x467,0x494,0x4c2,
  87:..\Slider.cydsn/animation.c ****                                          0x4f0,0x51f,0x54e,0x57d,0x5ad,0x5dd,0x60e,0x63f,
  88:..\Slider.cydsn/animation.c ****                                          0x670,0x6a1,0x6d3,0x705,0x737,0x769,0x79b,0x7cd};         
  89:..\Slider.cydsn/animation.c **** #endif // USE_128_POINTS_FOR_BREATHING
ARM GAS  C:\Users\MM1005~1\AppData\Local\Temp\ccTXRdVU.s 			page 3


  90:..\Slider.cydsn/animation.c ****                                                
  91:..\Slider.cydsn/animation.c **** #define PI_0_INDEX   0                  // 0   degrees
  92:..\Slider.cydsn/animation.c **** #define PI_90_INDEX  (SINE_VEC_SIZE / 4)// 90  degrees
  93:..\Slider.cydsn/animation.c **** #define PI_120_INDEX (SINE_VEC_SIZE / 3)// 120 degrees
  94:..\Slider.cydsn/animation.c **** #define PI_180_INDEX (PI_90_INDEX   * 2)// 180 degrees
  95:..\Slider.cydsn/animation.c **** #define PI_270_INDEX (PI_90_INDEX   * 3)// 270 degrees
  96:..\Slider.cydsn/animation.c **** 
  97:..\Slider.cydsn/animation.c **** static BOOL             is_auto_anim_rotation_enable = FALSE; // when enable: auto rotation of the 
  98:..\Slider.cydsn/animation.c **** static BOOL             is_anim_on_button_up_enable  = FALSE; // when anable: start the selected li
  99:..\Slider.cydsn/animation.c **** static t_enum_animation current_callback_anim        = ANIM_BUTTON_SMOOTH_SLOW;
 100:..\Slider.cydsn/animation.c **** 
 101:..\Slider.cydsn/animation.c **** //=============================================================================
 102:..\Slider.cydsn/animation.c **** //========================================================== animate_all_colors
 103:..\Slider.cydsn/animation.c **** //=============================================================================
 104:..\Slider.cydsn/animation.c **** void animate_all_colors(void)
 105:..\Slider.cydsn/animation.c **** {
  26              		.loc 1 105 0
  27              		.cfi_startproc
  28 0000 10B5     		push	{r4, lr}
  29              		.cfi_def_cfa_offset 8
  30              		.cfi_offset 4, -8
  31              		.cfi_offset 14, -4
  32              	.LVL0:
 106:..\Slider.cydsn/animation.c ****     static uint16 red             = 0;
 107:..\Slider.cydsn/animation.c ****     static uint16 green           = 0;
 108:..\Slider.cydsn/animation.c ****     static uint16 blue            = 0;
 109:..\Slider.cydsn/animation.c ****     static BOOL   intensity_up    = TRUE;
 110:..\Slider.cydsn/animation.c ****            uint16 blue_increment  = 64 ;
 111:..\Slider.cydsn/animation.c ****            uint16 green_increment = 128;
 112:..\Slider.cydsn/animation.c ****            uint16 red_increment   = 256;
 113:..\Slider.cydsn/animation.c ****            
 114:..\Slider.cydsn/animation.c ****     set_led(E_LED_LEFT_RED   ,  red  );
  33              		.loc 1 114 0
  34 0002 354C     		ldr	r4, .L10
  35 0004 2188     		ldrh	r1, [r4]
  36 0006 1520     		mov	r0, #21
  37 0008 FFF7FEFF 		bl	set_led
  38              	.LVL1:
 115:..\Slider.cydsn/animation.c ****     set_led(E_LED_LEFT_GREEN ,  green);
  39              		.loc 1 115 0
  40 000c 6188     		ldrh	r1, [r4, #2]
  41 000e 1620     		mov	r0, #22
  42 0010 FFF7FEFF 		bl	set_led
  43              	.LVL2:
 116:..\Slider.cydsn/animation.c ****     set_led(E_LED_LEFT_BLUE  ,  blue );
  44              		.loc 1 116 0
  45 0014 A188     		ldrh	r1, [r4, #4]
  46 0016 1720     		mov	r0, #23
  47 0018 FFF7FEFF 		bl	set_led
  48              	.LVL3:
 117:..\Slider.cydsn/animation.c ****     set_led(E_LED_RIGHT_RED  , ~red  );
  49              		.loc 1 117 0
  50 001c 2188     		ldrh	r1, [r4]
  51 001e C943     		mvn	r1, r1
  52 0020 89B2     		uxth	r1, r1
  53 0022 1220     		mov	r0, #18
  54 0024 FFF7FEFF 		bl	set_led
ARM GAS  C:\Users\MM1005~1\AppData\Local\Temp\ccTXRdVU.s 			page 4


  55              	.LVL4:
 118:..\Slider.cydsn/animation.c ****     set_led(E_LED_RIGHT_GREEN, ~green);
  56              		.loc 1 118 0
  57 0028 6188     		ldrh	r1, [r4, #2]
  58 002a C943     		mvn	r1, r1
  59 002c 89B2     		uxth	r1, r1
  60 002e 1320     		mov	r0, #19
  61 0030 FFF7FEFF 		bl	set_led
  62              	.LVL5:
 119:..\Slider.cydsn/animation.c ****     set_led(E_LED_RIGHT_BLUE , ~blue );
  63              		.loc 1 119 0
  64 0034 A188     		ldrh	r1, [r4, #4]
  65 0036 C943     		mvn	r1, r1
  66 0038 89B2     		uxth	r1, r1
  67 003a 1420     		mov	r0, #20
  68 003c FFF7FEFF 		bl	set_led
  69              	.LVL6:
 120:..\Slider.cydsn/animation.c ****    
 121:..\Slider.cydsn/animation.c ****     if (intensity_up)
  70              		.loc 1 121 0
  71 0040 264B     		ldr	r3, .L10+4
  72 0042 1B78     		ldrb	r3, [r3]
  73 0044 002B     		cmp	r3, #0
  74 0046 24D0     		beq	.L2
 122:..\Slider.cydsn/animation.c ****     {   
 123:..\Slider.cydsn/animation.c ****         if (red >= MAX_COLOR)
  75              		.loc 1 123 0
  76 0048 234B     		ldr	r3, .L10
  77 004a 1B88     		ldrh	r3, [r3]
  78 004c 244A     		ldr	r2, .L10+8
  79 004e 9342     		cmp	r3, r2
  80 0050 03D9     		bls	.L3
 124:..\Slider.cydsn/animation.c ****         {
 125:..\Slider.cydsn/animation.c ****             intensity_up = FALSE;
  81              		.loc 1 125 0
  82 0052 0022     		mov	r2, #0
  83 0054 214B     		ldr	r3, .L10+4
  84 0056 1A70     		strb	r2, [r3]
  85 0058 3CE0     		b	.L1
  86              	.L3:
 126:..\Slider.cydsn/animation.c ****         }
 127:..\Slider.cydsn/animation.c ****         else if (green >= MAX_COLOR) 
  87              		.loc 1 127 0
  88 005a 1F4A     		ldr	r2, .L10
  89 005c 5288     		ldrh	r2, [r2, #2]
  90 005e 2049     		ldr	r1, .L10+8
  91 0060 8A42     		cmp	r2, r1
  92 0062 07D9     		bls	.L5
 128:..\Slider.cydsn/animation.c ****         {
 129:..\Slider.cydsn/animation.c ****            red   += red_increment;
  93              		.loc 1 129 0
  94 0064 1C4A     		ldr	r2, .L10
  95 0066 0133     		add	r3, r3, #1
  96 0068 FF33     		add	r3, r3, #255
  97 006a 1380     		strh	r3, [r2]
 130:..\Slider.cydsn/animation.c ****            green  = 0;
  98              		.loc 1 130 0
ARM GAS  C:\Users\MM1005~1\AppData\Local\Temp\ccTXRdVU.s 			page 5


  99 006c 0023     		mov	r3, #0
 100 006e 5380     		strh	r3, [r2, #2]
 131:..\Slider.cydsn/animation.c ****            blue   = 0;
 101              		.loc 1 131 0
 102 0070 9380     		strh	r3, [r2, #4]
 103 0072 2FE0     		b	.L1
 104              	.L5:
 132:..\Slider.cydsn/animation.c ****         } 
 133:..\Slider.cydsn/animation.c ****         else if (blue >= MAX_COLOR)
 105              		.loc 1 133 0
 106 0074 184B     		ldr	r3, .L10
 107 0076 9B88     		ldrh	r3, [r3, #4]
 108 0078 1949     		ldr	r1, .L10+8
 109 007a 8B42     		cmp	r3, r1
 110 007c 05D9     		bls	.L6
 134:..\Slider.cydsn/animation.c ****         {
 135:..\Slider.cydsn/animation.c ****             green += green_increment;
 111              		.loc 1 135 0
 112 007e 164B     		ldr	r3, .L10
 113 0080 8032     		add	r2, r2, #128
 114 0082 5A80     		strh	r2, [r3, #2]
 136:..\Slider.cydsn/animation.c ****             blue   = 0;
 115              		.loc 1 136 0
 116 0084 0022     		mov	r2, #0
 117 0086 9A80     		strh	r2, [r3, #4]
 118 0088 24E0     		b	.L1
 119              	.L6:
 137:..\Slider.cydsn/animation.c ****         }
 138:..\Slider.cydsn/animation.c ****         else
 139:..\Slider.cydsn/animation.c ****         {
 140:..\Slider.cydsn/animation.c ****             blue += blue_increment;    
 120              		.loc 1 140 0
 121 008a 4033     		add	r3, r3, #64
 122 008c 124A     		ldr	r2, .L10
 123 008e 9380     		strh	r3, [r2, #4]
 124 0090 20E0     		b	.L1
 125              	.L2:
 141:..\Slider.cydsn/animation.c ****         }
 142:..\Slider.cydsn/animation.c ****     }// if the intensity is going up
 143:..\Slider.cydsn/animation.c ****     else
 144:..\Slider.cydsn/animation.c ****     {
 145:..\Slider.cydsn/animation.c ****         if (red == 0)
 126              		.loc 1 145 0
 127 0092 114B     		ldr	r3, .L10
 128 0094 1B88     		ldrh	r3, [r3]
 129 0096 002B     		cmp	r3, #0
 130 0098 03D1     		bne	.L7
 146:..\Slider.cydsn/animation.c ****         {
 147:..\Slider.cydsn/animation.c ****             intensity_up = TRUE;
 131              		.loc 1 147 0
 132 009a 0122     		mov	r2, #1
 133 009c 0F4B     		ldr	r3, .L10+4
 134 009e 1A70     		strb	r2, [r3]
 135 00a0 18E0     		b	.L1
 136              	.L7:
 148:..\Slider.cydsn/animation.c ****         }
 149:..\Slider.cydsn/animation.c ****         else if (green == 0)
ARM GAS  C:\Users\MM1005~1\AppData\Local\Temp\ccTXRdVU.s 			page 6


 137              		.loc 1 149 0
 138 00a2 0D4A     		ldr	r2, .L10
 139 00a4 5288     		ldrh	r2, [r2, #2]
 140 00a6 002A     		cmp	r2, #0
 141 00a8 07D1     		bne	.L8
 150:..\Slider.cydsn/animation.c ****         {
 151:..\Slider.cydsn/animation.c ****            red   -= red_increment;
 142              		.loc 1 151 0
 143 00aa 0B4A     		ldr	r2, .L10
 144 00ac 013B     		sub	r3, r3, #1
 145 00ae FF3B     		sub	r3, r3, #255
 146 00b0 1380     		strh	r3, [r2]
 152:..\Slider.cydsn/animation.c ****            green  = MAX_COLOR;
 147              		.loc 1 152 0
 148 00b2 0C4B     		ldr	r3, .L10+12
 149 00b4 5380     		strh	r3, [r2, #2]
 153:..\Slider.cydsn/animation.c ****            blue   = MAX_COLOR;
 150              		.loc 1 153 0
 151 00b6 9380     		strh	r3, [r2, #4]
 152 00b8 0CE0     		b	.L1
 153              	.L8:
 154:..\Slider.cydsn/animation.c ****         } 
 155:..\Slider.cydsn/animation.c ****         else if (blue == 0)
 154              		.loc 1 155 0
 155 00ba 074B     		ldr	r3, .L10
 156 00bc 9B88     		ldrh	r3, [r3, #4]
 157 00be 002B     		cmp	r3, #0
 158 00c0 05D1     		bne	.L9
 156:..\Slider.cydsn/animation.c ****         {
 157:..\Slider.cydsn/animation.c ****             green -= green_increment;
 159              		.loc 1 157 0
 160 00c2 054B     		ldr	r3, .L10
 161 00c4 803A     		sub	r2, r2, #128
 162 00c6 5A80     		strh	r2, [r3, #2]
 158:..\Slider.cydsn/animation.c ****             blue   = MAX_COLOR;
 163              		.loc 1 158 0
 164 00c8 064A     		ldr	r2, .L10+12
 165 00ca 9A80     		strh	r2, [r3, #4]
 166 00cc 02E0     		b	.L1
 167              	.L9:
 159:..\Slider.cydsn/animation.c ****         }
 160:..\Slider.cydsn/animation.c ****         else
 161:..\Slider.cydsn/animation.c ****         {
 162:..\Slider.cydsn/animation.c ****             blue -= blue_increment;    
 168              		.loc 1 162 0
 169 00ce 403B     		sub	r3, r3, #64
 170 00d0 014A     		ldr	r2, .L10
 171 00d2 9380     		strh	r3, [r2, #4]
 172              	.L1:
 163:..\Slider.cydsn/animation.c ****         }
 164:..\Slider.cydsn/animation.c ****     }// // else, the intensity is going down
 165:..\Slider.cydsn/animation.c **** }// animate_all_colors
 173              		.loc 1 165 0
 174              		@ sp needed
 175 00d4 10BD     		pop	{r4, pc}
 176              	.L11:
 177 00d6 C046     		.align	2
ARM GAS  C:\Users\MM1005~1\AppData\Local\Temp\ccTXRdVU.s 			page 7


 178              	.L10:
 179 00d8 00000000 		.word	.LANCHOR0
 180 00dc 00000000 		.word	.LANCHOR1
 181 00e0 FE0F0000 		.word	4094
 182 00e4 FF0F0000 		.word	4095
 183              		.cfi_endproc
 184              	.LFE35:
 185              		.size	animate_all_colors, .-animate_all_colors
 186              		.section	.text.animate_fix_white,"ax",%progbits
 187              		.align	2
 188              		.global	animate_fix_white
 189              		.code	16
 190              		.thumb_func
 191              		.type	animate_fix_white, %function
 192              	animate_fix_white:
 193              	.LFB36:
 166:..\Slider.cydsn/animation.c **** 
 167:..\Slider.cydsn/animation.c **** //=============================================================================
 168:..\Slider.cydsn/animation.c **** //=========================================================== animate_fix_white
 169:..\Slider.cydsn/animation.c **** //=============================================================================
 170:..\Slider.cydsn/animation.c **** void animate_fix_white(void)
 171:..\Slider.cydsn/animation.c **** {
 194              		.loc 1 171 0
 195              		.cfi_startproc
 196 0000 10B5     		push	{r4, lr}
 197              		.cfi_def_cfa_offset 8
 198              		.cfi_offset 4, -8
 199              		.cfi_offset 14, -4
 172:..\Slider.cydsn/animation.c ****     set_led(6, MAX_INTENSITY);
 200              		.loc 1 172 0
 201 0002 094C     		ldr	r4, .L13
 202 0004 0620     		mov	r0, #6
 203 0006 211C     		mov	r1, r4
 204 0008 FFF7FEFF 		bl	set_led
 205              	.LVL7:
 173:..\Slider.cydsn/animation.c ****     set_led(7, MAX_INTENSITY);
 206              		.loc 1 173 0
 207 000c 0720     		mov	r0, #7
 208 000e 211C     		mov	r1, r4
 209 0010 FFF7FEFF 		bl	set_led
 210              	.LVL8:
 174:..\Slider.cydsn/animation.c ****     set_led(8, MAX_INTENSITY);
 211              		.loc 1 174 0
 212 0014 0820     		mov	r0, #8
 213 0016 211C     		mov	r1, r4
 214 0018 FFF7FEFF 		bl	set_led
 215              	.LVL9:
 175:..\Slider.cydsn/animation.c ****     set_led(9, MAX_INTENSITY);
 216              		.loc 1 175 0
 217 001c 0920     		mov	r0, #9
 218 001e 211C     		mov	r1, r4
 219 0020 FFF7FEFF 		bl	set_led
 220              	.LVL10:
 176:..\Slider.cydsn/animation.c **** }// animate_fix_led_0
 221              		.loc 1 176 0
 222              		@ sp needed
 223 0024 10BD     		pop	{r4, pc}
ARM GAS  C:\Users\MM1005~1\AppData\Local\Temp\ccTXRdVU.s 			page 8


 224              	.L14:
 225 0026 C046     		.align	2
 226              	.L13:
 227 0028 FF0F0000 		.word	4095
 228              		.cfi_endproc
 229              	.LFE36:
 230              		.size	animate_fix_white, .-animate_fix_white
 231              		.section	.text.animate_red_intensity,"ax",%progbits
 232              		.align	2
 233              		.global	animate_red_intensity
 234              		.code	16
 235              		.thumb_func
 236              		.type	animate_red_intensity, %function
 237              	animate_red_intensity:
 238              	.LFB38:
 177:..\Slider.cydsn/animation.c **** 
 178:..\Slider.cydsn/animation.c **** //=============================================================================
 179:..\Slider.cydsn/animation.c **** //========================================================== animate_fix_led_14
 180:..\Slider.cydsn/animation.c **** //=============================================================================
 181:..\Slider.cydsn/animation.c **** void animate_fix_led_14(void)
 182:..\Slider.cydsn/animation.c **** {
 183:..\Slider.cydsn/animation.c ****     set_led(14, MAX_INTENSITY);
 184:..\Slider.cydsn/animation.c **** }// animate_fix_led_0
 185:..\Slider.cydsn/animation.c **** 
 186:..\Slider.cydsn/animation.c **** //=============================================================================
 187:..\Slider.cydsn/animation.c **** //======================================================= animate_red_intensity
 188:..\Slider.cydsn/animation.c **** //=============================================================================
 189:..\Slider.cydsn/animation.c **** void animate_red_intensity  (void)
 190:..\Slider.cydsn/animation.c **** {
 239              		.loc 1 190 0
 240              		.cfi_startproc
 241 0000 10B5     		push	{r4, lr}
 242              		.cfi_def_cfa_offset 8
 243              		.cfi_offset 4, -8
 244              		.cfi_offset 14, -4
 191:..\Slider.cydsn/animation.c **** #if FOR_COLIN    
 192:..\Slider.cydsn/animation.c ****     animate_color_intensity(E_RED);
 193:..\Slider.cydsn/animation.c **** #else
 194:..\Slider.cydsn/animation.c ****     set_led(E_LED_LEFT_RED   , MAX_COLOR);
 245              		.loc 1 194 0
 246 0002 0D4C     		ldr	r4, .L16
 247 0004 1520     		mov	r0, #21
 248 0006 211C     		mov	r1, r4
 249 0008 FFF7FEFF 		bl	set_led
 250              	.LVL11:
 195:..\Slider.cydsn/animation.c ****     set_led(E_LED_LEFT_GREEN , 0x00     );
 251              		.loc 1 195 0
 252 000c 1620     		mov	r0, #22
 253 000e 0021     		mov	r1, #0
 254 0010 FFF7FEFF 		bl	set_led
 255              	.LVL12:
 196:..\Slider.cydsn/animation.c ****     set_led(E_LED_LEFT_BLUE  , 0x00     );
 256              		.loc 1 196 0
 257 0014 1720     		mov	r0, #23
 258 0016 0021     		mov	r1, #0
 259 0018 FFF7FEFF 		bl	set_led
 260              	.LVL13:
ARM GAS  C:\Users\MM1005~1\AppData\Local\Temp\ccTXRdVU.s 			page 9


 197:..\Slider.cydsn/animation.c ****     set_led(E_LED_RIGHT_RED  , MAX_COLOR);
 261              		.loc 1 197 0
 262 001c 1220     		mov	r0, #18
 263 001e 211C     		mov	r1, r4
 264 0020 FFF7FEFF 		bl	set_led
 265              	.LVL14:
 198:..\Slider.cydsn/animation.c ****     set_led(E_LED_RIGHT_GREEN, 0x00     );
 266              		.loc 1 198 0
 267 0024 1320     		mov	r0, #19
 268 0026 0021     		mov	r1, #0
 269 0028 FFF7FEFF 		bl	set_led
 270              	.LVL15:
 199:..\Slider.cydsn/animation.c ****     set_led(E_LED_RIGHT_BLUE , 0x00     );
 271              		.loc 1 199 0
 272 002c 1420     		mov	r0, #20
 273 002e 0021     		mov	r1, #0
 274 0030 FFF7FEFF 		bl	set_led
 275              	.LVL16:
 200:..\Slider.cydsn/animation.c **** #endif        
 201:..\Slider.cydsn/animation.c **** }// animate_red_intensity
 276              		.loc 1 201 0
 277              		@ sp needed
 278 0034 10BD     		pop	{r4, pc}
 279              	.L17:
 280 0036 C046     		.align	2
 281              	.L16:
 282 0038 FF0F0000 		.word	4095
 283              		.cfi_endproc
 284              	.LFE38:
 285              		.size	animate_red_intensity, .-animate_red_intensity
 286              		.section	.text.animate_green_intensity,"ax",%progbits
 287              		.align	2
 288              		.global	animate_green_intensity
 289              		.code	16
 290              		.thumb_func
 291              		.type	animate_green_intensity, %function
 292              	animate_green_intensity:
 293              	.LFB39:
 202:..\Slider.cydsn/animation.c **** 
 203:..\Slider.cydsn/animation.c **** //=============================================================================
 204:..\Slider.cydsn/animation.c **** //===================================================== animate_green_intensity
 205:..\Slider.cydsn/animation.c **** //=============================================================================
 206:..\Slider.cydsn/animation.c **** void animate_green_intensity(void)
 207:..\Slider.cydsn/animation.c **** {
 294              		.loc 1 207 0
 295              		.cfi_startproc
 296 0000 10B5     		push	{r4, lr}
 297              		.cfi_def_cfa_offset 8
 298              		.cfi_offset 4, -8
 299              		.cfi_offset 14, -4
 208:..\Slider.cydsn/animation.c **** #if FOR_COLIN    
 209:..\Slider.cydsn/animation.c ****     animate_color_intensity(E_GREEN);
 210:..\Slider.cydsn/animation.c **** #else
 211:..\Slider.cydsn/animation.c ****     set_led(E_LED_LEFT_RED   , 0x00     );
 300              		.loc 1 211 0
 301 0002 1520     		mov	r0, #21
 302 0004 0021     		mov	r1, #0
ARM GAS  C:\Users\MM1005~1\AppData\Local\Temp\ccTXRdVU.s 			page 10


 303 0006 FFF7FEFF 		bl	set_led
 304              	.LVL17:
 212:..\Slider.cydsn/animation.c ****     set_led(E_LED_LEFT_GREEN , MAX_COLOR);
 305              		.loc 1 212 0
 306 000a 0B4C     		ldr	r4, .L19
 307 000c 1620     		mov	r0, #22
 308 000e 211C     		mov	r1, r4
 309 0010 FFF7FEFF 		bl	set_led
 310              	.LVL18:
 213:..\Slider.cydsn/animation.c ****     set_led(E_LED_LEFT_BLUE  , 0x00     );
 311              		.loc 1 213 0
 312 0014 1720     		mov	r0, #23
 313 0016 0021     		mov	r1, #0
 314 0018 FFF7FEFF 		bl	set_led
 315              	.LVL19:
 214:..\Slider.cydsn/animation.c ****     set_led(E_LED_RIGHT_RED  , 0x00     );
 316              		.loc 1 214 0
 317 001c 1220     		mov	r0, #18
 318 001e 0021     		mov	r1, #0
 319 0020 FFF7FEFF 		bl	set_led
 320              	.LVL20:
 215:..\Slider.cydsn/animation.c ****     set_led(E_LED_RIGHT_GREEN, MAX_COLOR);
 321              		.loc 1 215 0
 322 0024 1320     		mov	r0, #19
 323 0026 211C     		mov	r1, r4
 324 0028 FFF7FEFF 		bl	set_led
 325              	.LVL21:
 216:..\Slider.cydsn/animation.c ****     set_led(E_LED_RIGHT_BLUE , 0x00     );
 326              		.loc 1 216 0
 327 002c 1420     		mov	r0, #20
 328 002e 0021     		mov	r1, #0
 329 0030 FFF7FEFF 		bl	set_led
 330              	.LVL22:
 217:..\Slider.cydsn/animation.c **** #endif    
 218:..\Slider.cydsn/animation.c **** }// animate_green_intensity
 331              		.loc 1 218 0
 332              		@ sp needed
 333 0034 10BD     		pop	{r4, pc}
 334              	.L20:
 335 0036 C046     		.align	2
 336              	.L19:
 337 0038 FF0F0000 		.word	4095
 338              		.cfi_endproc
 339              	.LFE39:
 340              		.size	animate_green_intensity, .-animate_green_intensity
 341              		.section	.text.animate_blue_intensity,"ax",%progbits
 342              		.align	2
 343              		.global	animate_blue_intensity
 344              		.code	16
 345              		.thumb_func
 346              		.type	animate_blue_intensity, %function
 347              	animate_blue_intensity:
 348              	.LFB40:
 219:..\Slider.cydsn/animation.c **** 
 220:..\Slider.cydsn/animation.c **** //=============================================================================
 221:..\Slider.cydsn/animation.c **** //====================================================== animate_blue_intensity
 222:..\Slider.cydsn/animation.c **** //=============================================================================
ARM GAS  C:\Users\MM1005~1\AppData\Local\Temp\ccTXRdVU.s 			page 11


 223:..\Slider.cydsn/animation.c **** void animate_blue_intensity (void)
 224:..\Slider.cydsn/animation.c **** {
 349              		.loc 1 224 0
 350              		.cfi_startproc
 351 0000 10B5     		push	{r4, lr}
 352              		.cfi_def_cfa_offset 8
 353              		.cfi_offset 4, -8
 354              		.cfi_offset 14, -4
 225:..\Slider.cydsn/animation.c **** #if FOR_COLIN    
 226:..\Slider.cydsn/animation.c ****     animate_color_intensity(E_BLUE);
 227:..\Slider.cydsn/animation.c **** #else
 228:..\Slider.cydsn/animation.c ****     set_led(E_LED_LEFT_RED   , 0x00     );
 355              		.loc 1 228 0
 356 0002 1520     		mov	r0, #21
 357 0004 0021     		mov	r1, #0
 358 0006 FFF7FEFF 		bl	set_led
 359              	.LVL23:
 229:..\Slider.cydsn/animation.c ****     set_led(E_LED_LEFT_GREEN , 0x00     );
 360              		.loc 1 229 0
 361 000a 1620     		mov	r0, #22
 362 000c 0021     		mov	r1, #0
 363 000e FFF7FEFF 		bl	set_led
 364              	.LVL24:
 230:..\Slider.cydsn/animation.c ****     set_led(E_LED_LEFT_BLUE  , MAX_COLOR);
 365              		.loc 1 230 0
 366 0012 094C     		ldr	r4, .L22
 367 0014 1720     		mov	r0, #23
 368 0016 211C     		mov	r1, r4
 369 0018 FFF7FEFF 		bl	set_led
 370              	.LVL25:
 231:..\Slider.cydsn/animation.c ****     set_led(E_LED_RIGHT_RED  , 0x00     );
 371              		.loc 1 231 0
 372 001c 1220     		mov	r0, #18
 373 001e 0021     		mov	r1, #0
 374 0020 FFF7FEFF 		bl	set_led
 375              	.LVL26:
 232:..\Slider.cydsn/animation.c ****     set_led(E_LED_RIGHT_GREEN, 0x00     );
 376              		.loc 1 232 0
 377 0024 1320     		mov	r0, #19
 378 0026 0021     		mov	r1, #0
 379 0028 FFF7FEFF 		bl	set_led
 380              	.LVL27:
 233:..\Slider.cydsn/animation.c ****     set_led(E_LED_RIGHT_BLUE , MAX_COLOR);
 381              		.loc 1 233 0
 382 002c 1420     		mov	r0, #20
 383 002e 211C     		mov	r1, r4
 384 0030 FFF7FEFF 		bl	set_led
 385              	.LVL28:
 234:..\Slider.cydsn/animation.c **** #endif        
 235:..\Slider.cydsn/animation.c **** }// animate_blue_intensity
 386              		.loc 1 235 0
 387              		@ sp needed
 388 0034 10BD     		pop	{r4, pc}
 389              	.L23:
 390 0036 C046     		.align	2
 391              	.L22:
 392 0038 FF0F0000 		.word	4095
ARM GAS  C:\Users\MM1005~1\AppData\Local\Temp\ccTXRdVU.s 			page 12


 393              		.cfi_endproc
 394              	.LFE40:
 395              		.size	animate_blue_intensity, .-animate_blue_intensity
 396              		.section	.text.animate_rainbow_colors,"ax",%progbits
 397              		.align	2
 398              		.global	animate_rainbow_colors
 399              		.code	16
 400              		.thumb_func
 401              		.type	animate_rainbow_colors, %function
 402              	animate_rainbow_colors:
 403              	.LFB45:
 236:..\Slider.cydsn/animation.c **** 
 237:..\Slider.cydsn/animation.c **** //=============================================================================
 238:..\Slider.cydsn/animation.c **** //================================================= animate_red_white_intensity
 239:..\Slider.cydsn/animation.c **** //=============================================================================
 240:..\Slider.cydsn/animation.c **** void animate_red_white_intensity  (void)
 241:..\Slider.cydsn/animation.c **** {
 242:..\Slider.cydsn/animation.c ****     static uint8 intensity_white_index = PI_0_INDEX  ;
 243:..\Slider.cydsn/animation.c ****     static uint8 intensity_color_index = PI_180_INDEX;
 244:..\Slider.cydsn/animation.c ****       
 245:..\Slider.cydsn/animation.c ****     set_all_white_leds(sine_vec[intensity_white_index++]);
 246:..\Slider.cydsn/animation.c ****     set_led           (E_LED_LEFT_RED, sine_vec[intensity_color_index  ]);
 247:..\Slider.cydsn/animation.c ****     set_led           (E_LED_LEFT_RED, sine_vec[intensity_color_index++]);
 248:..\Slider.cydsn/animation.c ****     
 249:..\Slider.cydsn/animation.c **** #if USE_128_POINTS_FOR_BREATHING
 250:..\Slider.cydsn/animation.c ****     left_index  %= SINE_VEC_SIZE;
 251:..\Slider.cydsn/animation.c ****     right_index %= SINE_VEC_SIZE;
 252:..\Slider.cydsn/animation.c **** #endif // at 256 points, the index value (uint8) will rotate by them self
 253:..\Slider.cydsn/animation.c ****     
 254:..\Slider.cydsn/animation.c **** }// animate_red_white_intensity
 255:..\Slider.cydsn/animation.c **** 
 256:..\Slider.cydsn/animation.c **** //=============================================================================
 257:..\Slider.cydsn/animation.c **** //=============================================== animate_green_white_intensity
 258:..\Slider.cydsn/animation.c **** //=============================================================================
 259:..\Slider.cydsn/animation.c **** void animate_green_white_intensity(void)
 260:..\Slider.cydsn/animation.c **** {
 261:..\Slider.cydsn/animation.c ****     static uint8 intensity_white_index = PI_0_INDEX  ;
 262:..\Slider.cydsn/animation.c ****     static uint8 intensity_color_index = PI_180_INDEX;
 263:..\Slider.cydsn/animation.c ****       
 264:..\Slider.cydsn/animation.c ****     set_all_white_leds(sine_vec[intensity_white_index++]);
 265:..\Slider.cydsn/animation.c ****     set_led           (E_LED_LEFT_GREEN, sine_vec[intensity_color_index  ]);
 266:..\Slider.cydsn/animation.c ****     set_led           (E_LED_LEFT_GREEN, sine_vec[intensity_color_index++]);
 267:..\Slider.cydsn/animation.c ****     
 268:..\Slider.cydsn/animation.c **** #if USE_128_POINTS_FOR_BREATHING
 269:..\Slider.cydsn/animation.c ****     left_index  %= SINE_VEC_SIZE;
 270:..\Slider.cydsn/animation.c ****     right_index %= SINE_VEC_SIZE;
 271:..\Slider.cydsn/animation.c **** #endif // at 256 points, the index value (uint8) will rotate by them self
 272:..\Slider.cydsn/animation.c **** }// animate_green_white_intensity
 273:..\Slider.cydsn/animation.c **** 
 274:..\Slider.cydsn/animation.c **** //=============================================================================
 275:..\Slider.cydsn/animation.c **** //================================================ animate_blue_white_intensity
 276:..\Slider.cydsn/animation.c **** //=============================================================================
 277:..\Slider.cydsn/animation.c **** void animate_blue_white_intensity (void)
 278:..\Slider.cydsn/animation.c **** {
 279:..\Slider.cydsn/animation.c ****     static uint8 intensity_white_index = PI_0_INDEX  ;
 280:..\Slider.cydsn/animation.c ****     static uint8 intensity_color_index = PI_180_INDEX;
 281:..\Slider.cydsn/animation.c ****       
ARM GAS  C:\Users\MM1005~1\AppData\Local\Temp\ccTXRdVU.s 			page 13


 282:..\Slider.cydsn/animation.c ****     set_all_white_leds(sine_vec[intensity_white_index++]);
 283:..\Slider.cydsn/animation.c ****     set_led           (E_LED_LEFT_BLUE, sine_vec[intensity_color_index  ]);
 284:..\Slider.cydsn/animation.c ****     set_led           (E_LED_LEFT_BLUE, sine_vec[intensity_color_index++]);
 285:..\Slider.cydsn/animation.c ****     
 286:..\Slider.cydsn/animation.c **** #if USE_128_POINTS_FOR_BREATHING
 287:..\Slider.cydsn/animation.c ****     left_index  %= SINE_VEC_SIZE;
 288:..\Slider.cydsn/animation.c ****     right_index %= SINE_VEC_SIZE;
 289:..\Slider.cydsn/animation.c **** #endif // at 256 points, the index value (uint8) will rotate by them self  
 290:..\Slider.cydsn/animation.c **** }// animate_blue_white_intensity
 291:..\Slider.cydsn/animation.c **** 
 292:..\Slider.cydsn/animation.c **** //=============================================================================
 293:..\Slider.cydsn/animation.c **** //===================================================== animate_color_intensity
 294:..\Slider.cydsn/animation.c **** //=============================================================================
 295:..\Slider.cydsn/animation.c **** void animate_color_intensity(t_enum_primary_color color)
 296:..\Slider.cydsn/animation.c **** {
 297:..\Slider.cydsn/animation.c ****     static uint16 intensity    = 0   ;
 298:..\Slider.cydsn/animation.c ****     static BOOL   intensity_up = TRUE;
 299:..\Slider.cydsn/animation.c ****            uint16 increment    = 1   ;
 300:..\Slider.cydsn/animation.c **** 
 301:..\Slider.cydsn/animation.c ****     switch (color)
 302:..\Slider.cydsn/animation.c ****     {
 303:..\Slider.cydsn/animation.c ****         case E_PRIMARY_COLOR_RED  : set_led(E_LED_LEFT_RED   , intensity);
 304:..\Slider.cydsn/animation.c ****                                     set_led(E_LED_RIGHT_RED  , intensity);
 305:..\Slider.cydsn/animation.c ****                                     break;
 306:..\Slider.cydsn/animation.c ****         case E_PRIMARY_COLOR_GREEN: set_led(E_LED_LEFT_GREEN , intensity);
 307:..\Slider.cydsn/animation.c ****                                     set_led(E_LED_RIGHT_GREEN, intensity);
 308:..\Slider.cydsn/animation.c ****                                     break;
 309:..\Slider.cydsn/animation.c ****         case E_PRIMARY_COLOR_BLUE : set_led(E_LED_LEFT_BLUE  , intensity);
 310:..\Slider.cydsn/animation.c ****                                     set_led(E_LED_RIGHT_BLUE , intensity);
 311:..\Slider.cydsn/animation.c ****                                     break;
 312:..\Slider.cydsn/animation.c ****         default                   : break;
 313:..\Slider.cydsn/animation.c ****     }// switch color
 314:..\Slider.cydsn/animation.c ****                    
 315:..\Slider.cydsn/animation.c ****     if (intensity_up)
 316:..\Slider.cydsn/animation.c ****     {
 317:..\Slider.cydsn/animation.c ****         intensity += increment;
 318:..\Slider.cydsn/animation.c ****         if (intensity >= MAX_COLOR)
 319:..\Slider.cydsn/animation.c ****         {
 320:..\Slider.cydsn/animation.c ****             intensity_up = FALSE;
 321:..\Slider.cydsn/animation.c ****         }
 322:..\Slider.cydsn/animation.c ****     }// if the intensity is going up
 323:..\Slider.cydsn/animation.c ****     else
 324:..\Slider.cydsn/animation.c ****     {
 325:..\Slider.cydsn/animation.c ****         intensity -= increment;
 326:..\Slider.cydsn/animation.c ****         if (intensity == 0)
 327:..\Slider.cydsn/animation.c ****         {
 328:..\Slider.cydsn/animation.c ****             intensity_up = TRUE;
 329:..\Slider.cydsn/animation.c ****         }
 330:..\Slider.cydsn/animation.c ****     }  
 331:..\Slider.cydsn/animation.c **** }// animate_color_intensity
 332:..\Slider.cydsn/animation.c **** 
 333:..\Slider.cydsn/animation.c **** //=============================================================================
 334:..\Slider.cydsn/animation.c **** //====================================================== animate_rainbow_colors
 335:..\Slider.cydsn/animation.c **** //=============================================================================
 336:..\Slider.cydsn/animation.c **** void animate_rainbow_colors()
 337:..\Slider.cydsn/animation.c **** {
 404              		.loc 1 337 0
ARM GAS  C:\Users\MM1005~1\AppData\Local\Temp\ccTXRdVU.s 			page 14


 405              		.cfi_startproc
 406 0000 38B5     		push	{r3, r4, r5, lr}
 407              		.cfi_def_cfa_offset 16
 408              		.cfi_offset 3, -16
 409              		.cfi_offset 4, -12
 410              		.cfi_offset 5, -8
 411              		.cfi_offset 14, -4
 338:..\Slider.cydsn/animation.c ****     static uint16             cycle         = 0;
 339:..\Slider.cydsn/animation.c ****     static uint16             color_index   = 0;
 340:..\Slider.cydsn/animation.c ****     static t_struct_rgb_color vec_rainbow[] = {{148,   0, 211}, // violet
 341:..\Slider.cydsn/animation.c ****                                                { 75,   0, 130}, // indigo
 342:..\Slider.cydsn/animation.c ****                                                {  0,   0, 255}, // blue
 343:..\Slider.cydsn/animation.c ****                                                {  0, 255,   0}, // green
 344:..\Slider.cydsn/animation.c ****                                                {255, 255,   0}, // yellow
 345:..\Slider.cydsn/animation.c ****                                                {255, 127,   0}, // orange
 346:..\Slider.cydsn/animation.c ****                                                {255,   0,   0}, // red
 347:..\Slider.cydsn/animation.c ****                                                {  0,   0,   0}};
 348:..\Slider.cydsn/animation.c ****         
 349:..\Slider.cydsn/animation.c ****     cycle++;
 412              		.loc 1 349 0
 413 0002 254A     		ldr	r2, .L27
 414 0004 D388     		ldrh	r3, [r2, #6]
 415 0006 0133     		add	r3, r3, #1
 416 0008 9BB2     		uxth	r3, r3
 417 000a D380     		strh	r3, [r2, #6]
 350:..\Slider.cydsn/animation.c ****     if (cycle % 64)
 418              		.loc 1 350 0
 419 000c 9B06     		lsl	r3, r3, #26
 420 000e 41D1     		bne	.L24
 351:..\Slider.cydsn/animation.c ****     {
 352:..\Slider.cydsn/animation.c ****         return;
 353:..\Slider.cydsn/animation.c ****     }
 354:..\Slider.cydsn/animation.c ****     
 355:..\Slider.cydsn/animation.c ****     if ((vec_rainbow[color_index].red + vec_rainbow[color_index].green + vec_rainbow[color_index].b
 421              		.loc 1 355 0
 422 0010 1289     		ldrh	r2, [r2, #8]
 423 0012 2248     		ldr	r0, .L27+4
 424 0014 5300     		lsl	r3, r2, #1
 425 0016 9B18     		add	r3, r3, r2
 426 0018 195C     		ldrb	r1, [r3, r0]
 427 001a C318     		add	r3, r0, r3
 428 001c 5A78     		ldrb	r2, [r3, #1]
 429 001e 8918     		add	r1, r1, r2
 430 0020 9A78     		ldrb	r2, [r3, #2]
 431 0022 8B18     		add	r3, r1, r2
 432 0024 002B     		cmp	r3, #0
 433 0026 02D1     		bne	.L26
 356:..\Slider.cydsn/animation.c ****     {
 357:..\Slider.cydsn/animation.c ****         color_index = 0;      
 434              		.loc 1 357 0
 435 0028 0022     		mov	r2, #0
 436 002a 1B4B     		ldr	r3, .L27
 437 002c 1A81     		strh	r2, [r3, #8]
 438              	.L26:
 358:..\Slider.cydsn/animation.c ****     }
 359:..\Slider.cydsn/animation.c ****     
 360:..\Slider.cydsn/animation.c ****     set_led(E_LED_LEFT_RED   , vec_rainbow[color_index].red  );
ARM GAS  C:\Users\MM1005~1\AppData\Local\Temp\ccTXRdVU.s 			page 15


 439              		.loc 1 360 0
 440 002e 1B4D     		ldr	r5, .L27+4
 441 0030 194C     		ldr	r4, .L27
 442 0032 2389     		ldrh	r3, [r4, #8]
 443 0034 5A00     		lsl	r2, r3, #1
 444 0036 D318     		add	r3, r2, r3
 445 0038 E95C     		ldrb	r1, [r5, r3]
 446 003a 1520     		mov	r0, #21
 447 003c FFF7FEFF 		bl	set_led
 448              	.LVL29:
 361:..\Slider.cydsn/animation.c ****     set_led(E_LED_RIGHT_RED  , vec_rainbow[color_index].red  );
 449              		.loc 1 361 0
 450 0040 2389     		ldrh	r3, [r4, #8]
 451 0042 5A00     		lsl	r2, r3, #1
 452 0044 D318     		add	r3, r2, r3
 453 0046 E95C     		ldrb	r1, [r5, r3]
 454 0048 1220     		mov	r0, #18
 455 004a FFF7FEFF 		bl	set_led
 456              	.LVL30:
 362:..\Slider.cydsn/animation.c ****     set_led(E_LED_LEFT_GREEN , vec_rainbow[color_index].green);
 457              		.loc 1 362 0
 458 004e 2389     		ldrh	r3, [r4, #8]
 459 0050 5A00     		lsl	r2, r3, #1
 460 0052 D318     		add	r3, r2, r3
 461 0054 EB18     		add	r3, r5, r3
 462 0056 5978     		ldrb	r1, [r3, #1]
 463 0058 1620     		mov	r0, #22
 464 005a FFF7FEFF 		bl	set_led
 465              	.LVL31:
 363:..\Slider.cydsn/animation.c ****     set_led(E_LED_RIGHT_GREEN, vec_rainbow[color_index].green);  
 466              		.loc 1 363 0
 467 005e 2389     		ldrh	r3, [r4, #8]
 468 0060 5A00     		lsl	r2, r3, #1
 469 0062 D318     		add	r3, r2, r3
 470 0064 EB18     		add	r3, r5, r3
 471 0066 5978     		ldrb	r1, [r3, #1]
 472 0068 1320     		mov	r0, #19
 473 006a FFF7FEFF 		bl	set_led
 474              	.LVL32:
 364:..\Slider.cydsn/animation.c ****     set_led(E_LED_LEFT_BLUE  , vec_rainbow[color_index].blue );
 475              		.loc 1 364 0
 476 006e 2389     		ldrh	r3, [r4, #8]
 477 0070 5A00     		lsl	r2, r3, #1
 478 0072 D318     		add	r3, r2, r3
 479 0074 EB18     		add	r3, r5, r3
 480 0076 9978     		ldrb	r1, [r3, #2]
 481 0078 1720     		mov	r0, #23
 482 007a FFF7FEFF 		bl	set_led
 483              	.LVL33:
 365:..\Slider.cydsn/animation.c ****     set_led(E_LED_RIGHT_BLUE , vec_rainbow[color_index].blue );
 484              		.loc 1 365 0
 485 007e 2389     		ldrh	r3, [r4, #8]
 486 0080 5A00     		lsl	r2, r3, #1
 487 0082 D318     		add	r3, r2, r3
 488 0084 EB18     		add	r3, r5, r3
 489 0086 9978     		ldrb	r1, [r3, #2]
 490 0088 1420     		mov	r0, #20
ARM GAS  C:\Users\MM1005~1\AppData\Local\Temp\ccTXRdVU.s 			page 16


 491 008a FFF7FEFF 		bl	set_led
 492              	.LVL34:
 366:..\Slider.cydsn/animation.c ****     color_index++;    
 493              		.loc 1 366 0
 494 008e 2389     		ldrh	r3, [r4, #8]
 495 0090 0133     		add	r3, r3, #1
 496 0092 2381     		strh	r3, [r4, #8]
 497              	.L24:
 367:..\Slider.cydsn/animation.c **** }// animate_rainbow_colors
 498              		.loc 1 367 0
 499              		@ sp needed
 500 0094 38BD     		pop	{r3, r4, r5, pc}
 501              	.L28:
 502 0096 C046     		.align	2
 503              	.L27:
 504 0098 00000000 		.word	.LANCHOR0
 505 009c 00000000 		.word	.LANCHOR2
 506              		.cfi_endproc
 507              	.LFE45:
 508              		.size	animate_rainbow_colors, .-animate_rainbow_colors
 509              		.global	__aeabi_uidivmod
 510              		.section	.text.animate_left_right,"ax",%progbits
 511              		.align	2
 512              		.global	animate_left_right
 513              		.code	16
 514              		.thumb_func
 515              		.type	animate_left_right, %function
 516              	animate_left_right:
 517              	.LFB46:
 368:..\Slider.cydsn/animation.c **** 
 369:..\Slider.cydsn/animation.c **** //=============================================================================
 370:..\Slider.cydsn/animation.c **** //========================================================== animate_left_right
 371:..\Slider.cydsn/animation.c **** //=============================================================================
 372:..\Slider.cydsn/animation.c **** void animate_left_right()
 373:..\Slider.cydsn/animation.c **** {
 518              		.loc 1 373 0
 519              		.cfi_startproc
 520 0000 10B5     		push	{r4, lr}
 521              		.cfi_def_cfa_offset 8
 522              		.cfi_offset 4, -8
 523              		.cfi_offset 14, -4
 374:..\Slider.cydsn/animation.c ****     static uint16 cycle   = 0;
 375:..\Slider.cydsn/animation.c ****     static uint16 led_pos = 0;
 376:..\Slider.cydsn/animation.c ****          
 377:..\Slider.cydsn/animation.c ****     cycle++;
 524              		.loc 1 377 0
 525 0002 0E4B     		ldr	r3, .L31
 526 0004 5889     		ldrh	r0, [r3, #10]
 527 0006 0130     		add	r0, r0, #1
 528 0008 80B2     		uxth	r0, r0
 529 000a 5881     		strh	r0, [r3, #10]
 378:..\Slider.cydsn/animation.c ****     if (cycle % 13)
 530              		.loc 1 378 0
 531 000c 0D21     		mov	r1, #13
 532 000e FFF7FEFF 		bl	__aeabi_uidivmod
 533              	.LVL35:
 534 0012 89B2     		uxth	r1, r1
ARM GAS  C:\Users\MM1005~1\AppData\Local\Temp\ccTXRdVU.s 			page 17


 535 0014 0029     		cmp	r1, #0
 536 0016 0FD1     		bne	.L29
 379:..\Slider.cydsn/animation.c ****     {
 380:..\Slider.cydsn/animation.c ****         return;
 381:..\Slider.cydsn/animation.c ****     }
 382:..\Slider.cydsn/animation.c **** 
 383:..\Slider.cydsn/animation.c ****     set_led(led_pos, 0x00);
 537              		.loc 1 383 0
 538 0018 084C     		ldr	r4, .L31
 539 001a 207B     		ldrb	r0, [r4, #12]
 540 001c FFF7FEFF 		bl	set_led
 541              	.LVL36:
 384:..\Slider.cydsn/animation.c **** 
 385:..\Slider.cydsn/animation.c ****     led_pos++;
 542              		.loc 1 385 0
 543 0020 A089     		ldrh	r0, [r4, #12]
 544 0022 0130     		add	r0, r0, #1
 545 0024 80B2     		uxth	r0, r0
 386:..\Slider.cydsn/animation.c ****     led_pos %= NUMBER_OF_WHITE_LEDS;
 546              		.loc 1 386 0
 547 0026 0F21     		mov	r1, #15
 548 0028 FFF7FEFF 		bl	__aeabi_uidivmod
 549              	.LVL37:
 550 002c 88B2     		uxth	r0, r1
 551 002e A081     		strh	r0, [r4, #12]
 387:..\Slider.cydsn/animation.c **** 
 388:..\Slider.cydsn/animation.c ****     set_led(led_pos, MAX_INTENSITY);
 552              		.loc 1 388 0
 553 0030 C0B2     		uxtb	r0, r0
 554 0032 0349     		ldr	r1, .L31+4
 555 0034 FFF7FEFF 		bl	set_led
 556              	.LVL38:
 557              	.L29:
 389:..\Slider.cydsn/animation.c **** }// animate_left_right
 558              		.loc 1 389 0
 559              		@ sp needed
 560 0038 10BD     		pop	{r4, pc}
 561              	.L32:
 562 003a C046     		.align	2
 563              	.L31:
 564 003c 00000000 		.word	.LANCHOR0
 565 0040 FF0F0000 		.word	4095
 566              		.cfi_endproc
 567              	.LFE46:
 568              		.size	animate_left_right, .-animate_left_right
 569              		.section	.text.animate_intensity,"ax",%progbits
 570              		.align	2
 571              		.global	animate_intensity
 572              		.code	16
 573              		.thumb_func
 574              		.type	animate_intensity, %function
 575              	animate_intensity:
 576              	.LFB47:
 390:..\Slider.cydsn/animation.c **** 
 391:..\Slider.cydsn/animation.c **** //=============================================================================
 392:..\Slider.cydsn/animation.c **** //=========================================================== animate_intensity
 393:..\Slider.cydsn/animation.c **** //=============================================================================
ARM GAS  C:\Users\MM1005~1\AppData\Local\Temp\ccTXRdVU.s 			page 18


 394:..\Slider.cydsn/animation.c **** void animate_intensity()
 395:..\Slider.cydsn/animation.c **** {
 577              		.loc 1 395 0
 578              		.cfi_startproc
 579 0000 10B5     		push	{r4, lr}
 580              		.cfi_def_cfa_offset 8
 581              		.cfi_offset 4, -8
 582              		.cfi_offset 14, -4
 583              	.LVL39:
 396:..\Slider.cydsn/animation.c ****     static uint8 intensity_left_index  = PI_0_INDEX ;
 397:..\Slider.cydsn/animation.c ****     static uint8 intensity_right_index = PI_180_INDEX;
 398:..\Slider.cydsn/animation.c ****     static uint8 half_white            = NUMBER_OF_WHITE_LEDS / 2;
 399:..\Slider.cydsn/animation.c ****     int i;
 400:..\Slider.cydsn/animation.c ****        
 401:..\Slider.cydsn/animation.c ****     for (i = 0; i < half_white; i++)
 584              		.loc 1 401 0
 585 0002 0024     		mov	r4, #0
 586 0004 09E0     		b	.L34
 587              	.LVL40:
 588              	.L35:
 402:..\Slider.cydsn/animation.c ****     {
 403:..\Slider.cydsn/animation.c ****         set_led(i, sine_vec[intensity_left_index]);
 589              		.loc 1 403 0 discriminator 3
 590 0006 E0B2     		uxtb	r0, r4
 591 0008 194B     		ldr	r3, .L38
 592 000a 9B7B     		ldrb	r3, [r3, #14]
 593 000c 5B00     		lsl	r3, r3, #1
 594 000e 194A     		ldr	r2, .L38+4
 595 0010 D318     		add	r3, r2, r3
 596 0012 198B     		ldrh	r1, [r3, #24]
 597 0014 FFF7FEFF 		bl	set_led
 598              	.LVL41:
 401:..\Slider.cydsn/animation.c ****     {
 599              		.loc 1 401 0 discriminator 3
 600 0018 0134     		add	r4, r4, #1
 601              	.LVL42:
 602              	.L34:
 401:..\Slider.cydsn/animation.c ****     {
 603              		.loc 1 401 0 is_stmt 0 discriminator 1
 604 001a 062C     		cmp	r4, #6
 605 001c F3DD     		ble	.L35
 404:..\Slider.cydsn/animation.c ****     }
 405:..\Slider.cydsn/animation.c ****     
 406:..\Slider.cydsn/animation.c ****     for (i = half_white; i < NUMBER_OF_WHITE_LEDS; i++)
 606              		.loc 1 406 0 is_stmt 1
 607 001e 0724     		mov	r4, #7
 608              	.LVL43:
 609 0020 09E0     		b	.L36
 610              	.LVL44:
 611              	.L37:
 407:..\Slider.cydsn/animation.c ****     {
 408:..\Slider.cydsn/animation.c ****         set_led(i, sine_vec[intensity_right_index]);
 612              		.loc 1 408 0 discriminator 3
 613 0022 E0B2     		uxtb	r0, r4
 614 0024 144B     		ldr	r3, .L38+8
 615 0026 5B78     		ldrb	r3, [r3, #1]
 616 0028 5B00     		lsl	r3, r3, #1
ARM GAS  C:\Users\MM1005~1\AppData\Local\Temp\ccTXRdVU.s 			page 19


 617 002a 124A     		ldr	r2, .L38+4
 618 002c D318     		add	r3, r2, r3
 619 002e 198B     		ldrh	r1, [r3, #24]
 620 0030 FFF7FEFF 		bl	set_led
 621              	.LVL45:
 406:..\Slider.cydsn/animation.c ****     {
 622              		.loc 1 406 0 discriminator 3
 623 0034 0134     		add	r4, r4, #1
 624              	.LVL46:
 625              	.L36:
 406:..\Slider.cydsn/animation.c ****     {
 626              		.loc 1 406 0 is_stmt 0 discriminator 1
 627 0036 0E2C     		cmp	r4, #14
 628 0038 F3DD     		ble	.L37
 409:..\Slider.cydsn/animation.c ****     }
 410:..\Slider.cydsn/animation.c ****     
 411:..\Slider.cydsn/animation.c ****     intensity_left_index++;
 629              		.loc 1 411 0 is_stmt 1
 630 003a 0D4A     		ldr	r2, .L38
 631 003c 937B     		ldrb	r3, [r2, #14]
 632 003e 0133     		add	r3, r3, #1
 633 0040 9373     		strb	r3, [r2, #14]
 412:..\Slider.cydsn/animation.c ****     intensity_right_index++;
 634              		.loc 1 412 0
 635 0042 0D4A     		ldr	r2, .L38+8
 636 0044 5378     		ldrb	r3, [r2, #1]
 637 0046 0133     		add	r3, r3, #1
 638 0048 5370     		strb	r3, [r2, #1]
 413:..\Slider.cydsn/animation.c **** 
 414:..\Slider.cydsn/animation.c ****     set_led(E_LED_LEFT_RED   , MAX_INTENSITY);
 639              		.loc 1 414 0
 640 004a 0C4C     		ldr	r4, .L38+12
 641              	.LVL47:
 642 004c 1520     		mov	r0, #21
 643 004e 211C     		mov	r1, r4
 644 0050 FFF7FEFF 		bl	set_led
 645              	.LVL48:
 415:..\Slider.cydsn/animation.c ****     set_led(E_LED_LEFT_GREEN , MAX_INTENSITY);
 646              		.loc 1 415 0
 647 0054 1620     		mov	r0, #22
 648 0056 211C     		mov	r1, r4
 649 0058 FFF7FEFF 		bl	set_led
 650              	.LVL49:
 416:..\Slider.cydsn/animation.c ****     set_led(E_LED_RIGHT_RED  , MAX_INTENSITY);
 651              		.loc 1 416 0
 652 005c 1220     		mov	r0, #18
 653 005e 211C     		mov	r1, r4
 654 0060 FFF7FEFF 		bl	set_led
 655              	.LVL50:
 417:..\Slider.cydsn/animation.c ****     set_led(E_LED_RIGHT_GREEN, MAX_INTENSITY);
 656              		.loc 1 417 0
 657 0064 1320     		mov	r0, #19
 658 0066 211C     		mov	r1, r4
 659 0068 FFF7FEFF 		bl	set_led
 660              	.LVL51:
 418:..\Slider.cydsn/animation.c ****     
 419:..\Slider.cydsn/animation.c **** #if USE_128_POINTS_FOR_BREATHING
ARM GAS  C:\Users\MM1005~1\AppData\Local\Temp\ccTXRdVU.s 			page 20


 420:..\Slider.cydsn/animation.c ****     intensity_left_index  %= SINE_VEC_SIZE;
 421:..\Slider.cydsn/animation.c ****     intensity_right_index %= SINE_VEC_SIZE;
 422:..\Slider.cydsn/animation.c **** #endif // at 256 points, the index value (uint8) will rotate by them self  
 423:..\Slider.cydsn/animation.c **** }// animate_intensity
 661              		.loc 1 423 0
 662              		@ sp needed
 663 006c 10BD     		pop	{r4, pc}
 664              	.L39:
 665 006e C046     		.align	2
 666              	.L38:
 667 0070 00000000 		.word	.LANCHOR0
 668 0074 00000000 		.word	.LANCHOR2
 669 0078 00000000 		.word	.LANCHOR1
 670 007c FF0F0000 		.word	4095
 671              		.cfi_endproc
 672              	.LFE47:
 673              		.size	animate_intensity, .-animate_intensity
 674              		.section	.text.animate_red_white_intensity,"ax",%progbits
 675              		.align	2
 676              		.global	animate_red_white_intensity
 677              		.code	16
 678              		.thumb_func
 679              		.type	animate_red_white_intensity, %function
 680              	animate_red_white_intensity:
 681              	.LFB41:
 241:..\Slider.cydsn/animation.c ****     static uint8 intensity_white_index = PI_0_INDEX  ;
 682              		.loc 1 241 0
 683              		.cfi_startproc
 684 0000 38B5     		push	{r3, r4, r5, lr}
 685              		.cfi_def_cfa_offset 16
 686              		.cfi_offset 3, -16
 687              		.cfi_offset 4, -12
 688              		.cfi_offset 5, -8
 689              		.cfi_offset 14, -4
 245:..\Slider.cydsn/animation.c ****     set_led           (E_LED_LEFT_RED, sine_vec[intensity_color_index  ]);
 690              		.loc 1 245 0
 691 0002 0E4A     		ldr	r2, .L41
 692 0004 D37B     		ldrb	r3, [r2, #15]
 693 0006 591C     		add	r1, r3, #1
 694 0008 D173     		strb	r1, [r2, #15]
 695 000a 0D4C     		ldr	r4, .L41+4
 696 000c 5B00     		lsl	r3, r3, #1
 697 000e E318     		add	r3, r4, r3
 698 0010 188B     		ldrh	r0, [r3, #24]
 699 0012 FFF7FEFF 		bl	set_all_white_leds
 700              	.LVL52:
 246:..\Slider.cydsn/animation.c ****     set_led           (E_LED_LEFT_RED, sine_vec[intensity_color_index++]);
 701              		.loc 1 246 0
 702 0016 0B4D     		ldr	r5, .L41+8
 703 0018 AB78     		ldrb	r3, [r5, #2]
 704 001a 5B00     		lsl	r3, r3, #1
 705 001c E318     		add	r3, r4, r3
 706 001e 198B     		ldrh	r1, [r3, #24]
 707 0020 1520     		mov	r0, #21
 708 0022 FFF7FEFF 		bl	set_led
 709              	.LVL53:
 247:..\Slider.cydsn/animation.c ****     
ARM GAS  C:\Users\MM1005~1\AppData\Local\Temp\ccTXRdVU.s 			page 21


 710              		.loc 1 247 0
 711 0026 AB78     		ldrb	r3, [r5, #2]
 712 0028 5A1C     		add	r2, r3, #1
 713 002a AA70     		strb	r2, [r5, #2]
 714 002c 5B00     		lsl	r3, r3, #1
 715 002e E318     		add	r3, r4, r3
 716 0030 198B     		ldrh	r1, [r3, #24]
 717 0032 1520     		mov	r0, #21
 718 0034 FFF7FEFF 		bl	set_led
 719              	.LVL54:
 254:..\Slider.cydsn/animation.c **** 
 720              		.loc 1 254 0
 721              		@ sp needed
 722 0038 38BD     		pop	{r3, r4, r5, pc}
 723              	.L42:
 724 003a C046     		.align	2
 725              	.L41:
 726 003c 00000000 		.word	.LANCHOR0
 727 0040 00000000 		.word	.LANCHOR2
 728 0044 00000000 		.word	.LANCHOR1
 729              		.cfi_endproc
 730              	.LFE41:
 731              		.size	animate_red_white_intensity, .-animate_red_white_intensity
 732              		.section	.text.animate_green_white_intensity,"ax",%progbits
 733              		.align	2
 734              		.global	animate_green_white_intensity
 735              		.code	16
 736              		.thumb_func
 737              		.type	animate_green_white_intensity, %function
 738              	animate_green_white_intensity:
 739              	.LFB42:
 260:..\Slider.cydsn/animation.c ****     static uint8 intensity_white_index = PI_0_INDEX  ;
 740              		.loc 1 260 0
 741              		.cfi_startproc
 742 0000 38B5     		push	{r3, r4, r5, lr}
 743              		.cfi_def_cfa_offset 16
 744              		.cfi_offset 3, -16
 745              		.cfi_offset 4, -12
 746              		.cfi_offset 5, -8
 747              		.cfi_offset 14, -4
 264:..\Slider.cydsn/animation.c ****     set_led           (E_LED_LEFT_GREEN, sine_vec[intensity_color_index  ]);
 748              		.loc 1 264 0
 749 0002 0E4A     		ldr	r2, .L44
 750 0004 137C     		ldrb	r3, [r2, #16]
 751 0006 591C     		add	r1, r3, #1
 752 0008 1174     		strb	r1, [r2, #16]
 753 000a 0D4C     		ldr	r4, .L44+4
 754 000c 5B00     		lsl	r3, r3, #1
 755 000e E318     		add	r3, r4, r3
 756 0010 188B     		ldrh	r0, [r3, #24]
 757 0012 FFF7FEFF 		bl	set_all_white_leds
 758              	.LVL55:
 265:..\Slider.cydsn/animation.c ****     set_led           (E_LED_LEFT_GREEN, sine_vec[intensity_color_index++]);
 759              		.loc 1 265 0
 760 0016 0B4D     		ldr	r5, .L44+8
 761 0018 EB78     		ldrb	r3, [r5, #3]
 762 001a 5B00     		lsl	r3, r3, #1
ARM GAS  C:\Users\MM1005~1\AppData\Local\Temp\ccTXRdVU.s 			page 22


 763 001c E318     		add	r3, r4, r3
 764 001e 198B     		ldrh	r1, [r3, #24]
 765 0020 1620     		mov	r0, #22
 766 0022 FFF7FEFF 		bl	set_led
 767              	.LVL56:
 266:..\Slider.cydsn/animation.c ****     
 768              		.loc 1 266 0
 769 0026 EB78     		ldrb	r3, [r5, #3]
 770 0028 5A1C     		add	r2, r3, #1
 771 002a EA70     		strb	r2, [r5, #3]
 772 002c 5B00     		lsl	r3, r3, #1
 773 002e E318     		add	r3, r4, r3
 774 0030 198B     		ldrh	r1, [r3, #24]
 775 0032 1620     		mov	r0, #22
 776 0034 FFF7FEFF 		bl	set_led
 777              	.LVL57:
 272:..\Slider.cydsn/animation.c **** 
 778              		.loc 1 272 0
 779              		@ sp needed
 780 0038 38BD     		pop	{r3, r4, r5, pc}
 781              	.L45:
 782 003a C046     		.align	2
 783              	.L44:
 784 003c 00000000 		.word	.LANCHOR0
 785 0040 00000000 		.word	.LANCHOR2
 786 0044 00000000 		.word	.LANCHOR1
 787              		.cfi_endproc
 788              	.LFE42:
 789              		.size	animate_green_white_intensity, .-animate_green_white_intensity
 790              		.section	.text.animate_blue_white_intensity,"ax",%progbits
 791              		.align	2
 792              		.global	animate_blue_white_intensity
 793              		.code	16
 794              		.thumb_func
 795              		.type	animate_blue_white_intensity, %function
 796              	animate_blue_white_intensity:
 797              	.LFB43:
 278:..\Slider.cydsn/animation.c ****     static uint8 intensity_white_index = PI_0_INDEX  ;
 798              		.loc 1 278 0
 799              		.cfi_startproc
 800 0000 38B5     		push	{r3, r4, r5, lr}
 801              		.cfi_def_cfa_offset 16
 802              		.cfi_offset 3, -16
 803              		.cfi_offset 4, -12
 804              		.cfi_offset 5, -8
 805              		.cfi_offset 14, -4
 282:..\Slider.cydsn/animation.c ****     set_led           (E_LED_LEFT_BLUE, sine_vec[intensity_color_index  ]);
 806              		.loc 1 282 0
 807 0002 0E4A     		ldr	r2, .L47
 808 0004 537C     		ldrb	r3, [r2, #17]
 809 0006 591C     		add	r1, r3, #1
 810 0008 5174     		strb	r1, [r2, #17]
 811 000a 0D4C     		ldr	r4, .L47+4
 812 000c 5B00     		lsl	r3, r3, #1
 813 000e E318     		add	r3, r4, r3
 814 0010 188B     		ldrh	r0, [r3, #24]
 815 0012 FFF7FEFF 		bl	set_all_white_leds
ARM GAS  C:\Users\MM1005~1\AppData\Local\Temp\ccTXRdVU.s 			page 23


 816              	.LVL58:
 283:..\Slider.cydsn/animation.c ****     set_led           (E_LED_LEFT_BLUE, sine_vec[intensity_color_index++]);
 817              		.loc 1 283 0
 818 0016 0B4D     		ldr	r5, .L47+8
 819 0018 2B79     		ldrb	r3, [r5, #4]
 820 001a 5B00     		lsl	r3, r3, #1
 821 001c E318     		add	r3, r4, r3
 822 001e 198B     		ldrh	r1, [r3, #24]
 823 0020 1720     		mov	r0, #23
 824 0022 FFF7FEFF 		bl	set_led
 825              	.LVL59:
 284:..\Slider.cydsn/animation.c ****     
 826              		.loc 1 284 0
 827 0026 2B79     		ldrb	r3, [r5, #4]
 828 0028 5A1C     		add	r2, r3, #1
 829 002a 2A71     		strb	r2, [r5, #4]
 830 002c 5B00     		lsl	r3, r3, #1
 831 002e E318     		add	r3, r4, r3
 832 0030 198B     		ldrh	r1, [r3, #24]
 833 0032 1720     		mov	r0, #23
 834 0034 FFF7FEFF 		bl	set_led
 835              	.LVL60:
 290:..\Slider.cydsn/animation.c **** 
 836              		.loc 1 290 0
 837              		@ sp needed
 838 0038 38BD     		pop	{r3, r4, r5, pc}
 839              	.L48:
 840 003a C046     		.align	2
 841              	.L47:
 842 003c 00000000 		.word	.LANCHOR0
 843 0040 00000000 		.word	.LANCHOR2
 844 0044 00000000 		.word	.LANCHOR1
 845              		.cfi_endproc
 846              	.LFE43:
 847              		.size	animate_blue_white_intensity, .-animate_blue_white_intensity
 848              		.section	.text.animate_2_leds,"ax",%progbits
 849              		.align	2
 850              		.global	animate_2_leds
 851              		.code	16
 852              		.thumb_func
 853              		.type	animate_2_leds, %function
 854              	animate_2_leds:
 855              	.LFB48:
 424:..\Slider.cydsn/animation.c **** 
 425:..\Slider.cydsn/animation.c **** //=============================================================================
 426:..\Slider.cydsn/animation.c **** //============================================================== animate_2_leds
 427:..\Slider.cydsn/animation.c **** //=============================================================================
 428:..\Slider.cydsn/animation.c **** void animate_2_leds()
 429:..\Slider.cydsn/animation.c **** {
 856              		.loc 1 429 0
 857              		.cfi_startproc
 858 0000 38B5     		push	{r3, r4, r5, lr}
 859              		.cfi_def_cfa_offset 16
 860              		.cfi_offset 3, -16
 861              		.cfi_offset 4, -12
 862              		.cfi_offset 5, -8
 863              		.cfi_offset 14, -4
ARM GAS  C:\Users\MM1005~1\AppData\Local\Temp\ccTXRdVU.s 			page 24


 430:..\Slider.cydsn/animation.c ****     static uint16               cycle         = 0;
 431:..\Slider.cydsn/animation.c ****     static uint16               right_led     = (NUMBER_OF_WHITE_LEDS / 2);
 432:..\Slider.cydsn/animation.c ****     static uint16               left_led      = (NUMBER_OF_WHITE_LEDS / 2) - 1;
 433:..\Slider.cydsn/animation.c ****     static BOOL                 outward       = TRUE;
 434:..\Slider.cydsn/animation.c ****     static t_enum_primary_color primary_color = E_PRIMARY_COLOR_RED;
 435:..\Slider.cydsn/animation.c ****           
 436:..\Slider.cydsn/animation.c ****     cycle++;
 864              		.loc 1 436 0
 865 0002 324B     		ldr	r3, .L55
 866 0004 588A     		ldrh	r0, [r3, #18]
 867 0006 0130     		add	r0, r0, #1
 868 0008 80B2     		uxth	r0, r0
 869 000a 5882     		strh	r0, [r3, #18]
 437:..\Slider.cydsn/animation.c ****     if (cycle % 20)
 870              		.loc 1 437 0
 871 000c 1421     		mov	r1, #20
 872 000e FFF7FEFF 		bl	__aeabi_uidivmod
 873              	.LVL61:
 874 0012 89B2     		uxth	r1, r1
 875 0014 0029     		cmp	r1, #0
 876 0016 58D1     		bne	.L49
 438:..\Slider.cydsn/animation.c ****     {
 439:..\Slider.cydsn/animation.c ****         return;
 440:..\Slider.cydsn/animation.c ****     }
 441:..\Slider.cydsn/animation.c ****  
 442:..\Slider.cydsn/animation.c ****     set_all_white_leds(0x00);
 877              		.loc 1 442 0
 878 0018 0020     		mov	r0, #0
 879 001a FFF7FEFF 		bl	set_all_white_leds
 880              	.LVL62:
 443:..\Slider.cydsn/animation.c **** 
 444:..\Slider.cydsn/animation.c ****     set_led(left_led , MAX_INTENSITY);
 881              		.loc 1 444 0
 882 001e 2C4C     		ldr	r4, .L55+4
 883 0020 A079     		ldrb	r0, [r4, #6]
 884 0022 2C4D     		ldr	r5, .L55+8
 885 0024 291C     		mov	r1, r5
 886 0026 FFF7FEFF 		bl	set_led
 887              	.LVL63:
 445:..\Slider.cydsn/animation.c ****     set_led(right_led, MAX_INTENSITY);
 888              		.loc 1 445 0
 889 002a 207A     		ldrb	r0, [r4, #8]
 890 002c 291C     		mov	r1, r5
 891 002e FFF7FEFF 		bl	set_led
 892              	.LVL64:
 446:..\Slider.cydsn/animation.c ****     
 447:..\Slider.cydsn/animation.c ****     if (outward)
 893              		.loc 1 447 0
 894 0032 A37A     		ldrb	r3, [r4, #10]
 895 0034 002B     		cmp	r3, #0
 896 0036 09D0     		beq	.L51
 448:..\Slider.cydsn/animation.c ****     {
 449:..\Slider.cydsn/animation.c ****         left_led --;
 897              		.loc 1 449 0
 898 0038 254A     		ldr	r2, .L55+4
 899 003a D388     		ldrh	r3, [r2, #6]
 900 003c 013B     		sub	r3, r3, #1
ARM GAS  C:\Users\MM1005~1\AppData\Local\Temp\ccTXRdVU.s 			page 25


 901 003e 9BB2     		uxth	r3, r3
 902 0040 D380     		strh	r3, [r2, #6]
 450:..\Slider.cydsn/animation.c ****         right_led++;
 903              		.loc 1 450 0
 904 0042 1189     		ldrh	r1, [r2, #8]
 905 0044 0131     		add	r1, r1, #1
 906 0046 1181     		strh	r1, [r2, #8]
 451:..\Slider.cydsn/animation.c ****         outward = left_led; // if left_led == 0, we go inward
 907              		.loc 1 451 0
 908 0048 9372     		strb	r3, [r2, #10]
 909 004a 3EE0     		b	.L49
 910              	.L51:
 452:..\Slider.cydsn/animation.c ****     }// if we go outward
 453:..\Slider.cydsn/animation.c ****     else
 454:..\Slider.cydsn/animation.c ****     {
 455:..\Slider.cydsn/animation.c ****         left_led ++;
 911              		.loc 1 455 0
 912 004c 204A     		ldr	r2, .L55+4
 913 004e D388     		ldrh	r3, [r2, #6]
 914 0050 0133     		add	r3, r3, #1
 915 0052 D380     		strh	r3, [r2, #6]
 456:..\Slider.cydsn/animation.c ****         right_led--;
 916              		.loc 1 456 0
 917 0054 1389     		ldrh	r3, [r2, #8]
 918 0056 013B     		sub	r3, r3, #1
 919 0058 9BB2     		uxth	r3, r3
 920 005a 1381     		strh	r3, [r2, #8]
 457:..\Slider.cydsn/animation.c ****         outward = (right_led == (NUMBER_OF_WHITE_LEDS / 2));
 921              		.loc 1 457 0
 922 005c 073B     		sub	r3, r3, #7
 923 005e 5942     		neg	r1, r3
 924 0060 4B41     		adc	r3, r3, r1
 925 0062 DBB2     		uxtb	r3, r3
 926 0064 9372     		strb	r3, [r2, #10]
 458:..\Slider.cydsn/animation.c ****         if (outward)
 927              		.loc 1 458 0
 928 0066 002B     		cmp	r3, #0
 929 0068 2FD0     		beq	.L49
 459:..\Slider.cydsn/animation.c ****         {
 460:..\Slider.cydsn/animation.c ****             primary_color++;
 930              		.loc 1 460 0
 931 006a 184C     		ldr	r4, .L55
 932 006c 207D     		ldrb	r0, [r4, #20]
 933 006e 0130     		add	r0, r0, #1
 934 0070 C0B2     		uxtb	r0, r0
 461:..\Slider.cydsn/animation.c ****             primary_color %= E_PRIMARY_COLOR_NUMBER;
 935              		.loc 1 461 0
 936 0072 0321     		mov	r1, #3
 937 0074 FFF7FEFF 		bl	__aeabi_uidivmod
 938              	.LVL65:
 939 0078 2175     		strb	r1, [r4, #20]
 462:..\Slider.cydsn/animation.c ****             set_all_colored_leds(0x00);
 940              		.loc 1 462 0
 941 007a 0020     		mov	r0, #0
 942 007c FFF7FEFF 		bl	set_all_colored_leds
 943              	.LVL66:
 463:..\Slider.cydsn/animation.c ****             switch (primary_color)
ARM GAS  C:\Users\MM1005~1\AppData\Local\Temp\ccTXRdVU.s 			page 26


 944              		.loc 1 463 0
 945 0080 237D     		ldrb	r3, [r4, #20]
 946 0082 012B     		cmp	r3, #1
 947 0084 0ED0     		beq	.L52
 948 0086 002B     		cmp	r3, #0
 949 0088 02D0     		beq	.L53
 950 008a 022B     		cmp	r3, #2
 951 008c 14D0     		beq	.L54
 952 008e 1CE0     		b	.L49
 953              	.L53:
 464:..\Slider.cydsn/animation.c ****             {
 465:..\Slider.cydsn/animation.c ****                 case E_PRIMARY_COLOR_RED  : set_led(E_LED_LEFT_RED   , MAX_INTENSITY);
 954              		.loc 1 465 0
 955 0090 104C     		ldr	r4, .L55+8
 956 0092 1520     		mov	r0, #21
 957 0094 211C     		mov	r1, r4
 958 0096 FFF7FEFF 		bl	set_led
 959              	.LVL67:
 466:..\Slider.cydsn/animation.c ****                                             set_led(E_LED_RIGHT_RED  , MAX_INTENSITY);
 960              		.loc 1 466 0
 961 009a 1220     		mov	r0, #18
 962 009c 211C     		mov	r1, r4
 963 009e FFF7FEFF 		bl	set_led
 964              	.LVL68:
 467:..\Slider.cydsn/animation.c ****                                             break;
 965              		.loc 1 467 0
 966 00a2 12E0     		b	.L49
 967              	.L52:
 468:..\Slider.cydsn/animation.c ****                 case E_PRIMARY_COLOR_GREEN: set_led(E_LED_LEFT_GREEN , MAX_INTENSITY);
 968              		.loc 1 468 0
 969 00a4 0B4C     		ldr	r4, .L55+8
 970 00a6 1620     		mov	r0, #22
 971 00a8 211C     		mov	r1, r4
 972 00aa FFF7FEFF 		bl	set_led
 973              	.LVL69:
 469:..\Slider.cydsn/animation.c ****                                             set_led(E_LED_RIGHT_GREEN, MAX_INTENSITY);
 974              		.loc 1 469 0
 975 00ae 1320     		mov	r0, #19
 976 00b0 211C     		mov	r1, r4
 977 00b2 FFF7FEFF 		bl	set_led
 978              	.LVL70:
 470:..\Slider.cydsn/animation.c ****                                             break; 
 979              		.loc 1 470 0
 980 00b6 08E0     		b	.L49
 981              	.L54:
 471:..\Slider.cydsn/animation.c ****                 case E_PRIMARY_COLOR_BLUE : set_led(E_LED_LEFT_BLUE  , MAX_INTENSITY);
 982              		.loc 1 471 0
 983 00b8 064C     		ldr	r4, .L55+8
 984 00ba 1720     		mov	r0, #23
 985 00bc 211C     		mov	r1, r4
 986 00be FFF7FEFF 		bl	set_led
 987              	.LVL71:
 472:..\Slider.cydsn/animation.c ****                                             set_led(E_LED_RIGHT_BLUE , MAX_INTENSITY);
 988              		.loc 1 472 0
 989 00c2 1420     		mov	r0, #20
 990 00c4 211C     		mov	r1, r4
 991 00c6 FFF7FEFF 		bl	set_led
ARM GAS  C:\Users\MM1005~1\AppData\Local\Temp\ccTXRdVU.s 			page 27


 992              	.LVL72:
 993              	.L49:
 473:..\Slider.cydsn/animation.c ****                                             break;
 474:..\Slider.cydsn/animation.c ****                 default:                    break;
 475:..\Slider.cydsn/animation.c ****             }
 476:..\Slider.cydsn/animation.c ****         }
 477:..\Slider.cydsn/animation.c ****     }// we go inward
 478:..\Slider.cydsn/animation.c **** }// animate_2_leds
 994              		.loc 1 478 0
 995              		@ sp needed
 996 00ca 38BD     		pop	{r3, r4, r5, pc}
 997              	.L56:
 998              		.align	2
 999              	.L55:
 1000 00cc 00000000 		.word	.LANCHOR0
 1001 00d0 00000000 		.word	.LANCHOR1
 1002 00d4 FF0F0000 		.word	4095
 1003              		.cfi_endproc
 1004              	.LFE48:
 1005              		.size	animate_2_leds, .-animate_2_leds
 1006              		.section	.text.animate_fix_led_14,"ax",%progbits
 1007              		.align	2
 1008              		.global	animate_fix_led_14
 1009              		.code	16
 1010              		.thumb_func
 1011              		.type	animate_fix_led_14, %function
 1012              	animate_fix_led_14:
 1013              	.LFB37:
 182:..\Slider.cydsn/animation.c ****     set_led(14, MAX_INTENSITY);
 1014              		.loc 1 182 0
 1015              		.cfi_startproc
 1016 0000 08B5     		push	{r3, lr}
 1017              		.cfi_def_cfa_offset 8
 1018              		.cfi_offset 3, -8
 1019              		.cfi_offset 14, -4
 183:..\Slider.cydsn/animation.c **** }// animate_fix_led_0
 1020              		.loc 1 183 0
 1021 0002 0E20     		mov	r0, #14
 1022 0004 0149     		ldr	r1, .L58
 1023 0006 FFF7FEFF 		bl	set_led
 1024              	.LVL73:
 184:..\Slider.cydsn/animation.c **** 
 1025              		.loc 1 184 0
 1026              		@ sp needed
 1027 000a 08BD     		pop	{r3, pc}
 1028              	.L59:
 1029              		.align	2
 1030              	.L58:
 1031 000c FF0F0000 		.word	4095
 1032              		.cfi_endproc
 1033              	.LFE37:
 1034              		.size	animate_fix_led_14, .-animate_fix_led_14
 1035              		.section	.text.animate_color_intensity,"ax",%progbits
 1036              		.align	2
 1037              		.global	animate_color_intensity
 1038              		.code	16
 1039              		.thumb_func
ARM GAS  C:\Users\MM1005~1\AppData\Local\Temp\ccTXRdVU.s 			page 28


 1040              		.type	animate_color_intensity, %function
 1041              	animate_color_intensity:
 1042              	.LFB44:
 296:..\Slider.cydsn/animation.c ****     static uint16 intensity    = 0   ;
 1043              		.loc 1 296 0
 1044              		.cfi_startproc
 1045              	.LVL74:
 1046 0000 10B5     		push	{r4, lr}
 1047              		.cfi_def_cfa_offset 8
 1048              		.cfi_offset 4, -8
 1049              		.cfi_offset 14, -4
 1050              	.LVL75:
 301:..\Slider.cydsn/animation.c ****     {
 1051              		.loc 1 301 0
 1052 0002 0128     		cmp	r0, #1
 1053 0004 0ED0     		beq	.L62
 1054 0006 0028     		cmp	r0, #0
 1055 0008 02D0     		beq	.L63
 1056 000a 0228     		cmp	r0, #2
 1057 000c 14D0     		beq	.L64
 1058 000e 1CE0     		b	.L61
 1059              	.L63:
 303:..\Slider.cydsn/animation.c ****                                     set_led(E_LED_RIGHT_RED  , intensity);
 1060              		.loc 1 303 0
 1061 0010 1B4C     		ldr	r4, .L67
 1062 0012 E18A     		ldrh	r1, [r4, #22]
 1063 0014 1520     		mov	r0, #21
 1064              	.LVL76:
 1065 0016 FFF7FEFF 		bl	set_led
 1066              	.LVL77:
 304:..\Slider.cydsn/animation.c ****                                     break;
 1067              		.loc 1 304 0
 1068 001a E18A     		ldrh	r1, [r4, #22]
 1069 001c 1220     		mov	r0, #18
 1070 001e FFF7FEFF 		bl	set_led
 1071              	.LVL78:
 305:..\Slider.cydsn/animation.c ****         case E_PRIMARY_COLOR_GREEN: set_led(E_LED_LEFT_GREEN , intensity);
 1072              		.loc 1 305 0
 1073 0022 12E0     		b	.L61
 1074              	.LVL79:
 1075              	.L62:
 306:..\Slider.cydsn/animation.c ****                                     set_led(E_LED_RIGHT_GREEN, intensity);
 1076              		.loc 1 306 0
 1077 0024 164C     		ldr	r4, .L67
 1078 0026 E18A     		ldrh	r1, [r4, #22]
 1079 0028 1620     		mov	r0, #22
 1080              	.LVL80:
 1081 002a FFF7FEFF 		bl	set_led
 1082              	.LVL81:
 307:..\Slider.cydsn/animation.c ****                                     break;
 1083              		.loc 1 307 0
 1084 002e E18A     		ldrh	r1, [r4, #22]
 1085 0030 1320     		mov	r0, #19
 1086 0032 FFF7FEFF 		bl	set_led
 1087              	.LVL82:
 308:..\Slider.cydsn/animation.c ****         case E_PRIMARY_COLOR_BLUE : set_led(E_LED_LEFT_BLUE  , intensity);
 1088              		.loc 1 308 0
ARM GAS  C:\Users\MM1005~1\AppData\Local\Temp\ccTXRdVU.s 			page 29


 1089 0036 08E0     		b	.L61
 1090              	.LVL83:
 1091              	.L64:
 309:..\Slider.cydsn/animation.c ****                                     set_led(E_LED_RIGHT_BLUE , intensity);
 1092              		.loc 1 309 0
 1093 0038 114C     		ldr	r4, .L67
 1094 003a E18A     		ldrh	r1, [r4, #22]
 1095 003c 1720     		mov	r0, #23
 1096              	.LVL84:
 1097 003e FFF7FEFF 		bl	set_led
 1098              	.LVL85:
 310:..\Slider.cydsn/animation.c ****                                     break;
 1099              		.loc 1 310 0
 1100 0042 E18A     		ldrh	r1, [r4, #22]
 1101 0044 1420     		mov	r0, #20
 1102 0046 FFF7FEFF 		bl	set_led
 1103              	.LVL86:
 1104              	.L61:
 315:..\Slider.cydsn/animation.c ****     {
 1105              		.loc 1 315 0
 1106 004a 0E4B     		ldr	r3, .L67+4
 1107 004c DB7A     		ldrb	r3, [r3, #11]
 1108 004e 002B     		cmp	r3, #0
 1109 0050 0BD0     		beq	.L65
 317:..\Slider.cydsn/animation.c ****         if (intensity >= MAX_COLOR)
 1110              		.loc 1 317 0
 1111 0052 0B4A     		ldr	r2, .L67
 1112 0054 D38A     		ldrh	r3, [r2, #22]
 1113 0056 0133     		add	r3, r3, #1
 1114 0058 9BB2     		uxth	r3, r3
 1115 005a D382     		strh	r3, [r2, #22]
 318:..\Slider.cydsn/animation.c ****         {
 1116              		.loc 1 318 0
 1117 005c 0A4A     		ldr	r2, .L67+8
 1118 005e 9342     		cmp	r3, r2
 1119 0060 0DD9     		bls	.L60
 320:..\Slider.cydsn/animation.c ****         }
 1120              		.loc 1 320 0
 1121 0062 0022     		mov	r2, #0
 1122 0064 074B     		ldr	r3, .L67+4
 1123 0066 DA72     		strb	r2, [r3, #11]
 1124 0068 09E0     		b	.L60
 1125              	.L65:
 325:..\Slider.cydsn/animation.c ****         if (intensity == 0)
 1126              		.loc 1 325 0
 1127 006a 054A     		ldr	r2, .L67
 1128 006c D38A     		ldrh	r3, [r2, #22]
 1129 006e 013B     		sub	r3, r3, #1
 1130 0070 9BB2     		uxth	r3, r3
 1131 0072 D382     		strh	r3, [r2, #22]
 326:..\Slider.cydsn/animation.c ****         {
 1132              		.loc 1 326 0
 1133 0074 002B     		cmp	r3, #0
 1134 0076 02D1     		bne	.L60
 328:..\Slider.cydsn/animation.c ****         }
 1135              		.loc 1 328 0
 1136 0078 0122     		mov	r2, #1
ARM GAS  C:\Users\MM1005~1\AppData\Local\Temp\ccTXRdVU.s 			page 30


 1137 007a 024B     		ldr	r3, .L67+4
 1138 007c DA72     		strb	r2, [r3, #11]
 1139              	.L60:
 331:..\Slider.cydsn/animation.c **** 
 1140              		.loc 1 331 0
 1141              		@ sp needed
 1142 007e 10BD     		pop	{r4, pc}
 1143              	.L68:
 1144              		.align	2
 1145              	.L67:
 1146 0080 00000000 		.word	.LANCHOR0
 1147 0084 00000000 		.word	.LANCHOR1
 1148 0088 FE0F0000 		.word	4094
 1149              		.cfi_endproc
 1150              	.LFE44:
 1151              		.size	animate_color_intensity, .-animate_color_intensity
 1152              		.section	.text.animate_button_smooth,"ax",%progbits
 1153              		.align	2
 1154              		.global	animate_button_smooth
 1155              		.code	16
 1156              		.thumb_func
 1157              		.type	animate_button_smooth, %function
 1158              	animate_button_smooth:
 1159              	.LFB49:
 479:..\Slider.cydsn/animation.c **** 
 480:..\Slider.cydsn/animation.c **** void animate_button_smooth(uint16 breather_skip_cycle)
 481:..\Slider.cydsn/animation.c **** {
 1160              		.loc 1 481 0
 1161              		.cfi_startproc
 1162              	.LVL87:
 1163 0000 38B5     		push	{r3, r4, r5, lr}
 1164              		.cfi_def_cfa_offset 16
 1165              		.cfi_offset 3, -16
 1166              		.cfi_offset 4, -12
 1167              		.cfi_offset 5, -8
 1168              		.cfi_offset 14, -4
 1169 0002 011C     		mov	r1, r0
 1170              	.LVL88:
 482:..\Slider.cydsn/animation.c ****     static uint16 led_up      = TRUE;
 483:..\Slider.cydsn/animation.c ****     static uint16 left_led    = 1  ;
 484:..\Slider.cydsn/animation.c ****     static uint16 right_led   = 2   ;
 485:..\Slider.cydsn/animation.c ****     static uint8  left_index  = PI_0_INDEX  ;
 486:..\Slider.cydsn/animation.c ****     static uint8  right_index = PI_180_INDEX;
 487:..\Slider.cydsn/animation.c ****     static uint16 cycle       = 0;
 488:..\Slider.cydsn/animation.c ****            uint16 tmp         = 0;
 489:..\Slider.cydsn/animation.c ****     
 490:..\Slider.cydsn/animation.c ****     cycle++;
 1171              		.loc 1 490 0
 1172 0004 284B     		ldr	r3, .L76
 1173 0006 188B     		ldrh	r0, [r3, #24]
 1174              	.LVL89:
 1175 0008 0130     		add	r0, r0, #1
 1176 000a 80B2     		uxth	r0, r0
 1177 000c 1883     		strh	r0, [r3, #24]
 491:..\Slider.cydsn/animation.c ****     
 492:..\Slider.cydsn/animation.c ****  #if 1   
 493:..\Slider.cydsn/animation.c ****     if ((breather_skip_cycle) && (cycle % breather_skip_cycle))
ARM GAS  C:\Users\MM1005~1\AppData\Local\Temp\ccTXRdVU.s 			page 31


 1178              		.loc 1 493 0
 1179 000e 0029     		cmp	r1, #0
 1180 0010 04D0     		beq	.L70
 1181              		.loc 1 493 0 is_stmt 0 discriminator 1
 1182 0012 FFF7FEFF 		bl	__aeabi_uidivmod
 1183              	.LVL90:
 1184 0016 89B2     		uxth	r1, r1
 1185 0018 0029     		cmp	r1, #0
 1186 001a 43D1     		bne	.L69
 1187              	.L70:
 494:..\Slider.cydsn/animation.c ****     {
 495:..\Slider.cydsn/animation.c ****         return;    
 496:..\Slider.cydsn/animation.c ****     }
 497:..\Slider.cydsn/animation.c ****  #endif   
 498:..\Slider.cydsn/animation.c ****     
 499:..\Slider.cydsn/animation.c **** #if USE_128_POINTS_FOR_BREATHING
 500:..\Slider.cydsn/animation.c ****     left_index  %= SINE_VEC_SIZE;
 501:..\Slider.cydsn/animation.c ****     right_index %= SINE_VEC_SIZE;
 502:..\Slider.cydsn/animation.c **** #endif // at 256 points, the index value (uint8) will rotate by them self
 503:..\Slider.cydsn/animation.c **** 
 504:..\Slider.cydsn/animation.c **** #if 1
 505:..\Slider.cydsn/animation.c ****     if (led_up)
 1188              		.loc 1 505 0 is_stmt 1
 1189 001c 234B     		ldr	r3, .L76+4
 1190 001e 9B89     		ldrh	r3, [r3, #12]
 1191 0020 002B     		cmp	r3, #0
 1192 0022 17D0     		beq	.L72
 506:..\Slider.cydsn/animation.c ****     {
 507:..\Slider.cydsn/animation.c ****         if (left_index == PI_270_INDEX) // left to right breathing cycle completed
 1193              		.loc 1 507 0
 1194 0024 204B     		ldr	r3, .L76
 1195 0026 9B7E     		ldrb	r3, [r3, #26]
 1196 0028 C02B     		cmp	r3, #192
 1197 002a 29D1     		bne	.L73
 508:..\Slider.cydsn/animation.c ****         {
 509:..\Slider.cydsn/animation.c ****             if (right_led >= NUMBER_OF_WHITE_LEDS - 1)
 1198              		.loc 1 509 0
 1199 002c 1F4A     		ldr	r2, .L76+4
 1200 002e D289     		ldrh	r2, [r2, #14]
 1201 0030 0D2A     		cmp	r2, #13
 1202 0032 03D9     		bls	.L74
 510:..\Slider.cydsn/animation.c ****             {
 511:..\Slider.cydsn/animation.c ****                 led_up = FALSE; 
 1203              		.loc 1 511 0
 1204 0034 0022     		mov	r2, #0
 1205 0036 1D4B     		ldr	r3, .L76+4
 1206 0038 9A81     		strh	r2, [r3, #12]
 1207 003a 21E0     		b	.L73
 1208              	.L74:
 512:..\Slider.cydsn/animation.c ****             }
 513:..\Slider.cydsn/animation.c ****             else
 514:..\Slider.cydsn/animation.c ****             {
 515:..\Slider.cydsn/animation.c ****                 left_led++;
 1209              		.loc 1 515 0
 1210 003c 1B49     		ldr	r1, .L76+4
 1211 003e 0A8A     		ldrh	r2, [r1, #16]
 1212 0040 0132     		add	r2, r2, #1
ARM GAS  C:\Users\MM1005~1\AppData\Local\Temp\ccTXRdVU.s 			page 32


 1213 0042 92B2     		uxth	r2, r2
 1214 0044 0A82     		strh	r2, [r1, #16]
 516:..\Slider.cydsn/animation.c ****                 right_led   = left_led + 1;
 1215              		.loc 1 516 0
 1216 0046 0132     		add	r2, r2, #1
 1217 0048 CA81     		strh	r2, [r1, #14]
 1218              	.LVL91:
 517:..\Slider.cydsn/animation.c ****                 tmp         = left_index;
 518:..\Slider.cydsn/animation.c ****                 left_index  = right_index;
 1219              		.loc 1 518 0
 1220 004a 887C     		ldrb	r0, [r1, #18]
 1221 004c 164A     		ldr	r2, .L76
 1222 004e 9076     		strb	r0, [r2, #26]
 519:..\Slider.cydsn/animation.c ****                 right_index = tmp;
 1223              		.loc 1 519 0
 1224 0050 8B74     		strb	r3, [r1, #18]
 1225 0052 15E0     		b	.L73
 1226              	.LVL92:
 1227              	.L72:
 520:..\Slider.cydsn/animation.c ****             }
 521:..\Slider.cydsn/animation.c ****         }// If the left led is at 0 intensity
 522:..\Slider.cydsn/animation.c ****     }// led up, left to right
 523:..\Slider.cydsn/animation.c ****     else
 524:..\Slider.cydsn/animation.c ****     {
 525:..\Slider.cydsn/animation.c ****         if (right_index == PI_270_INDEX) // right to left breathing cycle completed
 1228              		.loc 1 525 0
 1229 0054 154B     		ldr	r3, .L76+4
 1230 0056 9B7C     		ldrb	r3, [r3, #18]
 1231 0058 C02B     		cmp	r3, #192
 1232 005a 11D1     		bne	.L73
 526:..\Slider.cydsn/animation.c ****         {
 527:..\Slider.cydsn/animation.c ****             if (left_led == 1)
 1233              		.loc 1 527 0
 1234 005c 134A     		ldr	r2, .L76+4
 1235 005e 128A     		ldrh	r2, [r2, #16]
 1236 0060 012A     		cmp	r2, #1
 1237 0062 02D1     		bne	.L75
 528:..\Slider.cydsn/animation.c ****             {
 529:..\Slider.cydsn/animation.c ****                 led_up = TRUE;
 1238              		.loc 1 529 0
 1239 0064 114B     		ldr	r3, .L76+4
 1240 0066 9A81     		strh	r2, [r3, #12]
 1241 0068 0AE0     		b	.L73
 1242              	.L75:
 530:..\Slider.cydsn/animation.c ****             }
 531:..\Slider.cydsn/animation.c ****             else
 532:..\Slider.cydsn/animation.c ****             {
 533:..\Slider.cydsn/animation.c ****                 right_led--;    
 1243              		.loc 1 533 0
 1244 006a 1049     		ldr	r1, .L76+4
 1245 006c CA89     		ldrh	r2, [r1, #14]
 1246 006e 013A     		sub	r2, r2, #1
 1247 0070 92B2     		uxth	r2, r2
 1248 0072 CA81     		strh	r2, [r1, #14]
 534:..\Slider.cydsn/animation.c ****                 left_led    = right_led - 1;
 1249              		.loc 1 534 0
 1250 0074 013A     		sub	r2, r2, #1
ARM GAS  C:\Users\MM1005~1\AppData\Local\Temp\ccTXRdVU.s 			page 33


 1251 0076 0A82     		strh	r2, [r1, #16]
 535:..\Slider.cydsn/animation.c ****                 tmp         = left_index;
 1252              		.loc 1 535 0
 1253 0078 0B4A     		ldr	r2, .L76
 1254 007a 907E     		ldrb	r0, [r2, #26]
 1255              	.LVL93:
 536:..\Slider.cydsn/animation.c ****                 left_index  = right_index;
 1256              		.loc 1 536 0
 1257 007c 9376     		strb	r3, [r2, #26]
 537:..\Slider.cydsn/animation.c ****                 right_index = tmp;
 1258              		.loc 1 537 0
 1259 007e 8874     		strb	r0, [r1, #18]
 1260              	.LVL94:
 1261              	.L73:
 538:..\Slider.cydsn/animation.c ****             }  
 539:..\Slider.cydsn/animation.c ****         }// If the right led is at 0 intensity
 540:..\Slider.cydsn/animation.c ****     }// else, led down, right to left
 541:..\Slider.cydsn/animation.c **** #endif
 542:..\Slider.cydsn/animation.c **** 
 543:..\Slider.cydsn/animation.c ****     set_led_pair(left_led, sine_vec[left_index++], sine_vec[right_index++]); 
 1262              		.loc 1 543 0
 1263 0080 0A4C     		ldr	r4, .L76+4
 1264 0082 207C     		ldrb	r0, [r4, #16]
 1265 0084 084B     		ldr	r3, .L76
 1266 0086 9A7E     		ldrb	r2, [r3, #26]
 1267 0088 511C     		add	r1, r2, #1
 1268 008a 9976     		strb	r1, [r3, #26]
 1269 008c 084D     		ldr	r5, .L76+8
 1270 008e 5200     		lsl	r2, r2, #1
 1271 0090 AA18     		add	r2, r5, r2
 1272 0092 118B     		ldrh	r1, [r2, #24]
 1273 0094 A37C     		ldrb	r3, [r4, #18]
 1274 0096 5A1C     		add	r2, r3, #1
 1275 0098 A274     		strb	r2, [r4, #18]
 1276 009a 5B00     		lsl	r3, r3, #1
 1277 009c EB18     		add	r3, r5, r3
 1278 009e 1A8B     		ldrh	r2, [r3, #24]
 1279 00a0 FFF7FEFF 		bl	set_led_pair
 1280              	.LVL95:
 1281              	.L69:
 544:..\Slider.cydsn/animation.c **** }// animate_button_smooth
 1282              		.loc 1 544 0
 1283              		@ sp needed
 1284 00a4 38BD     		pop	{r3, r4, r5, pc}
 1285              	.L77:
 1286 00a6 C046     		.align	2
 1287              	.L76:
 1288 00a8 00000000 		.word	.LANCHOR0
 1289 00ac 00000000 		.word	.LANCHOR1
 1290 00b0 00000000 		.word	.LANCHOR2
 1291              		.cfi_endproc
 1292              	.LFE49:
 1293              		.size	animate_button_smooth, .-animate_button_smooth
 1294              		.section	.text.animate_button_smooth_slow,"ax",%progbits
 1295              		.align	2
 1296              		.global	animate_button_smooth_slow
 1297              		.code	16
ARM GAS  C:\Users\MM1005~1\AppData\Local\Temp\ccTXRdVU.s 			page 34


 1298              		.thumb_func
 1299              		.type	animate_button_smooth_slow, %function
 1300              	animate_button_smooth_slow:
 1301              	.LFB50:
 545:..\Slider.cydsn/animation.c **** 
 546:..\Slider.cydsn/animation.c **** //=============================================================================
 547:..\Slider.cydsn/animation.c **** //================================================== animate_button_smooth_slow
 548:..\Slider.cydsn/animation.c **** //=============================================================================
 549:..\Slider.cydsn/animation.c **** void animate_button_smooth_slow(void)
 550:..\Slider.cydsn/animation.c **** {
 1302              		.loc 1 550 0
 1303              		.cfi_startproc
 1304 0000 08B5     		push	{r3, lr}
 1305              		.cfi_def_cfa_offset 8
 1306              		.cfi_offset 3, -8
 1307              		.cfi_offset 14, -4
 551:..\Slider.cydsn/animation.c ****     animate_button_smooth(vec_call_back_anim[ANIM_BUTTON_SMOOTH_SLOW].high_speed ? 0x10 : 0x04);
 1308              		.loc 1 551 0
 1309 0002 054B     		ldr	r3, .L81
 1310 0004 5B7D     		ldrb	r3, [r3, #21]
 1311 0006 002B     		cmp	r3, #0
 1312 0008 01D0     		beq	.L80
 1313 000a 1020     		mov	r0, #16
 1314 000c 00E0     		b	.L79
 1315              	.L80:
 1316 000e 0420     		mov	r0, #4
 1317              	.L79:
 1318              		.loc 1 551 0 is_stmt 0 discriminator 4
 1319 0010 FFF7FEFF 		bl	animate_button_smooth
 1320              	.LVL96:
 552:..\Slider.cydsn/animation.c **** }// animate_button_smooth_slow
 1321              		.loc 1 552 0 is_stmt 1 discriminator 4
 1322              		@ sp needed
 1323 0014 08BD     		pop	{r3, pc}
 1324              	.L82:
 1325 0016 C046     		.align	2
 1326              	.L81:
 1327 0018 00000000 		.word	.LANCHOR1
 1328              		.cfi_endproc
 1329              	.LFE50:
 1330              		.size	animate_button_smooth_slow, .-animate_button_smooth_slow
 1331              		.section	.text.animate_button_smooth_fast,"ax",%progbits
 1332              		.align	2
 1333              		.global	animate_button_smooth_fast
 1334              		.code	16
 1335              		.thumb_func
 1336              		.type	animate_button_smooth_fast, %function
 1337              	animate_button_smooth_fast:
 1338              	.LFB51:
 553:..\Slider.cydsn/animation.c **** 
 554:..\Slider.cydsn/animation.c **** //=============================================================================
 555:..\Slider.cydsn/animation.c **** //================================================== animate_button_smooth_fast
 556:..\Slider.cydsn/animation.c **** //=============================================================================
 557:..\Slider.cydsn/animation.c **** void animate_button_smooth_fast(void)
 558:..\Slider.cydsn/animation.c **** {
 1339              		.loc 1 558 0
 1340              		.cfi_startproc
ARM GAS  C:\Users\MM1005~1\AppData\Local\Temp\ccTXRdVU.s 			page 35


 1341 0000 08B5     		push	{r3, lr}
 1342              		.cfi_def_cfa_offset 8
 1343              		.cfi_offset 3, -8
 1344              		.cfi_offset 14, -4
 559:..\Slider.cydsn/animation.c ****     animate_button_smooth(vec_call_back_anim[ANIM_BUTTON_SMOOTH_FAST].high_speed ? 0x02 : 0x00);
 1345              		.loc 1 559 0
 1346 0002 2123     		mov	r3, #33
 1347 0004 044A     		ldr	r2, .L86
 1348 0006 D35C     		ldrb	r3, [r2, r3]
 1349 0008 002B     		cmp	r3, #0
 1350 000a 01D0     		beq	.L85
 1351 000c 0220     		mov	r0, #2
 1352 000e 00E0     		b	.L84
 1353              	.L85:
 1354 0010 0020     		mov	r0, #0
 1355              	.L84:
 1356              		.loc 1 559 0 is_stmt 0 discriminator 4
 1357 0012 FFF7FEFF 		bl	animate_button_smooth
 1358              	.LVL97:
 560:..\Slider.cydsn/animation.c **** }// animate_button_smooth_fast
 1359              		.loc 1 560 0 is_stmt 1 discriminator 4
 1360              		@ sp needed
 1361 0016 08BD     		pop	{r3, pc}
 1362              	.L87:
 1363              		.align	2
 1364              	.L86:
 1365 0018 00000000 		.word	.LANCHOR1
 1366              		.cfi_endproc
 1367              	.LFE51:
 1368              		.size	animate_button_smooth_fast, .-animate_button_smooth_fast
 1369              		.section	.text.get_animation,"ax",%progbits
 1370              		.align	2
 1371              		.global	get_animation
 1372              		.code	16
 1373              		.thumb_func
 1374              		.type	get_animation, %function
 1375              	get_animation:
 1376              	.LFB52:
 561:..\Slider.cydsn/animation.c **** 
 562:..\Slider.cydsn/animation.c **** //=============================================================================
 563:..\Slider.cydsn/animation.c **** //=============================================================== get_animation
 564:..\Slider.cydsn/animation.c **** //=============================================================================
 565:..\Slider.cydsn/animation.c **** void get_animation (t_enum_animation anim_id, t_struct_animation* p_animation)
 566:..\Slider.cydsn/animation.c **** {
 1377              		.loc 1 566 0
 1378              		.cfi_startproc
 1379              	.LVL98:
 1380 0000 70B5     		push	{r4, r5, r6, lr}
 1381              		.cfi_def_cfa_offset 16
 1382              		.cfi_offset 4, -16
 1383              		.cfi_offset 5, -12
 1384              		.cfi_offset 6, -8
 1385              		.cfi_offset 14, -4
 567:..\Slider.cydsn/animation.c ****     p_animation->id          = vec_call_back_anim[anim_id].id;
 1386              		.loc 1 567 0
 1387 0002 0A4A     		ldr	r2, .L89
 1388 0004 4400     		lsl	r4, r0, #1
ARM GAS  C:\Users\MM1005~1\AppData\Local\Temp\ccTXRdVU.s 			page 36


 1389 0006 2318     		add	r3, r4, r0
 1390 0008 9B00     		lsl	r3, r3, #2
 1391 000a D318     		add	r3, r2, r3
 1392 000c 1D1C     		mov	r5, r3
 1393 000e 1E7D     		ldrb	r6, [r3, #20]
 1394 0010 0E70     		strb	r6, [r1]
 568:..\Slider.cydsn/animation.c ****     p_animation->high_speed  = vec_call_back_anim[anim_id].high_speed;
 1395              		.loc 1 568 0
 1396 0012 5E7D     		ldrb	r6, [r3, #21]
 567:..\Slider.cydsn/animation.c ****     p_animation->id          = vec_call_back_anim[anim_id].id;
 1397              		.loc 1 567 0
 1398 0014 1435     		add	r5, r5, #20
 1399              		.loc 1 568 0
 1400 0016 4E70     		strb	r6, [r1, #1]
 569:..\Slider.cydsn/animation.c ****     p_animation->started     = vec_call_back_anim[anim_id].started;
 1401              		.loc 1 569 0
 1402 0018 AD78     		ldrb	r5, [r5, #2]
 1403 001a 8D70     		strb	r5, [r1, #2]
 570:..\Slider.cydsn/animation.c ****     p_animation->description = vec_call_back_anim[anim_id].description;
 1404              		.loc 1 570 0
 1405 001c DB69     		ldr	r3, [r3, #28]
 1406 001e 8B60     		str	r3, [r1, #8]
 571:..\Slider.cydsn/animation.c ****     p_animation->callback    = vec_call_back_anim[anim_id].callback;
 1407              		.loc 1 571 0
 1408 0020 2018     		add	r0, r4, r0
 1409              	.LVL99:
 1410 0022 8000     		lsl	r0, r0, #2
 1411 0024 1018     		add	r0, r2, r0
 1412 0026 8369     		ldr	r3, [r0, #24]
 1413 0028 4B60     		str	r3, [r1, #4]
 572:..\Slider.cydsn/animation.c **** }// get_animation
 1414              		.loc 1 572 0
 1415              		@ sp needed
 1416 002a 70BD     		pop	{r4, r5, r6, pc}
 1417              	.L90:
 1418              		.align	2
 1419              	.L89:
 1420 002c 00000000 		.word	.LANCHOR1
 1421              		.cfi_endproc
 1422              	.LFE52:
 1423              		.size	get_animation, .-get_animation
 1424              		.section	.text.get_is_auto_anim_rotation_enable,"ax",%progbits
 1425              		.align	2
 1426              		.global	get_is_auto_anim_rotation_enable
 1427              		.code	16
 1428              		.thumb_func
 1429              		.type	get_is_auto_anim_rotation_enable, %function
 1430              	get_is_auto_anim_rotation_enable:
 1431              	.LFB53:
 573:..\Slider.cydsn/animation.c **** 
 574:..\Slider.cydsn/animation.c **** //=============================================================================
 575:..\Slider.cydsn/animation.c **** //============================================ get_is_auto_anim_rotation_enable
 576:..\Slider.cydsn/animation.c **** //=============================================================================
 577:..\Slider.cydsn/animation.c **** BOOL get_is_auto_anim_rotation_enable()
 578:..\Slider.cydsn/animation.c **** {
 1432              		.loc 1 578 0
 1433              		.cfi_startproc
ARM GAS  C:\Users\MM1005~1\AppData\Local\Temp\ccTXRdVU.s 			page 37


 579:..\Slider.cydsn/animation.c ****     return is_auto_anim_rotation_enable;
 1434              		.loc 1 579 0
 1435 0000 014B     		ldr	r3, .L92
 1436 0002 D87E     		ldrb	r0, [r3, #27]
 580:..\Slider.cydsn/animation.c **** }// get_is_auto_anim_rotation_enable
 1437              		.loc 1 580 0
 1438              		@ sp needed
 1439 0004 7047     		bx	lr
 1440              	.L93:
 1441 0006 C046     		.align	2
 1442              	.L92:
 1443 0008 00000000 		.word	.LANCHOR0
 1444              		.cfi_endproc
 1445              	.LFE53:
 1446              		.size	get_is_auto_anim_rotation_enable, .-get_is_auto_anim_rotation_enable
 1447              		.section	.text.set_is_auto_anim_rotation_enable,"ax",%progbits
 1448              		.align	2
 1449              		.global	set_is_auto_anim_rotation_enable
 1450              		.code	16
 1451              		.thumb_func
 1452              		.type	set_is_auto_anim_rotation_enable, %function
 1453              	set_is_auto_anim_rotation_enable:
 1454              	.LFB54:
 581:..\Slider.cydsn/animation.c **** 
 582:..\Slider.cydsn/animation.c **** //=============================================================================
 583:..\Slider.cydsn/animation.c **** //============================================ set_is_auto_anim_rotation_enable
 584:..\Slider.cydsn/animation.c **** //=============================================================================
 585:..\Slider.cydsn/animation.c **** void set_is_auto_anim_rotation_enable(BOOL the_is_auto_anim_rotation_enable)
 586:..\Slider.cydsn/animation.c **** {
 1455              		.loc 1 586 0
 1456              		.cfi_startproc
 1457              	.LVL100:
 587:..\Slider.cydsn/animation.c ****     is_auto_anim_rotation_enable = the_is_auto_anim_rotation_enable;
 1458              		.loc 1 587 0
 1459 0000 014B     		ldr	r3, .L95
 1460 0002 D876     		strb	r0, [r3, #27]
 588:..\Slider.cydsn/animation.c **** }// set_is_auto_anim_rotation_enable
 1461              		.loc 1 588 0
 1462              		@ sp needed
 1463 0004 7047     		bx	lr
 1464              	.L96:
 1465 0006 C046     		.align	2
 1466              	.L95:
 1467 0008 00000000 		.word	.LANCHOR0
 1468              		.cfi_endproc
 1469              	.LFE54:
 1470              		.size	set_is_auto_anim_rotation_enable, .-set_is_auto_anim_rotation_enable
 1471              		.section	.text.get_is_anim_on_button_up_enable,"ax",%progbits
 1472              		.align	2
 1473              		.global	get_is_anim_on_button_up_enable
 1474              		.code	16
 1475              		.thumb_func
 1476              		.type	get_is_anim_on_button_up_enable, %function
 1477              	get_is_anim_on_button_up_enable:
 1478              	.LFB55:
 589:..\Slider.cydsn/animation.c **** 
 590:..\Slider.cydsn/animation.c **** //=============================================================================
ARM GAS  C:\Users\MM1005~1\AppData\Local\Temp\ccTXRdVU.s 			page 38


 591:..\Slider.cydsn/animation.c **** //============================================= get_is_anim_on_button_up_enable
 592:..\Slider.cydsn/animation.c **** //=============================================================================
 593:..\Slider.cydsn/animation.c **** BOOL get_is_anim_on_button_up_enable()
 594:..\Slider.cydsn/animation.c **** {
 1479              		.loc 1 594 0
 1480              		.cfi_startproc
 595:..\Slider.cydsn/animation.c ****     return is_anim_on_button_up_enable;
 1481              		.loc 1 595 0
 1482 0000 014B     		ldr	r3, .L98
 1483 0002 187F     		ldrb	r0, [r3, #28]
 596:..\Slider.cydsn/animation.c **** }// get_is_anim_on_button_up_enable
 1484              		.loc 1 596 0
 1485              		@ sp needed
 1486 0004 7047     		bx	lr
 1487              	.L99:
 1488 0006 C046     		.align	2
 1489              	.L98:
 1490 0008 00000000 		.word	.LANCHOR0
 1491              		.cfi_endproc
 1492              	.LFE55:
 1493              		.size	get_is_anim_on_button_up_enable, .-get_is_anim_on_button_up_enable
 1494              		.section	.text.set_is_anim_on_button_up_enable,"ax",%progbits
 1495              		.align	2
 1496              		.global	set_is_anim_on_button_up_enable
 1497              		.code	16
 1498              		.thumb_func
 1499              		.type	set_is_anim_on_button_up_enable, %function
 1500              	set_is_anim_on_button_up_enable:
 1501              	.LFB56:
 597:..\Slider.cydsn/animation.c **** 
 598:..\Slider.cydsn/animation.c **** //=============================================================================
 599:..\Slider.cydsn/animation.c **** //============================================= set_is_anim_on_button_up_enable
 600:..\Slider.cydsn/animation.c **** //=============================================================================
 601:..\Slider.cydsn/animation.c **** void set_is_anim_on_button_up_enable(BOOL the_is_anim_on_button_up_enable)
 602:..\Slider.cydsn/animation.c **** {
 1502              		.loc 1 602 0
 1503              		.cfi_startproc
 1504              	.LVL101:
 1505 0000 10B5     		push	{r4, lr}
 1506              		.cfi_def_cfa_offset 8
 1507              		.cfi_offset 4, -8
 1508              		.cfi_offset 14, -4
 1509 0002 041C     		mov	r4, r0
 603:..\Slider.cydsn/animation.c ****     if (current_callback_anim < ANIM_UNKNOWN)
 1510              		.loc 1 603 0
 1511 0004 0A4B     		ldr	r3, .L104
 1512 0006 587F     		ldrb	r0, [r3, #29]
 1513              	.LVL102:
 1514 0008 0D28     		cmp	r0, #13
 1515 000a 0ED8     		bhi	.L101
 604:..\Slider.cydsn/animation.c ****     {
 605:..\Slider.cydsn/animation.c ****         send_animation_telemetry(current_callback_anim, the_is_anim_on_button_up_enable ? "starting
 1516              		.loc 1 605 0
 1517 000c 002C     		cmp	r4, #0
 1518 000e 01D0     		beq	.L103
 1519 0010 0849     		ldr	r1, .L104+4
 1520 0012 00E0     		b	.L102
ARM GAS  C:\Users\MM1005~1\AppData\Local\Temp\ccTXRdVU.s 			page 39


 1521              	.L103:
 1522 0014 0849     		ldr	r1, .L104+8
 1523              	.L102:
 1524              		.loc 1 605 0 is_stmt 0 discriminator 4
 1525 0016 FFF7FEFF 		bl	send_animation_telemetry
 1526              	.LVL103:
 606:..\Slider.cydsn/animation.c ****         vec_call_back_anim[current_callback_anim].started = the_is_anim_on_button_up_enable;
 1527              		.loc 1 606 0 is_stmt 1 discriminator 4
 1528 001a 054B     		ldr	r3, .L104
 1529 001c 5B7F     		ldrb	r3, [r3, #29]
 1530 001e 5A00     		lsl	r2, r3, #1
 1531 0020 D318     		add	r3, r2, r3
 1532 0022 9B00     		lsl	r3, r3, #2
 1533 0024 054A     		ldr	r2, .L104+12
 1534 0026 D318     		add	r3, r2, r3
 1535 0028 9C75     		strb	r4, [r3, #22]
 1536              	.L101:
 607:..\Slider.cydsn/animation.c ****     }
 608:..\Slider.cydsn/animation.c ****     
 609:..\Slider.cydsn/animation.c ****     is_anim_on_button_up_enable = the_is_anim_on_button_up_enable;
 1537              		.loc 1 609 0
 1538 002a 014B     		ldr	r3, .L104
 1539 002c 1C77     		strb	r4, [r3, #28]
 610:..\Slider.cydsn/animation.c **** }// set_is_anim_on_button_up_enable
 1540              		.loc 1 610 0
 1541              		@ sp needed
 1542 002e 10BD     		pop	{r4, pc}
 1543              	.L105:
 1544              		.align	2
 1545              	.L104:
 1546 0030 00000000 		.word	.LANCHOR0
 1547 0034 00000000 		.word	.LC30
 1548 0038 0C000000 		.word	.LC32
 1549 003c 00000000 		.word	.LANCHOR1
 1550              		.cfi_endproc
 1551              	.LFE56:
 1552              		.size	set_is_anim_on_button_up_enable, .-set_is_anim_on_button_up_enable
 1553              		.section	.text.get_current_callback_anim,"ax",%progbits
 1554              		.align	2
 1555              		.global	get_current_callback_anim
 1556              		.code	16
 1557              		.thumb_func
 1558              		.type	get_current_callback_anim, %function
 1559              	get_current_callback_anim:
 1560              	.LFB57:
 611:..\Slider.cydsn/animation.c **** 
 612:..\Slider.cydsn/animation.c **** //=============================================================================
 613:..\Slider.cydsn/animation.c **** //=================================================== get_current_callback_anim
 614:..\Slider.cydsn/animation.c **** //=============================================================================
 615:..\Slider.cydsn/animation.c **** t_enum_animation get_current_callback_anim()
 616:..\Slider.cydsn/animation.c **** {
 1561              		.loc 1 616 0
 1562              		.cfi_startproc
 617:..\Slider.cydsn/animation.c ****     return current_callback_anim;
 1563              		.loc 1 617 0
 1564 0000 014B     		ldr	r3, .L107
 1565 0002 587F     		ldrb	r0, [r3, #29]
ARM GAS  C:\Users\MM1005~1\AppData\Local\Temp\ccTXRdVU.s 			page 40


 618:..\Slider.cydsn/animation.c **** }// get_current_callback_anim
 1566              		.loc 1 618 0
 1567              		@ sp needed
 1568 0004 7047     		bx	lr
 1569              	.L108:
 1570 0006 C046     		.align	2
 1571              	.L107:
 1572 0008 00000000 		.word	.LANCHOR0
 1573              		.cfi_endproc
 1574              	.LFE57:
 1575              		.size	get_current_callback_anim, .-get_current_callback_anim
 1576              		.section	.text.is_smooth_button_anim_on,"ax",%progbits
 1577              		.align	2
 1578              		.global	is_smooth_button_anim_on
 1579              		.code	16
 1580              		.thumb_func
 1581              		.type	is_smooth_button_anim_on, %function
 1582              	is_smooth_button_anim_on:
 1583              	.LFB58:
 619:..\Slider.cydsn/animation.c **** 
 620:..\Slider.cydsn/animation.c **** //=============================================================================
 621:..\Slider.cydsn/animation.c **** //==================================================== is_smooth_button_anim_on
 622:..\Slider.cydsn/animation.c **** //=============================================================================
 623:..\Slider.cydsn/animation.c **** BOOL is_smooth_button_anim_on()
 624:..\Slider.cydsn/animation.c **** {
 1584              		.loc 1 624 0
 1585              		.cfi_startproc
 625:..\Slider.cydsn/animation.c ****     return ((current_callback_anim == ANIM_BUTTON_SMOOTH_SLOW) || (current_callback_anim == ANIM_BU
 1586              		.loc 1 625 0
 1587 0000 034B     		ldr	r3, .L110
 1588 0002 5B7F     		ldrb	r3, [r3, #29]
 1589 0004 0020     		mov	r0, #0
 1590 0006 0122     		mov	r2, #1
 1591 0008 9A42     		cmp	r2, r3
 1592 000a 4041     		adc	r0, r0, r0
 1593 000c C0B2     		uxtb	r0, r0
 626:..\Slider.cydsn/animation.c **** }// get_current_callback_anim
 1594              		.loc 1 626 0
 1595              		@ sp needed
 1596 000e 7047     		bx	lr
 1597              	.L111:
 1598              		.align	2
 1599              	.L110:
 1600 0010 00000000 		.word	.LANCHOR0
 1601              		.cfi_endproc
 1602              	.LFE58:
 1603              		.size	is_smooth_button_anim_on, .-is_smooth_button_anim_on
 1604              		.section	.text.set_current_callback_anim,"ax",%progbits
 1605              		.align	2
 1606              		.global	set_current_callback_anim
 1607              		.code	16
 1608              		.thumb_func
 1609              		.type	set_current_callback_anim, %function
 1610              	set_current_callback_anim:
 1611              	.LFB59:
 627:..\Slider.cydsn/animation.c **** 
 628:..\Slider.cydsn/animation.c **** //=============================================================================
ARM GAS  C:\Users\MM1005~1\AppData\Local\Temp\ccTXRdVU.s 			page 41


 629:..\Slider.cydsn/animation.c **** //=================================================== set_current_callback_anim
 630:..\Slider.cydsn/animation.c **** //=============================================================================
 631:..\Slider.cydsn/animation.c **** void set_current_callback_anim(t_enum_animation the_current_callback_anim)
 632:..\Slider.cydsn/animation.c **** {
 1612              		.loc 1 632 0
 1613              		.cfi_startproc
 1614              	.LVL104:
 1615 0000 10B5     		push	{r4, lr}
 1616              		.cfi_def_cfa_offset 8
 1617              		.cfi_offset 4, -8
 1618              		.cfi_offset 14, -4
 1619 0002 041E     		sub	r4, r0, #0
 633:..\Slider.cydsn/animation.c ****     if (the_current_callback_anim >= ANIM_UNKNOWN)
 1620              		.loc 1 633 0
 1621 0004 0D2C     		cmp	r4, #13
 1622 0006 05D9     		bls	.L113
 634:..\Slider.cydsn/animation.c ****     {
 635:..\Slider.cydsn/animation.c ****         send_alarm_telemetry(ALARM_ERROR, "firmware", "invalid animation id");
 1623              		.loc 1 635 0
 1624 0008 0320     		mov	r0, #3
 1625              	.LVL105:
 1626 000a 0F49     		ldr	r1, .L116
 1627 000c 0F4A     		ldr	r2, .L116+4
 1628 000e FFF7FEFF 		bl	send_alarm_telemetry
 1629              	.LVL106:
 636:..\Slider.cydsn/animation.c ****         return;
 1630              		.loc 1 636 0
 1631 0012 17E0     		b	.L112
 1632              	.LVL107:
 1633              	.L113:
 637:..\Slider.cydsn/animation.c ****     }
 638:..\Slider.cydsn/animation.c ****     
 639:..\Slider.cydsn/animation.c ****     if (vec_call_back_anim[the_current_callback_anim].started)
 1634              		.loc 1 639 0
 1635 0014 4300     		lsl	r3, r0, #1
 1636 0016 1B18     		add	r3, r3, r0
 1637 0018 9B00     		lsl	r3, r3, #2
 1638 001a 0D4A     		ldr	r2, .L116+8
 1639 001c D318     		add	r3, r2, r3
 1640 001e 9B7D     		ldrb	r3, [r3, #22]
 1641 0020 002B     		cmp	r3, #0
 1642 0022 09D0     		beq	.L115
 640:..\Slider.cydsn/animation.c ****     {
 641:..\Slider.cydsn/animation.c ****         send_animation_telemetry(the_current_callback_anim, "stopping");
 1643              		.loc 1 641 0
 1644 0024 0B49     		ldr	r1, .L116+12
 1645 0026 FFF7FEFF 		bl	send_animation_telemetry
 1646              	.LVL108:
 642:..\Slider.cydsn/animation.c ****         vec_call_back_anim[the_current_callback_anim].started = FALSE;
 1647              		.loc 1 642 0
 1648 002a 6300     		lsl	r3, r4, #1
 1649 002c 1B19     		add	r3, r3, r4
 1650 002e 9B00     		lsl	r3, r3, #2
 1651 0030 074A     		ldr	r2, .L116+8
 1652 0032 D318     		add	r3, r2, r3
 1653 0034 0022     		mov	r2, #0
 1654 0036 9A75     		strb	r2, [r3, #22]
ARM GAS  C:\Users\MM1005~1\AppData\Local\Temp\ccTXRdVU.s 			page 42


 1655              	.L115:
 643:..\Slider.cydsn/animation.c ****     }
 644:..\Slider.cydsn/animation.c ****     
 645:..\Slider.cydsn/animation.c ****     current_callback_anim = the_current_callback_anim;
 1656              		.loc 1 645 0
 1657 0038 074B     		ldr	r3, .L116+16
 1658 003a 5C77     		strb	r4, [r3, #29]
 646:..\Slider.cydsn/animation.c ****     send_animation_telemetry(current_callback_anim, "selected");
 1659              		.loc 1 646 0
 1660 003c 201C     		mov	r0, r4
 1661 003e 0749     		ldr	r1, .L116+20
 1662 0040 FFF7FEFF 		bl	send_animation_telemetry
 1663              	.LVL109:
 1664              	.L112:
 647:..\Slider.cydsn/animation.c **** }// set_current_callback_anim
 1665              		.loc 1 647 0
 1666              		@ sp needed
 1667 0044 10BD     		pop	{r4, pc}
 1668              	.L117:
 1669 0046 C046     		.align	2
 1670              	.L116:
 1671 0048 18000000 		.word	.LC38
 1672 004c 24000000 		.word	.LC40
 1673 0050 00000000 		.word	.LANCHOR1
 1674 0054 0C000000 		.word	.LC32
 1675 0058 00000000 		.word	.LANCHOR0
 1676 005c 3C000000 		.word	.LC45
 1677              		.cfi_endproc
 1678              	.LFE59:
 1679              		.size	set_current_callback_anim, .-set_current_callback_anim
 1680              		.section	.text.run_current_animation,"ax",%progbits
 1681              		.align	2
 1682              		.global	run_current_animation
 1683              		.code	16
 1684              		.thumb_func
 1685              		.type	run_current_animation, %function
 1686              	run_current_animation:
 1687              	.LFB60:
 648:..\Slider.cydsn/animation.c **** 
 649:..\Slider.cydsn/animation.c **** //=============================================================================
 650:..\Slider.cydsn/animation.c **** //======================================================= run_current_animation
 651:..\Slider.cydsn/animation.c **** //=============================================================================
 652:..\Slider.cydsn/animation.c **** void run_current_animation(BOOL high_speed)
 653:..\Slider.cydsn/animation.c **** {
 1688              		.loc 1 653 0
 1689              		.cfi_startproc
 1690              	.LVL110:
 1691 0000 08B5     		push	{r3, lr}
 1692              		.cfi_def_cfa_offset 8
 1693              		.cfi_offset 3, -8
 1694              		.cfi_offset 14, -4
 654:..\Slider.cydsn/animation.c ****     if ((current_callback_anim >= ANIM_UNKNOWN) || (vec_call_back_anim[current_callback_anim].high_
 1695              		.loc 1 654 0
 1696 0002 154B     		ldr	r3, .L121
 1697 0004 5A7F     		ldrb	r2, [r3, #29]
 1698 0006 0D2A     		cmp	r2, #13
 1699 0008 24D8     		bhi	.L118
ARM GAS  C:\Users\MM1005~1\AppData\Local\Temp\ccTXRdVU.s 			page 43


 1700              		.loc 1 654 0 is_stmt 0 discriminator 1
 1701 000a 5300     		lsl	r3, r2, #1
 1702 000c 9B18     		add	r3, r3, r2
 1703 000e 9B00     		lsl	r3, r3, #2
 1704 0010 1249     		ldr	r1, .L121+4
 1705 0012 CB18     		add	r3, r1, r3
 1706 0014 5B7D     		ldrb	r3, [r3, #21]
 1707 0016 8342     		cmp	r3, r0
 1708 0018 1CD1     		bne	.L118
 655:..\Slider.cydsn/animation.c ****     {
 656:..\Slider.cydsn/animation.c ****         return;
 657:..\Slider.cydsn/animation.c ****     }
 658:..\Slider.cydsn/animation.c ****     
 659:..\Slider.cydsn/animation.c ****     if (! vec_call_back_anim[current_callback_anim].started)
 1709              		.loc 1 659 0 is_stmt 1
 1710 001a 5300     		lsl	r3, r2, #1
 1711 001c 9B18     		add	r3, r3, r2
 1712 001e 9B00     		lsl	r3, r3, #2
 1713 0020 CB18     		add	r3, r1, r3
 1714 0022 9B7D     		ldrb	r3, [r3, #22]
 1715 0024 002B     		cmp	r3, #0
 1716 0026 0CD1     		bne	.L120
 660:..\Slider.cydsn/animation.c ****     {
 661:..\Slider.cydsn/animation.c ****         send_animation_telemetry(current_callback_anim, "started");
 1717              		.loc 1 661 0
 1718 0028 101C     		mov	r0, r2
 1719              	.LVL111:
 1720 002a 0D49     		ldr	r1, .L121+8
 1721 002c FFF7FEFF 		bl	send_animation_telemetry
 1722              	.LVL112:
 662:..\Slider.cydsn/animation.c ****         vec_call_back_anim[current_callback_anim].started = TRUE;
 1723              		.loc 1 662 0
 1724 0030 094B     		ldr	r3, .L121
 1725 0032 5B7F     		ldrb	r3, [r3, #29]
 1726 0034 5A00     		lsl	r2, r3, #1
 1727 0036 D318     		add	r3, r2, r3
 1728 0038 9B00     		lsl	r3, r3, #2
 1729 003a 084A     		ldr	r2, .L121+4
 1730 003c D318     		add	r3, r2, r3
 1731 003e 0122     		mov	r2, #1
 1732 0040 9A75     		strb	r2, [r3, #22]
 1733              	.L120:
 663:..\Slider.cydsn/animation.c ****     }
 664:..\Slider.cydsn/animation.c ****     
 665:..\Slider.cydsn/animation.c ****     vec_call_back_anim[current_callback_anim].callback();
 1734              		.loc 1 665 0
 1735 0042 054B     		ldr	r3, .L121
 1736 0044 5B7F     		ldrb	r3, [r3, #29]
 1737 0046 5A00     		lsl	r2, r3, #1
 1738 0048 D318     		add	r3, r2, r3
 1739 004a 9B00     		lsl	r3, r3, #2
 1740 004c 034A     		ldr	r2, .L121+4
 1741 004e D318     		add	r3, r2, r3
 1742 0050 9B69     		ldr	r3, [r3, #24]
 1743 0052 9847     		blx	r3
 1744              	.LVL113:
 1745              	.L118:
ARM GAS  C:\Users\MM1005~1\AppData\Local\Temp\ccTXRdVU.s 			page 44


 666:..\Slider.cydsn/animation.c **** }// run_current_animation
 1746              		.loc 1 666 0
 1747              		@ sp needed
 1748 0054 08BD     		pop	{r3, pc}
 1749              	.L122:
 1750 0056 C046     		.align	2
 1751              	.L121:
 1752 0058 00000000 		.word	.LANCHOR0
 1753 005c 00000000 		.word	.LANCHOR1
 1754 0060 48000000 		.word	.LC49
 1755              		.cfi_endproc
 1756              	.LFE60:
 1757              		.size	run_current_animation, .-run_current_animation
 1758              		.section	.rodata
 1759              		.align	2
 1760              		.set	.LANCHOR2,. + 0
 1761              		.type	vec_rainbow.6719, %object
 1762              		.size	vec_rainbow.6719, 24
 1763              	vec_rainbow.6719:
 1764 0000 94       		.byte	-108
 1765 0001 00       		.byte	0
 1766 0002 D3       		.byte	-45
 1767 0003 4B       		.byte	75
 1768 0004 00       		.byte	0
 1769 0005 82       		.byte	-126
 1770 0006 00       		.byte	0
 1771 0007 00       		.byte	0
 1772 0008 FF       		.byte	-1
 1773 0009 00       		.byte	0
 1774 000a FF       		.byte	-1
 1775 000b 00       		.byte	0
 1776 000c FF       		.byte	-1
 1777 000d FF       		.byte	-1
 1778 000e 00       		.byte	0
 1779 000f FF       		.byte	-1
 1780 0010 7F       		.byte	127
 1781 0011 00       		.byte	0
 1782 0012 FF       		.byte	-1
 1783 0013 00       		.byte	0
 1784 0014 00       		.byte	0
 1785 0015 00       		.byte	0
 1786 0016 00       		.byte	0
 1787 0017 00       		.byte	0
 1788              		.type	sine_vec, %object
 1789              		.size	sine_vec, 512
 1790              	sine_vec:
 1791 0018 0008     		.short	2048
 1792 001a 3208     		.short	2098
 1793 001c 6408     		.short	2148
 1794 001e 9608     		.short	2198
 1795 0020 C808     		.short	2248
 1796 0022 FA08     		.short	2298
 1797 0024 2C09     		.short	2348
 1798 0026 5E09     		.short	2398
 1799 0028 8F09     		.short	2447
 1800 002a C009     		.short	2496
 1801 002c F109     		.short	2545
ARM GAS  C:\Users\MM1005~1\AppData\Local\Temp\ccTXRdVU.s 			page 45


 1802 002e 220A     		.short	2594
 1803 0030 520A     		.short	2642
 1804 0032 820A     		.short	2690
 1805 0034 B10A     		.short	2737
 1806 0036 E00A     		.short	2784
 1807 0038 0F0B     		.short	2831
 1808 003a 3D0B     		.short	2877
 1809 003c 6B0B     		.short	2923
 1810 003e 980B     		.short	2968
 1811 0040 C50B     		.short	3013
 1812 0042 F10B     		.short	3057
 1813 0044 1C0C     		.short	3100
 1814 0046 470C     		.short	3143
 1815 0048 710C     		.short	3185
 1816 004a 9A0C     		.short	3226
 1817 004c C30C     		.short	3267
 1818 004e EB0C     		.short	3307
 1819 0050 120D     		.short	3346
 1820 0052 390D     		.short	3385
 1821 0054 5F0D     		.short	3423
 1822 0056 830D     		.short	3459
 1823 0058 A70D     		.short	3495
 1824 005a CA0D     		.short	3530
 1825 005c ED0D     		.short	3565
 1826 005e 0E0E     		.short	3598
 1827 0060 2E0E     		.short	3630
 1828 0062 4E0E     		.short	3662
 1829 0064 6C0E     		.short	3692
 1830 0066 8A0E     		.short	3722
 1831 0068 A60E     		.short	3750
 1832 006a C10E     		.short	3777
 1833 006c DC0E     		.short	3804
 1834 006e F50E     		.short	3829
 1835 0070 0D0F     		.short	3853
 1836 0072 240F     		.short	3876
 1837 0074 3A0F     		.short	3898
 1838 0076 4F0F     		.short	3919
 1839 0078 630F     		.short	3939
 1840 007a 760F     		.short	3958
 1841 007c 870F     		.short	3975
 1842 007e 980F     		.short	3992
 1843 0080 A70F     		.short	4007
 1844 0082 B50F     		.short	4021
 1845 0084 C20F     		.short	4034
 1846 0086 CD0F     		.short	4045
 1847 0088 D80F     		.short	4056
 1848 008a E10F     		.short	4065
 1849 008c E90F     		.short	4073
 1850 008e F00F     		.short	4080
 1851 0090 F50F     		.short	4085
 1852 0092 F90F     		.short	4089
 1853 0094 FD0F     		.short	4093
 1854 0096 FE0F     		.short	4094
 1855 0098 FF0F     		.short	4095
 1856 009a FE0F     		.short	4094
 1857 009c FD0F     		.short	4093
 1858 009e F90F     		.short	4089
ARM GAS  C:\Users\MM1005~1\AppData\Local\Temp\ccTXRdVU.s 			page 46


 1859 00a0 F50F     		.short	4085
 1860 00a2 F00F     		.short	4080
 1861 00a4 E90F     		.short	4073
 1862 00a6 E10F     		.short	4065
 1863 00a8 D80F     		.short	4056
 1864 00aa CD0F     		.short	4045
 1865 00ac C20F     		.short	4034
 1866 00ae B50F     		.short	4021
 1867 00b0 A70F     		.short	4007
 1868 00b2 980F     		.short	3992
 1869 00b4 870F     		.short	3975
 1870 00b6 760F     		.short	3958
 1871 00b8 630F     		.short	3939
 1872 00ba 4F0F     		.short	3919
 1873 00bc 3A0F     		.short	3898
 1874 00be 240F     		.short	3876
 1875 00c0 0D0F     		.short	3853
 1876 00c2 F50E     		.short	3829
 1877 00c4 DC0E     		.short	3804
 1878 00c6 C10E     		.short	3777
 1879 00c8 A60E     		.short	3750
 1880 00ca 8A0E     		.short	3722
 1881 00cc 6C0E     		.short	3692
 1882 00ce 4E0E     		.short	3662
 1883 00d0 2E0E     		.short	3630
 1884 00d2 0E0E     		.short	3598
 1885 00d4 ED0D     		.short	3565
 1886 00d6 CA0D     		.short	3530
 1887 00d8 A70D     		.short	3495
 1888 00da 830D     		.short	3459
 1889 00dc 5F0D     		.short	3423
 1890 00de 390D     		.short	3385
 1891 00e0 120D     		.short	3346
 1892 00e2 EB0C     		.short	3307
 1893 00e4 C30C     		.short	3267
 1894 00e6 9A0C     		.short	3226
 1895 00e8 710C     		.short	3185
 1896 00ea 470C     		.short	3143
 1897 00ec 1C0C     		.short	3100
 1898 00ee F10B     		.short	3057
 1899 00f0 C50B     		.short	3013
 1900 00f2 980B     		.short	2968
 1901 00f4 6B0B     		.short	2923
 1902 00f6 3D0B     		.short	2877
 1903 00f8 0F0B     		.short	2831
 1904 00fa E00A     		.short	2784
 1905 00fc B10A     		.short	2737
 1906 00fe 820A     		.short	2690
 1907 0100 520A     		.short	2642
 1908 0102 220A     		.short	2594
 1909 0104 F109     		.short	2545
 1910 0106 C009     		.short	2496
 1911 0108 8F09     		.short	2447
 1912 010a 5E09     		.short	2398
 1913 010c 2C09     		.short	2348
 1914 010e FA08     		.short	2298
 1915 0110 C808     		.short	2248
ARM GAS  C:\Users\MM1005~1\AppData\Local\Temp\ccTXRdVU.s 			page 47


 1916 0112 9608     		.short	2198
 1917 0114 6408     		.short	2148
 1918 0116 3208     		.short	2098
 1919 0118 0008     		.short	2048
 1920 011a CD07     		.short	1997
 1921 011c 9B07     		.short	1947
 1922 011e 6907     		.short	1897
 1923 0120 3707     		.short	1847
 1924 0122 0507     		.short	1797
 1925 0124 D306     		.short	1747
 1926 0126 A106     		.short	1697
 1927 0128 7006     		.short	1648
 1928 012a 3F06     		.short	1599
 1929 012c 0E06     		.short	1550
 1930 012e DD05     		.short	1501
 1931 0130 AD05     		.short	1453
 1932 0132 7D05     		.short	1405
 1933 0134 4E05     		.short	1358
 1934 0136 1F05     		.short	1311
 1935 0138 F004     		.short	1264
 1936 013a C204     		.short	1218
 1937 013c 9404     		.short	1172
 1938 013e 6704     		.short	1127
 1939 0140 3A04     		.short	1082
 1940 0142 0E04     		.short	1038
 1941 0144 E303     		.short	995
 1942 0146 B803     		.short	952
 1943 0148 8E03     		.short	910
 1944 014a 6503     		.short	869
 1945 014c 3C03     		.short	828
 1946 014e 1403     		.short	788
 1947 0150 ED02     		.short	749
 1948 0152 C602     		.short	710
 1949 0154 A002     		.short	672
 1950 0156 7C02     		.short	636
 1951 0158 5802     		.short	600
 1952 015a 3502     		.short	565
 1953 015c 1202     		.short	530
 1954 015e F101     		.short	497
 1955 0160 D101     		.short	465
 1956 0162 B101     		.short	433
 1957 0164 9301     		.short	403
 1958 0166 7501     		.short	373
 1959 0168 5901     		.short	345
 1960 016a 3E01     		.short	318
 1961 016c 2301     		.short	291
 1962 016e 0A01     		.short	266
 1963 0170 F200     		.short	242
 1964 0172 DB00     		.short	219
 1965 0174 C500     		.short	197
 1966 0176 B000     		.short	176
 1967 0178 9C00     		.short	156
 1968 017a 8900     		.short	137
 1969 017c 7800     		.short	120
 1970 017e 6700     		.short	103
 1971 0180 5800     		.short	88
 1972 0182 4A00     		.short	74
ARM GAS  C:\Users\MM1005~1\AppData\Local\Temp\ccTXRdVU.s 			page 48


 1973 0184 3D00     		.short	61
 1974 0186 3200     		.short	50
 1975 0188 2700     		.short	39
 1976 018a 1E00     		.short	30
 1977 018c 1600     		.short	22
 1978 018e 0F00     		.short	15
 1979 0190 0A00     		.short	10
 1980 0192 0600     		.short	6
 1981 0194 0200     		.short	2
 1982 0196 0100     		.short	1
 1983 0198 0000     		.short	0
 1984 019a 0100     		.short	1
 1985 019c 0200     		.short	2
 1986 019e 0600     		.short	6
 1987 01a0 0A00     		.short	10
 1988 01a2 0F00     		.short	15
 1989 01a4 1600     		.short	22
 1990 01a6 1E00     		.short	30
 1991 01a8 2700     		.short	39
 1992 01aa 3200     		.short	50
 1993 01ac 3D00     		.short	61
 1994 01ae 4A00     		.short	74
 1995 01b0 5800     		.short	88
 1996 01b2 6700     		.short	103
 1997 01b4 7800     		.short	120
 1998 01b6 8900     		.short	137
 1999 01b8 9C00     		.short	156
 2000 01ba B000     		.short	176
 2001 01bc C500     		.short	197
 2002 01be DB00     		.short	219
 2003 01c0 F200     		.short	242
 2004 01c2 0A01     		.short	266
 2005 01c4 2301     		.short	291
 2006 01c6 3E01     		.short	318
 2007 01c8 5901     		.short	345
 2008 01ca 7501     		.short	373
 2009 01cc 9301     		.short	403
 2010 01ce B101     		.short	433
 2011 01d0 D101     		.short	465
 2012 01d2 F101     		.short	497
 2013 01d4 1202     		.short	530
 2014 01d6 3502     		.short	565
 2015 01d8 5802     		.short	600
 2016 01da 7C02     		.short	636
 2017 01dc A002     		.short	672
 2018 01de C602     		.short	710
 2019 01e0 ED02     		.short	749
 2020 01e2 1403     		.short	788
 2021 01e4 3C03     		.short	828
 2022 01e6 6503     		.short	869
 2023 01e8 8E03     		.short	910
 2024 01ea B803     		.short	952
 2025 01ec E303     		.short	995
 2026 01ee 0E04     		.short	1038
 2027 01f0 3A04     		.short	1082
 2028 01f2 6704     		.short	1127
 2029 01f4 9404     		.short	1172
ARM GAS  C:\Users\MM1005~1\AppData\Local\Temp\ccTXRdVU.s 			page 49


 2030 01f6 C204     		.short	1218
 2031 01f8 F004     		.short	1264
 2032 01fa 1F05     		.short	1311
 2033 01fc 4E05     		.short	1358
 2034 01fe 7D05     		.short	1405
 2035 0200 AD05     		.short	1453
 2036 0202 DD05     		.short	1501
 2037 0204 0E06     		.short	1550
 2038 0206 3F06     		.short	1599
 2039 0208 7006     		.short	1648
 2040 020a A106     		.short	1697
 2041 020c D306     		.short	1747
 2042 020e 0507     		.short	1797
 2043 0210 3707     		.short	1847
 2044 0212 6907     		.short	1897
 2045 0214 9B07     		.short	1947
 2046 0216 CD07     		.short	1997
 2047              		.data
 2048              		.align	2
 2049              		.set	.LANCHOR1,. + 0
 2050              		.type	intensity_up.6670, %object
 2051              		.size	intensity_up.6670, 1
 2052              	intensity_up.6670:
 2053 0000 01       		.byte	1
 2054              		.type	intensity_right_index.6727, %object
 2055              		.size	intensity_right_index.6727, 1
 2056              	intensity_right_index.6727:
 2057 0001 80       		.byte	-128
 2058              		.type	intensity_color_index.6693, %object
 2059              		.size	intensity_color_index.6693, 1
 2060              	intensity_color_index.6693:
 2061 0002 80       		.byte	-128
 2062              		.type	intensity_color_index.6698, %object
 2063              		.size	intensity_color_index.6698, 1
 2064              	intensity_color_index.6698:
 2065 0003 80       		.byte	-128
 2066              		.type	intensity_color_index.6703, %object
 2067              		.size	intensity_color_index.6703, 1
 2068              	intensity_color_index.6703:
 2069 0004 80       		.byte	-128
 2070 0005 00       		.space	1
 2071              		.type	left_led.6740, %object
 2072              		.size	left_led.6740, 2
 2073              	left_led.6740:
 2074 0006 0600     		.short	6
 2075              		.type	right_led.6739, %object
 2076              		.size	right_led.6739, 2
 2077              	right_led.6739:
 2078 0008 0700     		.short	7
 2079              		.type	outward.6741, %object
 2080              		.size	outward.6741, 1
 2081              	outward.6741:
 2082 000a 01       		.byte	1
 2083              		.type	intensity_up.6708, %object
 2084              		.size	intensity_up.6708, 1
 2085              	intensity_up.6708:
 2086 000b 01       		.byte	1
ARM GAS  C:\Users\MM1005~1\AppData\Local\Temp\ccTXRdVU.s 			page 50


 2087              		.type	led_up.6751, %object
 2088              		.size	led_up.6751, 2
 2089              	led_up.6751:
 2090 000c 0100     		.short	1
 2091              		.type	right_led.6753, %object
 2092              		.size	right_led.6753, 2
 2093              	right_led.6753:
 2094 000e 0200     		.short	2
 2095              		.type	left_led.6752, %object
 2096              		.size	left_led.6752, 2
 2097              	left_led.6752:
 2098 0010 0100     		.short	1
 2099              		.type	right_index.6755, %object
 2100              		.size	right_index.6755, 1
 2101              	right_index.6755:
 2102 0012 80       		.byte	-128
 2103 0013 00       		.space	1
 2104              		.type	vec_call_back_anim, %object
 2105              		.size	vec_call_back_anim, 168
 2106              	vec_call_back_anim:
 2107 0014 00       		.byte	0
 2108 0015 01       		.byte	1
 2109 0016 00       		.byte	0
 2110 0017 00       		.space	1
 2111 0018 00000000 		.word	animate_button_smooth_slow
 2112 001c 50000000 		.word	.LC51
 2113 0020 01       		.byte	1
 2114 0021 01       		.byte	1
 2115 0022 00       		.byte	0
 2116 0023 00       		.space	1
 2117 0024 00000000 		.word	animate_button_smooth_fast
 2118 0028 60000000 		.word	.LC52
 2119 002c 02       		.byte	2
 2120 002d 00       		.byte	0
 2121 002e 00       		.byte	0
 2122 002f 00       		.space	1
 2123 0030 00000000 		.word	animate_left_right
 2124 0034 70000000 		.word	.LC53
 2125 0038 03       		.byte	3
 2126 0039 00       		.byte	0
 2127 003a 00       		.byte	0
 2128 003b 00       		.space	1
 2129 003c 00000000 		.word	animate_intensity
 2130 0040 7C000000 		.word	.LC54
 2131 0044 04       		.byte	4
 2132 0045 00       		.byte	0
 2133 0046 00       		.byte	0
 2134 0047 00       		.space	1
 2135 0048 00000000 		.word	animate_2_leds
 2136 004c 8C000000 		.word	.LC55
 2137 0050 05       		.byte	5
 2138 0051 00       		.byte	0
 2139 0052 00       		.byte	0
 2140 0053 00       		.space	1
 2141 0054 00000000 		.word	animate_red_intensity
 2142 0058 94000000 		.word	.LC56
 2143 005c 06       		.byte	6
ARM GAS  C:\Users\MM1005~1\AppData\Local\Temp\ccTXRdVU.s 			page 51


 2144 005d 00       		.byte	0
 2145 005e 00       		.byte	0
 2146 005f 00       		.space	1
 2147 0060 00000000 		.word	animate_green_intensity
 2148 0064 A4000000 		.word	.LC57
 2149 0068 07       		.byte	7
 2150 0069 00       		.byte	0
 2151 006a 00       		.byte	0
 2152 006b 00       		.space	1
 2153 006c 00000000 		.word	animate_blue_intensity
 2154 0070 B4000000 		.word	.LC58
 2155 0074 08       		.byte	8
 2156 0075 00       		.byte	0
 2157 0076 00       		.byte	0
 2158 0077 00       		.space	1
 2159 0078 00000000 		.word	animate_red_white_intensity
 2160 007c C4000000 		.word	.LC59
 2161 0080 09       		.byte	9
 2162 0081 00       		.byte	0
 2163 0082 00       		.byte	0
 2164 0083 00       		.space	1
 2165 0084 00000000 		.word	animate_green_white_intensity
 2166 0088 D8000000 		.word	.LC60
 2167 008c 0A       		.byte	10
 2168 008d 00       		.byte	0
 2169 008e 00       		.byte	0
 2170 008f 00       		.space	1
 2171 0090 00000000 		.word	animate_blue_white_intensity
 2172 0094 F0000000 		.word	.LC61
 2173 0098 0B       		.byte	11
 2174 0099 00       		.byte	0
 2175 009a 00       		.byte	0
 2176 009b 00       		.space	1
 2177 009c 00000000 		.word	animate_all_colors
 2178 00a0 08010000 		.word	.LC62
 2179 00a4 0C       		.byte	12
 2180 00a5 00       		.byte	0
 2181 00a6 00       		.byte	0
 2182 00a7 00       		.space	1
 2183 00a8 00000000 		.word	animate_rainbow_colors
 2184 00ac 14010000 		.word	.LC63
 2185 00b0 0D       		.byte	13
 2186 00b1 00       		.byte	0
 2187 00b2 00       		.byte	0
 2188 00b3 00       		.space	1
 2189 00b4 00000000 		.word	animate_fix_white
 2190 00b8 24010000 		.word	.LC64
 2191              		.section	.rodata.str1.4,"aMS",%progbits,1
 2192              		.align	2
 2193              	.LC30:
 2194 0000 73746172 		.ascii	"starting\000"
 2194      74696E67 
 2194      00
 2195 0009 000000   		.space	3
 2196              	.LC32:
 2197 000c 73746F70 		.ascii	"stopping\000"
 2197      70696E67 
ARM GAS  C:\Users\MM1005~1\AppData\Local\Temp\ccTXRdVU.s 			page 52


 2197      00
 2198 0015 000000   		.space	3
 2199              	.LC38:
 2200 0018 6669726D 		.ascii	"firmware\000"
 2200      77617265 
 2200      00
 2201 0021 000000   		.space	3
 2202              	.LC40:
 2203 0024 696E7661 		.ascii	"invalid animation id\000"
 2203      6C696420 
 2203      616E696D 
 2203      6174696F 
 2203      6E206964 
 2204 0039 000000   		.space	3
 2205              	.LC45:
 2206 003c 73656C65 		.ascii	"selected\000"
 2206      63746564 
 2206      00
 2207 0045 000000   		.space	3
 2208              	.LC49:
 2209 0048 73746172 		.ascii	"started\000"
 2209      74656400 
 2210              	.LC51:
 2211 0050 736C6F77 		.ascii	"slow breather\000"
 2211      20627265 
 2211      61746865 
 2211      7200
 2212 005e 0000     		.space	2
 2213              	.LC52:
 2214 0060 66617374 		.ascii	"fast breather\000"
 2214      20627265 
 2214      61746865 
 2214      7200
 2215 006e 0000     		.space	2
 2216              	.LC53:
 2217 0070 6C656674 		.ascii	"left-right\000"
 2217      2D726967 
 2217      687400
 2218 007b 00       		.space	1
 2219              	.LC54:
 2220 007c 77686974 		.ascii	"white intensity\000"
 2220      6520696E 
 2220      74656E73 
 2220      69747900 
 2221              	.LC55:
 2222 008c 32206C65 		.ascii	"2 leds\000"
 2222      647300
 2223 0093 00       		.space	1
 2224              	.LC56:
 2225 0094 72656420 		.ascii	"red intensity\000"
 2225      696E7465 
 2225      6E736974 
 2225      7900
 2226 00a2 0000     		.space	2
 2227              	.LC57:
 2228 00a4 67726565 		.ascii	"green intensity\000"
 2228      6E20696E 
ARM GAS  C:\Users\MM1005~1\AppData\Local\Temp\ccTXRdVU.s 			page 53


 2228      74656E73 
 2228      69747900 
 2229              	.LC58:
 2230 00b4 626C7565 		.ascii	"blue intensity\000"
 2230      20696E74 
 2230      656E7369 
 2230      747900
 2231 00c3 00       		.space	1
 2232              	.LC59:
 2233 00c4 7265642D 		.ascii	"red-white intensity\000"
 2233      77686974 
 2233      6520696E 
 2233      74656E73 
 2233      69747900 
 2234              	.LC60:
 2235 00d8 67726565 		.ascii	"green-white  intensity\000"
 2235      6E2D7768 
 2235      69746520 
 2235      20696E74 
 2235      656E7369 
 2236 00ef 00       		.space	1
 2237              	.LC61:
 2238 00f0 626C7565 		.ascii	"blue-white  intensity\000"
 2238      2D776869 
 2238      74652020 
 2238      696E7465 
 2238      6E736974 
 2239 0106 0000     		.space	2
 2240              	.LC62:
 2241 0108 616C6C20 		.ascii	"all colors\000"
 2241      636F6C6F 
 2241      727300
 2242 0113 00       		.space	1
 2243              	.LC63:
 2244 0114 7261696E 		.ascii	"rainbow colors\000"
 2244      626F7720 
 2244      636F6C6F 
 2244      727300
 2245 0123 00       		.space	1
 2246              	.LC64:
 2247 0124 34206669 		.ascii	"4 fix white LEDs at full intensity\000"
 2247      78207768 
 2247      69746520 
 2247      4C454473 
 2247      20617420 
 2248 0147 00       		.bss
 2249              		.align	1
 2250              		.set	.LANCHOR0,. + 0
 2251              		.type	red.6667, %object
 2252              		.size	red.6667, 2
 2253              	red.6667:
 2254 0000 0000     		.space	2
 2255              		.type	green.6668, %object
 2256              		.size	green.6668, 2
 2257              	green.6668:
 2258 0002 0000     		.space	2
 2259              		.type	blue.6669, %object
ARM GAS  C:\Users\MM1005~1\AppData\Local\Temp\ccTXRdVU.s 			page 54


 2260              		.size	blue.6669, 2
 2261              	blue.6669:
 2262 0004 0000     		.space	2
 2263              		.type	cycle.6717, %object
 2264              		.size	cycle.6717, 2
 2265              	cycle.6717:
 2266 0006 0000     		.space	2
 2267              		.type	color_index.6718, %object
 2268              		.size	color_index.6718, 2
 2269              	color_index.6718:
 2270 0008 0000     		.space	2
 2271              		.type	cycle.6722, %object
 2272              		.size	cycle.6722, 2
 2273              	cycle.6722:
 2274 000a 0000     		.space	2
 2275              		.type	led_pos.6723, %object
 2276              		.size	led_pos.6723, 2
 2277              	led_pos.6723:
 2278 000c 0000     		.space	2
 2279              		.type	intensity_left_index.6726, %object
 2280              		.size	intensity_left_index.6726, 1
 2281              	intensity_left_index.6726:
 2282 000e 00       		.space	1
 2283              		.type	intensity_white_index.6692, %object
 2284              		.size	intensity_white_index.6692, 1
 2285              	intensity_white_index.6692:
 2286 000f 00       		.space	1
 2287              		.type	intensity_white_index.6697, %object
 2288              		.size	intensity_white_index.6697, 1
 2289              	intensity_white_index.6697:
 2290 0010 00       		.space	1
 2291              		.type	intensity_white_index.6702, %object
 2292              		.size	intensity_white_index.6702, 1
 2293              	intensity_white_index.6702:
 2294 0011 00       		.space	1
 2295              		.type	cycle.6738, %object
 2296              		.size	cycle.6738, 2
 2297              	cycle.6738:
 2298 0012 0000     		.space	2
 2299              		.type	primary_color.6742, %object
 2300              		.size	primary_color.6742, 1
 2301              	primary_color.6742:
 2302 0014 00       		.space	1
 2303 0015 00       		.space	1
 2304              		.type	intensity.6707, %object
 2305              		.size	intensity.6707, 2
 2306              	intensity.6707:
 2307 0016 0000     		.space	2
 2308              		.type	cycle.6756, %object
 2309              		.size	cycle.6756, 2
 2310              	cycle.6756:
 2311 0018 0000     		.space	2
 2312              		.type	left_index.6754, %object
 2313              		.size	left_index.6754, 1
 2314              	left_index.6754:
 2315 001a 00       		.space	1
 2316              		.type	is_auto_anim_rotation_enable, %object
ARM GAS  C:\Users\MM1005~1\AppData\Local\Temp\ccTXRdVU.s 			page 55


 2317              		.size	is_auto_anim_rotation_enable, 1
 2318              	is_auto_anim_rotation_enable:
 2319 001b 00       		.space	1
 2320              		.type	is_anim_on_button_up_enable, %object
 2321              		.size	is_anim_on_button_up_enable, 1
 2322              	is_anim_on_button_up_enable:
 2323 001c 00       		.space	1
 2324              		.type	current_callback_anim, %object
 2325              		.size	current_callback_anim, 1
 2326              	current_callback_anim:
 2327 001d 00       		.space	1
 2328              		.text
 2329              	.Letext0:
 2330              		.file 2 "Generated_Source\\PSoC4/cytypes.h"
 2331              		.file 3 "..\\Slider.cydsn\\led.h"
 2332              		.file 4 "..\\Slider.cydsn\\animation.h"
 2333              		.file 5 "..\\Slider.cydsn\\command_telemetry.h"
 2334              		.section	.debug_info,"",%progbits
 2335              	.Ldebug_info0:
 2336 0000 BD0E0000 		.4byte	0xebd
 2337 0004 0400     		.2byte	0x4
 2338 0006 00000000 		.4byte	.Ldebug_abbrev0
 2339 000a 04       		.byte	0x4
 2340 000b 01       		.uleb128 0x1
 2341 000c 13000000 		.4byte	.LASF131
 2342 0010 01       		.byte	0x1
 2343 0011 E1070000 		.4byte	.LASF132
 2344 0015 B5040000 		.4byte	.LASF133
 2345 0019 00000000 		.4byte	.Ldebug_ranges0+0
 2346 001d 00000000 		.4byte	0
 2347 0021 00000000 		.4byte	.Ldebug_line0
 2348 0025 02       		.uleb128 0x2
 2349 0026 04       		.byte	0x4
 2350 0027 05       		.byte	0x5
 2351 0028 696E7400 		.ascii	"int\000"
 2352 002c 03       		.uleb128 0x3
 2353 002d 04       		.byte	0x4
 2354 002e 07       		.byte	0x7
 2355 002f 7D010000 		.4byte	.LASF0
 2356 0033 03       		.uleb128 0x3
 2357 0034 01       		.byte	0x1
 2358 0035 06       		.byte	0x6
 2359 0036 2C090000 		.4byte	.LASF1
 2360 003a 03       		.uleb128 0x3
 2361 003b 01       		.byte	0x1
 2362 003c 08       		.byte	0x8
 2363 003d D1080000 		.4byte	.LASF2
 2364 0041 03       		.uleb128 0x3
 2365 0042 02       		.byte	0x2
 2366 0043 05       		.byte	0x5
 2367 0044 E4060000 		.4byte	.LASF3
 2368 0048 03       		.uleb128 0x3
 2369 0049 02       		.byte	0x2
 2370 004a 07       		.byte	0x7
 2371 004b 38090000 		.4byte	.LASF4
 2372 004f 03       		.uleb128 0x3
 2373 0050 04       		.byte	0x4
ARM GAS  C:\Users\MM1005~1\AppData\Local\Temp\ccTXRdVU.s 			page 56


 2374 0051 05       		.byte	0x5
 2375 0052 09070000 		.4byte	.LASF5
 2376 0056 03       		.uleb128 0x3
 2377 0057 04       		.byte	0x4
 2378 0058 07       		.byte	0x7
 2379 0059 33080000 		.4byte	.LASF6
 2380 005d 03       		.uleb128 0x3
 2381 005e 08       		.byte	0x8
 2382 005f 05       		.byte	0x5
 2383 0060 38050000 		.4byte	.LASF7
 2384 0064 03       		.uleb128 0x3
 2385 0065 08       		.byte	0x8
 2386 0066 07       		.byte	0x7
 2387 0067 D9020000 		.4byte	.LASF8
 2388 006b 03       		.uleb128 0x3
 2389 006c 04       		.byte	0x4
 2390 006d 07       		.byte	0x7
 2391 006e 2A080000 		.4byte	.LASF9
 2392 0072 04       		.uleb128 0x4
 2393 0073 04       		.byte	0x4
 2394 0074 78000000 		.4byte	0x78
 2395 0078 05       		.uleb128 0x5
 2396 0079 03       		.uleb128 0x3
 2397 007a 01       		.byte	0x1
 2398 007b 08       		.byte	0x8
 2399 007c 74040000 		.4byte	.LASF10
 2400 0080 04       		.uleb128 0x4
 2401 0081 04       		.byte	0x4
 2402 0082 86000000 		.4byte	0x86
 2403 0086 06       		.uleb128 0x6
 2404 0087 79000000 		.4byte	0x79
 2405 008b 03       		.uleb128 0x3
 2406 008c 08       		.byte	0x8
 2407 008d 04       		.byte	0x4
 2408 008e 5E090000 		.4byte	.LASF11
 2409 0092 03       		.uleb128 0x3
 2410 0093 04       		.byte	0x4
 2411 0094 04       		.byte	0x4
 2412 0095 B2020000 		.4byte	.LASF12
 2413 0099 03       		.uleb128 0x3
 2414 009a 08       		.byte	0x8
 2415 009b 04       		.byte	0x4
 2416 009c 73060000 		.4byte	.LASF13
 2417 00a0 07       		.uleb128 0x7
 2418 00a1 58090000 		.4byte	.LASF14
 2419 00a5 02       		.byte	0x2
 2420 00a6 B901     		.2byte	0x1b9
 2421 00a8 3A000000 		.4byte	0x3a
 2422 00ac 07       		.uleb128 0x7
 2423 00ad A6040000 		.4byte	.LASF15
 2424 00b1 02       		.byte	0x2
 2425 00b2 BA01     		.2byte	0x1ba
 2426 00b4 48000000 		.4byte	0x48
 2427 00b8 07       		.uleb128 0x7
 2428 00b9 0D050000 		.4byte	.LASF16
 2429 00bd 02       		.byte	0x2
 2430 00be CA01     		.2byte	0x1ca
ARM GAS  C:\Users\MM1005~1\AppData\Local\Temp\ccTXRdVU.s 			page 57


 2431 00c0 79000000 		.4byte	0x79
 2432 00c4 06       		.uleb128 0x6
 2433 00c5 A0000000 		.4byte	0xa0
 2434 00c9 08       		.uleb128 0x8
 2435 00ca 39070000 		.4byte	.LASF51
 2436 00ce 03       		.byte	0x3
 2437 00cf 03       		.byte	0x3
 2438 00d0 1E       		.byte	0x1e
 2439 00d1 FA000000 		.4byte	0xfa
 2440 00d5 09       		.uleb128 0x9
 2441 00d6 72656400 		.ascii	"red\000"
 2442 00da 03       		.byte	0x3
 2443 00db 1F       		.byte	0x1f
 2444 00dc B8000000 		.4byte	0xb8
 2445 00e0 00       		.byte	0
 2446 00e1 0A       		.uleb128 0xa
 2447 00e2 5D060000 		.4byte	.LASF17
 2448 00e6 03       		.byte	0x3
 2449 00e7 20       		.byte	0x20
 2450 00e8 B8000000 		.4byte	0xb8
 2451 00ec 01       		.byte	0x1
 2452 00ed 0A       		.uleb128 0xa
 2453 00ee B0070000 		.4byte	.LASF18
 2454 00f2 03       		.byte	0x3
 2455 00f3 21       		.byte	0x21
 2456 00f4 B8000000 		.4byte	0xb8
 2457 00f8 02       		.byte	0x2
 2458 00f9 00       		.byte	0
 2459 00fa 0B       		.uleb128 0xb
 2460 00fb 6A050000 		.4byte	.LASF19
 2461 00ff 03       		.byte	0x3
 2462 0100 22       		.byte	0x22
 2463 0101 C9000000 		.4byte	0xc9
 2464 0105 0C       		.uleb128 0xc
 2465 0106 93040000 		.4byte	.LASF25
 2466 010a 01       		.byte	0x1
 2467 010b 03       		.byte	0x3
 2468 010c 24       		.byte	0x24
 2469 010d 2A010000 		.4byte	0x12a
 2470 0111 0D       		.uleb128 0xd
 2471 0112 66080000 		.4byte	.LASF20
 2472 0116 00       		.sleb128 0
 2473 0117 0D       		.uleb128 0xd
 2474 0118 92050000 		.4byte	.LASF21
 2475 011c 01       		.sleb128 1
 2476 011d 0D       		.uleb128 0xd
 2477 011e 93020000 		.4byte	.LASF22
 2478 0122 02       		.sleb128 2
 2479 0123 0D       		.uleb128 0xd
 2480 0124 A9030000 		.4byte	.LASF23
 2481 0128 03       		.sleb128 3
 2482 0129 00       		.byte	0
 2483 012a 0B       		.uleb128 0xb
 2484 012b F1000000 		.4byte	.LASF24
 2485 012f 03       		.byte	0x3
 2486 0130 2A       		.byte	0x2a
 2487 0131 05010000 		.4byte	0x105
ARM GAS  C:\Users\MM1005~1\AppData\Local\Temp\ccTXRdVU.s 			page 58


 2488 0135 0C       		.uleb128 0xc
 2489 0136 2B030000 		.4byte	.LASF26
 2490 013a 01       		.byte	0x1
 2491 013b 03       		.byte	0x3
 2492 013c 2C       		.byte	0x2c
 2493 013d 66010000 		.4byte	0x166
 2494 0141 0D       		.uleb128 0xd
 2495 0142 63060000 		.4byte	.LASF27
 2496 0146 12       		.sleb128 18
 2497 0147 0D       		.uleb128 0xd
 2498 0148 78030000 		.4byte	.LASF28
 2499 014c 13       		.sleb128 19
 2500 014d 0D       		.uleb128 0xd
 2501 014e F8080000 		.4byte	.LASF29
 2502 0152 14       		.sleb128 20
 2503 0153 0D       		.uleb128 0xd
 2504 0154 9A030000 		.4byte	.LASF30
 2505 0158 15       		.sleb128 21
 2506 0159 0D       		.uleb128 0xd
 2507 015a 1D060000 		.4byte	.LASF31
 2508 015e 16       		.sleb128 22
 2509 015f 0D       		.uleb128 0xd
 2510 0160 8A030000 		.4byte	.LASF32
 2511 0164 17       		.sleb128 23
 2512 0165 00       		.byte	0
 2513 0166 0C       		.uleb128 0xc
 2514 0167 8A010000 		.4byte	.LASF33
 2515 016b 01       		.byte	0x1
 2516 016c 04       		.byte	0x4
 2517 016d 16       		.byte	0x16
 2518 016e CD010000 		.4byte	0x1cd
 2519 0172 0D       		.uleb128 0xd
 2520 0173 7D070000 		.4byte	.LASF34
 2521 0177 00       		.sleb128 0
 2522 0178 0D       		.uleb128 0xd
 2523 0179 F6010000 		.4byte	.LASF35
 2524 017d 01       		.sleb128 1
 2525 017e 0D       		.uleb128 0xd
 2526 017f FD040000 		.4byte	.LASF36
 2527 0183 02       		.sleb128 2
 2528 0184 0D       		.uleb128 0xd
 2529 0185 FD070000 		.4byte	.LASF37
 2530 0189 03       		.sleb128 3
 2531 018a 0D       		.uleb128 0xd
 2532 018b A2090000 		.4byte	.LASF38
 2533 018f 04       		.sleb128 4
 2534 0190 0D       		.uleb128 0xd
 2535 0191 E7030000 		.4byte	.LASF39
 2536 0195 05       		.sleb128 5
 2537 0196 0D       		.uleb128 0xd
 2538 0197 D2030000 		.4byte	.LASF40
 2539 019b 06       		.sleb128 6
 2540 019c 0D       		.uleb128 0xd
 2541 019d 1A040000 		.4byte	.LASF41
 2542 01a1 07       		.sleb128 7
 2543 01a2 0D       		.uleb128 0xd
 2544 01a3 50020000 		.4byte	.LASF42
ARM GAS  C:\Users\MM1005~1\AppData\Local\Temp\ccTXRdVU.s 			page 59


 2545 01a7 08       		.sleb128 8
 2546 01a8 0D       		.uleb128 0xd
 2547 01a9 95070000 		.4byte	.LASF43
 2548 01ad 09       		.sleb128 9
 2549 01ae 0D       		.uleb128 0xd
 2550 01af CE050000 		.4byte	.LASF44
 2551 01b3 0A       		.sleb128 10
 2552 01b4 0D       		.uleb128 0xd
 2553 01b5 96060000 		.4byte	.LASF45
 2554 01b9 0B       		.sleb128 11
 2555 01ba 0D       		.uleb128 0xd
 2556 01bb 45080000 		.4byte	.LASF46
 2557 01bf 0C       		.sleb128 12
 2558 01c0 0D       		.uleb128 0xd
 2559 01c1 5B050000 		.4byte	.LASF47
 2560 01c5 0D       		.sleb128 13
 2561 01c6 0D       		.uleb128 0xd
 2562 01c7 D1000000 		.4byte	.LASF48
 2563 01cb 0E       		.sleb128 14
 2564 01cc 00       		.byte	0
 2565 01cd 0B       		.uleb128 0xb
 2566 01ce 9B080000 		.4byte	.LASF49
 2567 01d2 04       		.byte	0x4
 2568 01d3 27       		.byte	0x27
 2569 01d4 66010000 		.4byte	0x166
 2570 01d8 0B       		.uleb128 0xb
 2571 01d9 20020000 		.4byte	.LASF50
 2572 01dd 04       		.byte	0x4
 2573 01de 29       		.byte	0x29
 2574 01df 72000000 		.4byte	0x72
 2575 01e3 08       		.uleb128 0x8
 2576 01e4 B4010000 		.4byte	.LASF52
 2577 01e8 0C       		.byte	0xc
 2578 01e9 04       		.byte	0x4
 2579 01ea 2A       		.byte	0x2a
 2580 01eb 2B020000 		.4byte	0x22b
 2581 01ef 09       		.uleb128 0x9
 2582 01f0 696400   		.ascii	"id\000"
 2583 01f3 04       		.byte	0x4
 2584 01f4 2C       		.byte	0x2c
 2585 01f5 CD010000 		.4byte	0x1cd
 2586 01f9 00       		.byte	0
 2587 01fa 0A       		.uleb128 0xa
 2588 01fb CE020000 		.4byte	.LASF53
 2589 01ff 04       		.byte	0x4
 2590 0200 2D       		.byte	0x2d
 2591 0201 A0000000 		.4byte	0xa0
 2592 0205 01       		.byte	0x1
 2593 0206 0A       		.uleb128 0xa
 2594 0207 2E060000 		.4byte	.LASF54
 2595 020b 04       		.byte	0x4
 2596 020c 2E       		.byte	0x2e
 2597 020d A0000000 		.4byte	0xa0
 2598 0211 02       		.byte	0x2
 2599 0212 0A       		.uleb128 0xa
 2600 0213 09090000 		.4byte	.LASF55
 2601 0217 04       		.byte	0x4
ARM GAS  C:\Users\MM1005~1\AppData\Local\Temp\ccTXRdVU.s 			page 60


 2602 0218 2F       		.byte	0x2f
 2603 0219 D8010000 		.4byte	0x1d8
 2604 021d 04       		.byte	0x4
 2605 021e 0A       		.uleb128 0xa
 2606 021f 46050000 		.4byte	.LASF56
 2607 0223 04       		.byte	0x4
 2608 0224 30       		.byte	0x30
 2609 0225 80000000 		.4byte	0x80
 2610 0229 08       		.byte	0x8
 2611 022a 00       		.byte	0
 2612 022b 0B       		.uleb128 0xb
 2613 022c DE000000 		.4byte	.LASF57
 2614 0230 04       		.byte	0x4
 2615 0231 31       		.byte	0x31
 2616 0232 E3010000 		.4byte	0x1e3
 2617 0236 0C       		.uleb128 0xc
 2618 0237 4A070000 		.4byte	.LASF58
 2619 023b 01       		.byte	0x1
 2620 023c 05       		.byte	0x5
 2621 023d 16       		.byte	0x16
 2622 023e 67020000 		.4byte	0x267
 2623 0242 0D       		.uleb128 0xd
 2624 0243 36060000 		.4byte	.LASF59
 2625 0247 00       		.sleb128 0
 2626 0248 0D       		.uleb128 0xd
 2627 0249 1C010000 		.4byte	.LASF60
 2628 024d 01       		.sleb128 1
 2629 024e 0D       		.uleb128 0xd
 2630 024f 13050000 		.4byte	.LASF61
 2631 0253 02       		.sleb128 2
 2632 0254 0D       		.uleb128 0xd
 2633 0255 A5000000 		.4byte	.LASF62
 2634 0259 03       		.sleb128 3
 2635 025a 0D       		.uleb128 0xd
 2636 025b C6030000 		.4byte	.LASF63
 2637 025f 04       		.sleb128 4
 2638 0260 0D       		.uleb128 0xd
 2639 0261 7F060000 		.4byte	.LASF64
 2640 0265 05       		.sleb128 5
 2641 0266 00       		.byte	0
 2642 0267 0B       		.uleb128 0xb
 2643 0268 27010000 		.4byte	.LASF65
 2644 026c 05       		.byte	0x5
 2645 026d 1E       		.byte	0x1e
 2646 026e 36020000 		.4byte	0x236
 2647 0272 0E       		.uleb128 0xe
 2648 0273 AE090000 		.4byte	.LASF70
 2649 0277 01       		.byte	0x1
 2650 0278 68       		.byte	0x68
 2651 0279 00000000 		.4byte	.LFB35
 2652 027d E8000000 		.4byte	.LFE35-.LFB35
 2653 0281 01       		.uleb128 0x1
 2654 0282 9C       		.byte	0x9c
 2655 0283 5F030000 		.4byte	0x35f
 2656 0287 0F       		.uleb128 0xf
 2657 0288 72656400 		.ascii	"red\000"
 2658 028c 01       		.byte	0x1
ARM GAS  C:\Users\MM1005~1\AppData\Local\Temp\ccTXRdVU.s 			page 61


 2659 028d 6A       		.byte	0x6a
 2660 028e AC000000 		.4byte	0xac
 2661 0292 05       		.uleb128 0x5
 2662 0293 03       		.byte	0x3
 2663 0294 00000000 		.4byte	red.6667
 2664 0298 10       		.uleb128 0x10
 2665 0299 5D060000 		.4byte	.LASF17
 2666 029d 01       		.byte	0x1
 2667 029e 6B       		.byte	0x6b
 2668 029f AC000000 		.4byte	0xac
 2669 02a3 05       		.uleb128 0x5
 2670 02a4 03       		.byte	0x3
 2671 02a5 02000000 		.4byte	green.6668
 2672 02a9 10       		.uleb128 0x10
 2673 02aa B0070000 		.4byte	.LASF18
 2674 02ae 01       		.byte	0x1
 2675 02af 6C       		.byte	0x6c
 2676 02b0 AC000000 		.4byte	0xac
 2677 02b4 05       		.uleb128 0x5
 2678 02b5 03       		.byte	0x3
 2679 02b6 04000000 		.4byte	blue.6669
 2680 02ba 10       		.uleb128 0x10
 2681 02bb 4B090000 		.4byte	.LASF66
 2682 02bf 01       		.byte	0x1
 2683 02c0 6D       		.byte	0x6d
 2684 02c1 A0000000 		.4byte	0xa0
 2685 02c5 05       		.uleb128 0x5
 2686 02c6 03       		.byte	0x3
 2687 02c7 00000000 		.4byte	intensity_up.6670
 2688 02cb 11       		.uleb128 0x11
 2689 02cc 65040000 		.4byte	.LASF67
 2690 02d0 01       		.byte	0x1
 2691 02d1 6E       		.byte	0x6e
 2692 02d2 AC000000 		.4byte	0xac
 2693 02d6 40       		.byte	0x40
 2694 02d7 11       		.uleb128 0x11
 2695 02d8 E6010000 		.4byte	.LASF68
 2696 02dc 01       		.byte	0x1
 2697 02dd 6F       		.byte	0x6f
 2698 02de AC000000 		.4byte	0xac
 2699 02e2 80       		.byte	0x80
 2700 02e3 12       		.uleb128 0x12
 2701 02e4 D6060000 		.4byte	.LASF69
 2702 02e8 01       		.byte	0x1
 2703 02e9 70       		.byte	0x70
 2704 02ea AC000000 		.4byte	0xac
 2705 02ee 0001     		.2byte	0x100
 2706 02f0 13       		.uleb128 0x13
 2707 02f1 0C000000 		.4byte	.LVL1
 2708 02f5 400E0000 		.4byte	0xe40
 2709 02f9 03030000 		.4byte	0x303
 2710 02fd 14       		.uleb128 0x14
 2711 02fe 01       		.uleb128 0x1
 2712 02ff 50       		.byte	0x50
 2713 0300 01       		.uleb128 0x1
 2714 0301 45       		.byte	0x45
 2715 0302 00       		.byte	0
ARM GAS  C:\Users\MM1005~1\AppData\Local\Temp\ccTXRdVU.s 			page 62


 2716 0303 13       		.uleb128 0x13
 2717 0304 14000000 		.4byte	.LVL2
 2718 0308 400E0000 		.4byte	0xe40
 2719 030c 16030000 		.4byte	0x316
 2720 0310 14       		.uleb128 0x14
 2721 0311 01       		.uleb128 0x1
 2722 0312 50       		.byte	0x50
 2723 0313 01       		.uleb128 0x1
 2724 0314 46       		.byte	0x46
 2725 0315 00       		.byte	0
 2726 0316 13       		.uleb128 0x13
 2727 0317 1C000000 		.4byte	.LVL3
 2728 031b 400E0000 		.4byte	0xe40
 2729 031f 29030000 		.4byte	0x329
 2730 0323 14       		.uleb128 0x14
 2731 0324 01       		.uleb128 0x1
 2732 0325 50       		.byte	0x50
 2733 0326 01       		.uleb128 0x1
 2734 0327 47       		.byte	0x47
 2735 0328 00       		.byte	0
 2736 0329 13       		.uleb128 0x13
 2737 032a 28000000 		.4byte	.LVL4
 2738 032e 400E0000 		.4byte	0xe40
 2739 0332 3C030000 		.4byte	0x33c
 2740 0336 14       		.uleb128 0x14
 2741 0337 01       		.uleb128 0x1
 2742 0338 50       		.byte	0x50
 2743 0339 01       		.uleb128 0x1
 2744 033a 42       		.byte	0x42
 2745 033b 00       		.byte	0
 2746 033c 13       		.uleb128 0x13
 2747 033d 34000000 		.4byte	.LVL5
 2748 0341 400E0000 		.4byte	0xe40
 2749 0345 4F030000 		.4byte	0x34f
 2750 0349 14       		.uleb128 0x14
 2751 034a 01       		.uleb128 0x1
 2752 034b 50       		.byte	0x50
 2753 034c 01       		.uleb128 0x1
 2754 034d 43       		.byte	0x43
 2755 034e 00       		.byte	0
 2756 034f 15       		.uleb128 0x15
 2757 0350 40000000 		.4byte	.LVL6
 2758 0354 400E0000 		.4byte	0xe40
 2759 0358 14       		.uleb128 0x14
 2760 0359 01       		.uleb128 0x1
 2761 035a 50       		.byte	0x50
 2762 035b 01       		.uleb128 0x1
 2763 035c 44       		.byte	0x44
 2764 035d 00       		.byte	0
 2765 035e 00       		.byte	0
 2766 035f 0E       		.uleb128 0xe
 2767 0360 18080000 		.4byte	.LASF71
 2768 0364 01       		.byte	0x1
 2769 0365 AA       		.byte	0xaa
 2770 0366 00000000 		.4byte	.LFB36
 2771 036a 2C000000 		.4byte	.LFE36-.LFB36
 2772 036e 01       		.uleb128 0x1
ARM GAS  C:\Users\MM1005~1\AppData\Local\Temp\ccTXRdVU.s 			page 63


 2773 036f 9C       		.byte	0x9c
 2774 0370 D5030000 		.4byte	0x3d5
 2775 0374 13       		.uleb128 0x13
 2776 0375 0C000000 		.4byte	.LVL7
 2777 0379 400E0000 		.4byte	0xe40
 2778 037d 8D030000 		.4byte	0x38d
 2779 0381 14       		.uleb128 0x14
 2780 0382 01       		.uleb128 0x1
 2781 0383 51       		.byte	0x51
 2782 0384 02       		.uleb128 0x2
 2783 0385 74       		.byte	0x74
 2784 0386 00       		.sleb128 0
 2785 0387 14       		.uleb128 0x14
 2786 0388 01       		.uleb128 0x1
 2787 0389 50       		.byte	0x50
 2788 038a 01       		.uleb128 0x1
 2789 038b 36       		.byte	0x36
 2790 038c 00       		.byte	0
 2791 038d 13       		.uleb128 0x13
 2792 038e 14000000 		.4byte	.LVL8
 2793 0392 400E0000 		.4byte	0xe40
 2794 0396 A6030000 		.4byte	0x3a6
 2795 039a 14       		.uleb128 0x14
 2796 039b 01       		.uleb128 0x1
 2797 039c 51       		.byte	0x51
 2798 039d 02       		.uleb128 0x2
 2799 039e 74       		.byte	0x74
 2800 039f 00       		.sleb128 0
 2801 03a0 14       		.uleb128 0x14
 2802 03a1 01       		.uleb128 0x1
 2803 03a2 50       		.byte	0x50
 2804 03a3 01       		.uleb128 0x1
 2805 03a4 37       		.byte	0x37
 2806 03a5 00       		.byte	0
 2807 03a6 13       		.uleb128 0x13
 2808 03a7 1C000000 		.4byte	.LVL9
 2809 03ab 400E0000 		.4byte	0xe40
 2810 03af BF030000 		.4byte	0x3bf
 2811 03b3 14       		.uleb128 0x14
 2812 03b4 01       		.uleb128 0x1
 2813 03b5 51       		.byte	0x51
 2814 03b6 02       		.uleb128 0x2
 2815 03b7 74       		.byte	0x74
 2816 03b8 00       		.sleb128 0
 2817 03b9 14       		.uleb128 0x14
 2818 03ba 01       		.uleb128 0x1
 2819 03bb 50       		.byte	0x50
 2820 03bc 01       		.uleb128 0x1
 2821 03bd 38       		.byte	0x38
 2822 03be 00       		.byte	0
 2823 03bf 15       		.uleb128 0x15
 2824 03c0 24000000 		.4byte	.LVL10
 2825 03c4 400E0000 		.4byte	0xe40
 2826 03c8 14       		.uleb128 0x14
 2827 03c9 01       		.uleb128 0x1
 2828 03ca 51       		.byte	0x51
 2829 03cb 02       		.uleb128 0x2
ARM GAS  C:\Users\MM1005~1\AppData\Local\Temp\ccTXRdVU.s 			page 64


 2830 03cc 74       		.byte	0x74
 2831 03cd 00       		.sleb128 0
 2832 03ce 14       		.uleb128 0x14
 2833 03cf 01       		.uleb128 0x1
 2834 03d0 50       		.byte	0x50
 2835 03d1 01       		.uleb128 0x1
 2836 03d2 39       		.byte	0x39
 2837 03d3 00       		.byte	0
 2838 03d4 00       		.byte	0
 2839 03d5 0E       		.uleb128 0xe
 2840 03d6 B5070000 		.4byte	.LASF72
 2841 03da 01       		.byte	0x1
 2842 03db BD       		.byte	0xbd
 2843 03dc 00000000 		.4byte	.LFB38
 2844 03e0 3C000000 		.4byte	.LFE38-.LFB38
 2845 03e4 01       		.uleb128 0x1
 2846 03e5 9C       		.byte	0x9c
 2847 03e6 79040000 		.4byte	0x479
 2848 03ea 13       		.uleb128 0x13
 2849 03eb 0C000000 		.4byte	.LVL11
 2850 03ef 400E0000 		.4byte	0xe40
 2851 03f3 03040000 		.4byte	0x403
 2852 03f7 14       		.uleb128 0x14
 2853 03f8 01       		.uleb128 0x1
 2854 03f9 51       		.byte	0x51
 2855 03fa 02       		.uleb128 0x2
 2856 03fb 74       		.byte	0x74
 2857 03fc 00       		.sleb128 0
 2858 03fd 14       		.uleb128 0x14
 2859 03fe 01       		.uleb128 0x1
 2860 03ff 50       		.byte	0x50
 2861 0400 01       		.uleb128 0x1
 2862 0401 45       		.byte	0x45
 2863 0402 00       		.byte	0
 2864 0403 13       		.uleb128 0x13
 2865 0404 14000000 		.4byte	.LVL12
 2866 0408 400E0000 		.4byte	0xe40
 2867 040c 1B040000 		.4byte	0x41b
 2868 0410 14       		.uleb128 0x14
 2869 0411 01       		.uleb128 0x1
 2870 0412 51       		.byte	0x51
 2871 0413 01       		.uleb128 0x1
 2872 0414 30       		.byte	0x30
 2873 0415 14       		.uleb128 0x14
 2874 0416 01       		.uleb128 0x1
 2875 0417 50       		.byte	0x50
 2876 0418 01       		.uleb128 0x1
 2877 0419 46       		.byte	0x46
 2878 041a 00       		.byte	0
 2879 041b 13       		.uleb128 0x13
 2880 041c 1C000000 		.4byte	.LVL13
 2881 0420 400E0000 		.4byte	0xe40
 2882 0424 33040000 		.4byte	0x433
 2883 0428 14       		.uleb128 0x14
 2884 0429 01       		.uleb128 0x1
 2885 042a 51       		.byte	0x51
 2886 042b 01       		.uleb128 0x1
ARM GAS  C:\Users\MM1005~1\AppData\Local\Temp\ccTXRdVU.s 			page 65


 2887 042c 30       		.byte	0x30
 2888 042d 14       		.uleb128 0x14
 2889 042e 01       		.uleb128 0x1
 2890 042f 50       		.byte	0x50
 2891 0430 01       		.uleb128 0x1
 2892 0431 47       		.byte	0x47
 2893 0432 00       		.byte	0
 2894 0433 13       		.uleb128 0x13
 2895 0434 24000000 		.4byte	.LVL14
 2896 0438 400E0000 		.4byte	0xe40
 2897 043c 4C040000 		.4byte	0x44c
 2898 0440 14       		.uleb128 0x14
 2899 0441 01       		.uleb128 0x1
 2900 0442 51       		.byte	0x51
 2901 0443 02       		.uleb128 0x2
 2902 0444 74       		.byte	0x74
 2903 0445 00       		.sleb128 0
 2904 0446 14       		.uleb128 0x14
 2905 0447 01       		.uleb128 0x1
 2906 0448 50       		.byte	0x50
 2907 0449 01       		.uleb128 0x1
 2908 044a 42       		.byte	0x42
 2909 044b 00       		.byte	0
 2910 044c 13       		.uleb128 0x13
 2911 044d 2C000000 		.4byte	.LVL15
 2912 0451 400E0000 		.4byte	0xe40
 2913 0455 64040000 		.4byte	0x464
 2914 0459 14       		.uleb128 0x14
 2915 045a 01       		.uleb128 0x1
 2916 045b 51       		.byte	0x51
 2917 045c 01       		.uleb128 0x1
 2918 045d 30       		.byte	0x30
 2919 045e 14       		.uleb128 0x14
 2920 045f 01       		.uleb128 0x1
 2921 0460 50       		.byte	0x50
 2922 0461 01       		.uleb128 0x1
 2923 0462 43       		.byte	0x43
 2924 0463 00       		.byte	0
 2925 0464 15       		.uleb128 0x15
 2926 0465 34000000 		.4byte	.LVL16
 2927 0469 400E0000 		.4byte	0xe40
 2928 046d 14       		.uleb128 0x14
 2929 046e 01       		.uleb128 0x1
 2930 046f 51       		.byte	0x51
 2931 0470 01       		.uleb128 0x1
 2932 0471 30       		.byte	0x30
 2933 0472 14       		.uleb128 0x14
 2934 0473 01       		.uleb128 0x1
 2935 0474 50       		.byte	0x50
 2936 0475 01       		.uleb128 0x1
 2937 0476 44       		.byte	0x44
 2938 0477 00       		.byte	0
 2939 0478 00       		.byte	0
 2940 0479 0E       		.uleb128 0xe
 2941 047a 5D010000 		.4byte	.LASF73
 2942 047e 01       		.byte	0x1
 2943 047f CE       		.byte	0xce
ARM GAS  C:\Users\MM1005~1\AppData\Local\Temp\ccTXRdVU.s 			page 66


 2944 0480 00000000 		.4byte	.LFB39
 2945 0484 3C000000 		.4byte	.LFE39-.LFB39
 2946 0488 01       		.uleb128 0x1
 2947 0489 9C       		.byte	0x9c
 2948 048a 1D050000 		.4byte	0x51d
 2949 048e 13       		.uleb128 0x13
 2950 048f 0A000000 		.4byte	.LVL17
 2951 0493 400E0000 		.4byte	0xe40
 2952 0497 A6040000 		.4byte	0x4a6
 2953 049b 14       		.uleb128 0x14
 2954 049c 01       		.uleb128 0x1
 2955 049d 51       		.byte	0x51
 2956 049e 01       		.uleb128 0x1
 2957 049f 30       		.byte	0x30
 2958 04a0 14       		.uleb128 0x14
 2959 04a1 01       		.uleb128 0x1
 2960 04a2 50       		.byte	0x50
 2961 04a3 01       		.uleb128 0x1
 2962 04a4 45       		.byte	0x45
 2963 04a5 00       		.byte	0
 2964 04a6 13       		.uleb128 0x13
 2965 04a7 14000000 		.4byte	.LVL18
 2966 04ab 400E0000 		.4byte	0xe40
 2967 04af BF040000 		.4byte	0x4bf
 2968 04b3 14       		.uleb128 0x14
 2969 04b4 01       		.uleb128 0x1
 2970 04b5 51       		.byte	0x51
 2971 04b6 02       		.uleb128 0x2
 2972 04b7 74       		.byte	0x74
 2973 04b8 00       		.sleb128 0
 2974 04b9 14       		.uleb128 0x14
 2975 04ba 01       		.uleb128 0x1
 2976 04bb 50       		.byte	0x50
 2977 04bc 01       		.uleb128 0x1
 2978 04bd 46       		.byte	0x46
 2979 04be 00       		.byte	0
 2980 04bf 13       		.uleb128 0x13
 2981 04c0 1C000000 		.4byte	.LVL19
 2982 04c4 400E0000 		.4byte	0xe40
 2983 04c8 D7040000 		.4byte	0x4d7
 2984 04cc 14       		.uleb128 0x14
 2985 04cd 01       		.uleb128 0x1
 2986 04ce 51       		.byte	0x51
 2987 04cf 01       		.uleb128 0x1
 2988 04d0 30       		.byte	0x30
 2989 04d1 14       		.uleb128 0x14
 2990 04d2 01       		.uleb128 0x1
 2991 04d3 50       		.byte	0x50
 2992 04d4 01       		.uleb128 0x1
 2993 04d5 47       		.byte	0x47
 2994 04d6 00       		.byte	0
 2995 04d7 13       		.uleb128 0x13
 2996 04d8 24000000 		.4byte	.LVL20
 2997 04dc 400E0000 		.4byte	0xe40
 2998 04e0 EF040000 		.4byte	0x4ef
 2999 04e4 14       		.uleb128 0x14
 3000 04e5 01       		.uleb128 0x1
ARM GAS  C:\Users\MM1005~1\AppData\Local\Temp\ccTXRdVU.s 			page 67


 3001 04e6 51       		.byte	0x51
 3002 04e7 01       		.uleb128 0x1
 3003 04e8 30       		.byte	0x30
 3004 04e9 14       		.uleb128 0x14
 3005 04ea 01       		.uleb128 0x1
 3006 04eb 50       		.byte	0x50
 3007 04ec 01       		.uleb128 0x1
 3008 04ed 42       		.byte	0x42
 3009 04ee 00       		.byte	0
 3010 04ef 13       		.uleb128 0x13
 3011 04f0 2C000000 		.4byte	.LVL21
 3012 04f4 400E0000 		.4byte	0xe40
 3013 04f8 08050000 		.4byte	0x508
 3014 04fc 14       		.uleb128 0x14
 3015 04fd 01       		.uleb128 0x1
 3016 04fe 51       		.byte	0x51
 3017 04ff 02       		.uleb128 0x2
 3018 0500 74       		.byte	0x74
 3019 0501 00       		.sleb128 0
 3020 0502 14       		.uleb128 0x14
 3021 0503 01       		.uleb128 0x1
 3022 0504 50       		.byte	0x50
 3023 0505 01       		.uleb128 0x1
 3024 0506 43       		.byte	0x43
 3025 0507 00       		.byte	0
 3026 0508 15       		.uleb128 0x15
 3027 0509 34000000 		.4byte	.LVL22
 3028 050d 400E0000 		.4byte	0xe40
 3029 0511 14       		.uleb128 0x14
 3030 0512 01       		.uleb128 0x1
 3031 0513 51       		.byte	0x51
 3032 0514 01       		.uleb128 0x1
 3033 0515 30       		.byte	0x30
 3034 0516 14       		.uleb128 0x14
 3035 0517 01       		.uleb128 0x1
 3036 0518 50       		.byte	0x50
 3037 0519 01       		.uleb128 0x1
 3038 051a 44       		.byte	0x44
 3039 051b 00       		.byte	0
 3040 051c 00       		.byte	0
 3041 051d 0E       		.uleb128 0xe
 3042 051e 61030000 		.4byte	.LASF74
 3043 0522 01       		.byte	0x1
 3044 0523 DF       		.byte	0xdf
 3045 0524 00000000 		.4byte	.LFB40
 3046 0528 3C000000 		.4byte	.LFE40-.LFB40
 3047 052c 01       		.uleb128 0x1
 3048 052d 9C       		.byte	0x9c
 3049 052e C1050000 		.4byte	0x5c1
 3050 0532 13       		.uleb128 0x13
 3051 0533 0A000000 		.4byte	.LVL23
 3052 0537 400E0000 		.4byte	0xe40
 3053 053b 4A050000 		.4byte	0x54a
 3054 053f 14       		.uleb128 0x14
 3055 0540 01       		.uleb128 0x1
 3056 0541 51       		.byte	0x51
 3057 0542 01       		.uleb128 0x1
ARM GAS  C:\Users\MM1005~1\AppData\Local\Temp\ccTXRdVU.s 			page 68


 3058 0543 30       		.byte	0x30
 3059 0544 14       		.uleb128 0x14
 3060 0545 01       		.uleb128 0x1
 3061 0546 50       		.byte	0x50
 3062 0547 01       		.uleb128 0x1
 3063 0548 45       		.byte	0x45
 3064 0549 00       		.byte	0
 3065 054a 13       		.uleb128 0x13
 3066 054b 12000000 		.4byte	.LVL24
 3067 054f 400E0000 		.4byte	0xe40
 3068 0553 62050000 		.4byte	0x562
 3069 0557 14       		.uleb128 0x14
 3070 0558 01       		.uleb128 0x1
 3071 0559 51       		.byte	0x51
 3072 055a 01       		.uleb128 0x1
 3073 055b 30       		.byte	0x30
 3074 055c 14       		.uleb128 0x14
 3075 055d 01       		.uleb128 0x1
 3076 055e 50       		.byte	0x50
 3077 055f 01       		.uleb128 0x1
 3078 0560 46       		.byte	0x46
 3079 0561 00       		.byte	0
 3080 0562 13       		.uleb128 0x13
 3081 0563 1C000000 		.4byte	.LVL25
 3082 0567 400E0000 		.4byte	0xe40
 3083 056b 7B050000 		.4byte	0x57b
 3084 056f 14       		.uleb128 0x14
 3085 0570 01       		.uleb128 0x1
 3086 0571 51       		.byte	0x51
 3087 0572 02       		.uleb128 0x2
 3088 0573 74       		.byte	0x74
 3089 0574 00       		.sleb128 0
 3090 0575 14       		.uleb128 0x14
 3091 0576 01       		.uleb128 0x1
 3092 0577 50       		.byte	0x50
 3093 0578 01       		.uleb128 0x1
 3094 0579 47       		.byte	0x47
 3095 057a 00       		.byte	0
 3096 057b 13       		.uleb128 0x13
 3097 057c 24000000 		.4byte	.LVL26
 3098 0580 400E0000 		.4byte	0xe40
 3099 0584 93050000 		.4byte	0x593
 3100 0588 14       		.uleb128 0x14
 3101 0589 01       		.uleb128 0x1
 3102 058a 51       		.byte	0x51
 3103 058b 01       		.uleb128 0x1
 3104 058c 30       		.byte	0x30
 3105 058d 14       		.uleb128 0x14
 3106 058e 01       		.uleb128 0x1
 3107 058f 50       		.byte	0x50
 3108 0590 01       		.uleb128 0x1
 3109 0591 42       		.byte	0x42
 3110 0592 00       		.byte	0
 3111 0593 13       		.uleb128 0x13
 3112 0594 2C000000 		.4byte	.LVL27
 3113 0598 400E0000 		.4byte	0xe40
 3114 059c AB050000 		.4byte	0x5ab
ARM GAS  C:\Users\MM1005~1\AppData\Local\Temp\ccTXRdVU.s 			page 69


 3115 05a0 14       		.uleb128 0x14
 3116 05a1 01       		.uleb128 0x1
 3117 05a2 51       		.byte	0x51
 3118 05a3 01       		.uleb128 0x1
 3119 05a4 30       		.byte	0x30
 3120 05a5 14       		.uleb128 0x14
 3121 05a6 01       		.uleb128 0x1
 3122 05a7 50       		.byte	0x50
 3123 05a8 01       		.uleb128 0x1
 3124 05a9 43       		.byte	0x43
 3125 05aa 00       		.byte	0
 3126 05ab 15       		.uleb128 0x15
 3127 05ac 34000000 		.4byte	.LVL28
 3128 05b0 400E0000 		.4byte	0xe40
 3129 05b4 14       		.uleb128 0x14
 3130 05b5 01       		.uleb128 0x1
 3131 05b6 51       		.byte	0x51
 3132 05b7 02       		.uleb128 0x2
 3133 05b8 74       		.byte	0x74
 3134 05b9 00       		.sleb128 0
 3135 05ba 14       		.uleb128 0x14
 3136 05bb 01       		.uleb128 0x1
 3137 05bc 50       		.byte	0x50
 3138 05bd 01       		.uleb128 0x1
 3139 05be 44       		.byte	0x44
 3140 05bf 00       		.byte	0
 3141 05c0 00       		.byte	0
 3142 05c1 16       		.uleb128 0x16
 3143 05c2 21050000 		.4byte	.LASF75
 3144 05c6 01       		.byte	0x1
 3145 05c7 5001     		.2byte	0x150
 3146 05c9 00000000 		.4byte	.LFB45
 3147 05cd A0000000 		.4byte	.LFE45-.LFB45
 3148 05d1 01       		.uleb128 0x1
 3149 05d2 9C       		.byte	0x9c
 3150 05d3 7C060000 		.4byte	0x67c
 3151 05d7 17       		.uleb128 0x17
 3152 05d8 77070000 		.4byte	.LASF76
 3153 05dc 01       		.byte	0x1
 3154 05dd 5201     		.2byte	0x152
 3155 05df AC000000 		.4byte	0xac
 3156 05e3 05       		.uleb128 0x5
 3157 05e4 03       		.byte	0x3
 3158 05e5 06000000 		.4byte	cycle.6717
 3159 05e9 17       		.uleb128 0x17
 3160 05ea 2D070000 		.4byte	.LASF77
 3161 05ee 01       		.byte	0x1
 3162 05ef 5301     		.2byte	0x153
 3163 05f1 AC000000 		.4byte	0xac
 3164 05f5 05       		.uleb128 0x5
 3165 05f6 03       		.byte	0x3
 3166 05f7 08000000 		.4byte	color_index.6718
 3167 05fb 17       		.uleb128 0x17
 3168 05fc AC060000 		.4byte	.LASF78
 3169 0600 01       		.byte	0x1
 3170 0601 5401     		.2byte	0x154
 3171 0603 8C060000 		.4byte	0x68c
ARM GAS  C:\Users\MM1005~1\AppData\Local\Temp\ccTXRdVU.s 			page 70


 3172 0607 05       		.uleb128 0x5
 3173 0608 03       		.byte	0x3
 3174 0609 00000000 		.4byte	vec_rainbow.6719
 3175 060d 13       		.uleb128 0x13
 3176 060e 40000000 		.4byte	.LVL29
 3177 0612 400E0000 		.4byte	0xe40
 3178 0616 20060000 		.4byte	0x620
 3179 061a 14       		.uleb128 0x14
 3180 061b 01       		.uleb128 0x1
 3181 061c 50       		.byte	0x50
 3182 061d 01       		.uleb128 0x1
 3183 061e 45       		.byte	0x45
 3184 061f 00       		.byte	0
 3185 0620 13       		.uleb128 0x13
 3186 0621 4E000000 		.4byte	.LVL30
 3187 0625 400E0000 		.4byte	0xe40
 3188 0629 33060000 		.4byte	0x633
 3189 062d 14       		.uleb128 0x14
 3190 062e 01       		.uleb128 0x1
 3191 062f 50       		.byte	0x50
 3192 0630 01       		.uleb128 0x1
 3193 0631 42       		.byte	0x42
 3194 0632 00       		.byte	0
 3195 0633 13       		.uleb128 0x13
 3196 0634 5E000000 		.4byte	.LVL31
 3197 0638 400E0000 		.4byte	0xe40
 3198 063c 46060000 		.4byte	0x646
 3199 0640 14       		.uleb128 0x14
 3200 0641 01       		.uleb128 0x1
 3201 0642 50       		.byte	0x50
 3202 0643 01       		.uleb128 0x1
 3203 0644 46       		.byte	0x46
 3204 0645 00       		.byte	0
 3205 0646 13       		.uleb128 0x13
 3206 0647 6E000000 		.4byte	.LVL32
 3207 064b 400E0000 		.4byte	0xe40
 3208 064f 59060000 		.4byte	0x659
 3209 0653 14       		.uleb128 0x14
 3210 0654 01       		.uleb128 0x1
 3211 0655 50       		.byte	0x50
 3212 0656 01       		.uleb128 0x1
 3213 0657 43       		.byte	0x43
 3214 0658 00       		.byte	0
 3215 0659 13       		.uleb128 0x13
 3216 065a 7E000000 		.4byte	.LVL33
 3217 065e 400E0000 		.4byte	0xe40
 3218 0662 6C060000 		.4byte	0x66c
 3219 0666 14       		.uleb128 0x14
 3220 0667 01       		.uleb128 0x1
 3221 0668 50       		.byte	0x50
 3222 0669 01       		.uleb128 0x1
 3223 066a 47       		.byte	0x47
 3224 066b 00       		.byte	0
 3225 066c 15       		.uleb128 0x15
 3226 066d 8E000000 		.4byte	.LVL34
 3227 0671 400E0000 		.4byte	0xe40
 3228 0675 14       		.uleb128 0x14
ARM GAS  C:\Users\MM1005~1\AppData\Local\Temp\ccTXRdVU.s 			page 71


 3229 0676 01       		.uleb128 0x1
 3230 0677 50       		.byte	0x50
 3231 0678 01       		.uleb128 0x1
 3232 0679 44       		.byte	0x44
 3233 067a 00       		.byte	0
 3234 067b 00       		.byte	0
 3235 067c 18       		.uleb128 0x18
 3236 067d FA000000 		.4byte	0xfa
 3237 0681 8C060000 		.4byte	0x68c
 3238 0685 19       		.uleb128 0x19
 3239 0686 6B000000 		.4byte	0x6b
 3240 068a 07       		.byte	0x7
 3241 068b 00       		.byte	0
 3242 068c 06       		.uleb128 0x6
 3243 068d 7C060000 		.4byte	0x67c
 3244 0691 1A       		.uleb128 0x1a
 3245 0692 00000000 		.4byte	.LASF79
 3246 0696 01       		.byte	0x1
 3247 0697 7401     		.2byte	0x174
 3248 0699 00000000 		.4byte	.LFB46
 3249 069d 44000000 		.4byte	.LFE46-.LFB46
 3250 06a1 01       		.uleb128 0x1
 3251 06a2 9C       		.byte	0x9c
 3252 06a3 E6060000 		.4byte	0x6e6
 3253 06a7 17       		.uleb128 0x17
 3254 06a8 77070000 		.4byte	.LASF76
 3255 06ac 01       		.byte	0x1
 3256 06ad 7601     		.2byte	0x176
 3257 06af AC000000 		.4byte	0xac
 3258 06b3 05       		.uleb128 0x5
 3259 06b4 03       		.byte	0x3
 3260 06b5 0A000000 		.4byte	cycle.6722
 3261 06b9 17       		.uleb128 0x17
 3262 06ba CE060000 		.4byte	.LASF80
 3263 06be 01       		.byte	0x1
 3264 06bf 7701     		.2byte	0x177
 3265 06c1 AC000000 		.4byte	0xac
 3266 06c5 05       		.uleb128 0x5
 3267 06c6 03       		.byte	0x3
 3268 06c7 0C000000 		.4byte	led_pos.6723
 3269 06cb 1B       		.uleb128 0x1b
 3270 06cc 20000000 		.4byte	.LVL36
 3271 06d0 400E0000 		.4byte	0xe40
 3272 06d4 15       		.uleb128 0x15
 3273 06d5 38000000 		.4byte	.LVL38
 3274 06d9 400E0000 		.4byte	0xe40
 3275 06dd 14       		.uleb128 0x14
 3276 06de 01       		.uleb128 0x1
 3277 06df 51       		.byte	0x51
 3278 06e0 03       		.uleb128 0x3
 3279 06e1 0A       		.byte	0xa
 3280 06e2 FF0F     		.2byte	0xfff
 3281 06e4 00       		.byte	0
 3282 06e5 00       		.byte	0
 3283 06e6 16       		.uleb128 0x16
 3284 06e7 0E020000 		.4byte	.LASF81
 3285 06eb 01       		.byte	0x1
ARM GAS  C:\Users\MM1005~1\AppData\Local\Temp\ccTXRdVU.s 			page 72


 3286 06ec 8A01     		.2byte	0x18a
 3287 06ee 00000000 		.4byte	.LFB47
 3288 06f2 80000000 		.4byte	.LFE47-.LFB47
 3289 06f6 01       		.uleb128 0x1
 3290 06f7 9C       		.byte	0x9c
 3291 06f8 C4070000 		.4byte	0x7c4
 3292 06fc 17       		.uleb128 0x17
 3293 06fd 39010000 		.4byte	.LASF82
 3294 0701 01       		.byte	0x1
 3295 0702 8C01     		.2byte	0x18c
 3296 0704 A0000000 		.4byte	0xa0
 3297 0708 05       		.uleb128 0x5
 3298 0709 03       		.byte	0x3
 3299 070a 0E000000 		.4byte	intensity_left_index.6726
 3300 070e 17       		.uleb128 0x17
 3301 070f 7D020000 		.4byte	.LASF83
 3302 0713 01       		.byte	0x1
 3303 0714 8D01     		.2byte	0x18d
 3304 0716 A0000000 		.4byte	0xa0
 3305 071a 05       		.uleb128 0x5
 3306 071b 03       		.byte	0x3
 3307 071c 01000000 		.4byte	intensity_right_index.6727
 3308 0720 1C       		.uleb128 0x1c
 3309 0721 F0020000 		.4byte	.LASF84
 3310 0725 01       		.byte	0x1
 3311 0726 8E01     		.2byte	0x18e
 3312 0728 C4000000 		.4byte	0xc4
 3313 072c 07       		.byte	0x7
 3314 072d 1D       		.uleb128 0x1d
 3315 072e 6900     		.ascii	"i\000"
 3316 0730 01       		.byte	0x1
 3317 0731 8F01     		.2byte	0x18f
 3318 0733 25000000 		.4byte	0x25
 3319 0737 00000000 		.4byte	.LLST0
 3320 073b 13       		.uleb128 0x13
 3321 073c 18000000 		.4byte	.LVL41
 3322 0740 400E0000 		.4byte	0xe40
 3323 0744 4F070000 		.4byte	0x74f
 3324 0748 14       		.uleb128 0x14
 3325 0749 01       		.uleb128 0x1
 3326 074a 50       		.byte	0x50
 3327 074b 02       		.uleb128 0x2
 3328 074c 74       		.byte	0x74
 3329 074d 00       		.sleb128 0
 3330 074e 00       		.byte	0
 3331 074f 13       		.uleb128 0x13
 3332 0750 34000000 		.4byte	.LVL45
 3333 0754 400E0000 		.4byte	0xe40
 3334 0758 63070000 		.4byte	0x763
 3335 075c 14       		.uleb128 0x14
 3336 075d 01       		.uleb128 0x1
 3337 075e 50       		.byte	0x50
 3338 075f 02       		.uleb128 0x2
 3339 0760 74       		.byte	0x74
 3340 0761 00       		.sleb128 0
 3341 0762 00       		.byte	0
 3342 0763 13       		.uleb128 0x13
ARM GAS  C:\Users\MM1005~1\AppData\Local\Temp\ccTXRdVU.s 			page 73


 3343 0764 54000000 		.4byte	.LVL48
 3344 0768 400E0000 		.4byte	0xe40
 3345 076c 7C070000 		.4byte	0x77c
 3346 0770 14       		.uleb128 0x14
 3347 0771 01       		.uleb128 0x1
 3348 0772 51       		.byte	0x51
 3349 0773 02       		.uleb128 0x2
 3350 0774 74       		.byte	0x74
 3351 0775 00       		.sleb128 0
 3352 0776 14       		.uleb128 0x14
 3353 0777 01       		.uleb128 0x1
 3354 0778 50       		.byte	0x50
 3355 0779 01       		.uleb128 0x1
 3356 077a 45       		.byte	0x45
 3357 077b 00       		.byte	0
 3358 077c 13       		.uleb128 0x13
 3359 077d 5C000000 		.4byte	.LVL49
 3360 0781 400E0000 		.4byte	0xe40
 3361 0785 95070000 		.4byte	0x795
 3362 0789 14       		.uleb128 0x14
 3363 078a 01       		.uleb128 0x1
 3364 078b 51       		.byte	0x51
 3365 078c 02       		.uleb128 0x2
 3366 078d 74       		.byte	0x74
 3367 078e 00       		.sleb128 0
 3368 078f 14       		.uleb128 0x14
 3369 0790 01       		.uleb128 0x1
 3370 0791 50       		.byte	0x50
 3371 0792 01       		.uleb128 0x1
 3372 0793 46       		.byte	0x46
 3373 0794 00       		.byte	0
 3374 0795 13       		.uleb128 0x13
 3375 0796 64000000 		.4byte	.LVL50
 3376 079a 400E0000 		.4byte	0xe40
 3377 079e AE070000 		.4byte	0x7ae
 3378 07a2 14       		.uleb128 0x14
 3379 07a3 01       		.uleb128 0x1
 3380 07a4 51       		.byte	0x51
 3381 07a5 02       		.uleb128 0x2
 3382 07a6 74       		.byte	0x74
 3383 07a7 00       		.sleb128 0
 3384 07a8 14       		.uleb128 0x14
 3385 07a9 01       		.uleb128 0x1
 3386 07aa 50       		.byte	0x50
 3387 07ab 01       		.uleb128 0x1
 3388 07ac 42       		.byte	0x42
 3389 07ad 00       		.byte	0
 3390 07ae 15       		.uleb128 0x15
 3391 07af 6C000000 		.4byte	.LVL51
 3392 07b3 400E0000 		.4byte	0xe40
 3393 07b7 14       		.uleb128 0x14
 3394 07b8 01       		.uleb128 0x1
 3395 07b9 51       		.byte	0x51
 3396 07ba 02       		.uleb128 0x2
 3397 07bb 74       		.byte	0x74
 3398 07bc 00       		.sleb128 0
 3399 07bd 14       		.uleb128 0x14
ARM GAS  C:\Users\MM1005~1\AppData\Local\Temp\ccTXRdVU.s 			page 74


 3400 07be 01       		.uleb128 0x1
 3401 07bf 50       		.byte	0x50
 3402 07c0 01       		.uleb128 0x1
 3403 07c1 43       		.byte	0x43
 3404 07c2 00       		.byte	0
 3405 07c3 00       		.byte	0
 3406 07c4 0E       		.uleb128 0xe
 3407 07c5 E8050000 		.4byte	.LASF85
 3408 07c9 01       		.byte	0x1
 3409 07ca F0       		.byte	0xf0
 3410 07cb 00000000 		.4byte	.LFB41
 3411 07cf 48000000 		.4byte	.LFE41-.LFB41
 3412 07d3 01       		.uleb128 0x1
 3413 07d4 9C       		.byte	0x9c
 3414 07d5 27080000 		.4byte	0x827
 3415 07d9 10       		.uleb128 0x10
 3416 07da B8060000 		.4byte	.LASF86
 3417 07de 01       		.byte	0x1
 3418 07df F2       		.byte	0xf2
 3419 07e0 A0000000 		.4byte	0xa0
 3420 07e4 05       		.uleb128 0x5
 3421 07e5 03       		.byte	0x3
 3422 07e6 0F000000 		.4byte	intensity_white_index.6692
 3423 07ea 10       		.uleb128 0x10
 3424 07eb 06010000 		.4byte	.LASF87
 3425 07ef 01       		.byte	0x1
 3426 07f0 F3       		.byte	0xf3
 3427 07f1 A0000000 		.4byte	0xa0
 3428 07f5 05       		.uleb128 0x5
 3429 07f6 03       		.byte	0x3
 3430 07f7 02000000 		.4byte	intensity_color_index.6693
 3431 07fb 1B       		.uleb128 0x1b
 3432 07fc 16000000 		.4byte	.LVL52
 3433 0800 560E0000 		.4byte	0xe56
 3434 0804 13       		.uleb128 0x13
 3435 0805 26000000 		.4byte	.LVL53
 3436 0809 400E0000 		.4byte	0xe40
 3437 080d 17080000 		.4byte	0x817
 3438 0811 14       		.uleb128 0x14
 3439 0812 01       		.uleb128 0x1
 3440 0813 50       		.byte	0x50
 3441 0814 01       		.uleb128 0x1
 3442 0815 45       		.byte	0x45
 3443 0816 00       		.byte	0
 3444 0817 15       		.uleb128 0x15
 3445 0818 38000000 		.4byte	.LVL54
 3446 081c 400E0000 		.4byte	0xe40
 3447 0820 14       		.uleb128 0x14
 3448 0821 01       		.uleb128 0x1
 3449 0822 50       		.byte	0x50
 3450 0823 01       		.uleb128 0x1
 3451 0824 45       		.byte	0x45
 3452 0825 00       		.byte	0
 3453 0826 00       		.byte	0
 3454 0827 16       		.uleb128 0x16
 3455 0828 AC080000 		.4byte	.LASF88
 3456 082c 01       		.byte	0x1
ARM GAS  C:\Users\MM1005~1\AppData\Local\Temp\ccTXRdVU.s 			page 75


 3457 082d 0301     		.2byte	0x103
 3458 082f 00000000 		.4byte	.LFB42
 3459 0833 48000000 		.4byte	.LFE42-.LFB42
 3460 0837 01       		.uleb128 0x1
 3461 0838 9C       		.byte	0x9c
 3462 0839 8D080000 		.4byte	0x88d
 3463 083d 17       		.uleb128 0x17
 3464 083e B8060000 		.4byte	.LASF86
 3465 0842 01       		.byte	0x1
 3466 0843 0501     		.2byte	0x105
 3467 0845 A0000000 		.4byte	0xa0
 3468 0849 05       		.uleb128 0x5
 3469 084a 03       		.byte	0x3
 3470 084b 10000000 		.4byte	intensity_white_index.6697
 3471 084f 17       		.uleb128 0x17
 3472 0850 06010000 		.4byte	.LASF87
 3473 0854 01       		.byte	0x1
 3474 0855 0601     		.2byte	0x106
 3475 0857 A0000000 		.4byte	0xa0
 3476 085b 05       		.uleb128 0x5
 3477 085c 03       		.byte	0x3
 3478 085d 03000000 		.4byte	intensity_color_index.6698
 3479 0861 1B       		.uleb128 0x1b
 3480 0862 16000000 		.4byte	.LVL55
 3481 0866 560E0000 		.4byte	0xe56
 3482 086a 13       		.uleb128 0x13
 3483 086b 26000000 		.4byte	.LVL56
 3484 086f 400E0000 		.4byte	0xe40
 3485 0873 7D080000 		.4byte	0x87d
 3486 0877 14       		.uleb128 0x14
 3487 0878 01       		.uleb128 0x1
 3488 0879 50       		.byte	0x50
 3489 087a 01       		.uleb128 0x1
 3490 087b 46       		.byte	0x46
 3491 087c 00       		.byte	0
 3492 087d 15       		.uleb128 0x15
 3493 087e 38000000 		.4byte	.LVL57
 3494 0882 400E0000 		.4byte	0xe40
 3495 0886 14       		.uleb128 0x14
 3496 0887 01       		.uleb128 0x1
 3497 0888 50       		.byte	0x50
 3498 0889 01       		.uleb128 0x1
 3499 088a 46       		.byte	0x46
 3500 088b 00       		.byte	0
 3501 088c 00       		.byte	0
 3502 088d 16       		.uleb128 0x16
 3503 088e 5A070000 		.4byte	.LASF89
 3504 0892 01       		.byte	0x1
 3505 0893 1501     		.2byte	0x115
 3506 0895 00000000 		.4byte	.LFB43
 3507 0899 48000000 		.4byte	.LFE43-.LFB43
 3508 089d 01       		.uleb128 0x1
 3509 089e 9C       		.byte	0x9c
 3510 089f F3080000 		.4byte	0x8f3
 3511 08a3 17       		.uleb128 0x17
 3512 08a4 B8060000 		.4byte	.LASF86
 3513 08a8 01       		.byte	0x1
ARM GAS  C:\Users\MM1005~1\AppData\Local\Temp\ccTXRdVU.s 			page 76


 3514 08a9 1701     		.2byte	0x117
 3515 08ab A0000000 		.4byte	0xa0
 3516 08af 05       		.uleb128 0x5
 3517 08b0 03       		.byte	0x3
 3518 08b1 11000000 		.4byte	intensity_white_index.6702
 3519 08b5 17       		.uleb128 0x17
 3520 08b6 06010000 		.4byte	.LASF87
 3521 08ba 01       		.byte	0x1
 3522 08bb 1801     		.2byte	0x118
 3523 08bd A0000000 		.4byte	0xa0
 3524 08c1 05       		.uleb128 0x5
 3525 08c2 03       		.byte	0x3
 3526 08c3 04000000 		.4byte	intensity_color_index.6703
 3527 08c7 1B       		.uleb128 0x1b
 3528 08c8 16000000 		.4byte	.LVL58
 3529 08cc 560E0000 		.4byte	0xe56
 3530 08d0 13       		.uleb128 0x13
 3531 08d1 26000000 		.4byte	.LVL59
 3532 08d5 400E0000 		.4byte	0xe40
 3533 08d9 E3080000 		.4byte	0x8e3
 3534 08dd 14       		.uleb128 0x14
 3535 08de 01       		.uleb128 0x1
 3536 08df 50       		.byte	0x50
 3537 08e0 01       		.uleb128 0x1
 3538 08e1 47       		.byte	0x47
 3539 08e2 00       		.byte	0
 3540 08e3 15       		.uleb128 0x15
 3541 08e4 38000000 		.4byte	.LVL60
 3542 08e8 400E0000 		.4byte	0xe40
 3543 08ec 14       		.uleb128 0x14
 3544 08ed 01       		.uleb128 0x1
 3545 08ee 50       		.byte	0x50
 3546 08ef 01       		.uleb128 0x1
 3547 08f0 47       		.byte	0x47
 3548 08f1 00       		.byte	0
 3549 08f2 00       		.byte	0
 3550 08f3 1A       		.uleb128 0x1a
 3551 08f4 4E010000 		.4byte	.LASF90
 3552 08f8 01       		.byte	0x1
 3553 08f9 AC01     		.2byte	0x1ac
 3554 08fb 00000000 		.4byte	.LFB48
 3555 08ff D8000000 		.4byte	.LFE48-.LFB48
 3556 0903 01       		.uleb128 0x1
 3557 0904 9C       		.byte	0x9c
 3558 0905 440A0000 		.4byte	0xa44
 3559 0909 17       		.uleb128 0x17
 3560 090a 77070000 		.4byte	.LASF76
 3561 090e 01       		.byte	0x1
 3562 090f AE01     		.2byte	0x1ae
 3563 0911 AC000000 		.4byte	0xac
 3564 0915 05       		.uleb128 0x5
 3565 0916 03       		.byte	0x3
 3566 0917 12000000 		.4byte	cycle.6738
 3567 091b 17       		.uleb128 0x17
 3568 091c A8020000 		.4byte	.LASF91
 3569 0920 01       		.byte	0x1
 3570 0921 AF01     		.2byte	0x1af
ARM GAS  C:\Users\MM1005~1\AppData\Local\Temp\ccTXRdVU.s 			page 77


 3571 0923 AC000000 		.4byte	0xac
 3572 0927 05       		.uleb128 0x5
 3573 0928 03       		.byte	0x3
 3574 0929 08000000 		.4byte	right_led.6739
 3575 092d 17       		.uleb128 0x17
 3576 092e 8D060000 		.4byte	.LASF92
 3577 0932 01       		.byte	0x1
 3578 0933 B001     		.2byte	0x1b0
 3579 0935 AC000000 		.4byte	0xac
 3580 0939 05       		.uleb128 0x5
 3581 093a 03       		.byte	0x3
 3582 093b 06000000 		.4byte	left_led.6740
 3583 093f 17       		.uleb128 0x17
 3584 0940 AD040000 		.4byte	.LASF93
 3585 0944 01       		.byte	0x1
 3586 0945 B101     		.2byte	0x1b1
 3587 0947 A0000000 		.4byte	0xa0
 3588 094b 05       		.uleb128 0x5
 3589 094c 03       		.byte	0x3
 3590 094d 0A000000 		.4byte	outward.6741
 3591 0951 17       		.uleb128 0x17
 3592 0952 53030000 		.4byte	.LASF94
 3593 0956 01       		.byte	0x1
 3594 0957 B201     		.2byte	0x1b2
 3595 0959 2A010000 		.4byte	0x12a
 3596 095d 05       		.uleb128 0x5
 3597 095e 03       		.byte	0x3
 3598 095f 14000000 		.4byte	primary_color.6742
 3599 0963 13       		.uleb128 0x13
 3600 0964 1E000000 		.4byte	.LVL62
 3601 0968 560E0000 		.4byte	0xe56
 3602 096c 76090000 		.4byte	0x976
 3603 0970 14       		.uleb128 0x14
 3604 0971 01       		.uleb128 0x1
 3605 0972 50       		.byte	0x50
 3606 0973 01       		.uleb128 0x1
 3607 0974 30       		.byte	0x30
 3608 0975 00       		.byte	0
 3609 0976 13       		.uleb128 0x13
 3610 0977 2A000000 		.4byte	.LVL63
 3611 097b 400E0000 		.4byte	0xe40
 3612 097f 8A090000 		.4byte	0x98a
 3613 0983 14       		.uleb128 0x14
 3614 0984 01       		.uleb128 0x1
 3615 0985 51       		.byte	0x51
 3616 0986 02       		.uleb128 0x2
 3617 0987 75       		.byte	0x75
 3618 0988 00       		.sleb128 0
 3619 0989 00       		.byte	0
 3620 098a 13       		.uleb128 0x13
 3621 098b 32000000 		.4byte	.LVL64
 3622 098f 400E0000 		.4byte	0xe40
 3623 0993 9E090000 		.4byte	0x99e
 3624 0997 14       		.uleb128 0x14
 3625 0998 01       		.uleb128 0x1
 3626 0999 51       		.byte	0x51
 3627 099a 02       		.uleb128 0x2
ARM GAS  C:\Users\MM1005~1\AppData\Local\Temp\ccTXRdVU.s 			page 78


 3628 099b 75       		.byte	0x75
 3629 099c 00       		.sleb128 0
 3630 099d 00       		.byte	0
 3631 099e 13       		.uleb128 0x13
 3632 099f 80000000 		.4byte	.LVL66
 3633 09a3 670E0000 		.4byte	0xe67
 3634 09a7 B1090000 		.4byte	0x9b1
 3635 09ab 14       		.uleb128 0x14
 3636 09ac 01       		.uleb128 0x1
 3637 09ad 50       		.byte	0x50
 3638 09ae 01       		.uleb128 0x1
 3639 09af 30       		.byte	0x30
 3640 09b0 00       		.byte	0
 3641 09b1 13       		.uleb128 0x13
 3642 09b2 9A000000 		.4byte	.LVL67
 3643 09b6 400E0000 		.4byte	0xe40
 3644 09ba CA090000 		.4byte	0x9ca
 3645 09be 14       		.uleb128 0x14
 3646 09bf 01       		.uleb128 0x1
 3647 09c0 51       		.byte	0x51
 3648 09c1 02       		.uleb128 0x2
 3649 09c2 75       		.byte	0x75
 3650 09c3 00       		.sleb128 0
 3651 09c4 14       		.uleb128 0x14
 3652 09c5 01       		.uleb128 0x1
 3653 09c6 50       		.byte	0x50
 3654 09c7 01       		.uleb128 0x1
 3655 09c8 45       		.byte	0x45
 3656 09c9 00       		.byte	0
 3657 09ca 13       		.uleb128 0x13
 3658 09cb A2000000 		.4byte	.LVL68
 3659 09cf 400E0000 		.4byte	0xe40
 3660 09d3 E3090000 		.4byte	0x9e3
 3661 09d7 14       		.uleb128 0x14
 3662 09d8 01       		.uleb128 0x1
 3663 09d9 51       		.byte	0x51
 3664 09da 02       		.uleb128 0x2
 3665 09db 75       		.byte	0x75
 3666 09dc 00       		.sleb128 0
 3667 09dd 14       		.uleb128 0x14
 3668 09de 01       		.uleb128 0x1
 3669 09df 50       		.byte	0x50
 3670 09e0 01       		.uleb128 0x1
 3671 09e1 42       		.byte	0x42
 3672 09e2 00       		.byte	0
 3673 09e3 13       		.uleb128 0x13
 3674 09e4 AE000000 		.4byte	.LVL69
 3675 09e8 400E0000 		.4byte	0xe40
 3676 09ec FC090000 		.4byte	0x9fc
 3677 09f0 14       		.uleb128 0x14
 3678 09f1 01       		.uleb128 0x1
 3679 09f2 51       		.byte	0x51
 3680 09f3 02       		.uleb128 0x2
 3681 09f4 74       		.byte	0x74
 3682 09f5 00       		.sleb128 0
 3683 09f6 14       		.uleb128 0x14
 3684 09f7 01       		.uleb128 0x1
ARM GAS  C:\Users\MM1005~1\AppData\Local\Temp\ccTXRdVU.s 			page 79


 3685 09f8 50       		.byte	0x50
 3686 09f9 01       		.uleb128 0x1
 3687 09fa 46       		.byte	0x46
 3688 09fb 00       		.byte	0
 3689 09fc 13       		.uleb128 0x13
 3690 09fd B6000000 		.4byte	.LVL70
 3691 0a01 400E0000 		.4byte	0xe40
 3692 0a05 150A0000 		.4byte	0xa15
 3693 0a09 14       		.uleb128 0x14
 3694 0a0a 01       		.uleb128 0x1
 3695 0a0b 51       		.byte	0x51
 3696 0a0c 02       		.uleb128 0x2
 3697 0a0d 74       		.byte	0x74
 3698 0a0e 00       		.sleb128 0
 3699 0a0f 14       		.uleb128 0x14
 3700 0a10 01       		.uleb128 0x1
 3701 0a11 50       		.byte	0x50
 3702 0a12 01       		.uleb128 0x1
 3703 0a13 43       		.byte	0x43
 3704 0a14 00       		.byte	0
 3705 0a15 13       		.uleb128 0x13
 3706 0a16 C2000000 		.4byte	.LVL71
 3707 0a1a 400E0000 		.4byte	0xe40
 3708 0a1e 2E0A0000 		.4byte	0xa2e
 3709 0a22 14       		.uleb128 0x14
 3710 0a23 01       		.uleb128 0x1
 3711 0a24 51       		.byte	0x51
 3712 0a25 02       		.uleb128 0x2
 3713 0a26 74       		.byte	0x74
 3714 0a27 00       		.sleb128 0
 3715 0a28 14       		.uleb128 0x14
 3716 0a29 01       		.uleb128 0x1
 3717 0a2a 50       		.byte	0x50
 3718 0a2b 01       		.uleb128 0x1
 3719 0a2c 47       		.byte	0x47
 3720 0a2d 00       		.byte	0
 3721 0a2e 15       		.uleb128 0x15
 3722 0a2f CA000000 		.4byte	.LVL72
 3723 0a33 400E0000 		.4byte	0xe40
 3724 0a37 14       		.uleb128 0x14
 3725 0a38 01       		.uleb128 0x1
 3726 0a39 51       		.byte	0x51
 3727 0a3a 02       		.uleb128 0x2
 3728 0a3b 74       		.byte	0x74
 3729 0a3c 00       		.sleb128 0
 3730 0a3d 14       		.uleb128 0x14
 3731 0a3e 01       		.uleb128 0x1
 3732 0a3f 50       		.byte	0x50
 3733 0a40 01       		.uleb128 0x1
 3734 0a41 44       		.byte	0x44
 3735 0a42 00       		.byte	0
 3736 0a43 00       		.byte	0
 3737 0a44 0E       		.uleb128 0xe
 3738 0a45 05030000 		.4byte	.LASF95
 3739 0a49 01       		.byte	0x1
 3740 0a4a B5       		.byte	0xb5
 3741 0a4b 00000000 		.4byte	.LFB37
ARM GAS  C:\Users\MM1005~1\AppData\Local\Temp\ccTXRdVU.s 			page 80


 3742 0a4f 10000000 		.4byte	.LFE37-.LFB37
 3743 0a53 01       		.uleb128 0x1
 3744 0a54 9C       		.byte	0x9c
 3745 0a55 700A0000 		.4byte	0xa70
 3746 0a59 15       		.uleb128 0x15
 3747 0a5a 0A000000 		.4byte	.LVL73
 3748 0a5e 400E0000 		.4byte	0xe40
 3749 0a62 14       		.uleb128 0x14
 3750 0a63 01       		.uleb128 0x1
 3751 0a64 51       		.byte	0x51
 3752 0a65 03       		.uleb128 0x3
 3753 0a66 0A       		.byte	0xa
 3754 0a67 FF0F     		.2byte	0xfff
 3755 0a69 14       		.uleb128 0x14
 3756 0a6a 01       		.uleb128 0x1
 3757 0a6b 50       		.byte	0x50
 3758 0a6c 01       		.uleb128 0x1
 3759 0a6d 3E       		.byte	0x3e
 3760 0a6e 00       		.byte	0
 3761 0a6f 00       		.byte	0
 3762 0a70 16       		.uleb128 0x16
 3763 0a71 A8050000 		.4byte	.LASF96
 3764 0a75 01       		.byte	0x1
 3765 0a76 2701     		.2byte	0x127
 3766 0a78 00000000 		.4byte	.LFB44
 3767 0a7c 8C000000 		.4byte	.LFE44-.LFB44
 3768 0a80 01       		.uleb128 0x1
 3769 0a81 9C       		.byte	0x9c
 3770 0a82 360B0000 		.4byte	0xb36
 3771 0a86 1E       		.uleb128 0x1e
 3772 0a87 C0030000 		.4byte	.LASF100
 3773 0a8b 01       		.byte	0x1
 3774 0a8c 2701     		.2byte	0x127
 3775 0a8e 2A010000 		.4byte	0x12a
 3776 0a92 2A000000 		.4byte	.LLST1
 3777 0a96 17       		.uleb128 0x17
 3778 0a97 FB020000 		.4byte	.LASF97
 3779 0a9b 01       		.byte	0x1
 3780 0a9c 2901     		.2byte	0x129
 3781 0a9e AC000000 		.4byte	0xac
 3782 0aa2 05       		.uleb128 0x5
 3783 0aa3 03       		.byte	0x3
 3784 0aa4 16000000 		.4byte	intensity.6707
 3785 0aa8 17       		.uleb128 0x17
 3786 0aa9 4B090000 		.4byte	.LASF66
 3787 0aad 01       		.byte	0x1
 3788 0aae 2A01     		.2byte	0x12a
 3789 0ab0 A0000000 		.4byte	0xa0
 3790 0ab4 05       		.uleb128 0x5
 3791 0ab5 03       		.byte	0x3
 3792 0ab6 0B000000 		.4byte	intensity_up.6708
 3793 0aba 1C       		.uleb128 0x1c
 3794 0abb 10040000 		.4byte	.LASF98
 3795 0abf 01       		.byte	0x1
 3796 0ac0 2B01     		.2byte	0x12b
 3797 0ac2 AC000000 		.4byte	0xac
 3798 0ac6 01       		.byte	0x1
ARM GAS  C:\Users\MM1005~1\AppData\Local\Temp\ccTXRdVU.s 			page 81


 3799 0ac7 13       		.uleb128 0x13
 3800 0ac8 1A000000 		.4byte	.LVL77
 3801 0acc 400E0000 		.4byte	0xe40
 3802 0ad0 DA0A0000 		.4byte	0xada
 3803 0ad4 14       		.uleb128 0x14
 3804 0ad5 01       		.uleb128 0x1
 3805 0ad6 50       		.byte	0x50
 3806 0ad7 01       		.uleb128 0x1
 3807 0ad8 45       		.byte	0x45
 3808 0ad9 00       		.byte	0
 3809 0ada 13       		.uleb128 0x13
 3810 0adb 22000000 		.4byte	.LVL78
 3811 0adf 400E0000 		.4byte	0xe40
 3812 0ae3 ED0A0000 		.4byte	0xaed
 3813 0ae7 14       		.uleb128 0x14
 3814 0ae8 01       		.uleb128 0x1
 3815 0ae9 50       		.byte	0x50
 3816 0aea 01       		.uleb128 0x1
 3817 0aeb 42       		.byte	0x42
 3818 0aec 00       		.byte	0
 3819 0aed 13       		.uleb128 0x13
 3820 0aee 2E000000 		.4byte	.LVL81
 3821 0af2 400E0000 		.4byte	0xe40
 3822 0af6 000B0000 		.4byte	0xb00
 3823 0afa 14       		.uleb128 0x14
 3824 0afb 01       		.uleb128 0x1
 3825 0afc 50       		.byte	0x50
 3826 0afd 01       		.uleb128 0x1
 3827 0afe 46       		.byte	0x46
 3828 0aff 00       		.byte	0
 3829 0b00 13       		.uleb128 0x13
 3830 0b01 36000000 		.4byte	.LVL82
 3831 0b05 400E0000 		.4byte	0xe40
 3832 0b09 130B0000 		.4byte	0xb13
 3833 0b0d 14       		.uleb128 0x14
 3834 0b0e 01       		.uleb128 0x1
 3835 0b0f 50       		.byte	0x50
 3836 0b10 01       		.uleb128 0x1
 3837 0b11 43       		.byte	0x43
 3838 0b12 00       		.byte	0
 3839 0b13 13       		.uleb128 0x13
 3840 0b14 42000000 		.4byte	.LVL85
 3841 0b18 400E0000 		.4byte	0xe40
 3842 0b1c 260B0000 		.4byte	0xb26
 3843 0b20 14       		.uleb128 0x14
 3844 0b21 01       		.uleb128 0x1
 3845 0b22 50       		.byte	0x50
 3846 0b23 01       		.uleb128 0x1
 3847 0b24 47       		.byte	0x47
 3848 0b25 00       		.byte	0
 3849 0b26 15       		.uleb128 0x15
 3850 0b27 4A000000 		.4byte	.LVL86
 3851 0b2b 400E0000 		.4byte	0xe40
 3852 0b2f 14       		.uleb128 0x14
 3853 0b30 01       		.uleb128 0x1
 3854 0b31 50       		.byte	0x50
 3855 0b32 01       		.uleb128 0x1
ARM GAS  C:\Users\MM1005~1\AppData\Local\Temp\ccTXRdVU.s 			page 82


 3856 0b33 44       		.byte	0x44
 3857 0b34 00       		.byte	0
 3858 0b35 00       		.byte	0
 3859 0b36 1A       		.uleb128 0x1a
 3860 0b37 CB070000 		.4byte	.LASF99
 3861 0b3b 01       		.byte	0x1
 3862 0b3c E001     		.2byte	0x1e0
 3863 0b3e 00000000 		.4byte	.LFB49
 3864 0b42 B4000000 		.4byte	.LFE49-.LFB49
 3865 0b46 01       		.uleb128 0x1
 3866 0b47 9C       		.byte	0x9c
 3867 0b48 E20B0000 		.4byte	0xbe2
 3868 0b4c 1E       		.uleb128 0x1e
 3869 0b4d 69020000 		.4byte	.LASF101
 3870 0b51 01       		.byte	0x1
 3871 0b52 E001     		.2byte	0x1e0
 3872 0b54 AC000000 		.4byte	0xac
 3873 0b58 7D000000 		.4byte	.LLST2
 3874 0b5c 17       		.uleb128 0x17
 3875 0b5d CA080000 		.4byte	.LASF102
 3876 0b61 01       		.byte	0x1
 3877 0b62 E201     		.2byte	0x1e2
 3878 0b64 AC000000 		.4byte	0xac
 3879 0b68 05       		.uleb128 0x5
 3880 0b69 03       		.byte	0x3
 3881 0b6a 0C000000 		.4byte	led_up.6751
 3882 0b6e 17       		.uleb128 0x17
 3883 0b6f 8D060000 		.4byte	.LASF92
 3884 0b73 01       		.byte	0x1
 3885 0b74 E301     		.2byte	0x1e3
 3886 0b76 AC000000 		.4byte	0xac
 3887 0b7a 05       		.uleb128 0x5
 3888 0b7b 03       		.byte	0x3
 3889 0b7c 10000000 		.4byte	left_led.6752
 3890 0b80 17       		.uleb128 0x17
 3891 0b81 A8020000 		.4byte	.LASF91
 3892 0b85 01       		.byte	0x1
 3893 0b86 E401     		.2byte	0x1e4
 3894 0b88 AC000000 		.4byte	0xac
 3895 0b8c 05       		.uleb128 0x5
 3896 0b8d 03       		.byte	0x3
 3897 0b8e 0E000000 		.4byte	right_led.6753
 3898 0b92 17       		.uleb128 0x17
 3899 0b93 2E040000 		.4byte	.LASF103
 3900 0b97 01       		.byte	0x1
 3901 0b98 E501     		.2byte	0x1e5
 3902 0b9a A0000000 		.4byte	0xa0
 3903 0b9e 05       		.uleb128 0x5
 3904 0b9f 03       		.byte	0x3
 3905 0ba0 1A000000 		.4byte	left_index.6754
 3906 0ba4 17       		.uleb128 0x17
 3907 0ba5 0C080000 		.4byte	.LASF104
 3908 0ba9 01       		.byte	0x1
 3909 0baa E601     		.2byte	0x1e6
 3910 0bac A0000000 		.4byte	0xa0
 3911 0bb0 05       		.uleb128 0x5
 3912 0bb1 03       		.byte	0x3
ARM GAS  C:\Users\MM1005~1\AppData\Local\Temp\ccTXRdVU.s 			page 83


 3913 0bb2 12000000 		.4byte	right_index.6755
 3914 0bb6 17       		.uleb128 0x17
 3915 0bb7 77070000 		.4byte	.LASF76
 3916 0bbb 01       		.byte	0x1
 3917 0bbc E701     		.2byte	0x1e7
 3918 0bbe AC000000 		.4byte	0xac
 3919 0bc2 05       		.uleb128 0x5
 3920 0bc3 03       		.byte	0x3
 3921 0bc4 18000000 		.4byte	cycle.6756
 3922 0bc8 1D       		.uleb128 0x1d
 3923 0bc9 746D7000 		.ascii	"tmp\000"
 3924 0bcd 01       		.byte	0x1
 3925 0bce E801     		.2byte	0x1e8
 3926 0bd0 AC000000 		.4byte	0xac
 3927 0bd4 9E000000 		.4byte	.LLST3
 3928 0bd8 1B       		.uleb128 0x1b
 3929 0bd9 A4000000 		.4byte	.LVL95
 3930 0bdd 780E0000 		.4byte	0xe78
 3931 0be1 00       		.byte	0
 3932 0be2 16       		.uleb128 0x16
 3933 0be3 12070000 		.4byte	.LASF105
 3934 0be7 01       		.byte	0x1
 3935 0be8 2502     		.2byte	0x225
 3936 0bea 00000000 		.4byte	.LFB50
 3937 0bee 1C000000 		.4byte	.LFE50-.LFB50
 3938 0bf2 01       		.uleb128 0x1
 3939 0bf3 9C       		.byte	0x9c
 3940 0bf4 020C0000 		.4byte	0xc02
 3941 0bf8 1B       		.uleb128 0x1b
 3942 0bf9 14000000 		.4byte	.LVL96
 3943 0bfd 360B0000 		.4byte	0xb36
 3944 0c01 00       		.byte	0
 3945 0c02 16       		.uleb128 0x16
 3946 0c03 99010000 		.4byte	.LASF106
 3947 0c07 01       		.byte	0x1
 3948 0c08 2D02     		.2byte	0x22d
 3949 0c0a 00000000 		.4byte	.LFB51
 3950 0c0e 1C000000 		.4byte	.LFE51-.LFB51
 3951 0c12 01       		.uleb128 0x1
 3952 0c13 9C       		.byte	0x9c
 3953 0c14 220C0000 		.4byte	0xc22
 3954 0c18 1B       		.uleb128 0x1b
 3955 0c19 16000000 		.4byte	.LVL97
 3956 0c1d 360B0000 		.4byte	0xb36
 3957 0c21 00       		.byte	0
 3958 0c22 16       		.uleb128 0x16
 3959 0c23 C0050000 		.4byte	.LASF107
 3960 0c27 01       		.byte	0x1
 3961 0c28 3502     		.2byte	0x235
 3962 0c2a 00000000 		.4byte	.LFB52
 3963 0c2e 30000000 		.4byte	.LFE52-.LFB52
 3964 0c32 01       		.uleb128 0x1
 3965 0c33 9C       		.byte	0x9c
 3966 0c34 570C0000 		.4byte	0xc57
 3967 0c38 1E       		.uleb128 0x1e
 3968 0c39 75010000 		.4byte	.LASF108
 3969 0c3d 01       		.byte	0x1
ARM GAS  C:\Users\MM1005~1\AppData\Local\Temp\ccTXRdVU.s 			page 84


 3970 0c3e 3502     		.2byte	0x235
 3971 0c40 CD010000 		.4byte	0x1cd
 3972 0c44 DE000000 		.4byte	.LLST4
 3973 0c48 1F       		.uleb128 0x1f
 3974 0c49 59040000 		.4byte	.LASF109
 3975 0c4d 01       		.byte	0x1
 3976 0c4e 3502     		.2byte	0x235
 3977 0c50 570C0000 		.4byte	0xc57
 3978 0c54 01       		.uleb128 0x1
 3979 0c55 51       		.byte	0x51
 3980 0c56 00       		.byte	0
 3981 0c57 04       		.uleb128 0x4
 3982 0c58 04       		.byte	0x4
 3983 0c59 2B020000 		.4byte	0x22b
 3984 0c5d 20       		.uleb128 0x20
 3985 0c5e 81090000 		.4byte	.LASF112
 3986 0c62 01       		.byte	0x1
 3987 0c63 4102     		.2byte	0x241
 3988 0c65 A0000000 		.4byte	0xa0
 3989 0c69 00000000 		.4byte	.LFB53
 3990 0c6d 0C000000 		.4byte	.LFE53-.LFB53
 3991 0c71 01       		.uleb128 0x1
 3992 0c72 9C       		.byte	0x9c
 3993 0c73 16       		.uleb128 0x16
 3994 0c74 7A080000 		.4byte	.LASF110
 3995 0c78 01       		.byte	0x1
 3996 0c79 4902     		.2byte	0x249
 3997 0c7b 00000000 		.4byte	.LFB54
 3998 0c7f 0C000000 		.4byte	.LFE54-.LFB54
 3999 0c83 01       		.uleb128 0x1
 4000 0c84 9C       		.byte	0x9c
 4001 0c85 980C0000 		.4byte	0xc98
 4002 0c89 1F       		.uleb128 0x1f
 4003 0c8a C5010000 		.4byte	.LASF111
 4004 0c8e 01       		.byte	0x1
 4005 0c8f 4902     		.2byte	0x249
 4006 0c91 A0000000 		.4byte	0xa0
 4007 0c95 01       		.uleb128 0x1
 4008 0c96 50       		.byte	0x50
 4009 0c97 00       		.byte	0
 4010 0c98 20       		.uleb128 0x20
 4011 0c99 39040000 		.4byte	.LASF113
 4012 0c9d 01       		.byte	0x1
 4013 0c9e 5102     		.2byte	0x251
 4014 0ca0 A0000000 		.4byte	0xa0
 4015 0ca4 00000000 		.4byte	.LFB55
 4016 0ca8 0C000000 		.4byte	.LFE55-.LFB55
 4017 0cac 01       		.uleb128 0x1
 4018 0cad 9C       		.byte	0x9c
 4019 0cae 16       		.uleb128 0x16
 4020 0caf B1000000 		.4byte	.LASF114
 4021 0cb3 01       		.byte	0x1
 4022 0cb4 5902     		.2byte	0x259
 4023 0cb6 00000000 		.4byte	.LFB56
 4024 0cba 40000000 		.4byte	.LFE56-.LFB56
 4025 0cbe 01       		.uleb128 0x1
 4026 0cbf 9C       		.byte	0x9c
ARM GAS  C:\Users\MM1005~1\AppData\Local\Temp\ccTXRdVU.s 			page 85


 4027 0cc0 DE0C0000 		.4byte	0xcde
 4028 0cc4 1E       		.uleb128 0x1e
 4029 0cc5 30020000 		.4byte	.LASF115
 4030 0cc9 01       		.byte	0x1
 4031 0cca 5902     		.2byte	0x259
 4032 0ccc A0000000 		.4byte	0xa0
 4033 0cd0 FF000000 		.4byte	.LLST5
 4034 0cd4 1B       		.uleb128 0x1b
 4035 0cd5 1A000000 		.4byte	.LVL103
 4036 0cd9 930E0000 		.4byte	0xe93
 4037 0cdd 00       		.byte	0
 4038 0cde 20       		.uleb128 0x20
 4039 0cdf 79040000 		.4byte	.LASF116
 4040 0ce3 01       		.byte	0x1
 4041 0ce4 6702     		.2byte	0x267
 4042 0ce6 CD010000 		.4byte	0x1cd
 4043 0cea 00000000 		.4byte	.LFB57
 4044 0cee 0C000000 		.4byte	.LFE57-.LFB57
 4045 0cf2 01       		.uleb128 0x1
 4046 0cf3 9C       		.byte	0x9c
 4047 0cf4 20       		.uleb128 0x20
 4048 0cf5 DF080000 		.4byte	.LASF117
 4049 0cf9 01       		.byte	0x1
 4050 0cfa 6F02     		.2byte	0x26f
 4051 0cfc A0000000 		.4byte	0xa0
 4052 0d00 00000000 		.4byte	.LFB58
 4053 0d04 14000000 		.4byte	.LFE58-.LFB58
 4054 0d08 01       		.uleb128 0x1
 4055 0d09 9C       		.byte	0x9c
 4056 0d0a 16       		.uleb128 0x16
 4057 0d0b E3040000 		.4byte	.LASF118
 4058 0d0f 01       		.byte	0x1
 4059 0d10 7702     		.2byte	0x277
 4060 0d12 00000000 		.4byte	.LFB59
 4061 0d16 60000000 		.4byte	.LFE59-.LFB59
 4062 0d1a 01       		.uleb128 0x1
 4063 0d1b 9C       		.byte	0x9c
 4064 0d1c 8C0D0000 		.4byte	0xd8c
 4065 0d20 1E       		.uleb128 0x1e
 4066 0d21 12090000 		.4byte	.LASF119
 4067 0d25 01       		.byte	0x1
 4068 0d26 7702     		.2byte	0x277
 4069 0d28 CD010000 		.4byte	0x1cd
 4070 0d2c 20010000 		.4byte	.LLST6
 4071 0d30 13       		.uleb128 0x13
 4072 0d31 12000000 		.4byte	.LVL106
 4073 0d35 A90E0000 		.4byte	0xea9
 4074 0d39 550D0000 		.4byte	0xd55
 4075 0d3d 14       		.uleb128 0x14
 4076 0d3e 01       		.uleb128 0x1
 4077 0d3f 52       		.byte	0x52
 4078 0d40 05       		.uleb128 0x5
 4079 0d41 03       		.byte	0x3
 4080 0d42 24000000 		.4byte	.LC40
 4081 0d46 14       		.uleb128 0x14
 4082 0d47 01       		.uleb128 0x1
 4083 0d48 51       		.byte	0x51
ARM GAS  C:\Users\MM1005~1\AppData\Local\Temp\ccTXRdVU.s 			page 86


 4084 0d49 05       		.uleb128 0x5
 4085 0d4a 03       		.byte	0x3
 4086 0d4b 18000000 		.4byte	.LC38
 4087 0d4f 14       		.uleb128 0x14
 4088 0d50 01       		.uleb128 0x1
 4089 0d51 50       		.byte	0x50
 4090 0d52 01       		.uleb128 0x1
 4091 0d53 33       		.byte	0x33
 4092 0d54 00       		.byte	0
 4093 0d55 13       		.uleb128 0x13
 4094 0d56 2A000000 		.4byte	.LVL108
 4095 0d5a 930E0000 		.4byte	0xe93
 4096 0d5e 720D0000 		.4byte	0xd72
 4097 0d62 14       		.uleb128 0x14
 4098 0d63 01       		.uleb128 0x1
 4099 0d64 51       		.byte	0x51
 4100 0d65 05       		.uleb128 0x5
 4101 0d66 03       		.byte	0x3
 4102 0d67 0C000000 		.4byte	.LC32
 4103 0d6b 14       		.uleb128 0x14
 4104 0d6c 01       		.uleb128 0x1
 4105 0d6d 50       		.byte	0x50
 4106 0d6e 02       		.uleb128 0x2
 4107 0d6f 74       		.byte	0x74
 4108 0d70 00       		.sleb128 0
 4109 0d71 00       		.byte	0
 4110 0d72 15       		.uleb128 0x15
 4111 0d73 44000000 		.4byte	.LVL109
 4112 0d77 930E0000 		.4byte	0xe93
 4113 0d7b 14       		.uleb128 0x14
 4114 0d7c 01       		.uleb128 0x1
 4115 0d7d 51       		.byte	0x51
 4116 0d7e 05       		.uleb128 0x5
 4117 0d7f 03       		.byte	0x3
 4118 0d80 3C000000 		.4byte	.LC45
 4119 0d84 14       		.uleb128 0x14
 4120 0d85 01       		.uleb128 0x1
 4121 0d86 50       		.byte	0x50
 4122 0d87 02       		.uleb128 0x2
 4123 0d88 74       		.byte	0x74
 4124 0d89 00       		.sleb128 0
 4125 0d8a 00       		.byte	0
 4126 0d8b 00       		.byte	0
 4127 0d8c 1A       		.uleb128 0x1a
 4128 0d8d B8020000 		.4byte	.LASF120
 4129 0d91 01       		.byte	0x1
 4130 0d92 8C02     		.2byte	0x28c
 4131 0d94 00000000 		.4byte	.LFB60
 4132 0d98 64000000 		.4byte	.LFE60-.LFB60
 4133 0d9c 01       		.uleb128 0x1
 4134 0d9d 9C       		.byte	0x9c
 4135 0d9e C60D0000 		.4byte	0xdc6
 4136 0da2 1E       		.uleb128 0x1e
 4137 0da3 CE020000 		.4byte	.LASF53
 4138 0da7 01       		.byte	0x1
 4139 0da8 8C02     		.2byte	0x28c
 4140 0daa A0000000 		.4byte	0xa0
ARM GAS  C:\Users\MM1005~1\AppData\Local\Temp\ccTXRdVU.s 			page 87


 4141 0dae 5A010000 		.4byte	.LLST7
 4142 0db2 15       		.uleb128 0x15
 4143 0db3 30000000 		.4byte	.LVL112
 4144 0db7 930E0000 		.4byte	0xe93
 4145 0dbb 14       		.uleb128 0x14
 4146 0dbc 01       		.uleb128 0x1
 4147 0dbd 51       		.byte	0x51
 4148 0dbe 05       		.uleb128 0x5
 4149 0dbf 03       		.byte	0x3
 4150 0dc0 48000000 		.4byte	.LC49
 4151 0dc4 00       		.byte	0
 4152 0dc5 00       		.byte	0
 4153 0dc6 18       		.uleb128 0x18
 4154 0dc7 2B020000 		.4byte	0x22b
 4155 0dcb D60D0000 		.4byte	0xdd6
 4156 0dcf 19       		.uleb128 0x19
 4157 0dd0 6B000000 		.4byte	0x6b
 4158 0dd4 0D       		.byte	0xd
 4159 0dd5 00       		.byte	0
 4160 0dd6 10       		.uleb128 0x10
 4161 0dd7 18030000 		.4byte	.LASF121
 4162 0ddb 01       		.byte	0x1
 4163 0ddc 15       		.byte	0x15
 4164 0ddd C60D0000 		.4byte	0xdc6
 4165 0de1 05       		.uleb128 0x5
 4166 0de2 03       		.byte	0x3
 4167 0de3 14000000 		.4byte	vec_call_back_anim
 4168 0de7 18       		.uleb128 0x18
 4169 0de8 AC000000 		.4byte	0xac
 4170 0dec F70D0000 		.4byte	0xdf7
 4171 0df0 19       		.uleb128 0x19
 4172 0df1 6B000000 		.4byte	0x6b
 4173 0df5 FF       		.byte	0xff
 4174 0df6 00       		.byte	0
 4175 0df7 10       		.uleb128 0x10
 4176 0df8 52050000 		.4byte	.LASF122
 4177 0dfc 01       		.byte	0x1
 4178 0dfd 39       		.byte	0x39
 4179 0dfe 080E0000 		.4byte	0xe08
 4180 0e02 05       		.uleb128 0x5
 4181 0e03 03       		.byte	0x3
 4182 0e04 18000000 		.4byte	sine_vec
 4183 0e08 06       		.uleb128 0x6
 4184 0e09 E70D0000 		.4byte	0xde7
 4185 0e0d 10       		.uleb128 0x10
 4186 0e0e 40060000 		.4byte	.LASF123
 4187 0e12 01       		.byte	0x1
 4188 0e13 61       		.byte	0x61
 4189 0e14 A0000000 		.4byte	0xa0
 4190 0e18 05       		.uleb128 0x5
 4191 0e19 03       		.byte	0x3
 4192 0e1a 1B000000 		.4byte	is_auto_anim_rotation_enable
 4193 0e1e 10       		.uleb128 0x10
 4194 0e1f 65090000 		.4byte	.LASF124
 4195 0e23 01       		.byte	0x1
 4196 0e24 62       		.byte	0x62
 4197 0e25 A0000000 		.4byte	0xa0
ARM GAS  C:\Users\MM1005~1\AppData\Local\Temp\ccTXRdVU.s 			page 88


 4198 0e29 05       		.uleb128 0x5
 4199 0e2a 03       		.byte	0x3
 4200 0e2b 1C000000 		.4byte	is_anim_on_button_up_enable
 4201 0e2f 10       		.uleb128 0x10
 4202 0e30 FA030000 		.4byte	.LASF125
 4203 0e34 01       		.byte	0x1
 4204 0e35 63       		.byte	0x63
 4205 0e36 CD010000 		.4byte	0x1cd
 4206 0e3a 05       		.uleb128 0x5
 4207 0e3b 03       		.byte	0x3
 4208 0e3c 1D000000 		.4byte	current_callback_anim
 4209 0e40 21       		.uleb128 0x21
 4210 0e41 01070000 		.4byte	.LASF126
 4211 0e45 03       		.byte	0x3
 4212 0e46 39       		.byte	0x39
 4213 0e47 560E0000 		.4byte	0xe56
 4214 0e4b 22       		.uleb128 0x22
 4215 0e4c 79000000 		.4byte	0x79
 4216 0e50 22       		.uleb128 0x22
 4217 0e51 AC000000 		.4byte	0xac
 4218 0e55 00       		.byte	0
 4219 0e56 21       		.uleb128 0x21
 4220 0e57 EE060000 		.4byte	.LASF127
 4221 0e5b 03       		.byte	0x3
 4222 0e5c 3E       		.byte	0x3e
 4223 0e5d 670E0000 		.4byte	0xe67
 4224 0e61 22       		.uleb128 0x22
 4225 0e62 AC000000 		.4byte	0xac
 4226 0e66 00       		.byte	0
 4227 0e67 21       		.uleb128 0x21
 4228 0e68 3E030000 		.4byte	.LASF128
 4229 0e6c 03       		.byte	0x3
 4230 0e6d 3F       		.byte	0x3f
 4231 0e6e 780E0000 		.4byte	0xe78
 4232 0e72 22       		.uleb128 0x22
 4233 0e73 AC000000 		.4byte	0xac
 4234 0e77 00       		.byte	0
 4235 0e78 21       		.uleb128 0x21
 4236 0e79 59080000 		.4byte	.LASF129
 4237 0e7d 03       		.byte	0x3
 4238 0e7e 3B       		.byte	0x3b
 4239 0e7f 930E0000 		.4byte	0xe93
 4240 0e83 22       		.uleb128 0x22
 4241 0e84 79000000 		.4byte	0x79
 4242 0e88 22       		.uleb128 0x22
 4243 0e89 AC000000 		.4byte	0xac
 4244 0e8d 22       		.uleb128 0x22
 4245 0e8e AC000000 		.4byte	0xac
 4246 0e92 00       		.byte	0
 4247 0e93 21       		.uleb128 0x21
 4248 0e94 04060000 		.4byte	.LASF130
 4249 0e98 05       		.byte	0x5
 4250 0e99 6B       		.byte	0x6b
 4251 0e9a A90E0000 		.4byte	0xea9
 4252 0e9e 22       		.uleb128 0x22
 4253 0e9f CD010000 		.4byte	0x1cd
 4254 0ea3 22       		.uleb128 0x22
ARM GAS  C:\Users\MM1005~1\AppData\Local\Temp\ccTXRdVU.s 			page 89


 4255 0ea4 80000000 		.4byte	0x80
 4256 0ea8 00       		.byte	0
 4257 0ea9 23       		.uleb128 0x23
 4258 0eaa 7D050000 		.4byte	.LASF134
 4259 0eae 05       		.byte	0x5
 4260 0eaf 6E       		.byte	0x6e
 4261 0eb0 22       		.uleb128 0x22
 4262 0eb1 67020000 		.4byte	0x267
 4263 0eb5 22       		.uleb128 0x22
 4264 0eb6 80000000 		.4byte	0x80
 4265 0eba 22       		.uleb128 0x22
 4266 0ebb 80000000 		.4byte	0x80
 4267 0ebf 00       		.byte	0
 4268 0ec0 00       		.byte	0
 4269              		.section	.debug_abbrev,"",%progbits
 4270              	.Ldebug_abbrev0:
 4271 0000 01       		.uleb128 0x1
 4272 0001 11       		.uleb128 0x11
 4273 0002 01       		.byte	0x1
 4274 0003 25       		.uleb128 0x25
 4275 0004 0E       		.uleb128 0xe
 4276 0005 13       		.uleb128 0x13
 4277 0006 0B       		.uleb128 0xb
 4278 0007 03       		.uleb128 0x3
 4279 0008 0E       		.uleb128 0xe
 4280 0009 1B       		.uleb128 0x1b
 4281 000a 0E       		.uleb128 0xe
 4282 000b 55       		.uleb128 0x55
 4283 000c 17       		.uleb128 0x17
 4284 000d 11       		.uleb128 0x11
 4285 000e 01       		.uleb128 0x1
 4286 000f 10       		.uleb128 0x10
 4287 0010 17       		.uleb128 0x17
 4288 0011 00       		.byte	0
 4289 0012 00       		.byte	0
 4290 0013 02       		.uleb128 0x2
 4291 0014 24       		.uleb128 0x24
 4292 0015 00       		.byte	0
 4293 0016 0B       		.uleb128 0xb
 4294 0017 0B       		.uleb128 0xb
 4295 0018 3E       		.uleb128 0x3e
 4296 0019 0B       		.uleb128 0xb
 4297 001a 03       		.uleb128 0x3
 4298 001b 08       		.uleb128 0x8
 4299 001c 00       		.byte	0
 4300 001d 00       		.byte	0
 4301 001e 03       		.uleb128 0x3
 4302 001f 24       		.uleb128 0x24
 4303 0020 00       		.byte	0
 4304 0021 0B       		.uleb128 0xb
 4305 0022 0B       		.uleb128 0xb
 4306 0023 3E       		.uleb128 0x3e
 4307 0024 0B       		.uleb128 0xb
 4308 0025 03       		.uleb128 0x3
 4309 0026 0E       		.uleb128 0xe
 4310 0027 00       		.byte	0
 4311 0028 00       		.byte	0
ARM GAS  C:\Users\MM1005~1\AppData\Local\Temp\ccTXRdVU.s 			page 90


 4312 0029 04       		.uleb128 0x4
 4313 002a 0F       		.uleb128 0xf
 4314 002b 00       		.byte	0
 4315 002c 0B       		.uleb128 0xb
 4316 002d 0B       		.uleb128 0xb
 4317 002e 49       		.uleb128 0x49
 4318 002f 13       		.uleb128 0x13
 4319 0030 00       		.byte	0
 4320 0031 00       		.byte	0
 4321 0032 05       		.uleb128 0x5
 4322 0033 15       		.uleb128 0x15
 4323 0034 00       		.byte	0
 4324 0035 27       		.uleb128 0x27
 4325 0036 19       		.uleb128 0x19
 4326 0037 00       		.byte	0
 4327 0038 00       		.byte	0
 4328 0039 06       		.uleb128 0x6
 4329 003a 26       		.uleb128 0x26
 4330 003b 00       		.byte	0
 4331 003c 49       		.uleb128 0x49
 4332 003d 13       		.uleb128 0x13
 4333 003e 00       		.byte	0
 4334 003f 00       		.byte	0
 4335 0040 07       		.uleb128 0x7
 4336 0041 16       		.uleb128 0x16
 4337 0042 00       		.byte	0
 4338 0043 03       		.uleb128 0x3
 4339 0044 0E       		.uleb128 0xe
 4340 0045 3A       		.uleb128 0x3a
 4341 0046 0B       		.uleb128 0xb
 4342 0047 3B       		.uleb128 0x3b
 4343 0048 05       		.uleb128 0x5
 4344 0049 49       		.uleb128 0x49
 4345 004a 13       		.uleb128 0x13
 4346 004b 00       		.byte	0
 4347 004c 00       		.byte	0
 4348 004d 08       		.uleb128 0x8
 4349 004e 13       		.uleb128 0x13
 4350 004f 01       		.byte	0x1
 4351 0050 03       		.uleb128 0x3
 4352 0051 0E       		.uleb128 0xe
 4353 0052 0B       		.uleb128 0xb
 4354 0053 0B       		.uleb128 0xb
 4355 0054 3A       		.uleb128 0x3a
 4356 0055 0B       		.uleb128 0xb
 4357 0056 3B       		.uleb128 0x3b
 4358 0057 0B       		.uleb128 0xb
 4359 0058 01       		.uleb128 0x1
 4360 0059 13       		.uleb128 0x13
 4361 005a 00       		.byte	0
 4362 005b 00       		.byte	0
 4363 005c 09       		.uleb128 0x9
 4364 005d 0D       		.uleb128 0xd
 4365 005e 00       		.byte	0
 4366 005f 03       		.uleb128 0x3
 4367 0060 08       		.uleb128 0x8
 4368 0061 3A       		.uleb128 0x3a
ARM GAS  C:\Users\MM1005~1\AppData\Local\Temp\ccTXRdVU.s 			page 91


 4369 0062 0B       		.uleb128 0xb
 4370 0063 3B       		.uleb128 0x3b
 4371 0064 0B       		.uleb128 0xb
 4372 0065 49       		.uleb128 0x49
 4373 0066 13       		.uleb128 0x13
 4374 0067 38       		.uleb128 0x38
 4375 0068 0B       		.uleb128 0xb
 4376 0069 00       		.byte	0
 4377 006a 00       		.byte	0
 4378 006b 0A       		.uleb128 0xa
 4379 006c 0D       		.uleb128 0xd
 4380 006d 00       		.byte	0
 4381 006e 03       		.uleb128 0x3
 4382 006f 0E       		.uleb128 0xe
 4383 0070 3A       		.uleb128 0x3a
 4384 0071 0B       		.uleb128 0xb
 4385 0072 3B       		.uleb128 0x3b
 4386 0073 0B       		.uleb128 0xb
 4387 0074 49       		.uleb128 0x49
 4388 0075 13       		.uleb128 0x13
 4389 0076 38       		.uleb128 0x38
 4390 0077 0B       		.uleb128 0xb
 4391 0078 00       		.byte	0
 4392 0079 00       		.byte	0
 4393 007a 0B       		.uleb128 0xb
 4394 007b 16       		.uleb128 0x16
 4395 007c 00       		.byte	0
 4396 007d 03       		.uleb128 0x3
 4397 007e 0E       		.uleb128 0xe
 4398 007f 3A       		.uleb128 0x3a
 4399 0080 0B       		.uleb128 0xb
 4400 0081 3B       		.uleb128 0x3b
 4401 0082 0B       		.uleb128 0xb
 4402 0083 49       		.uleb128 0x49
 4403 0084 13       		.uleb128 0x13
 4404 0085 00       		.byte	0
 4405 0086 00       		.byte	0
 4406 0087 0C       		.uleb128 0xc
 4407 0088 04       		.uleb128 0x4
 4408 0089 01       		.byte	0x1
 4409 008a 03       		.uleb128 0x3
 4410 008b 0E       		.uleb128 0xe
 4411 008c 0B       		.uleb128 0xb
 4412 008d 0B       		.uleb128 0xb
 4413 008e 3A       		.uleb128 0x3a
 4414 008f 0B       		.uleb128 0xb
 4415 0090 3B       		.uleb128 0x3b
 4416 0091 0B       		.uleb128 0xb
 4417 0092 01       		.uleb128 0x1
 4418 0093 13       		.uleb128 0x13
 4419 0094 00       		.byte	0
 4420 0095 00       		.byte	0
 4421 0096 0D       		.uleb128 0xd
 4422 0097 28       		.uleb128 0x28
 4423 0098 00       		.byte	0
 4424 0099 03       		.uleb128 0x3
 4425 009a 0E       		.uleb128 0xe
ARM GAS  C:\Users\MM1005~1\AppData\Local\Temp\ccTXRdVU.s 			page 92


 4426 009b 1C       		.uleb128 0x1c
 4427 009c 0D       		.uleb128 0xd
 4428 009d 00       		.byte	0
 4429 009e 00       		.byte	0
 4430 009f 0E       		.uleb128 0xe
 4431 00a0 2E       		.uleb128 0x2e
 4432 00a1 01       		.byte	0x1
 4433 00a2 3F       		.uleb128 0x3f
 4434 00a3 19       		.uleb128 0x19
 4435 00a4 03       		.uleb128 0x3
 4436 00a5 0E       		.uleb128 0xe
 4437 00a6 3A       		.uleb128 0x3a
 4438 00a7 0B       		.uleb128 0xb
 4439 00a8 3B       		.uleb128 0x3b
 4440 00a9 0B       		.uleb128 0xb
 4441 00aa 27       		.uleb128 0x27
 4442 00ab 19       		.uleb128 0x19
 4443 00ac 11       		.uleb128 0x11
 4444 00ad 01       		.uleb128 0x1
 4445 00ae 12       		.uleb128 0x12
 4446 00af 06       		.uleb128 0x6
 4447 00b0 40       		.uleb128 0x40
 4448 00b1 18       		.uleb128 0x18
 4449 00b2 9742     		.uleb128 0x2117
 4450 00b4 19       		.uleb128 0x19
 4451 00b5 01       		.uleb128 0x1
 4452 00b6 13       		.uleb128 0x13
 4453 00b7 00       		.byte	0
 4454 00b8 00       		.byte	0
 4455 00b9 0F       		.uleb128 0xf
 4456 00ba 34       		.uleb128 0x34
 4457 00bb 00       		.byte	0
 4458 00bc 03       		.uleb128 0x3
 4459 00bd 08       		.uleb128 0x8
 4460 00be 3A       		.uleb128 0x3a
 4461 00bf 0B       		.uleb128 0xb
 4462 00c0 3B       		.uleb128 0x3b
 4463 00c1 0B       		.uleb128 0xb
 4464 00c2 49       		.uleb128 0x49
 4465 00c3 13       		.uleb128 0x13
 4466 00c4 02       		.uleb128 0x2
 4467 00c5 18       		.uleb128 0x18
 4468 00c6 00       		.byte	0
 4469 00c7 00       		.byte	0
 4470 00c8 10       		.uleb128 0x10
 4471 00c9 34       		.uleb128 0x34
 4472 00ca 00       		.byte	0
 4473 00cb 03       		.uleb128 0x3
 4474 00cc 0E       		.uleb128 0xe
 4475 00cd 3A       		.uleb128 0x3a
 4476 00ce 0B       		.uleb128 0xb
 4477 00cf 3B       		.uleb128 0x3b
 4478 00d0 0B       		.uleb128 0xb
 4479 00d1 49       		.uleb128 0x49
 4480 00d2 13       		.uleb128 0x13
 4481 00d3 02       		.uleb128 0x2
 4482 00d4 18       		.uleb128 0x18
ARM GAS  C:\Users\MM1005~1\AppData\Local\Temp\ccTXRdVU.s 			page 93


 4483 00d5 00       		.byte	0
 4484 00d6 00       		.byte	0
 4485 00d7 11       		.uleb128 0x11
 4486 00d8 34       		.uleb128 0x34
 4487 00d9 00       		.byte	0
 4488 00da 03       		.uleb128 0x3
 4489 00db 0E       		.uleb128 0xe
 4490 00dc 3A       		.uleb128 0x3a
 4491 00dd 0B       		.uleb128 0xb
 4492 00de 3B       		.uleb128 0x3b
 4493 00df 0B       		.uleb128 0xb
 4494 00e0 49       		.uleb128 0x49
 4495 00e1 13       		.uleb128 0x13
 4496 00e2 1C       		.uleb128 0x1c
 4497 00e3 0B       		.uleb128 0xb
 4498 00e4 00       		.byte	0
 4499 00e5 00       		.byte	0
 4500 00e6 12       		.uleb128 0x12
 4501 00e7 34       		.uleb128 0x34
 4502 00e8 00       		.byte	0
 4503 00e9 03       		.uleb128 0x3
 4504 00ea 0E       		.uleb128 0xe
 4505 00eb 3A       		.uleb128 0x3a
 4506 00ec 0B       		.uleb128 0xb
 4507 00ed 3B       		.uleb128 0x3b
 4508 00ee 0B       		.uleb128 0xb
 4509 00ef 49       		.uleb128 0x49
 4510 00f0 13       		.uleb128 0x13
 4511 00f1 1C       		.uleb128 0x1c
 4512 00f2 05       		.uleb128 0x5
 4513 00f3 00       		.byte	0
 4514 00f4 00       		.byte	0
 4515 00f5 13       		.uleb128 0x13
 4516 00f6 898201   		.uleb128 0x4109
 4517 00f9 01       		.byte	0x1
 4518 00fa 11       		.uleb128 0x11
 4519 00fb 01       		.uleb128 0x1
 4520 00fc 31       		.uleb128 0x31
 4521 00fd 13       		.uleb128 0x13
 4522 00fe 01       		.uleb128 0x1
 4523 00ff 13       		.uleb128 0x13
 4524 0100 00       		.byte	0
 4525 0101 00       		.byte	0
 4526 0102 14       		.uleb128 0x14
 4527 0103 8A8201   		.uleb128 0x410a
 4528 0106 00       		.byte	0
 4529 0107 02       		.uleb128 0x2
 4530 0108 18       		.uleb128 0x18
 4531 0109 9142     		.uleb128 0x2111
 4532 010b 18       		.uleb128 0x18
 4533 010c 00       		.byte	0
 4534 010d 00       		.byte	0
 4535 010e 15       		.uleb128 0x15
 4536 010f 898201   		.uleb128 0x4109
 4537 0112 01       		.byte	0x1
 4538 0113 11       		.uleb128 0x11
 4539 0114 01       		.uleb128 0x1
ARM GAS  C:\Users\MM1005~1\AppData\Local\Temp\ccTXRdVU.s 			page 94


 4540 0115 31       		.uleb128 0x31
 4541 0116 13       		.uleb128 0x13
 4542 0117 00       		.byte	0
 4543 0118 00       		.byte	0
 4544 0119 16       		.uleb128 0x16
 4545 011a 2E       		.uleb128 0x2e
 4546 011b 01       		.byte	0x1
 4547 011c 3F       		.uleb128 0x3f
 4548 011d 19       		.uleb128 0x19
 4549 011e 03       		.uleb128 0x3
 4550 011f 0E       		.uleb128 0xe
 4551 0120 3A       		.uleb128 0x3a
 4552 0121 0B       		.uleb128 0xb
 4553 0122 3B       		.uleb128 0x3b
 4554 0123 05       		.uleb128 0x5
 4555 0124 27       		.uleb128 0x27
 4556 0125 19       		.uleb128 0x19
 4557 0126 11       		.uleb128 0x11
 4558 0127 01       		.uleb128 0x1
 4559 0128 12       		.uleb128 0x12
 4560 0129 06       		.uleb128 0x6
 4561 012a 40       		.uleb128 0x40
 4562 012b 18       		.uleb128 0x18
 4563 012c 9742     		.uleb128 0x2117
 4564 012e 19       		.uleb128 0x19
 4565 012f 01       		.uleb128 0x1
 4566 0130 13       		.uleb128 0x13
 4567 0131 00       		.byte	0
 4568 0132 00       		.byte	0
 4569 0133 17       		.uleb128 0x17
 4570 0134 34       		.uleb128 0x34
 4571 0135 00       		.byte	0
 4572 0136 03       		.uleb128 0x3
 4573 0137 0E       		.uleb128 0xe
 4574 0138 3A       		.uleb128 0x3a
 4575 0139 0B       		.uleb128 0xb
 4576 013a 3B       		.uleb128 0x3b
 4577 013b 05       		.uleb128 0x5
 4578 013c 49       		.uleb128 0x49
 4579 013d 13       		.uleb128 0x13
 4580 013e 02       		.uleb128 0x2
 4581 013f 18       		.uleb128 0x18
 4582 0140 00       		.byte	0
 4583 0141 00       		.byte	0
 4584 0142 18       		.uleb128 0x18
 4585 0143 01       		.uleb128 0x1
 4586 0144 01       		.byte	0x1
 4587 0145 49       		.uleb128 0x49
 4588 0146 13       		.uleb128 0x13
 4589 0147 01       		.uleb128 0x1
 4590 0148 13       		.uleb128 0x13
 4591 0149 00       		.byte	0
 4592 014a 00       		.byte	0
 4593 014b 19       		.uleb128 0x19
 4594 014c 21       		.uleb128 0x21
 4595 014d 00       		.byte	0
 4596 014e 49       		.uleb128 0x49
ARM GAS  C:\Users\MM1005~1\AppData\Local\Temp\ccTXRdVU.s 			page 95


 4597 014f 13       		.uleb128 0x13
 4598 0150 2F       		.uleb128 0x2f
 4599 0151 0B       		.uleb128 0xb
 4600 0152 00       		.byte	0
 4601 0153 00       		.byte	0
 4602 0154 1A       		.uleb128 0x1a
 4603 0155 2E       		.uleb128 0x2e
 4604 0156 01       		.byte	0x1
 4605 0157 3F       		.uleb128 0x3f
 4606 0158 19       		.uleb128 0x19
 4607 0159 03       		.uleb128 0x3
 4608 015a 0E       		.uleb128 0xe
 4609 015b 3A       		.uleb128 0x3a
 4610 015c 0B       		.uleb128 0xb
 4611 015d 3B       		.uleb128 0x3b
 4612 015e 05       		.uleb128 0x5
 4613 015f 27       		.uleb128 0x27
 4614 0160 19       		.uleb128 0x19
 4615 0161 11       		.uleb128 0x11
 4616 0162 01       		.uleb128 0x1
 4617 0163 12       		.uleb128 0x12
 4618 0164 06       		.uleb128 0x6
 4619 0165 40       		.uleb128 0x40
 4620 0166 18       		.uleb128 0x18
 4621 0167 9642     		.uleb128 0x2116
 4622 0169 19       		.uleb128 0x19
 4623 016a 01       		.uleb128 0x1
 4624 016b 13       		.uleb128 0x13
 4625 016c 00       		.byte	0
 4626 016d 00       		.byte	0
 4627 016e 1B       		.uleb128 0x1b
 4628 016f 898201   		.uleb128 0x4109
 4629 0172 00       		.byte	0
 4630 0173 11       		.uleb128 0x11
 4631 0174 01       		.uleb128 0x1
 4632 0175 31       		.uleb128 0x31
 4633 0176 13       		.uleb128 0x13
 4634 0177 00       		.byte	0
 4635 0178 00       		.byte	0
 4636 0179 1C       		.uleb128 0x1c
 4637 017a 34       		.uleb128 0x34
 4638 017b 00       		.byte	0
 4639 017c 03       		.uleb128 0x3
 4640 017d 0E       		.uleb128 0xe
 4641 017e 3A       		.uleb128 0x3a
 4642 017f 0B       		.uleb128 0xb
 4643 0180 3B       		.uleb128 0x3b
 4644 0181 05       		.uleb128 0x5
 4645 0182 49       		.uleb128 0x49
 4646 0183 13       		.uleb128 0x13
 4647 0184 1C       		.uleb128 0x1c
 4648 0185 0B       		.uleb128 0xb
 4649 0186 00       		.byte	0
 4650 0187 00       		.byte	0
 4651 0188 1D       		.uleb128 0x1d
 4652 0189 34       		.uleb128 0x34
 4653 018a 00       		.byte	0
ARM GAS  C:\Users\MM1005~1\AppData\Local\Temp\ccTXRdVU.s 			page 96


 4654 018b 03       		.uleb128 0x3
 4655 018c 08       		.uleb128 0x8
 4656 018d 3A       		.uleb128 0x3a
 4657 018e 0B       		.uleb128 0xb
 4658 018f 3B       		.uleb128 0x3b
 4659 0190 05       		.uleb128 0x5
 4660 0191 49       		.uleb128 0x49
 4661 0192 13       		.uleb128 0x13
 4662 0193 02       		.uleb128 0x2
 4663 0194 17       		.uleb128 0x17
 4664 0195 00       		.byte	0
 4665 0196 00       		.byte	0
 4666 0197 1E       		.uleb128 0x1e
 4667 0198 05       		.uleb128 0x5
 4668 0199 00       		.byte	0
 4669 019a 03       		.uleb128 0x3
 4670 019b 0E       		.uleb128 0xe
 4671 019c 3A       		.uleb128 0x3a
 4672 019d 0B       		.uleb128 0xb
 4673 019e 3B       		.uleb128 0x3b
 4674 019f 05       		.uleb128 0x5
 4675 01a0 49       		.uleb128 0x49
 4676 01a1 13       		.uleb128 0x13
 4677 01a2 02       		.uleb128 0x2
 4678 01a3 17       		.uleb128 0x17
 4679 01a4 00       		.byte	0
 4680 01a5 00       		.byte	0
 4681 01a6 1F       		.uleb128 0x1f
 4682 01a7 05       		.uleb128 0x5
 4683 01a8 00       		.byte	0
 4684 01a9 03       		.uleb128 0x3
 4685 01aa 0E       		.uleb128 0xe
 4686 01ab 3A       		.uleb128 0x3a
 4687 01ac 0B       		.uleb128 0xb
 4688 01ad 3B       		.uleb128 0x3b
 4689 01ae 05       		.uleb128 0x5
 4690 01af 49       		.uleb128 0x49
 4691 01b0 13       		.uleb128 0x13
 4692 01b1 02       		.uleb128 0x2
 4693 01b2 18       		.uleb128 0x18
 4694 01b3 00       		.byte	0
 4695 01b4 00       		.byte	0
 4696 01b5 20       		.uleb128 0x20
 4697 01b6 2E       		.uleb128 0x2e
 4698 01b7 00       		.byte	0
 4699 01b8 3F       		.uleb128 0x3f
 4700 01b9 19       		.uleb128 0x19
 4701 01ba 03       		.uleb128 0x3
 4702 01bb 0E       		.uleb128 0xe
 4703 01bc 3A       		.uleb128 0x3a
 4704 01bd 0B       		.uleb128 0xb
 4705 01be 3B       		.uleb128 0x3b
 4706 01bf 05       		.uleb128 0x5
 4707 01c0 27       		.uleb128 0x27
 4708 01c1 19       		.uleb128 0x19
 4709 01c2 49       		.uleb128 0x49
 4710 01c3 13       		.uleb128 0x13
ARM GAS  C:\Users\MM1005~1\AppData\Local\Temp\ccTXRdVU.s 			page 97


 4711 01c4 11       		.uleb128 0x11
 4712 01c5 01       		.uleb128 0x1
 4713 01c6 12       		.uleb128 0x12
 4714 01c7 06       		.uleb128 0x6
 4715 01c8 40       		.uleb128 0x40
 4716 01c9 18       		.uleb128 0x18
 4717 01ca 9742     		.uleb128 0x2117
 4718 01cc 19       		.uleb128 0x19
 4719 01cd 00       		.byte	0
 4720 01ce 00       		.byte	0
 4721 01cf 21       		.uleb128 0x21
 4722 01d0 2E       		.uleb128 0x2e
 4723 01d1 01       		.byte	0x1
 4724 01d2 3F       		.uleb128 0x3f
 4725 01d3 19       		.uleb128 0x19
 4726 01d4 03       		.uleb128 0x3
 4727 01d5 0E       		.uleb128 0xe
 4728 01d6 3A       		.uleb128 0x3a
 4729 01d7 0B       		.uleb128 0xb
 4730 01d8 3B       		.uleb128 0x3b
 4731 01d9 0B       		.uleb128 0xb
 4732 01da 27       		.uleb128 0x27
 4733 01db 19       		.uleb128 0x19
 4734 01dc 3C       		.uleb128 0x3c
 4735 01dd 19       		.uleb128 0x19
 4736 01de 01       		.uleb128 0x1
 4737 01df 13       		.uleb128 0x13
 4738 01e0 00       		.byte	0
 4739 01e1 00       		.byte	0
 4740 01e2 22       		.uleb128 0x22
 4741 01e3 05       		.uleb128 0x5
 4742 01e4 00       		.byte	0
 4743 01e5 49       		.uleb128 0x49
 4744 01e6 13       		.uleb128 0x13
 4745 01e7 00       		.byte	0
 4746 01e8 00       		.byte	0
 4747 01e9 23       		.uleb128 0x23
 4748 01ea 2E       		.uleb128 0x2e
 4749 01eb 01       		.byte	0x1
 4750 01ec 3F       		.uleb128 0x3f
 4751 01ed 19       		.uleb128 0x19
 4752 01ee 03       		.uleb128 0x3
 4753 01ef 0E       		.uleb128 0xe
 4754 01f0 3A       		.uleb128 0x3a
 4755 01f1 0B       		.uleb128 0xb
 4756 01f2 3B       		.uleb128 0x3b
 4757 01f3 0B       		.uleb128 0xb
 4758 01f4 27       		.uleb128 0x27
 4759 01f5 19       		.uleb128 0x19
 4760 01f6 3C       		.uleb128 0x3c
 4761 01f7 19       		.uleb128 0x19
 4762 01f8 00       		.byte	0
 4763 01f9 00       		.byte	0
 4764 01fa 00       		.byte	0
 4765              		.section	.debug_loc,"",%progbits
 4766              	.Ldebug_loc0:
 4767              	.LLST0:
ARM GAS  C:\Users\MM1005~1\AppData\Local\Temp\ccTXRdVU.s 			page 98


 4768 0000 02000000 		.4byte	.LVL39
 4769 0004 06000000 		.4byte	.LVL40
 4770 0008 0200     		.2byte	0x2
 4771 000a 30       		.byte	0x30
 4772 000b 9F       		.byte	0x9f
 4773 000c 06000000 		.4byte	.LVL40
 4774 0010 20000000 		.4byte	.LVL43
 4775 0014 0100     		.2byte	0x1
 4776 0016 54       		.byte	0x54
 4777 0017 22000000 		.4byte	.LVL44
 4778 001b 4C000000 		.4byte	.LVL47
 4779 001f 0100     		.2byte	0x1
 4780 0021 54       		.byte	0x54
 4781 0022 00000000 		.4byte	0
 4782 0026 00000000 		.4byte	0
 4783              	.LLST1:
 4784 002a 00000000 		.4byte	.LVL74
 4785 002e 16000000 		.4byte	.LVL76
 4786 0032 0100     		.2byte	0x1
 4787 0034 50       		.byte	0x50
 4788 0035 16000000 		.4byte	.LVL76
 4789 0039 24000000 		.4byte	.LVL79
 4790 003d 0400     		.2byte	0x4
 4791 003f F3       		.byte	0xf3
 4792 0040 01       		.uleb128 0x1
 4793 0041 50       		.byte	0x50
 4794 0042 9F       		.byte	0x9f
 4795 0043 24000000 		.4byte	.LVL79
 4796 0047 2A000000 		.4byte	.LVL80
 4797 004b 0100     		.2byte	0x1
 4798 004d 50       		.byte	0x50
 4799 004e 2A000000 		.4byte	.LVL80
 4800 0052 38000000 		.4byte	.LVL83
 4801 0056 0400     		.2byte	0x4
 4802 0058 F3       		.byte	0xf3
 4803 0059 01       		.uleb128 0x1
 4804 005a 50       		.byte	0x50
 4805 005b 9F       		.byte	0x9f
 4806 005c 38000000 		.4byte	.LVL83
 4807 0060 3E000000 		.4byte	.LVL84
 4808 0064 0100     		.2byte	0x1
 4809 0066 50       		.byte	0x50
 4810 0067 3E000000 		.4byte	.LVL84
 4811 006b 8C000000 		.4byte	.LFE44
 4812 006f 0400     		.2byte	0x4
 4813 0071 F3       		.byte	0xf3
 4814 0072 01       		.uleb128 0x1
 4815 0073 50       		.byte	0x50
 4816 0074 9F       		.byte	0x9f
 4817 0075 00000000 		.4byte	0
 4818 0079 00000000 		.4byte	0
 4819              	.LLST2:
 4820 007d 00000000 		.4byte	.LVL87
 4821 0081 08000000 		.4byte	.LVL89
 4822 0085 0100     		.2byte	0x1
 4823 0087 50       		.byte	0x50
 4824 0088 08000000 		.4byte	.LVL89
ARM GAS  C:\Users\MM1005~1\AppData\Local\Temp\ccTXRdVU.s 			page 99


 4825 008c B4000000 		.4byte	.LFE49
 4826 0090 0400     		.2byte	0x4
 4827 0092 F3       		.byte	0xf3
 4828 0093 01       		.uleb128 0x1
 4829 0094 50       		.byte	0x50
 4830 0095 9F       		.byte	0x9f
 4831 0096 00000000 		.4byte	0
 4832 009a 00000000 		.4byte	0
 4833              	.LLST3:
 4834 009e 04000000 		.4byte	.LVL88
 4835 00a2 4A000000 		.4byte	.LVL91
 4836 00a6 0200     		.2byte	0x2
 4837 00a8 30       		.byte	0x30
 4838 00a9 9F       		.byte	0x9f
 4839 00aa 4A000000 		.4byte	.LVL91
 4840 00ae 54000000 		.4byte	.LVL92
 4841 00b2 0600     		.2byte	0x6
 4842 00b4 73       		.byte	0x73
 4843 00b5 00       		.sleb128 0
 4844 00b6 08       		.byte	0x8
 4845 00b7 FF       		.byte	0xff
 4846 00b8 1A       		.byte	0x1a
 4847 00b9 9F       		.byte	0x9f
 4848 00ba 54000000 		.4byte	.LVL92
 4849 00be 7C000000 		.4byte	.LVL93
 4850 00c2 0200     		.2byte	0x2
 4851 00c4 30       		.byte	0x30
 4852 00c5 9F       		.byte	0x9f
 4853 00c6 7C000000 		.4byte	.LVL93
 4854 00ca 80000000 		.4byte	.LVL94
 4855 00ce 0600     		.2byte	0x6
 4856 00d0 70       		.byte	0x70
 4857 00d1 00       		.sleb128 0
 4858 00d2 08       		.byte	0x8
 4859 00d3 FF       		.byte	0xff
 4860 00d4 1A       		.byte	0x1a
 4861 00d5 9F       		.byte	0x9f
 4862 00d6 00000000 		.4byte	0
 4863 00da 00000000 		.4byte	0
 4864              	.LLST4:
 4865 00de 00000000 		.4byte	.LVL98
 4866 00e2 22000000 		.4byte	.LVL99
 4867 00e6 0100     		.2byte	0x1
 4868 00e8 50       		.byte	0x50
 4869 00e9 22000000 		.4byte	.LVL99
 4870 00ed 30000000 		.4byte	.LFE52
 4871 00f1 0400     		.2byte	0x4
 4872 00f3 F3       		.byte	0xf3
 4873 00f4 01       		.uleb128 0x1
 4874 00f5 50       		.byte	0x50
 4875 00f6 9F       		.byte	0x9f
 4876 00f7 00000000 		.4byte	0
 4877 00fb 00000000 		.4byte	0
 4878              	.LLST5:
 4879 00ff 00000000 		.4byte	.LVL101
 4880 0103 08000000 		.4byte	.LVL102
 4881 0107 0100     		.2byte	0x1
ARM GAS  C:\Users\MM1005~1\AppData\Local\Temp\ccTXRdVU.s 			page 100


 4882 0109 50       		.byte	0x50
 4883 010a 08000000 		.4byte	.LVL102
 4884 010e 40000000 		.4byte	.LFE56
 4885 0112 0400     		.2byte	0x4
 4886 0114 F3       		.byte	0xf3
 4887 0115 01       		.uleb128 0x1
 4888 0116 50       		.byte	0x50
 4889 0117 9F       		.byte	0x9f
 4890 0118 00000000 		.4byte	0
 4891 011c 00000000 		.4byte	0
 4892              	.LLST6:
 4893 0120 00000000 		.4byte	.LVL104
 4894 0124 0A000000 		.4byte	.LVL105
 4895 0128 0100     		.2byte	0x1
 4896 012a 50       		.byte	0x50
 4897 012b 0A000000 		.4byte	.LVL105
 4898 012f 14000000 		.4byte	.LVL107
 4899 0133 0400     		.2byte	0x4
 4900 0135 F3       		.byte	0xf3
 4901 0136 01       		.uleb128 0x1
 4902 0137 50       		.byte	0x50
 4903 0138 9F       		.byte	0x9f
 4904 0139 14000000 		.4byte	.LVL107
 4905 013d 29000000 		.4byte	.LVL108-1
 4906 0141 0100     		.2byte	0x1
 4907 0143 50       		.byte	0x50
 4908 0144 29000000 		.4byte	.LVL108-1
 4909 0148 60000000 		.4byte	.LFE59
 4910 014c 0400     		.2byte	0x4
 4911 014e F3       		.byte	0xf3
 4912 014f 01       		.uleb128 0x1
 4913 0150 50       		.byte	0x50
 4914 0151 9F       		.byte	0x9f
 4915 0152 00000000 		.4byte	0
 4916 0156 00000000 		.4byte	0
 4917              	.LLST7:
 4918 015a 00000000 		.4byte	.LVL110
 4919 015e 2A000000 		.4byte	.LVL111
 4920 0162 0100     		.2byte	0x1
 4921 0164 50       		.byte	0x50
 4922 0165 2A000000 		.4byte	.LVL111
 4923 0169 64000000 		.4byte	.LFE60
 4924 016d 0400     		.2byte	0x4
 4925 016f F3       		.byte	0xf3
 4926 0170 01       		.uleb128 0x1
 4927 0171 50       		.byte	0x50
 4928 0172 9F       		.byte	0x9f
 4929 0173 00000000 		.4byte	0
 4930 0177 00000000 		.4byte	0
 4931              		.section	.debug_aranges,"",%progbits
 4932 0000 E4000000 		.4byte	0xe4
 4933 0004 0200     		.2byte	0x2
 4934 0006 00000000 		.4byte	.Ldebug_info0
 4935 000a 04       		.byte	0x4
 4936 000b 00       		.byte	0
 4937 000c 0000     		.2byte	0
 4938 000e 0000     		.2byte	0
ARM GAS  C:\Users\MM1005~1\AppData\Local\Temp\ccTXRdVU.s 			page 101


 4939 0010 00000000 		.4byte	.LFB35
 4940 0014 E8000000 		.4byte	.LFE35-.LFB35
 4941 0018 00000000 		.4byte	.LFB36
 4942 001c 2C000000 		.4byte	.LFE36-.LFB36
 4943 0020 00000000 		.4byte	.LFB38
 4944 0024 3C000000 		.4byte	.LFE38-.LFB38
 4945 0028 00000000 		.4byte	.LFB39
 4946 002c 3C000000 		.4byte	.LFE39-.LFB39
 4947 0030 00000000 		.4byte	.LFB40
 4948 0034 3C000000 		.4byte	.LFE40-.LFB40
 4949 0038 00000000 		.4byte	.LFB45
 4950 003c A0000000 		.4byte	.LFE45-.LFB45
 4951 0040 00000000 		.4byte	.LFB46
 4952 0044 44000000 		.4byte	.LFE46-.LFB46
 4953 0048 00000000 		.4byte	.LFB47
 4954 004c 80000000 		.4byte	.LFE47-.LFB47
 4955 0050 00000000 		.4byte	.LFB41
 4956 0054 48000000 		.4byte	.LFE41-.LFB41
 4957 0058 00000000 		.4byte	.LFB42
 4958 005c 48000000 		.4byte	.LFE42-.LFB42
 4959 0060 00000000 		.4byte	.LFB43
 4960 0064 48000000 		.4byte	.LFE43-.LFB43
 4961 0068 00000000 		.4byte	.LFB48
 4962 006c D8000000 		.4byte	.LFE48-.LFB48
 4963 0070 00000000 		.4byte	.LFB37
 4964 0074 10000000 		.4byte	.LFE37-.LFB37
 4965 0078 00000000 		.4byte	.LFB44
 4966 007c 8C000000 		.4byte	.LFE44-.LFB44
 4967 0080 00000000 		.4byte	.LFB49
 4968 0084 B4000000 		.4byte	.LFE49-.LFB49
 4969 0088 00000000 		.4byte	.LFB50
 4970 008c 1C000000 		.4byte	.LFE50-.LFB50
 4971 0090 00000000 		.4byte	.LFB51
 4972 0094 1C000000 		.4byte	.LFE51-.LFB51
 4973 0098 00000000 		.4byte	.LFB52
 4974 009c 30000000 		.4byte	.LFE52-.LFB52
 4975 00a0 00000000 		.4byte	.LFB53
 4976 00a4 0C000000 		.4byte	.LFE53-.LFB53
 4977 00a8 00000000 		.4byte	.LFB54
 4978 00ac 0C000000 		.4byte	.LFE54-.LFB54
 4979 00b0 00000000 		.4byte	.LFB55
 4980 00b4 0C000000 		.4byte	.LFE55-.LFB55
 4981 00b8 00000000 		.4byte	.LFB56
 4982 00bc 40000000 		.4byte	.LFE56-.LFB56
 4983 00c0 00000000 		.4byte	.LFB57
 4984 00c4 0C000000 		.4byte	.LFE57-.LFB57
 4985 00c8 00000000 		.4byte	.LFB58
 4986 00cc 14000000 		.4byte	.LFE58-.LFB58
 4987 00d0 00000000 		.4byte	.LFB59
 4988 00d4 60000000 		.4byte	.LFE59-.LFB59
 4989 00d8 00000000 		.4byte	.LFB60
 4990 00dc 64000000 		.4byte	.LFE60-.LFB60
 4991 00e0 00000000 		.4byte	0
 4992 00e4 00000000 		.4byte	0
 4993              		.section	.debug_ranges,"",%progbits
 4994              	.Ldebug_ranges0:
 4995 0000 00000000 		.4byte	.LFB35
ARM GAS  C:\Users\MM1005~1\AppData\Local\Temp\ccTXRdVU.s 			page 102


 4996 0004 E8000000 		.4byte	.LFE35
 4997 0008 00000000 		.4byte	.LFB36
 4998 000c 2C000000 		.4byte	.LFE36
 4999 0010 00000000 		.4byte	.LFB38
 5000 0014 3C000000 		.4byte	.LFE38
 5001 0018 00000000 		.4byte	.LFB39
 5002 001c 3C000000 		.4byte	.LFE39
 5003 0020 00000000 		.4byte	.LFB40
 5004 0024 3C000000 		.4byte	.LFE40
 5005 0028 00000000 		.4byte	.LFB45
 5006 002c A0000000 		.4byte	.LFE45
 5007 0030 00000000 		.4byte	.LFB46
 5008 0034 44000000 		.4byte	.LFE46
 5009 0038 00000000 		.4byte	.LFB47
 5010 003c 80000000 		.4byte	.LFE47
 5011 0040 00000000 		.4byte	.LFB41
 5012 0044 48000000 		.4byte	.LFE41
 5013 0048 00000000 		.4byte	.LFB42
 5014 004c 48000000 		.4byte	.LFE42
 5015 0050 00000000 		.4byte	.LFB43
 5016 0054 48000000 		.4byte	.LFE43
 5017 0058 00000000 		.4byte	.LFB48
 5018 005c D8000000 		.4byte	.LFE48
 5019 0060 00000000 		.4byte	.LFB37
 5020 0064 10000000 		.4byte	.LFE37
 5021 0068 00000000 		.4byte	.LFB44
 5022 006c 8C000000 		.4byte	.LFE44
 5023 0070 00000000 		.4byte	.LFB49
 5024 0074 B4000000 		.4byte	.LFE49
 5025 0078 00000000 		.4byte	.LFB50
 5026 007c 1C000000 		.4byte	.LFE50
 5027 0080 00000000 		.4byte	.LFB51
 5028 0084 1C000000 		.4byte	.LFE51
 5029 0088 00000000 		.4byte	.LFB52
 5030 008c 30000000 		.4byte	.LFE52
 5031 0090 00000000 		.4byte	.LFB53
 5032 0094 0C000000 		.4byte	.LFE53
 5033 0098 00000000 		.4byte	.LFB54
 5034 009c 0C000000 		.4byte	.LFE54
 5035 00a0 00000000 		.4byte	.LFB55
 5036 00a4 0C000000 		.4byte	.LFE55
 5037 00a8 00000000 		.4byte	.LFB56
 5038 00ac 40000000 		.4byte	.LFE56
 5039 00b0 00000000 		.4byte	.LFB57
 5040 00b4 0C000000 		.4byte	.LFE57
 5041 00b8 00000000 		.4byte	.LFB58
 5042 00bc 14000000 		.4byte	.LFE58
 5043 00c0 00000000 		.4byte	.LFB59
 5044 00c4 60000000 		.4byte	.LFE59
 5045 00c8 00000000 		.4byte	.LFB60
 5046 00cc 64000000 		.4byte	.LFE60
 5047 00d0 00000000 		.4byte	0
 5048 00d4 00000000 		.4byte	0
 5049              		.section	.debug_line,"",%progbits
 5050              	.Ldebug_line0:
 5051 0000 4E030000 		.section	.debug_str,"MS",%progbits,1
 5051      02008500 
ARM GAS  C:\Users\MM1005~1\AppData\Local\Temp\ccTXRdVU.s 			page 103


 5051      00000201 
 5051      FB0E0D00 
 5051      01010101 
 5052              	.LASF79:
 5053 0000 616E696D 		.ascii	"animate_left_right\000"
 5053      6174655F 
 5053      6C656674 
 5053      5F726967 
 5053      687400
 5054              	.LASF131:
 5055 0013 474E5520 		.ascii	"GNU C 4.9.3 20150303 (release) [ARM/embedded-4_9-br"
 5055      4320342E 
 5055      392E3320 
 5055      32303135 
 5055      30333033 
 5056 0046 616E6368 		.ascii	"anch revision 221220] -mcpu=cortex-m0plus -mthumb -"
 5056      20726576 
 5056      6973696F 
 5056      6E203232 
 5056      31323230 
 5057 0079 67202D4F 		.ascii	"g -Og -ffunction-sections -ffat-lto-objects\000"
 5057      67202D66 
 5057      66756E63 
 5057      74696F6E 
 5057      2D736563 
 5058              	.LASF62:
 5059 00a5 414C4152 		.ascii	"ALARM_ERROR\000"
 5059      4D5F4552 
 5059      524F5200 
 5060              	.LASF114:
 5061 00b1 7365745F 		.ascii	"set_is_anim_on_button_up_enable\000"
 5061      69735F61 
 5061      6E696D5F 
 5061      6F6E5F62 
 5061      7574746F 
 5062              	.LASF48:
 5063 00d1 414E494D 		.ascii	"ANIM_UNKNOWN\000"
 5063      5F554E4B 
 5063      4E4F574E 
 5063      00
 5064              	.LASF57:
 5065 00de 745F7374 		.ascii	"t_struct_animation\000"
 5065      72756374 
 5065      5F616E69 
 5065      6D617469 
 5065      6F6E00
 5066              	.LASF24:
 5067 00f1 745F656E 		.ascii	"t_enum_primary_color\000"
 5067      756D5F70 
 5067      72696D61 
 5067      72795F63 
 5067      6F6C6F72 
 5068              	.LASF87:
 5069 0106 696E7465 		.ascii	"intensity_color_index\000"
 5069      6E736974 
 5069      795F636F 
 5069      6C6F725F 
ARM GAS  C:\Users\MM1005~1\AppData\Local\Temp\ccTXRdVU.s 			page 104


 5069      696E6465 
 5070              	.LASF60:
 5071 011c 414C4152 		.ascii	"ALARM_INFO\000"
 5071      4D5F494E 
 5071      464F00
 5072              	.LASF65:
 5073 0127 745F656E 		.ascii	"t_enum_alarm_type\000"
 5073      756D5F61 
 5073      6C61726D 
 5073      5F747970 
 5073      6500
 5074              	.LASF82:
 5075 0139 696E7465 		.ascii	"intensity_left_index\000"
 5075      6E736974 
 5075      795F6C65 
 5075      66745F69 
 5075      6E646578 
 5076              	.LASF90:
 5077 014e 616E696D 		.ascii	"animate_2_leds\000"
 5077      6174655F 
 5077      325F6C65 
 5077      647300
 5078              	.LASF73:
 5079 015d 616E696D 		.ascii	"animate_green_intensity\000"
 5079      6174655F 
 5079      67726565 
 5079      6E5F696E 
 5079      74656E73 
 5080              	.LASF108:
 5081 0175 616E696D 		.ascii	"anim_id\000"
 5081      5F696400 
 5082              	.LASF0:
 5083 017d 756E7369 		.ascii	"unsigned int\000"
 5083      676E6564 
 5083      20696E74 
 5083      00
 5084              	.LASF33:
 5085 018a 656E756D 		.ascii	"enum_animation\000"
 5085      5F616E69 
 5085      6D617469 
 5085      6F6E00
 5086              	.LASF106:
 5087 0199 616E696D 		.ascii	"animate_button_smooth_fast\000"
 5087      6174655F 
 5087      62757474 
 5087      6F6E5F73 
 5087      6D6F6F74 
 5088              	.LASF52:
 5089 01b4 73747275 		.ascii	"struct_animation\000"
 5089      63745F61 
 5089      6E696D61 
 5089      74696F6E 
 5089      00
 5090              	.LASF111:
 5091 01c5 7468655F 		.ascii	"the_is_auto_anim_rotation_enable\000"
 5091      69735F61 
 5091      75746F5F 
ARM GAS  C:\Users\MM1005~1\AppData\Local\Temp\ccTXRdVU.s 			page 105


 5091      616E696D 
 5091      5F726F74 
 5092              	.LASF68:
 5093 01e6 67726565 		.ascii	"green_increment\000"
 5093      6E5F696E 
 5093      6372656D 
 5093      656E7400 
 5094              	.LASF35:
 5095 01f6 414E494D 		.ascii	"ANIM_BUTTON_SMOOTH_FAST\000"
 5095      5F425554 
 5095      544F4E5F 
 5095      534D4F4F 
 5095      54485F46 
 5096              	.LASF81:
 5097 020e 616E696D 		.ascii	"animate_intensity\000"
 5097      6174655F 
 5097      696E7465 
 5097      6E736974 
 5097      7900
 5098              	.LASF50:
 5099 0220 745F6361 		.ascii	"t_callback_anim\000"
 5099      6C6C6261 
 5099      636B5F61 
 5099      6E696D00 
 5100              	.LASF115:
 5101 0230 7468655F 		.ascii	"the_is_anim_on_button_up_enable\000"
 5101      69735F61 
 5101      6E696D5F 
 5101      6F6E5F62 
 5101      7574746F 
 5102              	.LASF42:
 5103 0250 414E494D 		.ascii	"ANIM_RED_WHITE_INTENSITY\000"
 5103      5F524544 
 5103      5F574849 
 5103      54455F49 
 5103      4E54454E 
 5104              	.LASF101:
 5105 0269 62726561 		.ascii	"breather_skip_cycle\000"
 5105      74686572 
 5105      5F736B69 
 5105      705F6379 
 5105      636C6500 
 5106              	.LASF83:
 5107 027d 696E7465 		.ascii	"intensity_right_index\000"
 5107      6E736974 
 5107      795F7269 
 5107      6768745F 
 5107      696E6465 
 5108              	.LASF22:
 5109 0293 455F5052 		.ascii	"E_PRIMARY_COLOR_BLUE\000"
 5109      494D4152 
 5109      595F434F 
 5109      4C4F525F 
 5109      424C5545 
 5110              	.LASF91:
 5111 02a8 72696768 		.ascii	"right_led\000"
 5111      745F6C65 
ARM GAS  C:\Users\MM1005~1\AppData\Local\Temp\ccTXRdVU.s 			page 106


 5111      6400
 5112              	.LASF12:
 5113 02b2 666C6F61 		.ascii	"float\000"
 5113      7400
 5114              	.LASF120:
 5115 02b8 72756E5F 		.ascii	"run_current_animation\000"
 5115      63757272 
 5115      656E745F 
 5115      616E696D 
 5115      6174696F 
 5116              	.LASF53:
 5117 02ce 68696768 		.ascii	"high_speed\000"
 5117      5F737065 
 5117      656400
 5118              	.LASF8:
 5119 02d9 6C6F6E67 		.ascii	"long long unsigned int\000"
 5119      206C6F6E 
 5119      6720756E 
 5119      7369676E 
 5119      65642069 
 5120              	.LASF84:
 5121 02f0 68616C66 		.ascii	"half_white\000"
 5121      5F776869 
 5121      746500
 5122              	.LASF97:
 5123 02fb 696E7465 		.ascii	"intensity\000"
 5123      6E736974 
 5123      7900
 5124              	.LASF95:
 5125 0305 616E696D 		.ascii	"animate_fix_led_14\000"
 5125      6174655F 
 5125      6669785F 
 5125      6C65645F 
 5125      313400
 5126              	.LASF121:
 5127 0318 7665635F 		.ascii	"vec_call_back_anim\000"
 5127      63616C6C 
 5127      5F626163 
 5127      6B5F616E 
 5127      696D00
 5128              	.LASF26:
 5129 032b 656E756D 		.ascii	"enum_color_led_pos\000"
 5129      5F636F6C 
 5129      6F725F6C 
 5129      65645F70 
 5129      6F7300
 5130              	.LASF128:
 5131 033e 7365745F 		.ascii	"set_all_colored_leds\000"
 5131      616C6C5F 
 5131      636F6C6F 
 5131      7265645F 
 5131      6C656473 
 5132              	.LASF94:
 5133 0353 7072696D 		.ascii	"primary_color\000"
 5133      6172795F 
 5133      636F6C6F 
 5133      7200
ARM GAS  C:\Users\MM1005~1\AppData\Local\Temp\ccTXRdVU.s 			page 107


 5134              	.LASF74:
 5135 0361 616E696D 		.ascii	"animate_blue_intensity\000"
 5135      6174655F 
 5135      626C7565 
 5135      5F696E74 
 5135      656E7369 
 5136              	.LASF28:
 5137 0378 455F4C45 		.ascii	"E_LED_RIGHT_GREEN\000"
 5137      445F5249 
 5137      4748545F 
 5137      47524545 
 5137      4E00
 5138              	.LASF32:
 5139 038a 455F4C45 		.ascii	"E_LED_LEFT_BLUE\000"
 5139      445F4C45 
 5139      46545F42 
 5139      4C554500 
 5140              	.LASF30:
 5141 039a 455F4C45 		.ascii	"E_LED_LEFT_RED\000"
 5141      445F4C45 
 5141      46545F52 
 5141      454400
 5142              	.LASF23:
 5143 03a9 455F5052 		.ascii	"E_PRIMARY_COLOR_NUMBER\000"
 5143      494D4152 
 5143      595F434F 
 5143      4C4F525F 
 5143      4E554D42 
 5144              	.LASF100:
 5145 03c0 636F6C6F 		.ascii	"color\000"
 5145      7200
 5146              	.LASF63:
 5147 03c6 414C4152 		.ascii	"ALARM_FATAL\000"
 5147      4D5F4641 
 5147      54414C00 
 5148              	.LASF40:
 5149 03d2 414E494D 		.ascii	"ANIM_GREEN_INTENSITY\000"
 5149      5F475245 
 5149      454E5F49 
 5149      4E54454E 
 5149      53495459 
 5150              	.LASF39:
 5151 03e7 414E494D 		.ascii	"ANIM_RED_INTENSITY\000"
 5151      5F524544 
 5151      5F494E54 
 5151      454E5349 
 5151      545900
 5152              	.LASF125:
 5153 03fa 63757272 		.ascii	"current_callback_anim\000"
 5153      656E745F 
 5153      63616C6C 
 5153      6261636B 
 5153      5F616E69 
 5154              	.LASF98:
 5155 0410 696E6372 		.ascii	"increment\000"
 5155      656D656E 
 5155      7400
ARM GAS  C:\Users\MM1005~1\AppData\Local\Temp\ccTXRdVU.s 			page 108


 5156              	.LASF41:
 5157 041a 414E494D 		.ascii	"ANIM_BLUE_INTENSITY\000"
 5157      5F424C55 
 5157      455F494E 
 5157      54454E53 
 5157      49545900 
 5158              	.LASF103:
 5159 042e 6C656674 		.ascii	"left_index\000"
 5159      5F696E64 
 5159      657800
 5160              	.LASF113:
 5161 0439 6765745F 		.ascii	"get_is_anim_on_button_up_enable\000"
 5161      69735F61 
 5161      6E696D5F 
 5161      6F6E5F62 
 5161      7574746F 
 5162              	.LASF109:
 5163 0459 705F616E 		.ascii	"p_animation\000"
 5163      696D6174 
 5163      696F6E00 
 5164              	.LASF67:
 5165 0465 626C7565 		.ascii	"blue_increment\000"
 5165      5F696E63 
 5165      72656D65 
 5165      6E7400
 5166              	.LASF10:
 5167 0474 63686172 		.ascii	"char\000"
 5167      00
 5168              	.LASF116:
 5169 0479 6765745F 		.ascii	"get_current_callback_anim\000"
 5169      63757272 
 5169      656E745F 
 5169      63616C6C 
 5169      6261636B 
 5170              	.LASF25:
 5171 0493 656E756D 		.ascii	"enum_primary_color\000"
 5171      5F707269 
 5171      6D617279 
 5171      5F636F6C 
 5171      6F7200
 5172              	.LASF15:
 5173 04a6 75696E74 		.ascii	"uint16\000"
 5173      313600
 5174              	.LASF93:
 5175 04ad 6F757477 		.ascii	"outward\000"
 5175      61726400 
 5176              	.LASF133:
 5177 04b5 433A5C77 		.ascii	"C:\\work\\Eddie\\Eddie_DP0_Slider\\Prof_DP0.cydsn\000"
 5177      6F726B5C 
 5177      45646469 
 5177      655C4564 
 5177      6469655F 
 5178              	.LASF118:
 5179 04e3 7365745F 		.ascii	"set_current_callback_anim\000"
 5179      63757272 
 5179      656E745F 
 5179      63616C6C 
ARM GAS  C:\Users\MM1005~1\AppData\Local\Temp\ccTXRdVU.s 			page 109


 5179      6261636B 
 5180              	.LASF36:
 5181 04fd 414E494D 		.ascii	"ANIM_LEFT_RIGHT\000"
 5181      5F4C4546 
 5181      545F5249 
 5181      47485400 
 5182              	.LASF16:
 5183 050d 63686172 		.ascii	"char8\000"
 5183      3800
 5184              	.LASF61:
 5185 0513 414C4152 		.ascii	"ALARM_WARNING\000"
 5185      4D5F5741 
 5185      524E494E 
 5185      4700
 5186              	.LASF75:
 5187 0521 616E696D 		.ascii	"animate_rainbow_colors\000"
 5187      6174655F 
 5187      7261696E 
 5187      626F775F 
 5187      636F6C6F 
 5188              	.LASF7:
 5189 0538 6C6F6E67 		.ascii	"long long int\000"
 5189      206C6F6E 
 5189      6720696E 
 5189      7400
 5190              	.LASF56:
 5191 0546 64657363 		.ascii	"description\000"
 5191      72697074 
 5191      696F6E00 
 5192              	.LASF122:
 5193 0552 73696E65 		.ascii	"sine_vec\000"
 5193      5F766563 
 5193      00
 5194              	.LASF47:
 5195 055b 414E494D 		.ascii	"ANIM_FIX_WHITE\000"
 5195      5F464958 
 5195      5F574849 
 5195      544500
 5196              	.LASF19:
 5197 056a 745F7374 		.ascii	"t_struct_rgb_color\000"
 5197      72756374 
 5197      5F726762 
 5197      5F636F6C 
 5197      6F7200
 5198              	.LASF134:
 5199 057d 73656E64 		.ascii	"send_alarm_telemetry\000"
 5199      5F616C61 
 5199      726D5F74 
 5199      656C656D 
 5199      65747279 
 5200              	.LASF21:
 5201 0592 455F5052 		.ascii	"E_PRIMARY_COLOR_GREEN\000"
 5201      494D4152 
 5201      595F434F 
 5201      4C4F525F 
 5201      47524545 
 5202              	.LASF96:
ARM GAS  C:\Users\MM1005~1\AppData\Local\Temp\ccTXRdVU.s 			page 110


 5203 05a8 616E696D 		.ascii	"animate_color_intensity\000"
 5203      6174655F 
 5203      636F6C6F 
 5203      725F696E 
 5203      74656E73 
 5204              	.LASF107:
 5205 05c0 6765745F 		.ascii	"get_animation\000"
 5205      616E696D 
 5205      6174696F 
 5205      6E00
 5206              	.LASF44:
 5207 05ce 414E494D 		.ascii	"ANIM_BLUE_WHITE_INTENSITY\000"
 5207      5F424C55 
 5207      455F5748 
 5207      4954455F 
 5207      494E5445 
 5208              	.LASF85:
 5209 05e8 616E696D 		.ascii	"animate_red_white_intensity\000"
 5209      6174655F 
 5209      7265645F 
 5209      77686974 
 5209      655F696E 
 5210              	.LASF130:
 5211 0604 73656E64 		.ascii	"send_animation_telemetry\000"
 5211      5F616E69 
 5211      6D617469 
 5211      6F6E5F74 
 5211      656C656D 
 5212              	.LASF31:
 5213 061d 455F4C45 		.ascii	"E_LED_LEFT_GREEN\000"
 5213      445F4C45 
 5213      46545F47 
 5213      5245454E 
 5213      00
 5214              	.LASF54:
 5215 062e 73746172 		.ascii	"started\000"
 5215      74656400 
 5216              	.LASF59:
 5217 0636 414C4152 		.ascii	"ALARM_LOG\000"
 5217      4D5F4C4F 
 5217      4700
 5218              	.LASF123:
 5219 0640 69735F61 		.ascii	"is_auto_anim_rotation_enable\000"
 5219      75746F5F 
 5219      616E696D 
 5219      5F726F74 
 5219      6174696F 
 5220              	.LASF17:
 5221 065d 67726565 		.ascii	"green\000"
 5221      6E00
 5222              	.LASF27:
 5223 0663 455F4C45 		.ascii	"E_LED_RIGHT_RED\000"
 5223      445F5249 
 5223      4748545F 
 5223      52454400 
 5224              	.LASF13:
 5225 0673 6C6F6E67 		.ascii	"long double\000"
ARM GAS  C:\Users\MM1005~1\AppData\Local\Temp\ccTXRdVU.s 			page 111


 5225      20646F75 
 5225      626C6500 
 5226              	.LASF64:
 5227 067f 414C4152 		.ascii	"ALARM_UNKNOWN\000"
 5227      4D5F554E 
 5227      4B4E4F57 
 5227      4E00
 5228              	.LASF92:
 5229 068d 6C656674 		.ascii	"left_led\000"
 5229      5F6C6564 
 5229      00
 5230              	.LASF45:
 5231 0696 414E494D 		.ascii	"ANIM_COLORS_INTENSITY\000"
 5231      5F434F4C 
 5231      4F52535F 
 5231      494E5445 
 5231      4E534954 
 5232              	.LASF78:
 5233 06ac 7665635F 		.ascii	"vec_rainbow\000"
 5233      7261696E 
 5233      626F7700 
 5234              	.LASF86:
 5235 06b8 696E7465 		.ascii	"intensity_white_index\000"
 5235      6E736974 
 5235      795F7768 
 5235      6974655F 
 5235      696E6465 
 5236              	.LASF80:
 5237 06ce 6C65645F 		.ascii	"led_pos\000"
 5237      706F7300 
 5238              	.LASF69:
 5239 06d6 7265645F 		.ascii	"red_increment\000"
 5239      696E6372 
 5239      656D656E 
 5239      7400
 5240              	.LASF3:
 5241 06e4 73686F72 		.ascii	"short int\000"
 5241      7420696E 
 5241      7400
 5242              	.LASF127:
 5243 06ee 7365745F 		.ascii	"set_all_white_leds\000"
 5243      616C6C5F 
 5243      77686974 
 5243      655F6C65 
 5243      647300
 5244              	.LASF126:
 5245 0701 7365745F 		.ascii	"set_led\000"
 5245      6C656400 
 5246              	.LASF5:
 5247 0709 6C6F6E67 		.ascii	"long int\000"
 5247      20696E74 
 5247      00
 5248              	.LASF105:
 5249 0712 616E696D 		.ascii	"animate_button_smooth_slow\000"
 5249      6174655F 
 5249      62757474 
 5249      6F6E5F73 
ARM GAS  C:\Users\MM1005~1\AppData\Local\Temp\ccTXRdVU.s 			page 112


 5249      6D6F6F74 
 5250              	.LASF77:
 5251 072d 636F6C6F 		.ascii	"color_index\000"
 5251      725F696E 
 5251      64657800 
 5252              	.LASF51:
 5253 0739 73747275 		.ascii	"struct_rgb_color\000"
 5253      63745F72 
 5253      67625F63 
 5253      6F6C6F72 
 5253      00
 5254              	.LASF58:
 5255 074a 656E756D 		.ascii	"enum_alarm_type\000"
 5255      5F616C61 
 5255      726D5F74 
 5255      79706500 
 5256              	.LASF89:
 5257 075a 616E696D 		.ascii	"animate_blue_white_intensity\000"
 5257      6174655F 
 5257      626C7565 
 5257      5F776869 
 5257      74655F69 
 5258              	.LASF76:
 5259 0777 6379636C 		.ascii	"cycle\000"
 5259      6500
 5260              	.LASF34:
 5261 077d 414E494D 		.ascii	"ANIM_BUTTON_SMOOTH_SLOW\000"
 5261      5F425554 
 5261      544F4E5F 
 5261      534D4F4F 
 5261      54485F53 
 5262              	.LASF43:
 5263 0795 414E494D 		.ascii	"ANIM_GREEN_WHITE_INTENSITY\000"
 5263      5F475245 
 5263      454E5F57 
 5263      48495445 
 5263      5F494E54 
 5264              	.LASF18:
 5265 07b0 626C7565 		.ascii	"blue\000"
 5265      00
 5266              	.LASF72:
 5267 07b5 616E696D 		.ascii	"animate_red_intensity\000"
 5267      6174655F 
 5267      7265645F 
 5267      696E7465 
 5267      6E736974 
 5268              	.LASF99:
 5269 07cb 616E696D 		.ascii	"animate_button_smooth\000"
 5269      6174655F 
 5269      62757474 
 5269      6F6E5F73 
 5269      6D6F6F74 
 5270              	.LASF132:
 5271 07e1 2E2E5C53 		.ascii	"..\\Slider.cydsn\\animation.c\000"
 5271      6C696465 
 5271      722E6379 
 5271      64736E5C 
ARM GAS  C:\Users\MM1005~1\AppData\Local\Temp\ccTXRdVU.s 			page 113


 5271      616E696D 
 5272              	.LASF37:
 5273 07fd 414E494D 		.ascii	"ANIM_INTENSITY\000"
 5273      5F494E54 
 5273      454E5349 
 5273      545900
 5274              	.LASF104:
 5275 080c 72696768 		.ascii	"right_index\000"
 5275      745F696E 
 5275      64657800 
 5276              	.LASF71:
 5277 0818 616E696D 		.ascii	"animate_fix_white\000"
 5277      6174655F 
 5277      6669785F 
 5277      77686974 
 5277      6500
 5278              	.LASF9:
 5279 082a 73697A65 		.ascii	"sizetype\000"
 5279      74797065 
 5279      00
 5280              	.LASF6:
 5281 0833 6C6F6E67 		.ascii	"long unsigned int\000"
 5281      20756E73 
 5281      69676E65 
 5281      6420696E 
 5281      7400
 5282              	.LASF46:
 5283 0845 414E494D 		.ascii	"ANIM_RAINBOW_COLORS\000"
 5283      5F524149 
 5283      4E424F57 
 5283      5F434F4C 
 5283      4F525300 
 5284              	.LASF129:
 5285 0859 7365745F 		.ascii	"set_led_pair\000"
 5285      6C65645F 
 5285      70616972 
 5285      00
 5286              	.LASF20:
 5287 0866 455F5052 		.ascii	"E_PRIMARY_COLOR_RED\000"
 5287      494D4152 
 5287      595F434F 
 5287      4C4F525F 
 5287      52454400 
 5288              	.LASF110:
 5289 087a 7365745F 		.ascii	"set_is_auto_anim_rotation_enable\000"
 5289      69735F61 
 5289      75746F5F 
 5289      616E696D 
 5289      5F726F74 
 5290              	.LASF49:
 5291 089b 745F656E 		.ascii	"t_enum_animation\000"
 5291      756D5F61 
 5291      6E696D61 
 5291      74696F6E 
 5291      00
 5292              	.LASF88:
 5293 08ac 616E696D 		.ascii	"animate_green_white_intensity\000"
ARM GAS  C:\Users\MM1005~1\AppData\Local\Temp\ccTXRdVU.s 			page 114


 5293      6174655F 
 5293      67726565 
 5293      6E5F7768 
 5293      6974655F 
 5294              	.LASF102:
 5295 08ca 6C65645F 		.ascii	"led_up\000"
 5295      757000
 5296              	.LASF2:
 5297 08d1 756E7369 		.ascii	"unsigned char\000"
 5297      676E6564 
 5297      20636861 
 5297      7200
 5298              	.LASF117:
 5299 08df 69735F73 		.ascii	"is_smooth_button_anim_on\000"
 5299      6D6F6F74 
 5299      685F6275 
 5299      74746F6E 
 5299      5F616E69 
 5300              	.LASF29:
 5301 08f8 455F4C45 		.ascii	"E_LED_RIGHT_BLUE\000"
 5301      445F5249 
 5301      4748545F 
 5301      424C5545 
 5301      00
 5302              	.LASF55:
 5303 0909 63616C6C 		.ascii	"callback\000"
 5303      6261636B 
 5303      00
 5304              	.LASF119:
 5305 0912 7468655F 		.ascii	"the_current_callback_anim\000"
 5305      63757272 
 5305      656E745F 
 5305      63616C6C 
 5305      6261636B 
 5306              	.LASF1:
 5307 092c 7369676E 		.ascii	"signed char\000"
 5307      65642063 
 5307      68617200 
 5308              	.LASF4:
 5309 0938 73686F72 		.ascii	"short unsigned int\000"
 5309      7420756E 
 5309      7369676E 
 5309      65642069 
 5309      6E7400
 5310              	.LASF66:
 5311 094b 696E7465 		.ascii	"intensity_up\000"
 5311      6E736974 
 5311      795F7570 
 5311      00
 5312              	.LASF14:
 5313 0958 75696E74 		.ascii	"uint8\000"
 5313      3800
 5314              	.LASF11:
 5315 095e 646F7562 		.ascii	"double\000"
 5315      6C6500
 5316              	.LASF124:
 5317 0965 69735F61 		.ascii	"is_anim_on_button_up_enable\000"
ARM GAS  C:\Users\MM1005~1\AppData\Local\Temp\ccTXRdVU.s 			page 115


 5317      6E696D5F 
 5317      6F6E5F62 
 5317      7574746F 
 5317      6E5F7570 
 5318              	.LASF112:
 5319 0981 6765745F 		.ascii	"get_is_auto_anim_rotation_enable\000"
 5319      69735F61 
 5319      75746F5F 
 5319      616E696D 
 5319      5F726F74 
 5320              	.LASF38:
 5321 09a2 414E494D 		.ascii	"ANIM_2_LEDS\000"
 5321      5F325F4C 
 5321      45445300 
 5322              	.LASF70:
 5323 09ae 616E696D 		.ascii	"animate_all_colors\000"
 5323      6174655F 
 5323      616C6C5F 
 5323      636F6C6F 
 5323      727300
 5324              		.ident	"GCC: (GNU Tools for ARM Embedded Processors) 4.9.3 20150303 (release) [ARM/embedded-4_9-br
