ARM GAS  C:\Users\MM1005~1\AppData\Local\Temp\ccNDvdtn.s 			page 1


   1              		.cpu cortex-m0plus
   2              		.fpu softvfp
   3              		.eabi_attribute 20, 1
   4              		.eabi_attribute 21, 1
   5              		.eabi_attribute 23, 3
   6              		.eabi_attribute 24, 1
   7              		.eabi_attribute 25, 1
   8              		.eabi_attribute 26, 1
   9              		.eabi_attribute 30, 1
  10              		.eabi_attribute 34, 0
  11              		.eabi_attribute 18, 4
  12              		.code	16
  13              		.file	"CapSense_Processing.c"
  14              		.text
  15              	.Ltext0:
  16              		.cfi_sections	.debug_frame
  17              		.section	.text.CapSense_DpInitialize,"ax",%progbits
  18              		.align	2
  19              		.global	CapSense_DpInitialize
  20              		.code	16
  21              		.thumb_func
  22              		.type	CapSense_DpInitialize, %function
  23              	CapSense_DpInitialize:
  24              	.LFB1:
  25              		.file 1 "Generated_Source\\PSoC4\\CapSense_Processing.c"
   1:Generated_Source\PSoC4/CapSense_Processing.c **** /***************************************************************************//**
   2:Generated_Source\PSoC4/CapSense_Processing.c **** * \file CapSense_Processing.c
   3:Generated_Source\PSoC4/CapSense_Processing.c **** * \version 3.10
   4:Generated_Source\PSoC4/CapSense_Processing.c **** *
   5:Generated_Source\PSoC4/CapSense_Processing.c **** * \brief
   6:Generated_Source\PSoC4/CapSense_Processing.c **** * This file provides the source code for the Data Processing module APIs
   7:Generated_Source\PSoC4/CapSense_Processing.c **** * of the component. The Data Processing module is responsible for the
   8:Generated_Source\PSoC4/CapSense_Processing.c **** * low level raw counts processing provided by the sensing module, maintaining
   9:Generated_Source\PSoC4/CapSense_Processing.c **** * baseline and difference values and performing high-level widget processing
  10:Generated_Source\PSoC4/CapSense_Processing.c **** * like updating button status or calculating slider position.
  11:Generated_Source\PSoC4/CapSense_Processing.c **** *
  12:Generated_Source\PSoC4/CapSense_Processing.c **** * \see CapSense P4 v3.10 Datasheet
  13:Generated_Source\PSoC4/CapSense_Processing.c **** *
  14:Generated_Source\PSoC4/CapSense_Processing.c **** *//*****************************************************************************
  15:Generated_Source\PSoC4/CapSense_Processing.c **** * Copyright (2016), Cypress Semiconductor Corporation.
  16:Generated_Source\PSoC4/CapSense_Processing.c **** ********************************************************************************
  17:Generated_Source\PSoC4/CapSense_Processing.c **** * This software is owned by Cypress Semiconductor Corporation (Cypress) and is
  18:Generated_Source\PSoC4/CapSense_Processing.c **** * protected by and subject to worldwide patent protection (United States and
  19:Generated_Source\PSoC4/CapSense_Processing.c **** * foreign), United States copyright laws and international treaty provisions.
  20:Generated_Source\PSoC4/CapSense_Processing.c **** * Cypress hereby grants to licensee a personal, non-exclusive, non-transferable
  21:Generated_Source\PSoC4/CapSense_Processing.c **** * license to copy, use, modify, create derivative works of, and compile the
  22:Generated_Source\PSoC4/CapSense_Processing.c **** * Cypress Source Code and derivative works for the sole purpose of creating
  23:Generated_Source\PSoC4/CapSense_Processing.c **** * custom software in support of licensee product to be used only in conjunction
  24:Generated_Source\PSoC4/CapSense_Processing.c **** * with a Cypress integrated circuit as specified in the applicable agreement.
  25:Generated_Source\PSoC4/CapSense_Processing.c **** * Any reproduction, modification, translation, compilation, or representation of
  26:Generated_Source\PSoC4/CapSense_Processing.c **** * this software except as specified above is prohibited without the express
  27:Generated_Source\PSoC4/CapSense_Processing.c **** * written permission of Cypress.
  28:Generated_Source\PSoC4/CapSense_Processing.c **** *
  29:Generated_Source\PSoC4/CapSense_Processing.c **** * Disclaimer: CYPRESS MAKES NO WARRANTY OF ANY KIND, EXPRESS OR IMPLIED, WITH
  30:Generated_Source\PSoC4/CapSense_Processing.c **** * REGARD TO THIS MATERIAL, INCLUDING, BUT NOT LIMITED TO, THE IMPLIED
  31:Generated_Source\PSoC4/CapSense_Processing.c **** * WARRANTIES OF MERCHANTABILITY AND FITNESS FOR A PARTICULAR PURPOSE.
  32:Generated_Source\PSoC4/CapSense_Processing.c **** * Cypress reserves the right to make changes without further notice to the
ARM GAS  C:\Users\MM1005~1\AppData\Local\Temp\ccNDvdtn.s 			page 2


  33:Generated_Source\PSoC4/CapSense_Processing.c **** * materials described herein. Cypress does not assume any liability arising out
  34:Generated_Source\PSoC4/CapSense_Processing.c **** * of the application or use of any product or circuit described herein. Cypress
  35:Generated_Source\PSoC4/CapSense_Processing.c **** * does not authorize its products for use as critical components in life-support
  36:Generated_Source\PSoC4/CapSense_Processing.c **** * systems where a malfunction or failure may reasonably be expected to result in
  37:Generated_Source\PSoC4/CapSense_Processing.c **** * significant injury to the user. The inclusion of Cypress' product in a life-
  38:Generated_Source\PSoC4/CapSense_Processing.c **** * support systems application implies that the manufacturer assumes all risk of
  39:Generated_Source\PSoC4/CapSense_Processing.c **** * such use and in doing so indemnifies Cypress against all charges. Use may be
  40:Generated_Source\PSoC4/CapSense_Processing.c **** * limited by and subject to the applicable Cypress software license agreement.
  41:Generated_Source\PSoC4/CapSense_Processing.c **** *******************************************************************************/
  42:Generated_Source\PSoC4/CapSense_Processing.c **** 
  43:Generated_Source\PSoC4/CapSense_Processing.c **** #include "cytypes.h"
  44:Generated_Source\PSoC4/CapSense_Processing.c **** #include "CapSense_Configuration.h"
  45:Generated_Source\PSoC4/CapSense_Processing.c **** #include "CapSense_Processing.h"
  46:Generated_Source\PSoC4/CapSense_Processing.c **** #include "CapSense_Filter.h"
  47:Generated_Source\PSoC4/CapSense_Processing.c **** 
  48:Generated_Source\PSoC4/CapSense_Processing.c **** #if (0u != CapSense_CENTROID_EN)
  49:Generated_Source\PSoC4/CapSense_Processing.c ****     #include "CapSense_Centroid_LL.h"
  50:Generated_Source\PSoC4/CapSense_Processing.c **** #endif /* (0 != CapSense_CENTROID_EN) */
  51:Generated_Source\PSoC4/CapSense_Processing.c **** 
  52:Generated_Source\PSoC4/CapSense_Processing.c **** #if (0 != (CapSense_CSD_AUTOTUNE & CapSense_CSD_SS_TH_EN))
  53:Generated_Source\PSoC4/CapSense_Processing.c ****     #include "CapSense_SmartSense_LL.h"
  54:Generated_Source\PSoC4/CapSense_Processing.c **** #endif /* (0 != (CapSense_CSD_AUTOTUNE & CapSense_CSD_SS_TH_EN)) */
  55:Generated_Source\PSoC4/CapSense_Processing.c **** 
  56:Generated_Source\PSoC4/CapSense_Processing.c **** #if (CapSense_ENABLE == CapSense_SELF_TEST_EN)
  57:Generated_Source\PSoC4/CapSense_Processing.c ****     #include "CapSense_SelfTest.h"
  58:Generated_Source\PSoC4/CapSense_Processing.c **** #endif
  59:Generated_Source\PSoC4/CapSense_Processing.c **** 
  60:Generated_Source\PSoC4/CapSense_Processing.c **** #include "CyLib.h"
  61:Generated_Source\PSoC4/CapSense_Processing.c **** 
  62:Generated_Source\PSoC4/CapSense_Processing.c **** /**************************************************************************************************
  63:Generated_Source\PSoC4/CapSense_Processing.c **** * Local definition
  64:Generated_Source\PSoC4/CapSense_Processing.c **** ***************************************************************************************************
  65:Generated_Source\PSoC4/CapSense_Processing.c **** 
  66:Generated_Source\PSoC4/CapSense_Processing.c **** /* This definition resolves to TRUE if any of the FW filters for raw counts are enabled */
  67:Generated_Source\PSoC4/CapSense_Processing.c **** #define DP_FW_FILTER_EN                                 \
  68:Generated_Source\PSoC4/CapSense_Processing.c ****             (CapSense_REGULAR_RC_FILTER_EN |  \
  69:Generated_Source\PSoC4/CapSense_Processing.c ****              CapSense_PROX_RC_FILTER_EN)
  70:Generated_Source\PSoC4/CapSense_Processing.c **** 
  71:Generated_Source\PSoC4/CapSense_Processing.c **** /* This definition resolves to TRUE if any of the position filters are enabled */
  72:Generated_Source\PSoC4/CapSense_Processing.c **** #define DP_POSITION_FILTER_EN                           \
  73:Generated_Source\PSoC4/CapSense_Processing.c ****             (CapSense_POS_IIR_FILTER_EN      || \
  74:Generated_Source\PSoC4/CapSense_Processing.c ****              CapSense_POS_MEDIAN_FILTER_EN   || \
  75:Generated_Source\PSoC4/CapSense_Processing.c ****              CapSense_POS_AVERAGE_FILTER_EN  || \
  76:Generated_Source\PSoC4/CapSense_Processing.c ****              CapSense_POS_JITTER_FILTER_EN)
  77:Generated_Source\PSoC4/CapSense_Processing.c **** 
  78:Generated_Source\PSoC4/CapSense_Processing.c **** /* This definition resolves to TRUE if any of position filters are enabled and component has slider
  79:Generated_Source\PSoC4/CapSense_Processing.c ****  * The processing function of the CSD touchpad reuses the filtering function of the slider widget. 
  80:Generated_Source\PSoC4/CapSense_Processing.c **** #define DP_LINEAR_SLIDER_FILTER_EN                                             \
  81:Generated_Source\PSoC4/CapSense_Processing.c ****            (DP_POSITION_FILTER_EN && (CapSense_TOTAL_LINEAR_SLIDERS || \
  82:Generated_Source\PSoC4/CapSense_Processing.c ****                                       CapSense_CSD_TOUCHPAD_WIDGET_EN))
  83:Generated_Source\PSoC4/CapSense_Processing.c **** 
  84:Generated_Source\PSoC4/CapSense_Processing.c **** /* UINT32 constant with all odd bits set. It is used by the processing function of the Proximity wi
  85:Generated_Source\PSoC4/CapSense_Processing.c **** *  determine type of the status bit: odd bits report proximity status; even bits report touch statu
  86:Generated_Source\PSoC4/CapSense_Processing.c ****  */
  87:Generated_Source\PSoC4/CapSense_Processing.c **** #define UINT32_ODD_BITS_CONST       (0x55555555u)
  88:Generated_Source\PSoC4/CapSense_Processing.c **** 
  89:Generated_Source\PSoC4/CapSense_Processing.c **** /* Default value for the Off Debounce counter when the Off Debounce is disabled */
ARM GAS  C:\Users\MM1005~1\AppData\Local\Temp\ccNDvdtn.s 			page 3


  90:Generated_Source\PSoC4/CapSense_Processing.c **** #define DEFAULT_OFF_DEBOUNCE_VALUE  (1u)
  91:Generated_Source\PSoC4/CapSense_Processing.c **** #define PERCENTAGE_100              (0x00000064Lu)
  92:Generated_Source\PSoC4/CapSense_Processing.c **** #define TEMP_BUFFER_MSB_SHIFT       (16)
  93:Generated_Source\PSoC4/CapSense_Processing.c **** 
  94:Generated_Source\PSoC4/CapSense_Processing.c **** /**************************************************************************************************
  95:Generated_Source\PSoC4/CapSense_Processing.c **** * Local variables
  96:Generated_Source\PSoC4/CapSense_Processing.c **** ***************************************************************************************************
  97:Generated_Source\PSoC4/CapSense_Processing.c **** #if (0u != CapSense_CSX_MULTIPHASE_TX_EN)
  98:Generated_Source\PSoC4/CapSense_Processing.c ****     static uint16 deconvRowData[CapSense_CSX_MAX_TX_PHASE_LENGTH];
  99:Generated_Source\PSoC4/CapSense_Processing.c **** #endif
 100:Generated_Source\PSoC4/CapSense_Processing.c **** 
 101:Generated_Source\PSoC4/CapSense_Processing.c **** 
 102:Generated_Source\PSoC4/CapSense_Processing.c **** /**************************************************************************************************
 103:Generated_Source\PSoC4/CapSense_Processing.c **** * Static Function Prototypes
 104:Generated_Source\PSoC4/CapSense_Processing.c **** ***************************************************************************************************
 105:Generated_Source\PSoC4/CapSense_Processing.c **** /**
 106:Generated_Source\PSoC4/CapSense_Processing.c **** * \if SECTION_CAPSENSE_INTERNAL
 107:Generated_Source\PSoC4/CapSense_Processing.c **** * \addtogroup group_capsense_internal
 108:Generated_Source\PSoC4/CapSense_Processing.c **** * \{
 109:Generated_Source\PSoC4/CapSense_Processing.c **** */
 110:Generated_Source\PSoC4/CapSense_Processing.c **** #if (0u != CapSense_TOTAL_LINEAR_SLIDERS)
 111:Generated_Source\PSoC4/CapSense_Processing.c ****     static CY_INLINE void DpUpdateLinSlider(
 112:Generated_Source\PSoC4/CapSense_Processing.c ****                         const uint16 newPos[], uint32 numTouches,
 113:Generated_Source\PSoC4/CapSense_Processing.c ****                         CapSense_FLASH_WD_STRUCT const *ptrFlashWdgt,
 114:Generated_Source\PSoC4/CapSense_Processing.c ****                         CapSense_RAM_WD_SLIDER_STRUCT *ptrRamWdgt);
 115:Generated_Source\PSoC4/CapSense_Processing.c **** #endif /* #if (0u != CapSense_TOTAL_LINEAR_SLIDERS) */
 116:Generated_Source\PSoC4/CapSense_Processing.c **** 
 117:Generated_Source\PSoC4/CapSense_Processing.c **** #if (0u != DP_LINEAR_SLIDER_FILTER_EN)
 118:Generated_Source\PSoC4/CapSense_Processing.c ****     static CY_INLINE void DpFilterLinSlider(
 119:Generated_Source\PSoC4/CapSense_Processing.c ****                         uint16 newPos, uint32 staticConfig, uint16 *ptrCurrPos,
 120:Generated_Source\PSoC4/CapSense_Processing.c ****                         CapSense_SLIDER_POS_HISTORY_STRUCT *ptrHistory);
 121:Generated_Source\PSoC4/CapSense_Processing.c **** #endif /* #if (0u != DP_LINEAR_SLIDER_FILTER_EN) */
 122:Generated_Source\PSoC4/CapSense_Processing.c **** 
 123:Generated_Source\PSoC4/CapSense_Processing.c **** #if (0u != CapSense_TOTAL_RADIAL_SLIDERS)
 124:Generated_Source\PSoC4/CapSense_Processing.c ****     static CY_INLINE void DpUpdateRadSlider(
 125:Generated_Source\PSoC4/CapSense_Processing.c ****                         const uint16 newPos[], uint32 numTouches,
 126:Generated_Source\PSoC4/CapSense_Processing.c ****                         CapSense_FLASH_WD_STRUCT const * ptrFlashWdgt,
 127:Generated_Source\PSoC4/CapSense_Processing.c ****                         CapSense_RAM_WD_SLIDER_STRUCT *ptrRamWdgt);
 128:Generated_Source\PSoC4/CapSense_Processing.c **** #endif /* #if (0u != CapSense_TOTAL_RADIAL_SLIDERS) */
 129:Generated_Source\PSoC4/CapSense_Processing.c **** 
 130:Generated_Source\PSoC4/CapSense_Processing.c **** #if (0u != CapSense_CSD_TOUCHPAD_WIDGET_EN)
 131:Generated_Source\PSoC4/CapSense_Processing.c ****     static CY_INLINE void CapSense_DpInitCsdTouchpad(CapSense_FLASH_WD_STRUCT const * ptrFlashWdgt)
 132:Generated_Source\PSoC4/CapSense_Processing.c **** #endif /* #if (0u != CapSense_CSD_TOUCHPAD_WIDGET_EN) */
 133:Generated_Source\PSoC4/CapSense_Processing.c **** 
 134:Generated_Source\PSoC4/CapSense_Processing.c **** #if (0u != CapSense_CSX_TOUCHPAD_WIDGET_EN)
 135:Generated_Source\PSoC4/CapSense_Processing.c ****     static CY_INLINE void CapSense_DpInitCsxTouchpad(CapSense_FLASH_WD_STRUCT const * ptrFlashWdgt)
 136:Generated_Source\PSoC4/CapSense_Processing.c **** #endif /* #if (0u != CapSense_CSX_TOUCHPAD_WIDGET_EN) */
 137:Generated_Source\PSoC4/CapSense_Processing.c **** 
 138:Generated_Source\PSoC4/CapSense_Processing.c **** #if (0u != CapSense_SLIDER_WIDGET_EN)
 139:Generated_Source\PSoC4/CapSense_Processing.c ****     static CY_INLINE void CapSense_DpInitSlider(CapSense_FLASH_WD_STRUCT const * ptrFlashWdgt);
 140:Generated_Source\PSoC4/CapSense_Processing.c **** #endif /* #if (0u != CapSense_SLIDER_WIDGET_EN) */
 141:Generated_Source\PSoC4/CapSense_Processing.c **** 
 142:Generated_Source\PSoC4/CapSense_Processing.c **** #if (0u != CapSense_CSD_MATRIX_WIDGET_EN)
 143:Generated_Source\PSoC4/CapSense_Processing.c ****     static CY_INLINE void CapSense_DpInitCsdMatrix(CapSense_FLASH_WD_STRUCT const * ptrFlashWdgt);
 144:Generated_Source\PSoC4/CapSense_Processing.c **** #endif /* #if (0u != CapSense_CSD_MATRIX_WIDGET_EN) */
 145:Generated_Source\PSoC4/CapSense_Processing.c **** 
 146:Generated_Source\PSoC4/CapSense_Processing.c **** /** \}
ARM GAS  C:\Users\MM1005~1\AppData\Local\Temp\ccNDvdtn.s 			page 4


 147:Generated_Source\PSoC4/CapSense_Processing.c **** * \endif */
 148:Generated_Source\PSoC4/CapSense_Processing.c **** 
 149:Generated_Source\PSoC4/CapSense_Processing.c **** #if (0u != CapSense_CSD_TOUCHPAD_WIDGET_EN)
 150:Generated_Source\PSoC4/CapSense_Processing.c **** /*******************************************************************************
 151:Generated_Source\PSoC4/CapSense_Processing.c **** * Function Name: CapSense_DpInitCsdTouchpad
 152:Generated_Source\PSoC4/CapSense_Processing.c **** ****************************************************************************//**
 153:Generated_Source\PSoC4/CapSense_Processing.c **** *
 154:Generated_Source\PSoC4/CapSense_Processing.c **** * \brief
 155:Generated_Source\PSoC4/CapSense_Processing.c **** *  Performs initialization of the CSD touchpad widget.
 156:Generated_Source\PSoC4/CapSense_Processing.c **** *   - Resets the position data to NONE
 157:Generated_Source\PSoC4/CapSense_Processing.c **** *   - Initializes the median filter history if the appropriate position filter is enabled.
 158:Generated_Source\PSoC4/CapSense_Processing.c **** *
 159:Generated_Source\PSoC4/CapSense_Processing.c **** * \details
 160:Generated_Source\PSoC4/CapSense_Processing.c **** *  The position data is always reset to the CapSense_TOUCHPAD_POS_NONE value.
 161:Generated_Source\PSoC4/CapSense_Processing.c **** *  The same happens to the median filter history data if this type of filter is enabled.
 162:Generated_Source\PSoC4/CapSense_Processing.c **** *
 163:Generated_Source\PSoC4/CapSense_Processing.c **** *******************************************************************************/
 164:Generated_Source\PSoC4/CapSense_Processing.c **** static CY_INLINE void CapSense_DpInitCsdTouchpad(CapSense_FLASH_WD_STRUCT const * ptrFlashWdgt)
 165:Generated_Source\PSoC4/CapSense_Processing.c **** {
 166:Generated_Source\PSoC4/CapSense_Processing.c ****     CapSense_RAM_WD_CSD_TOUCHPAD_STRUCT *ptrWdTouchpad;
 167:Generated_Source\PSoC4/CapSense_Processing.c **** 
 168:Generated_Source\PSoC4/CapSense_Processing.c ****     #if (0u != CapSense_POS_MEDIAN_FILTER_EN)
 169:Generated_Source\PSoC4/CapSense_Processing.c ****         CapSense_TOUCHPAD_POS_HISTORY_STRUCT *ptrHistory;
 170:Generated_Source\PSoC4/CapSense_Processing.c ****     #endif  /* #if (0u != CapSense_POS_MEDIAN_FILTER_EN) */
 171:Generated_Source\PSoC4/CapSense_Processing.c **** 
 172:Generated_Source\PSoC4/CapSense_Processing.c ****     ptrWdTouchpad = ptrFlashWdgt->ptr2WdgtRam;
 173:Generated_Source\PSoC4/CapSense_Processing.c **** 
 174:Generated_Source\PSoC4/CapSense_Processing.c ****     /* Reset position data */
 175:Generated_Source\PSoC4/CapSense_Processing.c ****     ptrWdTouchpad->posX = CapSense_TOUCHPAD_POS_NONE;
 176:Generated_Source\PSoC4/CapSense_Processing.c ****     ptrWdTouchpad->posY = CapSense_TOUCHPAD_POS_NONE;
 177:Generated_Source\PSoC4/CapSense_Processing.c **** 
 178:Generated_Source\PSoC4/CapSense_Processing.c ****     /* Reset median filter */
 179:Generated_Source\PSoC4/CapSense_Processing.c ****     #if (0u != CapSense_POS_MEDIAN_FILTER_EN)
 180:Generated_Source\PSoC4/CapSense_Processing.c ****         ptrHistory = ptrFlashWdgt->ptr2PosHistory;
 181:Generated_Source\PSoC4/CapSense_Processing.c **** 
 182:Generated_Source\PSoC4/CapSense_Processing.c ****         if (NULL != ptrHistory)
 183:Generated_Source\PSoC4/CapSense_Processing.c ****         {
 184:Generated_Source\PSoC4/CapSense_Processing.c ****             ptrHistory->xPos.posMedianZ1 = CapSense_TOUCHPAD_POS_NONE;
 185:Generated_Source\PSoC4/CapSense_Processing.c ****             ptrHistory->xPos.posMedianZ2 = CapSense_TOUCHPAD_POS_NONE;
 186:Generated_Source\PSoC4/CapSense_Processing.c **** 
 187:Generated_Source\PSoC4/CapSense_Processing.c ****             ptrHistory->yPos.posMedianZ1 = CapSense_TOUCHPAD_POS_NONE;
 188:Generated_Source\PSoC4/CapSense_Processing.c ****             ptrHistory->yPos.posMedianZ2 = CapSense_TOUCHPAD_POS_NONE;
 189:Generated_Source\PSoC4/CapSense_Processing.c ****         }
 190:Generated_Source\PSoC4/CapSense_Processing.c ****     #endif /* #if (0u != CapSense_POS_MEDIAN_FILTER_EN) */
 191:Generated_Source\PSoC4/CapSense_Processing.c **** }
 192:Generated_Source\PSoC4/CapSense_Processing.c **** #endif /* #if (0u != CapSense_CSD_TOUCHPAD_WIDGET_EN) */
 193:Generated_Source\PSoC4/CapSense_Processing.c **** 
 194:Generated_Source\PSoC4/CapSense_Processing.c **** #if (0u != CapSense_CSX_TOUCHPAD_WIDGET_EN)
 195:Generated_Source\PSoC4/CapSense_Processing.c **** /*******************************************************************************
 196:Generated_Source\PSoC4/CapSense_Processing.c **** * Function Name: CapSense_DpInitCsxTouchpad
 197:Generated_Source\PSoC4/CapSense_Processing.c **** ****************************************************************************//**
 198:Generated_Source\PSoC4/CapSense_Processing.c **** *
 199:Generated_Source\PSoC4/CapSense_Processing.c **** * \brief
 200:Generated_Source\PSoC4/CapSense_Processing.c **** *  Performs initialization of the CSX touchpad widget i.e. Resets the position data to NONE.
 201:Generated_Source\PSoC4/CapSense_Processing.c **** *
 202:Generated_Source\PSoC4/CapSense_Processing.c **** * \details
 203:Generated_Source\PSoC4/CapSense_Processing.c **** *  The position data is always reset to the CapSense_TOUCHPAD_POS_NONE value.
ARM GAS  C:\Users\MM1005~1\AppData\Local\Temp\ccNDvdtn.s 			page 5


 204:Generated_Source\PSoC4/CapSense_Processing.c **** *
 205:Generated_Source\PSoC4/CapSense_Processing.c **** *******************************************************************************/
 206:Generated_Source\PSoC4/CapSense_Processing.c **** static CY_INLINE void CapSense_DpInitCsxTouchpad(CapSense_FLASH_WD_STRUCT const * ptrFlashWdgt)
 207:Generated_Source\PSoC4/CapSense_Processing.c **** {
 208:Generated_Source\PSoC4/CapSense_Processing.c ****     CapSense_RAM_WD_CSX_TOUCHPAD_STRUCT *ptrWdTouchpad;
 209:Generated_Source\PSoC4/CapSense_Processing.c **** 
 210:Generated_Source\PSoC4/CapSense_Processing.c ****     ptrWdTouchpad = ptrFlashWdgt->ptr2WdgtRam;
 211:Generated_Source\PSoC4/CapSense_Processing.c **** 
 212:Generated_Source\PSoC4/CapSense_Processing.c ****     /* Reset position data for finger */
 213:Generated_Source\PSoC4/CapSense_Processing.c ****     ptrWdTouchpad->touch[0u].x = CapSense_TOUCHPAD_POS_NONE;
 214:Generated_Source\PSoC4/CapSense_Processing.c ****     ptrWdTouchpad->touch[0u].y = CapSense_TOUCHPAD_POS_NONE;
 215:Generated_Source\PSoC4/CapSense_Processing.c ****     ptrWdTouchpad->touch[0u].z = LO8(CapSense_TOUCHPAD_POS_NONE);
 216:Generated_Source\PSoC4/CapSense_Processing.c **** 
 217:Generated_Source\PSoC4/CapSense_Processing.c ****     #if (CapSense_CSX_MAX_FINGERS > 1u)
 218:Generated_Source\PSoC4/CapSense_Processing.c ****         ptrWdTouchpad->touch[1u].x = CapSense_TOUCHPAD_POS_NONE;
 219:Generated_Source\PSoC4/CapSense_Processing.c ****         ptrWdTouchpad->touch[1u].y = CapSense_TOUCHPAD_POS_NONE;
 220:Generated_Source\PSoC4/CapSense_Processing.c ****         ptrWdTouchpad->touch[1u].z = LO8(CapSense_TOUCHPAD_POS_NONE);
 221:Generated_Source\PSoC4/CapSense_Processing.c ****     #endif /* #if (CapSense_CSX_MAX_FINGERS > 1u) */
 222:Generated_Source\PSoC4/CapSense_Processing.c **** 
 223:Generated_Source\PSoC4/CapSense_Processing.c ****     #if (CapSense_CSX_MAX_FINGERS > 2u)
 224:Generated_Source\PSoC4/CapSense_Processing.c ****         ptrWdTouchpad->touch[2u].x = CapSense_TOUCHPAD_POS_NONE;
 225:Generated_Source\PSoC4/CapSense_Processing.c ****         ptrWdTouchpad->touch[2u].y = CapSense_TOUCHPAD_POS_NONE;
 226:Generated_Source\PSoC4/CapSense_Processing.c ****         ptrWdTouchpad->touch[2u].z = LO8(CapSense_TOUCHPAD_POS_NONE);
 227:Generated_Source\PSoC4/CapSense_Processing.c ****     #endif /* #if (CapSense_CSX_MAX_FINGERS > 2u) */
 228:Generated_Source\PSoC4/CapSense_Processing.c **** }
 229:Generated_Source\PSoC4/CapSense_Processing.c **** #endif /* #if (0u != CapSense_CSX_TOUCHPAD_WIDGET_EN) */
 230:Generated_Source\PSoC4/CapSense_Processing.c **** 
 231:Generated_Source\PSoC4/CapSense_Processing.c **** #if (0u != CapSense_SLIDER_WIDGET_EN)
 232:Generated_Source\PSoC4/CapSense_Processing.c **** /*******************************************************************************
 233:Generated_Source\PSoC4/CapSense_Processing.c **** * Function Name: CapSense_DpInitSlider
 234:Generated_Source\PSoC4/CapSense_Processing.c **** ****************************************************************************//**
 235:Generated_Source\PSoC4/CapSense_Processing.c **** *
 236:Generated_Source\PSoC4/CapSense_Processing.c **** * \brief
 237:Generated_Source\PSoC4/CapSense_Processing.c **** *  Performs initialization of the Radial and Linear Slider widget.
 238:Generated_Source\PSoC4/CapSense_Processing.c **** *   - Resets the position data to NONE
 239:Generated_Source\PSoC4/CapSense_Processing.c **** *   - Initializes the median filter history to NONE if it is enabled.
 240:Generated_Source\PSoC4/CapSense_Processing.c **** *
 241:Generated_Source\PSoC4/CapSense_Processing.c **** * \details
 242:Generated_Source\PSoC4/CapSense_Processing.c **** *  Position data is always reset to the CapSense_SLIDER_POS_NONE value.
 243:Generated_Source\PSoC4/CapSense_Processing.c **** *  The same happens to the median filter history data.
 244:Generated_Source\PSoC4/CapSense_Processing.c **** *
 245:Generated_Source\PSoC4/CapSense_Processing.c **** *******************************************************************************/
 246:Generated_Source\PSoC4/CapSense_Processing.c **** static CY_INLINE void CapSense_DpInitSlider(CapSense_FLASH_WD_STRUCT const * ptrFlashWdgt)
 247:Generated_Source\PSoC4/CapSense_Processing.c **** {
 248:Generated_Source\PSoC4/CapSense_Processing.c ****     uint32 idx;
 249:Generated_Source\PSoC4/CapSense_Processing.c ****     CapSense_RAM_WD_SLIDER_STRUCT *ptrWdSlider;
 250:Generated_Source\PSoC4/CapSense_Processing.c **** 
 251:Generated_Source\PSoC4/CapSense_Processing.c ****     #if (0u != CapSense_POS_MEDIAN_FILTER_EN)
 252:Generated_Source\PSoC4/CapSense_Processing.c ****         CapSense_SLIDER_POS_HISTORY_STRUCT *ptrHistory;
 253:Generated_Source\PSoC4/CapSense_Processing.c ****     #endif /* #if (0u != CapSense_POS_MEDIAN_FILTER_EN) */
 254:Generated_Source\PSoC4/CapSense_Processing.c **** 
 255:Generated_Source\PSoC4/CapSense_Processing.c ****     ptrWdSlider = ptrFlashWdgt->ptr2WdgtRam;
 256:Generated_Source\PSoC4/CapSense_Processing.c **** 
 257:Generated_Source\PSoC4/CapSense_Processing.c ****     /* Reset slider position data to NONE */
 258:Generated_Source\PSoC4/CapSense_Processing.c ****     for (idx = 0u; idx < CapSense_NUM_CENTROIDS; idx++)
 259:Generated_Source\PSoC4/CapSense_Processing.c ****     {
 260:Generated_Source\PSoC4/CapSense_Processing.c ****         ptrWdSlider->position[idx] = CapSense_SLIDER_POS_NONE;
ARM GAS  C:\Users\MM1005~1\AppData\Local\Temp\ccNDvdtn.s 			page 6


 261:Generated_Source\PSoC4/CapSense_Processing.c **** 
 262:Generated_Source\PSoC4/CapSense_Processing.c ****         #if (0u != CapSense_POS_MEDIAN_FILTER_EN)
 263:Generated_Source\PSoC4/CapSense_Processing.c ****             ptrHistory = ptrFlashWdgt->ptr2PosHistory;
 264:Generated_Source\PSoC4/CapSense_Processing.c ****             
 265:Generated_Source\PSoC4/CapSense_Processing.c ****             if (NULL != ptrHistory)
 266:Generated_Source\PSoC4/CapSense_Processing.c ****             {
 267:Generated_Source\PSoC4/CapSense_Processing.c ****                 ptrHistory[idx].posMedianZ1 = CapSense_SLIDER_POS_NONE;
 268:Generated_Source\PSoC4/CapSense_Processing.c ****                 ptrHistory[idx].posMedianZ2 = CapSense_SLIDER_POS_NONE;
 269:Generated_Source\PSoC4/CapSense_Processing.c ****             }
 270:Generated_Source\PSoC4/CapSense_Processing.c ****         #endif /* #if (0u != CapSense_POS_MEDIAN_FILTER_EN) */
 271:Generated_Source\PSoC4/CapSense_Processing.c ****     }
 272:Generated_Source\PSoC4/CapSense_Processing.c **** }
 273:Generated_Source\PSoC4/CapSense_Processing.c **** #endif /* #if (0u != CapSense_SLIDER_WIDGET_EN) */
 274:Generated_Source\PSoC4/CapSense_Processing.c **** 
 275:Generated_Source\PSoC4/CapSense_Processing.c **** #if (0u != CapSense_CSD_MATRIX_WIDGET_EN)
 276:Generated_Source\PSoC4/CapSense_Processing.c **** /*******************************************************************************
 277:Generated_Source\PSoC4/CapSense_Processing.c **** * Function Name: CapSense_DpInitCsdMatrix
 278:Generated_Source\PSoC4/CapSense_Processing.c **** ****************************************************************************//**
 279:Generated_Source\PSoC4/CapSense_Processing.c **** *
 280:Generated_Source\PSoC4/CapSense_Processing.c **** * \brief
 281:Generated_Source\PSoC4/CapSense_Processing.c **** *  Performs initialization of the CSD Matrix Buttons widget.
 282:Generated_Source\PSoC4/CapSense_Processing.c **** *   - Resets the active button position data to NONE.
 283:Generated_Source\PSoC4/CapSense_Processing.c **** *
 284:Generated_Source\PSoC4/CapSense_Processing.c **** * \details
 285:Generated_Source\PSoC4/CapSense_Processing.c **** *  Position data is always reset to the CapSense_MATRIX_POS_NONE value.
 286:Generated_Source\PSoC4/CapSense_Processing.c **** *
 287:Generated_Source\PSoC4/CapSense_Processing.c **** *******************************************************************************/
 288:Generated_Source\PSoC4/CapSense_Processing.c **** static CY_INLINE void CapSense_DpInitCsdMatrix(CapSense_FLASH_WD_STRUCT const * ptrFlashWdgt)
 289:Generated_Source\PSoC4/CapSense_Processing.c **** {
 290:Generated_Source\PSoC4/CapSense_Processing.c ****     CapSense_RAM_WD_CSD_MATRIX_STRUCT *ptrRamWdgt;
 291:Generated_Source\PSoC4/CapSense_Processing.c **** 
 292:Generated_Source\PSoC4/CapSense_Processing.c ****     ptrRamWdgt = ptrFlashWdgt->ptr2WdgtRam;
 293:Generated_Source\PSoC4/CapSense_Processing.c **** 
 294:Generated_Source\PSoC4/CapSense_Processing.c ****     /* Reset sensor id, row and col registers in data structure */
 295:Generated_Source\PSoC4/CapSense_Processing.c ****     ptrRamWdgt->posRow   = CapSense_MATRIX_POS_NONE;
 296:Generated_Source\PSoC4/CapSense_Processing.c ****     ptrRamWdgt->posCol   = CapSense_MATRIX_POS_NONE;
 297:Generated_Source\PSoC4/CapSense_Processing.c ****     ptrRamWdgt->posSnsId = CapSense_MATRIX_POS_NONE;
 298:Generated_Source\PSoC4/CapSense_Processing.c **** }
 299:Generated_Source\PSoC4/CapSense_Processing.c **** #endif /* #if (0u != CapSense_CSD_MATRIX_WIDGET_EN) */
 300:Generated_Source\PSoC4/CapSense_Processing.c **** 
 301:Generated_Source\PSoC4/CapSense_Processing.c **** /*******************************************************************************
 302:Generated_Source\PSoC4/CapSense_Processing.c **** * Function Name: CapSense_DpInitialize
 303:Generated_Source\PSoC4/CapSense_Processing.c **** ****************************************************************************//**
 304:Generated_Source\PSoC4/CapSense_Processing.c **** *
 305:Generated_Source\PSoC4/CapSense_Processing.c **** * \brief
 306:Generated_Source\PSoC4/CapSense_Processing.c **** *  Performs initialization of the data processing FW module:
 307:Generated_Source\PSoC4/CapSense_Processing.c **** *   - Resets the de-bounce counters of all widgets
 308:Generated_Source\PSoC4/CapSense_Processing.c **** *   - Resets the position filter history for slider and touchpad widgets
 309:Generated_Source\PSoC4/CapSense_Processing.c **** *   - Clears widget and sensor statuses
 310:Generated_Source\PSoC4/CapSense_Processing.c **** *   - Enables all widgets.
 311:Generated_Source\PSoC4/CapSense_Processing.c **** *
 312:Generated_Source\PSoC4/CapSense_Processing.c **** * \details
 313:Generated_Source\PSoC4/CapSense_Processing.c **** *  The Button and Matrix Button widgets have individual de-bounce counter per
 314:Generated_Source\PSoC4/CapSense_Processing.c **** *  sensor for the CSD widgets and per node for the CSX widgets.
 315:Generated_Source\PSoC4/CapSense_Processing.c **** *
 316:Generated_Source\PSoC4/CapSense_Processing.c **** *  The Slider and Touchpad widgets have a single de-bounce counter per widget.
 317:Generated_Source\PSoC4/CapSense_Processing.c **** *
ARM GAS  C:\Users\MM1005~1\AppData\Local\Temp\ccNDvdtn.s 			page 7


 318:Generated_Source\PSoC4/CapSense_Processing.c **** *  The Proximity widget has two de-bounce counters per sensor. One for the
 319:Generated_Source\PSoC4/CapSense_Processing.c **** *  proximity event and second for the touch event.
 320:Generated_Source\PSoC4/CapSense_Processing.c **** *
 321:Generated_Source\PSoC4/CapSense_Processing.c **** *  All debounce counters during initialization are set to the value of the
 322:Generated_Source\PSoC4/CapSense_Processing.c **** *  onDebounce widget parameter.
 323:Generated_Source\PSoC4/CapSense_Processing.c **** *
 324:Generated_Source\PSoC4/CapSense_Processing.c **** *******************************************************************************/
 325:Generated_Source\PSoC4/CapSense_Processing.c **** void CapSense_DpInitialize(void)
 326:Generated_Source\PSoC4/CapSense_Processing.c **** {
  26              		.loc 1 326 0
  27              		.cfi_startproc
  28 0000 70B5     		push	{r4, r5, r6, lr}
  29              		.cfi_def_cfa_offset 16
  30              		.cfi_offset 4, -16
  31              		.cfi_offset 5, -12
  32              		.cfi_offset 6, -8
  33              		.cfi_offset 14, -4
  34              	.LVL0:
 327:Generated_Source\PSoC4/CapSense_Processing.c ****     uint32 wdgtId;
 328:Generated_Source\PSoC4/CapSense_Processing.c ****     CapSense_WD_TYPE_ENUM widgetType;
 329:Generated_Source\PSoC4/CapSense_Processing.c ****     CapSense_RAM_WD_BASE_STRUCT * ptrRamWdgt;
 330:Generated_Source\PSoC4/CapSense_Processing.c ****     CapSense_FLASH_WD_STRUCT const * ptrFlashWdgt;
 331:Generated_Source\PSoC4/CapSense_Processing.c **** 
 332:Generated_Source\PSoC4/CapSense_Processing.c ****     for (wdgtId = 0u; wdgtId < CapSense_WDGT_STATUS_WORDS; wdgtId++)
  35              		.loc 1 332 0
  36 0002 0023     		mov	r3, #0
  37 0004 0BE0     		b	.L2
  38              	.LVL1:
  39              	.L3:
 333:Generated_Source\PSoC4/CapSense_Processing.c ****     {
 334:Generated_Source\PSoC4/CapSense_Processing.c ****         /* Clear widget status */
 335:Generated_Source\PSoC4/CapSense_Processing.c ****         CapSense_dsRam.wdgtStatus[wdgtId] = 0u;
  40              		.loc 1 335 0 discriminator 3
  41 0006 1348     		ldr	r0, .L8
  42 0008 191D     		add	r1, r3, #4
  43 000a 8900     		lsl	r1, r1, #2
  44 000c 0022     		mov	r2, #0
  45 000e 0A50     		str	r2, [r1, r0]
 336:Generated_Source\PSoC4/CapSense_Processing.c **** 
 337:Generated_Source\PSoC4/CapSense_Processing.c ****         /* Enable all widgets */
 338:Generated_Source\PSoC4/CapSense_Processing.c ****         CapSense_dsRam.wdgtEnable[wdgtId] = 0xFFFFFFFFLu;
  46              		.loc 1 338 0 discriminator 3
  47 0010 9A1C     		add	r2, r3, #2
  48 0012 9200     		lsl	r2, r2, #2
  49 0014 8218     		add	r2, r0, r2
  50 0016 0121     		mov	r1, #1
  51 0018 4942     		neg	r1, r1
  52 001a 5160     		str	r1, [r2, #4]
 332:Generated_Source\PSoC4/CapSense_Processing.c ****     {
  53              		.loc 1 332 0 discriminator 3
  54 001c 0133     		add	r3, r3, #1
  55              	.LVL2:
  56              	.L2:
 332:Generated_Source\PSoC4/CapSense_Processing.c ****     {
  57              		.loc 1 332 0 is_stmt 0 discriminator 1
  58 001e 002B     		cmp	r3, #0
  59 0020 F1D0     		beq	.L3
ARM GAS  C:\Users\MM1005~1\AppData\Local\Temp\ccNDvdtn.s 			page 8


  60 0022 0D4C     		ldr	r4, .L8+4
  61 0024 0123     		mov	r3, #1
  62              	.LVL3:
  63 0026 10E0     		b	.L4
  64              	.LVL4:
  65              	.L7:
 339:Generated_Source\PSoC4/CapSense_Processing.c **** 
 340:Generated_Source\PSoC4/CapSense_Processing.c ****         /* Set all widgets to working state if the Self-Test is not enabled */
 341:Generated_Source\PSoC4/CapSense_Processing.c ****         #if (0u != CapSense_SELF_TEST_EN)
 342:Generated_Source\PSoC4/CapSense_Processing.c ****             CapSense_dsRam.wdgtWorking[wdgtId] = 0xFFFFFFFFLu;
 343:Generated_Source\PSoC4/CapSense_Processing.c ****         #endif /* #if (0u == CapSense_SELF_TEST_EN) */
 344:Generated_Source\PSoC4/CapSense_Processing.c ****     }
 345:Generated_Source\PSoC4/CapSense_Processing.c **** 
 346:Generated_Source\PSoC4/CapSense_Processing.c ****     ptrFlashWdgt = CapSense_dsFlash.wdgtArray;
 347:Generated_Source\PSoC4/CapSense_Processing.c **** 
 348:Generated_Source\PSoC4/CapSense_Processing.c ****     for (wdgtId = CapSense_TOTAL_WIDGETS; wdgtId-- > 0u; )
 349:Generated_Source\PSoC4/CapSense_Processing.c ****     {
 350:Generated_Source\PSoC4/CapSense_Processing.c ****         ptrRamWdgt = ptrFlashWdgt->ptr2WdgtRam;
  66              		.loc 1 350 0 is_stmt 1
  67 0028 6668     		ldr	r6, [r4, #4]
  68              	.LVL5:
 351:Generated_Source\PSoC4/CapSense_Processing.c ****         widgetType = (CapSense_WD_TYPE_ENUM)ptrFlashWdgt->wdgtType;
  69              		.loc 1 351 0
  70 002a 227E     		ldrb	r2, [r4, #24]
  71              	.LVL6:
 352:Generated_Source\PSoC4/CapSense_Processing.c **** 
 353:Generated_Source\PSoC4/CapSense_Processing.c ****         /* Clear all sensor statuses */
 354:Generated_Source\PSoC4/CapSense_Processing.c ****         CapSense_dsRam.snsStatus[wdgtId] = 0u;
  72              		.loc 1 354 0
  73 002c 094B     		ldr	r3, .L8
  74 002e 5B19     		add	r3, r3, r5
  75 0030 0021     		mov	r1, #0
  76 0032 1975     		strb	r1, [r3, #20]
 355:Generated_Source\PSoC4/CapSense_Processing.c **** 
 356:Generated_Source\PSoC4/CapSense_Processing.c ****         /* Reset de-bounce counters */
 357:Generated_Source\PSoC4/CapSense_Processing.c ****         switch (widgetType)
  77              		.loc 1 357 0
  78 0034 012A     		cmp	r2, #1
  79 0036 06D1     		bne	.L5
 358:Generated_Source\PSoC4/CapSense_Processing.c ****         {
 359:Generated_Source\PSoC4/CapSense_Processing.c ****         #if (0u != CapSense_MATRIX_WIDGET_EN)
 360:Generated_Source\PSoC4/CapSense_Processing.c ****             case CapSense_WD_MATRIX_BUTTON_E:
 361:Generated_Source\PSoC4/CapSense_Processing.c ****                 #if (0u != CapSense_CSD_MATRIX_WIDGET_EN)
 362:Generated_Source\PSoC4/CapSense_Processing.c ****                     if (CapSense_SENSE_METHOD_CSD_E == CapSense_GET_SENSE_METHOD(ptrFlashWdgt))
 363:Generated_Source\PSoC4/CapSense_Processing.c ****                     {
 364:Generated_Source\PSoC4/CapSense_Processing.c ****                         CapSense_DpInitCsdMatrix(ptrFlashWdgt);
 365:Generated_Source\PSoC4/CapSense_Processing.c ****                     }
 366:Generated_Source\PSoC4/CapSense_Processing.c ****                 #endif /* #if (0u != CapSense_CSD_MATRIX_WIDGET_EN) */
 367:Generated_Source\PSoC4/CapSense_Processing.c ****                 
 368:Generated_Source\PSoC4/CapSense_Processing.c ****                 if (NULL != ptrFlashWdgt->ptr2DebounceArr)
 369:Generated_Source\PSoC4/CapSense_Processing.c ****                 {
 370:Generated_Source\PSoC4/CapSense_Processing.c ****                     /* Initialize array of debounce counters */
 371:Generated_Source\PSoC4/CapSense_Processing.c ****                     (void)memset(ptrFlashWdgt->ptr2DebounceArr, 
 372:Generated_Source\PSoC4/CapSense_Processing.c ****                                  (int32)ptrRamWdgt->onDebounce, 
 373:Generated_Source\PSoC4/CapSense_Processing.c ****                                  (size_t)ptrFlashWdgt->totalNumSns);
 374:Generated_Source\PSoC4/CapSense_Processing.c ****                 }
 375:Generated_Source\PSoC4/CapSense_Processing.c ****                 break;
ARM GAS  C:\Users\MM1005~1\AppData\Local\Temp\ccNDvdtn.s 			page 9


 376:Generated_Source\PSoC4/CapSense_Processing.c ****         #endif /* #if (0u != CapSense_MATRIX_WIDGET_EN) */
 377:Generated_Source\PSoC4/CapSense_Processing.c ****         
 378:Generated_Source\PSoC4/CapSense_Processing.c ****         #if (0u != CapSense_BUTTON_WIDGET_EN)
 379:Generated_Source\PSoC4/CapSense_Processing.c ****             case CapSense_WD_BUTTON_E:
 380:Generated_Source\PSoC4/CapSense_Processing.c ****                 if (NULL != ptrFlashWdgt->ptr2DebounceArr)
  80              		.loc 1 380 0
  81 0038 2069     		ldr	r0, [r4, #16]
  82 003a 0028     		cmp	r0, #0
  83 003c 03D0     		beq	.L5
 381:Generated_Source\PSoC4/CapSense_Processing.c ****                 {
 382:Generated_Source\PSoC4/CapSense_Processing.c ****                     /* Initialize array of debounce counters */
 383:Generated_Source\PSoC4/CapSense_Processing.c ****                     (void)memset(ptrFlashWdgt->ptr2DebounceArr, 
 384:Generated_Source\PSoC4/CapSense_Processing.c ****                                  (int32)ptrRamWdgt->onDebounce, 
  84              		.loc 1 384 0
  85 003e F179     		ldrb	r1, [r6, #7]
 385:Generated_Source\PSoC4/CapSense_Processing.c ****                                  (size_t)ptrFlashWdgt->totalNumSns);
  86              		.loc 1 385 0
  87 0040 E28A     		ldrh	r2, [r4, #22]
  88              	.LVL7:
 383:Generated_Source\PSoC4/CapSense_Processing.c ****                                  (int32)ptrRamWdgt->onDebounce, 
  89              		.loc 1 383 0
  90 0042 FFF7FEFF 		bl	memset
  91              	.LVL8:
  92              	.L5:
 386:Generated_Source\PSoC4/CapSense_Processing.c ****                 }
 387:Generated_Source\PSoC4/CapSense_Processing.c ****                 break;
 388:Generated_Source\PSoC4/CapSense_Processing.c ****         #endif /* #if (0u != CapSense_BUTTON_WIDGET_EN) */
 389:Generated_Source\PSoC4/CapSense_Processing.c **** 
 390:Generated_Source\PSoC4/CapSense_Processing.c ****         #if (0u != CapSense_SLIDER_WIDGET_EN)
 391:Generated_Source\PSoC4/CapSense_Processing.c ****             case CapSense_WD_LINEAR_SLIDER_E:
 392:Generated_Source\PSoC4/CapSense_Processing.c ****             case CapSense_WD_RADIAL_SLIDER_E:
 393:Generated_Source\PSoC4/CapSense_Processing.c ****                 if (NULL != ptrFlashWdgt->ptr2DebounceArr)
 394:Generated_Source\PSoC4/CapSense_Processing.c ****                 {
 395:Generated_Source\PSoC4/CapSense_Processing.c ****                     /* Initialize single debounce counter of slider */
 396:Generated_Source\PSoC4/CapSense_Processing.c ****                     *(uint8 *)(ptrFlashWdgt->ptr2DebounceArr) = ptrRamWdgt->onDebounce;
 397:Generated_Source\PSoC4/CapSense_Processing.c ****                 }
 398:Generated_Source\PSoC4/CapSense_Processing.c **** 
 399:Generated_Source\PSoC4/CapSense_Processing.c ****                 CapSense_DpInitSlider(ptrFlashWdgt);
 400:Generated_Source\PSoC4/CapSense_Processing.c **** 
 401:Generated_Source\PSoC4/CapSense_Processing.c ****                 break;
 402:Generated_Source\PSoC4/CapSense_Processing.c ****         #endif /* #if (0u != CapSense_SLIDER_WIDGET_EN) */
 403:Generated_Source\PSoC4/CapSense_Processing.c **** 
 404:Generated_Source\PSoC4/CapSense_Processing.c ****         #if (0u != CapSense_TOUCHPAD_WIDGET_EN)
 405:Generated_Source\PSoC4/CapSense_Processing.c ****             case CapSense_WD_TOUCHPAD_E:
 406:Generated_Source\PSoC4/CapSense_Processing.c ****                 if (NULL != ptrFlashWdgt->ptr2DebounceArr)
 407:Generated_Source\PSoC4/CapSense_Processing.c ****                 {
 408:Generated_Source\PSoC4/CapSense_Processing.c ****                     /* Initialize single debounce counter of touchpad */
 409:Generated_Source\PSoC4/CapSense_Processing.c ****                     *(uint8 *)(ptrFlashWdgt->ptr2DebounceArr) = ptrRamWdgt->onDebounce;
 410:Generated_Source\PSoC4/CapSense_Processing.c ****                 }
 411:Generated_Source\PSoC4/CapSense_Processing.c **** 
 412:Generated_Source\PSoC4/CapSense_Processing.c ****                 #if (0u != CapSense_CSD_TOUCHPAD_WIDGET_EN)
 413:Generated_Source\PSoC4/CapSense_Processing.c ****                     if (CapSense_SENSE_METHOD_CSD_E == CapSense_GET_SENSE_METHOD(ptrFlashWdgt))
 414:Generated_Source\PSoC4/CapSense_Processing.c ****                     {
 415:Generated_Source\PSoC4/CapSense_Processing.c ****                         CapSense_DpInitCsdTouchpad(ptrFlashWdgt);
 416:Generated_Source\PSoC4/CapSense_Processing.c ****                     }
 417:Generated_Source\PSoC4/CapSense_Processing.c ****                 #endif /* #if (0u != CapSense_CSD_TOUCHPAD_WIDGET_EN) */
 418:Generated_Source\PSoC4/CapSense_Processing.c **** 
ARM GAS  C:\Users\MM1005~1\AppData\Local\Temp\ccNDvdtn.s 			page 10


 419:Generated_Source\PSoC4/CapSense_Processing.c ****                 #if (0u != CapSense_CSX_TOUCHPAD_WIDGET_EN)
 420:Generated_Source\PSoC4/CapSense_Processing.c ****                     if (CapSense_SENSE_METHOD_CSX_E == CapSense_GET_SENSE_METHOD(ptrFlashWdgt))
 421:Generated_Source\PSoC4/CapSense_Processing.c ****                     {
 422:Generated_Source\PSoC4/CapSense_Processing.c ****                         CapSense_DpInitCsxTouchpad(ptrFlashWdgt);
 423:Generated_Source\PSoC4/CapSense_Processing.c ****                     }
 424:Generated_Source\PSoC4/CapSense_Processing.c ****                 #endif /* #if (0u != CapSense_CSX_TOUCHPAD_WIDGET_EN) */
 425:Generated_Source\PSoC4/CapSense_Processing.c **** 
 426:Generated_Source\PSoC4/CapSense_Processing.c ****                 break;
 427:Generated_Source\PSoC4/CapSense_Processing.c ****         #endif /* #if (0u != CapSense_TOUCHPAD_WIDGET_EN) */
 428:Generated_Source\PSoC4/CapSense_Processing.c **** 
 429:Generated_Source\PSoC4/CapSense_Processing.c ****         #if (0u != CapSense_PROXIMITY_WIDGET_EN)
 430:Generated_Source\PSoC4/CapSense_Processing.c ****             case CapSense_WD_PROXIMITY_E:
 431:Generated_Source\PSoC4/CapSense_Processing.c ****                 if (NULL != ptrFlashWdgt->ptr2DebounceArr)
 432:Generated_Source\PSoC4/CapSense_Processing.c ****                 {
 433:Generated_Source\PSoC4/CapSense_Processing.c ****                     /* Proximity widgets have 2 de-bounce counters per sensor. 
 434:Generated_Source\PSoC4/CapSense_Processing.c ****                      * Therefore the number of sensors is multiplied by 2. 
 435:Generated_Source\PSoC4/CapSense_Processing.c ****                      */
 436:Generated_Source\PSoC4/CapSense_Processing.c ****                    (void)memset(ptrFlashWdgt->ptr2DebounceArr, 
 437:Generated_Source\PSoC4/CapSense_Processing.c ****                                 (int32)ptrRamWdgt->onDebounce, 
 438:Generated_Source\PSoC4/CapSense_Processing.c ****                                 (size_t)ptrFlashWdgt->totalNumSns * 2u);
 439:Generated_Source\PSoC4/CapSense_Processing.c ****                 }
 440:Generated_Source\PSoC4/CapSense_Processing.c ****                 break;
 441:Generated_Source\PSoC4/CapSense_Processing.c ****         #endif /* #if (0u != CapSense_PROXIMITY_WIDGET_EN) */
 442:Generated_Source\PSoC4/CapSense_Processing.c ****                 
 443:Generated_Source\PSoC4/CapSense_Processing.c ****             default:
 444:Generated_Source\PSoC4/CapSense_Processing.c ****                 break;
 445:Generated_Source\PSoC4/CapSense_Processing.c ****         }
 446:Generated_Source\PSoC4/CapSense_Processing.c **** 
 447:Generated_Source\PSoC4/CapSense_Processing.c ****         /* Move to next widget */
 448:Generated_Source\PSoC4/CapSense_Processing.c ****         ptrFlashWdgt++;
  93              		.loc 1 448 0
  94 0046 2034     		add	r4, r4, #32
  95              	.LVL9:
 348:Generated_Source\PSoC4/CapSense_Processing.c ****     {
  96              		.loc 1 348 0
  97 0048 2B1C     		mov	r3, r5
  98              	.LVL10:
  99              	.L4:
 348:Generated_Source\PSoC4/CapSense_Processing.c ****     {
 100              		.loc 1 348 0 is_stmt 0 discriminator 1
 101 004a 5D1E     		sub	r5, r3, #1
 102              	.LVL11:
 103 004c 002B     		cmp	r3, #0
 104 004e EBD1     		bne	.L7
 449:Generated_Source\PSoC4/CapSense_Processing.c ****     }
 450:Generated_Source\PSoC4/CapSense_Processing.c **** }
 105              		.loc 1 450 0 is_stmt 1
 106              		@ sp needed
 107              	.LVL12:
 108              	.LVL13:
 109 0050 70BD     		pop	{r4, r5, r6, pc}
 110              	.L9:
 111 0052 C046     		.align	2
 112              	.L8:
 113 0054 00000000 		.word	CapSense_dsRam
 114 0058 00000000 		.word	CapSense_dsFlash
 115              		.cfi_endproc
ARM GAS  C:\Users\MM1005~1\AppData\Local\Temp\ccNDvdtn.s 			page 11


 116              	.LFE1:
 117              		.size	CapSense_DpInitialize, .-CapSense_DpInitialize
 118              		.section	.text.CapSense_DpUpdateThresholds,"ax",%progbits
 119              		.align	2
 120              		.global	CapSense_DpUpdateThresholds
 121              		.code	16
 122              		.thumb_func
 123              		.type	CapSense_DpUpdateThresholds, %function
 124              	CapSense_DpUpdateThresholds:
 125              	.LFB5:
 451:Generated_Source\PSoC4/CapSense_Processing.c **** 
 452:Generated_Source\PSoC4/CapSense_Processing.c **** #if (0u != CapSense_TOTAL_CSX_WIDGETS)
 453:Generated_Source\PSoC4/CapSense_Processing.c **** /*******************************************************************************
 454:Generated_Source\PSoC4/CapSense_Processing.c **** * Function Name: CapSense_DpProcessCsxWidgetRawCounts
 455:Generated_Source\PSoC4/CapSense_Processing.c **** ****************************************************************************//**
 456:Generated_Source\PSoC4/CapSense_Processing.c **** *
 457:Generated_Source\PSoC4/CapSense_Processing.c **** * \brief
 458:Generated_Source\PSoC4/CapSense_Processing.c **** *  Performs default processing of the CSX raw counts.
 459:Generated_Source\PSoC4/CapSense_Processing.c **** *
 460:Generated_Source\PSoC4/CapSense_Processing.c **** * \details
 461:Generated_Source\PSoC4/CapSense_Processing.c **** *  Performs default processing of the CSX raw counts:
 462:Generated_Source\PSoC4/CapSense_Processing.c **** *   - Run Filters
 463:Generated_Source\PSoC4/CapSense_Processing.c **** *   - Update Baselines
 464:Generated_Source\PSoC4/CapSense_Processing.c **** *   - Update Differences
 465:Generated_Source\PSoC4/CapSense_Processing.c **** *   - Update Status.
 466:Generated_Source\PSoC4/CapSense_Processing.c **** *  The same process is applied to all sensors of the specified widget.
 467:Generated_Source\PSoC4/CapSense_Processing.c **** *
 468:Generated_Source\PSoC4/CapSense_Processing.c **** * \param ptrFlashWdgt The pointer to the Flash widget structure.
 469:Generated_Source\PSoC4/CapSense_Processing.c **** *
 470:Generated_Source\PSoC4/CapSense_Processing.c **** * \return   
 471:Generated_Source\PSoC4/CapSense_Processing.c **** *  Returns the status of the specified widget processing operation:
 472:Generated_Source\PSoC4/CapSense_Processing.c **** *  - CYRET_SUCCESS if operation was successfully completed;
 473:Generated_Source\PSoC4/CapSense_Processing.c **** *  - CapSense_PROCESS_BASELINE_FAILED if baseline processing of any 
 474:Generated_Source\PSoC4/CapSense_Processing.c **** *    sensor of the specified widget failed. The result is concatenated with the index
 475:Generated_Source\PSoC4/CapSense_Processing.c **** *    of failed sensor.
 476:Generated_Source\PSoC4/CapSense_Processing.c **** *
 477:Generated_Source\PSoC4/CapSense_Processing.c **** *******************************************************************************/
 478:Generated_Source\PSoC4/CapSense_Processing.c **** uint32 CapSense_DpProcessCsxWidgetRawCounts(CapSense_FLASH_WD_STRUCT const *ptrFlashWdgt)
 479:Generated_Source\PSoC4/CapSense_Processing.c **** {
 480:Generated_Source\PSoC4/CapSense_Processing.c ****     uint32 result = CYRET_SUCCESS;
 481:Generated_Source\PSoC4/CapSense_Processing.c ****     uint32 widgetType;
 482:Generated_Source\PSoC4/CapSense_Processing.c ****     uint32 snsCount;
 483:Generated_Source\PSoC4/CapSense_Processing.c ****     CapSense_RAM_SNS_STRUCT *ptrSns;
 484:Generated_Source\PSoC4/CapSense_Processing.c ****     CapSense_RAM_WD_BASE_STRUCT *ptrRamWdgt;
 485:Generated_Source\PSoC4/CapSense_Processing.c **** 
 486:Generated_Source\PSoC4/CapSense_Processing.c ****     #if (0u != DP_FW_FILTER_EN)
 487:Generated_Source\PSoC4/CapSense_Processing.c ****         CapSense_PTR_FILTER_VARIANT fltrHistV;
 488:Generated_Source\PSoC4/CapSense_Processing.c ****         
 489:Generated_Source\PSoC4/CapSense_Processing.c ****         fltrHistV.ptr = ptrFlashWdgt->ptr2FltrHistory;
 490:Generated_Source\PSoC4/CapSense_Processing.c ****     #endif /* #if (0u != DP_FW_FILTER_EN) */
 491:Generated_Source\PSoC4/CapSense_Processing.c **** 
 492:Generated_Source\PSoC4/CapSense_Processing.c ****     ptrSns = ptrFlashWdgt->ptr2SnsRam;
 493:Generated_Source\PSoC4/CapSense_Processing.c ****     snsCount = ptrFlashWdgt->totalNumSns;
 494:Generated_Source\PSoC4/CapSense_Processing.c ****     ptrRamWdgt = ptrFlashWdgt->ptr2WdgtRam;
 495:Generated_Source\PSoC4/CapSense_Processing.c ****     widgetType = ptrFlashWdgt->wdgtType;
 496:Generated_Source\PSoC4/CapSense_Processing.c **** 
 497:Generated_Source\PSoC4/CapSense_Processing.c ****     /* Run deconvolution algorithm for the widgets with multiphase TX support */
ARM GAS  C:\Users\MM1005~1\AppData\Local\Temp\ccNDvdtn.s 			page 12


 498:Generated_Source\PSoC4/CapSense_Processing.c ****     #if (0u != CapSense_CSX_MULTIPHASE_TX_EN)
 499:Generated_Source\PSoC4/CapSense_Processing.c ****         if (0u != (ptrFlashWdgt->staticConfig & CapSense_MULTIPHASE_TX_MASK))
 500:Generated_Source\PSoC4/CapSense_Processing.c ****         {
 501:Generated_Source\PSoC4/CapSense_Processing.c ****             CapSense_DpDeconvolution(ptrFlashWdgt);
 502:Generated_Source\PSoC4/CapSense_Processing.c ****         }
 503:Generated_Source\PSoC4/CapSense_Processing.c ****     #endif  /* #if (0u != CapSense_CSX_MULTIPHASE_TX_EN) */   
 504:Generated_Source\PSoC4/CapSense_Processing.c ****     
 505:Generated_Source\PSoC4/CapSense_Processing.c ****     for (;snsCount-- > 0u;)
 506:Generated_Source\PSoC4/CapSense_Processing.c ****     {
 507:Generated_Source\PSoC4/CapSense_Processing.c ****         #if (0u != CapSense_CSX_SKIP_OVSMPL_SPECIFIC_NODES)
 508:Generated_Source\PSoC4/CapSense_Processing.c ****             if (0u != ptrSns->resolution)
 509:Generated_Source\PSoC4/CapSense_Processing.c ****         #endif
 510:Generated_Source\PSoC4/CapSense_Processing.c ****         {
 511:Generated_Source\PSoC4/CapSense_Processing.c ****             #if (0u != DP_FW_FILTER_EN)
 512:Generated_Source\PSoC4/CapSense_Processing.c ****                 CapSense_FtRunEnabledFiltersInternal(fltrHistV, ptrSns, widgetType);
 513:Generated_Source\PSoC4/CapSense_Processing.c ****             #endif /* #if (0u != DP_FW_FILTER_EN) */
 514:Generated_Source\PSoC4/CapSense_Processing.c **** 
 515:Generated_Source\PSoC4/CapSense_Processing.c ****             result = CapSense_FtUpdateBaseline(ptrRamWdgt, ptrSns, widgetType);
 516:Generated_Source\PSoC4/CapSense_Processing.c ****             
 517:Generated_Source\PSoC4/CapSense_Processing.c ****             #if (CapSense_ENABLE == CapSense_TST_BSLN_DUPLICATION_EN)
 518:Generated_Source\PSoC4/CapSense_Processing.c ****                 if (CYRET_SUCCESS != result)
 519:Generated_Source\PSoC4/CapSense_Processing.c ****                 {
 520:Generated_Source\PSoC4/CapSense_Processing.c ****                     result = snsCount | CapSense_PROCESS_BASELINE_FAILED;
 521:Generated_Source\PSoC4/CapSense_Processing.c ****                 }
 522:Generated_Source\PSoC4/CapSense_Processing.c ****             #endif /* (CapSense_ENABLE == CapSense_TST_BSLN_DUPLICATION_EN) */
 523:Generated_Source\PSoC4/CapSense_Processing.c **** 
 524:Generated_Source\PSoC4/CapSense_Processing.c ****             CapSense_DpUpdateDifferences(ptrRamWdgt, ptrSns);
 525:Generated_Source\PSoC4/CapSense_Processing.c ****         }
 526:Generated_Source\PSoC4/CapSense_Processing.c ****         /* Move pointers to the next sensor and filter history objects */
 527:Generated_Source\PSoC4/CapSense_Processing.c ****         ptrSns++;
 528:Generated_Source\PSoC4/CapSense_Processing.c ****             
 529:Generated_Source\PSoC4/CapSense_Processing.c ****         #if (0u != DP_FW_FILTER_EN)
 530:Generated_Source\PSoC4/CapSense_Processing.c ****             CapSense_INC_FLTR_OBJ_VARIANT(0u, fltrHistV);
 531:Generated_Source\PSoC4/CapSense_Processing.c ****         #endif /* #if (0u != DP_FW_FILTER_EN) */
 532:Generated_Source\PSoC4/CapSense_Processing.c ****     }
 533:Generated_Source\PSoC4/CapSense_Processing.c ****     return result;
 534:Generated_Source\PSoC4/CapSense_Processing.c **** }
 535:Generated_Source\PSoC4/CapSense_Processing.c **** 
 536:Generated_Source\PSoC4/CapSense_Processing.c **** /*******************************************************************************
 537:Generated_Source\PSoC4/CapSense_Processing.c **** * Function Name: CapSense_DpProcessCsxSensorRawCountsExt
 538:Generated_Source\PSoC4/CapSense_Processing.c **** ****************************************************************************//**
 539:Generated_Source\PSoC4/CapSense_Processing.c **** *
 540:Generated_Source\PSoC4/CapSense_Processing.c **** * \brief
 541:Generated_Source\PSoC4/CapSense_Processing.c **** *   Performs customized processing of the CSX sensor raw counts.
 542:Generated_Source\PSoC4/CapSense_Processing.c **** *
 543:Generated_Source\PSoC4/CapSense_Processing.c **** * \details
 544:Generated_Source\PSoC4/CapSense_Processing.c **** *   Performs customized processing of the CSX sensor raw counts.
 545:Generated_Source\PSoC4/CapSense_Processing.c **** *
 546:Generated_Source\PSoC4/CapSense_Processing.c **** *   If all bits are set at once the default processing order will take place.
 547:Generated_Source\PSoC4/CapSense_Processing.c **** *   For the custom order this API can be called multiple times and execute one task at a time.
 548:Generated_Source\PSoC4/CapSense_Processing.c **** *
 549:Generated_Source\PSoC4/CapSense_Processing.c **** * \param ptrFlashWdgt The pointer to the Flash Widget Object.
 550:Generated_Source\PSoC4/CapSense_Processing.c **** * \param ptrSns       The pointer to the specific RAM Sensor Object.
 551:Generated_Source\PSoC4/CapSense_Processing.c **** * \param fltrHistV    The pointer to the Filter History Object in RAM associated with specific sens
 552:Generated_Source\PSoC4/CapSense_Processing.c **** * \param mode         The bit-mask with the data processing tasks to be executed.
 553:Generated_Source\PSoC4/CapSense_Processing.c **** *   The mode parameters can take the following values:
 554:Generated_Source\PSoC4/CapSense_Processing.c **** *    - CapSense_PROCESS_FILTER     (0x01) Run Firmware Filter
ARM GAS  C:\Users\MM1005~1\AppData\Local\Temp\ccNDvdtn.s 			page 13


 555:Generated_Source\PSoC4/CapSense_Processing.c **** *    - CapSense_PROCESS_BASELINE   (0x02) Update Baselines
 556:Generated_Source\PSoC4/CapSense_Processing.c **** *    - CapSense_PROCESS_DIFFCOUNTS (0x04) Update Difference Counts
 557:Generated_Source\PSoC4/CapSense_Processing.c **** *    - CapSense_PROCESS_ALL               Execute all tasks
 558:Generated_Source\PSoC4/CapSense_Processing.c **** *
 559:Generated_Source\PSoC4/CapSense_Processing.c **** * \return   
 560:Generated_Source\PSoC4/CapSense_Processing.c **** *  Returns the status of the specified sensor processing operation:
 561:Generated_Source\PSoC4/CapSense_Processing.c **** *  - CYRET_SUCCESS if operation was successfully completed;
 562:Generated_Source\PSoC4/CapSense_Processing.c **** *  - CapSense_PROCESS_BASELINE_FAILED if baseline processing of any 
 563:Generated_Source\PSoC4/CapSense_Processing.c **** *    sensor of the specified widget failed. The result is concatenated with the index
 564:Generated_Source\PSoC4/CapSense_Processing.c **** *    of failed sensor.
 565:Generated_Source\PSoC4/CapSense_Processing.c **** *
 566:Generated_Source\PSoC4/CapSense_Processing.c **** *******************************************************************************/
 567:Generated_Source\PSoC4/CapSense_Processing.c **** uint32 CapSense_DpProcessCsxSensorRawCountsExt(
 568:Generated_Source\PSoC4/CapSense_Processing.c ****                 CapSense_FLASH_WD_STRUCT const *ptrFlashWdgt,
 569:Generated_Source\PSoC4/CapSense_Processing.c ****                 CapSense_RAM_SNS_STRUCT *ptrSns,
 570:Generated_Source\PSoC4/CapSense_Processing.c ****                 CapSense_PTR_FILTER_VARIANT fltrHistV,
 571:Generated_Source\PSoC4/CapSense_Processing.c ****                 uint32 mode)
 572:Generated_Source\PSoC4/CapSense_Processing.c **** {
 573:Generated_Source\PSoC4/CapSense_Processing.c ****     uint32  result = CYRET_SUCCESS;
 574:Generated_Source\PSoC4/CapSense_Processing.c ****     uint32  widgetType;
 575:Generated_Source\PSoC4/CapSense_Processing.c ****     CapSense_RAM_WD_BASE_STRUCT *ptrRamWdgt;
 576:Generated_Source\PSoC4/CapSense_Processing.c **** 
 577:Generated_Source\PSoC4/CapSense_Processing.c ****     widgetType = ptrFlashWdgt->wdgtType;
 578:Generated_Source\PSoC4/CapSense_Processing.c ****     ptrRamWdgt = ptrFlashWdgt->ptr2WdgtRam;
 579:Generated_Source\PSoC4/CapSense_Processing.c ****     
 580:Generated_Source\PSoC4/CapSense_Processing.c ****     #if (0u != DP_FW_FILTER_EN)
 581:Generated_Source\PSoC4/CapSense_Processing.c ****         if (0u != (mode & CapSense_PROCESS_FILTER))
 582:Generated_Source\PSoC4/CapSense_Processing.c ****         {
 583:Generated_Source\PSoC4/CapSense_Processing.c ****             CapSense_FtRunEnabledFiltersInternal(fltrHistV, ptrSns, widgetType);
 584:Generated_Source\PSoC4/CapSense_Processing.c ****         }
 585:Generated_Source\PSoC4/CapSense_Processing.c ****     #else
 586:Generated_Source\PSoC4/CapSense_Processing.c ****         (void)fltrHistV; /* This parameter is unused in such configurations */
 587:Generated_Source\PSoC4/CapSense_Processing.c ****     #endif /* #if (0u != DP_FW_FILTER_EN) */
 588:Generated_Source\PSoC4/CapSense_Processing.c **** 
 589:Generated_Source\PSoC4/CapSense_Processing.c ****     if (0u != (mode & CapSense_PROCESS_BASELINE))
 590:Generated_Source\PSoC4/CapSense_Processing.c ****     {
 591:Generated_Source\PSoC4/CapSense_Processing.c ****         result = CapSense_FtUpdateBaseline(ptrRamWdgt, ptrSns, widgetType);
 592:Generated_Source\PSoC4/CapSense_Processing.c ****     }
 593:Generated_Source\PSoC4/CapSense_Processing.c **** 
 594:Generated_Source\PSoC4/CapSense_Processing.c ****     if (0u != (mode & CapSense_PROCESS_DIFFCOUNTS))
 595:Generated_Source\PSoC4/CapSense_Processing.c ****     {
 596:Generated_Source\PSoC4/CapSense_Processing.c ****         CapSense_DpUpdateDifferences(ptrRamWdgt, ptrSns);
 597:Generated_Source\PSoC4/CapSense_Processing.c ****     }
 598:Generated_Source\PSoC4/CapSense_Processing.c ****     return result;
 599:Generated_Source\PSoC4/CapSense_Processing.c **** }
 600:Generated_Source\PSoC4/CapSense_Processing.c **** 
 601:Generated_Source\PSoC4/CapSense_Processing.c **** 
 602:Generated_Source\PSoC4/CapSense_Processing.c **** /*******************************************************************************
 603:Generated_Source\PSoC4/CapSense_Processing.c **** * Function Name: CapSense_DpProcessCsxWidgetStatus
 604:Generated_Source\PSoC4/CapSense_Processing.c **** ****************************************************************************//**
 605:Generated_Source\PSoC4/CapSense_Processing.c **** *
 606:Generated_Source\PSoC4/CapSense_Processing.c **** * \brief
 607:Generated_Source\PSoC4/CapSense_Processing.c **** *   Updates the status of the CSX widget in the Data Structure.
 608:Generated_Source\PSoC4/CapSense_Processing.c **** *
 609:Generated_Source\PSoC4/CapSense_Processing.c **** * \details
 610:Generated_Source\PSoC4/CapSense_Processing.c **** *  This API determines the type of widget and runs the appropriate function
 611:Generated_Source\PSoC4/CapSense_Processing.c **** *  that implements the status update algorithm for this type of widget.
ARM GAS  C:\Users\MM1005~1\AppData\Local\Temp\ccNDvdtn.s 			page 14


 612:Generated_Source\PSoC4/CapSense_Processing.c **** *
 613:Generated_Source\PSoC4/CapSense_Processing.c **** *  When the widget-specific processing completes this API updates the snsStatus
 614:Generated_Source\PSoC4/CapSense_Processing.c **** *  and wdgtStatus registers in the data structure. The wdgtStatus register
 615:Generated_Source\PSoC4/CapSense_Processing.c **** *  is a bitmask were each bit corresponds to the specific widget identified by
 616:Generated_Source\PSoC4/CapSense_Processing.c **** *  the widget index. When the bit is set the widget is active (touched);
 617:Generated_Source\PSoC4/CapSense_Processing.c **** *
 618:Generated_Source\PSoC4/CapSense_Processing.c **** *  Depending on the type of widget the snsStatus register may contain either
 619:Generated_Source\PSoC4/CapSense_Processing.c **** *  status of each widget node (active/non-active) or in case of the CSX Touchpad
 620:Generated_Source\PSoC4/CapSense_Processing.c **** *  is contains the number of touches. In both cases 0 means that widget is not
 621:Generated_Source\PSoC4/CapSense_Processing.c **** *  active.
 622:Generated_Source\PSoC4/CapSense_Processing.c **** *
 623:Generated_Source\PSoC4/CapSense_Processing.c **** * \param wdgtId       The widget index number.
 624:Generated_Source\PSoC4/CapSense_Processing.c **** * \param ptrFlashWdgt The pointer to the Flash Widget Object.
 625:Generated_Source\PSoC4/CapSense_Processing.c **** *
 626:Generated_Source\PSoC4/CapSense_Processing.c **** *******************************************************************************/
 627:Generated_Source\PSoC4/CapSense_Processing.c **** void CapSense_DpProcessCsxWidgetStatus(uint32 wdgtId, CapSense_FLASH_WD_STRUCT const *ptrFlashWdgt)
 628:Generated_Source\PSoC4/CapSense_Processing.c **** {
 629:Generated_Source\PSoC4/CapSense_Processing.c ****     uint32 sensorStatus;
 630:Generated_Source\PSoC4/CapSense_Processing.c ****     uint32 wdStatusIndex;
 631:Generated_Source\PSoC4/CapSense_Processing.c ****     uint32 wdStatusMask;
 632:Generated_Source\PSoC4/CapSense_Processing.c ****     CapSense_WD_TYPE_ENUM widgetType;
 633:Generated_Source\PSoC4/CapSense_Processing.c **** 
 634:Generated_Source\PSoC4/CapSense_Processing.c ****     widgetType = (CapSense_WD_TYPE_ENUM)ptrFlashWdgt->wdgtType;
 635:Generated_Source\PSoC4/CapSense_Processing.c ****     sensorStatus = CapSense_dsRam.snsStatus[wdgtId];
 636:Generated_Source\PSoC4/CapSense_Processing.c **** 
 637:Generated_Source\PSoC4/CapSense_Processing.c ****     switch (widgetType)
 638:Generated_Source\PSoC4/CapSense_Processing.c ****     {
 639:Generated_Source\PSoC4/CapSense_Processing.c ****     #if (0u != CapSense_BUTTON_WIDGET_EN)
 640:Generated_Source\PSoC4/CapSense_Processing.c ****         case CapSense_WD_BUTTON_E:
 641:Generated_Source\PSoC4/CapSense_Processing.c ****             sensorStatus = CapSense_DpProcessButton(sensorStatus, ptrFlashWdgt);
 642:Generated_Source\PSoC4/CapSense_Processing.c ****             break;
 643:Generated_Source\PSoC4/CapSense_Processing.c ****     #endif /* #if (0u != CapSense_BUTTON_WIDGET_EN) */
 644:Generated_Source\PSoC4/CapSense_Processing.c **** 
 645:Generated_Source\PSoC4/CapSense_Processing.c ****     #if (0u != CapSense_CSX_MATRIX_WIDGET_EN)
 646:Generated_Source\PSoC4/CapSense_Processing.c ****         case CapSense_WD_MATRIX_BUTTON_E:
 647:Generated_Source\PSoC4/CapSense_Processing.c ****             sensorStatus = CapSense_DpProcessButton(sensorStatus, ptrFlashWdgt);
 648:Generated_Source\PSoC4/CapSense_Processing.c ****             break;
 649:Generated_Source\PSoC4/CapSense_Processing.c ****     #endif /* #if (0u != CapSense_CSX_MATRIX_WIDGET_EN) */
 650:Generated_Source\PSoC4/CapSense_Processing.c **** 
 651:Generated_Source\PSoC4/CapSense_Processing.c ****     #if (0u != CapSense_CSX_TOUCHPAD_WIDGET_EN)
 652:Generated_Source\PSoC4/CapSense_Processing.c ****         case CapSense_WD_TOUCHPAD_E:
 653:Generated_Source\PSoC4/CapSense_Processing.c ****             sensorStatus = CapSense_DpProcessCsxTouchpad(sensorStatus, ptrFlashWdgt);
 654:Generated_Source\PSoC4/CapSense_Processing.c ****             break;
 655:Generated_Source\PSoC4/CapSense_Processing.c ****     #endif /* #if (0u != CapSense_CSX_TOUCHPAD_WIDGET_EN) */
 656:Generated_Source\PSoC4/CapSense_Processing.c **** 
 657:Generated_Source\PSoC4/CapSense_Processing.c ****     default:
 658:Generated_Source\PSoC4/CapSense_Processing.c ****         CYASSERT(0u);
 659:Generated_Source\PSoC4/CapSense_Processing.c ****         break;
 660:Generated_Source\PSoC4/CapSense_Processing.c ****     }
 661:Generated_Source\PSoC4/CapSense_Processing.c **** 
 662:Generated_Source\PSoC4/CapSense_Processing.c ****     /* Update sensor status in the data structure */
 663:Generated_Source\PSoC4/CapSense_Processing.c ****     CapSense_dsRam.snsStatus[wdgtId] = (CapSense_SNS_STS_TYPE)sensorStatus;
 664:Generated_Source\PSoC4/CapSense_Processing.c **** 
 665:Generated_Source\PSoC4/CapSense_Processing.c ****     /* The next two lines calculate index and bitmask of the widget status bit in the wdgtStatus ar
 666:Generated_Source\PSoC4/CapSense_Processing.c ****     wdStatusIndex = CapSense_GET_WDGT_STATUS_INDEX(wdgtId);
 667:Generated_Source\PSoC4/CapSense_Processing.c ****     wdStatusMask = CapSense_GET_WDGT_STATUS_MASK(wdgtId);
 668:Generated_Source\PSoC4/CapSense_Processing.c **** 
ARM GAS  C:\Users\MM1005~1\AppData\Local\Temp\ccNDvdtn.s 			page 15


 669:Generated_Source\PSoC4/CapSense_Processing.c ****     /* Check if there are active sensors and update widget status accordingly */
 670:Generated_Source\PSoC4/CapSense_Processing.c ****     if (0u == sensorStatus)
 671:Generated_Source\PSoC4/CapSense_Processing.c ****     {
 672:Generated_Source\PSoC4/CapSense_Processing.c ****         CapSense_dsRam.wdgtStatus[wdStatusIndex] &= ~wdStatusMask;
 673:Generated_Source\PSoC4/CapSense_Processing.c ****     }
 674:Generated_Source\PSoC4/CapSense_Processing.c ****     else
 675:Generated_Source\PSoC4/CapSense_Processing.c ****     {
 676:Generated_Source\PSoC4/CapSense_Processing.c ****         CapSense_dsRam.wdgtStatus[wdStatusIndex] |= wdStatusMask;
 677:Generated_Source\PSoC4/CapSense_Processing.c ****     }
 678:Generated_Source\PSoC4/CapSense_Processing.c **** }
 679:Generated_Source\PSoC4/CapSense_Processing.c **** #endif /* #if CapSense_TOTAL_CSX_WIDGETS */
 680:Generated_Source\PSoC4/CapSense_Processing.c **** 
 681:Generated_Source\PSoC4/CapSense_Processing.c **** #if (0u != CapSense_TOTAL_CSD_WIDGETS)
 682:Generated_Source\PSoC4/CapSense_Processing.c **** /*******************************************************************************
 683:Generated_Source\PSoC4/CapSense_Processing.c **** * Function Name: CapSense_DpProcessCsdWidgetRawCounts
 684:Generated_Source\PSoC4/CapSense_Processing.c **** ****************************************************************************//**
 685:Generated_Source\PSoC4/CapSense_Processing.c **** *
 686:Generated_Source\PSoC4/CapSense_Processing.c **** * \brief
 687:Generated_Source\PSoC4/CapSense_Processing.c **** *   Performs default processing for the CSD widget raw counts.
 688:Generated_Source\PSoC4/CapSense_Processing.c **** *
 689:Generated_Source\PSoC4/CapSense_Processing.c **** * \details
 690:Generated_Source\PSoC4/CapSense_Processing.c **** *   Performs default processing for the CSD widget raw counts:
 691:Generated_Source\PSoC4/CapSense_Processing.c **** *    - Run Filters
 692:Generated_Source\PSoC4/CapSense_Processing.c **** *    - Update Thresholds (FW Auto-tuning)
 693:Generated_Source\PSoC4/CapSense_Processing.c **** *    - Update Baselines
 694:Generated_Source\PSoC4/CapSense_Processing.c **** *    - Update Differences.
 695:Generated_Source\PSoC4/CapSense_Processing.c **** *   The process is applied to all widget's sensors.
 696:Generated_Source\PSoC4/CapSense_Processing.c **** *
 697:Generated_Source\PSoC4/CapSense_Processing.c **** * \param ptrFlashWdgt The pointer to the Flash Widget Object.
 698:Generated_Source\PSoC4/CapSense_Processing.c **** *
 699:Generated_Source\PSoC4/CapSense_Processing.c **** * \return   
 700:Generated_Source\PSoC4/CapSense_Processing.c **** *  Returns the status of the specified widget processing operation:
 701:Generated_Source\PSoC4/CapSense_Processing.c **** *  - CYRET_SUCCESS if operation was successfully completed;
 702:Generated_Source\PSoC4/CapSense_Processing.c **** *  - CapSense_PROCESS_BASELINE_FAILED if baseline processing of any 
 703:Generated_Source\PSoC4/CapSense_Processing.c **** *    sensor of the specified widget failed. The result is concatenated with the index
 704:Generated_Source\PSoC4/CapSense_Processing.c **** *    of failed sensor.
 705:Generated_Source\PSoC4/CapSense_Processing.c **** *
 706:Generated_Source\PSoC4/CapSense_Processing.c **** *******************************************************************************/
 707:Generated_Source\PSoC4/CapSense_Processing.c **** uint32 CapSense_DpProcessCsdWidgetRawCounts(CapSense_FLASH_WD_STRUCT const *ptrFlashWdgt)
 708:Generated_Source\PSoC4/CapSense_Processing.c **** {
 709:Generated_Source\PSoC4/CapSense_Processing.c ****     uint32  result = CYRET_SUCCESS;
 710:Generated_Source\PSoC4/CapSense_Processing.c ****     
 711:Generated_Source\PSoC4/CapSense_Processing.c ****     #if (CapSense_ENABLE == CapSense_TST_BSLN_DUPLICATION_EN)    
 712:Generated_Source\PSoC4/CapSense_Processing.c ****         uint32 bslnTstResult = CYRET_SUCCESS;
 713:Generated_Source\PSoC4/CapSense_Processing.c ****     #endif /* (CapSense_ENABLE == CapSense_TST_BSLN_DUPLICATION_EN) */
 714:Generated_Source\PSoC4/CapSense_Processing.c **** 
 715:Generated_Source\PSoC4/CapSense_Processing.c ****     uint32  widgetType;
 716:Generated_Source\PSoC4/CapSense_Processing.c ****     uint32  snsId;
 717:Generated_Source\PSoC4/CapSense_Processing.c ****     CapSense_RAM_SNS_STRUCT *ptrSns;
 718:Generated_Source\PSoC4/CapSense_Processing.c ****     CapSense_RAM_WD_BASE_STRUCT *ptrRamWdgt;
 719:Generated_Source\PSoC4/CapSense_Processing.c **** 
 720:Generated_Source\PSoC4/CapSense_Processing.c ****     #if (0u != (CapSense_CSD_AUTOTUNE & CapSense_CSD_SS_TH_EN))
 721:Generated_Source\PSoC4/CapSense_Processing.c ****         /* The noise envelope data is available only when Full CSD Auto-Tuning is enabled */
 722:Generated_Source\PSoC4/CapSense_Processing.c ****         SMARTSENSE_CSD_NOISE_ENVELOPE_STRUCT *ptrNoiseEnvelope;
 723:Generated_Source\PSoC4/CapSense_Processing.c ****         #if (CapSense_ENABLE == CapSense_PROXIMITY_WIDGET_EN)
 724:Generated_Source\PSoC4/CapSense_Processing.c ****             uint32  proximityThreshold;
 725:Generated_Source\PSoC4/CapSense_Processing.c ****         #endif /* (0 != CapSense_PROXIMITY_WIDGET_EN) */
ARM GAS  C:\Users\MM1005~1\AppData\Local\Temp\ccNDvdtn.s 			page 16


 726:Generated_Source\PSoC4/CapSense_Processing.c ****     #endif /* #if (0u != (CapSense_CSD_AUTOTUNE & CapSense_CSD_SS_TH_EN)) */
 727:Generated_Source\PSoC4/CapSense_Processing.c **** 
 728:Generated_Source\PSoC4/CapSense_Processing.c ****     #if (0u != DP_FW_FILTER_EN)
 729:Generated_Source\PSoC4/CapSense_Processing.c ****         CapSense_PTR_FILTER_VARIANT fltrHistV;
 730:Generated_Source\PSoC4/CapSense_Processing.c ****     
 731:Generated_Source\PSoC4/CapSense_Processing.c ****         /* Determine if widget type is proximity */
 732:Generated_Source\PSoC4/CapSense_Processing.c ****         uint32 isProxWdgt = 
 733:Generated_Source\PSoC4/CapSense_Processing.c ****                     (CapSense_GET_WIDGET_TYPE(ptrFlashWdgt) == CapSense_WD_PROXIMITY_E) ? 1u : 0u;
 734:Generated_Source\PSoC4/CapSense_Processing.c ****                     
 735:Generated_Source\PSoC4/CapSense_Processing.c ****         /* Get pointer to the filter history object */
 736:Generated_Source\PSoC4/CapSense_Processing.c ****         fltrHistV.ptr = ptrFlashWdgt->ptr2FltrHistory;
 737:Generated_Source\PSoC4/CapSense_Processing.c ****     #endif /* #if (0u != DP_FW_FILTER_EN) */
 738:Generated_Source\PSoC4/CapSense_Processing.c ****     
 739:Generated_Source\PSoC4/CapSense_Processing.c ****     ptrSns = ptrFlashWdgt->ptr2SnsRam;
 740:Generated_Source\PSoC4/CapSense_Processing.c ****     ptrRamWdgt = ptrFlashWdgt->ptr2WdgtRam;
 741:Generated_Source\PSoC4/CapSense_Processing.c ****     widgetType = ptrFlashWdgt->wdgtType;
 742:Generated_Source\PSoC4/CapSense_Processing.c **** 
 743:Generated_Source\PSoC4/CapSense_Processing.c ****     #if (0u != (CapSense_CSD_AUTOTUNE & CapSense_CSD_SS_TH_EN))
 744:Generated_Source\PSoC4/CapSense_Processing.c ****         ptrNoiseEnvelope = ptrFlashWdgt->ptr2NoiseEnvlp;
 745:Generated_Source\PSoC4/CapSense_Processing.c ****     #endif /* #if (0u != (CapSense_CSD_AUTOTUNE & CapSense_CSD_SS_TH_EN)) */
 746:Generated_Source\PSoC4/CapSense_Processing.c **** 
 747:Generated_Source\PSoC4/CapSense_Processing.c ****     /* Iterate through all widget's sensors */
 748:Generated_Source\PSoC4/CapSense_Processing.c ****     for(snsId = 0u; snsId < ptrFlashWdgt->totalNumSns; snsId++)
 749:Generated_Source\PSoC4/CapSense_Processing.c ****     {
 750:Generated_Source\PSoC4/CapSense_Processing.c ****         /* Run all enabled filter on specified widget's sensor */
 751:Generated_Source\PSoC4/CapSense_Processing.c ****         #if (0u != DP_FW_FILTER_EN)
 752:Generated_Source\PSoC4/CapSense_Processing.c ****             CapSense_FtRunEnabledFiltersInternal(fltrHistV, ptrSns, widgetType);
 753:Generated_Source\PSoC4/CapSense_Processing.c ****         #endif /* #if (0u != DP_FW_FILTER_EN) */
 754:Generated_Source\PSoC4/CapSense_Processing.c **** 
 755:Generated_Source\PSoC4/CapSense_Processing.c ****         /* Run auto-tuning activities */
 756:Generated_Source\PSoC4/CapSense_Processing.c ****         #if (0u != (CapSense_CSD_AUTOTUNE & CapSense_CSD_SS_TH_EN))
 757:Generated_Source\PSoC4/CapSense_Processing.c ****             SmartSense_RunNoiseEnvelope(ptrSns->raw[0u], ptrRamWdgt->sigPFC, ptrNoiseEnvelope);
 758:Generated_Source\PSoC4/CapSense_Processing.c ****             CapSense_DpUpdateThresholds(ptrRamWdgt, ptrNoiseEnvelope, snsId);
 759:Generated_Source\PSoC4/CapSense_Processing.c **** 
 760:Generated_Source\PSoC4/CapSense_Processing.c ****             /* Calculate Proximity Touch Threshold in SmartSense mode based on Finger Threshold and
 761:Generated_Source\PSoC4/CapSense_Processing.c ****             #if (CapSense_ENABLE == CapSense_PROXIMITY_WIDGET_EN)
 762:Generated_Source\PSoC4/CapSense_Processing.c ****                 if (CapSense_WD_PROXIMITY_E == CapSense_GET_WIDGET_TYPE(ptrFlashWdgt))
 763:Generated_Source\PSoC4/CapSense_Processing.c ****                 {
 764:Generated_Source\PSoC4/CapSense_Processing.c ****                     proximityThreshold = ((uint32)ptrRamWdgt->fingerTh * CapSense_PROX_TOUCH_COEFF)
 765:Generated_Source\PSoC4/CapSense_Processing.c ****                     if ((((1Lu) << CapSense_THRESHOLD_SIZE) - 1u) < proximityThreshold)
 766:Generated_Source\PSoC4/CapSense_Processing.c ****                     {
 767:Generated_Source\PSoC4/CapSense_Processing.c ****                         proximityThreshold = ((1Lu) << CapSense_THRESHOLD_SIZE) - 1u;
 768:Generated_Source\PSoC4/CapSense_Processing.c ****                     }
 769:Generated_Source\PSoC4/CapSense_Processing.c ****                     ((CapSense_RAM_WD_PROXIMITY_STRUCT *)ptrFlashWdgt->ptr2WdgtRam)->proxTouchTh = 
 770:Generated_Source\PSoC4/CapSense_Processing.c ****                         (CapSense_THRESHOLD_TYPE)proximityThreshold;
 771:Generated_Source\PSoC4/CapSense_Processing.c ****                 }
 772:Generated_Source\PSoC4/CapSense_Processing.c ****             #endif /* (0 != CapSense_PROXIMITY_WIDGET_EN) */
 773:Generated_Source\PSoC4/CapSense_Processing.c ****             
 774:Generated_Source\PSoC4/CapSense_Processing.c ****             /* Move to next noise-envelope object */
 775:Generated_Source\PSoC4/CapSense_Processing.c ****             ptrNoiseEnvelope++;
 776:Generated_Source\PSoC4/CapSense_Processing.c ****         #endif /* (0u != (CapSense_CSD_AUTOTUNE & CapSense_CSD_SS_TH_EN)) */
 777:Generated_Source\PSoC4/CapSense_Processing.c **** 
 778:Generated_Source\PSoC4/CapSense_Processing.c ****         #if (CapSense_ENABLE == CapSense_TST_BSLN_DUPLICATION_EN)
 779:Generated_Source\PSoC4/CapSense_Processing.c ****             bslnTstResult = CapSense_FtUpdateBaseline(ptrRamWdgt, ptrSns, widgetType);
 780:Generated_Source\PSoC4/CapSense_Processing.c ****             if (CYRET_SUCCESS != bslnTstResult)
 781:Generated_Source\PSoC4/CapSense_Processing.c ****             {
 782:Generated_Source\PSoC4/CapSense_Processing.c ****                 if (CYRET_SUCCESS == result)
ARM GAS  C:\Users\MM1005~1\AppData\Local\Temp\ccNDvdtn.s 			page 17


 783:Generated_Source\PSoC4/CapSense_Processing.c ****                 {
 784:Generated_Source\PSoC4/CapSense_Processing.c ****                     result = snsId | CapSense_PROCESS_BASELINE_FAILED;
 785:Generated_Source\PSoC4/CapSense_Processing.c ****                 }
 786:Generated_Source\PSoC4/CapSense_Processing.c ****             }
 787:Generated_Source\PSoC4/CapSense_Processing.c ****         #else /* (CapSense_ENABLE == CapSense_TST_BSLN_DUPLICATION_EN) */
 788:Generated_Source\PSoC4/CapSense_Processing.c ****             result = CapSense_FtUpdateBaseline(ptrRamWdgt, ptrSns, widgetType);
 789:Generated_Source\PSoC4/CapSense_Processing.c ****         #endif /* (CapSense_ENABLE == CapSense_TST_BSLN_DUPLICATION_EN) */
 790:Generated_Source\PSoC4/CapSense_Processing.c **** 
 791:Generated_Source\PSoC4/CapSense_Processing.c ****         CapSense_DpUpdateDifferences(ptrRamWdgt, ptrSns);
 792:Generated_Source\PSoC4/CapSense_Processing.c **** 
 793:Generated_Source\PSoC4/CapSense_Processing.c ****         /* Move to next sensor object */
 794:Generated_Source\PSoC4/CapSense_Processing.c ****         ptrSns++;
 795:Generated_Source\PSoC4/CapSense_Processing.c **** 
 796:Generated_Source\PSoC4/CapSense_Processing.c ****         #if (0u != DP_FW_FILTER_EN)
 797:Generated_Source\PSoC4/CapSense_Processing.c ****             /* Move to the next filter history object */
 798:Generated_Source\PSoC4/CapSense_Processing.c ****             CapSense_INC_FLTR_OBJ_VARIANT(isProxWdgt, fltrHistV);
 799:Generated_Source\PSoC4/CapSense_Processing.c ****         #endif /* #if (0u != DP_FW_FILTER_EN) */
 800:Generated_Source\PSoC4/CapSense_Processing.c ****     }
 801:Generated_Source\PSoC4/CapSense_Processing.c ****     return result;
 802:Generated_Source\PSoC4/CapSense_Processing.c **** }
 803:Generated_Source\PSoC4/CapSense_Processing.c **** 
 804:Generated_Source\PSoC4/CapSense_Processing.c **** 
 805:Generated_Source\PSoC4/CapSense_Processing.c **** /*******************************************************************************
 806:Generated_Source\PSoC4/CapSense_Processing.c **** * Function Name: CapSense_DpProcessCsdSensorRawCountsExt
 807:Generated_Source\PSoC4/CapSense_Processing.c **** ****************************************************************************//**
 808:Generated_Source\PSoC4/CapSense_Processing.c **** *
 809:Generated_Source\PSoC4/CapSense_Processing.c **** * \brief
 810:Generated_Source\PSoC4/CapSense_Processing.c **** *   Performs customized processing of the CSD sensor raw counts.
 811:Generated_Source\PSoC4/CapSense_Processing.c **** *
 812:Generated_Source\PSoC4/CapSense_Processing.c **** * \details
 813:Generated_Source\PSoC4/CapSense_Processing.c **** *   Performs customized processing of the CSD sensor raw counts.
 814:Generated_Source\PSoC4/CapSense_Processing.c **** *
 815:Generated_Source\PSoC4/CapSense_Processing.c **** *   Note that this API updates data associated only with the sensor. It cannot be used to update
 816:Generated_Source\PSoC4/CapSense_Processing.c **** *   widget status.
 817:Generated_Source\PSoC4/CapSense_Processing.c **** *
 818:Generated_Source\PSoC4/CapSense_Processing.c **** * \param ptrFlashWdgt The pointer to the Flash widget structure.
 819:Generated_Source\PSoC4/CapSense_Processing.c **** * \param ptrSns       The pointer to the sensor object in RAM.
 820:Generated_Source\PSoC4/CapSense_Processing.c **** * \param fltrHistV    The pointer to the Filter History Object in RAM.
 821:Generated_Source\PSoC4/CapSense_Processing.c **** * \param mode         The bit-mask with the data processing tasks to be executed.
 822:Generated_Source\PSoC4/CapSense_Processing.c **** *   The mode parameters can take the following values:
 823:Generated_Source\PSoC4/CapSense_Processing.c **** *    - CapSense_PROCESS_FILTER     (0x01) Run Firmware Filter
 824:Generated_Source\PSoC4/CapSense_Processing.c **** *    - CapSense_PROCESS_BASELINE   (0x02) Update Baselines
 825:Generated_Source\PSoC4/CapSense_Processing.c **** *    - CapSense_PROCESS_DIFFCOUNTS (0x04) Update Difference Counts
 826:Generated_Source\PSoC4/CapSense_Processing.c **** *    - CapSense_PROCESS_CALC_NOISE (0x08) Calculate Noise (only if FW Tuning is enabled)
 827:Generated_Source\PSoC4/CapSense_Processing.c **** *    - CapSense_PROCESS_THRESHOLDS (0x10) Update Thresholds (only if FW Tuning is enabled)
 828:Generated_Source\PSoC4/CapSense_Processing.c **** *    - CapSense_PROCESS_ALL               Execute all tasks
 829:Generated_Source\PSoC4/CapSense_Processing.c **** *
 830:Generated_Source\PSoC4/CapSense_Processing.c **** * \return   
 831:Generated_Source\PSoC4/CapSense_Processing.c **** *  Returns the status of the specified sensor processing operation:
 832:Generated_Source\PSoC4/CapSense_Processing.c **** *  - CYRET_SUCCESS if operation was successfully completed;
 833:Generated_Source\PSoC4/CapSense_Processing.c **** *  - CapSense_PROCESS_BASELINE_FAILED if baseline processing of any 
 834:Generated_Source\PSoC4/CapSense_Processing.c **** *    sensor of the specified widget failed. The result is concatenated with the index
 835:Generated_Source\PSoC4/CapSense_Processing.c **** *    of failed sensor.
 836:Generated_Source\PSoC4/CapSense_Processing.c **** *
 837:Generated_Source\PSoC4/CapSense_Processing.c **** *******************************************************************************/
 838:Generated_Source\PSoC4/CapSense_Processing.c **** uint32 CapSense_DpProcessCsdSensorRawCountsExt(
 839:Generated_Source\PSoC4/CapSense_Processing.c ****                 CapSense_FLASH_WD_STRUCT const *ptrFlashWdgt,
ARM GAS  C:\Users\MM1005~1\AppData\Local\Temp\ccNDvdtn.s 			page 18


 840:Generated_Source\PSoC4/CapSense_Processing.c ****                 CapSense_RAM_SNS_STRUCT *ptrSns,
 841:Generated_Source\PSoC4/CapSense_Processing.c ****                 CapSense_PTR_FILTER_VARIANT fltrHistV,
 842:Generated_Source\PSoC4/CapSense_Processing.c ****                  uint32 mode)
 843:Generated_Source\PSoC4/CapSense_Processing.c **** {
 844:Generated_Source\PSoC4/CapSense_Processing.c ****     uint32 result = CYRET_SUCCESS;
 845:Generated_Source\PSoC4/CapSense_Processing.c ****     uint32  widgetType;
 846:Generated_Source\PSoC4/CapSense_Processing.c ****     CapSense_RAM_WD_BASE_STRUCT *ptrRamWdgt;
 847:Generated_Source\PSoC4/CapSense_Processing.c **** 
 848:Generated_Source\PSoC4/CapSense_Processing.c ****     #if (0u != (CapSense_CSD_AUTOTUNE & CapSense_CSD_SS_TH_EN))
 849:Generated_Source\PSoC4/CapSense_Processing.c ****         SMARTSENSE_CSD_NOISE_ENVELOPE_STRUCT *ptrNoiseEnvelope;
 850:Generated_Source\PSoC4/CapSense_Processing.c ****         #if (CapSense_ENABLE == CapSense_PROXIMITY_WIDGET_EN)
 851:Generated_Source\PSoC4/CapSense_Processing.c ****             uint32  proximityThreshold;
 852:Generated_Source\PSoC4/CapSense_Processing.c ****         #endif /* (0 != CapSense_PROXIMITY_WIDGET_EN) */
 853:Generated_Source\PSoC4/CapSense_Processing.c **** 
 854:Generated_Source\PSoC4/CapSense_Processing.c ****         /* Need to specify pointer to corresponding sensor's noise-envelope object.*/
 855:Generated_Source\PSoC4/CapSense_Processing.c ****         ptrNoiseEnvelope = ptrFlashWdgt->ptr2NoiseEnvlp;
 856:Generated_Source\PSoC4/CapSense_Processing.c ****     #endif /* (0u != (CapSense_CSD_AUTOTUNE & CapSense_CSD_SS_TH_EN)) */
 857:Generated_Source\PSoC4/CapSense_Processing.c **** 
 858:Generated_Source\PSoC4/CapSense_Processing.c ****     widgetType = ptrFlashWdgt->wdgtType;
 859:Generated_Source\PSoC4/CapSense_Processing.c ****     ptrRamWdgt = ptrFlashWdgt->ptr2WdgtRam;
 860:Generated_Source\PSoC4/CapSense_Processing.c **** 
 861:Generated_Source\PSoC4/CapSense_Processing.c ****     #if (0u != DP_FW_FILTER_EN)
 862:Generated_Source\PSoC4/CapSense_Processing.c ****         if (0u != (mode & CapSense_PROCESS_FILTER))
 863:Generated_Source\PSoC4/CapSense_Processing.c ****         {
 864:Generated_Source\PSoC4/CapSense_Processing.c ****             CapSense_FtRunEnabledFiltersInternal(fltrHistV, ptrSns, widgetType);
 865:Generated_Source\PSoC4/CapSense_Processing.c ****         }
 866:Generated_Source\PSoC4/CapSense_Processing.c ****     #else
 867:Generated_Source\PSoC4/CapSense_Processing.c ****         (void)fltrHistV; /* This parameter is unused in such configurations */
 868:Generated_Source\PSoC4/CapSense_Processing.c ****     #endif /* #if (0u != DP_FW_FILTER_EN) */
 869:Generated_Source\PSoC4/CapSense_Processing.c **** 
 870:Generated_Source\PSoC4/CapSense_Processing.c ****     #if (0u != (CapSense_CSD_AUTOTUNE & CapSense_CSD_SS_TH_EN))
 871:Generated_Source\PSoC4/CapSense_Processing.c ****         if (0u != (mode & CapSense_PROCESS_CALC_NOISE))
 872:Generated_Source\PSoC4/CapSense_Processing.c ****         {
 873:Generated_Source\PSoC4/CapSense_Processing.c ****             SmartSense_RunNoiseEnvelope(ptrSns->raw[0u], ptrRamWdgt->sigPFC, ptrNoiseEnvelope);
 874:Generated_Source\PSoC4/CapSense_Processing.c ****         }
 875:Generated_Source\PSoC4/CapSense_Processing.c **** 
 876:Generated_Source\PSoC4/CapSense_Processing.c ****         if (0u != (mode & CapSense_PROCESS_THRESHOLDS))
 877:Generated_Source\PSoC4/CapSense_Processing.c ****         {            
 878:Generated_Source\PSoC4/CapSense_Processing.c ****             CapSense_DpUpdateThresholds(ptrRamWdgt, ptrNoiseEnvelope, 0u);
 879:Generated_Source\PSoC4/CapSense_Processing.c ****             
 880:Generated_Source\PSoC4/CapSense_Processing.c ****             /* Calculate Proximity Touch Threshold in SmartSense mode based on Finger Threshold and
 881:Generated_Source\PSoC4/CapSense_Processing.c ****             #if (CapSense_ENABLE == CapSense_PROXIMITY_WIDGET_EN)
 882:Generated_Source\PSoC4/CapSense_Processing.c ****                 if (CapSense_WD_PROXIMITY_E == CapSense_GET_WIDGET_TYPE(ptrFlashWdgt))
 883:Generated_Source\PSoC4/CapSense_Processing.c ****                 {
 884:Generated_Source\PSoC4/CapSense_Processing.c ****                     proximityThreshold = ((uint32)ptrRamWdgt->fingerTh * CapSense_PROX_TOUCH_COEFF)
 885:Generated_Source\PSoC4/CapSense_Processing.c ****                     if ((((1Lu) << CapSense_THRESHOLD_SIZE) - 1u) < proximityThreshold)
 886:Generated_Source\PSoC4/CapSense_Processing.c ****                     {
 887:Generated_Source\PSoC4/CapSense_Processing.c ****                         proximityThreshold = ((1Lu) << CapSense_THRESHOLD_SIZE) - 1u;
 888:Generated_Source\PSoC4/CapSense_Processing.c ****                     }
 889:Generated_Source\PSoC4/CapSense_Processing.c ****                     ((CapSense_RAM_WD_PROXIMITY_STRUCT *)ptrFlashWdgt->ptr2WdgtRam)->proxTouchTh = 
 890:Generated_Source\PSoC4/CapSense_Processing.c ****                         (CapSense_THRESHOLD_TYPE)proximityThreshold;
 891:Generated_Source\PSoC4/CapSense_Processing.c ****                 }
 892:Generated_Source\PSoC4/CapSense_Processing.c ****             #endif /* (0 != CapSense_PROXIMITY_WIDGET_EN) */
 893:Generated_Source\PSoC4/CapSense_Processing.c ****         }
 894:Generated_Source\PSoC4/CapSense_Processing.c ****     #endif /* #if (0u != (CapSense_CSD_AUTOTUNE & CapSense_CSD_SS_TH_EN)) */
 895:Generated_Source\PSoC4/CapSense_Processing.c **** 
 896:Generated_Source\PSoC4/CapSense_Processing.c ****     if (0u != (mode & CapSense_PROCESS_BASELINE))
ARM GAS  C:\Users\MM1005~1\AppData\Local\Temp\ccNDvdtn.s 			page 19


 897:Generated_Source\PSoC4/CapSense_Processing.c ****     {
 898:Generated_Source\PSoC4/CapSense_Processing.c ****         result = CapSense_FtUpdateBaseline(ptrRamWdgt, ptrSns, widgetType);
 899:Generated_Source\PSoC4/CapSense_Processing.c ****     }
 900:Generated_Source\PSoC4/CapSense_Processing.c **** 
 901:Generated_Source\PSoC4/CapSense_Processing.c ****     if (0u != (mode & CapSense_PROCESS_DIFFCOUNTS))
 902:Generated_Source\PSoC4/CapSense_Processing.c ****     {
 903:Generated_Source\PSoC4/CapSense_Processing.c ****         CapSense_DpUpdateDifferences(ptrRamWdgt, ptrSns);
 904:Generated_Source\PSoC4/CapSense_Processing.c ****     }
 905:Generated_Source\PSoC4/CapSense_Processing.c ****     return result;
 906:Generated_Source\PSoC4/CapSense_Processing.c **** }
 907:Generated_Source\PSoC4/CapSense_Processing.c **** 
 908:Generated_Source\PSoC4/CapSense_Processing.c **** /*******************************************************************************
 909:Generated_Source\PSoC4/CapSense_Processing.c **** * Function Name: CapSense_DpProcessCsdWidgetStatus
 910:Generated_Source\PSoC4/CapSense_Processing.c **** ****************************************************************************//**
 911:Generated_Source\PSoC4/CapSense_Processing.c **** *
 912:Generated_Source\PSoC4/CapSense_Processing.c **** * \brief
 913:Generated_Source\PSoC4/CapSense_Processing.c **** *  Runs the status processing of the CSD widget and updates it in the Data Structure.
 914:Generated_Source\PSoC4/CapSense_Processing.c **** *
 915:Generated_Source\PSoC4/CapSense_Processing.c **** * \details
 916:Generated_Source\PSoC4/CapSense_Processing.c **** *  This API determines the widget type and calls the appropriate low-level processing
 917:Generated_Source\PSoC4/CapSense_Processing.c **** *  function. Based on the returned results it updates the widget and sensor
 918:Generated_Source\PSoC4/CapSense_Processing.c **** *  status in the data structure. Any widget specific registers like the centroid
 919:Generated_Source\PSoC4/CapSense_Processing.c **** *  position are updated directly in the low-level processing function.
 920:Generated_Source\PSoC4/CapSense_Processing.c **** *
 921:Generated_Source\PSoC4/CapSense_Processing.c **** *  When the widget-specific processing completes this API updates the snsStatus
 922:Generated_Source\PSoC4/CapSense_Processing.c **** *  and wdgtStatus registers in the data structure. The wdgtStatus register
 923:Generated_Source\PSoC4/CapSense_Processing.c **** *  is a bitmask were each bit corresponds to the specific widget identified by
 924:Generated_Source\PSoC4/CapSense_Processing.c **** *  the widget index. When the bit is set the widget is active (touched);
 925:Generated_Source\PSoC4/CapSense_Processing.c **** *
 926:Generated_Source\PSoC4/CapSense_Processing.c **** *  The snsStatus register for CSD widgets contains status of each widget sensor
 927:Generated_Source\PSoC4/CapSense_Processing.c **** *  (active/non-active). Each bit corresponds to one sensor. In case of the
 928:Generated_Source\PSoC4/CapSense_Processing.c **** *  Proximity widget two bits are used per sensor: one for proximity status and
 929:Generated_Source\PSoC4/CapSense_Processing.c **** *  second for the touch status.
 930:Generated_Source\PSoC4/CapSense_Processing.c **** *
 931:Generated_Source\PSoC4/CapSense_Processing.c **** * \param wdgtId        The widget index number.
 932:Generated_Source\PSoC4/CapSense_Processing.c **** * \param ptrFlashWdgt  The pointer to the Flash widget structure.
 933:Generated_Source\PSoC4/CapSense_Processing.c **** *
 934:Generated_Source\PSoC4/CapSense_Processing.c **** *******************************************************************************/
 935:Generated_Source\PSoC4/CapSense_Processing.c **** void CapSense_DpProcessCsdWidgetStatus(uint32 wdgtId, CapSense_FLASH_WD_STRUCT const *ptrFlashWdgt)
 936:Generated_Source\PSoC4/CapSense_Processing.c **** {
 937:Generated_Source\PSoC4/CapSense_Processing.c ****     uint32 sensorStatus;
 938:Generated_Source\PSoC4/CapSense_Processing.c ****     uint32 wdStatusIndex;
 939:Generated_Source\PSoC4/CapSense_Processing.c ****     uint32 wdStatusMask;
 940:Generated_Source\PSoC4/CapSense_Processing.c ****     CapSense_WD_TYPE_ENUM widgetType;
 941:Generated_Source\PSoC4/CapSense_Processing.c **** 
 942:Generated_Source\PSoC4/CapSense_Processing.c ****     widgetType = (CapSense_WD_TYPE_ENUM)ptrFlashWdgt->wdgtType;
 943:Generated_Source\PSoC4/CapSense_Processing.c ****     sensorStatus = CapSense_dsRam.snsStatus[wdgtId];
 944:Generated_Source\PSoC4/CapSense_Processing.c **** 
 945:Generated_Source\PSoC4/CapSense_Processing.c ****     switch (widgetType)
 946:Generated_Source\PSoC4/CapSense_Processing.c ****     {
 947:Generated_Source\PSoC4/CapSense_Processing.c ****     #if (0u != CapSense_BUTTON_WIDGET_EN)
 948:Generated_Source\PSoC4/CapSense_Processing.c ****         case CapSense_WD_BUTTON_E:
 949:Generated_Source\PSoC4/CapSense_Processing.c ****             sensorStatus = CapSense_DpProcessButton(sensorStatus, ptrFlashWdgt);
 950:Generated_Source\PSoC4/CapSense_Processing.c ****             break;
 951:Generated_Source\PSoC4/CapSense_Processing.c ****     #endif /* #if (0u != CapSense_BUTTON_WIDGET_EN) */
 952:Generated_Source\PSoC4/CapSense_Processing.c **** 
 953:Generated_Source\PSoC4/CapSense_Processing.c ****     #if (0u != CapSense_SLIDER_WIDGET_EN)
ARM GAS  C:\Users\MM1005~1\AppData\Local\Temp\ccNDvdtn.s 			page 20


 954:Generated_Source\PSoC4/CapSense_Processing.c ****         case CapSense_WD_LINEAR_SLIDER_E:
 955:Generated_Source\PSoC4/CapSense_Processing.c ****         case CapSense_WD_RADIAL_SLIDER_E:
 956:Generated_Source\PSoC4/CapSense_Processing.c ****             sensorStatus = CapSense_DpProcessSlider(sensorStatus, ptrFlashWdgt);
 957:Generated_Source\PSoC4/CapSense_Processing.c ****             break;
 958:Generated_Source\PSoC4/CapSense_Processing.c ****     #endif /* #if (0u != CapSense_SLIDER_WIDGET_EN) */
 959:Generated_Source\PSoC4/CapSense_Processing.c **** 
 960:Generated_Source\PSoC4/CapSense_Processing.c ****     #if (0u != CapSense_CSD_MATRIX_WIDGET_EN)
 961:Generated_Source\PSoC4/CapSense_Processing.c ****         case CapSense_WD_MATRIX_BUTTON_E:
 962:Generated_Source\PSoC4/CapSense_Processing.c ****             sensorStatus = CapSense_DpProcessCsdMatrix(sensorStatus, ptrFlashWdgt);
 963:Generated_Source\PSoC4/CapSense_Processing.c ****             break;
 964:Generated_Source\PSoC4/CapSense_Processing.c ****     #endif /* #if (0u != CapSense_CSD_MATRIX_WIDGET_EN) */
 965:Generated_Source\PSoC4/CapSense_Processing.c **** 
 966:Generated_Source\PSoC4/CapSense_Processing.c ****     #if (0u != CapSense_CSD_TOUCHPAD_WIDGET_EN)
 967:Generated_Source\PSoC4/CapSense_Processing.c ****         case CapSense_WD_TOUCHPAD_E:
 968:Generated_Source\PSoC4/CapSense_Processing.c ****             sensorStatus = CapSense_DpProcessCsdTouchpad(sensorStatus, ptrFlashWdgt);
 969:Generated_Source\PSoC4/CapSense_Processing.c ****             break;
 970:Generated_Source\PSoC4/CapSense_Processing.c ****     #endif /* #if (0u != CapSense_CSD_TOUCHPAD_WIDGET_EN) */
 971:Generated_Source\PSoC4/CapSense_Processing.c **** 
 972:Generated_Source\PSoC4/CapSense_Processing.c ****     #if (0u != CapSense_PROXIMITY_WIDGET_EN)
 973:Generated_Source\PSoC4/CapSense_Processing.c ****         case CapSense_WD_PROXIMITY_E:
 974:Generated_Source\PSoC4/CapSense_Processing.c ****             sensorStatus = CapSense_DpProcessProximity(sensorStatus, ptrFlashWdgt);
 975:Generated_Source\PSoC4/CapSense_Processing.c ****             break;
 976:Generated_Source\PSoC4/CapSense_Processing.c ****     #endif /* #if (0u != CapSense_PROXIMITY_WIDGET_EN) */
 977:Generated_Source\PSoC4/CapSense_Processing.c **** 
 978:Generated_Source\PSoC4/CapSense_Processing.c ****     default:
 979:Generated_Source\PSoC4/CapSense_Processing.c ****         CYASSERT(0u);
 980:Generated_Source\PSoC4/CapSense_Processing.c ****         break;
 981:Generated_Source\PSoC4/CapSense_Processing.c ****     }
 982:Generated_Source\PSoC4/CapSense_Processing.c **** 
 983:Generated_Source\PSoC4/CapSense_Processing.c ****     CapSense_dsRam.snsStatus[wdgtId] = (CapSense_SNS_STS_TYPE)sensorStatus;
 984:Generated_Source\PSoC4/CapSense_Processing.c **** 
 985:Generated_Source\PSoC4/CapSense_Processing.c ****     /* The next two lines calculate index and bitmask of the widget status bit in the wdgtStatus ar
 986:Generated_Source\PSoC4/CapSense_Processing.c ****     wdStatusIndex = CapSense_GET_WDGT_STATUS_INDEX(wdgtId);
 987:Generated_Source\PSoC4/CapSense_Processing.c ****     wdStatusMask = CapSense_GET_WDGT_STATUS_MASK(wdgtId);
 988:Generated_Source\PSoC4/CapSense_Processing.c **** 
 989:Generated_Source\PSoC4/CapSense_Processing.c ****     /* Check if there are active sensors and update widget status accordingly */
 990:Generated_Source\PSoC4/CapSense_Processing.c ****     if (0u == sensorStatus)
 991:Generated_Source\PSoC4/CapSense_Processing.c ****     {
 992:Generated_Source\PSoC4/CapSense_Processing.c ****         CapSense_dsRam.wdgtStatus[wdStatusIndex] &= ~wdStatusMask;
 993:Generated_Source\PSoC4/CapSense_Processing.c ****     }
 994:Generated_Source\PSoC4/CapSense_Processing.c ****     else
 995:Generated_Source\PSoC4/CapSense_Processing.c ****     {
 996:Generated_Source\PSoC4/CapSense_Processing.c ****         CapSense_dsRam.wdgtStatus[wdStatusIndex] |= wdStatusMask;
 997:Generated_Source\PSoC4/CapSense_Processing.c ****     }
 998:Generated_Source\PSoC4/CapSense_Processing.c **** }
 999:Generated_Source\PSoC4/CapSense_Processing.c **** #endif /* #if (0u != CapSense_TOTAL_CSD_WIDGETS) */
1000:Generated_Source\PSoC4/CapSense_Processing.c **** 
1001:Generated_Source\PSoC4/CapSense_Processing.c **** 
1002:Generated_Source\PSoC4/CapSense_Processing.c **** #if (0 != (CapSense_CSD_AUTOTUNE & CapSense_CSD_SS_TH_EN))
1003:Generated_Source\PSoC4/CapSense_Processing.c **** /*******************************************************************************
1004:Generated_Source\PSoC4/CapSense_Processing.c **** * Function Name: CapSense_DpUpdateThresholds
1005:Generated_Source\PSoC4/CapSense_Processing.c **** ****************************************************************************//**
1006:Generated_Source\PSoC4/CapSense_Processing.c **** *
1007:Generated_Source\PSoC4/CapSense_Processing.c **** * \brief
1008:Generated_Source\PSoC4/CapSense_Processing.c **** *   Updates noise and finger thresholds for a specified widget.
1009:Generated_Source\PSoC4/CapSense_Processing.c **** *
1010:Generated_Source\PSoC4/CapSense_Processing.c **** * \details
ARM GAS  C:\Users\MM1005~1\AppData\Local\Temp\ccNDvdtn.s 			page 21


1011:Generated_Source\PSoC4/CapSense_Processing.c **** *   Updates noise and finger thresholds for a specified widget.
1012:Generated_Source\PSoC4/CapSense_Processing.c **** *   This algorithm is a part of Auto-tuning feature.
1013:Generated_Source\PSoC4/CapSense_Processing.c **** *
1014:Generated_Source\PSoC4/CapSense_Processing.c **** * \param ptrRamWdgt       The pointer to the RAM widget object.
1015:Generated_Source\PSoC4/CapSense_Processing.c **** * \param ptrNoiseEnvelope The pointer to the noise-envelope object in RAM.
1016:Generated_Source\PSoC4/CapSense_Processing.c **** * \param startFlag        The flag indicates when new widget is processed.
1017:Generated_Source\PSoC4/CapSense_Processing.c **** *
1018:Generated_Source\PSoC4/CapSense_Processing.c **** *******************************************************************************/
1019:Generated_Source\PSoC4/CapSense_Processing.c **** void CapSense_DpUpdateThresholds(CapSense_RAM_WD_BASE_STRUCT *ptrRamWdgt,
1020:Generated_Source\PSoC4/CapSense_Processing.c ****                                          SMARTSENSE_CSD_NOISE_ENVELOPE_STRUCT *ptrNoiseEnvelope,
1021:Generated_Source\PSoC4/CapSense_Processing.c ****                                          uint32 startFlag)
1022:Generated_Source\PSoC4/CapSense_Processing.c **** {
 126              		.loc 1 1022 0
 127              		.cfi_startproc
 128              	.LVL14:
 129 0000 10B5     		push	{r4, lr}
 130              		.cfi_def_cfa_offset 8
 131              		.cfi_offset 4, -8
 132              		.cfi_offset 14, -4
 133 0002 82B0     		sub	sp, sp, #8
 134              		.cfi_def_cfa_offset 16
 135 0004 041C     		mov	r4, r0
 136 0006 131C     		mov	r3, r2
 137              	.LVL15:
1023:Generated_Source\PSoC4/CapSense_Processing.c ****     SMARTSENSE_UPDATE_THRESHOLDS_STRUCT thresholds;    
1024:Generated_Source\PSoC4/CapSense_Processing.c ****     SMARTSENSE_UPDATE_THRESHOLDS_STRUCT *ptrThresholds = &thresholds;
1025:Generated_Source\PSoC4/CapSense_Processing.c ****     ptrThresholds->fingerTh = ptrRamWdgt->fingerTh;
 138              		.loc 1 1025 0
 139 0008 4288     		ldrh	r2, [r0, #2]
 140              	.LVL16:
 141 000a 6846     		mov	r0, sp
 142              	.LVL17:
 143 000c 0280     		strh	r2, [r0]
1026:Generated_Source\PSoC4/CapSense_Processing.c **** 
1027:Generated_Source\PSoC4/CapSense_Processing.c ****     SmartSense_UpdateThresholds(ptrNoiseEnvelope, ptrThresholds, ptrRamWdgt->sigPFC, startFlag);
 144              		.loc 1 1027 0
 145 000e 228A     		ldrh	r2, [r4, #16]
 146 0010 081C     		mov	r0, r1
 147 0012 6946     		mov	r1, sp
 148              	.LVL18:
 149 0014 FFF7FEFF 		bl	SmartSense_UpdateThresholds
 150              	.LVL19:
1028:Generated_Source\PSoC4/CapSense_Processing.c **** 
1029:Generated_Source\PSoC4/CapSense_Processing.c ****     ptrRamWdgt->fingerTh = ptrThresholds->fingerTh;
 151              		.loc 1 1029 0
 152 0018 6B46     		mov	r3, sp
 153 001a 1B88     		ldrh	r3, [r3]
 154 001c 6380     		strh	r3, [r4, #2]
1030:Generated_Source\PSoC4/CapSense_Processing.c ****     ptrRamWdgt->noiseTh = ptrThresholds->noiseTh;
 155              		.loc 1 1030 0
 156 001e 6B46     		mov	r3, sp
 157 0020 9B78     		ldrb	r3, [r3, #2]
 158 0022 2371     		strb	r3, [r4, #4]
1031:Generated_Source\PSoC4/CapSense_Processing.c ****     ptrRamWdgt->nNoiseTh = ptrThresholds->nNoiseTh;
 159              		.loc 1 1031 0
 160 0024 6B46     		mov	r3, sp
 161 0026 DB78     		ldrb	r3, [r3, #3]
ARM GAS  C:\Users\MM1005~1\AppData\Local\Temp\ccNDvdtn.s 			page 22


 162 0028 6371     		strb	r3, [r4, #5]
1032:Generated_Source\PSoC4/CapSense_Processing.c ****     ptrRamWdgt->hysteresis = ptrThresholds->hysteresis;    
 163              		.loc 1 1032 0
 164 002a 6B46     		mov	r3, sp
 165 002c 1B79     		ldrb	r3, [r3, #4]
 166 002e A371     		strb	r3, [r4, #6]
1033:Generated_Source\PSoC4/CapSense_Processing.c **** }
 167              		.loc 1 1033 0
 168 0030 02B0     		add	sp, sp, #8
 169              	.LVL20:
 170              		@ sp needed
 171              	.LVL21:
 172 0032 10BD     		pop	{r4, pc}
 173              		.cfi_endproc
 174              	.LFE5:
 175              		.size	CapSense_DpUpdateThresholds, .-CapSense_DpUpdateThresholds
 176              		.section	.text.CapSense_DpUpdateDifferences,"ax",%progbits
 177              		.align	2
 178              		.global	CapSense_DpUpdateDifferences
 179              		.code	16
 180              		.thumb_func
 181              		.type	CapSense_DpUpdateDifferences, %function
 182              	CapSense_DpUpdateDifferences:
 183              	.LFB6:
1034:Generated_Source\PSoC4/CapSense_Processing.c **** #endif /* #if (0u != (CapSense_CSD_AUTOTUNE & CapSense_CSD_SS_TH_EN)) */
1035:Generated_Source\PSoC4/CapSense_Processing.c **** 
1036:Generated_Source\PSoC4/CapSense_Processing.c **** 
1037:Generated_Source\PSoC4/CapSense_Processing.c **** /*******************************************************************************
1038:Generated_Source\PSoC4/CapSense_Processing.c **** * Function Name: CapSense_DpUpdateDifferences
1039:Generated_Source\PSoC4/CapSense_Processing.c **** ****************************************************************************//**
1040:Generated_Source\PSoC4/CapSense_Processing.c **** *
1041:Generated_Source\PSoC4/CapSense_Processing.c **** * \brief
1042:Generated_Source\PSoC4/CapSense_Processing.c **** *   Calculates new difference values.
1043:Generated_Source\PSoC4/CapSense_Processing.c **** *   Also, executes the frequency hopping algorithm if it is enabled.
1044:Generated_Source\PSoC4/CapSense_Processing.c **** *
1045:Generated_Source\PSoC4/CapSense_Processing.c **** * \details
1046:Generated_Source\PSoC4/CapSense_Processing.c **** *   This API calculates the difference between the baseline and raw counts.
1047:Generated_Source\PSoC4/CapSense_Processing.c **** *   If the difference is positive (raw > baseline), and higher than the widget
1048:Generated_Source\PSoC4/CapSense_Processing.c **** *   noise threshold, it is saved into the data structure for further processing.
1049:Generated_Source\PSoC4/CapSense_Processing.c **** *   Otherwise the difference is set to zero. The final difference value is saved
1050:Generated_Source\PSoC4/CapSense_Processing.c **** *   with the subtracted noise threshold value.
1051:Generated_Source\PSoC4/CapSense_Processing.c **** *
1052:Generated_Source\PSoC4/CapSense_Processing.c **** *   If the frequency hopping algorithm is enabled, the difference is calculated
1053:Generated_Source\PSoC4/CapSense_Processing.c **** *   for the three sets of data available for each sensor. Then
1054:Generated_Source\PSoC4/CapSense_Processing.c **** *   the median filter selects the final difference value.
1055:Generated_Source\PSoC4/CapSense_Processing.c **** *
1056:Generated_Source\PSoC4/CapSense_Processing.c **** * \param ptrRamWdgt The pointer to the RAR Widget Object.
1057:Generated_Source\PSoC4/CapSense_Processing.c **** * \param ptrSns     The pointer to the sensor object in RAM.
1058:Generated_Source\PSoC4/CapSense_Processing.c **** *
1059:Generated_Source\PSoC4/CapSense_Processing.c **** *******************************************************************************/
1060:Generated_Source\PSoC4/CapSense_Processing.c **** void CapSense_DpUpdateDifferences(
1061:Generated_Source\PSoC4/CapSense_Processing.c ****                         CapSense_RAM_WD_BASE_STRUCT *ptrRamWdgt,
1062:Generated_Source\PSoC4/CapSense_Processing.c ****                         CapSense_RAM_SNS_STRUCT *ptrSns)
1063:Generated_Source\PSoC4/CapSense_Processing.c **** {
 184              		.loc 1 1063 0
 185              		.cfi_startproc
 186              	.LVL22:
ARM GAS  C:\Users\MM1005~1\AppData\Local\Temp\ccNDvdtn.s 			page 23


1064:Generated_Source\PSoC4/CapSense_Processing.c ****     register int32 diffValue = 0;
1065:Generated_Source\PSoC4/CapSense_Processing.c **** 
1066:Generated_Source\PSoC4/CapSense_Processing.c ****     #if (0u != CapSense_MULTI_FREQ_SCAN_EN)
1067:Generated_Source\PSoC4/CapSense_Processing.c ****         register int32 diffValue_0 = 0;
1068:Generated_Source\PSoC4/CapSense_Processing.c ****         register int32 diffValue_2 = 0;
1069:Generated_Source\PSoC4/CapSense_Processing.c ****     #endif /* #if (0u != CapSense_MULTI_FREQ_SCAN_EN) */
1070:Generated_Source\PSoC4/CapSense_Processing.c **** 
1071:Generated_Source\PSoC4/CapSense_Processing.c ****     /* Calculate difference */
1072:Generated_Source\PSoC4/CapSense_Processing.c ****     diffValue = (int32)ptrSns->raw[0u] - (int32)ptrSns->bsln[0u];
 187              		.loc 1 1072 0
 188 0000 0B88     		ldrh	r3, [r1]
 189 0002 4A88     		ldrh	r2, [r1, #2]
 190 0004 9B1A     		sub	r3, r3, r2
 191              	.LVL23:
1073:Generated_Source\PSoC4/CapSense_Processing.c **** 
1074:Generated_Source\PSoC4/CapSense_Processing.c ****     #if (0u != CapSense_MULTI_FREQ_SCAN_EN)
1075:Generated_Source\PSoC4/CapSense_Processing.c ****         diffValue_0 = (int32)ptrSns->raw[1u] - (int32)ptrSns->bsln[1u];
1076:Generated_Source\PSoC4/CapSense_Processing.c ****         diffValue_2 = (int32)ptrSns->raw[2u] - (int32)ptrSns->bsln[2u];
1077:Generated_Source\PSoC4/CapSense_Processing.c **** 
1078:Generated_Source\PSoC4/CapSense_Processing.c ****         /* Find median and put it into [0u] element */
1079:Generated_Source\PSoC4/CapSense_Processing.c ****         if (diffValue_0 > diffValue)
1080:Generated_Source\PSoC4/CapSense_Processing.c ****         {
1081:Generated_Source\PSoC4/CapSense_Processing.c ****             register int32 swapv = diffValue_0;
1082:Generated_Source\PSoC4/CapSense_Processing.c ****             diffValue_0 = diffValue;
1083:Generated_Source\PSoC4/CapSense_Processing.c ****             diffValue = swapv;
1084:Generated_Source\PSoC4/CapSense_Processing.c ****         }
1085:Generated_Source\PSoC4/CapSense_Processing.c **** 
1086:Generated_Source\PSoC4/CapSense_Processing.c ****         if (diffValue > diffValue_2)
1087:Generated_Source\PSoC4/CapSense_Processing.c ****         {
1088:Generated_Source\PSoC4/CapSense_Processing.c ****             register int32 swapv = diffValue;
1089:Generated_Source\PSoC4/CapSense_Processing.c ****             diffValue = diffValue_2;
1090:Generated_Source\PSoC4/CapSense_Processing.c ****             diffValue_2 = swapv;
1091:Generated_Source\PSoC4/CapSense_Processing.c ****         }
1092:Generated_Source\PSoC4/CapSense_Processing.c **** 
1093:Generated_Source\PSoC4/CapSense_Processing.c ****         if (diffValue_0 > diffValue)
1094:Generated_Source\PSoC4/CapSense_Processing.c ****         {
1095:Generated_Source\PSoC4/CapSense_Processing.c ****             register int32 swapv = diffValue_0;
1096:Generated_Source\PSoC4/CapSense_Processing.c ****             diffValue_0 = diffValue;
1097:Generated_Source\PSoC4/CapSense_Processing.c ****             diffValue = swapv;
1098:Generated_Source\PSoC4/CapSense_Processing.c ****         }
1099:Generated_Source\PSoC4/CapSense_Processing.c ****     #endif /* #if (0u != CapSense_MULTI_FREQ_SCAN_EN) */
1100:Generated_Source\PSoC4/CapSense_Processing.c **** 
1101:Generated_Source\PSoC4/CapSense_Processing.c ****     ptrSns->diff = 0u;
 192              		.loc 1 1101 0
 193 0006 0022     		mov	r2, #0
 194 0008 CA80     		strh	r2, [r1, #6]
1102:Generated_Source\PSoC4/CapSense_Processing.c **** 
1103:Generated_Source\PSoC4/CapSense_Processing.c ****     if (diffValue > (int32)ptrRamWdgt->noiseTh)
 195              		.loc 1 1103 0
 196 000a 0279     		ldrb	r2, [r0, #4]
 197 000c 9A42     		cmp	r2, r3
 198 000e 00DA     		bge	.L11
1104:Generated_Source\PSoC4/CapSense_Processing.c ****     {
1105:Generated_Source\PSoC4/CapSense_Processing.c ****         ptrSns->diff = (CapSense_THRESHOLD_TYPE) diffValue;
 199              		.loc 1 1105 0
 200 0010 CB80     		strh	r3, [r1, #6]
 201              	.L11:
ARM GAS  C:\Users\MM1005~1\AppData\Local\Temp\ccNDvdtn.s 			page 24


1106:Generated_Source\PSoC4/CapSense_Processing.c ****     }
1107:Generated_Source\PSoC4/CapSense_Processing.c **** }
 202              		.loc 1 1107 0
 203              		@ sp needed
 204 0012 7047     		bx	lr
 205              		.cfi_endproc
 206              	.LFE6:
 207              		.size	CapSense_DpUpdateDifferences, .-CapSense_DpUpdateDifferences
 208              		.section	.text.CapSense_DpProcessCsdWidgetRawCounts,"ax",%progbits
 209              		.align	2
 210              		.global	CapSense_DpProcessCsdWidgetRawCounts
 211              		.code	16
 212              		.thumb_func
 213              		.type	CapSense_DpProcessCsdWidgetRawCounts, %function
 214              	CapSense_DpProcessCsdWidgetRawCounts:
 215              	.LFB2:
 708:Generated_Source\PSoC4/CapSense_Processing.c ****     uint32  result = CYRET_SUCCESS;
 216              		.loc 1 708 0
 217              		.cfi_startproc
 218              	.LVL24:
 219 0000 F0B5     		push	{r4, r5, r6, r7, lr}
 220              		.cfi_def_cfa_offset 20
 221              		.cfi_offset 4, -20
 222              		.cfi_offset 5, -16
 223              		.cfi_offset 6, -12
 224              		.cfi_offset 7, -8
 225              		.cfi_offset 14, -4
 226 0002 5F46     		mov	r7, fp
 227 0004 5646     		mov	r6, r10
 228 0006 4D46     		mov	r5, r9
 229 0008 E0B4     		push	{r5, r6, r7}
 230              		.cfi_def_cfa_offset 32
 231              		.cfi_offset 9, -32
 232              		.cfi_offset 10, -28
 233              		.cfi_offset 11, -24
 234 000a 82B0     		sub	sp, sp, #8
 235              		.cfi_def_cfa_offset 40
 236 000c 8246     		mov	r10, r0
 237              	.LVL25:
 733:Generated_Source\PSoC4/CapSense_Processing.c ****                     
 238              		.loc 1 733 0
 239 000e 037E     		ldrb	r3, [r0, #24]
 732:Generated_Source\PSoC4/CapSense_Processing.c ****                     (CapSense_GET_WIDGET_TYPE(ptrFlashWdgt) == CapSense_WD_PROXIMITY_E) ? 1u : 0u;
 240              		.loc 1 732 0
 241 0010 062B     		cmp	r3, #6
 242 0012 02D1     		bne	.L18
 243 0014 0122     		mov	r2, #1
 244 0016 9346     		mov	fp, r2
 245 0018 01E0     		b	.L14
 246              	.L18:
 247 001a 0022     		mov	r2, #0
 248 001c 9346     		mov	fp, r2
 249              	.L14:
 250              	.LVL26:
 736:Generated_Source\PSoC4/CapSense_Processing.c ****     #endif /* #if (0u != DP_FW_FILTER_EN) */
 251              		.loc 1 736 0 discriminator 4
 252 001e 5246     		mov	r2, r10
ARM GAS  C:\Users\MM1005~1\AppData\Local\Temp\ccNDvdtn.s 			page 25


 253 0020 D268     		ldr	r2, [r2, #12]
 254              	.LVL27:
 255 0022 9146     		mov	r9, r2
 739:Generated_Source\PSoC4/CapSense_Processing.c ****     ptrRamWdgt = ptrFlashWdgt->ptr2WdgtRam;
 256              		.loc 1 739 0 discriminator 4
 257 0024 5246     		mov	r2, r10
 258              	.LVL28:
 259 0026 9468     		ldr	r4, [r2, #8]
 260              	.LVL29:
 740:Generated_Source\PSoC4/CapSense_Processing.c ****     widgetType = ptrFlashWdgt->wdgtType;
 261              		.loc 1 740 0 discriminator 4
 262 0028 5668     		ldr	r6, [r2, #4]
 263              	.LVL30:
 741:Generated_Source\PSoC4/CapSense_Processing.c **** 
 264              		.loc 1 741 0 discriminator 4
 265 002a 0093     		str	r3, [sp]
 266              	.LVL31:
 744:Generated_Source\PSoC4/CapSense_Processing.c ****     #endif /* #if (0u != (CapSense_CSD_AUTOTUNE & CapSense_CSD_SS_TH_EN)) */
 267              		.loc 1 744 0 discriminator 4
 268 002c D769     		ldr	r7, [r2, #28]
 269              	.LVL32:
 748:Generated_Source\PSoC4/CapSense_Processing.c ****     {
 270              		.loc 1 748 0 discriminator 4
 271 002e 0025     		mov	r5, #0
 709:Generated_Source\PSoC4/CapSense_Processing.c ****     
 272              		.loc 1 709 0 discriminator 4
 273 0030 0023     		mov	r3, #0
 274 0032 0193     		str	r3, [sp, #4]
 748:Generated_Source\PSoC4/CapSense_Processing.c ****     {
 275              		.loc 1 748 0 discriminator 4
 276 0034 21E0     		b	.L15
 277              	.LVL33:
 278              	.L17:
 752:Generated_Source\PSoC4/CapSense_Processing.c ****         #endif /* #if (0u != DP_FW_FILTER_EN) */
 279              		.loc 1 752 0
 280 0036 4846     		mov	r0, r9
 281 0038 211C     		mov	r1, r4
 282 003a 009A     		ldr	r2, [sp]
 283 003c FFF7FEFF 		bl	CapSense_FtRunEnabledFiltersInternal
 284              	.LVL34:
 757:Generated_Source\PSoC4/CapSense_Processing.c ****             CapSense_DpUpdateThresholds(ptrRamWdgt, ptrNoiseEnvelope, snsId);
 285              		.loc 1 757 0
 286 0040 2088     		ldrh	r0, [r4]
 287 0042 318A     		ldrh	r1, [r6, #16]
 288 0044 3A1C     		mov	r2, r7
 289 0046 FFF7FEFF 		bl	SmartSense_RunNoiseEnvelope
 290              	.LVL35:
 758:Generated_Source\PSoC4/CapSense_Processing.c **** 
 291              		.loc 1 758 0
 292 004a 301C     		mov	r0, r6
 293 004c 391C     		mov	r1, r7
 294 004e 2A1C     		mov	r2, r5
 295 0050 FFF7FEFF 		bl	CapSense_DpUpdateThresholds
 296              	.LVL36:
 775:Generated_Source\PSoC4/CapSense_Processing.c ****         #endif /* (0u != (CapSense_CSD_AUTOTUNE & CapSense_CSD_SS_TH_EN)) */
 297              		.loc 1 775 0
 298 0054 0C37     		add	r7, r7, #12
ARM GAS  C:\Users\MM1005~1\AppData\Local\Temp\ccNDvdtn.s 			page 26


 299              	.LVL37:
 788:Generated_Source\PSoC4/CapSense_Processing.c ****         #endif /* (CapSense_ENABLE == CapSense_TST_BSLN_DUPLICATION_EN) */
 300              		.loc 1 788 0
 301 0056 301C     		mov	r0, r6
 302 0058 211C     		mov	r1, r4
 303 005a 009A     		ldr	r2, [sp]
 304 005c FFF7FEFF 		bl	CapSense_FtUpdateBaseline
 305              	.LVL38:
 306 0060 0190     		str	r0, [sp, #4]
 307              	.LVL39:
 791:Generated_Source\PSoC4/CapSense_Processing.c **** 
 308              		.loc 1 791 0
 309 0062 301C     		mov	r0, r6
 310              	.LVL40:
 311 0064 211C     		mov	r1, r4
 312 0066 FFF7FEFF 		bl	CapSense_DpUpdateDifferences
 313              	.LVL41:
 794:Generated_Source\PSoC4/CapSense_Processing.c **** 
 314              		.loc 1 794 0
 315 006a 0A34     		add	r4, r4, #10
 316              	.LVL42:
 798:Generated_Source\PSoC4/CapSense_Processing.c ****         #endif /* #if (0u != DP_FW_FILTER_EN) */
 317              		.loc 1 798 0
 318 006c 5B46     		mov	r3, fp
 319 006e 002B     		cmp	r3, #0
 320 0070 02D1     		bne	.L16
 321              	.LVL43:
 798:Generated_Source\PSoC4/CapSense_Processing.c ****         #endif /* #if (0u != DP_FW_FILTER_EN) */
 322              		.loc 1 798 0 is_stmt 0 discriminator 1
 323 0072 0233     		add	r3, r3, #2
 324              	.LVL44:
 325 0074 9C46     		mov	ip, r3
 326 0076 E144     		add	r9, r9, ip
 327              	.LVL45:
 328              	.L16:
 748:Generated_Source\PSoC4/CapSense_Processing.c ****     {
 329              		.loc 1 748 0 is_stmt 1 discriminator 2
 330 0078 0135     		add	r5, r5, #1
 331              	.LVL46:
 332              	.L15:
 748:Generated_Source\PSoC4/CapSense_Processing.c ****     {
 333              		.loc 1 748 0 is_stmt 0 discriminator 1
 334 007a 5346     		mov	r3, r10
 335 007c DB8A     		ldrh	r3, [r3, #22]
 336 007e AB42     		cmp	r3, r5
 337 0080 D9D8     		bhi	.L17
 802:Generated_Source\PSoC4/CapSense_Processing.c **** 
 338              		.loc 1 802 0 is_stmt 1
 339 0082 0198     		ldr	r0, [sp, #4]
 340 0084 02B0     		add	sp, sp, #8
 341              	.LVL47:
 342              		@ sp needed
 343              	.LVL48:
 344              	.LVL49:
 345              	.LVL50:
 346              	.LVL51:
 347              	.LVL52:
ARM GAS  C:\Users\MM1005~1\AppData\Local\Temp\ccNDvdtn.s 			page 27


 348              	.LVL53:
 349              	.LVL54:
 350 0086 1CBC     		pop	{r2, r3, r4}
 351 0088 9146     		mov	r9, r2
 352 008a 9A46     		mov	r10, r3
 353 008c A346     		mov	fp, r4
 354 008e F0BD     		pop	{r4, r5, r6, r7, pc}
 355              		.cfi_endproc
 356              	.LFE2:
 357              		.size	CapSense_DpProcessCsdWidgetRawCounts, .-CapSense_DpProcessCsdWidgetRawCounts
 358              		.section	.text.CapSense_DpProcessCsdSensorRawCountsExt,"ax",%progbits
 359              		.align	2
 360              		.global	CapSense_DpProcessCsdSensorRawCountsExt
 361              		.code	16
 362              		.thumb_func
 363              		.type	CapSense_DpProcessCsdSensorRawCountsExt, %function
 364              	CapSense_DpProcessCsdSensorRawCountsExt:
 365              	.LFB3:
 843:Generated_Source\PSoC4/CapSense_Processing.c ****     uint32 result = CYRET_SUCCESS;
 366              		.loc 1 843 0
 367              		.cfi_startproc
 368              	.LVL55:
 369 0000 F0B5     		push	{r4, r5, r6, r7, lr}
 370              		.cfi_def_cfa_offset 20
 371              		.cfi_offset 4, -20
 372              		.cfi_offset 5, -16
 373              		.cfi_offset 6, -12
 374              		.cfi_offset 7, -8
 375              		.cfi_offset 14, -4
 376 0002 83B0     		sub	sp, sp, #12
 377              		.cfi_def_cfa_offset 32
 378 0004 0191     		str	r1, [sp, #4]
 379 0006 1C1C     		mov	r4, r3
 380              	.LVL56:
 855:Generated_Source\PSoC4/CapSense_Processing.c ****     #endif /* (0u != (CapSense_CSD_AUTOTUNE & CapSense_CSD_SS_TH_EN)) */
 381              		.loc 1 855 0
 382 0008 C569     		ldr	r5, [r0, #28]
 383              	.LVL57:
 858:Generated_Source\PSoC4/CapSense_Processing.c ****     ptrRamWdgt = ptrFlashWdgt->ptr2WdgtRam;
 384              		.loc 1 858 0
 385 000a 077E     		ldrb	r7, [r0, #24]
 386              	.LVL58:
 859:Generated_Source\PSoC4/CapSense_Processing.c **** 
 387              		.loc 1 859 0
 388 000c 4668     		ldr	r6, [r0, #4]
 389              	.LVL59:
 862:Generated_Source\PSoC4/CapSense_Processing.c ****         {
 390              		.loc 1 862 0
 391 000e E307     		lsl	r3, r4, #31
 392 0010 03D5     		bpl	.L20
 393              	.LVL60:
 864:Generated_Source\PSoC4/CapSense_Processing.c ****         }
 394              		.loc 1 864 0
 395 0012 101C     		mov	r0, r2
 396              	.LVL61:
 397 0014 3A1C     		mov	r2, r7
 398              	.LVL62:
ARM GAS  C:\Users\MM1005~1\AppData\Local\Temp\ccNDvdtn.s 			page 28


 399 0016 FFF7FEFF 		bl	CapSense_FtRunEnabledFiltersInternal
 400              	.LVL63:
 401              	.L20:
 871:Generated_Source\PSoC4/CapSense_Processing.c ****         {
 402              		.loc 1 871 0
 403 001a 2307     		lsl	r3, r4, #28
 404 001c 05D5     		bpl	.L21
 873:Generated_Source\PSoC4/CapSense_Processing.c ****         }
 405              		.loc 1 873 0
 406 001e 019B     		ldr	r3, [sp, #4]
 407 0020 1888     		ldrh	r0, [r3]
 408 0022 318A     		ldrh	r1, [r6, #16]
 409 0024 2A1C     		mov	r2, r5
 410              	.LVL64:
 411 0026 FFF7FEFF 		bl	SmartSense_RunNoiseEnvelope
 412              	.LVL65:
 413              	.L21:
 876:Generated_Source\PSoC4/CapSense_Processing.c ****         {            
 414              		.loc 1 876 0
 415 002a E306     		lsl	r3, r4, #27
 416 002c 04D5     		bpl	.L22
 878:Generated_Source\PSoC4/CapSense_Processing.c ****             
 417              		.loc 1 878 0
 418 002e 301C     		mov	r0, r6
 419 0030 291C     		mov	r1, r5
 420 0032 0022     		mov	r2, #0
 421              	.LVL66:
 422 0034 FFF7FEFF 		bl	CapSense_DpUpdateThresholds
 423              	.LVL67:
 424              	.L22:
 896:Generated_Source\PSoC4/CapSense_Processing.c ****     {
 425              		.loc 1 896 0
 426 0038 A307     		lsl	r3, r4, #30
 427 003a 06D5     		bpl	.L25
 898:Generated_Source\PSoC4/CapSense_Processing.c ****     }
 428              		.loc 1 898 0
 429 003c 301C     		mov	r0, r6
 430 003e 0199     		ldr	r1, [sp, #4]
 431 0040 3A1C     		mov	r2, r7
 432              	.LVL68:
 433 0042 FFF7FEFF 		bl	CapSense_FtUpdateBaseline
 434              	.LVL69:
 435 0046 071C     		mov	r7, r0
 436              	.LVL70:
 437 0048 00E0     		b	.L23
 438              	.LVL71:
 439              	.L25:
 844:Generated_Source\PSoC4/CapSense_Processing.c ****     uint32  widgetType;
 440              		.loc 1 844 0
 441 004a 0027     		mov	r7, #0
 442              	.LVL72:
 443              	.L23:
 901:Generated_Source\PSoC4/CapSense_Processing.c ****     {
 444              		.loc 1 901 0
 445 004c 6307     		lsl	r3, r4, #29
 446 004e 03D5     		bpl	.L24
 903:Generated_Source\PSoC4/CapSense_Processing.c ****     }
ARM GAS  C:\Users\MM1005~1\AppData\Local\Temp\ccNDvdtn.s 			page 29


 447              		.loc 1 903 0
 448 0050 301C     		mov	r0, r6
 449 0052 0199     		ldr	r1, [sp, #4]
 450 0054 FFF7FEFF 		bl	CapSense_DpUpdateDifferences
 451              	.LVL73:
 452              	.L24:
 906:Generated_Source\PSoC4/CapSense_Processing.c **** 
 453              		.loc 1 906 0
 454 0058 381C     		mov	r0, r7
 455 005a 03B0     		add	sp, sp, #12
 456              		@ sp needed
 457              	.LVL74:
 458              	.LVL75:
 459              	.LVL76:
 460              	.LVL77:
 461 005c F0BD     		pop	{r4, r5, r6, r7, pc}
 462              		.cfi_endproc
 463              	.LFE3:
 464              		.size	CapSense_DpProcessCsdSensorRawCountsExt, .-CapSense_DpProcessCsdSensorRawCountsExt
 465 005e C046     		.section	.text.CapSense_DpProcessButton,"ax",%progbits
 466              		.align	2
 467              		.global	CapSense_DpProcessButton
 468              		.code	16
 469              		.thumb_func
 470              		.type	CapSense_DpProcessButton, %function
 471              	CapSense_DpProcessButton:
 472              	.LFB7:
1108:Generated_Source\PSoC4/CapSense_Processing.c **** 
1109:Generated_Source\PSoC4/CapSense_Processing.c **** 
1110:Generated_Source\PSoC4/CapSense_Processing.c **** #if ((0u != CapSense_BUTTON_WIDGET_EN) || (0u != CapSense_CSX_MATRIX_WIDGET_EN))
1111:Generated_Source\PSoC4/CapSense_Processing.c **** /*******************************************************************************
1112:Generated_Source\PSoC4/CapSense_Processing.c **** * Function Name: CapSense_DpProcessButton
1113:Generated_Source\PSoC4/CapSense_Processing.c **** ****************************************************************************//**
1114:Generated_Source\PSoC4/CapSense_Processing.c **** *
1115:Generated_Source\PSoC4/CapSense_Processing.c **** * \brief
1116:Generated_Source\PSoC4/CapSense_Processing.c **** *   Processes the status of the Button widget.
1117:Generated_Source\PSoC4/CapSense_Processing.c **** *
1118:Generated_Source\PSoC4/CapSense_Processing.c **** * \details
1119:Generated_Source\PSoC4/CapSense_Processing.c **** *   This API processes the status of the CSD/CSX Button widget and
1120:Generated_Source\PSoC4/CapSense_Processing.c **** *   CSX Matrix Button widget. It applies the hysteresis and de-bounce algorithm
1121:Generated_Source\PSoC4/CapSense_Processing.c **** *   to each sensor difference value. This API is expected to be called
1122:Generated_Source\PSoC4/CapSense_Processing.c **** *   after each new widget scan. If it is called multiple times for the same
1123:Generated_Source\PSoC4/CapSense_Processing.c **** *   scan data, the de-bounce algorithm will not work properly.
1124:Generated_Source\PSoC4/CapSense_Processing.c **** *
1125:Generated_Source\PSoC4/CapSense_Processing.c **** *   This API does not update any Data Structure registers
1126:Generated_Source\PSoC4/CapSense_Processing.c **** *   except the de-bounce counters.
1127:Generated_Source\PSoC4/CapSense_Processing.c **** *
1128:Generated_Source\PSoC4/CapSense_Processing.c **** * \param currStatus   The current status of the widget sensors.
1129:Generated_Source\PSoC4/CapSense_Processing.c **** * \param ptrFlashWdgt The pointer to the Flash Widget Object.
1130:Generated_Source\PSoC4/CapSense_Processing.c **** *
1131:Generated_Source\PSoC4/CapSense_Processing.c **** * \return Returns the status of the widget's sensors. Bit #0 - corresponds to Sensor #0.
1132:Generated_Source\PSoC4/CapSense_Processing.c **** *
1133:Generated_Source\PSoC4/CapSense_Processing.c **** *******************************************************************************/
1134:Generated_Source\PSoC4/CapSense_Processing.c **** uint32 CapSense_DpProcessButton(uint32 currStatus, CapSense_FLASH_WD_STRUCT const *ptrFlashWdgt)
1135:Generated_Source\PSoC4/CapSense_Processing.c **** {
 473              		.loc 1 1135 0
 474              		.cfi_startproc
ARM GAS  C:\Users\MM1005~1\AppData\Local\Temp\ccNDvdtn.s 			page 30


 475              	.LVL78:
 476 0000 F0B5     		push	{r4, r5, r6, r7, lr}
 477              		.cfi_def_cfa_offset 20
 478              		.cfi_offset 4, -20
 479              		.cfi_offset 5, -16
 480              		.cfi_offset 6, -12
 481              		.cfi_offset 7, -8
 482              		.cfi_offset 14, -4
1136:Generated_Source\PSoC4/CapSense_Processing.c ****     uint32 snsCnt;
1137:Generated_Source\PSoC4/CapSense_Processing.c ****     uint32 snsMask;
1138:Generated_Source\PSoC4/CapSense_Processing.c ****     uint32 newStatus;
1139:Generated_Source\PSoC4/CapSense_Processing.c ****     uint32 touchTh;
1140:Generated_Source\PSoC4/CapSense_Processing.c ****     CapSense_RAM_SNS_STRUCT *ptrSns;
1141:Generated_Source\PSoC4/CapSense_Processing.c ****     CapSense_RAM_WD_BASE_STRUCT *ptrRamWdgt;
1142:Generated_Source\PSoC4/CapSense_Processing.c ****     uint8 * ptrDebounceCnt;
1143:Generated_Source\PSoC4/CapSense_Processing.c **** 
1144:Generated_Source\PSoC4/CapSense_Processing.c ****     snsCnt = ptrFlashWdgt->totalNumSns;
 483              		.loc 1 1144 0
 484 0002 CA8A     		ldrh	r2, [r1, #22]
 485              	.LVL79:
1145:Generated_Source\PSoC4/CapSense_Processing.c ****     ptrSns = ptrFlashWdgt->ptr2SnsRam;
 486              		.loc 1 1145 0
 487 0004 8D68     		ldr	r5, [r1, #8]
 488              	.LVL80:
1146:Generated_Source\PSoC4/CapSense_Processing.c ****     ptrRamWdgt = ptrFlashWdgt->ptr2WdgtRam;
 489              		.loc 1 1146 0
 490 0006 4F68     		ldr	r7, [r1, #4]
 491              	.LVL81:
1147:Generated_Source\PSoC4/CapSense_Processing.c ****     ptrDebounceCnt = ptrFlashWdgt->ptr2DebounceArr;
 492              		.loc 1 1147 0
 493 0008 0B69     		ldr	r3, [r1, #16]
 494              	.LVL82:
1148:Generated_Source\PSoC4/CapSense_Processing.c **** 
1149:Generated_Source\PSoC4/CapSense_Processing.c ****     /* Go through all widget's sensors */
1150:Generated_Source\PSoC4/CapSense_Processing.c ****     snsMask = 1Lu;
 495              		.loc 1 1150 0
 496 000a 0121     		mov	r1, #1
 497              	.LVL83:
1151:Generated_Source\PSoC4/CapSense_Processing.c ****     for (; snsCnt-- > 0u; )
 498              		.loc 1 1151 0
 499 000c 25E0     		b	.L27
 500              	.LVL84:
 501              	.L35:
1152:Generated_Source\PSoC4/CapSense_Processing.c ****     {
1153:Generated_Source\PSoC4/CapSense_Processing.c ****         /* Calculate touch threshold taking into account hysteresis
1154:Generated_Source\PSoC4/CapSense_Processing.c ****            and current sensor state. */
1155:Generated_Source\PSoC4/CapSense_Processing.c ****         touchTh = (0u == (currStatus & snsMask)) ?
 502              		.loc 1 1155 0
 503 000e 0C1C     		mov	r4, r1
 504              	.LVL85:
 505 0010 0440     		and	r4, r0
1156:Generated_Source\PSoC4/CapSense_Processing.c ****                   ((uint32)ptrRamWdgt->fingerTh + ptrRamWdgt->hysteresis) :
 506              		.loc 1 1156 0
 507 0012 03D1     		bne	.L28
 508              		.loc 1 1156 0 is_stmt 0 discriminator 1
 509 0014 7E88     		ldrh	r6, [r7, #2]
 510 0016 BA79     		ldrb	r2, [r7, #6]
ARM GAS  C:\Users\MM1005~1\AppData\Local\Temp\ccNDvdtn.s 			page 31


 511 0018 B218     		add	r2, r6, r2
 512 001a 02E0     		b	.L29
 513              	.L28:
1157:Generated_Source\PSoC4/CapSense_Processing.c ****                   ((uint32)ptrRamWdgt->fingerTh - ptrRamWdgt->hysteresis);
 514              		.loc 1 1157 0 is_stmt 1 discriminator 2
 515 001c 7A88     		ldrh	r2, [r7, #2]
 516 001e BE79     		ldrb	r6, [r7, #6]
1156:Generated_Source\PSoC4/CapSense_Processing.c ****                   ((uint32)ptrRamWdgt->fingerTh + ptrRamWdgt->hysteresis) :
 517              		.loc 1 1156 0 discriminator 2
 518 0020 921B     		sub	r2, r2, r6
 519              	.L29:
 520              	.LVL86:
1158:Generated_Source\PSoC4/CapSense_Processing.c **** 
1159:Generated_Source\PSoC4/CapSense_Processing.c ****         /* Determine new potential sensor state */
1160:Generated_Source\PSoC4/CapSense_Processing.c ****         newStatus = (ptrSns->diff > touchTh) ? snsMask : 0u;
 521              		.loc 1 1160 0
 522 0022 EE88     		ldrh	r6, [r5, #6]
 523 0024 B242     		cmp	r2, r6
 524 0026 01D3     		bcc	.L36
 525 0028 0022     		mov	r2, #0
 526              	.LVL87:
 527 002a 00E0     		b	.L30
 528              	.LVL88:
 529              	.L36:
 530 002c 0A1C     		mov	r2, r1
 531              	.LVL89:
 532              	.L30:
1161:Generated_Source\PSoC4/CapSense_Processing.c **** 
1162:Generated_Source\PSoC4/CapSense_Processing.c ****         /* Sensor state changed ? */
1163:Generated_Source\PSoC4/CapSense_Processing.c ****         if (newStatus != (currStatus & snsMask))
 533              		.loc 1 1163 0 discriminator 4
 534 002e A242     		cmp	r2, r4
 535 0030 02D0     		beq	.L31
1164:Generated_Source\PSoC4/CapSense_Processing.c ****         {
1165:Generated_Source\PSoC4/CapSense_Processing.c ****             /* Decrement de-bounce counter */
1166:Generated_Source\PSoC4/CapSense_Processing.c ****             (*ptrDebounceCnt)--;
 536              		.loc 1 1166 0
 537 0032 1E78     		ldrb	r6, [r3]
 538 0034 013E     		sub	r6, r6, #1
 539 0036 1E70     		strb	r6, [r3]
 540              	.L31:
1167:Generated_Source\PSoC4/CapSense_Processing.c ****         }
1168:Generated_Source\PSoC4/CapSense_Processing.c **** 
1169:Generated_Source\PSoC4/CapSense_Processing.c ****         /* This piece of code has two objectives:
1170:Generated_Source\PSoC4/CapSense_Processing.c ****            1. Reset de-bounce counter if the sensor state did not change.
1171:Generated_Source\PSoC4/CapSense_Processing.c ****               (It is possible that during previous processing cycles sensor
1172:Generated_Source\PSoC4/CapSense_Processing.c ****                was active and de-bounce counter was decremented.)
1173:Generated_Source\PSoC4/CapSense_Processing.c ****            2. Set new sensor state after successful de-bounce.
1174:Generated_Source\PSoC4/CapSense_Processing.c ****          */
1175:Generated_Source\PSoC4/CapSense_Processing.c ****         if ((newStatus == (currStatus & snsMask)) || (0u == (*ptrDebounceCnt)))
 541              		.loc 1 1175 0
 542 0038 A242     		cmp	r2, r4
 543 003a 02D0     		beq	.L32
 544              		.loc 1 1175 0 is_stmt 0 discriminator 1
 545 003c 1C78     		ldrb	r4, [r3]
 546 003e 002C     		cmp	r4, #0
 547 0040 07D1     		bne	.L33
ARM GAS  C:\Users\MM1005~1\AppData\Local\Temp\ccNDvdtn.s 			page 32


 548              	.L32:
1176:Generated_Source\PSoC4/CapSense_Processing.c ****         {
1177:Generated_Source\PSoC4/CapSense_Processing.c ****             /* Set new sensor status */
1178:Generated_Source\PSoC4/CapSense_Processing.c ****             currStatus &= ~snsMask;
 549              		.loc 1 1178 0 is_stmt 1
 550 0042 8843     		bic	r0, r1
 551              	.LVL90:
1179:Generated_Source\PSoC4/CapSense_Processing.c ****             currStatus |= newStatus;
 552              		.loc 1 1179 0
 553 0044 1043     		orr	r0, r2
 554              	.LVL91:
1180:Generated_Source\PSoC4/CapSense_Processing.c **** 
1181:Generated_Source\PSoC4/CapSense_Processing.c ****             /* Reset de-bounce counter */
1182:Generated_Source\PSoC4/CapSense_Processing.c ****             #if (0u != CapSense_OFF_DEBOUNCE_EN)
1183:Generated_Source\PSoC4/CapSense_Processing.c ****                 *ptrDebounceCnt = (0Lu == newStatus) ? ptrRamWdgt->onDebounce : ptrRamWdgt->offDebo
1184:Generated_Source\PSoC4/CapSense_Processing.c ****             #else
1185:Generated_Source\PSoC4/CapSense_Processing.c ****                 *ptrDebounceCnt = (0Lu == newStatus) ? ptrRamWdgt->onDebounce : DEFAULT_OFF_DEBOUNC
 555              		.loc 1 1185 0
 556 0046 002A     		cmp	r2, #0
 557 0048 01D1     		bne	.L37
 558              		.loc 1 1185 0 is_stmt 0 discriminator 1
 559 004a FA79     		ldrb	r2, [r7, #7]
 560              	.LVL92:
 561 004c 00E0     		b	.L34
 562              	.LVL93:
 563              	.L37:
 564              		.loc 1 1185 0
 565 004e 0122     		mov	r2, #1
 566              	.LVL94:
 567              	.L34:
 568              		.loc 1 1185 0 discriminator 4
 569 0050 1A70     		strb	r2, [r3]
 570              	.L33:
1186:Generated_Source\PSoC4/CapSense_Processing.c ****             #endif /* #if (0u != CapSense_OFF_DEBOUNCE_EN) */
1187:Generated_Source\PSoC4/CapSense_Processing.c ****         }
1188:Generated_Source\PSoC4/CapSense_Processing.c ****         
1189:Generated_Source\PSoC4/CapSense_Processing.c ****         /* Move mask to the next sensor */
1190:Generated_Source\PSoC4/CapSense_Processing.c ****         snsMask <<= 1u;
 571              		.loc 1 1190 0 is_stmt 1
 572 0052 4900     		lsl	r1, r1, #1
 573              	.LVL95:
1191:Generated_Source\PSoC4/CapSense_Processing.c ****         
1192:Generated_Source\PSoC4/CapSense_Processing.c ****         ptrSns++;
 574              		.loc 1 1192 0
 575 0054 0A35     		add	r5, r5, #10
 576              	.LVL96:
1193:Generated_Source\PSoC4/CapSense_Processing.c ****         ptrDebounceCnt++;
 577              		.loc 1 1193 0
 578 0056 0133     		add	r3, r3, #1
 579              	.LVL97:
1151:Generated_Source\PSoC4/CapSense_Processing.c ****     {
 580              		.loc 1 1151 0
 581 0058 6246     		mov	r2, ip
 582              	.LVL98:
 583              	.L27:
 584 005a 541E     		sub	r4, r2, #1
 585 005c A446     		mov	ip, r4
ARM GAS  C:\Users\MM1005~1\AppData\Local\Temp\ccNDvdtn.s 			page 33


 586              	.LVL99:
 587 005e 002A     		cmp	r2, #0
 588 0060 D5D1     		bne	.L35
1194:Generated_Source\PSoC4/CapSense_Processing.c ****     }
1195:Generated_Source\PSoC4/CapSense_Processing.c **** 
1196:Generated_Source\PSoC4/CapSense_Processing.c ****     return currStatus;
1197:Generated_Source\PSoC4/CapSense_Processing.c **** }
 589              		.loc 1 1197 0
 590              		@ sp needed
 591              	.LVL100:
 592              	.LVL101:
 593              	.LVL102:
 594 0062 F0BD     		pop	{r4, r5, r6, r7, pc}
 595              		.cfi_endproc
 596              	.LFE7:
 597              		.size	CapSense_DpProcessButton, .-CapSense_DpProcessButton
 598              		.section	.text.CapSense_DpProcessCsdWidgetStatus,"ax",%progbits
 599              		.align	2
 600              		.global	CapSense_DpProcessCsdWidgetStatus
 601              		.code	16
 602              		.thumb_func
 603              		.type	CapSense_DpProcessCsdWidgetStatus, %function
 604              	CapSense_DpProcessCsdWidgetStatus:
 605              	.LFB4:
 936:Generated_Source\PSoC4/CapSense_Processing.c ****     uint32 sensorStatus;
 606              		.loc 1 936 0
 607              		.cfi_startproc
 608              	.LVL103:
 609 0000 38B5     		push	{r3, r4, r5, lr}
 610              		.cfi_def_cfa_offset 16
 611              		.cfi_offset 3, -16
 612              		.cfi_offset 4, -12
 613              		.cfi_offset 5, -8
 614              		.cfi_offset 14, -4
 615 0002 041C     		mov	r4, r0
 942:Generated_Source\PSoC4/CapSense_Processing.c ****     sensorStatus = CapSense_dsRam.snsStatus[wdgtId];
 616              		.loc 1 942 0
 617 0004 0A7E     		ldrb	r2, [r1, #24]
 618              	.LVL104:
 943:Generated_Source\PSoC4/CapSense_Processing.c **** 
 619              		.loc 1 943 0
 620 0006 134B     		ldr	r3, .L45
 621 0008 1B18     		add	r3, r3, r0
 622 000a 1D7D     		ldrb	r5, [r3, #20]
 623              	.LVL105:
 945:Generated_Source\PSoC4/CapSense_Processing.c ****     {
 624              		.loc 1 945 0
 625 000c 012A     		cmp	r2, #1
 626 000e 04D1     		bne	.L44
 949:Generated_Source\PSoC4/CapSense_Processing.c ****             break;
 627              		.loc 1 949 0
 628 0010 281C     		mov	r0, r5
 629              	.LVL106:
 630 0012 FFF7FEFF 		bl	CapSense_DpProcessButton
 631              	.LVL107:
 632 0016 051C     		mov	r5, r0
 633              	.LVL108:
ARM GAS  C:\Users\MM1005~1\AppData\Local\Temp\ccNDvdtn.s 			page 34


 950:Generated_Source\PSoC4/CapSense_Processing.c ****     #endif /* #if (0u != CapSense_BUTTON_WIDGET_EN) */
 634              		.loc 1 950 0
 635 0018 02E0     		b	.L41
 636              	.LVL109:
 637              	.L44:
 979:Generated_Source\PSoC4/CapSense_Processing.c ****         break;
 638              		.loc 1 979 0 discriminator 1
 639 001a 0020     		mov	r0, #0
 640              	.LVL110:
 641 001c FFF7FEFF 		bl	CyHalt
 642              	.LVL111:
 643              	.L41:
 983:Generated_Source\PSoC4/CapSense_Processing.c **** 
 644              		.loc 1 983 0
 645 0020 0C4B     		ldr	r3, .L45
 646 0022 1B19     		add	r3, r3, r4
 647 0024 1D75     		strb	r5, [r3, #20]
 986:Generated_Source\PSoC4/CapSense_Processing.c ****     wdStatusMask = CapSense_GET_WDGT_STATUS_MASK(wdgtId);
 648              		.loc 1 986 0
 649 0026 6309     		lsr	r3, r4, #5
 650              	.LVL112:
 987:Generated_Source\PSoC4/CapSense_Processing.c **** 
 651              		.loc 1 987 0
 652 0028 1F22     		mov	r2, #31
 653 002a 1440     		and	r4, r2
 654              	.LVL113:
 655 002c 1E3A     		sub	r2, r2, #30
 656 002e A240     		lsl	r2, r2, r4
 657 0030 141C     		mov	r4, r2
 658              	.LVL114:
 990:Generated_Source\PSoC4/CapSense_Processing.c ****     {
 659              		.loc 1 990 0
 660 0032 002D     		cmp	r5, #0
 661 0034 06D1     		bne	.L42
 992:Generated_Source\PSoC4/CapSense_Processing.c ****     }
 662              		.loc 1 992 0
 663 0036 0749     		ldr	r1, .L45
 664 0038 0433     		add	r3, r3, #4
 665              	.LVL115:
 666 003a 9B00     		lsl	r3, r3, #2
 667              	.LVL116:
 668 003c 5A58     		ldr	r2, [r3, r1]
 669              	.LVL117:
 670 003e A243     		bic	r2, r4
 671 0040 5A50     		str	r2, [r3, r1]
 672 0042 05E0     		b	.L38
 673              	.LVL118:
 674              	.L42:
 996:Generated_Source\PSoC4/CapSense_Processing.c ****     }
 675              		.loc 1 996 0
 676 0044 034A     		ldr	r2, .L45
 677              	.LVL119:
 678 0046 0433     		add	r3, r3, #4
 679              	.LVL120:
 680 0048 9B00     		lsl	r3, r3, #2
 681              	.LVL121:
 682 004a 9958     		ldr	r1, [r3, r2]
ARM GAS  C:\Users\MM1005~1\AppData\Local\Temp\ccNDvdtn.s 			page 35


 683 004c 0C43     		orr	r4, r1
 684              	.LVL122:
 685 004e 9C50     		str	r4, [r3, r2]
 686              	.L38:
 998:Generated_Source\PSoC4/CapSense_Processing.c **** #endif /* #if (0u != CapSense_TOTAL_CSD_WIDGETS) */
 687              		.loc 1 998 0
 688              		@ sp needed
 689              	.LVL123:
 690 0050 38BD     		pop	{r3, r4, r5, pc}
 691              	.L46:
 692 0052 C046     		.align	2
 693              	.L45:
 694 0054 00000000 		.word	CapSense_dsRam
 695              		.cfi_endproc
 696              	.LFE4:
 697              		.size	CapSense_DpProcessCsdWidgetStatus, .-CapSense_DpProcessCsdWidgetStatus
 698              		.text
 699              	.Letext0:
 700              		.file 2 "Generated_Source\\PSoC4\\cytypes.h"
 701              		.file 3 "Generated_Source\\PSoC4\\CapSense_Configuration.h"
 702              		.file 4 "Generated_Source\\PSoC4\\CapSense_SmartSense_LL.h"
 703              		.file 5 "Generated_Source\\PSoC4\\CapSense_Structure.h"
 704              		.file 6 "c:\\program files (x86)\\cypress\\psoc creator\\4.0\\psoc creator\\import\\gnu\\arm\\4.9.
 705              		.file 7 "Generated_Source\\PSoC4\\CapSense_Filter.h"
 706              		.file 8 "c:\\program files (x86)\\cypress\\psoc creator\\4.0\\psoc creator\\import\\gnu\\arm\\4.9.
 707              		.file 9 "Generated_Source\\PSoC4\\CyLib.h"