ARM GAS  C:\Users\MM1005~1\AppData\Local\Temp\cc36bet7.s 			page 1


   1              		.cpu cortex-m0plus
   2              		.fpu softvfp
   3              		.eabi_attribute 20, 1
   4              		.eabi_attribute 21, 1
   5              		.eabi_attribute 23, 3
   6              		.eabi_attribute 24, 1
   7              		.eabi_attribute 25, 1
   8              		.eabi_attribute 26, 1
   9              		.eabi_attribute 30, 1
  10              		.eabi_attribute 34, 0
  11              		.eabi_attribute 18, 4
  12              		.code	16
  13              		.file	"command_telemetry.c"
  14              		.text
  15              	.Ltext0:
  16              		.cfi_sections	.debug_frame
  17              		.section	.text.get_cmd_id_from_cmd_string,"ax",%progbits
  18              		.align	2
  19              		.global	get_cmd_id_from_cmd_string
  20              		.code	16
  21              		.thumb_func
  22              		.type	get_cmd_id_from_cmd_string, %function
  23              	get_cmd_id_from_cmd_string:
  24              	.LFB35:
  25              		.file 1 "..\\Slider.cydsn\\command_telemetry.c"
   1:..\Slider.cydsn/command_telemetry.c **** /* ========================================
   2:..\Slider.cydsn/command_telemetry.c ****  *
   3:..\Slider.cydsn/command_telemetry.c ****  * Copyright YOUR COMPANY, THE YEAR
   4:..\Slider.cydsn/command_telemetry.c ****  * All Rights Reserved
   5:..\Slider.cydsn/command_telemetry.c ****  * UNPUBLISHED, LICENSED SOFTWARE.
   6:..\Slider.cydsn/command_telemetry.c ****  *
   7:..\Slider.cydsn/command_telemetry.c ****  * CONFIDENTIAL AND PROPRIETARY INFORMATION
   8:..\Slider.cydsn/command_telemetry.c ****  * WHICH IS THE PROPERTY OF your company.
   9:..\Slider.cydsn/command_telemetry.c ****  *
  10:..\Slider.cydsn/command_telemetry.c ****  * ========================================
  11:..\Slider.cydsn/command_telemetry.c **** */
  12:..\Slider.cydsn/command_telemetry.c **** #include "command_telemetry.h"
  13:..\Slider.cydsn/command_telemetry.c **** #include "comms.h"
  14:..\Slider.cydsn/command_telemetry.c **** 
  15:..\Slider.cydsn/command_telemetry.c **** //=============================================================================
  16:..\Slider.cydsn/command_telemetry.c **** //============================================================ static variables
  17:..\Slider.cydsn/command_telemetry.c **** //=============================================================================
  18:..\Slider.cydsn/command_telemetry.c **** static t_struct_command vec_boot_commands[CMD_BOOT_UNKNOWN]           = {{CMD_BOOT_START         , 
  19:..\Slider.cydsn/command_telemetry.c ****                                                                          {CMD_BOOT_EXIT          , 
  20:..\Slider.cydsn/command_telemetry.c ****                                                                          {CMD_BOOT_GET_FLASH_GEO , 
  21:..\Slider.cydsn/command_telemetry.c **** static t_struct_command vec_anim_commands[CMD_ANIM_UNKNOWN]           = {{CMD_ANIM_AUTO          , 
  22:..\Slider.cydsn/command_telemetry.c ****                                                                          {CMD_ANIM_MANUAL        , 
  23:..\Slider.cydsn/command_telemetry.c ****                                                                          {CMD_ANIM_STOP          , 
  24:..\Slider.cydsn/command_telemetry.c ****                                                                          {CMD_ANIM_RESUME        , 
  25:..\Slider.cydsn/command_telemetry.c **** static t_struct_command vec_sensor_commands[CMD_SENSOR_UNKNOWN]       = {{CMD_SENSOR_DISABLE     , 
  26:..\Slider.cydsn/command_telemetry.c ****                                                                          {CMD_SENSOR_ENABLE      , 
  27:..\Slider.cydsn/command_telemetry.c **** static t_struct_command vec_telemetry_commands[CMD_TELEMETRY_UNKNOWN] = {{CMD_TELEMETRY_DISABLE  , 
  28:..\Slider.cydsn/command_telemetry.c ****                                                                          {CMD_TELEMETRY_ENABLE   , 
  29:..\Slider.cydsn/command_telemetry.c **** static t_struct_command vec_tracker_commands[CMD_TRACKER_UNKNOWN]     = {{CMD_TRACKER_DISABLE    , 
  30:..\Slider.cydsn/command_telemetry.c ****                                                                          {CMD_TRACKER_ENABLE     , 
  31:..\Slider.cydsn/command_telemetry.c ****                                                                          {CMD_TRACKER_SET_BUTTON , 
  32:..\Slider.cydsn/command_telemetry.c **** static t_struct_command vec_led_commands[CMD_LED_UNKNOWN]             = {{CMD_LED_CLEAR          , 
ARM GAS  C:\Users\MM1005~1\AppData\Local\Temp\cc36bet7.s 			page 2


  33:..\Slider.cydsn/command_telemetry.c ****                                                                          {CMD_LED_SET_COLOR_LEFT , 
  34:..\Slider.cydsn/command_telemetry.c ****                                                                          {CMD_LED_SET_COLOR_RIGHT, 
  35:..\Slider.cydsn/command_telemetry.c ****                                                                          {CMD_LED_SET_WHITE      , 
  36:..\Slider.cydsn/command_telemetry.c ****                                                                          {CMD_LED_SET_STRIP      , 
  37:..\Slider.cydsn/command_telemetry.c **** static t_struct_command vec_commands[CMD_UNKNOWN]                     = {{CMD_ANIMATION          , 
  38:..\Slider.cydsn/command_telemetry.c ****                                                                          {CMD_BOOTLOADER         , 
  39:..\Slider.cydsn/command_telemetry.c ****                                                                          {CMD_CAPSENSE           , 
  40:..\Slider.cydsn/command_telemetry.c ****                                                                          {CMD_HELP               , 
  41:..\Slider.cydsn/command_telemetry.c ****                                                                          {CMD_LED                , 
  42:..\Slider.cydsn/command_telemetry.c ****                                                                          {CMD_SENSOR             , 
  43:..\Slider.cydsn/command_telemetry.c ****                                                                          {CMD_TELEMETRY          , 
  44:..\Slider.cydsn/command_telemetry.c ****                                                                          {CMD_TRACKER            , 
  45:..\Slider.cydsn/command_telemetry.c ****                                                                          {CMD_VERSION            , 
  46:..\Slider.cydsn/command_telemetry.c **** 
  47:..\Slider.cydsn/command_telemetry.c **** static BOOL is_telemetry_enable        = FALSE; // enable/disable the telemetry
  48:..\Slider.cydsn/command_telemetry.c **** static BOOL is_sensor_telemetry_enable = FALSE; // when enable: send the sensors status on each cap
  49:..\Slider.cydsn/command_telemetry.c **** static char telemetry[512];
  50:..\Slider.cydsn/command_telemetry.c **** 
  51:..\Slider.cydsn/command_telemetry.c **** //=============================================================================
  52:..\Slider.cydsn/command_telemetry.c **** //========================================================= function prototypes
  53:..\Slider.cydsn/command_telemetry.c **** //=============================================================================
  54:..\Slider.cydsn/command_telemetry.c **** t_enum_command            get_cmd_id_from_cmd_string          (const char* command_str);
  55:..\Slider.cydsn/command_telemetry.c **** t_enum_anim_command       get_anim_cmd_id_from_cmd_string     (const char* cmd_str);
  56:..\Slider.cydsn/command_telemetry.c **** t_enum_animation          get_anim_id_from_cmd_string         (const char* cmd_str);
  57:..\Slider.cydsn/command_telemetry.c **** t_enum_sensor_command     get_sensor_cmd_id_from_cmd_string   (const char* cmd_str);
  58:..\Slider.cydsn/command_telemetry.c **** t_enum_telemetry_command  get_telemetry_cmd_id_from_cmd_string(const char* cmd_str);
  59:..\Slider.cydsn/command_telemetry.c **** t_enum_tracker_command    get_tracker_cmd_id_from_cmd_string  (const char* cmd_str);
  60:..\Slider.cydsn/command_telemetry.c **** t_enum_led_command        get_led_cmd_id_from_cmd_string      (const char* cmd_str);
  61:..\Slider.cydsn/command_telemetry.c **** t_enum_bootloader_command get_boot_cmd_id_from_cmd_string     (const char* cmd_str);
  62:..\Slider.cydsn/command_telemetry.c **** 
  63:..\Slider.cydsn/command_telemetry.c **** //=============================================================================
  64:..\Slider.cydsn/command_telemetry.c **** //================================================== get_cmd_id_from_cmd_string
  65:..\Slider.cydsn/command_telemetry.c **** //=============================================================================
  66:..\Slider.cydsn/command_telemetry.c **** t_enum_command get_cmd_id_from_cmd_string(const char* cmd_str)
  67:..\Slider.cydsn/command_telemetry.c **** {
  26              		.loc 1 67 0
  27              		.cfi_startproc
  28              	.LVL0:
  29 0000 38B5     		push	{r3, r4, r5, lr}
  30              		.cfi_def_cfa_offset 16
  31              		.cfi_offset 3, -16
  32              		.cfi_offset 4, -12
  33              		.cfi_offset 5, -8
  34              		.cfi_offset 14, -4
  35 0002 041C     		mov	r4, r0
  36              	.LVL1:
  68:..\Slider.cydsn/command_telemetry.c ****     int i;
  69:..\Slider.cydsn/command_telemetry.c ****     
  70:..\Slider.cydsn/command_telemetry.c ****     for (i = 0; i < CMD_UNKNOWN; i++)
  37              		.loc 1 70 0
  38 0004 0025     		mov	r5, #0
  39 0006 11E0     		b	.L2
  40              	.LVL2:
  41              	.L5:
  71:..\Slider.cydsn/command_telemetry.c ****     {
  72:..\Slider.cydsn/command_telemetry.c ****         if (strstr(cmd_str, vec_commands[i].name))
  42              		.loc 1 72 0
ARM GAS  C:\Users\MM1005~1\AppData\Local\Temp\cc36bet7.s 			page 3


  43 0008 6B00     		lsl	r3, r5, #1
  44 000a 5B19     		add	r3, r3, r5
  45 000c 9B00     		lsl	r3, r3, #2
  46 000e 094A     		ldr	r2, .L6
  47 0010 D318     		add	r3, r2, r3
  48 0012 5968     		ldr	r1, [r3, #4]
  49 0014 201C     		mov	r0, r4
  50 0016 FFF7FEFF 		bl	strstr
  51              	.LVL3:
  52 001a 0028     		cmp	r0, #0
  53 001c 05D0     		beq	.L3
  73:..\Slider.cydsn/command_telemetry.c ****         {
  74:..\Slider.cydsn/command_telemetry.c ****             return vec_commands[i].id;
  54              		.loc 1 74 0
  55 001e 6B00     		lsl	r3, r5, #1
  56 0020 5D19     		add	r5, r3, r5
  57              	.LVL4:
  58 0022 AD00     		lsl	r5, r5, #2
  59 0024 034B     		ldr	r3, .L6
  60 0026 585D     		ldrb	r0, [r3, r5]
  61 0028 03E0     		b	.L4
  62              	.LVL5:
  63              	.L3:
  70:..\Slider.cydsn/command_telemetry.c ****     {
  64              		.loc 1 70 0 discriminator 2
  65 002a 0135     		add	r5, r5, #1
  66              	.LVL6:
  67              	.L2:
  70:..\Slider.cydsn/command_telemetry.c ****     {
  68              		.loc 1 70 0 is_stmt 0 discriminator 1
  69 002c 082D     		cmp	r5, #8
  70 002e EBDD     		ble	.L5
  75:..\Slider.cydsn/command_telemetry.c ****         }
  76:..\Slider.cydsn/command_telemetry.c ****     }// for all the commands
  77:..\Slider.cydsn/command_telemetry.c ****     
  78:..\Slider.cydsn/command_telemetry.c ****     return CMD_UNKNOWN;
  71              		.loc 1 78 0 is_stmt 1
  72 0030 0920     		mov	r0, #9
  73              	.LVL7:
  74              	.L4:
  79:..\Slider.cydsn/command_telemetry.c **** }// get_cmd_id_from_cmd_string
  75              		.loc 1 79 0
  76              		@ sp needed
  77              	.LVL8:
  78 0032 38BD     		pop	{r3, r4, r5, pc}
  79              	.L7:
  80              		.align	2
  81              	.L6:
  82 0034 38000000 		.word	.LANCHOR0
  83              		.cfi_endproc
  84              	.LFE35:
  85              		.size	get_cmd_id_from_cmd_string, .-get_cmd_id_from_cmd_string
  86              		.section	.text.get_sensor_cmd_id_from_cmd_string,"ax",%progbits
  87              		.align	2
  88              		.global	get_sensor_cmd_id_from_cmd_string
  89              		.code	16
  90              		.thumb_func
ARM GAS  C:\Users\MM1005~1\AppData\Local\Temp\cc36bet7.s 			page 4


  91              		.type	get_sensor_cmd_id_from_cmd_string, %function
  92              	get_sensor_cmd_id_from_cmd_string:
  93              	.LFB36:
  80:..\Slider.cydsn/command_telemetry.c **** 
  81:..\Slider.cydsn/command_telemetry.c **** //=============================================================================
  82:..\Slider.cydsn/command_telemetry.c **** //=========================================== get_sensor_cmd_id_from_cmd_string
  83:..\Slider.cydsn/command_telemetry.c **** //=============================================================================
  84:..\Slider.cydsn/command_telemetry.c **** t_enum_sensor_command get_sensor_cmd_id_from_cmd_string (const char* cmd_str)
  85:..\Slider.cydsn/command_telemetry.c **** {
  94              		.loc 1 85 0
  95              		.cfi_startproc
  96              	.LVL9:
  97 0000 38B5     		push	{r3, r4, r5, lr}
  98              		.cfi_def_cfa_offset 16
  99              		.cfi_offset 3, -16
 100              		.cfi_offset 4, -12
 101              		.cfi_offset 5, -8
 102              		.cfi_offset 14, -4
 103 0002 041C     		mov	r4, r0
 104              	.LVL10:
  86:..\Slider.cydsn/command_telemetry.c ****     int i;
  87:..\Slider.cydsn/command_telemetry.c ****     
  88:..\Slider.cydsn/command_telemetry.c ****     for (i = 0; i < CMD_SENSOR_UNKNOWN; i++)
 105              		.loc 1 88 0
 106 0004 0025     		mov	r5, #0
 107 0006 13E0     		b	.L9
 108              	.LVL11:
 109              	.L12:
  89:..\Slider.cydsn/command_telemetry.c ****     {
  90:..\Slider.cydsn/command_telemetry.c ****         if (strstr(cmd_str, vec_sensor_commands[i].name))
 110              		.loc 1 90 0
 111 0008 6B00     		lsl	r3, r5, #1
 112 000a 5B19     		add	r3, r3, r5
 113 000c 9B00     		lsl	r3, r3, #2
 114 000e 0A4A     		ldr	r2, .L13
 115 0010 D318     		add	r3, r2, r3
 116 0012 196F     		ldr	r1, [r3, #112]
 117 0014 201C     		mov	r0, r4
 118 0016 FFF7FEFF 		bl	strstr
 119              	.LVL12:
 120 001a 0028     		cmp	r0, #0
 121 001c 07D0     		beq	.L10
  91:..\Slider.cydsn/command_telemetry.c ****         {
  92:..\Slider.cydsn/command_telemetry.c ****             return vec_sensor_commands[i].id;
 122              		.loc 1 92 0
 123 001e 6B00     		lsl	r3, r5, #1
 124 0020 5D19     		add	r5, r3, r5
 125              	.LVL13:
 126 0022 AD00     		lsl	r5, r5, #2
 127 0024 044B     		ldr	r3, .L13
 128 0026 5D19     		add	r5, r3, r5
 129 0028 6C23     		mov	r3, #108
 130 002a E85C     		ldrb	r0, [r5, r3]
 131 002c 03E0     		b	.L11
 132              	.LVL14:
 133              	.L10:
  88:..\Slider.cydsn/command_telemetry.c ****     {
ARM GAS  C:\Users\MM1005~1\AppData\Local\Temp\cc36bet7.s 			page 5


 134              		.loc 1 88 0 discriminator 2
 135 002e 0135     		add	r5, r5, #1
 136              	.LVL15:
 137              	.L9:
  88:..\Slider.cydsn/command_telemetry.c ****     {
 138              		.loc 1 88 0 is_stmt 0 discriminator 1
 139 0030 012D     		cmp	r5, #1
 140 0032 E9DD     		ble	.L12
  93:..\Slider.cydsn/command_telemetry.c ****         }
  94:..\Slider.cydsn/command_telemetry.c ****     }// for all the commands
  95:..\Slider.cydsn/command_telemetry.c ****     
  96:..\Slider.cydsn/command_telemetry.c ****     return CMD_SENSOR_UNKNOWN;
 141              		.loc 1 96 0 is_stmt 1
 142 0034 0220     		mov	r0, #2
 143              	.LVL16:
 144              	.L11:
  97:..\Slider.cydsn/command_telemetry.c **** }// get_sensor_cmd_id_from_cmd_string
 145              		.loc 1 97 0
 146              		@ sp needed
 147              	.LVL17:
 148 0036 38BD     		pop	{r3, r4, r5, pc}
 149              	.L14:
 150              		.align	2
 151              	.L13:
 152 0038 38000000 		.word	.LANCHOR0
 153              		.cfi_endproc
 154              	.LFE36:
 155              		.size	get_sensor_cmd_id_from_cmd_string, .-get_sensor_cmd_id_from_cmd_string
 156              		.section	.text.get_telemetry_cmd_id_from_cmd_string,"ax",%progbits
 157              		.align	2
 158              		.global	get_telemetry_cmd_id_from_cmd_string
 159              		.code	16
 160              		.thumb_func
 161              		.type	get_telemetry_cmd_id_from_cmd_string, %function
 162              	get_telemetry_cmd_id_from_cmd_string:
 163              	.LFB37:
  98:..\Slider.cydsn/command_telemetry.c **** 
  99:..\Slider.cydsn/command_telemetry.c **** //=============================================================================
 100:..\Slider.cydsn/command_telemetry.c **** //======================================== get_telemetry_cmd_id_from_cmd_string
 101:..\Slider.cydsn/command_telemetry.c **** //=============================================================================
 102:..\Slider.cydsn/command_telemetry.c **** t_enum_telemetry_command get_telemetry_cmd_id_from_cmd_string (const char* cmd_str)
 103:..\Slider.cydsn/command_telemetry.c **** {
 164              		.loc 1 103 0
 165              		.cfi_startproc
 166              	.LVL18:
 167 0000 38B5     		push	{r3, r4, r5, lr}
 168              		.cfi_def_cfa_offset 16
 169              		.cfi_offset 3, -16
 170              		.cfi_offset 4, -12
 171              		.cfi_offset 5, -8
 172              		.cfi_offset 14, -4
 173 0002 041C     		mov	r4, r0
 174              	.LVL19:
 104:..\Slider.cydsn/command_telemetry.c ****     int i;
 105:..\Slider.cydsn/command_telemetry.c ****     
 106:..\Slider.cydsn/command_telemetry.c ****     for (i = 0; i < CMD_TELEMETRY_UNKNOWN; i++)
 175              		.loc 1 106 0
ARM GAS  C:\Users\MM1005~1\AppData\Local\Temp\cc36bet7.s 			page 6


 176 0004 0025     		mov	r5, #0
 177 0006 12E0     		b	.L16
 178              	.LVL20:
 179              	.L19:
 107:..\Slider.cydsn/command_telemetry.c ****     {
 108:..\Slider.cydsn/command_telemetry.c ****         if (strstr(cmd_str, vec_telemetry_commands[i].name))
 180              		.loc 1 108 0
 181 0008 6B00     		lsl	r3, r5, #1
 182 000a 5B19     		add	r3, r3, r5
 183 000c 9B00     		lsl	r3, r3, #2
 184 000e 0A4A     		ldr	r2, .L20
 185 0010 D318     		add	r3, r2, r3
 186 0012 9968     		ldr	r1, [r3, #8]
 187 0014 201C     		mov	r0, r4
 188 0016 FFF7FEFF 		bl	strstr
 189              	.LVL21:
 190 001a 0028     		cmp	r0, #0
 191 001c 06D0     		beq	.L17
 109:..\Slider.cydsn/command_telemetry.c ****         {
 110:..\Slider.cydsn/command_telemetry.c ****             return vec_telemetry_commands[i].id;
 192              		.loc 1 110 0
 193 001e 6B00     		lsl	r3, r5, #1
 194 0020 5D19     		add	r5, r3, r5
 195              	.LVL22:
 196 0022 AD00     		lsl	r5, r5, #2
 197 0024 044B     		ldr	r3, .L20
 198 0026 5D19     		add	r5, r3, r5
 199 0028 2879     		ldrb	r0, [r5, #4]
 200 002a 03E0     		b	.L18
 201              	.LVL23:
 202              	.L17:
 106:..\Slider.cydsn/command_telemetry.c ****     {
 203              		.loc 1 106 0 discriminator 2
 204 002c 0135     		add	r5, r5, #1
 205              	.LVL24:
 206              	.L16:
 106:..\Slider.cydsn/command_telemetry.c ****     {
 207              		.loc 1 106 0 is_stmt 0 discriminator 1
 208 002e 012D     		cmp	r5, #1
 209 0030 EADD     		ble	.L19
 111:..\Slider.cydsn/command_telemetry.c ****         }
 112:..\Slider.cydsn/command_telemetry.c ****     }// for all the commands
 113:..\Slider.cydsn/command_telemetry.c ****     
 114:..\Slider.cydsn/command_telemetry.c ****     return CMD_TELEMETRY_UNKNOWN;
 210              		.loc 1 114 0 is_stmt 1
 211 0032 0220     		mov	r0, #2
 212              	.LVL25:
 213              	.L18:
 115:..\Slider.cydsn/command_telemetry.c **** }// get_telemetry_cmd_id_from_cmd_string
 214              		.loc 1 115 0
 215              		@ sp needed
 216              	.LVL26:
 217 0034 38BD     		pop	{r3, r4, r5, pc}
 218              	.L21:
 219 0036 C046     		.align	2
 220              	.L20:
 221 0038 B8000000 		.word	.LANCHOR1
ARM GAS  C:\Users\MM1005~1\AppData\Local\Temp\cc36bet7.s 			page 7


 222              		.cfi_endproc
 223              	.LFE37:
 224              		.size	get_telemetry_cmd_id_from_cmd_string, .-get_telemetry_cmd_id_from_cmd_string
 225              		.section	.text.get_tracker_cmd_id_from_cmd_string,"ax",%progbits
 226              		.align	2
 227              		.global	get_tracker_cmd_id_from_cmd_string
 228              		.code	16
 229              		.thumb_func
 230              		.type	get_tracker_cmd_id_from_cmd_string, %function
 231              	get_tracker_cmd_id_from_cmd_string:
 232              	.LFB38:
 116:..\Slider.cydsn/command_telemetry.c **** 
 117:..\Slider.cydsn/command_telemetry.c **** //=============================================================================
 118:..\Slider.cydsn/command_telemetry.c **** //========================================== get_tracker_cmd_id_from_cmd_string
 119:..\Slider.cydsn/command_telemetry.c **** //=============================================================================
 120:..\Slider.cydsn/command_telemetry.c **** t_enum_tracker_command get_tracker_cmd_id_from_cmd_string(const char* cmd_str)
 121:..\Slider.cydsn/command_telemetry.c **** {
 233              		.loc 1 121 0
 234              		.cfi_startproc
 235              	.LVL27:
 236 0000 38B5     		push	{r3, r4, r5, lr}
 237              		.cfi_def_cfa_offset 16
 238              		.cfi_offset 3, -16
 239              		.cfi_offset 4, -12
 240              		.cfi_offset 5, -8
 241              		.cfi_offset 14, -4
 242 0002 041C     		mov	r4, r0
 243              	.LVL28:
 122:..\Slider.cydsn/command_telemetry.c ****     int i;
 123:..\Slider.cydsn/command_telemetry.c ****     
 124:..\Slider.cydsn/command_telemetry.c ****     for (i = 0; i < CMD_TRACKER_UNKNOWN; i++)
 244              		.loc 1 124 0
 245 0004 0025     		mov	r5, #0
 246 0006 12E0     		b	.L23
 247              	.LVL29:
 248              	.L26:
 125:..\Slider.cydsn/command_telemetry.c ****     {
 126:..\Slider.cydsn/command_telemetry.c ****         if (strstr(cmd_str, vec_tracker_commands[i].name))
 249              		.loc 1 126 0
 250 0008 6B00     		lsl	r3, r5, #1
 251 000a 5B19     		add	r3, r3, r5
 252 000c 9B00     		lsl	r3, r3, #2
 253 000e 0A4A     		ldr	r2, .L27
 254 0010 D318     		add	r3, r2, r3
 255 0012 196A     		ldr	r1, [r3, #32]
 256 0014 201C     		mov	r0, r4
 257 0016 FFF7FEFF 		bl	strstr
 258              	.LVL30:
 259 001a 0028     		cmp	r0, #0
 260 001c 06D0     		beq	.L24
 127:..\Slider.cydsn/command_telemetry.c ****         {
 128:..\Slider.cydsn/command_telemetry.c ****             return vec_tracker_commands[i].id;
 261              		.loc 1 128 0
 262 001e 6B00     		lsl	r3, r5, #1
 263 0020 5D19     		add	r5, r3, r5
 264              	.LVL31:
 265 0022 AD00     		lsl	r5, r5, #2
ARM GAS  C:\Users\MM1005~1\AppData\Local\Temp\cc36bet7.s 			page 8


 266 0024 044B     		ldr	r3, .L27
 267 0026 5D19     		add	r5, r3, r5
 268 0028 287F     		ldrb	r0, [r5, #28]
 269 002a 03E0     		b	.L25
 270              	.LVL32:
 271              	.L24:
 124:..\Slider.cydsn/command_telemetry.c ****     {
 272              		.loc 1 124 0 discriminator 2
 273 002c 0135     		add	r5, r5, #1
 274              	.LVL33:
 275              	.L23:
 124:..\Slider.cydsn/command_telemetry.c ****     {
 276              		.loc 1 124 0 is_stmt 0 discriminator 1
 277 002e 022D     		cmp	r5, #2
 278 0030 EADD     		ble	.L26
 129:..\Slider.cydsn/command_telemetry.c ****         }
 130:..\Slider.cydsn/command_telemetry.c ****     }// for all the commands
 131:..\Slider.cydsn/command_telemetry.c ****     
 132:..\Slider.cydsn/command_telemetry.c ****     return CMD_TRACKER_UNKNOWN;
 279              		.loc 1 132 0 is_stmt 1
 280 0032 0320     		mov	r0, #3
 281              	.LVL34:
 282              	.L25:
 133:..\Slider.cydsn/command_telemetry.c **** }// get_anim_cmd_id_from_cmd_string
 283              		.loc 1 133 0
 284              		@ sp needed
 285              	.LVL35:
 286 0034 38BD     		pop	{r3, r4, r5, pc}
 287              	.L28:
 288 0036 C046     		.align	2
 289              	.L27:
 290 0038 B8000000 		.word	.LANCHOR1
 291              		.cfi_endproc
 292              	.LFE38:
 293              		.size	get_tracker_cmd_id_from_cmd_string, .-get_tracker_cmd_id_from_cmd_string
 294              		.section	.text.get_anim_cmd_id_from_cmd_string,"ax",%progbits
 295              		.align	2
 296              		.global	get_anim_cmd_id_from_cmd_string
 297              		.code	16
 298              		.thumb_func
 299              		.type	get_anim_cmd_id_from_cmd_string, %function
 300              	get_anim_cmd_id_from_cmd_string:
 301              	.LFB39:
 134:..\Slider.cydsn/command_telemetry.c **** 
 135:..\Slider.cydsn/command_telemetry.c **** //=============================================================================
 136:..\Slider.cydsn/command_telemetry.c **** //============================================= get_anim_cmd_id_from_cmd_string
 137:..\Slider.cydsn/command_telemetry.c **** //=============================================================================
 138:..\Slider.cydsn/command_telemetry.c **** t_enum_anim_command get_anim_cmd_id_from_cmd_string(const char* cmd_str)
 139:..\Slider.cydsn/command_telemetry.c **** {
 302              		.loc 1 139 0
 303              		.cfi_startproc
 304              	.LVL36:
 305 0000 38B5     		push	{r3, r4, r5, lr}
 306              		.cfi_def_cfa_offset 16
 307              		.cfi_offset 3, -16
 308              		.cfi_offset 4, -12
 309              		.cfi_offset 5, -8
ARM GAS  C:\Users\MM1005~1\AppData\Local\Temp\cc36bet7.s 			page 9


 310              		.cfi_offset 14, -4
 311 0002 041C     		mov	r4, r0
 312              	.LVL37:
 140:..\Slider.cydsn/command_telemetry.c ****     int i;
 141:..\Slider.cydsn/command_telemetry.c ****     
 142:..\Slider.cydsn/command_telemetry.c ****     for (i = 0; i < CMD_ANIM_UNKNOWN; i++)
 313              		.loc 1 142 0
 314 0004 0025     		mov	r5, #0
 315 0006 13E0     		b	.L30
 316              	.LVL38:
 317              	.L33:
 143:..\Slider.cydsn/command_telemetry.c ****     {
 144:..\Slider.cydsn/command_telemetry.c ****         if (strstr(cmd_str, vec_anim_commands[i].name))
 318              		.loc 1 144 0
 319 0008 6B00     		lsl	r3, r5, #1
 320 000a 5B19     		add	r3, r3, r5
 321 000c 9B00     		lsl	r3, r3, #2
 322 000e 0A4A     		ldr	r2, .L34
 323 0010 D318     		add	r3, r2, r3
 324 0012 596C     		ldr	r1, [r3, #68]
 325 0014 201C     		mov	r0, r4
 326 0016 FFF7FEFF 		bl	strstr
 327              	.LVL39:
 328 001a 0028     		cmp	r0, #0
 329 001c 07D0     		beq	.L31
 145:..\Slider.cydsn/command_telemetry.c ****         {
 146:..\Slider.cydsn/command_telemetry.c ****             return vec_anim_commands[i].id;
 330              		.loc 1 146 0
 331 001e 6B00     		lsl	r3, r5, #1
 332 0020 5D19     		add	r5, r3, r5
 333              	.LVL40:
 334 0022 AD00     		lsl	r5, r5, #2
 335 0024 044B     		ldr	r3, .L34
 336 0026 5D19     		add	r5, r3, r5
 337 0028 4023     		mov	r3, #64
 338 002a E85C     		ldrb	r0, [r5, r3]
 339 002c 03E0     		b	.L32
 340              	.LVL41:
 341              	.L31:
 142:..\Slider.cydsn/command_telemetry.c ****     {
 342              		.loc 1 142 0 discriminator 2
 343 002e 0135     		add	r5, r5, #1
 344              	.LVL42:
 345              	.L30:
 142:..\Slider.cydsn/command_telemetry.c ****     {
 346              		.loc 1 142 0 is_stmt 0 discriminator 1
 347 0030 032D     		cmp	r5, #3
 348 0032 E9DD     		ble	.L33
 147:..\Slider.cydsn/command_telemetry.c ****         }
 148:..\Slider.cydsn/command_telemetry.c ****     }// for all the commands
 149:..\Slider.cydsn/command_telemetry.c ****     
 150:..\Slider.cydsn/command_telemetry.c ****     return CMD_ANIM_UNKNOWN;
 349              		.loc 1 150 0 is_stmt 1
 350 0034 0420     		mov	r0, #4
 351              	.LVL43:
 352              	.L32:
 151:..\Slider.cydsn/command_telemetry.c **** }// get_anim_cmd_id_from_cmd_string
ARM GAS  C:\Users\MM1005~1\AppData\Local\Temp\cc36bet7.s 			page 10


 353              		.loc 1 151 0
 354              		@ sp needed
 355              	.LVL44:
 356 0036 38BD     		pop	{r3, r4, r5, pc}
 357              	.L35:
 358              		.align	2
 359              	.L34:
 360 0038 B8000000 		.word	.LANCHOR1
 361              		.cfi_endproc
 362              	.LFE39:
 363              		.size	get_anim_cmd_id_from_cmd_string, .-get_anim_cmd_id_from_cmd_string
 364              		.section	.text.get_anim_id_from_cmd_string,"ax",%progbits
 365              		.align	2
 366              		.global	get_anim_id_from_cmd_string
 367              		.code	16
 368              		.thumb_func
 369              		.type	get_anim_id_from_cmd_string, %function
 370              	get_anim_id_from_cmd_string:
 371              	.LFB40:
 152:..\Slider.cydsn/command_telemetry.c **** 
 153:..\Slider.cydsn/command_telemetry.c **** //=============================================================================
 154:..\Slider.cydsn/command_telemetry.c **** //================================================= get_anim_id_from_cmd_string
 155:..\Slider.cydsn/command_telemetry.c **** //=============================================================================
 156:..\Slider.cydsn/command_telemetry.c **** t_enum_animation get_anim_id_from_cmd_string(const char* cmd_str)
 157:..\Slider.cydsn/command_telemetry.c **** {
 372              		.loc 1 157 0
 373              		.cfi_startproc
 374              	.LVL45:
 375 0000 30B5     		push	{r4, r5, lr}
 376              		.cfi_def_cfa_offset 12
 377              		.cfi_offset 4, -12
 378              		.cfi_offset 5, -8
 379              		.cfi_offset 14, -4
 380 0002 85B0     		sub	sp, sp, #20
 381              		.cfi_def_cfa_offset 32
 382 0004 051C     		mov	r5, r0
 383              	.LVL46:
 158:..\Slider.cydsn/command_telemetry.c ****     int                i;
 159:..\Slider.cydsn/command_telemetry.c ****     t_struct_animation animation;
 160:..\Slider.cydsn/command_telemetry.c ****     
 161:..\Slider.cydsn/command_telemetry.c ****     for (i = 0; i < ANIM_UNKNOWN; i++)
 384              		.loc 1 161 0
 385 0006 0024     		mov	r4, #0
 386 0008 0DE0     		b	.L37
 387              	.LVL47:
 388              	.L40:
 162:..\Slider.cydsn/command_telemetry.c ****     {
 163:..\Slider.cydsn/command_telemetry.c ****         get_animation ((t_enum_animation) i, &animation);
 389              		.loc 1 163 0
 390 000a E0B2     		uxtb	r0, r4
 391 000c 01A9     		add	r1, sp, #4
 392 000e FFF7FEFF 		bl	get_animation
 393              	.LVL48:
 164:..\Slider.cydsn/command_telemetry.c ****         if (strstr(cmd_str, animation.description))
 394              		.loc 1 164 0
 395 0012 0399     		ldr	r1, [sp, #12]
 396 0014 281C     		mov	r0, r5
ARM GAS  C:\Users\MM1005~1\AppData\Local\Temp\cc36bet7.s 			page 11


 397 0016 FFF7FEFF 		bl	strstr
 398              	.LVL49:
 399 001a 0028     		cmp	r0, #0
 400 001c 02D0     		beq	.L38
 165:..\Slider.cydsn/command_telemetry.c ****         {
 166:..\Slider.cydsn/command_telemetry.c ****             return animation.id;
 401              		.loc 1 166 0
 402 001e 01AB     		add	r3, sp, #4
 403 0020 1878     		ldrb	r0, [r3]
 404 0022 03E0     		b	.L39
 405              	.L38:
 161:..\Slider.cydsn/command_telemetry.c ****     {
 406              		.loc 1 161 0 discriminator 2
 407 0024 0134     		add	r4, r4, #1
 408              	.LVL50:
 409              	.L37:
 161:..\Slider.cydsn/command_telemetry.c ****     {
 410              		.loc 1 161 0 is_stmt 0 discriminator 1
 411 0026 0D2C     		cmp	r4, #13
 412 0028 EFDD     		ble	.L40
 167:..\Slider.cydsn/command_telemetry.c ****         }
 168:..\Slider.cydsn/command_telemetry.c ****     }// for all the commands
 169:..\Slider.cydsn/command_telemetry.c ****     
 170:..\Slider.cydsn/command_telemetry.c ****     return ANIM_UNKNOWN;
 413              		.loc 1 170 0 is_stmt 1
 414 002a 0E20     		mov	r0, #14
 415              	.L39:
 171:..\Slider.cydsn/command_telemetry.c **** }// get_anim_cmd_id_from_cmd_string
 416              		.loc 1 171 0
 417 002c 05B0     		add	sp, sp, #20
 418              		@ sp needed
 419              	.LVL51:
 420              	.LVL52:
 421 002e 30BD     		pop	{r4, r5, pc}
 422              		.cfi_endproc
 423              	.LFE40:
 424              		.size	get_anim_id_from_cmd_string, .-get_anim_id_from_cmd_string
 425              		.section	.text.get_boot_cmd_id_from_cmd_string,"ax",%progbits
 426              		.align	2
 427              		.global	get_boot_cmd_id_from_cmd_string
 428              		.code	16
 429              		.thumb_func
 430              		.type	get_boot_cmd_id_from_cmd_string, %function
 431              	get_boot_cmd_id_from_cmd_string:
 432              	.LFB41:
 172:..\Slider.cydsn/command_telemetry.c **** 
 173:..\Slider.cydsn/command_telemetry.c **** //=============================================================================
 174:..\Slider.cydsn/command_telemetry.c **** //============================================= get_boot_cmd_id_from_cmd_string
 175:..\Slider.cydsn/command_telemetry.c **** //=============================================================================
 176:..\Slider.cydsn/command_telemetry.c **** t_enum_bootloader_command get_boot_cmd_id_from_cmd_string(const char* cmd_str)
 177:..\Slider.cydsn/command_telemetry.c **** {
 433              		.loc 1 177 0
 434              		.cfi_startproc
 435              	.LVL53:
 436 0000 38B5     		push	{r3, r4, r5, lr}
 437              		.cfi_def_cfa_offset 16
 438              		.cfi_offset 3, -16
ARM GAS  C:\Users\MM1005~1\AppData\Local\Temp\cc36bet7.s 			page 12


 439              		.cfi_offset 4, -12
 440              		.cfi_offset 5, -8
 441              		.cfi_offset 14, -4
 442 0002 041C     		mov	r4, r0
 443              	.LVL54:
 178:..\Slider.cydsn/command_telemetry.c ****     int i;
 179:..\Slider.cydsn/command_telemetry.c ****     
 180:..\Slider.cydsn/command_telemetry.c ****     for (i = 0; i < CMD_BOOT_UNKNOWN; i++)
 444              		.loc 1 180 0
 445 0004 0025     		mov	r5, #0
 446 0006 13E0     		b	.L42
 447              	.LVL55:
 448              	.L45:
 181:..\Slider.cydsn/command_telemetry.c ****     {
 182:..\Slider.cydsn/command_telemetry.c ****         if (strstr(cmd_str, vec_boot_commands[i].name))
 449              		.loc 1 182 0
 450 0008 6B00     		lsl	r3, r5, #1
 451 000a 5B19     		add	r3, r3, r5
 452 000c 9B00     		lsl	r3, r3, #2
 453 000e 0A4A     		ldr	r2, .L46
 454 0010 D318     		add	r3, r2, r3
 455 0012 596F     		ldr	r1, [r3, #116]
 456 0014 201C     		mov	r0, r4
 457 0016 FFF7FEFF 		bl	strstr
 458              	.LVL56:
 459 001a 0028     		cmp	r0, #0
 460 001c 07D0     		beq	.L43
 183:..\Slider.cydsn/command_telemetry.c ****         {
 184:..\Slider.cydsn/command_telemetry.c ****             return vec_boot_commands[i].id;
 461              		.loc 1 184 0
 462 001e 6B00     		lsl	r3, r5, #1
 463 0020 5D19     		add	r5, r3, r5
 464              	.LVL57:
 465 0022 AD00     		lsl	r5, r5, #2
 466 0024 044B     		ldr	r3, .L46
 467 0026 5D19     		add	r5, r3, r5
 468 0028 7023     		mov	r3, #112
 469 002a E85C     		ldrb	r0, [r5, r3]
 470 002c 03E0     		b	.L44
 471              	.LVL58:
 472              	.L43:
 180:..\Slider.cydsn/command_telemetry.c ****     {
 473              		.loc 1 180 0 discriminator 2
 474 002e 0135     		add	r5, r5, #1
 475              	.LVL59:
 476              	.L42:
 180:..\Slider.cydsn/command_telemetry.c ****     {
 477              		.loc 1 180 0 is_stmt 0 discriminator 1
 478 0030 022D     		cmp	r5, #2
 479 0032 E9DD     		ble	.L45
 185:..\Slider.cydsn/command_telemetry.c ****         }
 186:..\Slider.cydsn/command_telemetry.c ****     }// for all the commands
 187:..\Slider.cydsn/command_telemetry.c ****     
 188:..\Slider.cydsn/command_telemetry.c ****     return CMD_BOOT_UNKNOWN;
 480              		.loc 1 188 0 is_stmt 1
 481 0034 0320     		mov	r0, #3
 482              	.LVL60:
ARM GAS  C:\Users\MM1005~1\AppData\Local\Temp\cc36bet7.s 			page 13


 483              	.L44:
 189:..\Slider.cydsn/command_telemetry.c **** }// get_boot_cmd_id_from_cmd_string
 484              		.loc 1 189 0
 485              		@ sp needed
 486              	.LVL61:
 487 0036 38BD     		pop	{r3, r4, r5, pc}
 488              	.L47:
 489              		.align	2
 490              	.L46:
 491 0038 B8000000 		.word	.LANCHOR1
 492              		.cfi_endproc
 493              	.LFE41:
 494              		.size	get_boot_cmd_id_from_cmd_string, .-get_boot_cmd_id_from_cmd_string
 495              		.section	.text.get_led_cmd_id_from_cmd_string,"ax",%progbits
 496              		.align	2
 497              		.global	get_led_cmd_id_from_cmd_string
 498              		.code	16
 499              		.thumb_func
 500              		.type	get_led_cmd_id_from_cmd_string, %function
 501              	get_led_cmd_id_from_cmd_string:
 502              	.LFB42:
 190:..\Slider.cydsn/command_telemetry.c **** 
 191:..\Slider.cydsn/command_telemetry.c **** //=============================================================================
 192:..\Slider.cydsn/command_telemetry.c **** //============================================== get_led_cmd_id_from_cmd_string
 193:..\Slider.cydsn/command_telemetry.c **** //=============================================================================
 194:..\Slider.cydsn/command_telemetry.c **** t_enum_led_command get_led_cmd_id_from_cmd_string(const char* cmd_str)
 195:..\Slider.cydsn/command_telemetry.c **** {
 503              		.loc 1 195 0
 504              		.cfi_startproc
 505              	.LVL62:
 506 0000 38B5     		push	{r3, r4, r5, lr}
 507              		.cfi_def_cfa_offset 16
 508              		.cfi_offset 3, -16
 509              		.cfi_offset 4, -12
 510              		.cfi_offset 5, -8
 511              		.cfi_offset 14, -4
 512 0002 041C     		mov	r4, r0
 513              	.LVL63:
 196:..\Slider.cydsn/command_telemetry.c ****     int i;
 197:..\Slider.cydsn/command_telemetry.c ****     
 198:..\Slider.cydsn/command_telemetry.c ****     for (i = 0; i < CMD_LED_UNKNOWN; i++)
 514              		.loc 1 198 0
 515 0004 0025     		mov	r5, #0
 516 0006 12E0     		b	.L49
 517              	.LVL64:
 518              	.L52:
 199:..\Slider.cydsn/command_telemetry.c ****     {
 200:..\Slider.cydsn/command_telemetry.c ****         if (strstr(cmd_str, vec_led_commands[i].name))
 519              		.loc 1 200 0
 520 0008 6B00     		lsl	r3, r5, #1
 521 000a 5B19     		add	r3, r3, r5
 522 000c 9B00     		lsl	r3, r3, #2
 523 000e 0A4A     		ldr	r2, .L53
 524 0010 D318     		add	r3, r2, r3
 525 0012 9969     		ldr	r1, [r3, #24]
 526 0014 201C     		mov	r0, r4
 527 0016 FFF7FEFF 		bl	strstr
ARM GAS  C:\Users\MM1005~1\AppData\Local\Temp\cc36bet7.s 			page 14


 528              	.LVL65:
 529 001a 0028     		cmp	r0, #0
 530 001c 06D0     		beq	.L50
 201:..\Slider.cydsn/command_telemetry.c ****         {
 202:..\Slider.cydsn/command_telemetry.c ****             return vec_led_commands[i].id;
 531              		.loc 1 202 0
 532 001e 6B00     		lsl	r3, r5, #1
 533 0020 5D19     		add	r5, r3, r5
 534              	.LVL66:
 535 0022 AD00     		lsl	r5, r5, #2
 536 0024 044B     		ldr	r3, .L53
 537 0026 5D19     		add	r5, r3, r5
 538 0028 287D     		ldrb	r0, [r5, #20]
 539 002a 03E0     		b	.L51
 540              	.LVL67:
 541              	.L50:
 198:..\Slider.cydsn/command_telemetry.c ****     {
 542              		.loc 1 198 0 discriminator 2
 543 002c 0135     		add	r5, r5, #1
 544              	.LVL68:
 545              	.L49:
 198:..\Slider.cydsn/command_telemetry.c ****     {
 546              		.loc 1 198 0 is_stmt 0 discriminator 1
 547 002e 042D     		cmp	r5, #4
 548 0030 EADD     		ble	.L52
 203:..\Slider.cydsn/command_telemetry.c ****         }
 204:..\Slider.cydsn/command_telemetry.c ****     }// for all the commands
 205:..\Slider.cydsn/command_telemetry.c ****     
 206:..\Slider.cydsn/command_telemetry.c ****     return CMD_LED_UNKNOWN;
 549              		.loc 1 206 0 is_stmt 1
 550 0032 0520     		mov	r0, #5
 551              	.LVL69:
 552              	.L51:
 207:..\Slider.cydsn/command_telemetry.c **** }// get_led_cmd_id_from_cmd_string
 553              		.loc 1 207 0
 554              		@ sp needed
 555              	.LVL70:
 556 0034 38BD     		pop	{r3, r4, r5, pc}
 557              	.L54:
 558 0036 C046     		.align	2
 559              	.L53:
 560 0038 38010000 		.word	.LANCHOR2
 561              		.cfi_endproc
 562              	.LFE42:
 563              		.size	get_led_cmd_id_from_cmd_string, .-get_led_cmd_id_from_cmd_string
 564              		.section	.text.send_bootloader_config_telemetry,"ax",%progbits
 565              		.align	2
 566              		.global	send_bootloader_config_telemetry
 567              		.code	16
 568              		.thumb_func
 569              		.type	send_bootloader_config_telemetry, %function
 570              	send_bootloader_config_telemetry:
 571              	.LFB44:
 208:..\Slider.cydsn/command_telemetry.c **** 
 209:..\Slider.cydsn/command_telemetry.c **** //=============================================================================
 210:..\Slider.cydsn/command_telemetry.c **** //=================================================== parse_and_execute_command
 211:..\Slider.cydsn/command_telemetry.c **** //=============================================================================
ARM GAS  C:\Users\MM1005~1\AppData\Local\Temp\cc36bet7.s 			page 15


 212:..\Slider.cydsn/command_telemetry.c **** BOOL parse_and_execute_command(const char* cmd_str_and_param)
 213:..\Slider.cydsn/command_telemetry.c **** { 
 214:..\Slider.cydsn/command_telemetry.c ****     t_enum_command            cmd_id           = CMD_UNKNOWN;
 215:..\Slider.cydsn/command_telemetry.c ****     t_enum_anim_command       anim_cmd_id      = CMD_ANIM_UNKNOWN;
 216:..\Slider.cydsn/command_telemetry.c ****     t_enum_animation          anim_id          = ANIM_UNKNOWN;
 217:..\Slider.cydsn/command_telemetry.c ****     t_enum_led_command        led_cmd_id       = CMD_LED_UNKNOWN;
 218:..\Slider.cydsn/command_telemetry.c ****     t_enum_sensor_command     sensor_cmd_id    = CMD_SENSOR_UNKNOWN;
 219:..\Slider.cydsn/command_telemetry.c ****     t_enum_telemetry_command  telemetry_cmd_id = CMD_TELEMETRY_UNKNOWN;
 220:..\Slider.cydsn/command_telemetry.c ****     t_enum_tracker_command    tracker_cmd_id   = CMD_TRACKER_UNKNOWN;
 221:..\Slider.cydsn/command_telemetry.c ****     t_enum_bootloader_command boot_cmd_id      = CMD_BOOT_UNKNOWN;   
 222:..\Slider.cydsn/command_telemetry.c ****     char*                     param_str        = strchr(cmd_str_and_param, ',');
 223:..\Slider.cydsn/command_telemetry.c ****     char*                     next_param_str   = NULL; 
 224:..\Slider.cydsn/command_telemetry.c ****     int                       red              = 0;
 225:..\Slider.cydsn/command_telemetry.c ****     int                       green            = 0;
 226:..\Slider.cydsn/command_telemetry.c ****     int                       blue             = 0;
 227:..\Slider.cydsn/command_telemetry.c ****     int                       led_index        = 0;
 228:..\Slider.cydsn/command_telemetry.c ****     int                       led_intensity    = 0;
 229:..\Slider.cydsn/command_telemetry.c **** #if 0   
 230:..\Slider.cydsn/command_telemetry.c ****     uint32                    flash_checksum   = 0;
 231:..\Slider.cydsn/command_telemetry.c ****     uint32                    flash_first_row  = 0;
 232:..\Slider.cydsn/command_telemetry.c ****     uint32                    flash_last_row   = 0;
 233:..\Slider.cydsn/command_telemetry.c ****     uint32                    flash_size       = 0;
 234:..\Slider.cydsn/command_telemetry.c **** #endif // USE_BOOTLOADER    
 235:..\Slider.cydsn/command_telemetry.c ****     t_struct_animation        animation;
 236:..\Slider.cydsn/command_telemetry.c ****     uint16                    led_vec[MAX_LEDS]; 
 237:..\Slider.cydsn/command_telemetry.c ****     int                       i;
 238:..\Slider.cydsn/command_telemetry.c ****     
 239:..\Slider.cydsn/command_telemetry.c ****     if (param_str == NULL)
 240:..\Slider.cydsn/command_telemetry.c ****     {
 241:..\Slider.cydsn/command_telemetry.c ****         send_alarm_telemetry(ALARM_WARNING, cmd_str_and_param, "can't find comma in command");
 242:..\Slider.cydsn/command_telemetry.c ****         return FALSE;    
 243:..\Slider.cydsn/command_telemetry.c ****     }// If we can't a comma inside the command
 244:..\Slider.cydsn/command_telemetry.c ****    
 245:..\Slider.cydsn/command_telemetry.c ****     cmd_id = get_cmd_id_from_cmd_string(param_str++);
 246:..\Slider.cydsn/command_telemetry.c ****     
 247:..\Slider.cydsn/command_telemetry.c ****     switch (cmd_id)
 248:..\Slider.cydsn/command_telemetry.c ****     {
 249:..\Slider.cydsn/command_telemetry.c ****         case CMD_CAPSENSE:
 250:..\Slider.cydsn/command_telemetry.c ****         {
 251:..\Slider.cydsn/command_telemetry.c ****             send_alarm_telemetry(ALARM_WARNING, cmd_str_and_param, "FIXME!");
 252:..\Slider.cydsn/command_telemetry.c ****             return FALSE;    
 253:..\Slider.cydsn/command_telemetry.c ****         }// CMD_CAPSENSE
 254:..\Slider.cydsn/command_telemetry.c ****         
 255:..\Slider.cydsn/command_telemetry.c ****         case CMD_HELP:
 256:..\Slider.cydsn/command_telemetry.c ****         {
 257:..\Slider.cydsn/command_telemetry.c ****             for (i = 0; i < CMD_UNKNOWN; i++)
 258:..\Slider.cydsn/command_telemetry.c ****             {
 259:..\Slider.cydsn/command_telemetry.c ****                 send_alarm_telemetry(ALARM_LOG, vec_commands[i].name, vec_commands[i].description);
 260:..\Slider.cydsn/command_telemetry.c ****             }// for all the commands
 261:..\Slider.cydsn/command_telemetry.c ****             
 262:..\Slider.cydsn/command_telemetry.c ****             for (i = 0; i < ANIM_UNKNOWN; i++)
 263:..\Slider.cydsn/command_telemetry.c ****             {
 264:..\Slider.cydsn/command_telemetry.c ****                 get_animation ((t_enum_animation) i, &animation);
 265:..\Slider.cydsn/command_telemetry.c ****                 send_alarm_telemetry(ALARM_LOG, "animation", animation.description);
 266:..\Slider.cydsn/command_telemetry.c ****             }// for all the commands
 267:..\Slider.cydsn/command_telemetry.c ****             
 268:..\Slider.cydsn/command_telemetry.c ****             break;      
ARM GAS  C:\Users\MM1005~1\AppData\Local\Temp\cc36bet7.s 			page 16


 269:..\Slider.cydsn/command_telemetry.c ****         }// CMD_HELP
 270:..\Slider.cydsn/command_telemetry.c ****         
 271:..\Slider.cydsn/command_telemetry.c ****         case CMD_ANIMATION:
 272:..\Slider.cydsn/command_telemetry.c ****         {
 273:..\Slider.cydsn/command_telemetry.c ****             if ((param_str = strchr(param_str, ',')) == NULL)
 274:..\Slider.cydsn/command_telemetry.c ****             {
 275:..\Slider.cydsn/command_telemetry.c ****                 send_alarm_telemetry(ALARM_WARNING, cmd_str_and_param, "unsupported animation actio
 276:..\Slider.cydsn/command_telemetry.c ****                 return FALSE;
 277:..\Slider.cydsn/command_telemetry.c ****             }// If we can't find the next ',' character
 278:..\Slider.cydsn/command_telemetry.c ****             
 279:..\Slider.cydsn/command_telemetry.c ****             if ((param_str = strchr(++param_str, ':')) == NULL)
 280:..\Slider.cydsn/command_telemetry.c ****             {
 281:..\Slider.cydsn/command_telemetry.c ****                 send_alarm_telemetry(ALARM_WARNING, cmd_str_and_param, "unsupported animation actio
 282:..\Slider.cydsn/command_telemetry.c ****                 return FALSE;
 283:..\Slider.cydsn/command_telemetry.c ****             }// If we can't find the next ':' character
 284:..\Slider.cydsn/command_telemetry.c ****             param_str++;
 285:..\Slider.cydsn/command_telemetry.c ****             
 286:..\Slider.cydsn/command_telemetry.c ****             switch (anim_cmd_id = get_anim_cmd_id_from_cmd_string(param_str))
 287:..\Slider.cydsn/command_telemetry.c ****             {
 288:..\Slider.cydsn/command_telemetry.c ****                 case CMD_ANIM_AUTO:
 289:..\Slider.cydsn/command_telemetry.c ****                 {
 290:..\Slider.cydsn/command_telemetry.c ****                     set_is_auto_anim_rotation_enable(TRUE);
 291:..\Slider.cydsn/command_telemetry.c ****                     break;
 292:..\Slider.cydsn/command_telemetry.c ****                 }// CMD_ANIM_AUTO
 293:..\Slider.cydsn/command_telemetry.c ****                 
 294:..\Slider.cydsn/command_telemetry.c ****                 case CMD_ANIM_MANUAL:
 295:..\Slider.cydsn/command_telemetry.c ****                 {
 296:..\Slider.cydsn/command_telemetry.c ****                     set_is_auto_anim_rotation_enable(FALSE);
 297:..\Slider.cydsn/command_telemetry.c ****                     break;
 298:..\Slider.cydsn/command_telemetry.c ****                 }// CMD_ANIM_MANUAL
 299:..\Slider.cydsn/command_telemetry.c ****                 
 300:..\Slider.cydsn/command_telemetry.c ****                 case CMD_ANIM_STOP:
 301:..\Slider.cydsn/command_telemetry.c ****                 {
 302:..\Slider.cydsn/command_telemetry.c ****                     set_is_anim_on_button_up_enable(FALSE);
 303:..\Slider.cydsn/command_telemetry.c ****                     break;
 304:..\Slider.cydsn/command_telemetry.c ****                 }// CMD_ANIM_STOP
 305:..\Slider.cydsn/command_telemetry.c ****                 
 306:..\Slider.cydsn/command_telemetry.c ****                 case CMD_ANIM_RESUME:
 307:..\Slider.cydsn/command_telemetry.c ****                 {
 308:..\Slider.cydsn/command_telemetry.c ****                     set_is_anim_on_button_up_enable(TRUE);
 309:..\Slider.cydsn/command_telemetry.c ****                     break;
 310:..\Slider.cydsn/command_telemetry.c ****                 }// CMD_ANIM_RESUME
 311:..\Slider.cydsn/command_telemetry.c ****                 
 312:..\Slider.cydsn/command_telemetry.c ****                 case CMD_ANIM_UNKNOWN:
 313:..\Slider.cydsn/command_telemetry.c ****                 default              :
 314:..\Slider.cydsn/command_telemetry.c ****                 {
 315:..\Slider.cydsn/command_telemetry.c ****                     if ((anim_id = get_anim_id_from_cmd_string(param_str)) != ANIM_UNKNOWN)
 316:..\Slider.cydsn/command_telemetry.c ****                     {
 317:..\Slider.cydsn/command_telemetry.c ****                         set_current_callback_anim(anim_id);
 318:..\Slider.cydsn/command_telemetry.c ****                     }// if we found a valid animation description in the command
 319:..\Slider.cydsn/command_telemetry.c ****                     else
 320:..\Slider.cydsn/command_telemetry.c ****                     {
 321:..\Slider.cydsn/command_telemetry.c ****                         send_alarm_telemetry(ALARM_WARNING, cmd_str_and_param, "unsupported animati
 322:..\Slider.cydsn/command_telemetry.c ****                         return FALSE;
 323:..\Slider.cydsn/command_telemetry.c ****                     }// else, we couldn't find a valid animation 
 324:..\Slider.cydsn/command_telemetry.c ****                     break;
 325:..\Slider.cydsn/command_telemetry.c ****                 }// CMD_ANIM_UNKOWN, default
ARM GAS  C:\Users\MM1005~1\AppData\Local\Temp\cc36bet7.s 			page 17


 326:..\Slider.cydsn/command_telemetry.c ****             }// switch on the animation command
 327:..\Slider.cydsn/command_telemetry.c ****             break;  
 328:..\Slider.cydsn/command_telemetry.c ****         }// CMD_SET_ANIMATION
 329:..\Slider.cydsn/command_telemetry.c ****         
 330:..\Slider.cydsn/command_telemetry.c ****         case CMD_BOOTLOADER:
 331:..\Slider.cydsn/command_telemetry.c ****         {
 332:..\Slider.cydsn/command_telemetry.c ****             if ((param_str = strchr(param_str, ',')) == NULL)
 333:..\Slider.cydsn/command_telemetry.c ****             {
 334:..\Slider.cydsn/command_telemetry.c ****                 send_alarm_telemetry(ALARM_WARNING, cmd_str_and_param, "unsupported sensor action")
 335:..\Slider.cydsn/command_telemetry.c ****                 return FALSE;
 336:..\Slider.cydsn/command_telemetry.c ****             }// If we can't find the next ',' character
 337:..\Slider.cydsn/command_telemetry.c ****             
 338:..\Slider.cydsn/command_telemetry.c ****             if ((param_str = strchr(++param_str, ':')) == NULL)
 339:..\Slider.cydsn/command_telemetry.c ****             {
 340:..\Slider.cydsn/command_telemetry.c ****                 send_alarm_telemetry(ALARM_WARNING, cmd_str_and_param, "unsupported sensor action")
 341:..\Slider.cydsn/command_telemetry.c ****                 return FALSE;
 342:..\Slider.cydsn/command_telemetry.c ****             }// If we can't find the next ':' character
 343:..\Slider.cydsn/command_telemetry.c ****             param_str++;
 344:..\Slider.cydsn/command_telemetry.c ****             
 345:..\Slider.cydsn/command_telemetry.c ****             switch (boot_cmd_id = get_boot_cmd_id_from_cmd_string(param_str))
 346:..\Slider.cydsn/command_telemetry.c ****             {
 347:..\Slider.cydsn/command_telemetry.c ****                 case CMD_BOOT_START:
 348:..\Slider.cydsn/command_telemetry.c ****                 {   
 349:..\Slider.cydsn/command_telemetry.c **** 
 350:..\Slider.cydsn/command_telemetry.c **** #if USE_BOOTLOADER                     
 351:..\Slider.cydsn/command_telemetry.c ****                     Timer_1_Stop();
 352:..\Slider.cydsn/command_telemetry.c ****                     Bootloadable_1_Load();
 353:..\Slider.cydsn/command_telemetry.c **** #else 
 354:..\Slider.cydsn/command_telemetry.c ****                     send_alarm_telemetry(ALARM_ERROR, cmd_str_and_param, "bootloader is disabled");
 355:..\Slider.cydsn/command_telemetry.c **** #endif // USE_BOOTLOADER  
 356:..\Slider.cydsn/command_telemetry.c ****                     break;
 357:..\Slider.cydsn/command_telemetry.c ****                 }// CMD_BOOT_START      
 358:..\Slider.cydsn/command_telemetry.c ****                 
 359:..\Slider.cydsn/command_telemetry.c ****                 case CMD_BOOT_EXIT:
 360:..\Slider.cydsn/command_telemetry.c ****                 {
 361:..\Slider.cydsn/command_telemetry.c **** #if 0                    
 362:..\Slider.cydsn/command_telemetry.c ****                     Bootloader_1_Exit(Bootloader_1_EXIT_TO_BTLDB);
 363:..\Slider.cydsn/command_telemetry.c **** #else 
 364:..\Slider.cydsn/command_telemetry.c ****                     send_alarm_telemetry(ALARM_ERROR, cmd_str_and_param, "bootloader is disabled");
 365:..\Slider.cydsn/command_telemetry.c **** #endif // USE_BOOTLOADER      
 366:..\Slider.cydsn/command_telemetry.c ****                     break;
 367:..\Slider.cydsn/command_telemetry.c ****                 }// CMD_BOOT_EXIT
 368:..\Slider.cydsn/command_telemetry.c ****                 
 369:..\Slider.cydsn/command_telemetry.c ****                 case CMD_BOOT_GET_FLASH_GEO:
 370:..\Slider.cydsn/command_telemetry.c ****                 {
 371:..\Slider.cydsn/command_telemetry.c **** #if 0                   
 372:..\Slider.cydsn/command_telemetry.c ****                     flash_checksum  = Bootloader_1_GetMetadata(Bootloader_1_GET_BTLDB_CHECKSUM, 0);
 373:..\Slider.cydsn/command_telemetry.c ****                     flash_first_row = Bootloader_1_GetMetadata(Bootloader_1_GET_BTLDB_ADDR    , 0);
 374:..\Slider.cydsn/command_telemetry.c ****                     flash_last_row  = Bootloader_1_GetMetadata(Bootloader_1_GET_BTLDR_LAST_ROW, 0);
 375:..\Slider.cydsn/command_telemetry.c ****                     flash_size      = Bootloader_1_GetMetadata(Bootloader_1_GET_BTLDB_LENGTH  , 0);
 376:..\Slider.cydsn/command_telemetry.c ****                     send_flash_geometry_telemetry(flash_checksum, flash_first_row, flash_last_row, 
 377:..\Slider.cydsn/command_telemetry.c **** #else 
 378:..\Slider.cydsn/command_telemetry.c ****                     send_alarm_telemetry(ALARM_ERROR, cmd_str_and_param, "bootloader is disabled");
 379:..\Slider.cydsn/command_telemetry.c **** #endif // USE_BOOTLOADER  
 380:..\Slider.cydsn/command_telemetry.c ****                     break;
 381:..\Slider.cydsn/command_telemetry.c ****                 }// CMD_BOOT_EXIT
 382:..\Slider.cydsn/command_telemetry.c ****                 
ARM GAS  C:\Users\MM1005~1\AppData\Local\Temp\cc36bet7.s 			page 18


 383:..\Slider.cydsn/command_telemetry.c ****                 case CMD_BOOT_UNKNOWN:
 384:..\Slider.cydsn/command_telemetry.c ****                 default              :
 385:..\Slider.cydsn/command_telemetry.c ****                 {
 386:..\Slider.cydsn/command_telemetry.c ****                     send_alarm_telemetry(ALARM_WARNING, cmd_str_and_param, "unsupported bootloader 
 387:..\Slider.cydsn/command_telemetry.c ****                     return FALSE;
 388:..\Slider.cydsn/command_telemetry.c ****                 }// CMD_TRACKER_UNKNOWN, default
 389:..\Slider.cydsn/command_telemetry.c ****             }// switch in the tracker action
 390:..\Slider.cydsn/command_telemetry.c ****             break;
 391:..\Slider.cydsn/command_telemetry.c ****             //send_alarm_telemetry(ALARM_WARNING, cmd_str_and_param, "jumping in bootloader");     
 392:..\Slider.cydsn/command_telemetry.c ****            
 393:..\Slider.cydsn/command_telemetry.c ****             break;
 394:..\Slider.cydsn/command_telemetry.c ****         }// CMD_BOOTLOADER
 395:..\Slider.cydsn/command_telemetry.c ****               
 396:..\Slider.cydsn/command_telemetry.c ****         case CMD_LED:
 397:..\Slider.cydsn/command_telemetry.c ****         {
 398:..\Slider.cydsn/command_telemetry.c ****             switch (led_cmd_id = get_led_cmd_id_from_cmd_string(param_str))
 399:..\Slider.cydsn/command_telemetry.c ****             {
 400:..\Slider.cydsn/command_telemetry.c ****                 case CMD_LED_CLEAR:
 401:..\Slider.cydsn/command_telemetry.c ****                 {
 402:..\Slider.cydsn/command_telemetry.c ****                     set_all_leds_intensity(0x00);
 403:..\Slider.cydsn/command_telemetry.c ****                     break;
 404:..\Slider.cydsn/command_telemetry.c ****                 }// CMD_LED_CLEAR
 405:..\Slider.cydsn/command_telemetry.c ****                 
 406:..\Slider.cydsn/command_telemetry.c ****                 case CMD_LED_SET_COLOR_LEFT:
 407:..\Slider.cydsn/command_telemetry.c ****                 case CMD_LED_SET_COLOR_RIGHT:
 408:..\Slider.cydsn/command_telemetry.c ****                 {
 409:..\Slider.cydsn/command_telemetry.c ****                     if ((param_str = strchr(param_str, ',')) == NULL)
 410:..\Slider.cydsn/command_telemetry.c ****                     {
 411:..\Slider.cydsn/command_telemetry.c ****                         send_alarm_telemetry(ALARM_WARNING, cmd_str_and_param, "unsupported animati
 412:..\Slider.cydsn/command_telemetry.c ****                         return FALSE;
 413:..\Slider.cydsn/command_telemetry.c ****                     }// If we can't find the next ',' character
 414:..\Slider.cydsn/command_telemetry.c ****                     
 415:..\Slider.cydsn/command_telemetry.c ****                     if ((param_str = strchr(++param_str, ':')) == NULL)
 416:..\Slider.cydsn/command_telemetry.c ****                     {
 417:..\Slider.cydsn/command_telemetry.c ****                         send_alarm_telemetry(ALARM_WARNING, cmd_str_and_param, "can't parse red fro
 418:..\Slider.cydsn/command_telemetry.c ****                         return FALSE;
 419:..\Slider.cydsn/command_telemetry.c ****                     }// If we can't find the next ':' character
 420:..\Slider.cydsn/command_telemetry.c **** 
 421:..\Slider.cydsn/command_telemetry.c ****                     // ========================================================
 422:..\Slider.cydsn/command_telemetry.c ****                     // parse red
 423:..\Slider.cydsn/command_telemetry.c ****                     // ========================================================
 424:..\Slider.cydsn/command_telemetry.c ****                     if ((param_str = strchr(++param_str, ':')) == NULL)
 425:..\Slider.cydsn/command_telemetry.c ****                     {
 426:..\Slider.cydsn/command_telemetry.c ****                         send_alarm_telemetry(ALARM_WARNING, cmd_str_and_param, "can't parse red fro
 427:..\Slider.cydsn/command_telemetry.c ****                         return FALSE;
 428:..\Slider.cydsn/command_telemetry.c ****                     }// If we can't find the next ':' character
 429:..\Slider.cydsn/command_telemetry.c **** 
 430:..\Slider.cydsn/command_telemetry.c ****                     if ((next_param_str = strchr(++param_str, ',')) == NULL)
 431:..\Slider.cydsn/command_telemetry.c ****                     {
 432:..\Slider.cydsn/command_telemetry.c ****                         send_alarm_telemetry(ALARM_WARNING, cmd_str_and_param, "can't parse red fro
 433:..\Slider.cydsn/command_telemetry.c ****                         return FALSE;
 434:..\Slider.cydsn/command_telemetry.c ****                     }// If we can't find the next ',' character
 435:..\Slider.cydsn/command_telemetry.c ****                     *next_param_str = '\0';
 436:..\Slider.cydsn/command_telemetry.c ****                     next_param_str++;
 437:..\Slider.cydsn/command_telemetry.c ****                     
 438:..\Slider.cydsn/command_telemetry.c ****                     red = atoi(param_str);
 439:..\Slider.cydsn/command_telemetry.c ****                     
ARM GAS  C:\Users\MM1005~1\AppData\Local\Temp\cc36bet7.s 			page 19


 440:..\Slider.cydsn/command_telemetry.c ****                     // ========================================================
 441:..\Slider.cydsn/command_telemetry.c ****                     // parse green
 442:..\Slider.cydsn/command_telemetry.c ****                     // ========================================================
 443:..\Slider.cydsn/command_telemetry.c ****                     if ((param_str = strchr(next_param_str, ':')) == NULL)
 444:..\Slider.cydsn/command_telemetry.c ****                     {
 445:..\Slider.cydsn/command_telemetry.c ****                         send_alarm_telemetry(ALARM_WARNING, cmd_str_and_param, "can't parse green f
 446:..\Slider.cydsn/command_telemetry.c ****                         return FALSE;
 447:..\Slider.cydsn/command_telemetry.c ****                     }// If we can't find the next ':' character
 448:..\Slider.cydsn/command_telemetry.c **** 
 449:..\Slider.cydsn/command_telemetry.c ****                     if ((next_param_str = strchr(++param_str, ',')) == NULL)
 450:..\Slider.cydsn/command_telemetry.c ****                     {
 451:..\Slider.cydsn/command_telemetry.c ****                         send_alarm_telemetry(ALARM_WARNING, cmd_str_and_param, "can't parsed green 
 452:..\Slider.cydsn/command_telemetry.c ****                         return FALSE;
 453:..\Slider.cydsn/command_telemetry.c ****                     }// If we can't find the next ',' character
 454:..\Slider.cydsn/command_telemetry.c ****                     *next_param_str = '\0';
 455:..\Slider.cydsn/command_telemetry.c ****                     next_param_str++;
 456:..\Slider.cydsn/command_telemetry.c ****                     
 457:..\Slider.cydsn/command_telemetry.c ****                     green = atoi(param_str);
 458:..\Slider.cydsn/command_telemetry.c ****                     
 459:..\Slider.cydsn/command_telemetry.c ****                     // ========================================================
 460:..\Slider.cydsn/command_telemetry.c ****                     // parse blue
 461:..\Slider.cydsn/command_telemetry.c ****                     // ========================================================
 462:..\Slider.cydsn/command_telemetry.c ****                     if ((param_str = strchr(next_param_str, ':')) == NULL)
 463:..\Slider.cydsn/command_telemetry.c ****                     {
 464:..\Slider.cydsn/command_telemetry.c ****                         send_alarm_telemetry(ALARM_WARNING, cmd_str_and_param, "can't parse green f
 465:..\Slider.cydsn/command_telemetry.c ****                         return FALSE;
 466:..\Slider.cydsn/command_telemetry.c ****                     }// If we can't find the next ':' character
 467:..\Slider.cydsn/command_telemetry.c ****                     
 468:..\Slider.cydsn/command_telemetry.c ****                     blue = atoi(++param_str);                    
 469:..\Slider.cydsn/command_telemetry.c ****                     // ========================================================
 470:..\Slider.cydsn/command_telemetry.c ****                     // execute the command
 471:..\Slider.cydsn/command_telemetry.c ****                     // ========================================================
 472:..\Slider.cydsn/command_telemetry.c ****                     if (led_cmd_id == CMD_LED_SET_COLOR_LEFT)
 473:..\Slider.cydsn/command_telemetry.c ****                     {
 474:..\Slider.cydsn/command_telemetry.c ****                         set_led(E_LED_LEFT_RED  ,  red  );
 475:..\Slider.cydsn/command_telemetry.c ****                         set_led(E_LED_LEFT_GREEN,  green);
 476:..\Slider.cydsn/command_telemetry.c ****                         set_led(E_LED_LEFT_BLUE ,  blue );
 477:..\Slider.cydsn/command_telemetry.c ****                     }// if it's the left colored LED
 478:..\Slider.cydsn/command_telemetry.c ****                     else
 479:..\Slider.cydsn/command_telemetry.c ****                     {
 480:..\Slider.cydsn/command_telemetry.c ****                         set_led(E_LED_RIGHT_RED  ,  red  );
 481:..\Slider.cydsn/command_telemetry.c ****                         set_led(E_LED_RIGHT_GREEN,  green);
 482:..\Slider.cydsn/command_telemetry.c ****                         set_led(E_LED_RIGHT_BLUE ,  blue );
 483:..\Slider.cydsn/command_telemetry.c ****                     }// if it's the right colored LED
 484:..\Slider.cydsn/command_telemetry.c ****                     
 485:..\Slider.cydsn/command_telemetry.c ****                     break;
 486:..\Slider.cydsn/command_telemetry.c ****                 }// CMD_LED_SET_COLOR_LEFT
 487:..\Slider.cydsn/command_telemetry.c ****                 
 488:..\Slider.cydsn/command_telemetry.c ****                 case CMD_LED_SET_WHITE:
 489:..\Slider.cydsn/command_telemetry.c ****                 {
 490:..\Slider.cydsn/command_telemetry.c ****                     if ((param_str = strchr(param_str, ',')) == NULL)
 491:..\Slider.cydsn/command_telemetry.c ****                     {
 492:..\Slider.cydsn/command_telemetry.c ****                         send_alarm_telemetry(ALARM_WARNING, cmd_str_and_param, "unsupported animati
 493:..\Slider.cydsn/command_telemetry.c ****                         return FALSE;
 494:..\Slider.cydsn/command_telemetry.c ****                     }// If we can't find the next ',' character
 495:..\Slider.cydsn/command_telemetry.c ****                     
 496:..\Slider.cydsn/command_telemetry.c ****                     if ((param_str = strchr(++param_str, ':')) == NULL)
ARM GAS  C:\Users\MM1005~1\AppData\Local\Temp\cc36bet7.s 			page 20


 497:..\Slider.cydsn/command_telemetry.c ****                     {
 498:..\Slider.cydsn/command_telemetry.c ****                         send_alarm_telemetry(ALARM_WARNING, cmd_str_and_param, "can't parse LED ind
 499:..\Slider.cydsn/command_telemetry.c ****                         return FALSE;
 500:..\Slider.cydsn/command_telemetry.c ****                     }// If we can't find the next ':' character
 501:..\Slider.cydsn/command_telemetry.c **** 
 502:..\Slider.cydsn/command_telemetry.c ****                     // ========================================================
 503:..\Slider.cydsn/command_telemetry.c ****                     // parse index
 504:..\Slider.cydsn/command_telemetry.c ****                     // ========================================================
 505:..\Slider.cydsn/command_telemetry.c ****                     if ((param_str = strchr(++param_str, ':')) == NULL)
 506:..\Slider.cydsn/command_telemetry.c ****                     {
 507:..\Slider.cydsn/command_telemetry.c ****                         send_alarm_telemetry(ALARM_WARNING, cmd_str_and_param, "can't parse LED ind
 508:..\Slider.cydsn/command_telemetry.c ****                         return FALSE;
 509:..\Slider.cydsn/command_telemetry.c ****                     }// If we can't find the next ':' character
 510:..\Slider.cydsn/command_telemetry.c **** 
 511:..\Slider.cydsn/command_telemetry.c ****                     if ((next_param_str = strchr(++param_str, ',')) == NULL)
 512:..\Slider.cydsn/command_telemetry.c ****                     {
 513:..\Slider.cydsn/command_telemetry.c ****                         send_alarm_telemetry(ALARM_WARNING, cmd_str_and_param, "can't parse LED ind
 514:..\Slider.cydsn/command_telemetry.c ****                         return FALSE;
 515:..\Slider.cydsn/command_telemetry.c ****                     }// If we can't find the next ',' character
 516:..\Slider.cydsn/command_telemetry.c ****                     *next_param_str = '\0';
 517:..\Slider.cydsn/command_telemetry.c ****                     next_param_str++;
 518:..\Slider.cydsn/command_telemetry.c ****                     
 519:..\Slider.cydsn/command_telemetry.c ****                     led_index = atoi(param_str);
 520:..\Slider.cydsn/command_telemetry.c ****                     
 521:..\Slider.cydsn/command_telemetry.c ****                     if ((led_index < 0) || (led_index >= NUMBER_OF_WHITE_LEDS))
 522:..\Slider.cydsn/command_telemetry.c ****                     {
 523:..\Slider.cydsn/command_telemetry.c ****                         send_alarm_telemetry(ALARM_WARNING, cmd_str_and_param, "invalid led index")
 524:..\Slider.cydsn/command_telemetry.c ****                         return FALSE;
 525:..\Slider.cydsn/command_telemetry.c ****                     }
 526:..\Slider.cydsn/command_telemetry.c ****                     
 527:..\Slider.cydsn/command_telemetry.c ****                     // ========================================================
 528:..\Slider.cydsn/command_telemetry.c ****                     // parse led intensity
 529:..\Slider.cydsn/command_telemetry.c ****                     // ========================================================
 530:..\Slider.cydsn/command_telemetry.c ****                     if ((param_str = strchr(next_param_str, ':')) == NULL)
 531:..\Slider.cydsn/command_telemetry.c ****                     {
 532:..\Slider.cydsn/command_telemetry.c ****                         send_alarm_telemetry(ALARM_WARNING, cmd_str_and_param, "can't parse green f
 533:..\Slider.cydsn/command_telemetry.c ****                         return FALSE;
 534:..\Slider.cydsn/command_telemetry.c ****                     }// If we can't find the next ':' character
 535:..\Slider.cydsn/command_telemetry.c ****                     
 536:..\Slider.cydsn/command_telemetry.c ****                     led_intensity = atoi(++param_str);     
 537:..\Slider.cydsn/command_telemetry.c ****                     
 538:..\Slider.cydsn/command_telemetry.c ****                     // ========================================================
 539:..\Slider.cydsn/command_telemetry.c ****                     // execute the command
 540:..\Slider.cydsn/command_telemetry.c ****                     // ========================================================
 541:..\Slider.cydsn/command_telemetry.c ****                     set_led(led_index, led_intensity);
 542:..\Slider.cydsn/command_telemetry.c ****                     break;
 543:..\Slider.cydsn/command_telemetry.c ****                 }// CMD_LED_SET_WHITE
 544:..\Slider.cydsn/command_telemetry.c ****                 
 545:..\Slider.cydsn/command_telemetry.c ****                 case CMD_LED_SET_STRIP:
 546:..\Slider.cydsn/command_telemetry.c ****                 {
 547:..\Slider.cydsn/command_telemetry.c ****                     if ((param_str = strchr(param_str, ',')) == NULL)
 548:..\Slider.cydsn/command_telemetry.c ****                     {
 549:..\Slider.cydsn/command_telemetry.c ****                         send_alarm_telemetry(ALARM_WARNING, cmd_str_and_param, "can't parse LED str
 550:..\Slider.cydsn/command_telemetry.c ****                         return FALSE;
 551:..\Slider.cydsn/command_telemetry.c ****                     }// If we can't find the next ',' character
 552:..\Slider.cydsn/command_telemetry.c ****                     
 553:..\Slider.cydsn/command_telemetry.c ****                     if ((param_str = strchr(++param_str, ',')) == NULL)
ARM GAS  C:\Users\MM1005~1\AppData\Local\Temp\cc36bet7.s 			page 21


 554:..\Slider.cydsn/command_telemetry.c ****                     {
 555:..\Slider.cydsn/command_telemetry.c ****                         send_alarm_telemetry(ALARM_WARNING, cmd_str_and_param, "can't parse LED str
 556:..\Slider.cydsn/command_telemetry.c ****                         return FALSE;
 557:..\Slider.cydsn/command_telemetry.c ****                     }// If we can't find the next ',' character 
 558:..\Slider.cydsn/command_telemetry.c ****                     
 559:..\Slider.cydsn/command_telemetry.c ****                     if ((param_str = strchr(++param_str, ':')) == NULL)
 560:..\Slider.cydsn/command_telemetry.c ****                     {
 561:..\Slider.cydsn/command_telemetry.c ****                         send_alarm_telemetry(ALARM_WARNING, cmd_str_and_param, "can't parse LED str
 562:..\Slider.cydsn/command_telemetry.c ****                         return FALSE;
 563:..\Slider.cydsn/command_telemetry.c ****                     }// If we can't find the next ':' character
 564:..\Slider.cydsn/command_telemetry.c ****                     
 565:..\Slider.cydsn/command_telemetry.c ****                     memset(led_vec, 0, sizeof(led_vec));
 566:..\Slider.cydsn/command_telemetry.c ****                     
 567:..\Slider.cydsn/command_telemetry.c ****                     //=========================================================
 568:..\Slider.cydsn/command_telemetry.c ****                     // left red
 569:..\Slider.cydsn/command_telemetry.c ****                     //=========================================================
 570:..\Slider.cydsn/command_telemetry.c ****                     if ((param_str = strchr(++param_str, '\"')) == NULL)
 571:..\Slider.cydsn/command_telemetry.c ****                     {
 572:..\Slider.cydsn/command_telemetry.c ****                         send_alarm_telemetry(ALARM_WARNING, cmd_str_and_param, "can't parse LED str
 573:..\Slider.cydsn/command_telemetry.c ****                         return FALSE;
 574:..\Slider.cydsn/command_telemetry.c ****                     }// If we can't find the next '"' character
 575:..\Slider.cydsn/command_telemetry.c ****                     param_str++;  
 576:..\Slider.cydsn/command_telemetry.c ****                     led_vec[E_LED_LEFT_RED] = atoi(param_str);
 577:..\Slider.cydsn/command_telemetry.c ****                  
 578:..\Slider.cydsn/command_telemetry.c ****                     //=========================================================
 579:..\Slider.cydsn/command_telemetry.c ****                     // left green
 580:..\Slider.cydsn/command_telemetry.c ****                     //=========================================================
 581:..\Slider.cydsn/command_telemetry.c ****                     if ((param_str = strchr(param_str, '-')) == NULL)
 582:..\Slider.cydsn/command_telemetry.c ****                     {
 583:..\Slider.cydsn/command_telemetry.c ****                         send_alarm_telemetry(ALARM_WARNING, cmd_str_and_param, "can't parse LED str
 584:..\Slider.cydsn/command_telemetry.c ****                         return FALSE;
 585:..\Slider.cydsn/command_telemetry.c ****                     }// If we can't find the next '-' character
 586:..\Slider.cydsn/command_telemetry.c ****                     param_str++;
 587:..\Slider.cydsn/command_telemetry.c ****                     led_vec[E_LED_LEFT_GREEN] = atoi(param_str);
 588:..\Slider.cydsn/command_telemetry.c ****                     
 589:..\Slider.cydsn/command_telemetry.c ****                     //=========================================================
 590:..\Slider.cydsn/command_telemetry.c ****                     // left blue
 591:..\Slider.cydsn/command_telemetry.c ****                     //=========================================================
 592:..\Slider.cydsn/command_telemetry.c ****                     if ((param_str = strchr(param_str, '-')) == NULL)
 593:..\Slider.cydsn/command_telemetry.c ****                     {
 594:..\Slider.cydsn/command_telemetry.c ****                         send_alarm_telemetry(ALARM_WARNING, cmd_str_and_param, "can't parse LED str
 595:..\Slider.cydsn/command_telemetry.c ****                         return FALSE;
 596:..\Slider.cydsn/command_telemetry.c ****                     }// If we can't find the next '-' character
 597:..\Slider.cydsn/command_telemetry.c ****                     param_str++;
 598:..\Slider.cydsn/command_telemetry.c ****                     led_vec[E_LED_LEFT_BLUE] = atoi(param_str);
 599:..\Slider.cydsn/command_telemetry.c ****                     
 600:..\Slider.cydsn/command_telemetry.c ****                     //=========================================================
 601:..\Slider.cydsn/command_telemetry.c ****                     // All whites
 602:..\Slider.cydsn/command_telemetry.c ****                     //=========================================================                    
 603:..\Slider.cydsn/command_telemetry.c ****                     for(i = 0; i < NUMBER_OF_WHITE_LEDS; i++)
 604:..\Slider.cydsn/command_telemetry.c ****                     {
 605:..\Slider.cydsn/command_telemetry.c ****                         if ((param_str = strchr(param_str, '-')) == NULL)
 606:..\Slider.cydsn/command_telemetry.c ****                         {
 607:..\Slider.cydsn/command_telemetry.c ****                             send_alarm_telemetry(ALARM_WARNING, cmd_str_and_param, "can't parse LED
 608:..\Slider.cydsn/command_telemetry.c ****                             return FALSE;
 609:..\Slider.cydsn/command_telemetry.c ****                         }// If we can't find the next '-' character
 610:..\Slider.cydsn/command_telemetry.c ****                         param_str++;
ARM GAS  C:\Users\MM1005~1\AppData\Local\Temp\cc36bet7.s 			page 22


 611:..\Slider.cydsn/command_telemetry.c ****                         led_vec[i] = atoi(param_str);
 612:..\Slider.cydsn/command_telemetry.c ****                     }// for all the white LEDS
 613:..\Slider.cydsn/command_telemetry.c ****                     
 614:..\Slider.cydsn/command_telemetry.c ****                     //=========================================================
 615:..\Slider.cydsn/command_telemetry.c ****                     // right red
 616:..\Slider.cydsn/command_telemetry.c ****                     //=========================================================
 617:..\Slider.cydsn/command_telemetry.c ****                     if ((param_str = strchr(param_str, '-')) == NULL)
 618:..\Slider.cydsn/command_telemetry.c ****                     {
 619:..\Slider.cydsn/command_telemetry.c ****                         send_alarm_telemetry(ALARM_WARNING, cmd_str_and_param, "can't parse LED str
 620:..\Slider.cydsn/command_telemetry.c ****                         return FALSE;
 621:..\Slider.cydsn/command_telemetry.c ****                     }// If we can't find the next '-' character
 622:..\Slider.cydsn/command_telemetry.c ****                     param_str++;
 623:..\Slider.cydsn/command_telemetry.c ****                     led_vec[E_LED_RIGHT_RED] = atoi(param_str);
 624:..\Slider.cydsn/command_telemetry.c ****                     
 625:..\Slider.cydsn/command_telemetry.c ****                     //=========================================================
 626:..\Slider.cydsn/command_telemetry.c ****                     // right green
 627:..\Slider.cydsn/command_telemetry.c ****                     //=========================================================
 628:..\Slider.cydsn/command_telemetry.c ****                     if ((param_str = strchr(param_str, '-')) == NULL)
 629:..\Slider.cydsn/command_telemetry.c ****                     {
 630:..\Slider.cydsn/command_telemetry.c ****                         send_alarm_telemetry(ALARM_WARNING, cmd_str_and_param, "can't parse LED str
 631:..\Slider.cydsn/command_telemetry.c ****                         return FALSE;
 632:..\Slider.cydsn/command_telemetry.c ****                     }// If we can't find the next '-' character
 633:..\Slider.cydsn/command_telemetry.c ****                     param_str++;
 634:..\Slider.cydsn/command_telemetry.c ****                     led_vec[E_LED_RIGHT_GREEN] = atoi(param_str);
 635:..\Slider.cydsn/command_telemetry.c ****                     
 636:..\Slider.cydsn/command_telemetry.c ****                     //=========================================================
 637:..\Slider.cydsn/command_telemetry.c ****                     // right blue
 638:..\Slider.cydsn/command_telemetry.c ****                     //=========================================================
 639:..\Slider.cydsn/command_telemetry.c ****                     if ((param_str = strchr(param_str, '-')) == NULL)
 640:..\Slider.cydsn/command_telemetry.c ****                     {
 641:..\Slider.cydsn/command_telemetry.c ****                         send_alarm_telemetry(ALARM_WARNING, cmd_str_and_param, "can't parse LED str
 642:..\Slider.cydsn/command_telemetry.c ****                         return FALSE;
 643:..\Slider.cydsn/command_telemetry.c ****                     }// If we can't find the next '-' character
 644:..\Slider.cydsn/command_telemetry.c ****                     param_str++;
 645:..\Slider.cydsn/command_telemetry.c ****                     led_vec[E_LED_RIGHT_BLUE] = atoi(param_str);
 646:..\Slider.cydsn/command_telemetry.c ****                     
 647:..\Slider.cydsn/command_telemetry.c ****                     set_led_strip(led_vec);
 648:..\Slider.cydsn/command_telemetry.c ****                     break;
 649:..\Slider.cydsn/command_telemetry.c ****                 }// CMD_LED_SET_STRIP
 650:..\Slider.cydsn/command_telemetry.c ****                 
 651:..\Slider.cydsn/command_telemetry.c ****                 case CMD_LED_UNKNOWN:
 652:..\Slider.cydsn/command_telemetry.c ****                 default             :
 653:..\Slider.cydsn/command_telemetry.c ****                 {
 654:..\Slider.cydsn/command_telemetry.c ****                     send_alarm_telemetry(ALARM_WARNING, cmd_str_and_param, "unsupported led action"
 655:..\Slider.cydsn/command_telemetry.c ****                     return FALSE;
 656:..\Slider.cydsn/command_telemetry.c ****                 }// CMD_LED_UNKNOWN, default
 657:..\Slider.cydsn/command_telemetry.c ****             }// switch on the led command
 658:..\Slider.cydsn/command_telemetry.c ****             
 659:..\Slider.cydsn/command_telemetry.c ****             break;
 660:..\Slider.cydsn/command_telemetry.c ****         }// CMD_LED
 661:..\Slider.cydsn/command_telemetry.c ****         
 662:..\Slider.cydsn/command_telemetry.c ****         case CMD_SENSOR:
 663:..\Slider.cydsn/command_telemetry.c ****         {
 664:..\Slider.cydsn/command_telemetry.c ****             if ((param_str = strchr(param_str, ',')) == NULL)
 665:..\Slider.cydsn/command_telemetry.c ****             {
 666:..\Slider.cydsn/command_telemetry.c ****                 send_alarm_telemetry(ALARM_WARNING, cmd_str_and_param, "unsupported sensor action")
 667:..\Slider.cydsn/command_telemetry.c ****                 return FALSE;
ARM GAS  C:\Users\MM1005~1\AppData\Local\Temp\cc36bet7.s 			page 23


 668:..\Slider.cydsn/command_telemetry.c ****             }// If we can't find the next ',' character
 669:..\Slider.cydsn/command_telemetry.c ****             
 670:..\Slider.cydsn/command_telemetry.c ****             if ((param_str = strchr(++param_str, ':')) == NULL)
 671:..\Slider.cydsn/command_telemetry.c ****             {
 672:..\Slider.cydsn/command_telemetry.c ****                 send_alarm_telemetry(ALARM_WARNING, cmd_str_and_param, "unsupported sensor action")
 673:..\Slider.cydsn/command_telemetry.c ****                 return FALSE;
 674:..\Slider.cydsn/command_telemetry.c ****             }// If we can't find the next ':' character
 675:..\Slider.cydsn/command_telemetry.c ****             param_str++;
 676:..\Slider.cydsn/command_telemetry.c ****             
 677:..\Slider.cydsn/command_telemetry.c ****             switch (sensor_cmd_id = get_sensor_cmd_id_from_cmd_string(param_str))
 678:..\Slider.cydsn/command_telemetry.c ****             {
 679:..\Slider.cydsn/command_telemetry.c ****                 case CMD_SENSOR_DISABLE:
 680:..\Slider.cydsn/command_telemetry.c ****                 {
 681:..\Slider.cydsn/command_telemetry.c ****                     set_is_sensor_telemetry_enable(FALSE);
 682:..\Slider.cydsn/command_telemetry.c ****                     break;
 683:..\Slider.cydsn/command_telemetry.c ****                 }// CMD_TRACKER_DISABLE      
 684:..\Slider.cydsn/command_telemetry.c ****                 
 685:..\Slider.cydsn/command_telemetry.c ****                 case CMD_SENSOR_ENABLE:
 686:..\Slider.cydsn/command_telemetry.c ****                 {
 687:..\Slider.cydsn/command_telemetry.c ****                     set_is_sensor_telemetry_enable(TRUE);
 688:..\Slider.cydsn/command_telemetry.c ****                     break;
 689:..\Slider.cydsn/command_telemetry.c ****                 }// CMD_TRACKER_ENABLE
 690:..\Slider.cydsn/command_telemetry.c ****                 
 691:..\Slider.cydsn/command_telemetry.c ****                 case CMD_SENSOR_UNKNOWN:
 692:..\Slider.cydsn/command_telemetry.c ****                 default                 :
 693:..\Slider.cydsn/command_telemetry.c ****                 {
 694:..\Slider.cydsn/command_telemetry.c ****                     send_alarm_telemetry(ALARM_WARNING, cmd_str_and_param, "unsupported sensor acti
 695:..\Slider.cydsn/command_telemetry.c ****                     return FALSE;
 696:..\Slider.cydsn/command_telemetry.c ****                 }// CMD_TRACKER_UNKNOWN, default
 697:..\Slider.cydsn/command_telemetry.c ****             }// switch in the tracker action
 698:..\Slider.cydsn/command_telemetry.c ****             break;
 699:..\Slider.cydsn/command_telemetry.c ****         }// CMD_SENSOR
 700:..\Slider.cydsn/command_telemetry.c ****         
 701:..\Slider.cydsn/command_telemetry.c ****        case CMD_TELEMETRY:
 702:..\Slider.cydsn/command_telemetry.c ****         {
 703:..\Slider.cydsn/command_telemetry.c ****             if ((param_str = strchr(param_str, ',')) == NULL)
 704:..\Slider.cydsn/command_telemetry.c ****             {
 705:..\Slider.cydsn/command_telemetry.c ****                 send_alarm_telemetry(ALARM_WARNING, cmd_str_and_param, "unsupported telemetry actio
 706:..\Slider.cydsn/command_telemetry.c ****                 return FALSE;
 707:..\Slider.cydsn/command_telemetry.c ****             }// If we can't find the next ',' character
 708:..\Slider.cydsn/command_telemetry.c ****             
 709:..\Slider.cydsn/command_telemetry.c ****             if ((param_str = strchr(++param_str, ':')) == NULL)
 710:..\Slider.cydsn/command_telemetry.c ****             {
 711:..\Slider.cydsn/command_telemetry.c ****                 send_alarm_telemetry(ALARM_WARNING, cmd_str_and_param, "unsupported telemetry actio
 712:..\Slider.cydsn/command_telemetry.c ****                 return FALSE;
 713:..\Slider.cydsn/command_telemetry.c ****             }// If we can't find the next ':' character
 714:..\Slider.cydsn/command_telemetry.c ****             param_str++;
 715:..\Slider.cydsn/command_telemetry.c ****             
 716:..\Slider.cydsn/command_telemetry.c ****             switch (telemetry_cmd_id = get_telemetry_cmd_id_from_cmd_string(param_str))
 717:..\Slider.cydsn/command_telemetry.c ****             {
 718:..\Slider.cydsn/command_telemetry.c ****                 case CMD_TELEMETRY_DISABLE:
 719:..\Slider.cydsn/command_telemetry.c ****                 {
 720:..\Slider.cydsn/command_telemetry.c ****                     set_is_telemetry_enable(FALSE);
 721:..\Slider.cydsn/command_telemetry.c ****                     break;
 722:..\Slider.cydsn/command_telemetry.c ****                 }// CMD_TRACKER_DISABLE      
 723:..\Slider.cydsn/command_telemetry.c ****                 
 724:..\Slider.cydsn/command_telemetry.c ****                 case CMD_TELEMETRY_ENABLE:
ARM GAS  C:\Users\MM1005~1\AppData\Local\Temp\cc36bet7.s 			page 24


 725:..\Slider.cydsn/command_telemetry.c ****                 {
 726:..\Slider.cydsn/command_telemetry.c ****                     set_is_telemetry_enable(TRUE);
 727:..\Slider.cydsn/command_telemetry.c ****                     break;
 728:..\Slider.cydsn/command_telemetry.c ****                 }// CMD_TRACKER_ENABLE
 729:..\Slider.cydsn/command_telemetry.c ****                 
 730:..\Slider.cydsn/command_telemetry.c ****                 case CMD_TELEMETRY_UNKNOWN:
 731:..\Slider.cydsn/command_telemetry.c ****                 default                   :
 732:..\Slider.cydsn/command_telemetry.c ****                 {
 733:..\Slider.cydsn/command_telemetry.c ****                     send_alarm_telemetry(ALARM_WARNING, cmd_str_and_param, "unsupported telemetry a
 734:..\Slider.cydsn/command_telemetry.c ****                     return FALSE;
 735:..\Slider.cydsn/command_telemetry.c ****                 }// CMD_TRACKER_UNKNOWN, default
 736:..\Slider.cydsn/command_telemetry.c ****             }// switch in the tracker action
 737:..\Slider.cydsn/command_telemetry.c ****             break;
 738:..\Slider.cydsn/command_telemetry.c ****         }// CMD_TELEMETRY
 739:..\Slider.cydsn/command_telemetry.c **** 
 740:..\Slider.cydsn/command_telemetry.c ****         case CMD_TRACKER:
 741:..\Slider.cydsn/command_telemetry.c ****         {
 742:..\Slider.cydsn/command_telemetry.c ****             if ((param_str = strchr(param_str, ',')) == NULL)
 743:..\Slider.cydsn/command_telemetry.c ****             {
 744:..\Slider.cydsn/command_telemetry.c ****                 send_alarm_telemetry(ALARM_WARNING, cmd_str_and_param, "unsupported tracker action"
 745:..\Slider.cydsn/command_telemetry.c ****                 return FALSE;
 746:..\Slider.cydsn/command_telemetry.c ****             }// If we can't find the next ',' character
 747:..\Slider.cydsn/command_telemetry.c ****             
 748:..\Slider.cydsn/command_telemetry.c ****             if ((param_str = strchr(++param_str, ':')) == NULL)
 749:..\Slider.cydsn/command_telemetry.c ****             {
 750:..\Slider.cydsn/command_telemetry.c ****                 send_alarm_telemetry(ALARM_WARNING, cmd_str_and_param, "unsupported tracker action"
 751:..\Slider.cydsn/command_telemetry.c ****                 return FALSE;
 752:..\Slider.cydsn/command_telemetry.c ****             }// If we can't find the next ':' character
 753:..\Slider.cydsn/command_telemetry.c ****             param_str++;
 754:..\Slider.cydsn/command_telemetry.c ****             
 755:..\Slider.cydsn/command_telemetry.c ****             switch (tracker_cmd_id = get_tracker_cmd_id_from_cmd_string(param_str))
 756:..\Slider.cydsn/command_telemetry.c ****             {
 757:..\Slider.cydsn/command_telemetry.c ****                 case CMD_TRACKER_DISABLE:
 758:..\Slider.cydsn/command_telemetry.c ****                 {
 759:..\Slider.cydsn/command_telemetry.c ****                     set_is_tracker_enable(FALSE);
 760:..\Slider.cydsn/command_telemetry.c ****                     break;
 761:..\Slider.cydsn/command_telemetry.c ****                 }// CMD_TRACKER_DISABLE      
 762:..\Slider.cydsn/command_telemetry.c ****                 
 763:..\Slider.cydsn/command_telemetry.c ****                 case CMD_TRACKER_ENABLE:
 764:..\Slider.cydsn/command_telemetry.c ****                 {
 765:..\Slider.cydsn/command_telemetry.c ****                     set_is_tracker_enable(TRUE);
 766:..\Slider.cydsn/command_telemetry.c ****                     break;
 767:..\Slider.cydsn/command_telemetry.c ****                 }// CMD_TRACKER_ENABLE
 768:..\Slider.cydsn/command_telemetry.c ****                 
 769:..\Slider.cydsn/command_telemetry.c ****                 case CMD_TRACKER_SET_BUTTON:
 770:..\Slider.cydsn/command_telemetry.c ****                 {
 771:..\Slider.cydsn/command_telemetry.c ****                     if ((param_str = strchr(param_str, ',')) == NULL)
 772:..\Slider.cydsn/command_telemetry.c ****                     {
 773:..\Slider.cydsn/command_telemetry.c ****                         send_alarm_telemetry(ALARM_WARNING, cmd_str_and_param, "unsupported tracker
 774:..\Slider.cydsn/command_telemetry.c ****                         return FALSE;
 775:..\Slider.cydsn/command_telemetry.c ****                     }// If we can't find the next ',' character
 776:..\Slider.cydsn/command_telemetry.c ****             
 777:..\Slider.cydsn/command_telemetry.c ****                     if ((param_str = strchr(++param_str, ':')) == NULL)
 778:..\Slider.cydsn/command_telemetry.c ****                     {
 779:..\Slider.cydsn/command_telemetry.c ****                         send_alarm_telemetry(ALARM_WARNING, cmd_str_and_param, "unsupported tracker
 780:..\Slider.cydsn/command_telemetry.c ****                         return FALSE;
 781:..\Slider.cydsn/command_telemetry.c ****                     }// If we can't find the next ':' character
ARM GAS  C:\Users\MM1005~1\AppData\Local\Temp\cc36bet7.s 			page 25


 782:..\Slider.cydsn/command_telemetry.c ****                     param_str++;
 783:..\Slider.cydsn/command_telemetry.c ****                     set_number_of_buttons (atoi(param_str));
 784:..\Slider.cydsn/command_telemetry.c ****                     break;
 785:..\Slider.cydsn/command_telemetry.c ****                 }// CMD_TRACKER_SET_BUTTON
 786:..\Slider.cydsn/command_telemetry.c ****                 
 787:..\Slider.cydsn/command_telemetry.c ****                 case CMD_TRACKER_UNKNOWN:
 788:..\Slider.cydsn/command_telemetry.c ****                 default                 :
 789:..\Slider.cydsn/command_telemetry.c ****                 {
 790:..\Slider.cydsn/command_telemetry.c ****                     send_alarm_telemetry(ALARM_WARNING, cmd_str_and_param, "unsupported tracker act
 791:..\Slider.cydsn/command_telemetry.c ****                     return FALSE;
 792:..\Slider.cydsn/command_telemetry.c ****                 }// CMD_TRACKER_UNKNOWN, default
 793:..\Slider.cydsn/command_telemetry.c ****             }// switch in the tracker action
 794:..\Slider.cydsn/command_telemetry.c ****             break;
 795:..\Slider.cydsn/command_telemetry.c ****         }// CMD_TRACKER
 796:..\Slider.cydsn/command_telemetry.c ****         
 797:..\Slider.cydsn/command_telemetry.c ****         case CMD_VERSION:
 798:..\Slider.cydsn/command_telemetry.c ****         {
 799:..\Slider.cydsn/command_telemetry.c ****             send_alarm_telemetry(ALARM_INFO, "version", get_software_version());
 800:..\Slider.cydsn/command_telemetry.c ****             break;
 801:..\Slider.cydsn/command_telemetry.c ****         }// CMD_VERSION
 802:..\Slider.cydsn/command_telemetry.c ****         
 803:..\Slider.cydsn/command_telemetry.c ****         case CMD_UNKNOWN:
 804:..\Slider.cydsn/command_telemetry.c ****         default         :
 805:..\Slider.cydsn/command_telemetry.c ****         {
 806:..\Slider.cydsn/command_telemetry.c ****             send_alarm_telemetry(ALARM_WARNING, cmd_str_and_param, "unsupported command");
 807:..\Slider.cydsn/command_telemetry.c ****             return FALSE;
 808:..\Slider.cydsn/command_telemetry.c ****         }// default
 809:..\Slider.cydsn/command_telemetry.c ****     }// switch cmd id
 810:..\Slider.cydsn/command_telemetry.c ****     
 811:..\Slider.cydsn/command_telemetry.c ****     return TRUE; // the command succeed 
 812:..\Slider.cydsn/command_telemetry.c **** }// parse_and_execute_command
 813:..\Slider.cydsn/command_telemetry.c **** 
 814:..\Slider.cydsn/command_telemetry.c **** //=============================================================================
 815:..\Slider.cydsn/command_telemetry.c **** //============================================ send_bootloader_config_telemetry
 816:..\Slider.cydsn/command_telemetry.c **** //=============================================================================
 817:..\Slider.cydsn/command_telemetry.c **** void send_bootloader_config_telemetry(void)
 818:..\Slider.cydsn/command_telemetry.c **** {
 572              		.loc 1 818 0
 573              		.cfi_startproc
 819:..\Slider.cydsn/command_telemetry.c ****     // FIXME!
 820:..\Slider.cydsn/command_telemetry.c **** }// send_bootloader_config_telemetry
 574              		.loc 1 820 0
 575              		@ sp needed
 576 0000 7047     		bx	lr
 577              		.cfi_endproc
 578              	.LFE44:
 579              		.size	send_bootloader_config_telemetry, .-send_bootloader_config_telemetry
 580 0002 C046     		.section	.text.send_telemetry_capsense,"ax",%progbits
 581              		.align	2
 582              		.global	send_telemetry_capsense
 583              		.code	16
 584              		.thumb_func
 585              		.type	send_telemetry_capsense, %function
 586              	send_telemetry_capsense:
 587              	.LFB47:
 821:..\Slider.cydsn/command_telemetry.c **** 
 822:..\Slider.cydsn/command_telemetry.c **** //=============================================================================
ARM GAS  C:\Users\MM1005~1\AppData\Local\Temp\cc36bet7.s 			page 26


 823:..\Slider.cydsn/command_telemetry.c **** //======================================================== send_alarm_telemetry
 824:..\Slider.cydsn/command_telemetry.c **** //=============================================================================
 825:..\Slider.cydsn/command_telemetry.c **** void send_alarm_telemetry(t_enum_alarm_type alarm_type, const char* source, const char* description
 826:..\Slider.cydsn/command_telemetry.c **** {
 827:..\Slider.cydsn/command_telemetry.c ****     const char* alarm_string[ALARM_UNKNOWN] = {"log", "info", "warning", "error", "fatal"};
 828:..\Slider.cydsn/command_telemetry.c ****  
 829:..\Slider.cydsn/command_telemetry.c ****     memset(telemetry, '\0', sizeof(telemetry));
 830:..\Slider.cydsn/command_telemetry.c ****     
 831:..\Slider.cydsn/command_telemetry.c ****     strcpy(telemetry, "{\"event\":\"alarm\", \"type\":\"");
 832:..\Slider.cydsn/command_telemetry.c ****     strcat(telemetry, alarm_string[alarm_type]);
 833:..\Slider.cydsn/command_telemetry.c ****     strcat(telemetry, "\", \"source\":\"");
 834:..\Slider.cydsn/command_telemetry.c ****     strcat(telemetry, source);
 835:..\Slider.cydsn/command_telemetry.c ****     strcat(telemetry, "\", \"description\":\"");
 836:..\Slider.cydsn/command_telemetry.c ****     strcat(telemetry, description);
 837:..\Slider.cydsn/command_telemetry.c ****     strcat(telemetry, "\"}");
 838:..\Slider.cydsn/command_telemetry.c ****     
 839:..\Slider.cydsn/command_telemetry.c ****     send_telemetry(telemetry);
 840:..\Slider.cydsn/command_telemetry.c **** }// send_alarm_telemetry
 841:..\Slider.cydsn/command_telemetry.c **** 
 842:..\Slider.cydsn/command_telemetry.c **** //=============================================================================
 843:..\Slider.cydsn/command_telemetry.c **** //==================================================== send_animation_telemetry
 844:..\Slider.cydsn/command_telemetry.c **** //=============================================================================
 845:..\Slider.cydsn/command_telemetry.c **** void send_animation_telemetry(t_enum_animation animation_index, const char* action)
 846:..\Slider.cydsn/command_telemetry.c **** {
 847:..\Slider.cydsn/command_telemetry.c ****     t_struct_animation animation;
 848:..\Slider.cydsn/command_telemetry.c ****  
 849:..\Slider.cydsn/command_telemetry.c ****     get_animation(animation_index, &animation);
 850:..\Slider.cydsn/command_telemetry.c ****     
 851:..\Slider.cydsn/command_telemetry.c ****     memset(telemetry, '\0', sizeof(telemetry));
 852:..\Slider.cydsn/command_telemetry.c ****     strcpy(telemetry, "{\"event\":\"animation\", \"name\":\"");
 853:..\Slider.cydsn/command_telemetry.c ****     strcat(telemetry, animation.description);
 854:..\Slider.cydsn/command_telemetry.c ****     strcat(telemetry, "\", \"action\":\"");
 855:..\Slider.cydsn/command_telemetry.c ****     strcat(telemetry, action);
 856:..\Slider.cydsn/command_telemetry.c ****     strcat(telemetry, "\"}");
 857:..\Slider.cydsn/command_telemetry.c ****     
 858:..\Slider.cydsn/command_telemetry.c ****     send_telemetry(telemetry);
 859:..\Slider.cydsn/command_telemetry.c **** }// send_animation_telemetry
 860:..\Slider.cydsn/command_telemetry.c **** 
 861:..\Slider.cydsn/command_telemetry.c **** //=============================================================================
 862:..\Slider.cydsn/command_telemetry.c **** //===================================================== send_telemetry_capsense
 863:..\Slider.cydsn/command_telemetry.c **** //=============================================================================
 864:..\Slider.cydsn/command_telemetry.c **** void send_telemetry_capsense(void)
 865:..\Slider.cydsn/command_telemetry.c **** {
 588              		.loc 1 865 0
 589              		.cfi_startproc
 866:..\Slider.cydsn/command_telemetry.c **** #ifndef PROFESSOR
 867:..\Slider.cydsn/command_telemetry.c ****     uint16 i;
 868:..\Slider.cydsn/command_telemetry.c ****     uint16 nb_sensors = CapSense_GET_SENSOR_COUNT(0);
 869:..\Slider.cydsn/command_telemetry.c ****    
 870:..\Slider.cydsn/command_telemetry.c ****     for (i = 0; i < nb_sensors; i++)
 871:..\Slider.cydsn/command_telemetry.c ****     {
 872:..\Slider.cydsn/command_telemetry.c ****         memset(telemetry, '\0', sizeof(telemetry));
 873:..\Slider.cydsn/command_telemetry.c ****         strcpy(telemetry, "{\"event\":\"sensor\", \"id\":");
 874:..\Slider.cydsn/command_telemetry.c ****         strcat(telemetry, itoa(i));
 875:..\Slider.cydsn/command_telemetry.c ****         strcat(telemetry, ", \"raw\":");
 876:..\Slider.cydsn/command_telemetry.c ****         strcat(telemetry, itoa(CapSense_dsRam.snsList.linearslider0[i].raw[0]));
 877:..\Slider.cydsn/command_telemetry.c ****         strcat(telemetry, ", \"baseline\":");
ARM GAS  C:\Users\MM1005~1\AppData\Local\Temp\cc36bet7.s 			page 27


 878:..\Slider.cydsn/command_telemetry.c ****         strcat(telemetry, itoa(CapSense_dsRam.snsList.linearslider0[i].bsln[0]));
 879:..\Slider.cydsn/command_telemetry.c ****         strcat(telemetry, ", \"bucket baseline\":");
 880:..\Slider.cydsn/command_telemetry.c ****         strcat(telemetry, itoa(CapSense_dsRam.snsList.linearslider0[i].bslnExt[0]));
 881:..\Slider.cydsn/command_telemetry.c ****         strcat(telemetry, ", \"diff\":");
 882:..\Slider.cydsn/command_telemetry.c ****         strcat(telemetry, itoa(CapSense_dsRam.snsList.linearslider0[i].diff));
 883:..\Slider.cydsn/command_telemetry.c ****         strcat(telemetry, ", \"baseline reset\":");
 884:..\Slider.cydsn/command_telemetry.c ****         strcat(telemetry, itoa(CapSense_dsRam.snsList.linearslider0[i].negBslnRstCnt[0]));
 885:..\Slider.cydsn/command_telemetry.c ****         strcat(telemetry, ", \"IDAC\":");
 886:..\Slider.cydsn/command_telemetry.c ****         strcat(telemetry, itoa(CapSense_dsRam.snsList.linearslider0[i].idacComp[0]));
 887:..\Slider.cydsn/command_telemetry.c ****         strcat(telemetry, "\"}");
 888:..\Slider.cydsn/command_telemetry.c ****         send_telemetry(telemetry);
 889:..\Slider.cydsn/command_telemetry.c ****     }// for all the sensors
 890:..\Slider.cydsn/command_telemetry.c **** #endif
 891:..\Slider.cydsn/command_telemetry.c **** }// send_telemetry_capsense
 590              		.loc 1 891 0
 591              		@ sp needed
 592 0000 7047     		bx	lr
 593              		.cfi_endproc
 594              	.LFE47:
 595              		.size	send_telemetry_capsense, .-send_telemetry_capsense
 596 0002 C046     		.section	.text.get_is_telemetry_enable,"ax",%progbits
 597              		.align	2
 598              		.global	get_is_telemetry_enable
 599              		.code	16
 600              		.thumb_func
 601              		.type	get_is_telemetry_enable, %function
 602              	get_is_telemetry_enable:
 603              	.LFB52:
 892:..\Slider.cydsn/command_telemetry.c **** 
 893:..\Slider.cydsn/command_telemetry.c **** //=============================================================================
 894:..\Slider.cydsn/command_telemetry.c **** //======================================================= send_button_telemetry
 895:..\Slider.cydsn/command_telemetry.c **** //=============================================================================
 896:..\Slider.cydsn/command_telemetry.c **** void send_button_telemetry(int button, const char* action, t_enum_direction finger_direct, uint16 a
 897:..\Slider.cydsn/command_telemetry.c **** {
 898:..\Slider.cydsn/command_telemetry.c ****     int           nb_touched       =  0;
 899:..\Slider.cydsn/command_telemetry.c ****     long long int clock_time       = (get_timer_interrrupt_count() << 16) + Timer_1_ReadCounter();
 900:..\Slider.cydsn/command_telemetry.c ****     char          str_direction[2] = {finger_direct, '\0'};
 901:..\Slider.cydsn/command_telemetry.c ****     uint16        max_sensor       = 0;
 902:..\Slider.cydsn/command_telemetry.c ****     char          sensors_vec[64];
 903:..\Slider.cydsn/command_telemetry.c ****     uint16        i;
 904:..\Slider.cydsn/command_telemetry.c **** 
 905:..\Slider.cydsn/command_telemetry.c ****     memset(telemetry  , '\0', sizeof(telemetry  ));
 906:..\Slider.cydsn/command_telemetry.c ****     memset(sensors_vec, '\0', sizeof(sensors_vec));
 907:..\Slider.cydsn/command_telemetry.c ****     
 908:..\Slider.cydsn/command_telemetry.c ****     max_sensor = min(CapSense_GET_SENSOR_COUNT(0), sizeof(sensors_vec) - 1);
 909:..\Slider.cydsn/command_telemetry.c ****          
 910:..\Slider.cydsn/command_telemetry.c ****     for (i = 0; i < max_sensor; i++)
 911:..\Slider.cydsn/command_telemetry.c ****     {
 912:..\Slider.cydsn/command_telemetry.c ****         if (CapSense_IsSensorActive(0, i))
 913:..\Slider.cydsn/command_telemetry.c ****         {
 914:..\Slider.cydsn/command_telemetry.c ****             nb_touched++;
 915:..\Slider.cydsn/command_telemetry.c ****             sensors_vec[i] = '1';
 916:..\Slider.cydsn/command_telemetry.c ****         }
 917:..\Slider.cydsn/command_telemetry.c ****         else
 918:..\Slider.cydsn/command_telemetry.c ****         {
 919:..\Slider.cydsn/command_telemetry.c ****              sensors_vec[i] = '0';  
 920:..\Slider.cydsn/command_telemetry.c ****         }
ARM GAS  C:\Users\MM1005~1\AppData\Local\Temp\cc36bet7.s 			page 28


 921:..\Slider.cydsn/command_telemetry.c ****     }// for all the sensors;
 922:..\Slider.cydsn/command_telemetry.c ****     
 923:..\Slider.cydsn/command_telemetry.c ****     strcpy(telemetry, "{\"event\":\"button\", \"id\":");
 924:..\Slider.cydsn/command_telemetry.c ****     strcat(telemetry, itoa(button));
 925:..\Slider.cydsn/command_telemetry.c **** #if USE_ALL_BUTTON_TELE     
 926:..\Slider.cydsn/command_telemetry.c ****     strcat(telemetry, ", \"sensor count\":");
 927:..\Slider.cydsn/command_telemetry.c ****     strcat(telemetry, itoa(nb_touched));
 928:..\Slider.cydsn/command_telemetry.c ****     strcat(telemetry, ", \"clock\":");
 929:..\Slider.cydsn/command_telemetry.c ****     strcat(telemetry, itoa(clock_time));
 930:..\Slider.cydsn/command_telemetry.c ****     strcat(telemetry, ", \"direction\":\"");
 931:..\Slider.cydsn/command_telemetry.c ****     strcat(telemetry, str_direction);
 932:..\Slider.cydsn/command_telemetry.c ****     strcat(telemetry, "\", \"sensors\":\"");
 933:..\Slider.cydsn/command_telemetry.c ****     strcat(telemetry, sensors_vec);
 934:..\Slider.cydsn/command_telemetry.c ****     strcat(telemetry, "\", \"actual raw pos\":");
 935:..\Slider.cydsn/command_telemetry.c ****     strcat(telemetry, itoa(actual_raw_pos));
 936:..\Slider.cydsn/command_telemetry.c ****     strcat(telemetry, ", \"previous raw pos\":");
 937:..\Slider.cydsn/command_telemetry.c ****     strcat(telemetry, itoa(previous_raw_pos));
 938:..\Slider.cydsn/command_telemetry.c **** #endif //  USE_ALL_BUTTON_TELE   
 939:..\Slider.cydsn/command_telemetry.c ****     strcat(telemetry, ", \"action\":\"");
 940:..\Slider.cydsn/command_telemetry.c ****     strcat(telemetry, action);
 941:..\Slider.cydsn/command_telemetry.c ****     strcat(telemetry, "\"}");
 942:..\Slider.cydsn/command_telemetry.c ****     
 943:..\Slider.cydsn/command_telemetry.c ****     send_telemetry(telemetry);
 944:..\Slider.cydsn/command_telemetry.c ****     
 945:..\Slider.cydsn/command_telemetry.c ****     if (get_is_sensor_telemetry_enable())
 946:..\Slider.cydsn/command_telemetry.c ****     {
 947:..\Slider.cydsn/command_telemetry.c ****         send_telemetry_capsense();      
 948:..\Slider.cydsn/command_telemetry.c ****     }
 949:..\Slider.cydsn/command_telemetry.c **** }// send_button_telemetry
 950:..\Slider.cydsn/command_telemetry.c **** 
 951:..\Slider.cydsn/command_telemetry.c **** //=============================================================================
 952:..\Slider.cydsn/command_telemetry.c **** //================================================== send_push_button_telemetry
 953:..\Slider.cydsn/command_telemetry.c **** //=============================================================================
 954:..\Slider.cydsn/command_telemetry.c **** void send_push_button_telemetry(uint8 capsense_id, char* button_name, BOOL is_button_down)
 955:..\Slider.cydsn/command_telemetry.c **** {
 956:..\Slider.cydsn/command_telemetry.c ****     memset(telemetry, '\0', sizeof(telemetry));
 957:..\Slider.cydsn/command_telemetry.c ****     
 958:..\Slider.cydsn/command_telemetry.c ****     strcat(telemetry, "{\"event\":\"push button\", \"id\":");
 959:..\Slider.cydsn/command_telemetry.c ****     strcat(telemetry, itoa(capsense_id));
 960:..\Slider.cydsn/command_telemetry.c ****     strcat(telemetry, ", \"name\":\"");
 961:..\Slider.cydsn/command_telemetry.c ****     strcat(telemetry, button_name);
 962:..\Slider.cydsn/command_telemetry.c ****     strcat(telemetry, "\", \"state\":\"");
 963:..\Slider.cydsn/command_telemetry.c ****     strcat(telemetry, is_button_down ? "down" : "up"); 
 964:..\Slider.cydsn/command_telemetry.c ****     strcat(telemetry, "\"}");
 965:..\Slider.cydsn/command_telemetry.c ****     
 966:..\Slider.cydsn/command_telemetry.c ****     send_telemetry(telemetry);
 967:..\Slider.cydsn/command_telemetry.c **** }// send_push_button_telemetry
 968:..\Slider.cydsn/command_telemetry.c **** 
 969:..\Slider.cydsn/command_telemetry.c **** //=============================================================================
 970:..\Slider.cydsn/command_telemetry.c **** //=============================================== send_flash_geometry_telemetry
 971:..\Slider.cydsn/command_telemetry.c **** //=============================================================================
 972:..\Slider.cydsn/command_telemetry.c **** void send_flash_geometry_telemetry(uint32 flash_checksum, uint32 flash_first_row, uint32 flash_last
 973:..\Slider.cydsn/command_telemetry.c **** {
 974:..\Slider.cydsn/command_telemetry.c ****     memset(telemetry, '\0', sizeof(telemetry));
 975:..\Slider.cydsn/command_telemetry.c ****     strcpy(telemetry, "{\"event\":\"flash geometry\", \"checksum\":");
 976:..\Slider.cydsn/command_telemetry.c ****     strcat(telemetry, itoa(flash_checksum));
 977:..\Slider.cydsn/command_telemetry.c ****     strcat(telemetry, ", \"first row\":");
ARM GAS  C:\Users\MM1005~1\AppData\Local\Temp\cc36bet7.s 			page 29


 978:..\Slider.cydsn/command_telemetry.c ****     strcat(telemetry, itoa(flash_first_row));
 979:..\Slider.cydsn/command_telemetry.c ****     strcat(telemetry, ", \"last row\":");
 980:..\Slider.cydsn/command_telemetry.c ****     strcat(telemetry, itoa(flash_last_row));
 981:..\Slider.cydsn/command_telemetry.c ****     strcat(telemetry, ", \"size\":");
 982:..\Slider.cydsn/command_telemetry.c ****     strcat(telemetry, itoa(flash_size));
 983:..\Slider.cydsn/command_telemetry.c ****     strcat(telemetry, "}");
 984:..\Slider.cydsn/command_telemetry.c ****     
 985:..\Slider.cydsn/command_telemetry.c ****     send_telemetry(telemetry);
 986:..\Slider.cydsn/command_telemetry.c **** }// send_flash_geometry_telemetry
 987:..\Slider.cydsn/command_telemetry.c **** 
 988:..\Slider.cydsn/command_telemetry.c **** //=============================================================================
 989:..\Slider.cydsn/command_telemetry.c **** //============================================================== send_telemetry
 990:..\Slider.cydsn/command_telemetry.c **** //=============================================================================
 991:..\Slider.cydsn/command_telemetry.c **** void send_telemetry(const char *telemetry)
 992:..\Slider.cydsn/command_telemetry.c **** {
 993:..\Slider.cydsn/command_telemetry.c ****     if (get_is_telemetry_enable())
 994:..\Slider.cydsn/command_telemetry.c ****     {
 995:..\Slider.cydsn/command_telemetry.c ****         CapSense_ISR_Disable();
 996:..\Slider.cydsn/command_telemetry.c ****         CommsSendData(telemetry);
 997:..\Slider.cydsn/command_telemetry.c ****         CapSense_ISR_Enable();
 998:..\Slider.cydsn/command_telemetry.c ****     }// If the telemetry are enable
 999:..\Slider.cydsn/command_telemetry.c **** }// send_button_telemetry
1000:..\Slider.cydsn/command_telemetry.c **** 
1001:..\Slider.cydsn/command_telemetry.c **** //=============================================================================
1002:..\Slider.cydsn/command_telemetry.c **** //===================================================== get_is_telemetry_enable
1003:..\Slider.cydsn/command_telemetry.c **** //=============================================================================
1004:..\Slider.cydsn/command_telemetry.c **** BOOL get_is_telemetry_enable()
1005:..\Slider.cydsn/command_telemetry.c **** {
 604              		.loc 1 1005 0
 605              		.cfi_startproc
1006:..\Slider.cydsn/command_telemetry.c ****     return is_telemetry_enable;
 606              		.loc 1 1006 0
 607 0000 014B     		ldr	r3, .L58
 608 0002 1878     		ldrb	r0, [r3]
1007:..\Slider.cydsn/command_telemetry.c **** }// get_is_telemetry_enable
 609              		.loc 1 1007 0
 610              		@ sp needed
 611 0004 7047     		bx	lr
 612              	.L59:
 613 0006 C046     		.align	2
 614              	.L58:
 615 0008 00000000 		.word	.LANCHOR3
 616              		.cfi_endproc
 617              	.LFE52:
 618              		.size	get_is_telemetry_enable, .-get_is_telemetry_enable
 619              		.section	.text.send_telemetry,"ax",%progbits
 620              		.align	2
 621              		.global	send_telemetry
 622              		.code	16
 623              		.thumb_func
 624              		.type	send_telemetry, %function
 625              	send_telemetry:
 626              	.LFB51:
 992:..\Slider.cydsn/command_telemetry.c ****     if (get_is_telemetry_enable())
 627              		.loc 1 992 0
 628              		.cfi_startproc
 629              	.LVL71:
ARM GAS  C:\Users\MM1005~1\AppData\Local\Temp\cc36bet7.s 			page 30


 630 0000 10B5     		push	{r4, lr}
 631              		.cfi_def_cfa_offset 8
 632              		.cfi_offset 4, -8
 633              		.cfi_offset 14, -4
 634 0002 041C     		mov	r4, r0
 993:..\Slider.cydsn/command_telemetry.c ****     {
 635              		.loc 1 993 0
 636 0004 FFF7FEFF 		bl	get_is_telemetry_enable
 637              	.LVL72:
 638 0008 0028     		cmp	r0, #0
 639 000a 06D0     		beq	.L60
 995:..\Slider.cydsn/command_telemetry.c ****         CommsSendData(telemetry);
 640              		.loc 1 995 0
 641 000c FFF7FEFF 		bl	CapSense_ISR_Disable
 642              	.LVL73:
 996:..\Slider.cydsn/command_telemetry.c ****         CapSense_ISR_Enable();
 643              		.loc 1 996 0
 644 0010 201C     		mov	r0, r4
 645 0012 FFF7FEFF 		bl	CommsSendData
 646              	.LVL74:
 997:..\Slider.cydsn/command_telemetry.c ****     }// If the telemetry are enable
 647              		.loc 1 997 0
 648 0016 FFF7FEFF 		bl	CapSense_ISR_Enable
 649              	.LVL75:
 650              	.L60:
 999:..\Slider.cydsn/command_telemetry.c **** 
 651              		.loc 1 999 0
 652              		@ sp needed
 653              	.LVL76:
 654 001a 10BD     		pop	{r4, pc}
 655              		.cfi_endproc
 656              	.LFE51:
 657              		.size	send_telemetry, .-send_telemetry
 658              		.section	.text.send_alarm_telemetry,"ax",%progbits
 659              		.align	2
 660              		.global	send_alarm_telemetry
 661              		.code	16
 662              		.thumb_func
 663              		.type	send_alarm_telemetry, %function
 664              	send_alarm_telemetry:
 665              	.LFB45:
 826:..\Slider.cydsn/command_telemetry.c ****     const char* alarm_string[ALARM_UNKNOWN] = {"log", "info", "warning", "error", "fatal"};
 666              		.loc 1 826 0
 667              		.cfi_startproc
 668              	.LVL77:
 669 0000 F0B5     		push	{r4, r5, r6, r7, lr}
 670              		.cfi_def_cfa_offset 20
 671              		.cfi_offset 4, -20
 672              		.cfi_offset 5, -16
 673              		.cfi_offset 6, -12
 674              		.cfi_offset 7, -8
 675              		.cfi_offset 14, -4
 676 0002 4746     		mov	r7, r8
 677 0004 80B4     		push	{r7}
 678              		.cfi_def_cfa_offset 24
 679              		.cfi_offset 8, -24
 680 0006 88B0     		sub	sp, sp, #32
ARM GAS  C:\Users\MM1005~1\AppData\Local\Temp\cc36bet7.s 			page 31


 681              		.cfi_def_cfa_offset 56
 682 0008 8046     		mov	r8, r0
 683 000a 0E1C     		mov	r6, r1
 684 000c 0192     		str	r2, [sp, #4]
 827:..\Slider.cydsn/command_telemetry.c ****  
 685              		.loc 1 827 0
 686 000e 03AF     		add	r7, sp, #12
 687 0010 3A1C     		mov	r2, r7
 688              	.LVL78:
 689 0012 234B     		ldr	r3, .L63
 690 0014 5033     		add	r3, r3, #80
 691 0016 13CB     		ldmia	r3!, {r0, r1, r4}
 692 0018 13C2     		stmia	r2!, {r0, r1, r4}
 693              	.LVL79:
 694 001a 11CB     		ldmia	r3!, {r0, r4}
 695 001c 11C2     		stmia	r2!, {r0, r4}
 829:..\Slider.cydsn/command_telemetry.c ****     
 696              		.loc 1 829 0
 697 001e 214C     		ldr	r4, .L63+4
 698 0020 0434     		add	r4, r4, #4
 699 0022 201C     		mov	r0, r4
 700 0024 0021     		mov	r1, #0
 701 0026 8022     		mov	r2, #128
 702 0028 9200     		lsl	r2, r2, #2
 703 002a FFF7FEFF 		bl	memset
 704              	.LVL80:
 831:..\Slider.cydsn/command_telemetry.c ****     strcat(telemetry, alarm_string[alarm_type]);
 705              		.loc 1 831 0
 706 002e 1E49     		ldr	r1, .L63+8
 707 0030 231C     		mov	r3, r4
 708 0032 0A1C     		mov	r2, r1
 709 0034 23CA     		ldmia	r2!, {r0, r1, r5}
 710 0036 23C3     		stmia	r3!, {r0, r1, r5}
 711 0038 23CA     		ldmia	r2!, {r0, r1, r5}
 712 003a 23C3     		stmia	r3!, {r0, r1, r5}
 713 003c 1188     		ldrh	r1, [r2]
 714 003e 1980     		strh	r1, [r3]
 715 0040 9278     		ldrb	r2, [r2, #2]
 716 0042 9A70     		strb	r2, [r3, #2]
 832:..\Slider.cydsn/command_telemetry.c ****     strcat(telemetry, "\", \"source\":\"");
 717              		.loc 1 832 0
 718 0044 4346     		mov	r3, r8
 719 0046 9B00     		lsl	r3, r3, #2
 720 0048 D959     		ldr	r1, [r3, r7]
 721 004a 201C     		mov	r0, r4
 722 004c FFF7FEFF 		bl	strcat
 723              	.LVL81:
 833:..\Slider.cydsn/command_telemetry.c ****     strcat(telemetry, source);
 724              		.loc 1 833 0
 725 0050 201C     		mov	r0, r4
 726 0052 FFF7FEFF 		bl	strlen
 727              	.LVL82:
 728 0056 2018     		add	r0, r4, r0
 729 0058 1449     		ldr	r1, .L63+12
 730 005a 0E22     		mov	r2, #14
 731 005c FFF7FEFF 		bl	memcpy
 732              	.LVL83:
ARM GAS  C:\Users\MM1005~1\AppData\Local\Temp\cc36bet7.s 			page 32


 834:..\Slider.cydsn/command_telemetry.c ****     strcat(telemetry, "\", \"description\":\"");
 733              		.loc 1 834 0
 734 0060 201C     		mov	r0, r4
 735 0062 311C     		mov	r1, r6
 736 0064 FFF7FEFF 		bl	strcat
 737              	.LVL84:
 835:..\Slider.cydsn/command_telemetry.c ****     strcat(telemetry, description);
 738              		.loc 1 835 0
 739 0068 201C     		mov	r0, r4
 740 006a FFF7FEFF 		bl	strlen
 741              	.LVL85:
 742 006e 2018     		add	r0, r4, r0
 743 0070 0F49     		ldr	r1, .L63+16
 744 0072 1322     		mov	r2, #19
 745 0074 FFF7FEFF 		bl	memcpy
 746              	.LVL86:
 836:..\Slider.cydsn/command_telemetry.c ****     strcat(telemetry, "\"}");
 747              		.loc 1 836 0
 748 0078 201C     		mov	r0, r4
 749 007a 0199     		ldr	r1, [sp, #4]
 750 007c FFF7FEFF 		bl	strcat
 751              	.LVL87:
 837:..\Slider.cydsn/command_telemetry.c ****     
 752              		.loc 1 837 0
 753 0080 201C     		mov	r0, r4
 754 0082 FFF7FEFF 		bl	strlen
 755              	.LVL88:
 756 0086 2018     		add	r0, r4, r0
 757 0088 0A49     		ldr	r1, .L63+20
 758 008a 0322     		mov	r2, #3
 759 008c FFF7FEFF 		bl	memcpy
 760              	.LVL89:
 839:..\Slider.cydsn/command_telemetry.c **** }// send_alarm_telemetry
 761              		.loc 1 839 0
 762 0090 201C     		mov	r0, r4
 763 0092 FFF7FEFF 		bl	send_telemetry
 764              	.LVL90:
 840:..\Slider.cydsn/command_telemetry.c **** 
 765              		.loc 1 840 0
 766 0096 08B0     		add	sp, sp, #32
 767              		@ sp needed
 768              	.LVL91:
 769 0098 04BC     		pop	{r2}
 770 009a 9046     		mov	r8, r2
 771 009c F0BD     		pop	{r4, r5, r6, r7, pc}
 772              	.L64:
 773 009e C046     		.align	2
 774              	.L63:
 775 00a0 38010000 		.word	.LANCHOR2
 776 00a4 00000000 		.word	.LANCHOR3
 777 00a8 00000000 		.word	.LC17
 778 00ac 1C000000 		.word	.LC19
 779 00b0 2C000000 		.word	.LC21
 780 00b4 40000000 		.word	.LC23
 781              		.cfi_endproc
 782              	.LFE45:
 783              		.size	send_alarm_telemetry, .-send_alarm_telemetry
ARM GAS  C:\Users\MM1005~1\AppData\Local\Temp\cc36bet7.s 			page 33


 784              		.section	.text.send_animation_telemetry,"ax",%progbits
 785              		.align	2
 786              		.global	send_animation_telemetry
 787              		.code	16
 788              		.thumb_func
 789              		.type	send_animation_telemetry, %function
 790              	send_animation_telemetry:
 791              	.LFB46:
 846:..\Slider.cydsn/command_telemetry.c ****     t_struct_animation animation;
 792              		.loc 1 846 0
 793              		.cfi_startproc
 794              	.LVL92:
 795 0000 70B5     		push	{r4, r5, r6, lr}
 796              		.cfi_def_cfa_offset 16
 797              		.cfi_offset 4, -16
 798              		.cfi_offset 5, -12
 799              		.cfi_offset 6, -8
 800              		.cfi_offset 14, -4
 801 0002 84B0     		sub	sp, sp, #16
 802              		.cfi_def_cfa_offset 32
 803 0004 0D1C     		mov	r5, r1
 849:..\Slider.cydsn/command_telemetry.c ****     
 804              		.loc 1 849 0
 805 0006 01A9     		add	r1, sp, #4
 806              	.LVL93:
 807 0008 FFF7FEFF 		bl	get_animation
 808              	.LVL94:
 851:..\Slider.cydsn/command_telemetry.c ****     strcpy(telemetry, "{\"event\":\"animation\", \"name\":\"");
 809              		.loc 1 851 0
 810 000c 184C     		ldr	r4, .L66
 811 000e 0434     		add	r4, r4, #4
 812 0010 201C     		mov	r0, r4
 813 0012 0021     		mov	r1, #0
 814 0014 8022     		mov	r2, #128
 815 0016 9200     		lsl	r2, r2, #2
 816 0018 FFF7FEFF 		bl	memset
 817              	.LVL95:
 852:..\Slider.cydsn/command_telemetry.c ****     strcat(telemetry, animation.description);
 818              		.loc 1 852 0
 819 001c 1549     		ldr	r1, .L66+4
 820 001e 231C     		mov	r3, r4
 821 0020 0A1C     		mov	r2, r1
 822 0022 43CA     		ldmia	r2!, {r0, r1, r6}
 823 0024 43C3     		stmia	r3!, {r0, r1, r6}
 824 0026 43CA     		ldmia	r2!, {r0, r1, r6}
 825 0028 43C3     		stmia	r3!, {r0, r1, r6}
 826 002a 1168     		ldr	r1, [r2]
 827 002c 1960     		str	r1, [r3]
 828 002e 9188     		ldrh	r1, [r2, #4]
 829 0030 9980     		strh	r1, [r3, #4]
 830 0032 9279     		ldrb	r2, [r2, #6]
 831 0034 9A71     		strb	r2, [r3, #6]
 853:..\Slider.cydsn/command_telemetry.c ****     strcat(telemetry, "\", \"action\":\"");
 832              		.loc 1 853 0
 833 0036 0399     		ldr	r1, [sp, #12]
 834 0038 201C     		mov	r0, r4
 835 003a FFF7FEFF 		bl	strcat
ARM GAS  C:\Users\MM1005~1\AppData\Local\Temp\cc36bet7.s 			page 34


 836              	.LVL96:
 854:..\Slider.cydsn/command_telemetry.c ****     strcat(telemetry, action);
 837              		.loc 1 854 0
 838 003e 201C     		mov	r0, r4
 839 0040 FFF7FEFF 		bl	strlen
 840              	.LVL97:
 841 0044 2018     		add	r0, r4, r0
 842 0046 0C49     		ldr	r1, .L66+8
 843 0048 0E22     		mov	r2, #14
 844 004a FFF7FEFF 		bl	memcpy
 845              	.LVL98:
 855:..\Slider.cydsn/command_telemetry.c ****     strcat(telemetry, "\"}");
 846              		.loc 1 855 0
 847 004e 201C     		mov	r0, r4
 848 0050 291C     		mov	r1, r5
 849 0052 FFF7FEFF 		bl	strcat
 850              	.LVL99:
 856:..\Slider.cydsn/command_telemetry.c ****     
 851              		.loc 1 856 0
 852 0056 201C     		mov	r0, r4
 853 0058 FFF7FEFF 		bl	strlen
 854              	.LVL100:
 855 005c 2018     		add	r0, r4, r0
 856 005e 0749     		ldr	r1, .L66+12
 857 0060 0322     		mov	r2, #3
 858 0062 FFF7FEFF 		bl	memcpy
 859              	.LVL101:
 858:..\Slider.cydsn/command_telemetry.c **** }// send_animation_telemetry
 860              		.loc 1 858 0
 861 0066 201C     		mov	r0, r4
 862 0068 FFF7FEFF 		bl	send_telemetry
 863              	.LVL102:
 859:..\Slider.cydsn/command_telemetry.c **** 
 864              		.loc 1 859 0
 865 006c 04B0     		add	sp, sp, #16
 866              		@ sp needed
 867              	.LVL103:
 868 006e 70BD     		pop	{r4, r5, r6, pc}
 869              	.L67:
 870              		.align	2
 871              	.L66:
 872 0070 00000000 		.word	.LANCHOR3
 873 0074 44000000 		.word	.LC27
 874 0078 64000000 		.word	.LC29
 875 007c 40000000 		.word	.LC23
 876              		.cfi_endproc
 877              	.LFE46:
 878              		.size	send_animation_telemetry, .-send_animation_telemetry
 879              		.section	.text.send_push_button_telemetry,"ax",%progbits
 880              		.align	2
 881              		.global	send_push_button_telemetry
 882              		.code	16
 883              		.thumb_func
 884              		.type	send_push_button_telemetry, %function
 885              	send_push_button_telemetry:
 886              	.LFB49:
 955:..\Slider.cydsn/command_telemetry.c ****     memset(telemetry, '\0', sizeof(telemetry));
ARM GAS  C:\Users\MM1005~1\AppData\Local\Temp\cc36bet7.s 			page 35


 887              		.loc 1 955 0
 888              		.cfi_startproc
 889              	.LVL104:
 890 0000 F8B5     		push	{r3, r4, r5, r6, r7, lr}
 891              		.cfi_def_cfa_offset 24
 892              		.cfi_offset 3, -24
 893              		.cfi_offset 4, -20
 894              		.cfi_offset 5, -16
 895              		.cfi_offset 6, -12
 896              		.cfi_offset 7, -8
 897              		.cfi_offset 14, -4
 898 0002 071C     		mov	r7, r0
 899 0004 0D1C     		mov	r5, r1
 900 0006 161C     		mov	r6, r2
 956:..\Slider.cydsn/command_telemetry.c ****     
 901              		.loc 1 956 0
 902 0008 204C     		ldr	r4, .L71
 903 000a 0434     		add	r4, r4, #4
 904 000c 201C     		mov	r0, r4
 905              	.LVL105:
 906 000e 0021     		mov	r1, #0
 907              	.LVL106:
 908 0010 8022     		mov	r2, #128
 909              	.LVL107:
 910 0012 9200     		lsl	r2, r2, #2
 911 0014 FFF7FEFF 		bl	memset
 912              	.LVL108:
 958:..\Slider.cydsn/command_telemetry.c ****     strcat(telemetry, itoa(capsense_id));
 913              		.loc 1 958 0
 914 0018 201C     		mov	r0, r4
 915 001a FFF7FEFF 		bl	strlen
 916              	.LVL109:
 917 001e 2018     		add	r0, r4, r0
 918 0020 1B49     		ldr	r1, .L71+4
 919 0022 1E22     		mov	r2, #30
 920 0024 FFF7FEFF 		bl	memcpy
 921              	.LVL110:
 959:..\Slider.cydsn/command_telemetry.c ****     strcat(telemetry, ", \"name\":\"");
 922              		.loc 1 959 0
 923 0028 381C     		mov	r0, r7
 924 002a 0021     		mov	r1, #0
 925 002c FFF7FEFF 		bl	itoa
 926              	.LVL111:
 927 0030 011C     		mov	r1, r0
 928 0032 201C     		mov	r0, r4
 929 0034 FFF7FEFF 		bl	strcat
 930              	.LVL112:
 960:..\Slider.cydsn/command_telemetry.c ****     strcat(telemetry, button_name);
 931              		.loc 1 960 0
 932 0038 201C     		mov	r0, r4
 933 003a FFF7FEFF 		bl	strlen
 934              	.LVL113:
 935 003e 2018     		add	r0, r4, r0
 936 0040 1449     		ldr	r1, .L71+8
 937 0042 0B22     		mov	r2, #11
 938 0044 FFF7FEFF 		bl	memcpy
 939              	.LVL114:
ARM GAS  C:\Users\MM1005~1\AppData\Local\Temp\cc36bet7.s 			page 36


 961:..\Slider.cydsn/command_telemetry.c ****     strcat(telemetry, "\", \"state\":\"");
 940              		.loc 1 961 0
 941 0048 201C     		mov	r0, r4
 942 004a 291C     		mov	r1, r5
 943 004c FFF7FEFF 		bl	strcat
 944              	.LVL115:
 962:..\Slider.cydsn/command_telemetry.c ****     strcat(telemetry, is_button_down ? "down" : "up"); 
 945              		.loc 1 962 0
 946 0050 201C     		mov	r0, r4
 947 0052 FFF7FEFF 		bl	strlen
 948              	.LVL116:
 949 0056 2018     		add	r0, r4, r0
 950 0058 0F49     		ldr	r1, .L71+12
 951 005a 0D22     		mov	r2, #13
 952 005c FFF7FEFF 		bl	memcpy
 953              	.LVL117:
 963:..\Slider.cydsn/command_telemetry.c ****     strcat(telemetry, "\"}");
 954              		.loc 1 963 0
 955 0060 002E     		cmp	r6, #0
 956 0062 01D0     		beq	.L70
 957 0064 0D49     		ldr	r1, .L71+16
 958 0066 00E0     		b	.L69
 959              	.L70:
 960 0068 0D49     		ldr	r1, .L71+20
 961              	.L69:
 963:..\Slider.cydsn/command_telemetry.c ****     strcat(telemetry, "\"}");
 962              		.loc 1 963 0 is_stmt 0 discriminator 4
 963 006a 084C     		ldr	r4, .L71
 964 006c 0434     		add	r4, r4, #4
 965 006e 201C     		mov	r0, r4
 966 0070 FFF7FEFF 		bl	strcat
 967              	.LVL118:
 964:..\Slider.cydsn/command_telemetry.c ****     
 968              		.loc 1 964 0 is_stmt 1 discriminator 4
 969 0074 201C     		mov	r0, r4
 970 0076 FFF7FEFF 		bl	strlen
 971              	.LVL119:
 972 007a 2018     		add	r0, r4, r0
 973 007c 0949     		ldr	r1, .L71+24
 974 007e 0322     		mov	r2, #3
 975 0080 FFF7FEFF 		bl	memcpy
 976              	.LVL120:
 966:..\Slider.cydsn/command_telemetry.c **** }// send_push_button_telemetry
 977              		.loc 1 966 0 discriminator 4
 978 0084 201C     		mov	r0, r4
 979 0086 FFF7FEFF 		bl	send_telemetry
 980              	.LVL121:
 967:..\Slider.cydsn/command_telemetry.c **** 
 981              		.loc 1 967 0 discriminator 4
 982              		@ sp needed
 983              	.LVL122:
 984 008a F8BD     		pop	{r3, r4, r5, r6, r7, pc}
 985              	.L72:
 986              		.align	2
 987              	.L71:
 988 008c 00000000 		.word	.LANCHOR3
 989 0090 80000000 		.word	.LC38
ARM GAS  C:\Users\MM1005~1\AppData\Local\Temp\cc36bet7.s 			page 37


 990 0094 A0000000 		.word	.LC40
 991 0098 AC000000 		.word	.LC42
 992 009c 74000000 		.word	.LC33
 993 00a0 7C000000 		.word	.LC35
 994 00a4 40000000 		.word	.LC23
 995              		.cfi_endproc
 996              	.LFE49:
 997              		.size	send_push_button_telemetry, .-send_push_button_telemetry
 998              		.section	.text.send_flash_geometry_telemetry,"ax",%progbits
 999              		.align	2
 1000              		.global	send_flash_geometry_telemetry
 1001              		.code	16
 1002              		.thumb_func
 1003              		.type	send_flash_geometry_telemetry, %function
 1004              	send_flash_geometry_telemetry:
 1005              	.LFB50:
 973:..\Slider.cydsn/command_telemetry.c ****     memset(telemetry, '\0', sizeof(telemetry));
 1006              		.loc 1 973 0
 1007              		.cfi_startproc
 1008              	.LVL123:
 1009 0000 F0B5     		push	{r4, r5, r6, r7, lr}
 1010              		.cfi_def_cfa_offset 20
 1011              		.cfi_offset 4, -20
 1012              		.cfi_offset 5, -16
 1013              		.cfi_offset 6, -12
 1014              		.cfi_offset 7, -8
 1015              		.cfi_offset 14, -4
 1016 0002 83B0     		sub	sp, sp, #12
 1017              		.cfi_def_cfa_offset 32
 1018 0004 071C     		mov	r7, r0
 1019 0006 0E1C     		mov	r6, r1
 1020 0008 0092     		str	r2, [sp]
 1021 000a 0193     		str	r3, [sp, #4]
 974:..\Slider.cydsn/command_telemetry.c ****     strcpy(telemetry, "{\"event\":\"flash geometry\", \"checksum\":");
 1022              		.loc 1 974 0
 1023 000c 2C4C     		ldr	r4, .L74
 1024 000e 0434     		add	r4, r4, #4
 1025 0010 201C     		mov	r0, r4
 1026              	.LVL124:
 1027 0012 0021     		mov	r1, #0
 1028              	.LVL125:
 1029 0014 8022     		mov	r2, #128
 1030              	.LVL126:
 1031 0016 9200     		lsl	r2, r2, #2
 1032 0018 FFF7FEFF 		bl	memset
 1033              	.LVL127:
 975:..\Slider.cydsn/command_telemetry.c ****     strcat(telemetry, itoa(flash_checksum));
 1034              		.loc 1 975 0
 1035 001c 2949     		ldr	r1, .L74+4
 1036 001e 231C     		mov	r3, r4
 1037 0020 0A1C     		mov	r2, r1
 1038 0022 23CA     		ldmia	r2!, {r0, r1, r5}
 1039 0024 23C3     		stmia	r3!, {r0, r1, r5}
 1040 0026 23CA     		ldmia	r2!, {r0, r1, r5}
 1041 0028 23C3     		stmia	r3!, {r0, r1, r5}
 1042 002a 23CA     		ldmia	r2!, {r0, r1, r5}
 1043 002c 23C3     		stmia	r3!, {r0, r1, r5}
ARM GAS  C:\Users\MM1005~1\AppData\Local\Temp\cc36bet7.s 			page 38


 1044 002e 1188     		ldrh	r1, [r2]
 1045 0030 1980     		strh	r1, [r3]
 1046 0032 9278     		ldrb	r2, [r2, #2]
 1047 0034 9A70     		strb	r2, [r3, #2]
 976:..\Slider.cydsn/command_telemetry.c ****     strcat(telemetry, ", \"first row\":");
 1048              		.loc 1 976 0
 1049 0036 381C     		mov	r0, r7
 1050 0038 0021     		mov	r1, #0
 1051 003a FFF7FEFF 		bl	itoa
 1052              	.LVL128:
 1053 003e 011C     		mov	r1, r0
 1054 0040 201C     		mov	r0, r4
 1055 0042 FFF7FEFF 		bl	strcat
 1056              	.LVL129:
 977:..\Slider.cydsn/command_telemetry.c ****     strcat(telemetry, itoa(flash_first_row));
 1057              		.loc 1 977 0
 1058 0046 201C     		mov	r0, r4
 1059 0048 FFF7FEFF 		bl	strlen
 1060              	.LVL130:
 1061 004c 2018     		add	r0, r4, r0
 1062 004e 1E49     		ldr	r1, .L74+8
 1063 0050 0F22     		mov	r2, #15
 1064 0052 FFF7FEFF 		bl	memcpy
 1065              	.LVL131:
 978:..\Slider.cydsn/command_telemetry.c ****     strcat(telemetry, ", \"last row\":");
 1066              		.loc 1 978 0
 1067 0056 301C     		mov	r0, r6
 1068 0058 0021     		mov	r1, #0
 1069 005a FFF7FEFF 		bl	itoa
 1070              	.LVL132:
 1071 005e 011C     		mov	r1, r0
 1072 0060 201C     		mov	r0, r4
 1073 0062 FFF7FEFF 		bl	strcat
 1074              	.LVL133:
 979:..\Slider.cydsn/command_telemetry.c ****     strcat(telemetry, itoa(flash_last_row));
 1075              		.loc 1 979 0
 1076 0066 201C     		mov	r0, r4
 1077 0068 FFF7FEFF 		bl	strlen
 1078              	.LVL134:
 1079 006c 2018     		add	r0, r4, r0
 1080 006e 1749     		ldr	r1, .L74+12
 1081 0070 0E22     		mov	r2, #14
 1082 0072 FFF7FEFF 		bl	memcpy
 1083              	.LVL135:
 980:..\Slider.cydsn/command_telemetry.c ****     strcat(telemetry, ", \"size\":");
 1084              		.loc 1 980 0
 1085 0076 0098     		ldr	r0, [sp]
 1086 0078 0021     		mov	r1, #0
 1087 007a FFF7FEFF 		bl	itoa
 1088              	.LVL136:
 1089 007e 011C     		mov	r1, r0
 1090 0080 201C     		mov	r0, r4
 1091 0082 FFF7FEFF 		bl	strcat
 1092              	.LVL137:
 981:..\Slider.cydsn/command_telemetry.c ****     strcat(telemetry, itoa(flash_size));
 1093              		.loc 1 981 0
 1094 0086 201C     		mov	r0, r4
ARM GAS  C:\Users\MM1005~1\AppData\Local\Temp\cc36bet7.s 			page 39


 1095 0088 FFF7FEFF 		bl	strlen
 1096              	.LVL138:
 1097 008c 2018     		add	r0, r4, r0
 1098 008e 1049     		ldr	r1, .L74+16
 1099 0090 0A22     		mov	r2, #10
 1100 0092 FFF7FEFF 		bl	memcpy
 1101              	.LVL139:
 982:..\Slider.cydsn/command_telemetry.c ****     strcat(telemetry, "}");
 1102              		.loc 1 982 0
 1103 0096 0198     		ldr	r0, [sp, #4]
 1104 0098 0021     		mov	r1, #0
 1105 009a FFF7FEFF 		bl	itoa
 1106              	.LVL140:
 1107 009e 011C     		mov	r1, r0
 1108 00a0 201C     		mov	r0, r4
 1109 00a2 FFF7FEFF 		bl	strcat
 1110              	.LVL141:
 983:..\Slider.cydsn/command_telemetry.c ****     
 1111              		.loc 1 983 0
 1112 00a6 201C     		mov	r0, r4
 1113 00a8 FFF7FEFF 		bl	strlen
 1114              	.LVL142:
 1115 00ac 2018     		add	r0, r4, r0
 1116 00ae 0949     		ldr	r1, .L74+20
 1117 00b0 0222     		mov	r2, #2
 1118 00b2 FFF7FEFF 		bl	memcpy
 1119              	.LVL143:
 985:..\Slider.cydsn/command_telemetry.c **** }// send_flash_geometry_telemetry
 1120              		.loc 1 985 0
 1121 00b6 201C     		mov	r0, r4
 1122 00b8 FFF7FEFF 		bl	send_telemetry
 1123              	.LVL144:
 986:..\Slider.cydsn/command_telemetry.c **** 
 1124              		.loc 1 986 0
 1125 00bc 03B0     		add	sp, sp, #12
 1126              	.LVL145:
 1127              		@ sp needed
 1128              	.LVL146:
 1129              	.LVL147:
 1130 00be F0BD     		pop	{r4, r5, r6, r7, pc}
 1131              	.L75:
 1132              		.align	2
 1133              	.L74:
 1134 00c0 00000000 		.word	.LANCHOR3
 1135 00c4 BC000000 		.word	.LC47
 1136 00c8 E4000000 		.word	.LC49
 1137 00cc F4000000 		.word	.LC51
 1138 00d0 04010000 		.word	.LC53
 1139 00d4 10010000 		.word	.LC55
 1140              		.cfi_endproc
 1141              	.LFE50:
 1142              		.size	send_flash_geometry_telemetry, .-send_flash_geometry_telemetry
 1143              		.section	.text.set_is_telemetry_enable,"ax",%progbits
 1144              		.align	2
 1145              		.global	set_is_telemetry_enable
 1146              		.code	16
 1147              		.thumb_func
ARM GAS  C:\Users\MM1005~1\AppData\Local\Temp\cc36bet7.s 			page 40


 1148              		.type	set_is_telemetry_enable, %function
 1149              	set_is_telemetry_enable:
 1150              	.LFB53:
1008:..\Slider.cydsn/command_telemetry.c **** 
1009:..\Slider.cydsn/command_telemetry.c **** //=============================================================================
1010:..\Slider.cydsn/command_telemetry.c **** //===================================================== set_is_telemetry_enable
1011:..\Slider.cydsn/command_telemetry.c **** //=============================================================================
1012:..\Slider.cydsn/command_telemetry.c **** void set_is_telemetry_enable(BOOL the_is_telemetry_enable)
1013:..\Slider.cydsn/command_telemetry.c **** {
 1151              		.loc 1 1013 0
 1152              		.cfi_startproc
 1153              	.LVL148:
1014:..\Slider.cydsn/command_telemetry.c ****     is_telemetry_enable = the_is_telemetry_enable;
 1154              		.loc 1 1014 0
 1155 0000 014B     		ldr	r3, .L77
 1156 0002 1870     		strb	r0, [r3]
1015:..\Slider.cydsn/command_telemetry.c **** }// set_is_telemetry_enable
 1157              		.loc 1 1015 0
 1158              		@ sp needed
 1159 0004 7047     		bx	lr
 1160              	.L78:
 1161 0006 C046     		.align	2
 1162              	.L77:
 1163 0008 00000000 		.word	.LANCHOR3
 1164              		.cfi_endproc
 1165              	.LFE53:
 1166              		.size	set_is_telemetry_enable, .-set_is_telemetry_enable
 1167              		.section	.text.get_is_sensor_telemetry_enable,"ax",%progbits
 1168              		.align	2
 1169              		.global	get_is_sensor_telemetry_enable
 1170              		.code	16
 1171              		.thumb_func
 1172              		.type	get_is_sensor_telemetry_enable, %function
 1173              	get_is_sensor_telemetry_enable:
 1174              	.LFB54:
1016:..\Slider.cydsn/command_telemetry.c **** 
1017:..\Slider.cydsn/command_telemetry.c **** //=============================================================================
1018:..\Slider.cydsn/command_telemetry.c **** //============================================== get_is_sensor_telemetry_enable
1019:..\Slider.cydsn/command_telemetry.c **** //=============================================================================
1020:..\Slider.cydsn/command_telemetry.c **** BOOL get_is_sensor_telemetry_enable()
1021:..\Slider.cydsn/command_telemetry.c **** {
 1175              		.loc 1 1021 0
 1176              		.cfi_startproc
1022:..\Slider.cydsn/command_telemetry.c ****     return is_sensor_telemetry_enable;
 1177              		.loc 1 1022 0
 1178 0000 014B     		ldr	r3, .L80
 1179 0002 1879     		ldrb	r0, [r3, #4]
1023:..\Slider.cydsn/command_telemetry.c **** }// get_is_sensor_telemetry_enable
 1180              		.loc 1 1023 0
 1181              		@ sp needed
 1182 0004 7047     		bx	lr
 1183              	.L81:
 1184 0006 C046     		.align	2
 1185              	.L80:
 1186 0008 00020000 		.word	.LANCHOR4
 1187              		.cfi_endproc
 1188              	.LFE54:
ARM GAS  C:\Users\MM1005~1\AppData\Local\Temp\cc36bet7.s 			page 41


 1189              		.size	get_is_sensor_telemetry_enable, .-get_is_sensor_telemetry_enable
 1190              		.section	.text.send_button_telemetry,"ax",%progbits
 1191              		.align	2
 1192              		.global	send_button_telemetry
 1193              		.code	16
 1194              		.thumb_func
 1195              		.type	send_button_telemetry, %function
 1196              	send_button_telemetry:
 1197              	.LFB48:
 897:..\Slider.cydsn/command_telemetry.c ****     int           nb_touched       =  0;
 1198              		.loc 1 897 0
 1199              		.cfi_startproc
 1200              	.LVL149:
 1201 0000 F0B5     		push	{r4, r5, r6, r7, lr}
 1202              		.cfi_def_cfa_offset 20
 1203              		.cfi_offset 4, -20
 1204              		.cfi_offset 5, -16
 1205              		.cfi_offset 6, -12
 1206              		.cfi_offset 7, -8
 1207              		.cfi_offset 14, -4
 1208 0002 91B0     		sub	sp, sp, #68
 1209              		.cfi_def_cfa_offset 88
 1210 0004 051C     		mov	r5, r0
 1211 0006 0E1C     		mov	r6, r1
 1212              	.LVL150:
 899:..\Slider.cydsn/command_telemetry.c ****     char          str_direction[2] = {finger_direct, '\0'};
 1213              		.loc 1 899 0
 1214 0008 FFF7FEFF 		bl	get_timer_interrrupt_count
 1215              	.LVL151:
 1216 000c FFF7FEFF 		bl	Timer_1_ReadCounter
 1217              	.LVL152:
 905:..\Slider.cydsn/command_telemetry.c ****     memset(sensors_vec, '\0', sizeof(sensors_vec));
 1218              		.loc 1 905 0
 1219 0010 2848     		ldr	r0, .L88
 1220 0012 0430     		add	r0, r0, #4
 1221 0014 0021     		mov	r1, #0
 1222 0016 8022     		mov	r2, #128
 1223 0018 9200     		lsl	r2, r2, #2
 1224 001a FFF7FEFF 		bl	memset
 1225              	.LVL153:
 906:..\Slider.cydsn/command_telemetry.c ****     
 1226              		.loc 1 906 0
 1227 001e 6846     		mov	r0, sp
 1228 0020 0021     		mov	r1, #0
 1229 0022 4022     		mov	r2, #64
 1230 0024 FFF7FEFF 		bl	memset
 1231              	.LVL154:
 908:..\Slider.cydsn/command_telemetry.c ****          
 1232              		.loc 1 908 0
 1233 0028 234B     		ldr	r3, .L88+4
 1234 002a DB8A     		ldrh	r3, [r3, #22]
 1235 002c 1F1C     		add	r7, r3, #0
 1236 002e 3F2B     		cmp	r3, #63
 1237 0030 00D9     		bls	.L83
 1238 0032 3F27     		mov	r7, #63
 1239              	.L83:
 1240 0034 BFB2     		uxth	r7, r7
ARM GAS  C:\Users\MM1005~1\AppData\Local\Temp\cc36bet7.s 			page 42


 1241              	.LVL155:
 910:..\Slider.cydsn/command_telemetry.c ****     {
 1242              		.loc 1 910 0
 1243 0036 0024     		mov	r4, #0
 1244 0038 0EE0     		b	.L84
 1245              	.LVL156:
 1246              	.L87:
 912:..\Slider.cydsn/command_telemetry.c ****         {
 1247              		.loc 1 912 0
 1248 003a 0020     		mov	r0, #0
 1249 003c 211C     		mov	r1, r4
 1250 003e FFF7FEFF 		bl	CapSense_IsSensorActive
 1251              	.LVL157:
 1252 0042 0028     		cmp	r0, #0
 1253 0044 03D0     		beq	.L85
 915:..\Slider.cydsn/command_telemetry.c ****         }
 1254              		.loc 1 915 0
 1255 0046 3123     		mov	r3, #49
 1256 0048 6A46     		mov	r2, sp
 1257 004a 1355     		strb	r3, [r2, r4]
 1258 004c 02E0     		b	.L86
 1259              	.L85:
 919:..\Slider.cydsn/command_telemetry.c ****         }
 1260              		.loc 1 919 0
 1261 004e 3023     		mov	r3, #48
 1262 0050 6A46     		mov	r2, sp
 1263 0052 1355     		strb	r3, [r2, r4]
 1264              	.L86:
 910:..\Slider.cydsn/command_telemetry.c ****     {
 1265              		.loc 1 910 0 discriminator 2
 1266 0054 0134     		add	r4, r4, #1
 1267              	.LVL158:
 1268 0056 A4B2     		uxth	r4, r4
 1269              	.LVL159:
 1270              	.L84:
 910:..\Slider.cydsn/command_telemetry.c ****     {
 1271              		.loc 1 910 0 is_stmt 0 discriminator 1
 1272 0058 BC42     		cmp	r4, r7
 1273 005a EED3     		bcc	.L87
 923:..\Slider.cydsn/command_telemetry.c ****     strcat(telemetry, itoa(button));
 1274              		.loc 1 923 0 is_stmt 1
 1275 005c 154C     		ldr	r4, .L88
 1276              	.LVL160:
 1277 005e 0434     		add	r4, r4, #4
 1278 0060 1649     		ldr	r1, .L88+8
 1279 0062 231C     		mov	r3, r4
 1280 0064 0A1C     		mov	r2, r1
 1281 0066 83CA     		ldmia	r2!, {r0, r1, r7}
 1282 0068 83C3     		stmia	r3!, {r0, r1, r7}
 1283              	.LVL161:
 1284 006a 83CA     		ldmia	r2!, {r0, r1, r7}
 1285 006c 83C3     		stmia	r3!, {r0, r1, r7}
 1286 006e 1278     		ldrb	r2, [r2]
 1287 0070 1A70     		strb	r2, [r3]
 924:..\Slider.cydsn/command_telemetry.c **** #if USE_ALL_BUTTON_TELE     
 1288              		.loc 1 924 0
 1289 0072 E917     		asr	r1, r5, #31
ARM GAS  C:\Users\MM1005~1\AppData\Local\Temp\cc36bet7.s 			page 43


 1290 0074 281C     		mov	r0, r5
 1291 0076 FFF7FEFF 		bl	itoa
 1292              	.LVL162:
 1293 007a 011C     		mov	r1, r0
 1294 007c 201C     		mov	r0, r4
 1295 007e FFF7FEFF 		bl	strcat
 1296              	.LVL163:
 939:..\Slider.cydsn/command_telemetry.c ****     strcat(telemetry, action);
 1297              		.loc 1 939 0
 1298 0082 201C     		mov	r0, r4
 1299 0084 FFF7FEFF 		bl	strlen
 1300              	.LVL164:
 1301 0088 2018     		add	r0, r4, r0
 1302 008a 0D49     		ldr	r1, .L88+12
 1303 008c 0D22     		mov	r2, #13
 1304 008e FFF7FEFF 		bl	memcpy
 1305              	.LVL165:
 940:..\Slider.cydsn/command_telemetry.c ****     strcat(telemetry, "\"}");
 1306              		.loc 1 940 0
 1307 0092 201C     		mov	r0, r4
 1308 0094 311C     		mov	r1, r6
 1309 0096 FFF7FEFF 		bl	strcat
 1310              	.LVL166:
 941:..\Slider.cydsn/command_telemetry.c ****     
 1311              		.loc 1 941 0
 1312 009a 201C     		mov	r0, r4
 1313 009c FFF7FEFF 		bl	strlen
 1314              	.LVL167:
 1315 00a0 2018     		add	r0, r4, r0
 1316 00a2 0849     		ldr	r1, .L88+16
 1317 00a4 0322     		mov	r2, #3
 1318 00a6 FFF7FEFF 		bl	memcpy
 1319              	.LVL168:
 943:..\Slider.cydsn/command_telemetry.c ****     
 1320              		.loc 1 943 0
 1321 00aa 201C     		mov	r0, r4
 1322 00ac FFF7FEFF 		bl	send_telemetry
 1323              	.LVL169:
 949:..\Slider.cydsn/command_telemetry.c **** 
 1324              		.loc 1 949 0
 1325 00b0 11B0     		add	sp, sp, #68
 1326              		@ sp needed
 1327              	.LVL170:
 1328              	.LVL171:
 1329 00b2 F0BD     		pop	{r4, r5, r6, r7, pc}
 1330              	.L89:
 1331              		.align	2
 1332              	.L88:
 1333 00b4 00000000 		.word	.LANCHOR3
 1334 00b8 00000000 		.word	CapSense_dsFlash
 1335 00bc 14010000 		.word	.LC62
 1336 00c0 30010000 		.word	.LC64
 1337 00c4 40000000 		.word	.LC23
 1338              		.cfi_endproc
 1339              	.LFE48:
 1340              		.size	send_button_telemetry, .-send_button_telemetry
 1341              		.section	.text.set_is_sensor_telemetry_enable,"ax",%progbits
ARM GAS  C:\Users\MM1005~1\AppData\Local\Temp\cc36bet7.s 			page 44


 1342              		.align	2
 1343              		.global	set_is_sensor_telemetry_enable
 1344              		.code	16
 1345              		.thumb_func
 1346              		.type	set_is_sensor_telemetry_enable, %function
 1347              	set_is_sensor_telemetry_enable:
 1348              	.LFB55:
1024:..\Slider.cydsn/command_telemetry.c **** 
1025:..\Slider.cydsn/command_telemetry.c **** //=============================================================================
1026:..\Slider.cydsn/command_telemetry.c **** //============================================== set_is_sensor_telemetry_enable
1027:..\Slider.cydsn/command_telemetry.c **** //=============================================================================
1028:..\Slider.cydsn/command_telemetry.c **** void set_is_sensor_telemetry_enable(BOOL the_is_sensor_telemetry_enable)
1029:..\Slider.cydsn/command_telemetry.c **** {
 1349              		.loc 1 1029 0
 1350              		.cfi_startproc
 1351              	.LVL172:
1030:..\Slider.cydsn/command_telemetry.c ****     is_sensor_telemetry_enable = the_is_sensor_telemetry_enable;
 1352              		.loc 1 1030 0
 1353 0000 014B     		ldr	r3, .L91
 1354 0002 1871     		strb	r0, [r3, #4]
1031:..\Slider.cydsn/command_telemetry.c **** }// set_is_sensor_telemetry_enable
 1355              		.loc 1 1031 0
 1356              		@ sp needed
 1357 0004 7047     		bx	lr
 1358              	.L92:
 1359 0006 C046     		.align	2
 1360              	.L91:
 1361 0008 00020000 		.word	.LANCHOR4
 1362              		.cfi_endproc
 1363              	.LFE55:
 1364              		.size	set_is_sensor_telemetry_enable, .-set_is_sensor_telemetry_enable
 1365              		.section	.text.parse_and_execute_command,"ax",%progbits
 1366              		.align	2
 1367              		.global	parse_and_execute_command
 1368              		.code	16
 1369              		.thumb_func
 1370              		.type	parse_and_execute_command, %function
 1371              	parse_and_execute_command:
 1372              	.LFB43:
 213:..\Slider.cydsn/command_telemetry.c ****     t_enum_command            cmd_id           = CMD_UNKNOWN;
 1373              		.loc 1 213 0
 1374              		.cfi_startproc
 1375              	.LVL173:
 1376 0000 F0B5     		push	{r4, r5, r6, r7, lr}
 1377              		.cfi_def_cfa_offset 20
 1378              		.cfi_offset 4, -20
 1379              		.cfi_offset 5, -16
 1380              		.cfi_offset 6, -12
 1381              		.cfi_offset 7, -8
 1382              		.cfi_offset 14, -4
 1383 0002 93B0     		sub	sp, sp, #76
 1384              		.cfi_def_cfa_offset 96
 1385 0004 041C     		mov	r4, r0
 1386              	.LVL174:
 222:..\Slider.cydsn/command_telemetry.c ****     char*                     next_param_str   = NULL; 
 1387              		.loc 1 222 0
 1388 0006 2C21     		mov	r1, #44
ARM GAS  C:\Users\MM1005~1\AppData\Local\Temp\cc36bet7.s 			page 45


 1389 0008 FFF7FEFF 		bl	strchr
 1390              	.LVL175:
 239:..\Slider.cydsn/command_telemetry.c ****     {
 1391              		.loc 1 239 0
 1392 000c 0028     		cmp	r0, #0
 1393 000e 06D1     		bne	.L94
 241:..\Slider.cydsn/command_telemetry.c ****         return FALSE;    
 1394              		.loc 1 241 0
 1395 0010 0230     		add	r0, r0, #2
 1396              	.LVL176:
 1397 0012 211C     		mov	r1, r4
 1398 0014 C94A     		ldr	r2, .L180
 1399 0016 FFF7FEFF 		bl	send_alarm_telemetry
 1400              	.LVL177:
 242:..\Slider.cydsn/command_telemetry.c ****     }// If we can't a comma inside the command
 1401              		.loc 1 242 0
 1402 001a 0020     		mov	r0, #0
 1403 001c 77E3     		b	.L95
 1404              	.LVL178:
 1405              	.L94:
 245:..\Slider.cydsn/command_telemetry.c ****     
 1406              		.loc 1 245 0
 1407 001e 451C     		add	r5, r0, #1
 1408              	.LVL179:
 1409 0020 FFF7FEFF 		bl	get_cmd_id_from_cmd_string
 1410              	.LVL180:
 247:..\Slider.cydsn/command_telemetry.c ****     {
 1411              		.loc 1 247 0
 1412 0024 0828     		cmp	r0, #8
 1413 0026 00D9     		bls	.LCB1398
 1414 0028 6BE3     		b	.L96	@long jump
 1415              	.LCB1398:
 1416 002a 8000     		lsl	r0, r0, #2
 1417              	.LVL181:
 1418 002c C44B     		ldr	r3, .L180+4
 1419 002e 1B58     		ldr	r3, [r3, r0]
 1420 0030 9F46     		mov	pc, r3
 1421              		.section	.rodata
 1422              		.align	2
 1423              	.L98:
 1424 0000 7E000000 		.word	.L97
 1425 0004 14010000 		.word	.L99
 1426 0008 32000000 		.word	.L100
 1427 000c 94010000 		.word	.L101
 1428 0010 58000000 		.word	.L174
 1429 0014 5A050000 		.word	.L103
 1430 0018 BE050000 		.word	.L104
 1431 001c 22060000 		.word	.L105
 1432 0020 F0060000 		.word	.L106
 1433              		.section	.text.parse_and_execute_command
 1434              	.L100:
 251:..\Slider.cydsn/command_telemetry.c ****             return FALSE;    
 1435              		.loc 1 251 0
 1436 0032 0220     		mov	r0, #2
 1437 0034 211C     		mov	r1, r4
 1438 0036 C34A     		ldr	r2, .L180+8
 1439 0038 FFF7FEFF 		bl	send_alarm_telemetry
ARM GAS  C:\Users\MM1005~1\AppData\Local\Temp\cc36bet7.s 			page 46


 1440              	.LVL182:
 252:..\Slider.cydsn/command_telemetry.c ****         }// CMD_CAPSENSE
 1441              		.loc 1 252 0
 1442 003c 0020     		mov	r0, #0
 1443 003e 66E3     		b	.L95
 1444              	.LVL183:
 1445              	.L107:
 259:..\Slider.cydsn/command_telemetry.c ****             }// for all the commands
 1446              		.loc 1 259 0 discriminator 3
 1447 0040 6300     		lsl	r3, r4, #1
 1448 0042 1B19     		add	r3, r3, r4
 1449 0044 9B00     		lsl	r3, r3, #2
 1450 0046 C04A     		ldr	r2, .L180+12
 1451 0048 D318     		add	r3, r2, r3
 1452 004a 5968     		ldr	r1, [r3, #4]
 1453 004c 9A68     		ldr	r2, [r3, #8]
 1454 004e 0020     		mov	r0, #0
 1455 0050 FFF7FEFF 		bl	send_alarm_telemetry
 1456              	.LVL184:
 257:..\Slider.cydsn/command_telemetry.c ****             {
 1457              		.loc 1 257 0 discriminator 3
 1458 0054 0134     		add	r4, r4, #1
 1459              	.LVL185:
 1460 0056 00E0     		b	.L102
 1461              	.LVL186:
 1462              	.L174:
 247:..\Slider.cydsn/command_telemetry.c ****     {
 1463              		.loc 1 247 0
 1464 0058 0024     		mov	r4, #0
 1465              	.LVL187:
 1466              	.L102:
 257:..\Slider.cydsn/command_telemetry.c ****             {
 1467              		.loc 1 257 0 discriminator 1
 1468 005a 082C     		cmp	r4, #8
 1469 005c F0DD     		ble	.L107
 1470 005e 0024     		mov	r4, #0
 1471              	.LVL188:
 1472 0060 09E0     		b	.L108
 1473              	.LVL189:
 1474              	.L109:
 264:..\Slider.cydsn/command_telemetry.c ****                 send_alarm_telemetry(ALARM_LOG, "animation", animation.description);
 1475              		.loc 1 264 0 discriminator 3
 1476 0062 E0B2     		uxtb	r0, r4
 1477 0064 0FA9     		add	r1, sp, #60
 1478 0066 FFF7FEFF 		bl	get_animation
 1479              	.LVL190:
 265:..\Slider.cydsn/command_telemetry.c ****             }// for all the commands
 1480              		.loc 1 265 0 discriminator 3
 1481 006a 119A     		ldr	r2, [sp, #68]
 1482 006c 0020     		mov	r0, #0
 1483 006e B749     		ldr	r1, .L180+16
 1484 0070 FFF7FEFF 		bl	send_alarm_telemetry
 1485              	.LVL191:
 262:..\Slider.cydsn/command_telemetry.c ****             {
 1486              		.loc 1 262 0 discriminator 3
 1487 0074 0134     		add	r4, r4, #1
 1488              	.LVL192:
ARM GAS  C:\Users\MM1005~1\AppData\Local\Temp\cc36bet7.s 			page 47


 1489              	.L108:
 262:..\Slider.cydsn/command_telemetry.c ****             {
 1490              		.loc 1 262 0 is_stmt 0 discriminator 1
 1491 0076 0D2C     		cmp	r4, #13
 1492 0078 F3DD     		ble	.L109
 811:..\Slider.cydsn/command_telemetry.c **** }// parse_and_execute_command
 1493              		.loc 1 811 0 is_stmt 1
 1494 007a 0120     		mov	r0, #1
 1495 007c 47E3     		b	.L95
 1496              	.LVL193:
 1497              	.L97:
 273:..\Slider.cydsn/command_telemetry.c ****             {
 1498              		.loc 1 273 0
 1499 007e 281C     		mov	r0, r5
 1500 0080 2C21     		mov	r1, #44
 1501 0082 FFF7FEFF 		bl	strchr
 1502              	.LVL194:
 1503 0086 0028     		cmp	r0, #0
 1504 0088 06D1     		bne	.L110
 275:..\Slider.cydsn/command_telemetry.c ****                 return FALSE;
 1505              		.loc 1 275 0
 1506 008a 0230     		add	r0, r0, #2
 1507              	.LVL195:
 1508 008c 211C     		mov	r1, r4
 1509 008e B04A     		ldr	r2, .L180+20
 1510 0090 FFF7FEFF 		bl	send_alarm_telemetry
 1511              	.LVL196:
 276:..\Slider.cydsn/command_telemetry.c ****             }// If we can't find the next ',' character
 1512              		.loc 1 276 0
 1513 0094 0020     		mov	r0, #0
 1514 0096 3AE3     		b	.L95
 1515              	.LVL197:
 1516              	.L110:
 279:..\Slider.cydsn/command_telemetry.c ****             {
 1517              		.loc 1 279 0
 1518 0098 0130     		add	r0, r0, #1
 1519              	.LVL198:
 1520 009a 3A21     		mov	r1, #58
 1521 009c FFF7FEFF 		bl	strchr
 1522              	.LVL199:
 1523 00a0 0028     		cmp	r0, #0
 1524 00a2 06D1     		bne	.L111
 281:..\Slider.cydsn/command_telemetry.c ****                 return FALSE;
 1525              		.loc 1 281 0
 1526 00a4 0230     		add	r0, r0, #2
 1527              	.LVL200:
 1528 00a6 211C     		mov	r1, r4
 1529 00a8 A94A     		ldr	r2, .L180+20
 1530 00aa FFF7FEFF 		bl	send_alarm_telemetry
 1531              	.LVL201:
 282:..\Slider.cydsn/command_telemetry.c ****             }// If we can't find the next ':' character
 1532              		.loc 1 282 0
 1533 00ae 0020     		mov	r0, #0
 1534 00b0 2DE3     		b	.L95
 1535              	.LVL202:
 1536              	.L111:
 284:..\Slider.cydsn/command_telemetry.c ****             
ARM GAS  C:\Users\MM1005~1\AppData\Local\Temp\cc36bet7.s 			page 48


 1537              		.loc 1 284 0
 1538 00b2 451C     		add	r5, r0, #1
 1539              	.LVL203:
 286:..\Slider.cydsn/command_telemetry.c ****             {
 1540              		.loc 1 286 0
 1541 00b4 281C     		mov	r0, r5
 1542 00b6 FFF7FEFF 		bl	get_anim_cmd_id_from_cmd_string
 1543              	.LVL204:
 1544 00ba 0128     		cmp	r0, #1
 1545 00bc 0BD0     		beq	.L113
 1546 00be 0028     		cmp	r0, #0
 1547 00c0 04D0     		beq	.L114
 1548 00c2 0228     		cmp	r0, #2
 1549 00c4 0CD0     		beq	.L115
 1550 00c6 0328     		cmp	r0, #3
 1551 00c8 0FD0     		beq	.L116
 1552 00ca 13E0     		b	.L175
 1553              	.L114:
 290:..\Slider.cydsn/command_telemetry.c ****                     break;
 1554              		.loc 1 290 0
 1555 00cc 0120     		mov	r0, #1
 1556              	.LVL205:
 1557 00ce FFF7FEFF 		bl	set_is_auto_anim_rotation_enable
 1558              	.LVL206:
 811:..\Slider.cydsn/command_telemetry.c **** }// parse_and_execute_command
 1559              		.loc 1 811 0
 1560 00d2 0120     		mov	r0, #1
 291:..\Slider.cydsn/command_telemetry.c ****                 }// CMD_ANIM_AUTO
 1561              		.loc 1 291 0
 1562 00d4 1BE3     		b	.L95
 1563              	.LVL207:
 1564              	.L113:
 296:..\Slider.cydsn/command_telemetry.c ****                     break;
 1565              		.loc 1 296 0
 1566 00d6 0020     		mov	r0, #0
 1567              	.LVL208:
 1568 00d8 FFF7FEFF 		bl	set_is_auto_anim_rotation_enable
 1569              	.LVL209:
 811:..\Slider.cydsn/command_telemetry.c **** }// parse_and_execute_command
 1570              		.loc 1 811 0
 1571 00dc 0120     		mov	r0, #1
 297:..\Slider.cydsn/command_telemetry.c ****                 }// CMD_ANIM_MANUAL
 1572              		.loc 1 297 0
 1573 00de 16E3     		b	.L95
 1574              	.LVL210:
 1575              	.L115:
 302:..\Slider.cydsn/command_telemetry.c ****                     break;
 1576              		.loc 1 302 0
 1577 00e0 0020     		mov	r0, #0
 1578              	.LVL211:
 1579 00e2 FFF7FEFF 		bl	set_is_anim_on_button_up_enable
 1580              	.LVL212:
 811:..\Slider.cydsn/command_telemetry.c **** }// parse_and_execute_command
 1581              		.loc 1 811 0
 1582 00e6 0120     		mov	r0, #1
 303:..\Slider.cydsn/command_telemetry.c ****                 }// CMD_ANIM_STOP
 1583              		.loc 1 303 0
ARM GAS  C:\Users\MM1005~1\AppData\Local\Temp\cc36bet7.s 			page 49


 1584 00e8 11E3     		b	.L95
 1585              	.LVL213:
 1586              	.L116:
 308:..\Slider.cydsn/command_telemetry.c ****                     break;
 1587              		.loc 1 308 0
 1588 00ea 0120     		mov	r0, #1
 1589              	.LVL214:
 1590 00ec FFF7FEFF 		bl	set_is_anim_on_button_up_enable
 1591              	.LVL215:
 811:..\Slider.cydsn/command_telemetry.c **** }// parse_and_execute_command
 1592              		.loc 1 811 0
 1593 00f0 0120     		mov	r0, #1
 309:..\Slider.cydsn/command_telemetry.c ****                 }// CMD_ANIM_RESUME
 1594              		.loc 1 309 0
 1595 00f2 0CE3     		b	.L95
 1596              	.LVL216:
 1597              	.L175:
 315:..\Slider.cydsn/command_telemetry.c ****                     {
 1598              		.loc 1 315 0
 1599 00f4 281C     		mov	r0, r5
 1600              	.LVL217:
 1601 00f6 FFF7FEFF 		bl	get_anim_id_from_cmd_string
 1602              	.LVL218:
 1603 00fa 0E28     		cmp	r0, #14
 1604 00fc 03D0     		beq	.L117
 317:..\Slider.cydsn/command_telemetry.c ****                     }// if we found a valid animation description in the command
 1605              		.loc 1 317 0
 1606 00fe FFF7FEFF 		bl	set_current_callback_anim
 1607              	.LVL219:
 811:..\Slider.cydsn/command_telemetry.c **** }// parse_and_execute_command
 1608              		.loc 1 811 0
 1609 0102 0120     		mov	r0, #1
 324:..\Slider.cydsn/command_telemetry.c ****                 }// CMD_ANIM_UNKOWN, default
 1610              		.loc 1 324 0
 1611 0104 03E3     		b	.L95
 1612              	.LVL220:
 1613              	.L117:
 321:..\Slider.cydsn/command_telemetry.c ****                         return FALSE;
 1614              		.loc 1 321 0
 1615 0106 0220     		mov	r0, #2
 1616              	.LVL221:
 1617 0108 211C     		mov	r1, r4
 1618 010a 914A     		ldr	r2, .L180+20
 1619 010c FFF7FEFF 		bl	send_alarm_telemetry
 1620              	.LVL222:
 322:..\Slider.cydsn/command_telemetry.c ****                     }// else, we couldn't find a valid animation 
 1621              		.loc 1 322 0
 1622 0110 0020     		mov	r0, #0
 1623 0112 FCE2     		b	.L95
 1624              	.LVL223:
 1625              	.L99:
 332:..\Slider.cydsn/command_telemetry.c ****             {
 1626              		.loc 1 332 0
 1627 0114 281C     		mov	r0, r5
 1628 0116 2C21     		mov	r1, #44
 1629 0118 FFF7FEFF 		bl	strchr
 1630              	.LVL224:
ARM GAS  C:\Users\MM1005~1\AppData\Local\Temp\cc36bet7.s 			page 50


 1631 011c 0028     		cmp	r0, #0
 1632 011e 06D1     		bne	.L118
 334:..\Slider.cydsn/command_telemetry.c ****                 return FALSE;
 1633              		.loc 1 334 0
 1634 0120 0230     		add	r0, r0, #2
 1635              	.LVL225:
 1636 0122 211C     		mov	r1, r4
 1637 0124 8B4A     		ldr	r2, .L180+24
 1638 0126 FFF7FEFF 		bl	send_alarm_telemetry
 1639              	.LVL226:
 335:..\Slider.cydsn/command_telemetry.c ****             }// If we can't find the next ',' character
 1640              		.loc 1 335 0
 1641 012a 0020     		mov	r0, #0
 1642 012c EFE2     		b	.L95
 1643              	.LVL227:
 1644              	.L118:
 338:..\Slider.cydsn/command_telemetry.c ****             {
 1645              		.loc 1 338 0
 1646 012e 0130     		add	r0, r0, #1
 1647              	.LVL228:
 1648 0130 3A21     		mov	r1, #58
 1649 0132 FFF7FEFF 		bl	strchr
 1650              	.LVL229:
 1651 0136 0028     		cmp	r0, #0
 1652 0138 06D1     		bne	.L119
 340:..\Slider.cydsn/command_telemetry.c ****                 return FALSE;
 1653              		.loc 1 340 0
 1654 013a 0230     		add	r0, r0, #2
 1655              	.LVL230:
 1656 013c 211C     		mov	r1, r4
 1657 013e 854A     		ldr	r2, .L180+24
 1658 0140 FFF7FEFF 		bl	send_alarm_telemetry
 1659              	.LVL231:
 341:..\Slider.cydsn/command_telemetry.c ****             }// If we can't find the next ':' character
 1660              		.loc 1 341 0
 1661 0144 0020     		mov	r0, #0
 1662 0146 E2E2     		b	.L95
 1663              	.LVL232:
 1664              	.L119:
 343:..\Slider.cydsn/command_telemetry.c ****             
 1665              		.loc 1 343 0
 1666 0148 0130     		add	r0, r0, #1
 1667              	.LVL233:
 345:..\Slider.cydsn/command_telemetry.c ****             {
 1668              		.loc 1 345 0
 1669 014a FFF7FEFF 		bl	get_boot_cmd_id_from_cmd_string
 1670              	.LVL234:
 1671 014e 0128     		cmp	r0, #1
 1672 0150 0BD0     		beq	.L121
 1673 0152 0028     		cmp	r0, #0
 1674 0154 02D0     		beq	.L122
 1675 0156 0228     		cmp	r0, #2
 1676 0158 0ED0     		beq	.L123
 1677 015a 14E0     		b	.L176
 1678              	.L122:
 354:..\Slider.cydsn/command_telemetry.c **** #endif // USE_BOOTLOADER  
 1679              		.loc 1 354 0
ARM GAS  C:\Users\MM1005~1\AppData\Local\Temp\cc36bet7.s 			page 51


 1680 015c 0320     		mov	r0, #3
 1681              	.LVL235:
 1682 015e 211C     		mov	r1, r4
 1683 0160 7D4A     		ldr	r2, .L180+28
 1684 0162 FFF7FEFF 		bl	send_alarm_telemetry
 1685              	.LVL236:
 811:..\Slider.cydsn/command_telemetry.c **** }// parse_and_execute_command
 1686              		.loc 1 811 0
 1687 0166 0120     		mov	r0, #1
 356:..\Slider.cydsn/command_telemetry.c ****                 }// CMD_BOOT_START      
 1688              		.loc 1 356 0
 1689 0168 D1E2     		b	.L95
 1690              	.LVL237:
 1691              	.L121:
 364:..\Slider.cydsn/command_telemetry.c **** #endif // USE_BOOTLOADER      
 1692              		.loc 1 364 0
 1693 016a 0320     		mov	r0, #3
 1694              	.LVL238:
 1695 016c 211C     		mov	r1, r4
 1696 016e 7A4A     		ldr	r2, .L180+28
 1697 0170 FFF7FEFF 		bl	send_alarm_telemetry
 1698              	.LVL239:
 811:..\Slider.cydsn/command_telemetry.c **** }// parse_and_execute_command
 1699              		.loc 1 811 0
 1700 0174 0120     		mov	r0, #1
 366:..\Slider.cydsn/command_telemetry.c ****                 }// CMD_BOOT_EXIT
 1701              		.loc 1 366 0
 1702 0176 CAE2     		b	.L95
 1703              	.LVL240:
 1704              	.L123:
 378:..\Slider.cydsn/command_telemetry.c **** #endif // USE_BOOTLOADER  
 1705              		.loc 1 378 0
 1706 0178 0320     		mov	r0, #3
 1707              	.LVL241:
 1708 017a 211C     		mov	r1, r4
 1709 017c 764A     		ldr	r2, .L180+28
 1710 017e FFF7FEFF 		bl	send_alarm_telemetry
 1711              	.LVL242:
 811:..\Slider.cydsn/command_telemetry.c **** }// parse_and_execute_command
 1712              		.loc 1 811 0
 1713 0182 0120     		mov	r0, #1
 380:..\Slider.cydsn/command_telemetry.c ****                 }// CMD_BOOT_EXIT
 1714              		.loc 1 380 0
 1715 0184 C3E2     		b	.L95
 1716              	.LVL243:
 1717              	.L176:
 386:..\Slider.cydsn/command_telemetry.c ****                     return FALSE;
 1718              		.loc 1 386 0
 1719 0186 0220     		mov	r0, #2
 1720              	.LVL244:
 1721 0188 211C     		mov	r1, r4
 1722 018a 744A     		ldr	r2, .L180+32
 1723 018c FFF7FEFF 		bl	send_alarm_telemetry
 1724              	.LVL245:
 387:..\Slider.cydsn/command_telemetry.c ****                 }// CMD_TRACKER_UNKNOWN, default
 1725              		.loc 1 387 0
 1726 0190 0020     		mov	r0, #0
ARM GAS  C:\Users\MM1005~1\AppData\Local\Temp\cc36bet7.s 			page 52


 1727 0192 BCE2     		b	.L95
 1728              	.LVL246:
 1729              	.L101:
 398:..\Slider.cydsn/command_telemetry.c ****             {
 1730              		.loc 1 398 0
 1731 0194 281C     		mov	r0, r5
 1732 0196 FFF7FEFF 		bl	get_led_cmd_id_from_cmd_string
 1733              	.LVL247:
 1734 019a 061E     		sub	r6, r0, #0
 1735              	.LVL248:
 1736 019c 042E     		cmp	r6, #4
 1737 019e 00D9     		bls	.LCB1740
 1738 01a0 D4E1     		b	.L124	@long jump
 1739              	.LCB1740:
 1740 01a2 8000     		lsl	r0, r0, #2
 1741              	.LVL249:
 1742 01a4 6E4B     		ldr	r3, .L180+36
 1743 01a6 1B58     		ldr	r3, [r3, r0]
 1744 01a8 9F46     		mov	pc, r3
 1745              		.section	.rodata
 1746              		.align	2
 1747              	.L126:
 1748 0024 AA010000 		.word	.L125
 1749 0028 B4010000 		.word	.L127
 1750 002c B4010000 		.word	.L127
 1751 0030 D2020000 		.word	.L128
 1752 0034 C6030000 		.word	.L129
 1753              		.section	.text.parse_and_execute_command
 1754              	.L125:
 402:..\Slider.cydsn/command_telemetry.c ****                     break;
 1755              		.loc 1 402 0
 1756 01aa 0020     		mov	r0, #0
 1757 01ac FFF7FEFF 		bl	set_all_leds_intensity
 1758              	.LVL250:
 811:..\Slider.cydsn/command_telemetry.c **** }// parse_and_execute_command
 1759              		.loc 1 811 0
 1760 01b0 0120     		mov	r0, #1
 403:..\Slider.cydsn/command_telemetry.c ****                 }// CMD_LED_CLEAR
 1761              		.loc 1 403 0
 1762 01b2 ACE2     		b	.L95
 1763              	.L127:
 409:..\Slider.cydsn/command_telemetry.c ****                     {
 1764              		.loc 1 409 0
 1765 01b4 281C     		mov	r0, r5
 1766 01b6 2C21     		mov	r1, #44
 1767 01b8 FFF7FEFF 		bl	strchr
 1768              	.LVL251:
 1769 01bc 0028     		cmp	r0, #0
 1770 01be 06D1     		bne	.L130
 411:..\Slider.cydsn/command_telemetry.c ****                         return FALSE;
 1771              		.loc 1 411 0
 1772 01c0 0230     		add	r0, r0, #2
 1773              	.LVL252:
 1774 01c2 211C     		mov	r1, r4
 1775 01c4 624A     		ldr	r2, .L180+20
 1776 01c6 FFF7FEFF 		bl	send_alarm_telemetry
 1777              	.LVL253:
ARM GAS  C:\Users\MM1005~1\AppData\Local\Temp\cc36bet7.s 			page 53


 412:..\Slider.cydsn/command_telemetry.c ****                     }// If we can't find the next ',' character
 1778              		.loc 1 412 0
 1779 01ca 0020     		mov	r0, #0
 1780 01cc 9FE2     		b	.L95
 1781              	.LVL254:
 1782              	.L130:
 415:..\Slider.cydsn/command_telemetry.c ****                     {
 1783              		.loc 1 415 0
 1784 01ce 0130     		add	r0, r0, #1
 1785              	.LVL255:
 1786 01d0 3A21     		mov	r1, #58
 1787 01d2 FFF7FEFF 		bl	strchr
 1788              	.LVL256:
 1789 01d6 0028     		cmp	r0, #0
 1790 01d8 06D1     		bne	.L131
 417:..\Slider.cydsn/command_telemetry.c ****                         return FALSE;
 1791              		.loc 1 417 0
 1792 01da 0230     		add	r0, r0, #2
 1793              	.LVL257:
 1794 01dc 211C     		mov	r1, r4
 1795 01de 614A     		ldr	r2, .L180+40
 1796 01e0 FFF7FEFF 		bl	send_alarm_telemetry
 1797              	.LVL258:
 418:..\Slider.cydsn/command_telemetry.c ****                     }// If we can't find the next ':' character
 1798              		.loc 1 418 0
 1799 01e4 0020     		mov	r0, #0
 1800 01e6 92E2     		b	.L95
 1801              	.LVL259:
 1802              	.L131:
 424:..\Slider.cydsn/command_telemetry.c ****                     {
 1803              		.loc 1 424 0
 1804 01e8 0130     		add	r0, r0, #1
 1805              	.LVL260:
 1806 01ea 3A21     		mov	r1, #58
 1807 01ec FFF7FEFF 		bl	strchr
 1808              	.LVL261:
 1809 01f0 0028     		cmp	r0, #0
 1810 01f2 06D1     		bne	.L132
 426:..\Slider.cydsn/command_telemetry.c ****                         return FALSE;
 1811              		.loc 1 426 0
 1812 01f4 0230     		add	r0, r0, #2
 1813              	.LVL262:
 1814 01f6 211C     		mov	r1, r4
 1815 01f8 5A4A     		ldr	r2, .L180+40
 1816 01fa FFF7FEFF 		bl	send_alarm_telemetry
 1817              	.LVL263:
 427:..\Slider.cydsn/command_telemetry.c ****                     }// If we can't find the next ':' character
 1818              		.loc 1 427 0
 1819 01fe 0020     		mov	r0, #0
 1820 0200 85E2     		b	.L95
 1821              	.LVL264:
 1822              	.L132:
 430:..\Slider.cydsn/command_telemetry.c ****                     {
 1823              		.loc 1 430 0
 1824 0202 451C     		add	r5, r0, #1
 1825              	.LVL265:
 1826 0204 281C     		mov	r0, r5
ARM GAS  C:\Users\MM1005~1\AppData\Local\Temp\cc36bet7.s 			page 54


 1827 0206 2C21     		mov	r1, #44
 1828 0208 FFF7FEFF 		bl	strchr
 1829              	.LVL266:
 1830 020c 0028     		cmp	r0, #0
 1831 020e 06D1     		bne	.L133
 432:..\Slider.cydsn/command_telemetry.c ****                         return FALSE;
 1832              		.loc 1 432 0
 1833 0210 0230     		add	r0, r0, #2
 1834              	.LVL267:
 1835 0212 211C     		mov	r1, r4
 1836 0214 534A     		ldr	r2, .L180+40
 1837 0216 FFF7FEFF 		bl	send_alarm_telemetry
 1838              	.LVL268:
 433:..\Slider.cydsn/command_telemetry.c ****                     }// If we can't find the next ',' character
 1839              		.loc 1 433 0
 1840 021a 0020     		mov	r0, #0
 1841 021c 77E2     		b	.L95
 1842              	.LVL269:
 1843              	.L133:
 435:..\Slider.cydsn/command_telemetry.c ****                     next_param_str++;
 1844              		.loc 1 435 0
 1845 021e 0023     		mov	r3, #0
 1846 0220 0370     		strb	r3, [r0]
 436:..\Slider.cydsn/command_telemetry.c ****                     
 1847              		.loc 1 436 0
 1848 0222 471C     		add	r7, r0, #1
 1849              	.LVL270:
 438:..\Slider.cydsn/command_telemetry.c ****                     
 1850              		.loc 1 438 0
 1851 0224 281C     		mov	r0, r5
 1852 0226 FFF7FEFF 		bl	atoi
 1853              	.LVL271:
 1854 022a 0190     		str	r0, [sp, #4]
 1855              	.LVL272:
 443:..\Slider.cydsn/command_telemetry.c ****                     {
 1856              		.loc 1 443 0
 1857 022c 381C     		mov	r0, r7
 1858              	.LVL273:
 1859 022e 3A21     		mov	r1, #58
 1860 0230 FFF7FEFF 		bl	strchr
 1861              	.LVL274:
 1862 0234 0028     		cmp	r0, #0
 1863 0236 06D1     		bne	.L134
 445:..\Slider.cydsn/command_telemetry.c ****                         return FALSE;
 1864              		.loc 1 445 0
 1865 0238 0230     		add	r0, r0, #2
 1866              	.LVL275:
 1867 023a 211C     		mov	r1, r4
 1868 023c 4A4A     		ldr	r2, .L180+44
 1869 023e FFF7FEFF 		bl	send_alarm_telemetry
 1870              	.LVL276:
 446:..\Slider.cydsn/command_telemetry.c ****                     }// If we can't find the next ':' character
 1871              		.loc 1 446 0
 1872 0242 0020     		mov	r0, #0
 1873 0244 63E2     		b	.L95
 1874              	.LVL277:
 1875              	.L134:
ARM GAS  C:\Users\MM1005~1\AppData\Local\Temp\cc36bet7.s 			page 55


 449:..\Slider.cydsn/command_telemetry.c ****                     {
 1876              		.loc 1 449 0
 1877 0246 471C     		add	r7, r0, #1
 1878              	.LVL278:
 1879 0248 381C     		mov	r0, r7
 1880 024a 2C21     		mov	r1, #44
 1881 024c FFF7FEFF 		bl	strchr
 1882              	.LVL279:
 1883 0250 0028     		cmp	r0, #0
 1884 0252 06D1     		bne	.L135
 451:..\Slider.cydsn/command_telemetry.c ****                         return FALSE;
 1885              		.loc 1 451 0
 1886 0254 0230     		add	r0, r0, #2
 1887              	.LVL280:
 1888 0256 211C     		mov	r1, r4
 1889 0258 444A     		ldr	r2, .L180+48
 1890 025a FFF7FEFF 		bl	send_alarm_telemetry
 1891              	.LVL281:
 452:..\Slider.cydsn/command_telemetry.c ****                     }// If we can't find the next ',' character
 1892              		.loc 1 452 0
 1893 025e 0020     		mov	r0, #0
 1894 0260 55E2     		b	.L95
 1895              	.LVL282:
 1896              	.L135:
 454:..\Slider.cydsn/command_telemetry.c ****                     next_param_str++;
 1897              		.loc 1 454 0
 1898 0262 0023     		mov	r3, #0
 1899 0264 0370     		strb	r3, [r0]
 455:..\Slider.cydsn/command_telemetry.c ****                     
 1900              		.loc 1 455 0
 1901 0266 451C     		add	r5, r0, #1
 1902              	.LVL283:
 457:..\Slider.cydsn/command_telemetry.c ****                     
 1903              		.loc 1 457 0
 1904 0268 381C     		mov	r0, r7
 1905 026a FFF7FEFF 		bl	atoi
 1906              	.LVL284:
 1907 026e 071C     		mov	r7, r0
 1908              	.LVL285:
 462:..\Slider.cydsn/command_telemetry.c ****                     {
 1909              		.loc 1 462 0
 1910 0270 281C     		mov	r0, r5
 1911              	.LVL286:
 1912 0272 3A21     		mov	r1, #58
 1913 0274 FFF7FEFF 		bl	strchr
 1914              	.LVL287:
 1915 0278 0028     		cmp	r0, #0
 1916 027a 06D1     		bne	.L136
 464:..\Slider.cydsn/command_telemetry.c ****                         return FALSE;
 1917              		.loc 1 464 0
 1918 027c 0230     		add	r0, r0, #2
 1919              	.LVL288:
 1920 027e 211C     		mov	r1, r4
 1921 0280 394A     		ldr	r2, .L180+44
 1922 0282 FFF7FEFF 		bl	send_alarm_telemetry
 1923              	.LVL289:
 465:..\Slider.cydsn/command_telemetry.c ****                     }// If we can't find the next ':' character
ARM GAS  C:\Users\MM1005~1\AppData\Local\Temp\cc36bet7.s 			page 56


 1924              		.loc 1 465 0
 1925 0286 0020     		mov	r0, #0
 1926 0288 41E2     		b	.L95
 1927              	.LVL290:
 1928              	.L136:
 468:..\Slider.cydsn/command_telemetry.c ****                     // ========================================================
 1929              		.loc 1 468 0
 1930 028a 0130     		add	r0, r0, #1
 1931              	.LVL291:
 1932 028c FFF7FEFF 		bl	atoi
 1933              	.LVL292:
 1934 0290 041C     		mov	r4, r0
 1935              	.LVL293:
 472:..\Slider.cydsn/command_telemetry.c ****                     {
 1936              		.loc 1 472 0
 1937 0292 012E     		cmp	r6, #1
 1938 0294 0ED1     		bne	.L137
 474:..\Slider.cydsn/command_telemetry.c ****                         set_led(E_LED_LEFT_GREEN,  green);
 1939              		.loc 1 474 0
 1940 0296 6B46     		mov	r3, sp
 1941 0298 9988     		ldrh	r1, [r3, #4]
 1942 029a 1520     		mov	r0, #21
 1943              	.LVL294:
 1944 029c FFF7FEFF 		bl	set_led
 1945              	.LVL295:
 475:..\Slider.cydsn/command_telemetry.c ****                         set_led(E_LED_LEFT_BLUE ,  blue );
 1946              		.loc 1 475 0
 1947 02a0 B9B2     		uxth	r1, r7
 1948 02a2 1620     		mov	r0, #22
 1949 02a4 FFF7FEFF 		bl	set_led
 1950              	.LVL296:
 476:..\Slider.cydsn/command_telemetry.c ****                     }// if it's the left colored LED
 1951              		.loc 1 476 0
 1952 02a8 A1B2     		uxth	r1, r4
 1953 02aa 1720     		mov	r0, #23
 1954 02ac FFF7FEFF 		bl	set_led
 1955              	.LVL297:
 811:..\Slider.cydsn/command_telemetry.c **** }// parse_and_execute_command
 1956              		.loc 1 811 0
 1957 02b0 0120     		mov	r0, #1
 1958 02b2 2CE2     		b	.L95
 1959              	.LVL298:
 1960              	.L137:
 480:..\Slider.cydsn/command_telemetry.c ****                         set_led(E_LED_RIGHT_GREEN,  green);
 1961              		.loc 1 480 0
 1962 02b4 6B46     		mov	r3, sp
 1963 02b6 9988     		ldrh	r1, [r3, #4]
 1964 02b8 1220     		mov	r0, #18
 1965              	.LVL299:
 1966 02ba FFF7FEFF 		bl	set_led
 1967              	.LVL300:
 481:..\Slider.cydsn/command_telemetry.c ****                         set_led(E_LED_RIGHT_BLUE ,  blue );
 1968              		.loc 1 481 0
 1969 02be B9B2     		uxth	r1, r7
 1970 02c0 1320     		mov	r0, #19
 1971 02c2 FFF7FEFF 		bl	set_led
 1972              	.LVL301:
ARM GAS  C:\Users\MM1005~1\AppData\Local\Temp\cc36bet7.s 			page 57


 482:..\Slider.cydsn/command_telemetry.c ****                     }// if it's the right colored LED
 1973              		.loc 1 482 0
 1974 02c6 A1B2     		uxth	r1, r4
 1975 02c8 1420     		mov	r0, #20
 1976 02ca FFF7FEFF 		bl	set_led
 1977              	.LVL302:
 811:..\Slider.cydsn/command_telemetry.c **** }// parse_and_execute_command
 1978              		.loc 1 811 0
 1979 02ce 0120     		mov	r0, #1
 1980 02d0 1DE2     		b	.L95
 1981              	.LVL303:
 1982              	.L128:
 490:..\Slider.cydsn/command_telemetry.c ****                     {
 1983              		.loc 1 490 0
 1984 02d2 281C     		mov	r0, r5
 1985 02d4 2C21     		mov	r1, #44
 1986 02d6 FFF7FEFF 		bl	strchr
 1987              	.LVL304:
 1988 02da 0028     		cmp	r0, #0
 1989 02dc 06D1     		bne	.L138
 492:..\Slider.cydsn/command_telemetry.c ****                         return FALSE;
 1990              		.loc 1 492 0
 1991 02de 0230     		add	r0, r0, #2
 1992              	.LVL305:
 1993 02e0 211C     		mov	r1, r4
 1994 02e2 1B4A     		ldr	r2, .L180+20
 1995 02e4 FFF7FEFF 		bl	send_alarm_telemetry
 1996              	.LVL306:
 493:..\Slider.cydsn/command_telemetry.c ****                     }// If we can't find the next ',' character
 1997              		.loc 1 493 0
 1998 02e8 0020     		mov	r0, #0
 1999 02ea 10E2     		b	.L95
 2000              	.LVL307:
 2001              	.L138:
 496:..\Slider.cydsn/command_telemetry.c ****                     {
 2002              		.loc 1 496 0
 2003 02ec 0130     		add	r0, r0, #1
 2004              	.LVL308:
 2005 02ee 3A21     		mov	r1, #58
 2006 02f0 FFF7FEFF 		bl	strchr
 2007              	.LVL309:
 2008 02f4 0028     		cmp	r0, #0
 2009 02f6 06D1     		bne	.L139
 498:..\Slider.cydsn/command_telemetry.c ****                         return FALSE;
 2010              		.loc 1 498 0
 2011 02f8 0230     		add	r0, r0, #2
 2012              	.LVL310:
 2013 02fa 211C     		mov	r1, r4
 2014 02fc 1C4A     		ldr	r2, .L180+52
 2015 02fe FFF7FEFF 		bl	send_alarm_telemetry
 2016              	.LVL311:
 499:..\Slider.cydsn/command_telemetry.c ****                     }// If we can't find the next ':' character
 2017              		.loc 1 499 0
 2018 0302 0020     		mov	r0, #0
 2019 0304 03E2     		b	.L95
 2020              	.LVL312:
 2021              	.L139:
ARM GAS  C:\Users\MM1005~1\AppData\Local\Temp\cc36bet7.s 			page 58


 505:..\Slider.cydsn/command_telemetry.c ****                     {
 2022              		.loc 1 505 0
 2023 0306 0130     		add	r0, r0, #1
 2024              	.LVL313:
 2025 0308 3A21     		mov	r1, #58
 2026 030a FFF7FEFF 		bl	strchr
 2027              	.LVL314:
 2028 030e 0028     		cmp	r0, #0
 2029 0310 06D1     		bne	.L140
 507:..\Slider.cydsn/command_telemetry.c ****                         return FALSE;
 2030              		.loc 1 507 0
 2031 0312 0230     		add	r0, r0, #2
 2032              	.LVL315:
 2033 0314 211C     		mov	r1, r4
 2034 0316 174A     		ldr	r2, .L180+56
 2035 0318 FFF7FEFF 		bl	send_alarm_telemetry
 2036              	.LVL316:
 508:..\Slider.cydsn/command_telemetry.c ****                     }// If we can't find the next ':' character
 2037              		.loc 1 508 0
 2038 031c 0020     		mov	r0, #0
 2039 031e F6E1     		b	.L95
 2040              	.LVL317:
 2041              	.L140:
 511:..\Slider.cydsn/command_telemetry.c ****                     {
 2042              		.loc 1 511 0
 2043 0320 461C     		add	r6, r0, #1
 2044              	.LVL318:
 2045 0322 301C     		mov	r0, r6
 2046 0324 2C21     		mov	r1, #44
 2047 0326 FFF7FEFF 		bl	strchr
 2048              	.LVL319:
 2049 032a 0028     		cmp	r0, #0
 2050 032c 24D1     		bne	.L141
 513:..\Slider.cydsn/command_telemetry.c ****                         return FALSE;
 2051              		.loc 1 513 0
 2052 032e 0230     		add	r0, r0, #2
 2053              	.LVL320:
 2054 0330 211C     		mov	r1, r4
 2055 0332 104A     		ldr	r2, .L180+56
 2056 0334 FFF7FEFF 		bl	send_alarm_telemetry
 2057              	.LVL321:
 514:..\Slider.cydsn/command_telemetry.c ****                     }// If we can't find the next ',' character
 2058              		.loc 1 514 0
 2059 0338 0020     		mov	r0, #0
 2060 033a E8E1     		b	.L95
 2061              	.L181:
 2062              		.align	2
 2063              	.L180:
 2064 033c 40010000 		.word	.LC69
 2065 0340 00000000 		.word	.L98
 2066 0344 5C010000 		.word	.LC72
 2067 0348 38000000 		.word	.LANCHOR0
 2068 034c 64010000 		.word	.LC75
 2069 0350 70010000 		.word	.LC77
 2070 0354 90010000 		.word	.LC79
 2071 0358 AC010000 		.word	.LC81
 2072 035c C4010000 		.word	.LC83
ARM GAS  C:\Users\MM1005~1\AppData\Local\Temp\cc36bet7.s 			page 59


 2073 0360 24000000 		.word	.L126
 2074 0364 E4010000 		.word	.LC86
 2075 0368 04020000 		.word	.LC88
 2076 036c 28020000 		.word	.LC90
 2077 0370 4C020000 		.word	.LC92
 2078 0374 68020000 		.word	.LC94
 2079              	.LVL322:
 2080              	.L141:
 516:..\Slider.cydsn/command_telemetry.c ****                     next_param_str++;
 2081              		.loc 1 516 0
 2082 0378 0023     		mov	r3, #0
 2083 037a 0370     		strb	r3, [r0]
 517:..\Slider.cydsn/command_telemetry.c ****                     
 2084              		.loc 1 517 0
 2085 037c 451C     		add	r5, r0, #1
 2086              	.LVL323:
 519:..\Slider.cydsn/command_telemetry.c ****                     
 2087              		.loc 1 519 0
 2088 037e 301C     		mov	r0, r6
 2089 0380 FFF7FEFF 		bl	atoi
 2090              	.LVL324:
 2091 0384 061E     		sub	r6, r0, #0
 2092              	.LVL325:
 521:..\Slider.cydsn/command_telemetry.c ****                     {
 2093              		.loc 1 521 0
 2094 0386 0E2E     		cmp	r6, #14
 2095 0388 06D9     		bls	.L142
 523:..\Slider.cydsn/command_telemetry.c ****                         return FALSE;
 2096              		.loc 1 523 0
 2097 038a 0220     		mov	r0, #2
 2098              	.LVL326:
 2099 038c 211C     		mov	r1, r4
 2100 038e D14A     		ldr	r2, .L182
 2101 0390 FFF7FEFF 		bl	send_alarm_telemetry
 2102              	.LVL327:
 524:..\Slider.cydsn/command_telemetry.c ****                     }
 2103              		.loc 1 524 0
 2104 0394 0020     		mov	r0, #0
 2105 0396 BAE1     		b	.L95
 2106              	.LVL328:
 2107              	.L142:
 530:..\Slider.cydsn/command_telemetry.c ****                     {
 2108              		.loc 1 530 0
 2109 0398 281C     		mov	r0, r5
 2110              	.LVL329:
 2111 039a 3A21     		mov	r1, #58
 2112 039c FFF7FEFF 		bl	strchr
 2113              	.LVL330:
 2114 03a0 0028     		cmp	r0, #0
 2115 03a2 06D1     		bne	.L143
 532:..\Slider.cydsn/command_telemetry.c ****                         return FALSE;
 2116              		.loc 1 532 0
 2117 03a4 0230     		add	r0, r0, #2
 2118              	.LVL331:
 2119 03a6 211C     		mov	r1, r4
 2120 03a8 CB4A     		ldr	r2, .L182+4
 2121 03aa FFF7FEFF 		bl	send_alarm_telemetry
ARM GAS  C:\Users\MM1005~1\AppData\Local\Temp\cc36bet7.s 			page 60


 2122              	.LVL332:
 533:..\Slider.cydsn/command_telemetry.c ****                     }// If we can't find the next ':' character
 2123              		.loc 1 533 0
 2124 03ae 0020     		mov	r0, #0
 2125 03b0 ADE1     		b	.L95
 2126              	.LVL333:
 2127              	.L143:
 536:..\Slider.cydsn/command_telemetry.c ****                     
 2128              		.loc 1 536 0
 2129 03b2 0130     		add	r0, r0, #1
 2130              	.LVL334:
 2131 03b4 FFF7FEFF 		bl	atoi
 2132              	.LVL335:
 2133 03b8 011C     		mov	r1, r0
 2134              	.LVL336:
 541:..\Slider.cydsn/command_telemetry.c ****                     break;
 2135              		.loc 1 541 0
 2136 03ba F0B2     		uxtb	r0, r6
 2137              	.LVL337:
 2138 03bc 89B2     		uxth	r1, r1
 2139              	.LVL338:
 2140 03be FFF7FEFF 		bl	set_led
 2141              	.LVL339:
 811:..\Slider.cydsn/command_telemetry.c **** }// parse_and_execute_command
 2142              		.loc 1 811 0
 2143 03c2 0120     		mov	r0, #1
 542:..\Slider.cydsn/command_telemetry.c ****                 }// CMD_LED_SET_WHITE
 2144              		.loc 1 542 0
 2145 03c4 A3E1     		b	.L95
 2146              	.LVL340:
 2147              	.L129:
 547:..\Slider.cydsn/command_telemetry.c ****                     {
 2148              		.loc 1 547 0
 2149 03c6 281C     		mov	r0, r5
 2150 03c8 2C21     		mov	r1, #44
 2151 03ca FFF7FEFF 		bl	strchr
 2152              	.LVL341:
 2153 03ce 0028     		cmp	r0, #0
 2154 03d0 06D1     		bne	.L144
 549:..\Slider.cydsn/command_telemetry.c ****                         return FALSE;
 2155              		.loc 1 549 0
 2156 03d2 0230     		add	r0, r0, #2
 2157              	.LVL342:
 2158 03d4 211C     		mov	r1, r4
 2159 03d6 C14A     		ldr	r2, .L182+8
 2160 03d8 FFF7FEFF 		bl	send_alarm_telemetry
 2161              	.LVL343:
 550:..\Slider.cydsn/command_telemetry.c ****                     }// If we can't find the next ',' character
 2162              		.loc 1 550 0
 2163 03dc 0020     		mov	r0, #0
 2164 03de 96E1     		b	.L95
 2165              	.LVL344:
 2166              	.L144:
 553:..\Slider.cydsn/command_telemetry.c ****                     {
 2167              		.loc 1 553 0
 2168 03e0 0130     		add	r0, r0, #1
 2169              	.LVL345:
ARM GAS  C:\Users\MM1005~1\AppData\Local\Temp\cc36bet7.s 			page 61


 2170 03e2 2C21     		mov	r1, #44
 2171 03e4 FFF7FEFF 		bl	strchr
 2172              	.LVL346:
 2173 03e8 0028     		cmp	r0, #0
 2174 03ea 06D1     		bne	.L145
 555:..\Slider.cydsn/command_telemetry.c ****                         return FALSE;
 2175              		.loc 1 555 0
 2176 03ec 0230     		add	r0, r0, #2
 2177              	.LVL347:
 2178 03ee 211C     		mov	r1, r4
 2179 03f0 BA4A     		ldr	r2, .L182+8
 2180 03f2 FFF7FEFF 		bl	send_alarm_telemetry
 2181              	.LVL348:
 556:..\Slider.cydsn/command_telemetry.c ****                     }// If we can't find the next ',' character 
 2182              		.loc 1 556 0
 2183 03f6 0020     		mov	r0, #0
 2184 03f8 89E1     		b	.L95
 2185              	.LVL349:
 2186              	.L145:
 559:..\Slider.cydsn/command_telemetry.c ****                     {
 2187              		.loc 1 559 0
 2188 03fa 0130     		add	r0, r0, #1
 2189              	.LVL350:
 2190 03fc 3A21     		mov	r1, #58
 2191 03fe FFF7FEFF 		bl	strchr
 2192              	.LVL351:
 2193 0402 0028     		cmp	r0, #0
 2194 0404 06D1     		bne	.L146
 561:..\Slider.cydsn/command_telemetry.c ****                         return FALSE;
 2195              		.loc 1 561 0
 2196 0406 0230     		add	r0, r0, #2
 2197              	.LVL352:
 2198 0408 211C     		mov	r1, r4
 2199 040a B44A     		ldr	r2, .L182+8
 2200 040c FFF7FEFF 		bl	send_alarm_telemetry
 2201              	.LVL353:
 562:..\Slider.cydsn/command_telemetry.c ****                     }// If we can't find the next ':' character
 2202              		.loc 1 562 0
 2203 0410 0020     		mov	r0, #0
 2204 0412 7CE1     		b	.L95
 2205              	.LVL354:
 2206              	.L146:
 565:..\Slider.cydsn/command_telemetry.c ****                     
 2207              		.loc 1 565 0
 2208 0414 0023     		mov	r3, #0
 2209 0416 0393     		str	r3, [sp, #12]
 2210 0418 0493     		str	r3, [sp, #16]
 2211 041a 0593     		str	r3, [sp, #20]
 2212 041c 0693     		str	r3, [sp, #24]
 2213 041e 0793     		str	r3, [sp, #28]
 2214 0420 0893     		str	r3, [sp, #32]
 2215 0422 0993     		str	r3, [sp, #36]
 2216 0424 0A93     		str	r3, [sp, #40]
 2217 0426 0B93     		str	r3, [sp, #44]
 2218 0428 0C93     		str	r3, [sp, #48]
 2219 042a 0D93     		str	r3, [sp, #52]
 2220 042c 0E93     		str	r3, [sp, #56]
ARM GAS  C:\Users\MM1005~1\AppData\Local\Temp\cc36bet7.s 			page 62


 570:..\Slider.cydsn/command_telemetry.c ****                     {
 2221              		.loc 1 570 0
 2222 042e 0130     		add	r0, r0, #1
 2223              	.LVL355:
 2224 0430 2221     		mov	r1, #34
 2225 0432 FFF7FEFF 		bl	strchr
 2226              	.LVL356:
 2227 0436 0028     		cmp	r0, #0
 2228 0438 06D1     		bne	.L147
 572:..\Slider.cydsn/command_telemetry.c ****                         return FALSE;
 2229              		.loc 1 572 0
 2230 043a 0230     		add	r0, r0, #2
 2231              	.LVL357:
 2232 043c 211C     		mov	r1, r4
 2233 043e A74A     		ldr	r2, .L182+8
 2234 0440 FFF7FEFF 		bl	send_alarm_telemetry
 2235              	.LVL358:
 573:..\Slider.cydsn/command_telemetry.c ****                     }// If we can't find the next '"' character
 2236              		.loc 1 573 0
 2237 0444 0020     		mov	r0, #0
 2238 0446 62E1     		b	.L95
 2239              	.LVL359:
 2240              	.L147:
 575:..\Slider.cydsn/command_telemetry.c ****                     led_vec[E_LED_LEFT_RED] = atoi(param_str);
 2241              		.loc 1 575 0
 2242 0448 451C     		add	r5, r0, #1
 2243              	.LVL360:
 576:..\Slider.cydsn/command_telemetry.c ****                  
 2244              		.loc 1 576 0
 2245 044a 281C     		mov	r0, r5
 2246 044c FFF7FEFF 		bl	atoi
 2247              	.LVL361:
 2248 0450 03AB     		add	r3, sp, #12
 2249 0452 5885     		strh	r0, [r3, #42]
 581:..\Slider.cydsn/command_telemetry.c ****                     {
 2250              		.loc 1 581 0
 2251 0454 281C     		mov	r0, r5
 2252 0456 2D21     		mov	r1, #45
 2253 0458 FFF7FEFF 		bl	strchr
 2254              	.LVL362:
 2255 045c 0028     		cmp	r0, #0
 2256 045e 06D1     		bne	.L148
 583:..\Slider.cydsn/command_telemetry.c ****                         return FALSE;
 2257              		.loc 1 583 0
 2258 0460 0230     		add	r0, r0, #2
 2259              	.LVL363:
 2260 0462 211C     		mov	r1, r4
 2261 0464 9D4A     		ldr	r2, .L182+8
 2262 0466 FFF7FEFF 		bl	send_alarm_telemetry
 2263              	.LVL364:
 584:..\Slider.cydsn/command_telemetry.c ****                     }// If we can't find the next '-' character
 2264              		.loc 1 584 0
 2265 046a 0020     		mov	r0, #0
 2266 046c 4FE1     		b	.L95
 2267              	.LVL365:
 2268              	.L148:
 586:..\Slider.cydsn/command_telemetry.c ****                     led_vec[E_LED_LEFT_GREEN] = atoi(param_str);
ARM GAS  C:\Users\MM1005~1\AppData\Local\Temp\cc36bet7.s 			page 63


 2269              		.loc 1 586 0
 2270 046e 451C     		add	r5, r0, #1
 2271              	.LVL366:
 587:..\Slider.cydsn/command_telemetry.c ****                     
 2272              		.loc 1 587 0
 2273 0470 281C     		mov	r0, r5
 2274 0472 FFF7FEFF 		bl	atoi
 2275              	.LVL367:
 2276 0476 03AB     		add	r3, sp, #12
 2277 0478 9885     		strh	r0, [r3, #44]
 592:..\Slider.cydsn/command_telemetry.c ****                     {
 2278              		.loc 1 592 0
 2279 047a 281C     		mov	r0, r5
 2280 047c 2D21     		mov	r1, #45
 2281 047e FFF7FEFF 		bl	strchr
 2282              	.LVL368:
 2283 0482 0028     		cmp	r0, #0
 2284 0484 06D1     		bne	.L149
 594:..\Slider.cydsn/command_telemetry.c ****                         return FALSE;
 2285              		.loc 1 594 0
 2286 0486 0230     		add	r0, r0, #2
 2287              	.LVL369:
 2288 0488 211C     		mov	r1, r4
 2289 048a 944A     		ldr	r2, .L182+8
 2290 048c FFF7FEFF 		bl	send_alarm_telemetry
 2291              	.LVL370:
 595:..\Slider.cydsn/command_telemetry.c ****                     }// If we can't find the next '-' character
 2292              		.loc 1 595 0
 2293 0490 0020     		mov	r0, #0
 2294 0492 3CE1     		b	.L95
 2295              	.LVL371:
 2296              	.L149:
 597:..\Slider.cydsn/command_telemetry.c ****                     led_vec[E_LED_LEFT_BLUE] = atoi(param_str);
 2297              		.loc 1 597 0
 2298 0494 451C     		add	r5, r0, #1
 2299              	.LVL372:
 598:..\Slider.cydsn/command_telemetry.c ****                     
 2300              		.loc 1 598 0
 2301 0496 281C     		mov	r0, r5
 2302 0498 FFF7FEFF 		bl	atoi
 2303              	.LVL373:
 2304 049c 03AB     		add	r3, sp, #12
 2305 049e D885     		strh	r0, [r3, #46]
 2306              	.LVL374:
 603:..\Slider.cydsn/command_telemetry.c ****                     {
 2307              		.loc 1 603 0
 2308 04a0 0026     		mov	r6, #0
 2309 04a2 14E0     		b	.L150
 2310              	.LVL375:
 2311              	.L152:
 605:..\Slider.cydsn/command_telemetry.c ****                         {
 2312              		.loc 1 605 0
 2313 04a4 281C     		mov	r0, r5
 2314 04a6 2D21     		mov	r1, #45
 2315 04a8 FFF7FEFF 		bl	strchr
 2316              	.LVL376:
 2317 04ac 0028     		cmp	r0, #0
ARM GAS  C:\Users\MM1005~1\AppData\Local\Temp\cc36bet7.s 			page 64


 2318 04ae 06D1     		bne	.L151
 607:..\Slider.cydsn/command_telemetry.c ****                             return FALSE;
 2319              		.loc 1 607 0
 2320 04b0 0230     		add	r0, r0, #2
 2321              	.LVL377:
 2322 04b2 211C     		mov	r1, r4
 2323 04b4 894A     		ldr	r2, .L182+8
 2324 04b6 FFF7FEFF 		bl	send_alarm_telemetry
 2325              	.LVL378:
 608:..\Slider.cydsn/command_telemetry.c ****                         }// If we can't find the next '-' character
 2326              		.loc 1 608 0
 2327 04ba 0020     		mov	r0, #0
 2328 04bc 27E1     		b	.L95
 2329              	.LVL379:
 2330              	.L151:
 610:..\Slider.cydsn/command_telemetry.c ****                         led_vec[i] = atoi(param_str);
 2331              		.loc 1 610 0 discriminator 2
 2332 04be 451C     		add	r5, r0, #1
 2333              	.LVL380:
 611:..\Slider.cydsn/command_telemetry.c ****                     }// for all the white LEDS
 2334              		.loc 1 611 0 discriminator 2
 2335 04c0 281C     		mov	r0, r5
 2336 04c2 FFF7FEFF 		bl	atoi
 2337              	.LVL381:
 2338 04c6 7200     		lsl	r2, r6, #1
 2339 04c8 03AB     		add	r3, sp, #12
 2340 04ca D052     		strh	r0, [r2, r3]
 603:..\Slider.cydsn/command_telemetry.c ****                     {
 2341              		.loc 1 603 0 discriminator 2
 2342 04cc 0136     		add	r6, r6, #1
 2343              	.LVL382:
 2344              	.L150:
 603:..\Slider.cydsn/command_telemetry.c ****                     {
 2345              		.loc 1 603 0 is_stmt 0 discriminator 1
 2346 04ce 0E2E     		cmp	r6, #14
 2347 04d0 E8DD     		ble	.L152
 617:..\Slider.cydsn/command_telemetry.c ****                     {
 2348              		.loc 1 617 0 is_stmt 1
 2349 04d2 281C     		mov	r0, r5
 2350 04d4 2D21     		mov	r1, #45
 2351 04d6 FFF7FEFF 		bl	strchr
 2352              	.LVL383:
 2353 04da 0028     		cmp	r0, #0
 2354 04dc 06D1     		bne	.L153
 619:..\Slider.cydsn/command_telemetry.c ****                         return FALSE;
 2355              		.loc 1 619 0
 2356 04de 0230     		add	r0, r0, #2
 2357              	.LVL384:
 2358 04e0 211C     		mov	r1, r4
 2359 04e2 7E4A     		ldr	r2, .L182+8
 2360 04e4 FFF7FEFF 		bl	send_alarm_telemetry
 2361              	.LVL385:
 620:..\Slider.cydsn/command_telemetry.c ****                     }// If we can't find the next '-' character
 2362              		.loc 1 620 0
 2363 04e8 0020     		mov	r0, #0
 2364 04ea 10E1     		b	.L95
 2365              	.LVL386:
ARM GAS  C:\Users\MM1005~1\AppData\Local\Temp\cc36bet7.s 			page 65


 2366              	.L153:
 622:..\Slider.cydsn/command_telemetry.c ****                     led_vec[E_LED_RIGHT_RED] = atoi(param_str);
 2367              		.loc 1 622 0
 2368 04ec 451C     		add	r5, r0, #1
 2369              	.LVL387:
 623:..\Slider.cydsn/command_telemetry.c ****                     
 2370              		.loc 1 623 0
 2371 04ee 281C     		mov	r0, r5
 2372 04f0 FFF7FEFF 		bl	atoi
 2373              	.LVL388:
 2374 04f4 03AB     		add	r3, sp, #12
 2375 04f6 9884     		strh	r0, [r3, #36]
 628:..\Slider.cydsn/command_telemetry.c ****                     {
 2376              		.loc 1 628 0
 2377 04f8 281C     		mov	r0, r5
 2378 04fa 2D21     		mov	r1, #45
 2379 04fc FFF7FEFF 		bl	strchr
 2380              	.LVL389:
 2381 0500 0028     		cmp	r0, #0
 2382 0502 06D1     		bne	.L154
 630:..\Slider.cydsn/command_telemetry.c ****                         return FALSE;
 2383              		.loc 1 630 0
 2384 0504 0230     		add	r0, r0, #2
 2385              	.LVL390:
 2386 0506 211C     		mov	r1, r4
 2387 0508 744A     		ldr	r2, .L182+8
 2388 050a FFF7FEFF 		bl	send_alarm_telemetry
 2389              	.LVL391:
 631:..\Slider.cydsn/command_telemetry.c ****                     }// If we can't find the next '-' character
 2390              		.loc 1 631 0
 2391 050e 0020     		mov	r0, #0
 2392 0510 FDE0     		b	.L95
 2393              	.LVL392:
 2394              	.L154:
 633:..\Slider.cydsn/command_telemetry.c ****                     led_vec[E_LED_RIGHT_GREEN] = atoi(param_str);
 2395              		.loc 1 633 0
 2396 0512 451C     		add	r5, r0, #1
 2397              	.LVL393:
 634:..\Slider.cydsn/command_telemetry.c ****                     
 2398              		.loc 1 634 0
 2399 0514 281C     		mov	r0, r5
 2400 0516 FFF7FEFF 		bl	atoi
 2401              	.LVL394:
 2402 051a 03AB     		add	r3, sp, #12
 2403 051c D884     		strh	r0, [r3, #38]
 639:..\Slider.cydsn/command_telemetry.c ****                     {
 2404              		.loc 1 639 0
 2405 051e 281C     		mov	r0, r5
 2406 0520 2D21     		mov	r1, #45
 2407 0522 FFF7FEFF 		bl	strchr
 2408              	.LVL395:
 2409 0526 0028     		cmp	r0, #0
 2410 0528 06D1     		bne	.L155
 641:..\Slider.cydsn/command_telemetry.c ****                         return FALSE;
 2411              		.loc 1 641 0
 2412 052a 0230     		add	r0, r0, #2
 2413              	.LVL396:
ARM GAS  C:\Users\MM1005~1\AppData\Local\Temp\cc36bet7.s 			page 66


 2414 052c 211C     		mov	r1, r4
 2415 052e 6B4A     		ldr	r2, .L182+8
 2416 0530 FFF7FEFF 		bl	send_alarm_telemetry
 2417              	.LVL397:
 642:..\Slider.cydsn/command_telemetry.c ****                     }// If we can't find the next '-' character
 2418              		.loc 1 642 0
 2419 0534 0020     		mov	r0, #0
 2420 0536 EAE0     		b	.L95
 2421              	.LVL398:
 2422              	.L155:
 644:..\Slider.cydsn/command_telemetry.c ****                     led_vec[E_LED_RIGHT_BLUE] = atoi(param_str);
 2423              		.loc 1 644 0
 2424 0538 0130     		add	r0, r0, #1
 2425              	.LVL399:
 645:..\Slider.cydsn/command_telemetry.c ****                     
 2426              		.loc 1 645 0
 2427 053a FFF7FEFF 		bl	atoi
 2428              	.LVL400:
 2429 053e 03AB     		add	r3, sp, #12
 2430 0540 1885     		strh	r0, [r3, #40]
 647:..\Slider.cydsn/command_telemetry.c ****                     break;
 2431              		.loc 1 647 0
 2432 0542 181C     		mov	r0, r3
 2433 0544 FFF7FEFF 		bl	set_led_strip
 2434              	.LVL401:
 811:..\Slider.cydsn/command_telemetry.c **** }// parse_and_execute_command
 2435              		.loc 1 811 0
 2436 0548 0120     		mov	r0, #1
 648:..\Slider.cydsn/command_telemetry.c ****                 }// CMD_LED_SET_STRIP
 2437              		.loc 1 648 0
 2438 054a E0E0     		b	.L95
 2439              	.LVL402:
 2440              	.L124:
 654:..\Slider.cydsn/command_telemetry.c ****                     return FALSE;
 2441              		.loc 1 654 0
 2442 054c 0220     		mov	r0, #2
 2443              	.LVL403:
 2444 054e 211C     		mov	r1, r4
 2445 0550 634A     		ldr	r2, .L182+12
 2446 0552 FFF7FEFF 		bl	send_alarm_telemetry
 2447              	.LVL404:
 655:..\Slider.cydsn/command_telemetry.c ****                 }// CMD_LED_UNKNOWN, default
 2448              		.loc 1 655 0
 2449 0556 0020     		mov	r0, #0
 2450 0558 D9E0     		b	.L95
 2451              	.LVL405:
 2452              	.L103:
 664:..\Slider.cydsn/command_telemetry.c ****             {
 2453              		.loc 1 664 0
 2454 055a 281C     		mov	r0, r5
 2455 055c 2C21     		mov	r1, #44
 2456 055e FFF7FEFF 		bl	strchr
 2457              	.LVL406:
 2458 0562 0028     		cmp	r0, #0
 2459 0564 06D1     		bne	.L156
 666:..\Slider.cydsn/command_telemetry.c ****                 return FALSE;
 2460              		.loc 1 666 0
ARM GAS  C:\Users\MM1005~1\AppData\Local\Temp\cc36bet7.s 			page 67


 2461 0566 0230     		add	r0, r0, #2
 2462              	.LVL407:
 2463 0568 211C     		mov	r1, r4
 2464 056a 5E4A     		ldr	r2, .L182+16
 2465 056c FFF7FEFF 		bl	send_alarm_telemetry
 2466              	.LVL408:
 667:..\Slider.cydsn/command_telemetry.c ****             }// If we can't find the next ',' character
 2467              		.loc 1 667 0
 2468 0570 0020     		mov	r0, #0
 2469 0572 CCE0     		b	.L95
 2470              	.LVL409:
 2471              	.L156:
 670:..\Slider.cydsn/command_telemetry.c ****             {
 2472              		.loc 1 670 0
 2473 0574 0130     		add	r0, r0, #1
 2474              	.LVL410:
 2475 0576 3A21     		mov	r1, #58
 2476 0578 FFF7FEFF 		bl	strchr
 2477              	.LVL411:
 2478 057c 0028     		cmp	r0, #0
 2479 057e 06D1     		bne	.L157
 672:..\Slider.cydsn/command_telemetry.c ****                 return FALSE;
 2480              		.loc 1 672 0
 2481 0580 0230     		add	r0, r0, #2
 2482              	.LVL412:
 2483 0582 211C     		mov	r1, r4
 2484 0584 574A     		ldr	r2, .L182+16
 2485 0586 FFF7FEFF 		bl	send_alarm_telemetry
 2486              	.LVL413:
 673:..\Slider.cydsn/command_telemetry.c ****             }// If we can't find the next ':' character
 2487              		.loc 1 673 0
 2488 058a 0020     		mov	r0, #0
 2489 058c BFE0     		b	.L95
 2490              	.LVL414:
 2491              	.L157:
 675:..\Slider.cydsn/command_telemetry.c ****             
 2492              		.loc 1 675 0
 2493 058e 0130     		add	r0, r0, #1
 2494              	.LVL415:
 677:..\Slider.cydsn/command_telemetry.c ****             {
 2495              		.loc 1 677 0
 2496 0590 FFF7FEFF 		bl	get_sensor_cmd_id_from_cmd_string
 2497              	.LVL416:
 2498 0594 0028     		cmp	r0, #0
 2499 0596 06D0     		beq	.L159
 2500 0598 0128     		cmp	r0, #1
 2501 059a 09D1     		bne	.L177
 681:..\Slider.cydsn/command_telemetry.c ****                     break;
 2502              		.loc 1 681 0
 2503 059c 0020     		mov	r0, #0
 2504              	.LVL417:
 2505 059e FFF7FEFF 		bl	set_is_sensor_telemetry_enable
 2506              	.LVL418:
 811:..\Slider.cydsn/command_telemetry.c **** }// parse_and_execute_command
 2507              		.loc 1 811 0
 2508 05a2 0120     		mov	r0, #1
 682:..\Slider.cydsn/command_telemetry.c ****                 }// CMD_TRACKER_DISABLE      
ARM GAS  C:\Users\MM1005~1\AppData\Local\Temp\cc36bet7.s 			page 68


 2509              		.loc 1 682 0
 2510 05a4 B3E0     		b	.L95
 2511              	.LVL419:
 2512              	.L159:
 687:..\Slider.cydsn/command_telemetry.c ****                     break;
 2513              		.loc 1 687 0
 2514 05a6 0120     		mov	r0, #1
 2515              	.LVL420:
 2516 05a8 FFF7FEFF 		bl	set_is_sensor_telemetry_enable
 2517              	.LVL421:
 811:..\Slider.cydsn/command_telemetry.c **** }// parse_and_execute_command
 2518              		.loc 1 811 0
 2519 05ac 0120     		mov	r0, #1
 688:..\Slider.cydsn/command_telemetry.c ****                 }// CMD_TRACKER_ENABLE
 2520              		.loc 1 688 0
 2521 05ae AEE0     		b	.L95
 2522              	.LVL422:
 2523              	.L177:
 694:..\Slider.cydsn/command_telemetry.c ****                     return FALSE;
 2524              		.loc 1 694 0
 2525 05b0 0220     		mov	r0, #2
 2526              	.LVL423:
 2527 05b2 211C     		mov	r1, r4
 2528 05b4 4B4A     		ldr	r2, .L182+16
 2529 05b6 FFF7FEFF 		bl	send_alarm_telemetry
 2530              	.LVL424:
 695:..\Slider.cydsn/command_telemetry.c ****                 }// CMD_TRACKER_UNKNOWN, default
 2531              		.loc 1 695 0
 2532 05ba 0020     		mov	r0, #0
 2533 05bc A7E0     		b	.L95
 2534              	.LVL425:
 2535              	.L104:
 703:..\Slider.cydsn/command_telemetry.c ****             {
 2536              		.loc 1 703 0
 2537 05be 281C     		mov	r0, r5
 2538 05c0 2C21     		mov	r1, #44
 2539 05c2 FFF7FEFF 		bl	strchr
 2540              	.LVL426:
 2541 05c6 0028     		cmp	r0, #0
 2542 05c8 06D1     		bne	.L161
 705:..\Slider.cydsn/command_telemetry.c ****                 return FALSE;
 2543              		.loc 1 705 0
 2544 05ca 0230     		add	r0, r0, #2
 2545              	.LVL427:
 2546 05cc 211C     		mov	r1, r4
 2547 05ce 464A     		ldr	r2, .L182+20
 2548 05d0 FFF7FEFF 		bl	send_alarm_telemetry
 2549              	.LVL428:
 706:..\Slider.cydsn/command_telemetry.c ****             }// If we can't find the next ',' character
 2550              		.loc 1 706 0
 2551 05d4 0020     		mov	r0, #0
 2552 05d6 9AE0     		b	.L95
 2553              	.LVL429:
 2554              	.L161:
 709:..\Slider.cydsn/command_telemetry.c ****             {
 2555              		.loc 1 709 0
 2556 05d8 0130     		add	r0, r0, #1
ARM GAS  C:\Users\MM1005~1\AppData\Local\Temp\cc36bet7.s 			page 69


 2557              	.LVL430:
 2558 05da 3A21     		mov	r1, #58
 2559 05dc FFF7FEFF 		bl	strchr
 2560              	.LVL431:
 2561 05e0 0028     		cmp	r0, #0
 2562 05e2 06D1     		bne	.L162
 711:..\Slider.cydsn/command_telemetry.c ****                 return FALSE;
 2563              		.loc 1 711 0
 2564 05e4 0230     		add	r0, r0, #2
 2565              	.LVL432:
 2566 05e6 211C     		mov	r1, r4
 2567 05e8 3F4A     		ldr	r2, .L182+20
 2568 05ea FFF7FEFF 		bl	send_alarm_telemetry
 2569              	.LVL433:
 712:..\Slider.cydsn/command_telemetry.c ****             }// If we can't find the next ':' character
 2570              		.loc 1 712 0
 2571 05ee 0020     		mov	r0, #0
 2572 05f0 8DE0     		b	.L95
 2573              	.LVL434:
 2574              	.L162:
 714:..\Slider.cydsn/command_telemetry.c ****             
 2575              		.loc 1 714 0
 2576 05f2 0130     		add	r0, r0, #1
 2577              	.LVL435:
 716:..\Slider.cydsn/command_telemetry.c ****             {
 2578              		.loc 1 716 0
 2579 05f4 FFF7FEFF 		bl	get_telemetry_cmd_id_from_cmd_string
 2580              	.LVL436:
 2581 05f8 0028     		cmp	r0, #0
 2582 05fa 06D0     		beq	.L164
 2583 05fc 0128     		cmp	r0, #1
 2584 05fe 09D1     		bne	.L178
 720:..\Slider.cydsn/command_telemetry.c ****                     break;
 2585              		.loc 1 720 0
 2586 0600 0020     		mov	r0, #0
 2587              	.LVL437:
 2588 0602 FFF7FEFF 		bl	set_is_telemetry_enable
 2589              	.LVL438:
 811:..\Slider.cydsn/command_telemetry.c **** }// parse_and_execute_command
 2590              		.loc 1 811 0
 2591 0606 0120     		mov	r0, #1
 721:..\Slider.cydsn/command_telemetry.c ****                 }// CMD_TRACKER_DISABLE      
 2592              		.loc 1 721 0
 2593 0608 81E0     		b	.L95
 2594              	.LVL439:
 2595              	.L164:
 726:..\Slider.cydsn/command_telemetry.c ****                     break;
 2596              		.loc 1 726 0
 2597 060a 0120     		mov	r0, #1
 2598              	.LVL440:
 2599 060c FFF7FEFF 		bl	set_is_telemetry_enable
 2600              	.LVL441:
 811:..\Slider.cydsn/command_telemetry.c **** }// parse_and_execute_command
 2601              		.loc 1 811 0
 2602 0610 0120     		mov	r0, #1
 727:..\Slider.cydsn/command_telemetry.c ****                 }// CMD_TRACKER_ENABLE
 2603              		.loc 1 727 0
ARM GAS  C:\Users\MM1005~1\AppData\Local\Temp\cc36bet7.s 			page 70


 2604 0612 7CE0     		b	.L95
 2605              	.LVL442:
 2606              	.L178:
 733:..\Slider.cydsn/command_telemetry.c ****                     return FALSE;
 2607              		.loc 1 733 0
 2608 0614 0220     		mov	r0, #2
 2609              	.LVL443:
 2610 0616 211C     		mov	r1, r4
 2611 0618 334A     		ldr	r2, .L182+20
 2612 061a FFF7FEFF 		bl	send_alarm_telemetry
 2613              	.LVL444:
 734:..\Slider.cydsn/command_telemetry.c ****                 }// CMD_TRACKER_UNKNOWN, default
 2614              		.loc 1 734 0
 2615 061e 0020     		mov	r0, #0
 2616 0620 75E0     		b	.L95
 2617              	.LVL445:
 2618              	.L105:
 742:..\Slider.cydsn/command_telemetry.c ****             {
 2619              		.loc 1 742 0
 2620 0622 281C     		mov	r0, r5
 2621 0624 2C21     		mov	r1, #44
 2622 0626 FFF7FEFF 		bl	strchr
 2623              	.LVL446:
 2624 062a 0028     		cmp	r0, #0
 2625 062c 06D1     		bne	.L166
 744:..\Slider.cydsn/command_telemetry.c ****                 return FALSE;
 2626              		.loc 1 744 0
 2627 062e 0230     		add	r0, r0, #2
 2628              	.LVL447:
 2629 0630 211C     		mov	r1, r4
 2630 0632 2E4A     		ldr	r2, .L182+24
 2631 0634 FFF7FEFF 		bl	send_alarm_telemetry
 2632              	.LVL448:
 745:..\Slider.cydsn/command_telemetry.c ****             }// If we can't find the next ',' character
 2633              		.loc 1 745 0
 2634 0638 0020     		mov	r0, #0
 2635 063a 68E0     		b	.L95
 2636              	.LVL449:
 2637              	.L166:
 748:..\Slider.cydsn/command_telemetry.c ****             {
 2638              		.loc 1 748 0
 2639 063c 0130     		add	r0, r0, #1
 2640              	.LVL450:
 2641 063e 3A21     		mov	r1, #58
 2642 0640 FFF7FEFF 		bl	strchr
 2643              	.LVL451:
 2644 0644 0028     		cmp	r0, #0
 2645 0646 06D1     		bne	.L167
 750:..\Slider.cydsn/command_telemetry.c ****                 return FALSE;
 2646              		.loc 1 750 0
 2647 0648 0230     		add	r0, r0, #2
 2648              	.LVL452:
 2649 064a 211C     		mov	r1, r4
 2650 064c 274A     		ldr	r2, .L182+24
 2651 064e FFF7FEFF 		bl	send_alarm_telemetry
 2652              	.LVL453:
 751:..\Slider.cydsn/command_telemetry.c ****             }// If we can't find the next ':' character
ARM GAS  C:\Users\MM1005~1\AppData\Local\Temp\cc36bet7.s 			page 71


 2653              		.loc 1 751 0
 2654 0652 0020     		mov	r0, #0
 2655 0654 5BE0     		b	.L95
 2656              	.LVL454:
 2657              	.L167:
 753:..\Slider.cydsn/command_telemetry.c ****             
 2658              		.loc 1 753 0
 2659 0656 451C     		add	r5, r0, #1
 2660              	.LVL455:
 755:..\Slider.cydsn/command_telemetry.c ****             {
 2661              		.loc 1 755 0
 2662 0658 281C     		mov	r0, r5
 2663 065a FFF7FEFF 		bl	get_tracker_cmd_id_from_cmd_string
 2664              	.LVL456:
 2665 065e 0128     		cmp	r0, #1
 2666 0660 04D0     		beq	.L169
 2667 0662 0028     		cmp	r0, #0
 2668 0664 07D0     		beq	.L170
 2669 0666 0228     		cmp	r0, #2
 2670 0668 0AD0     		beq	.L171
 2671 066a 2BE0     		b	.L179
 2672              	.L169:
 759:..\Slider.cydsn/command_telemetry.c ****                     break;
 2673              		.loc 1 759 0
 2674 066c 0020     		mov	r0, #0
 2675              	.LVL457:
 2676 066e FFF7FEFF 		bl	set_is_tracker_enable
 2677              	.LVL458:
 811:..\Slider.cydsn/command_telemetry.c **** }// parse_and_execute_command
 2678              		.loc 1 811 0
 2679 0672 0120     		mov	r0, #1
 760:..\Slider.cydsn/command_telemetry.c ****                 }// CMD_TRACKER_DISABLE      
 2680              		.loc 1 760 0
 2681 0674 4BE0     		b	.L95
 2682              	.LVL459:
 2683              	.L170:
 765:..\Slider.cydsn/command_telemetry.c ****                     break;
 2684              		.loc 1 765 0
 2685 0676 0120     		mov	r0, #1
 2686              	.LVL460:
 2687 0678 FFF7FEFF 		bl	set_is_tracker_enable
 2688              	.LVL461:
 811:..\Slider.cydsn/command_telemetry.c **** }// parse_and_execute_command
 2689              		.loc 1 811 0
 2690 067c 0120     		mov	r0, #1
 766:..\Slider.cydsn/command_telemetry.c ****                 }// CMD_TRACKER_ENABLE
 2691              		.loc 1 766 0
 2692 067e 46E0     		b	.L95
 2693              	.LVL462:
 2694              	.L171:
 771:..\Slider.cydsn/command_telemetry.c ****                     {
 2695              		.loc 1 771 0
 2696 0680 281C     		mov	r0, r5
 2697              	.LVL463:
 2698 0682 2C21     		mov	r1, #44
 2699 0684 FFF7FEFF 		bl	strchr
 2700              	.LVL464:
ARM GAS  C:\Users\MM1005~1\AppData\Local\Temp\cc36bet7.s 			page 72


 2701 0688 0028     		cmp	r0, #0
 2702 068a 06D1     		bne	.L172
 773:..\Slider.cydsn/command_telemetry.c ****                         return FALSE;
 2703              		.loc 1 773 0
 2704 068c 0230     		add	r0, r0, #2
 2705              	.LVL465:
 2706 068e 211C     		mov	r1, r4
 2707 0690 164A     		ldr	r2, .L182+24
 2708 0692 FFF7FEFF 		bl	send_alarm_telemetry
 2709              	.LVL466:
 774:..\Slider.cydsn/command_telemetry.c ****                     }// If we can't find the next ',' character
 2710              		.loc 1 774 0
 2711 0696 0020     		mov	r0, #0
 2712 0698 39E0     		b	.L95
 2713              	.LVL467:
 2714              	.L172:
 777:..\Slider.cydsn/command_telemetry.c ****                     {
 2715              		.loc 1 777 0
 2716 069a 0130     		add	r0, r0, #1
 2717              	.LVL468:
 2718 069c 3A21     		mov	r1, #58
 2719 069e FFF7FEFF 		bl	strchr
 2720              	.LVL469:
 2721 06a2 0028     		cmp	r0, #0
 2722 06a4 06D1     		bne	.L173
 779:..\Slider.cydsn/command_telemetry.c ****                         return FALSE;
 2723              		.loc 1 779 0
 2724 06a6 0230     		add	r0, r0, #2
 2725              	.LVL470:
 2726 06a8 211C     		mov	r1, r4
 2727 06aa 104A     		ldr	r2, .L182+24
 2728 06ac FFF7FEFF 		bl	send_alarm_telemetry
 2729              	.LVL471:
 780:..\Slider.cydsn/command_telemetry.c ****                     }// If we can't find the next ':' character
 2730              		.loc 1 780 0
 2731 06b0 0020     		mov	r0, #0
 2732 06b2 2CE0     		b	.L95
 2733              	.LVL472:
 2734              	.L173:
 782:..\Slider.cydsn/command_telemetry.c ****                     set_number_of_buttons (atoi(param_str));
 2735              		.loc 1 782 0
 2736 06b4 0130     		add	r0, r0, #1
 2737              	.LVL473:
 783:..\Slider.cydsn/command_telemetry.c ****                     break;
 2738              		.loc 1 783 0
 2739 06b6 FFF7FEFF 		bl	atoi
 2740              	.LVL474:
 2741 06ba 80B2     		uxth	r0, r0
 2742 06bc FFF7FEFF 		bl	set_number_of_buttons
 2743              	.LVL475:
 811:..\Slider.cydsn/command_telemetry.c **** }// parse_and_execute_command
 2744              		.loc 1 811 0
 2745 06c0 0120     		mov	r0, #1
 784:..\Slider.cydsn/command_telemetry.c ****                 }// CMD_TRACKER_SET_BUTTON
 2746              		.loc 1 784 0
 2747 06c2 24E0     		b	.L95
 2748              	.LVL476:
ARM GAS  C:\Users\MM1005~1\AppData\Local\Temp\cc36bet7.s 			page 73


 2749              	.L179:
 790:..\Slider.cydsn/command_telemetry.c ****                     return FALSE;
 2750              		.loc 1 790 0
 2751 06c4 0220     		mov	r0, #2
 2752              	.LVL477:
 2753 06c6 211C     		mov	r1, r4
 2754 06c8 084A     		ldr	r2, .L182+24
 2755 06ca FFF7FEFF 		bl	send_alarm_telemetry
 2756              	.LVL478:
 791:..\Slider.cydsn/command_telemetry.c ****                 }// CMD_TRACKER_UNKNOWN, default
 2757              		.loc 1 791 0
 2758 06ce 0020     		mov	r0, #0
 2759 06d0 1DE0     		b	.L95
 2760              	.L183:
 2761 06d2 C046     		.align	2
 2762              	.L182:
 2763 06d4 80020000 		.word	.LC96
 2764 06d8 04020000 		.word	.LC88
 2765 06dc 94020000 		.word	.LC98
 2766 06e0 B4020000 		.word	.LC100
 2767 06e4 90010000 		.word	.LC79
 2768 06e8 CC020000 		.word	.LC102
 2769 06ec EC020000 		.word	.LC104
 2770              	.LVL479:
 2771              	.L106:
 799:..\Slider.cydsn/command_telemetry.c ****             break;
 2772              		.loc 1 799 0
 2773 06f0 FFF7FEFF 		bl	get_software_version
 2774              	.LVL480:
 2775 06f4 021C     		mov	r2, r0
 2776 06f6 0120     		mov	r0, #1
 2777 06f8 0649     		ldr	r1, .L184
 2778 06fa FFF7FEFF 		bl	send_alarm_telemetry
 2779              	.LVL481:
 811:..\Slider.cydsn/command_telemetry.c **** }// parse_and_execute_command
 2780              		.loc 1 811 0
 2781 06fe 0120     		mov	r0, #1
 800:..\Slider.cydsn/command_telemetry.c ****         }// CMD_VERSION
 2782              		.loc 1 800 0
 2783 0700 05E0     		b	.L95
 2784              	.LVL482:
 2785              	.L96:
 806:..\Slider.cydsn/command_telemetry.c ****             return FALSE;
 2786              		.loc 1 806 0
 2787 0702 0220     		mov	r0, #2
 2788              	.LVL483:
 2789 0704 211C     		mov	r1, r4
 2790 0706 044A     		ldr	r2, .L184+4
 2791 0708 FFF7FEFF 		bl	send_alarm_telemetry
 2792              	.LVL484:
 807:..\Slider.cydsn/command_telemetry.c ****         }// default
 2793              		.loc 1 807 0
 2794 070c 0020     		mov	r0, #0
 2795              	.LVL485:
 2796              	.L95:
 812:..\Slider.cydsn/command_telemetry.c **** 
 2797              		.loc 1 812 0
ARM GAS  C:\Users\MM1005~1\AppData\Local\Temp\cc36bet7.s 			page 74


 2798 070e 13B0     		add	sp, sp, #76
 2799              		@ sp needed
 2800 0710 F0BD     		pop	{r4, r5, r6, r7, pc}
 2801              	.L185:
 2802 0712 C046     		.align	2
 2803              	.L184:
 2804 0714 08030000 		.word	.LC106
 2805 0718 10030000 		.word	.LC108
 2806              		.cfi_endproc
 2807              	.LFE43:
 2808              		.size	parse_and_execute_command, .-parse_and_execute_command
 2809              		.section	.rodata
 2810              		.align	2
 2811              		.set	.LANCHOR0,. + 0
 2812              		.set	.LANCHOR1,. + 128
 2813              		.set	.LANCHOR2,. + 256
 2814              		.type	vec_commands, %object
 2815              		.size	vec_commands, 108
 2816              	vec_commands:
 2817 0038 0000     		.short	0
 2818 003a 0000     		.space	2
 2819 003c 64010000 		.word	.LC75
 2820 0040 48030000 		.word	.LC110
 2821 0044 0100     		.short	1
 2822 0046 0000     		.space	2
 2823 0048 68030000 		.word	.LC111
 2824 004c 74030000 		.word	.LC112
 2825 0050 0200     		.short	2
 2826 0052 0000     		.space	2
 2827 0054 8C030000 		.word	.LC113
 2828 0058 98030000 		.word	.LC114
 2829 005c 0400     		.short	4
 2830 005e 0000     		.space	2
 2831 0060 BC030000 		.word	.LC115
 2832 0064 C4030000 		.word	.LC116
 2833 0068 0300     		.short	3
 2834 006a 0000     		.space	2
 2835 006c C8030000 		.word	.LC117
 2836 0070 CC030000 		.word	.LC118
 2837 0074 0500     		.short	5
 2838 0076 0000     		.space	2
 2839 0078 D8030000 		.word	.LC119
 2840 007c E0030000 		.word	.LC120
 2841 0080 0600     		.short	6
 2842 0082 0000     		.space	2
 2843 0084 04040000 		.word	.LC121
 2844 0088 10040000 		.word	.LC122
 2845 008c 0700     		.short	7
 2846 008e 0000     		.space	2
 2847 0090 2C040000 		.word	.LC123
 2848 0094 34040000 		.word	.LC124
 2849 0098 0800     		.short	8
 2850 009a 0000     		.space	2
 2851 009c 08030000 		.word	.LC106
 2852 00a0 58040000 		.word	.LC125
 2853              		.type	vec_sensor_commands, %object
 2854              		.size	vec_sensor_commands, 24
ARM GAS  C:\Users\MM1005~1\AppData\Local\Temp\cc36bet7.s 			page 75


 2855              	vec_sensor_commands:
 2856 00a4 0100     		.short	1
 2857 00a6 0000     		.space	2
 2858 00a8 30050000 		.word	.LC136
 2859 00ac D8050000 		.word	.LC144
 2860 00b0 0000     		.short	0
 2861 00b2 0000     		.space	2
 2862 00b4 58050000 		.word	.LC138
 2863 00b8 F4050000 		.word	.LC145
 2864              		.type	vec_telemetry_commands, %object
 2865              		.size	vec_telemetry_commands, 24
 2866              	vec_telemetry_commands:
 2867 00bc 0100     		.short	1
 2868 00be 0000     		.space	2
 2869 00c0 30050000 		.word	.LC136
 2870 00c4 B0050000 		.word	.LC142
 2871 00c8 0000     		.short	0
 2872 00ca 0000     		.space	2
 2873 00cc 58050000 		.word	.LC138
 2874 00d0 C4050000 		.word	.LC143
 2875              		.type	vec_tracker_commands, %object
 2876              		.size	vec_tracker_commands, 36
 2877              	vec_tracker_commands:
 2878 00d4 0100     		.short	1
 2879 00d6 0000     		.space	2
 2880 00d8 30050000 		.word	.LC136
 2881 00dc 38050000 		.word	.LC137
 2882 00e0 0000     		.short	0
 2883 00e2 0000     		.space	2
 2884 00e4 58050000 		.word	.LC138
 2885 00e8 60050000 		.word	.LC139
 2886 00ec 0200     		.short	2
 2887 00ee 0000     		.space	2
 2888 00f0 80050000 		.word	.LC140
 2889 00f4 8C050000 		.word	.LC141
 2890              		.type	vec_anim_commands, %object
 2891              		.size	vec_anim_commands, 48
 2892              	vec_anim_commands:
 2893 00f8 0000     		.short	0
 2894 00fa 0000     		.space	2
 2895 00fc 10060000 		.word	.LC146
 2896 0100 18060000 		.word	.LC147
 2897 0104 0100     		.short	1
 2898 0106 0000     		.space	2
 2899 0108 38060000 		.word	.LC148
 2900 010c 40060000 		.word	.LC149
 2901 0110 0200     		.short	2
 2902 0112 0000     		.space	2
 2903 0114 60060000 		.word	.LC150
 2904 0118 68060000 		.word	.LC151
 2905 011c 0300     		.short	3
 2906 011e 0000     		.space	2
 2907 0120 78060000 		.word	.LC152
 2908 0124 80060000 		.word	.LC153
 2909              		.type	vec_boot_commands, %object
 2910              		.size	vec_boot_commands, 36
 2911              	vec_boot_commands:
ARM GAS  C:\Users\MM1005~1\AppData\Local\Temp\cc36bet7.s 			page 76


 2912 0128 0000     		.short	0
 2913 012a 0000     		.space	2
 2914 012c 94060000 		.word	.LC154
 2915 0130 9C060000 		.word	.LC155
 2916 0134 0100     		.short	1
 2917 0136 0000     		.space	2
 2918 0138 B8060000 		.word	.LC156
 2919 013c C0060000 		.word	.LC157
 2920 0140 0200     		.short	2
 2921 0142 0000     		.space	2
 2922 0144 DC060000 		.word	.LC158
 2923 0148 EC060000 		.word	.LC159
 2924              		.type	vec_led_commands, %object
 2925              		.size	vec_led_commands, 60
 2926              	vec_led_commands:
 2927 014c 0000     		.short	0
 2928 014e 0000     		.space	2
 2929 0150 70040000 		.word	.LC126
 2930 0154 78040000 		.word	.LC127
 2931 0158 0100     		.short	1
 2932 015a 0000     		.space	2
 2933 015c 88040000 		.word	.LC128
 2934 0160 98040000 		.word	.LC129
 2935 0164 0200     		.short	2
 2936 0166 0000     		.space	2
 2937 0168 B8040000 		.word	.LC130
 2938 016c C8040000 		.word	.LC131
 2939 0170 0300     		.short	3
 2940 0172 0000     		.space	2
 2941 0174 E8040000 		.word	.LC132
 2942 0178 F4040000 		.word	.LC133
 2943 017c 0400     		.short	4
 2944 017e 0000     		.space	2
 2945 0180 10050000 		.word	.LC134
 2946 0184 1C050000 		.word	.LC135
 2947              	.LC14:
 2948 0188 24030000 		.word	.LC0
 2949 018c 28030000 		.word	.LC1
 2950 0190 30030000 		.word	.LC2
 2951 0194 38030000 		.word	.LC3
 2952 0198 40030000 		.word	.LC4
 2953              		.section	.rodata.str1.4,"aMS",%progbits,1
 2954              		.align	2
 2955              	.LC17:
 2956 0000 7B226576 		.ascii	"{\"event\":\"alarm\", \"type\":\"\000"
 2956      656E7422 
 2956      3A22616C 
 2956      61726D22 
 2956      2C202274 
 2957 001b 00       		.space	1
 2958              	.LC19:
 2959 001c 222C2022 		.ascii	"\", \"source\":\"\000"
 2959      736F7572 
 2959      6365223A 
 2959      2200
 2960 002a 0000     		.space	2
 2961              	.LC21:
ARM GAS  C:\Users\MM1005~1\AppData\Local\Temp\cc36bet7.s 			page 77


 2962 002c 222C2022 		.ascii	"\", \"description\":\"\000"
 2962      64657363 
 2962      72697074 
 2962      696F6E22 
 2962      3A2200
 2963 003f 00       		.space	1
 2964              	.LC23:
 2965 0040 227D00   		.ascii	"\"}\000"
 2966 0043 00       		.space	1
 2967              	.LC27:
 2968 0044 7B226576 		.ascii	"{\"event\":\"animation\", \"name\":\"\000"
 2968      656E7422 
 2968      3A22616E 
 2968      696D6174 
 2968      696F6E22 
 2969 0063 00       		.space	1
 2970              	.LC29:
 2971 0064 222C2022 		.ascii	"\", \"action\":\"\000"
 2971      61637469 
 2971      6F6E223A 
 2971      2200
 2972 0072 0000     		.space	2
 2973              	.LC33:
 2974 0074 646F776E 		.ascii	"down\000"
 2974      00
 2975 0079 000000   		.space	3
 2976              	.LC35:
 2977 007c 757000   		.ascii	"up\000"
 2978 007f 00       		.space	1
 2979              	.LC38:
 2980 0080 7B226576 		.ascii	"{\"event\":\"push button\", \"id\":\000"
 2980      656E7422 
 2980      3A227075 
 2980      73682062 
 2980      7574746F 
 2981 009e 0000     		.space	2
 2982              	.LC40:
 2983 00a0 2C20226E 		.ascii	", \"name\":\"\000"
 2983      616D6522 
 2983      3A2200
 2984 00ab 00       		.space	1
 2985              	.LC42:
 2986 00ac 222C2022 		.ascii	"\", \"state\":\"\000"
 2986      73746174 
 2986      65223A22 
 2986      00
 2987 00b9 000000   		.space	3
 2988              	.LC47:
 2989 00bc 7B226576 		.ascii	"{\"event\":\"flash geometry\", \"checksum\":\000"
 2989      656E7422 
 2989      3A22666C 
 2989      61736820 
 2989      67656F6D 
 2990 00e3 00       		.space	1
 2991              	.LC49:
 2992 00e4 2C202266 		.ascii	", \"first row\":\000"
 2992      69727374 
ARM GAS  C:\Users\MM1005~1\AppData\Local\Temp\cc36bet7.s 			page 78


 2992      20726F77 
 2992      223A00
 2993 00f3 00       		.space	1
 2994              	.LC51:
 2995 00f4 2C20226C 		.ascii	", \"last row\":\000"
 2995      61737420 
 2995      726F7722 
 2995      3A00
 2996 0102 0000     		.space	2
 2997              	.LC53:
 2998 0104 2C202273 		.ascii	", \"size\":\000"
 2998      697A6522 
 2998      3A00
 2999 010e 0000     		.space	2
 3000              	.LC55:
 3001 0110 7D00     		.ascii	"}\000"
 3002 0112 0000     		.space	2
 3003              	.LC62:
 3004 0114 7B226576 		.ascii	"{\"event\":\"button\", \"id\":\000"
 3004      656E7422 
 3004      3A226275 
 3004      74746F6E 
 3004      222C2022 
 3005 012d 000000   		.space	3
 3006              	.LC64:
 3007 0130 2C202261 		.ascii	", \"action\":\"\000"
 3007      6374696F 
 3007      6E223A22 
 3007      00
 3008 013d 000000   		.space	3
 3009              	.LC69:
 3010 0140 63616E27 		.ascii	"can't find comma in command\000"
 3010      74206669 
 3010      6E642063 
 3010      6F6D6D61 
 3010      20696E20 
 3011              	.LC72:
 3012 015c 4649584D 		.ascii	"FIXME!\000"
 3012      452100
 3013 0163 00       		.space	1
 3014              	.LC75:
 3015 0164 616E696D 		.ascii	"animation\000"
 3015      6174696F 
 3015      6E00
 3016 016e 0000     		.space	2
 3017              	.LC77:
 3018 0170 756E7375 		.ascii	"unsupported animation action\000"
 3018      70706F72 
 3018      74656420 
 3018      616E696D 
 3018      6174696F 
 3019 018d 000000   		.space	3
 3020              	.LC79:
 3021 0190 756E7375 		.ascii	"unsupported sensor action\000"
 3021      70706F72 
 3021      74656420 
 3021      73656E73 
ARM GAS  C:\Users\MM1005~1\AppData\Local\Temp\cc36bet7.s 			page 79


 3021      6F722061 
 3022 01aa 0000     		.space	2
 3023              	.LC81:
 3024 01ac 626F6F74 		.ascii	"bootloader is disabled\000"
 3024      6C6F6164 
 3024      65722069 
 3024      73206469 
 3024      7361626C 
 3025 01c3 00       		.space	1
 3026              	.LC83:
 3027 01c4 756E7375 		.ascii	"unsupported bootloader action\000"
 3027      70706F72 
 3027      74656420 
 3027      626F6F74 
 3027      6C6F6164 
 3028 01e2 0000     		.space	2
 3029              	.LC86:
 3030 01e4 63616E27 		.ascii	"can't parse red from RGB color\000"
 3030      74207061 
 3030      72736520 
 3030      72656420 
 3030      66726F6D 
 3031 0203 00       		.space	1
 3032              	.LC88:
 3033 0204 63616E27 		.ascii	"can't parse green from RGB color\000"
 3033      74207061 
 3033      72736520 
 3033      67726565 
 3033      6E206672 
 3034 0225 000000   		.space	3
 3035              	.LC90:
 3036 0228 63616E27 		.ascii	"can't parsed green from RGB color\000"
 3036      74207061 
 3036      72736564 
 3036      20677265 
 3036      656E2066 
 3037 024a 0000     		.space	2
 3038              	.LC92:
 3039 024c 63616E27 		.ascii	"can't parse LED index color\000"
 3039      74207061 
 3039      72736520 
 3039      4C454420 
 3039      696E6465 
 3040              	.LC94:
 3041 0268 63616E27 		.ascii	"can't parse LED index\000"
 3041      74207061 
 3041      72736520 
 3041      4C454420 
 3041      696E6465 
 3042 027e 0000     		.space	2
 3043              	.LC96:
 3044 0280 696E7661 		.ascii	"invalid led index\000"
 3044      6C696420 
 3044      6C656420 
 3044      696E6465 
 3044      7800
 3045 0292 0000     		.space	2
ARM GAS  C:\Users\MM1005~1\AppData\Local\Temp\cc36bet7.s 			page 80


 3046              	.LC98:
 3047 0294 63616E27 		.ascii	"can't parse LED strip command\000"
 3047      74207061 
 3047      72736520 
 3047      4C454420 
 3047      73747269 
 3048 02b2 0000     		.space	2
 3049              	.LC100:
 3050 02b4 756E7375 		.ascii	"unsupported led action\000"
 3050      70706F72 
 3050      74656420 
 3050      6C656420 
 3050      61637469 
 3051 02cb 00       		.space	1
 3052              	.LC102:
 3053 02cc 756E7375 		.ascii	"unsupported telemetry action\000"
 3053      70706F72 
 3053      74656420 
 3053      74656C65 
 3053      6D657472 
 3054 02e9 000000   		.space	3
 3055              	.LC104:
 3056 02ec 756E7375 		.ascii	"unsupported tracker action\000"
 3056      70706F72 
 3056      74656420 
 3056      74726163 
 3056      6B657220 
 3057 0307 00       		.space	1
 3058              	.LC106:
 3059 0308 76657273 		.ascii	"version\000"
 3059      696F6E00 
 3060              	.LC108:
 3061 0310 756E7375 		.ascii	"unsupported command\000"
 3061      70706F72 
 3061      74656420 
 3061      636F6D6D 
 3061      616E6400 
 3062              	.LC0:
 3063 0324 6C6F6700 		.ascii	"log\000"
 3064              	.LC1:
 3065 0328 696E666F 		.ascii	"info\000"
 3065      00
 3066 032d 000000   		.space	3
 3067              	.LC2:
 3068 0330 7761726E 		.ascii	"warning\000"
 3068      696E6700 
 3069              	.LC3:
 3070 0338 6572726F 		.ascii	"error\000"
 3070      7200
 3071 033e 0000     		.space	2
 3072              	.LC4:
 3073 0340 66617461 		.ascii	"fatal\000"
 3073      6C00
 3074 0346 0000     		.space	2
 3075              	.LC110:
 3076 0348 73657420 		.ascii	"set the animation parameters\000"
 3076      74686520 
ARM GAS  C:\Users\MM1005~1\AppData\Local\Temp\cc36bet7.s 			page 81


 3076      616E696D 
 3076      6174696F 
 3076      6E207061 
 3077 0365 000000   		.space	3
 3078              	.LC111:
 3079 0368 626F6F74 		.ascii	"bootloader\000"
 3079      6C6F6164 
 3079      657200
 3080 0373 00       		.space	1
 3081              	.LC112:
 3082 0374 6A756D70 		.ascii	"jump in booloader mode\000"
 3082      20696E20 
 3082      626F6F6C 
 3082      6F616465 
 3082      72206D6F 
 3083 038b 00       		.space	1
 3084              	.LC113:
 3085 038c 63617073 		.ascii	"capsense\000"
 3085      656E7365 
 3085      00
 3086 0395 000000   		.space	3
 3087              	.LC114:
 3088 0398 7365742F 		.ascii	"set/get the capsense configuration\000"
 3088      67657420 
 3088      74686520 
 3088      63617073 
 3088      656E7365 
 3089 03bb 00       		.space	1
 3090              	.LC115:
 3091 03bc 68656C70 		.ascii	"help\000"
 3091      00
 3092 03c1 000000   		.space	3
 3093              	.LC116:
 3094 03c4 00       		.ascii	"\000"
 3095 03c5 000000   		.space	3
 3096              	.LC117:
 3097 03c8 6C656400 		.ascii	"led\000"
 3098              	.LC118:
 3099 03cc 73657420 		.ascii	"set led(s)\000"
 3099      6C656428 
 3099      732900
 3100 03d7 00       		.space	1
 3101              	.LC119:
 3102 03d8 73656E73 		.ascii	"sensor\000"
 3102      6F7200
 3103 03df 00       		.space	1
 3104              	.LC120:
 3105 03e0 656E6162 		.ascii	"enable/disable sensors telemetries\000"
 3105      6C652F64 
 3105      69736162 
 3105      6C652073 
 3105      656E736F 
 3106 0403 00       		.space	1
 3107              	.LC121:
 3108 0404 74656C65 		.ascii	"telemetry\000"
 3108      6D657472 
 3108      7900
ARM GAS  C:\Users\MM1005~1\AppData\Local\Temp\cc36bet7.s 			page 82


 3109 040e 0000     		.space	2
 3110              	.LC122:
 3111 0410 656E6162 		.ascii	"enable/disable telemetries\000"
 3111      6C652F64 
 3111      69736162 
 3111      6C652074 
 3111      656C656D 
 3112 042b 00       		.space	1
 3113              	.LC123:
 3114 042c 74726163 		.ascii	"tracker\000"
 3114      6B657200 
 3115              	.LC124:
 3116 0434 7365742F 		.ascii	"set/get the tracker configuration\000"
 3116      67657420 
 3116      74686520 
 3116      74726163 
 3116      6B657220 
 3117 0456 0000     		.space	2
 3118              	.LC125:
 3119 0458 67657420 		.ascii	"get the actual version\000"
 3119      74686520 
 3119      61637475 
 3119      616C2076 
 3119      65727369 
 3120 046f 00       		.space	1
 3121              	.LC126:
 3122 0470 636C6561 		.ascii	"clear\000"
 3122      7200
 3123 0476 0000     		.space	2
 3124              	.LC127:
 3125 0478 636C6561 		.ascii	"clear all leds\000"
 3125      7220616C 
 3125      6C206C65 
 3125      647300
 3126 0487 00       		.space	1
 3127              	.LC128:
 3128 0488 73657420 		.ascii	"set color left\000"
 3128      636F6C6F 
 3128      72206C65 
 3128      667400
 3129 0497 00       		.space	1
 3130              	.LC129:
 3131 0498 73657420 		.ascii	"set the color of the left LED\000"
 3131      74686520 
 3131      636F6C6F 
 3131      72206F66 
 3131      20746865 
 3132 04b6 0000     		.space	2
 3133              	.LC130:
 3134 04b8 73657420 		.ascii	"set color right\000"
 3134      636F6C6F 
 3134      72207269 
 3134      67687400 
 3135              	.LC131:
 3136 04c8 73657420 		.ascii	"set the color of the right LED\000"
 3136      74686520 
 3136      636F6C6F 
ARM GAS  C:\Users\MM1005~1\AppData\Local\Temp\cc36bet7.s 			page 83


 3136      72206F66 
 3136      20746865 
 3137 04e7 00       		.space	1
 3138              	.LC132:
 3139 04e8 73657420 		.ascii	"set white\000"
 3139      77686974 
 3139      6500
 3140 04f2 0000     		.space	2
 3141              	.LC133:
 3142 04f4 73657420 		.ascii	"set the white LED intensity\000"
 3142      74686520 
 3142      77686974 
 3142      65204C45 
 3142      4420696E 
 3143              	.LC134:
 3144 0510 73657420 		.ascii	"set strip\000"
 3144      73747269 
 3144      7000
 3145 051a 0000     		.space	2
 3146              	.LC135:
 3147 051c 73657420 		.ascii	"set the LED strip\000"
 3147      74686520 
 3147      4C454420 
 3147      73747269 
 3147      7000
 3148 052e 0000     		.space	2
 3149              	.LC136:
 3150 0530 64697361 		.ascii	"disable\000"
 3150      626C6500 
 3151              	.LC137:
 3152 0538 64697361 		.ascii	"disable finger tracker on LEDs\000"
 3152      626C6520 
 3152      66696E67 
 3152      65722074 
 3152      7261636B 
 3153 0557 00       		.space	1
 3154              	.LC138:
 3155 0558 656E6162 		.ascii	"enable\000"
 3155      6C6500
 3156 055f 00       		.space	1
 3157              	.LC139:
 3158 0560 656E6162 		.ascii	"enable finger tracker on LEDs\000"
 3158      6C652066 
 3158      696E6765 
 3158      72207472 
 3158      61636B65 
 3159 057e 0000     		.space	2
 3160              	.LC140:
 3161 0580 73657420 		.ascii	"set button\000"
 3161      62757474 
 3161      6F6E00
 3162 058b 00       		.space	1
 3163              	.LC141:
 3164 058c 73657420 		.ascii	"set the number of logical buttons\000"
 3164      74686520 
 3164      6E756D62 
 3164      6572206F 
ARM GAS  C:\Users\MM1005~1\AppData\Local\Temp\cc36bet7.s 			page 84


 3164      66206C6F 
 3165 05ae 0000     		.space	2
 3166              	.LC142:
 3167 05b0 64697361 		.ascii	"disable telemetries\000"
 3167      626C6520 
 3167      74656C65 
 3167      6D657472 
 3167      69657300 
 3168              	.LC143:
 3169 05c4 656E6162 		.ascii	"enable telemetries\000"
 3169      6C652074 
 3169      656C656D 
 3169      65747269 
 3169      657300
 3170 05d7 00       		.space	1
 3171              	.LC144:
 3172 05d8 64697361 		.ascii	"disable sensors telemetries\000"
 3172      626C6520 
 3172      73656E73 
 3172      6F727320 
 3172      74656C65 
 3173              	.LC145:
 3174 05f4 656E6162 		.ascii	"enable sensors telemetries\000"
 3174      6C652073 
 3174      656E736F 
 3174      72732074 
 3174      656C656D 
 3175 060f 00       		.space	1
 3176              	.LC146:
 3177 0610 6175746F 		.ascii	"auto\000"
 3177      00
 3178 0615 000000   		.space	3
 3179              	.LC147:
 3180 0618 73657420 		.ascii	"set animation in automatic mode\000"
 3180      616E696D 
 3180      6174696F 
 3180      6E20696E 
 3180      20617574 
 3181              	.LC148:
 3182 0638 6D616E75 		.ascii	"manual\000"
 3182      616C00
 3183 063f 00       		.space	1
 3184              	.LC149:
 3185 0640 73657420 		.ascii	"set animation in manual mode\000"
 3185      616E696D 
 3185      6174696F 
 3185      6E20696E 
 3185      206D616E 
 3186 065d 000000   		.space	3
 3187              	.LC150:
 3188 0660 73746F70 		.ascii	"stop\000"
 3188      00
 3189 0665 000000   		.space	3
 3190              	.LC151:
 3191 0668 73746F70 		.ascii	"stop animation\000"
 3191      20616E69 
 3191      6D617469 
ARM GAS  C:\Users\MM1005~1\AppData\Local\Temp\cc36bet7.s 			page 85


 3191      6F6E00
 3192 0677 00       		.space	1
 3193              	.LC152:
 3194 0678 72657375 		.ascii	"resume\000"
 3194      6D6500
 3195 067f 00       		.space	1
 3196              	.LC153:
 3197 0680 72657375 		.ascii	"resume animation\000"
 3197      6D652061 
 3197      6E696D61 
 3197      74696F6E 
 3197      00
 3198 0691 000000   		.space	3
 3199              	.LC154:
 3200 0694 73746172 		.ascii	"start\000"
 3200      7400
 3201 069a 0000     		.space	2
 3202              	.LC155:
 3203 069c 656E7465 		.ascii	"enter in bootloader mode\000"
 3203      7220696E 
 3203      20626F6F 
 3203      746C6F61 
 3203      64657220 
 3204 06b5 000000   		.space	3
 3205              	.LC156:
 3206 06b8 65786974 		.ascii	"exit\000"
 3206      00
 3207 06bd 000000   		.space	3
 3208              	.LC157:
 3209 06c0 65786974 		.ascii	"exit from bootloader mode\000"
 3209      2066726F 
 3209      6D20626F 
 3209      6F746C6F 
 3209      61646572 
 3210 06da 0000     		.space	2
 3211              	.LC158:
 3212 06dc 67657420 		.ascii	"get flash geo\000"
 3212      666C6173 
 3212      68206765 
 3212      6F00
 3213 06ea 0000     		.space	2
 3214              	.LC159:
 3215 06ec 67657420 		.ascii	"get flash geometry\000"
 3215      666C6173 
 3215      68206765 
 3215      6F6D6574 
 3215      727900
 3216 06ff 00       		.bss
 3217              		.align	2
 3218              		.set	.LANCHOR3,. + 0
 3219              		.set	.LANCHOR4,. + 512
 3220              		.type	is_telemetry_enable, %object
 3221              		.size	is_telemetry_enable, 1
 3222              	is_telemetry_enable:
 3223 0000 00       		.space	1
 3224 0001 000000   		.space	3
 3225              		.type	telemetry, %object
ARM GAS  C:\Users\MM1005~1\AppData\Local\Temp\cc36bet7.s 			page 86


 3226              		.size	telemetry, 512
 3227              	telemetry:
 3228 0004 00000000 		.space	512
 3228      00000000 
 3228      00000000 
 3228      00000000 
 3228      00000000 
 3229              		.type	is_sensor_telemetry_enable, %object
 3230              		.size	is_sensor_telemetry_enable, 1
 3231              	is_sensor_telemetry_enable:
 3232 0204 00       		.space	1
 3233 0205 000000   		.text
 3234              	.Letext0:
 3235              		.file 2 "c:\\program files (x86)\\cypress\\psoc creator\\4.0\\psoc creator\\import\\gnu\\arm\\4.9.
 3236              		.file 3 "Generated_Source\\PSoC4/cytypes.h"
 3237              		.file 4 "Generated_Source\\PSoC4/CapSense_Configuration.h"
 3238              		.file 5 "Generated_Source\\PSoC4/CapSense_SmartSense_LL.h"
 3239              		.file 6 "Generated_Source\\PSoC4/CapSense_Structure.h"
 3240              		.file 7 "..\\Slider.cydsn\\util.h"
 3241              		.file 8 "..\\Slider.cydsn\\led.h"
 3242              		.file 9 "..\\Slider.cydsn\\animation.h"
 3243              		.file 10 "..\\Slider.cydsn\\command_telemetry.h"
 3244              		.file 11 "..\\Slider.cydsn\\comms.h"
 3245              		.file 12 "Generated_Source\\PSoC4/CapSense_ISR.h"
 3246              		.file 13 "c:\\program files (x86)\\cypress\\psoc creator\\4.0\\psoc creator\\import\\gnu\\arm\\4.9
 3247              		.file 14 "<built-in>"
 3248              		.file 15 "Generated_Source\\PSoC4/Timer_1.h"
 3249              		.section	.debug_info,"",%progbits
 3250              	.Ldebug_info0:
 3251 0000 35220000 		.4byte	0x2235
 3252 0004 0400     		.2byte	0x4
 3253 0006 00000000 		.4byte	.Ldebug_abbrev0
 3254 000a 04       		.byte	0x4
 3255 000b 01       		.uleb128 0x1
 3256 000c 16000000 		.4byte	.LASF235
 3257 0010 01       		.byte	0x1
 3258 0011 60060000 		.4byte	.LASF236
 3259 0015 68070000 		.4byte	.LASF237
 3260 0019 00000000 		.4byte	.Ldebug_ranges0+0
 3261 001d 00000000 		.4byte	0
 3262 0021 00000000 		.4byte	.Ldebug_line0
 3263 0025 02       		.uleb128 0x2
 3264 0026 01       		.byte	0x1
 3265 0027 06       		.byte	0x6
 3266 0028 130F0000 		.4byte	.LASF0
 3267 002c 02       		.uleb128 0x2
 3268 002d 01       		.byte	0x1
 3269 002e 08       		.byte	0x8
 3270 002f A70D0000 		.4byte	.LASF1
 3271 0033 02       		.uleb128 0x2
 3272 0034 02       		.byte	0x2
 3273 0035 05       		.byte	0x5
 3274 0036 EC0A0000 		.4byte	.LASF2
 3275 003a 02       		.uleb128 0x2
 3276 003b 02       		.byte	0x2
 3277 003c 07       		.byte	0x7
 3278 003d 240F0000 		.4byte	.LASF3
ARM GAS  C:\Users\MM1005~1\AppData\Local\Temp\cc36bet7.s 			page 87


 3279 0041 02       		.uleb128 0x2
 3280 0042 04       		.byte	0x4
 3281 0043 05       		.byte	0x5
 3282 0044 0F0B0000 		.4byte	.LASF4
 3283 0048 02       		.uleb128 0x2
 3284 0049 04       		.byte	0x4
 3285 004a 07       		.byte	0x7
 3286 004b 9B0C0000 		.4byte	.LASF5
 3287 004f 02       		.uleb128 0x2
 3288 0050 08       		.byte	0x8
 3289 0051 05       		.byte	0x5
 3290 0052 45080000 		.4byte	.LASF6
 3291 0056 02       		.uleb128 0x2
 3292 0057 08       		.byte	0x8
 3293 0058 07       		.byte	0x7
 3294 0059 9A030000 		.4byte	.LASF7
 3295 005d 03       		.uleb128 0x3
 3296 005e 04       		.byte	0x4
 3297 005f 05       		.byte	0x5
 3298 0060 696E7400 		.ascii	"int\000"
 3299 0064 02       		.uleb128 0x2
 3300 0065 04       		.byte	0x4
 3301 0066 07       		.byte	0x7
 3302 0067 0B020000 		.4byte	.LASF8
 3303 006b 04       		.uleb128 0x4
 3304 006c 38020000 		.4byte	.LASF9
 3305 0070 02       		.byte	0x2
 3306 0071 69       		.byte	0x69
 3307 0072 56000000 		.4byte	0x56
 3308 0076 05       		.uleb128 0x5
 3309 0077 5D0F0000 		.4byte	.LASF10
 3310 007b 03       		.byte	0x3
 3311 007c B901     		.2byte	0x1b9
 3312 007e 2C000000 		.4byte	0x2c
 3313 0082 05       		.uleb128 0x5
 3314 0083 4B070000 		.4byte	.LASF11
 3315 0087 03       		.byte	0x3
 3316 0088 BA01     		.2byte	0x1ba
 3317 008a 3A000000 		.4byte	0x3a
 3318 008e 05       		.uleb128 0x5
 3319 008f 9A090000 		.4byte	.LASF12
 3320 0093 03       		.byte	0x3
 3321 0094 BB01     		.2byte	0x1bb
 3322 0096 48000000 		.4byte	0x48
 3323 009a 02       		.uleb128 0x2
 3324 009b 04       		.byte	0x4
 3325 009c 04       		.byte	0x4
 3326 009d 50030000 		.4byte	.LASF13
 3327 00a1 02       		.uleb128 0x2
 3328 00a2 08       		.byte	0x8
 3329 00a3 04       		.byte	0x4
 3330 00a4 630F0000 		.4byte	.LASF14
 3331 00a8 02       		.uleb128 0x2
 3332 00a9 01       		.byte	0x1
 3333 00aa 08       		.byte	0x8
 3334 00ab F8060000 		.4byte	.LASF15
 3335 00af 06       		.uleb128 0x6
ARM GAS  C:\Users\MM1005~1\AppData\Local\Temp\cc36bet7.s 			page 88


 3336 00b0 04       		.byte	0x4
 3337 00b1 B5000000 		.4byte	0xb5
 3338 00b5 07       		.uleb128 0x7
 3339 00b6 02       		.uleb128 0x2
 3340 00b7 04       		.byte	0x4
 3341 00b8 07       		.byte	0x7
 3342 00b9 920C0000 		.4byte	.LASF16
 3343 00bd 08       		.uleb128 0x8
 3344 00be 04       		.byte	0x4
 3345 00bf 06       		.uleb128 0x6
 3346 00c0 04       		.byte	0x4
 3347 00c1 A8000000 		.4byte	0xa8
 3348 00c5 06       		.uleb128 0x6
 3349 00c6 04       		.byte	0x4
 3350 00c7 CB000000 		.4byte	0xcb
 3351 00cb 09       		.uleb128 0x9
 3352 00cc A8000000 		.4byte	0xa8
 3353 00d0 06       		.uleb128 0x6
 3354 00d1 04       		.byte	0x4
 3355 00d2 76000000 		.4byte	0x76
 3356 00d6 04       		.uleb128 0x4
 3357 00d7 2B0E0000 		.4byte	.LASF17
 3358 00db 04       		.byte	0x4
 3359 00dc D7       		.byte	0xd7
 3360 00dd 82000000 		.4byte	0x82
 3361 00e1 04       		.uleb128 0x4
 3362 00e2 D7070000 		.4byte	.LASF18
 3363 00e6 04       		.byte	0x4
 3364 00e7 DB       		.byte	0xdb
 3365 00e8 76000000 		.4byte	0x76
 3366 00ec 06       		.uleb128 0x6
 3367 00ed 04       		.byte	0x4
 3368 00ee 82000000 		.4byte	0x82
 3369 00f2 0A       		.uleb128 0xa
 3370 00f3 0C       		.byte	0xc
 3371 00f4 05       		.byte	0x5
 3372 00f5 6C       		.byte	0x6c
 3373 00f6 4F010000 		.4byte	0x14f
 3374 00fa 0B       		.uleb128 0xb
 3375 00fb 8C0F0000 		.4byte	.LASF19
 3376 00ff 05       		.byte	0x5
 3377 0100 6E       		.byte	0x6e
 3378 0101 82000000 		.4byte	0x82
 3379 0105 00       		.byte	0
 3380 0106 0B       		.uleb128 0xb
 3381 0107 930F0000 		.4byte	.LASF20
 3382 010b 05       		.byte	0x5
 3383 010c 6F       		.byte	0x6f
 3384 010d 82000000 		.4byte	0x82
 3385 0111 02       		.byte	0x2
 3386 0112 0B       		.uleb128 0xb
 3387 0113 9A0F0000 		.4byte	.LASF21
 3388 0117 05       		.byte	0x5
 3389 0118 70       		.byte	0x70
 3390 0119 82000000 		.4byte	0x82
 3391 011d 04       		.byte	0x4
 3392 011e 0B       		.uleb128 0xb
ARM GAS  C:\Users\MM1005~1\AppData\Local\Temp\cc36bet7.s 			page 89


 3393 011f A10F0000 		.4byte	.LASF22
 3394 0123 05       		.byte	0x5
 3395 0124 71       		.byte	0x71
 3396 0125 82000000 		.4byte	0x82
 3397 0129 06       		.byte	0x6
 3398 012a 0B       		.uleb128 0xb
 3399 012b A80F0000 		.4byte	.LASF23
 3400 012f 05       		.byte	0x5
 3401 0130 72       		.byte	0x72
 3402 0131 82000000 		.4byte	0x82
 3403 0135 08       		.byte	0x8
 3404 0136 0B       		.uleb128 0xb
 3405 0137 AF0F0000 		.4byte	.LASF24
 3406 013b 05       		.byte	0x5
 3407 013c 73       		.byte	0x73
 3408 013d 76000000 		.4byte	0x76
 3409 0141 0A       		.byte	0xa
 3410 0142 0B       		.uleb128 0xb
 3411 0143 B60F0000 		.4byte	.LASF25
 3412 0147 05       		.byte	0x5
 3413 0148 74       		.byte	0x74
 3414 0149 76000000 		.4byte	0x76
 3415 014d 0B       		.byte	0xb
 3416 014e 00       		.byte	0
 3417 014f 04       		.uleb128 0x4
 3418 0150 A6060000 		.4byte	.LASF26
 3419 0154 05       		.byte	0x5
 3420 0155 75       		.byte	0x75
 3421 0156 F2000000 		.4byte	0xf2
 3422 015a 0C       		.uleb128 0xc
 3423 015b 76000000 		.4byte	0x76
 3424 015f 6A010000 		.4byte	0x16a
 3425 0163 0D       		.uleb128 0xd
 3426 0164 B6000000 		.4byte	0xb6
 3427 0168 00       		.byte	0
 3428 0169 00       		.byte	0
 3429 016a 0E       		.uleb128 0xe
 3430 016b 0A       		.byte	0xa
 3431 016c 06       		.byte	0x6
 3432 016d 2501     		.2byte	0x125
 3433 016f C2010000 		.4byte	0x1c2
 3434 0173 0F       		.uleb128 0xf
 3435 0174 72617700 		.ascii	"raw\000"
 3436 0178 06       		.byte	0x6
 3437 0179 2A01     		.2byte	0x12a
 3438 017b C2010000 		.4byte	0x1c2
 3439 017f 00       		.byte	0
 3440 0180 10       		.uleb128 0x10
 3441 0181 1F0F0000 		.4byte	.LASF27
 3442 0185 06       		.byte	0x6
 3443 0186 2F01     		.2byte	0x12f
 3444 0188 C2010000 		.4byte	0x1c2
 3445 018c 02       		.byte	0x2
 3446 018d 10       		.uleb128 0x10
 3447 018e 690D0000 		.4byte	.LASF28
 3448 0192 06       		.byte	0x6
 3449 0193 3501     		.2byte	0x135
ARM GAS  C:\Users\MM1005~1\AppData\Local\Temp\cc36bet7.s 			page 90


 3450 0195 5A010000 		.4byte	0x15a
 3451 0199 04       		.byte	0x4
 3452 019a 10       		.uleb128 0x10
 3453 019b 4B0B0000 		.4byte	.LASF29
 3454 019f 06       		.byte	0x6
 3455 01a0 3A01     		.2byte	0x13a
 3456 01a2 D6000000 		.4byte	0xd6
 3457 01a6 06       		.byte	0x6
 3458 01a7 10       		.uleb128 0x10
 3459 01a8 6A0F0000 		.4byte	.LASF30
 3460 01ac 06       		.byte	0x6
 3461 01ad 3F01     		.2byte	0x13f
 3462 01af D2010000 		.4byte	0x1d2
 3463 01b3 08       		.byte	0x8
 3464 01b4 10       		.uleb128 0x10
 3465 01b5 16080000 		.4byte	.LASF31
 3466 01b9 06       		.byte	0x6
 3467 01ba 4501     		.2byte	0x145
 3468 01bc 5A010000 		.4byte	0x15a
 3469 01c0 09       		.byte	0x9
 3470 01c1 00       		.byte	0
 3471 01c2 0C       		.uleb128 0xc
 3472 01c3 82000000 		.4byte	0x82
 3473 01c7 D2010000 		.4byte	0x1d2
 3474 01cb 0D       		.uleb128 0xd
 3475 01cc B6000000 		.4byte	0xb6
 3476 01d0 00       		.byte	0
 3477 01d1 00       		.byte	0
 3478 01d2 0C       		.uleb128 0xc
 3479 01d3 E1000000 		.4byte	0xe1
 3480 01d7 E2010000 		.4byte	0x1e2
 3481 01db 0D       		.uleb128 0xd
 3482 01dc B6000000 		.4byte	0xb6
 3483 01e0 00       		.byte	0
 3484 01e1 00       		.byte	0
 3485 01e2 05       		.uleb128 0x5
 3486 01e3 05050000 		.4byte	.LASF32
 3487 01e7 06       		.byte	0x6
 3488 01e8 4601     		.2byte	0x146
 3489 01ea 6A010000 		.4byte	0x16a
 3490 01ee 0E       		.uleb128 0xe
 3491 01ef 20       		.byte	0x20
 3492 01f0 06       		.byte	0x6
 3493 01f1 1402     		.2byte	0x214
 3494 01f3 7A020000 		.4byte	0x27a
 3495 01f7 10       		.uleb128 0x10
 3496 01f8 500F0000 		.4byte	.LASF33
 3497 01fc 06       		.byte	0x6
 3498 01fd 1D02     		.2byte	0x21d
 3499 01ff 7A020000 		.4byte	0x27a
 3500 0203 00       		.byte	0
 3501 0204 10       		.uleb128 0x10
 3502 0205 1F0E0000 		.4byte	.LASF34
 3503 0209 06       		.byte	0x6
 3504 020a 2302     		.2byte	0x223
 3505 020c BD000000 		.4byte	0xbd
 3506 0210 04       		.byte	0x4
ARM GAS  C:\Users\MM1005~1\AppData\Local\Temp\cc36bet7.s 			page 91


 3507 0211 10       		.uleb128 0x10
 3508 0212 580A0000 		.4byte	.LASF35
 3509 0216 06       		.byte	0x6
 3510 0217 2902     		.2byte	0x229
 3511 0219 81020000 		.4byte	0x281
 3512 021d 08       		.byte	0x8
 3513 021e 10       		.uleb128 0x10
 3514 021f A1090000 		.4byte	.LASF36
 3515 0223 06       		.byte	0x6
 3516 0224 2E02     		.2byte	0x22e
 3517 0226 BD000000 		.4byte	0xbd
 3518 022a 0C       		.byte	0xc
 3519 022b 10       		.uleb128 0x10
 3520 022c 010D0000 		.4byte	.LASF37
 3521 0230 06       		.byte	0x6
 3522 0231 3502     		.2byte	0x235
 3523 0233 D0000000 		.4byte	0xd0
 3524 0237 10       		.byte	0x10
 3525 0238 10       		.uleb128 0x10
 3526 0239 C60D0000 		.4byte	.LASF38
 3527 023d 06       		.byte	0x6
 3528 023e 3A02     		.2byte	0x23a
 3529 0240 82000000 		.4byte	0x82
 3530 0244 14       		.byte	0x14
 3531 0245 10       		.uleb128 0x10
 3532 0246 8C060000 		.4byte	.LASF39
 3533 024a 06       		.byte	0x6
 3534 024b 4102     		.2byte	0x241
 3535 024d 82000000 		.4byte	0x82
 3536 0251 16       		.byte	0x16
 3537 0252 10       		.uleb128 0x10
 3538 0253 2E040000 		.4byte	.LASF40
 3539 0257 06       		.byte	0x6
 3540 0258 4C02     		.2byte	0x24c
 3541 025a 76000000 		.4byte	0x76
 3542 025e 18       		.byte	0x18
 3543 025f 10       		.uleb128 0x10
 3544 0260 53080000 		.4byte	.LASF41
 3545 0264 06       		.byte	0x6
 3546 0265 5402     		.2byte	0x254
 3547 0267 76000000 		.4byte	0x76
 3548 026b 19       		.byte	0x19
 3549 026c 10       		.uleb128 0x10
 3550 026d 1F040000 		.4byte	.LASF42
 3551 0271 06       		.byte	0x6
 3552 0272 5C02     		.2byte	0x25c
 3553 0274 87020000 		.4byte	0x287
 3554 0278 1C       		.byte	0x1c
 3555 0279 00       		.byte	0
 3556 027a 06       		.uleb128 0x6
 3557 027b 04       		.byte	0x4
 3558 027c 80020000 		.4byte	0x280
 3559 0280 11       		.uleb128 0x11
 3560 0281 06       		.uleb128 0x6
 3561 0282 04       		.byte	0x4
 3562 0283 E2010000 		.4byte	0x1e2
 3563 0287 06       		.uleb128 0x6
ARM GAS  C:\Users\MM1005~1\AppData\Local\Temp\cc36bet7.s 			page 92


 3564 0288 04       		.byte	0x4
 3565 0289 4F010000 		.4byte	0x14f
 3566 028d 05       		.uleb128 0x5
 3567 028e FD050000 		.4byte	.LASF43
 3568 0292 06       		.byte	0x6
 3569 0293 5D02     		.2byte	0x25d
 3570 0295 EE010000 		.4byte	0x1ee
 3571 0299 0E       		.uleb128 0xe
 3572 029a 20       		.byte	0x20
 3573 029b 06       		.byte	0x6
 3574 029c 6302     		.2byte	0x263
 3575 029e B0020000 		.4byte	0x2b0
 3576 02a2 10       		.uleb128 0x10
 3577 02a3 29100000 		.4byte	.LASF44
 3578 02a7 06       		.byte	0x6
 3579 02a8 6802     		.2byte	0x268
 3580 02aa B0020000 		.4byte	0x2b0
 3581 02ae 00       		.byte	0
 3582 02af 00       		.byte	0
 3583 02b0 0C       		.uleb128 0xc
 3584 02b1 8D020000 		.4byte	0x28d
 3585 02b5 C0020000 		.4byte	0x2c0
 3586 02b9 0D       		.uleb128 0xd
 3587 02ba B6000000 		.4byte	0xb6
 3588 02be 00       		.byte	0
 3589 02bf 00       		.byte	0
 3590 02c0 05       		.uleb128 0x5
 3591 02c1 D2080000 		.4byte	.LASF45
 3592 02c5 06       		.byte	0x6
 3593 02c6 6902     		.2byte	0x269
 3594 02c8 99020000 		.4byte	0x299
 3595 02cc 12       		.uleb128 0x12
 3596 02cd 33090000 		.4byte	.LASF50
 3597 02d1 01       		.byte	0x1
 3598 02d2 07       		.byte	0x7
 3599 02d3 2E       		.byte	0x2e
 3600 02d4 EE020000 		.4byte	0x2ee
 3601 02d8 13       		.uleb128 0x13
 3602 02d9 EE0F0000 		.4byte	.LASF46
 3603 02dd CC00     		.sleb128 76
 3604 02df 13       		.uleb128 0x13
 3605 02e0 B70E0000 		.4byte	.LASF47
 3606 02e4 D200     		.sleb128 82
 3607 02e6 13       		.uleb128 0x13
 3608 02e7 42090000 		.4byte	.LASF48
 3609 02eb D300     		.sleb128 83
 3610 02ed 00       		.byte	0
 3611 02ee 04       		.uleb128 0x4
 3612 02ef 43040000 		.4byte	.LASF49
 3613 02f3 07       		.byte	0x7
 3614 02f4 33       		.byte	0x33
 3615 02f5 CC020000 		.4byte	0x2cc
 3616 02f9 12       		.uleb128 0x12
 3617 02fa B1090000 		.4byte	.LASF51
 3618 02fe 01       		.byte	0x1
 3619 02ff 08       		.byte	0x8
 3620 0300 2C       		.byte	0x2c
ARM GAS  C:\Users\MM1005~1\AppData\Local\Temp\cc36bet7.s 			page 93


 3621 0301 2A030000 		.4byte	0x32a
 3622 0305 13       		.uleb128 0x13
 3623 0306 210A0000 		.4byte	.LASF52
 3624 030a 12       		.sleb128 18
 3625 030b 13       		.uleb128 0x13
 3626 030c 54040000 		.4byte	.LASF53
 3627 0310 13       		.sleb128 19
 3628 0311 13       		.uleb128 0x13
 3629 0312 750E0000 		.4byte	.LASF54
 3630 0316 14       		.sleb128 20
 3631 0317 13       		.uleb128 0x13
 3632 0318 95040000 		.4byte	.LASF55
 3633 031c 15       		.sleb128 21
 3634 031d 13       		.uleb128 0x13
 3635 031e 2C010000 		.4byte	.LASF56
 3636 0322 16       		.sleb128 22
 3637 0323 13       		.uleb128 0x13
 3638 0324 66040000 		.4byte	.LASF57
 3639 0328 17       		.sleb128 23
 3640 0329 00       		.byte	0
 3641 032a 12       		.uleb128 0x12
 3642 032b 18020000 		.4byte	.LASF58
 3643 032f 01       		.byte	0x1
 3644 0330 09       		.byte	0x9
 3645 0331 16       		.byte	0x16
 3646 0332 91030000 		.4byte	0x391
 3647 0336 13       		.uleb128 0x13
 3648 0337 AF0B0000 		.4byte	.LASF59
 3649 033b 00       		.sleb128 0
 3650 033c 13       		.uleb128 0x13
 3651 033d 46020000 		.4byte	.LASF60
 3652 0341 01       		.sleb128 1
 3653 0342 13       		.uleb128 0x13
 3654 0343 B0070000 		.4byte	.LASF61
 3655 0347 02       		.sleb128 2
 3656 0348 13       		.uleb128 0x13
 3657 0349 310C0000 		.4byte	.LASF62
 3658 034d 03       		.sleb128 3
 3659 034e 13       		.uleb128 0x13
 3660 034f E20F0000 		.4byte	.LASF63
 3661 0353 04       		.sleb128 4
 3662 0354 13       		.uleb128 0x13
 3663 0355 4A050000 		.4byte	.LASF64
 3664 0359 05       		.sleb128 5
 3665 035a 13       		.uleb128 0x13
 3666 035b 35050000 		.4byte	.LASF65
 3667 035f 06       		.sleb128 6
 3668 0360 13       		.uleb128 0x13
 3669 0361 E9050000 		.4byte	.LASF66
 3670 0365 07       		.sleb128 7
 3671 0366 13       		.uleb128 0x13
 3672 0367 B0020000 		.4byte	.LASF67
 3673 036b 08       		.sleb128 8
 3674 036c 13       		.uleb128 0x13
 3675 036d C70B0000 		.4byte	.LASF68
 3676 0371 09       		.sleb128 9
 3677 0372 13       		.uleb128 0x13
ARM GAS  C:\Users\MM1005~1\AppData\Local\Temp\cc36bet7.s 			page 94


 3678 0373 80090000 		.4byte	.LASF69
 3679 0377 0A       		.sleb128 10
 3680 0378 13       		.uleb128 0x13
 3681 0379 780A0000 		.4byte	.LASF70
 3682 037d 0B       		.sleb128 11
 3683 037e 13       		.uleb128 0x13
 3684 037f AD0C0000 		.4byte	.LASF71
 3685 0383 0C       		.sleb128 12
 3686 0384 13       		.uleb128 0x13
 3687 0385 A0080000 		.4byte	.LASF72
 3688 0389 0D       		.sleb128 13
 3689 038a 13       		.uleb128 0x13
 3690 038b F7000000 		.4byte	.LASF73
 3691 038f 0E       		.sleb128 14
 3692 0390 00       		.byte	0
 3693 0391 04       		.uleb128 0x4
 3694 0392 580D0000 		.4byte	.LASF74
 3695 0396 09       		.byte	0x9
 3696 0397 27       		.byte	0x27
 3697 0398 2A030000 		.4byte	0x32a
 3698 039c 04       		.uleb128 0x4
 3699 039d 83020000 		.4byte	.LASF75
 3700 03a1 09       		.byte	0x9
 3701 03a2 29       		.byte	0x29
 3702 03a3 AF000000 		.4byte	0xaf
 3703 03a7 14       		.uleb128 0x14
 3704 03a8 27020000 		.4byte	.LASF138
 3705 03ac 0C       		.byte	0xc
 3706 03ad 09       		.byte	0x9
 3707 03ae 2A       		.byte	0x2a
 3708 03af EF030000 		.4byte	0x3ef
 3709 03b3 15       		.uleb128 0x15
 3710 03b4 696400   		.ascii	"id\000"
 3711 03b7 09       		.byte	0x9
 3712 03b8 2C       		.byte	0x2c
 3713 03b9 91030000 		.4byte	0x391
 3714 03bd 00       		.byte	0
 3715 03be 0B       		.uleb128 0xb
 3716 03bf 8F030000 		.4byte	.LASF76
 3717 03c3 09       		.byte	0x9
 3718 03c4 2D       		.byte	0x2d
 3719 03c5 76000000 		.4byte	0x76
 3720 03c9 01       		.byte	0x1
 3721 03ca 0B       		.uleb128 0xb
 3722 03cb E7090000 		.4byte	.LASF77
 3723 03cf 09       		.byte	0x9
 3724 03d0 2E       		.byte	0x2e
 3725 03d1 76000000 		.4byte	0x76
 3726 03d5 02       		.byte	0x2
 3727 03d6 0B       		.uleb128 0xb
 3728 03d7 860E0000 		.4byte	.LASF78
 3729 03db 09       		.byte	0x9
 3730 03dc 2F       		.byte	0x2f
 3731 03dd 9C030000 		.4byte	0x39c
 3732 03e1 04       		.byte	0x4
 3733 03e2 0B       		.uleb128 0xb
 3734 03e3 6F080000 		.4byte	.LASF79
ARM GAS  C:\Users\MM1005~1\AppData\Local\Temp\cc36bet7.s 			page 95


 3735 03e7 09       		.byte	0x9
 3736 03e8 30       		.byte	0x30
 3737 03e9 C5000000 		.4byte	0xc5
 3738 03ed 08       		.byte	0x8
 3739 03ee 00       		.byte	0
 3740 03ef 04       		.uleb128 0x4
 3741 03f0 04010000 		.4byte	.LASF80
 3742 03f4 09       		.byte	0x9
 3743 03f5 31       		.byte	0x31
 3744 03f6 A7030000 		.4byte	0x3a7
 3745 03fa 12       		.uleb128 0x12
 3746 03fb 790B0000 		.4byte	.LASF81
 3747 03ff 01       		.byte	0x1
 3748 0400 0A       		.byte	0xa
 3749 0401 16       		.byte	0x16
 3750 0402 2B040000 		.4byte	0x42b
 3751 0406 13       		.uleb128 0x13
 3752 0407 EF090000 		.4byte	.LASF82
 3753 040b 00       		.sleb128 0
 3754 040c 13       		.uleb128 0x13
 3755 040d 44010000 		.4byte	.LASF83
 3756 0411 01       		.sleb128 1
 3757 0412 13       		.uleb128 0x13
 3758 0413 F2070000 		.4byte	.LASF84
 3759 0417 02       		.sleb128 2
 3760 0418 13       		.uleb128 0x13
 3761 0419 CB000000 		.4byte	.LASF85
 3762 041d 03       		.sleb128 3
 3763 041e 13       		.uleb128 0x13
 3764 041f D6040000 		.4byte	.LASF86
 3765 0423 04       		.sleb128 4
 3766 0424 13       		.uleb128 0x13
 3767 0425 4A0A0000 		.4byte	.LASF87
 3768 0429 05       		.sleb128 5
 3769 042a 00       		.byte	0
 3770 042b 04       		.uleb128 0x4
 3771 042c 8E010000 		.4byte	.LASF88
 3772 0430 0A       		.byte	0xa
 3773 0431 1E       		.byte	0x1e
 3774 0432 FA030000 		.4byte	0x3fa
 3775 0436 12       		.uleb128 0x12
 3776 0437 C9020000 		.4byte	.LASF89
 3777 043b 01       		.byte	0x1
 3778 043c 0A       		.byte	0xa
 3779 043d 20       		.byte	0x20
 3780 043e 7F040000 		.4byte	0x47f
 3781 0442 13       		.uleb128 0x13
 3782 0443 010B0000 		.4byte	.LASF90
 3783 0447 00       		.sleb128 0
 3784 0448 13       		.uleb128 0x13
 3785 0449 D9010000 		.4byte	.LASF91
 3786 044d 01       		.sleb128 1
 3787 044e 13       		.uleb128 0x13
 3788 044f 76020000 		.4byte	.LASF92
 3789 0453 02       		.sleb128 2
 3790 0454 13       		.uleb128 0x13
 3791 0455 C7050000 		.4byte	.LASF93
ARM GAS  C:\Users\MM1005~1\AppData\Local\Temp\cc36bet7.s 			page 96


 3792 0459 03       		.sleb128 3
 3793 045a 13       		.uleb128 0x13
 3794 045b 280C0000 		.4byte	.LASF94
 3795 045f 04       		.sleb128 4
 3796 0460 13       		.uleb128 0x13
 3797 0461 95080000 		.4byte	.LASF95
 3798 0465 05       		.sleb128 5
 3799 0466 13       		.uleb128 0x13
 3800 0467 98060000 		.4byte	.LASF96
 3801 046b 06       		.sleb128 6
 3802 046c 13       		.uleb128 0x13
 3803 046d 5C070000 		.4byte	.LASF97
 3804 0471 07       		.sleb128 7
 3805 0472 13       		.uleb128 0x13
 3806 0473 470C0000 		.4byte	.LASF98
 3807 0477 08       		.sleb128 8
 3808 0478 13       		.uleb128 0x13
 3809 0479 FE020000 		.4byte	.LASF99
 3810 047d 09       		.sleb128 9
 3811 047e 00       		.byte	0
 3812 047f 04       		.uleb128 0x4
 3813 0480 C5030000 		.4byte	.LASF100
 3814 0484 0A       		.byte	0xa
 3815 0485 2C       		.byte	0x2c
 3816 0486 36040000 		.4byte	0x436
 3817 048a 12       		.uleb128 0x12
 3818 048b D6020000 		.4byte	.LASF101
 3819 048f 01       		.byte	0x1
 3820 0490 0A       		.byte	0xa
 3821 0491 2E       		.byte	0x2e
 3822 0492 B5040000 		.4byte	0x4b5
 3823 0496 13       		.uleb128 0x13
 3824 0497 DB050000 		.4byte	.LASF102
 3825 049b 00       		.sleb128 0
 3826 049c 13       		.uleb128 0x13
 3827 049d 890B0000 		.4byte	.LASF103
 3828 04a1 01       		.sleb128 1
 3829 04a2 13       		.uleb128 0x13
 3830 04a3 08000000 		.4byte	.LASF104
 3831 04a7 02       		.sleb128 2
 3832 04a8 13       		.uleb128 0x13
 3833 04a9 C9010000 		.4byte	.LASF105
 3834 04ad 03       		.sleb128 3
 3835 04ae 13       		.uleb128 0x13
 3836 04af 000C0000 		.4byte	.LASF106
 3837 04b3 04       		.sleb128 4
 3838 04b4 00       		.byte	0
 3839 04b5 04       		.uleb128 0x4
 3840 04b6 E2040000 		.4byte	.LASF107
 3841 04ba 0A       		.byte	0xa
 3842 04bb 35       		.byte	0x35
 3843 04bc 8A040000 		.4byte	0x48a
 3844 04c0 12       		.uleb128 0x12
 3845 04c1 C40E0000 		.4byte	.LASF108
 3846 04c5 01       		.byte	0x1
 3847 04c6 0A       		.byte	0xa
 3848 04c7 37       		.byte	0x37
ARM GAS  C:\Users\MM1005~1\AppData\Local\Temp\cc36bet7.s 			page 97


 3849 04c8 DF040000 		.4byte	0x4df
 3850 04cc 13       		.uleb128 0x13
 3851 04cd 93020000 		.4byte	.LASF109
 3852 04d1 00       		.sleb128 0
 3853 04d2 13       		.uleb128 0x13
 3854 04d3 9F050000 		.4byte	.LASF110
 3855 04d7 01       		.sleb128 1
 3856 04d8 13       		.uleb128 0x13
 3857 04d9 07090000 		.4byte	.LASF111
 3858 04dd 02       		.sleb128 2
 3859 04de 00       		.byte	0
 3860 04df 04       		.uleb128 0x4
 3861 04e0 00080000 		.4byte	.LASF112
 3862 04e4 0A       		.byte	0xa
 3863 04e5 3C       		.byte	0x3c
 3864 04e6 C0040000 		.4byte	0x4c0
 3865 04ea 12       		.uleb128 0x12
 3866 04eb D30D0000 		.4byte	.LASF113
 3867 04ef 01       		.byte	0x1
 3868 04f0 0A       		.byte	0xa
 3869 04f1 3E       		.byte	0x3e
 3870 04f2 09050000 		.4byte	0x509
 3871 04f6 13       		.uleb128 0x13
 3872 04f7 17010000 		.4byte	.LASF114
 3873 04fb 00       		.sleb128 0
 3874 04fc 13       		.uleb128 0x13
 3875 04fd E8020000 		.4byte	.LASF115
 3876 0501 01       		.sleb128 1
 3877 0502 13       		.uleb128 0x13
 3878 0503 2F080000 		.4byte	.LASF116
 3879 0507 02       		.sleb128 2
 3880 0508 00       		.byte	0
 3881 0509 04       		.uleb128 0x4
 3882 050a 56030000 		.4byte	.LASF117
 3883 050e 0A       		.byte	0xa
 3884 050f 43       		.byte	0x43
 3885 0510 EA040000 		.4byte	0x4ea
 3886 0514 12       		.uleb128 0x12
 3887 0515 630A0000 		.4byte	.LASF118
 3888 0519 01       		.byte	0x1
 3889 051a 0A       		.byte	0xa
 3890 051b 45       		.byte	0x45
 3891 051c 39050000 		.4byte	0x539
 3892 0520 13       		.uleb128 0x13
 3893 0521 FD060000 		.4byte	.LASF119
 3894 0525 00       		.sleb128 0
 3895 0526 13       		.uleb128 0x13
 3896 0527 F9090000 		.4byte	.LASF120
 3897 052b 01       		.sleb128 1
 3898 052c 13       		.uleb128 0x13
 3899 052d 49060000 		.4byte	.LASF121
 3900 0531 02       		.sleb128 2
 3901 0532 13       		.uleb128 0x13
 3902 0533 B1030000 		.4byte	.LASF122
 3903 0537 03       		.sleb128 3
 3904 0538 00       		.byte	0
 3905 0539 04       		.uleb128 0x4
ARM GAS  C:\Users\MM1005~1\AppData\Local\Temp\cc36bet7.s 			page 98


 3906 053a 1C070000 		.4byte	.LASF123
 3907 053e 0A       		.byte	0xa
 3908 053f 4B       		.byte	0x4b
 3909 0540 14050000 		.4byte	0x514
 3910 0544 12       		.uleb128 0x12
 3911 0545 0E040000 		.4byte	.LASF124
 3912 0549 01       		.byte	0x1
 3913 054a 0A       		.byte	0xa
 3914 054b 4D       		.byte	0x4d
 3915 054c 75050000 		.4byte	0x575
 3916 0550 13       		.uleb128 0x13
 3917 0551 D80E0000 		.4byte	.LASF125
 3918 0555 00       		.sleb128 0
 3919 0556 13       		.uleb128 0x13
 3920 0557 110C0000 		.4byte	.LASF126
 3921 055b 01       		.sleb128 1
 3922 055c 13       		.uleb128 0x13
 3923 055d 1D050000 		.4byte	.LASF127
 3924 0561 02       		.sleb128 2
 3925 0562 13       		.uleb128 0x13
 3926 0563 1A090000 		.4byte	.LASF128
 3927 0567 03       		.sleb128 3
 3928 0568 13       		.uleb128 0x13
 3929 0569 E20B0000 		.4byte	.LASF129
 3930 056d 04       		.sleb128 4
 3931 056e 13       		.uleb128 0x13
 3932 056f 39060000 		.4byte	.LASF130
 3933 0573 05       		.sleb128 5
 3934 0574 00       		.byte	0
 3935 0575 04       		.uleb128 0x4
 3936 0576 36030000 		.4byte	.LASF131
 3937 057a 0A       		.byte	0xa
 3938 057b 55       		.byte	0x55
 3939 057c 44050000 		.4byte	0x544
 3940 0580 12       		.uleb128 0x12
 3941 0581 180B0000 		.4byte	.LASF132
 3942 0585 01       		.byte	0x1
 3943 0586 0A       		.byte	0xa
 3944 0587 57       		.byte	0x57
 3945 0588 A5050000 		.4byte	0x5a5
 3946 058c 13       		.uleb128 0x13
 3947 058d C10C0000 		.4byte	.LASF133
 3948 0591 00       		.sleb128 0
 3949 0592 13       		.uleb128 0x13
 3950 0593 91050000 		.4byte	.LASF134
 3951 0597 01       		.sleb128 1
 3952 0598 13       		.uleb128 0x13
 3953 0599 AF080000 		.4byte	.LASF135
 3954 059d 02       		.sleb128 2
 3955 059e 13       		.uleb128 0x13
 3956 059f CB060000 		.4byte	.LASF136
 3957 05a3 03       		.sleb128 3
 3958 05a4 00       		.byte	0
 3959 05a5 04       		.uleb128 0x4
 3960 05a6 7B080000 		.4byte	.LASF137
 3961 05aa 0A       		.byte	0xa
 3962 05ab 5D       		.byte	0x5d
ARM GAS  C:\Users\MM1005~1\AppData\Local\Temp\cc36bet7.s 			page 99


 3963 05ac 80050000 		.4byte	0x580
 3964 05b0 14       		.uleb128 0x14
 3965 05b1 DD0A0000 		.4byte	.LASF139
 3966 05b5 0C       		.byte	0xc
 3967 05b6 0A       		.byte	0xa
 3968 05b7 5F       		.byte	0x5f
 3969 05b8 E0050000 		.4byte	0x5e0
 3970 05bc 15       		.uleb128 0x15
 3971 05bd 696400   		.ascii	"id\000"
 3972 05c0 0A       		.byte	0xa
 3973 05c1 61       		.byte	0x61
 3974 05c2 82000000 		.4byte	0x82
 3975 05c6 00       		.byte	0
 3976 05c7 0B       		.uleb128 0xb
 3977 05c8 530C0000 		.4byte	.LASF140
 3978 05cc 0A       		.byte	0xa
 3979 05cd 62       		.byte	0x62
 3980 05ce C5000000 		.4byte	0xc5
 3981 05d2 04       		.byte	0x4
 3982 05d3 0B       		.uleb128 0xb
 3983 05d4 6F080000 		.4byte	.LASF79
 3984 05d8 0A       		.byte	0xa
 3985 05d9 63       		.byte	0x63
 3986 05da C5000000 		.4byte	0xc5
 3987 05de 08       		.byte	0x8
 3988 05df 00       		.byte	0
 3989 05e0 04       		.uleb128 0x4
 3990 05e1 DC060000 		.4byte	.LASF141
 3991 05e5 0A       		.byte	0xa
 3992 05e6 64       		.byte	0x64
 3993 05e7 B0050000 		.4byte	0x5b0
 3994 05eb 16       		.uleb128 0x16
 3995 05ec 0A030000 		.4byte	.LASF142
 3996 05f0 01       		.byte	0x1
 3997 05f1 42       		.byte	0x42
 3998 05f2 7F040000 		.4byte	0x47f
 3999 05f6 00000000 		.4byte	.LFB35
 4000 05fa 38000000 		.4byte	.LFE35-.LFB35
 4001 05fe 01       		.uleb128 0x1
 4002 05ff 9C       		.byte	0x9c
 4003 0600 45060000 		.4byte	0x645
 4004 0604 17       		.uleb128 0x17
 4005 0605 00000000 		.4byte	.LASF144
 4006 0609 01       		.byte	0x1
 4007 060a 42       		.byte	0x42
 4008 060b C5000000 		.4byte	0xc5
 4009 060f 00000000 		.4byte	.LLST0
 4010 0613 18       		.uleb128 0x18
 4011 0614 6900     		.ascii	"i\000"
 4012 0616 01       		.byte	0x1
 4013 0617 44       		.byte	0x44
 4014 0618 5D000000 		.4byte	0x5d
 4015 061c 2C000000 		.4byte	.LLST1
 4016 0620 19       		.uleb128 0x19
 4017 0621 1A000000 		.4byte	.LVL3
 4018 0625 60200000 		.4byte	0x2060
 4019 0629 1A       		.uleb128 0x1a
ARM GAS  C:\Users\MM1005~1\AppData\Local\Temp\cc36bet7.s 			page 100


 4020 062a 01       		.uleb128 0x1
 4021 062b 51       		.byte	0x51
 4022 062c 10       		.uleb128 0x10
 4023 062d 75       		.byte	0x75
 4024 062e 00       		.sleb128 0
 4025 062f 31       		.byte	0x31
 4026 0630 24       		.byte	0x24
 4027 0631 75       		.byte	0x75
 4028 0632 00       		.sleb128 0
 4029 0633 22       		.byte	0x22
 4030 0634 32       		.byte	0x32
 4031 0635 24       		.byte	0x24
 4032 0636 03       		.byte	0x3
 4033 0637 3C000000 		.4byte	.LANCHOR0+4
 4034 063b 22       		.byte	0x22
 4035 063c 06       		.byte	0x6
 4036 063d 1A       		.uleb128 0x1a
 4037 063e 01       		.uleb128 0x1
 4038 063f 50       		.byte	0x50
 4039 0640 02       		.uleb128 0x2
 4040 0641 74       		.byte	0x74
 4041 0642 00       		.sleb128 0
 4042 0643 00       		.byte	0
 4043 0644 00       		.byte	0
 4044 0645 16       		.uleb128 0x16
 4045 0646 F80D0000 		.4byte	.LASF143
 4046 064a 01       		.byte	0x1
 4047 064b 54       		.byte	0x54
 4048 064c DF040000 		.4byte	0x4df
 4049 0650 00000000 		.4byte	.LFB36
 4050 0654 3C000000 		.4byte	.LFE36-.LFB36
 4051 0658 01       		.uleb128 0x1
 4052 0659 9C       		.byte	0x9c
 4053 065a 9F060000 		.4byte	0x69f
 4054 065e 17       		.uleb128 0x17
 4055 065f 00000000 		.4byte	.LASF144
 4056 0663 01       		.byte	0x1
 4057 0664 54       		.byte	0x54
 4058 0665 C5000000 		.4byte	0xc5
 4059 0669 56000000 		.4byte	.LLST2
 4060 066d 18       		.uleb128 0x18
 4061 066e 6900     		.ascii	"i\000"
 4062 0670 01       		.byte	0x1
 4063 0671 56       		.byte	0x56
 4064 0672 5D000000 		.4byte	0x5d
 4065 0676 82000000 		.4byte	.LLST3
 4066 067a 19       		.uleb128 0x19
 4067 067b 1A000000 		.4byte	.LVL12
 4068 067f 60200000 		.4byte	0x2060
 4069 0683 1A       		.uleb128 0x1a
 4070 0684 01       		.uleb128 0x1
 4071 0685 51       		.byte	0x51
 4072 0686 10       		.uleb128 0x10
 4073 0687 75       		.byte	0x75
 4074 0688 00       		.sleb128 0
 4075 0689 31       		.byte	0x31
 4076 068a 24       		.byte	0x24
ARM GAS  C:\Users\MM1005~1\AppData\Local\Temp\cc36bet7.s 			page 101


 4077 068b 75       		.byte	0x75
 4078 068c 00       		.sleb128 0
 4079 068d 22       		.byte	0x22
 4080 068e 32       		.byte	0x32
 4081 068f 24       		.byte	0x24
 4082 0690 03       		.byte	0x3
 4083 0691 A8000000 		.4byte	.LANCHOR0+112
 4084 0695 22       		.byte	0x22
 4085 0696 06       		.byte	0x6
 4086 0697 1A       		.uleb128 0x1a
 4087 0698 01       		.uleb128 0x1
 4088 0699 50       		.byte	0x50
 4089 069a 02       		.uleb128 0x2
 4090 069b 74       		.byte	0x74
 4091 069c 00       		.sleb128 0
 4092 069d 00       		.byte	0
 4093 069e 00       		.byte	0
 4094 069f 16       		.uleb128 0x16
 4095 06a0 BD0F0000 		.4byte	.LASF145
 4096 06a4 01       		.byte	0x1
 4097 06a5 66       		.byte	0x66
 4098 06a6 09050000 		.4byte	0x509
 4099 06aa 00000000 		.4byte	.LFB37
 4100 06ae 3C000000 		.4byte	.LFE37-.LFB37
 4101 06b2 01       		.uleb128 0x1
 4102 06b3 9C       		.byte	0x9c
 4103 06b4 F9060000 		.4byte	0x6f9
 4104 06b8 17       		.uleb128 0x17
 4105 06b9 00000000 		.4byte	.LASF144
 4106 06bd 01       		.byte	0x1
 4107 06be 66       		.byte	0x66
 4108 06bf C5000000 		.4byte	0xc5
 4109 06c3 AC000000 		.4byte	.LLST4
 4110 06c7 18       		.uleb128 0x18
 4111 06c8 6900     		.ascii	"i\000"
 4112 06ca 01       		.byte	0x1
 4113 06cb 68       		.byte	0x68
 4114 06cc 5D000000 		.4byte	0x5d
 4115 06d0 D8000000 		.4byte	.LLST5
 4116 06d4 19       		.uleb128 0x19
 4117 06d5 1A000000 		.4byte	.LVL21
 4118 06d9 60200000 		.4byte	0x2060
 4119 06dd 1A       		.uleb128 0x1a
 4120 06de 01       		.uleb128 0x1
 4121 06df 51       		.byte	0x51
 4122 06e0 10       		.uleb128 0x10
 4123 06e1 75       		.byte	0x75
 4124 06e2 00       		.sleb128 0
 4125 06e3 31       		.byte	0x31
 4126 06e4 24       		.byte	0x24
 4127 06e5 75       		.byte	0x75
 4128 06e6 00       		.sleb128 0
 4129 06e7 22       		.byte	0x22
 4130 06e8 32       		.byte	0x32
 4131 06e9 24       		.byte	0x24
 4132 06ea 03       		.byte	0x3
 4133 06eb C0000000 		.4byte	.LANCHOR1+8
ARM GAS  C:\Users\MM1005~1\AppData\Local\Temp\cc36bet7.s 			page 102


 4134 06ef 22       		.byte	0x22
 4135 06f0 06       		.byte	0x6
 4136 06f1 1A       		.uleb128 0x1a
 4137 06f2 01       		.uleb128 0x1
 4138 06f3 50       		.byte	0x50
 4139 06f4 02       		.uleb128 0x2
 4140 06f5 74       		.byte	0x74
 4141 06f6 00       		.sleb128 0
 4142 06f7 00       		.byte	0
 4143 06f8 00       		.byte	0
 4144 06f9 16       		.uleb128 0x16
 4145 06fa A8000000 		.4byte	.LASF146
 4146 06fe 01       		.byte	0x1
 4147 06ff 78       		.byte	0x78
 4148 0700 39050000 		.4byte	0x539
 4149 0704 00000000 		.4byte	.LFB38
 4150 0708 3C000000 		.4byte	.LFE38-.LFB38
 4151 070c 01       		.uleb128 0x1
 4152 070d 9C       		.byte	0x9c
 4153 070e 53070000 		.4byte	0x753
 4154 0712 17       		.uleb128 0x17
 4155 0713 00000000 		.4byte	.LASF144
 4156 0717 01       		.byte	0x1
 4157 0718 78       		.byte	0x78
 4158 0719 C5000000 		.4byte	0xc5
 4159 071d 02010000 		.4byte	.LLST6
 4160 0721 18       		.uleb128 0x18
 4161 0722 6900     		.ascii	"i\000"
 4162 0724 01       		.byte	0x1
 4163 0725 7A       		.byte	0x7a
 4164 0726 5D000000 		.4byte	0x5d
 4165 072a 2E010000 		.4byte	.LLST7
 4166 072e 19       		.uleb128 0x19
 4167 072f 1A000000 		.4byte	.LVL30
 4168 0733 60200000 		.4byte	0x2060
 4169 0737 1A       		.uleb128 0x1a
 4170 0738 01       		.uleb128 0x1
 4171 0739 51       		.byte	0x51
 4172 073a 10       		.uleb128 0x10
 4173 073b 75       		.byte	0x75
 4174 073c 00       		.sleb128 0
 4175 073d 31       		.byte	0x31
 4176 073e 24       		.byte	0x24
 4177 073f 75       		.byte	0x75
 4178 0740 00       		.sleb128 0
 4179 0741 22       		.byte	0x22
 4180 0742 32       		.byte	0x32
 4181 0743 24       		.byte	0x24
 4182 0744 03       		.byte	0x3
 4183 0745 D8000000 		.4byte	.LANCHOR1+32
 4184 0749 22       		.byte	0x22
 4185 074a 06       		.byte	0x6
 4186 074b 1A       		.uleb128 0x1a
 4187 074c 01       		.uleb128 0x1
 4188 074d 50       		.byte	0x50
 4189 074e 02       		.uleb128 0x2
 4190 074f 74       		.byte	0x74
ARM GAS  C:\Users\MM1005~1\AppData\Local\Temp\cc36bet7.s 			page 103


 4191 0750 00       		.sleb128 0
 4192 0751 00       		.byte	0
 4193 0752 00       		.byte	0
 4194 0753 16       		.uleb128 0x16
 4195 0754 A4040000 		.4byte	.LASF147
 4196 0758 01       		.byte	0x1
 4197 0759 8A       		.byte	0x8a
 4198 075a B5040000 		.4byte	0x4b5
 4199 075e 00000000 		.4byte	.LFB39
 4200 0762 3C000000 		.4byte	.LFE39-.LFB39
 4201 0766 01       		.uleb128 0x1
 4202 0767 9C       		.byte	0x9c
 4203 0768 AD070000 		.4byte	0x7ad
 4204 076c 17       		.uleb128 0x17
 4205 076d 00000000 		.4byte	.LASF144
 4206 0771 01       		.byte	0x1
 4207 0772 8A       		.byte	0x8a
 4208 0773 C5000000 		.4byte	0xc5
 4209 0777 58010000 		.4byte	.LLST8
 4210 077b 18       		.uleb128 0x18
 4211 077c 6900     		.ascii	"i\000"
 4212 077e 01       		.byte	0x1
 4213 077f 8C       		.byte	0x8c
 4214 0780 5D000000 		.4byte	0x5d
 4215 0784 84010000 		.4byte	.LLST9
 4216 0788 19       		.uleb128 0x19
 4217 0789 1A000000 		.4byte	.LVL39
 4218 078d 60200000 		.4byte	0x2060
 4219 0791 1A       		.uleb128 0x1a
 4220 0792 01       		.uleb128 0x1
 4221 0793 51       		.byte	0x51
 4222 0794 10       		.uleb128 0x10
 4223 0795 75       		.byte	0x75
 4224 0796 00       		.sleb128 0
 4225 0797 31       		.byte	0x31
 4226 0798 24       		.byte	0x24
 4227 0799 75       		.byte	0x75
 4228 079a 00       		.sleb128 0
 4229 079b 22       		.byte	0x22
 4230 079c 32       		.byte	0x32
 4231 079d 24       		.byte	0x24
 4232 079e 03       		.byte	0x3
 4233 079f FC000000 		.4byte	.LANCHOR1+68
 4234 07a3 22       		.byte	0x22
 4235 07a4 06       		.byte	0x6
 4236 07a5 1A       		.uleb128 0x1a
 4237 07a6 01       		.uleb128 0x1
 4238 07a7 50       		.byte	0x50
 4239 07a8 02       		.uleb128 0x2
 4240 07a9 74       		.byte	0x74
 4241 07aa 00       		.sleb128 0
 4242 07ab 00       		.byte	0
 4243 07ac 00       		.byte	0
 4244 07ad 16       		.uleb128 0x16
 4245 07ae E60E0000 		.4byte	.LASF148
 4246 07b2 01       		.byte	0x1
 4247 07b3 9C       		.byte	0x9c
ARM GAS  C:\Users\MM1005~1\AppData\Local\Temp\cc36bet7.s 			page 104


 4248 07b4 91030000 		.4byte	0x391
 4249 07b8 00000000 		.4byte	.LFB40
 4250 07bc 30000000 		.4byte	.LFE40-.LFB40
 4251 07c0 01       		.uleb128 0x1
 4252 07c1 9C       		.byte	0x9c
 4253 07c2 1B080000 		.4byte	0x81b
 4254 07c6 17       		.uleb128 0x17
 4255 07c7 00000000 		.4byte	.LASF144
 4256 07cb 01       		.byte	0x1
 4257 07cc 9C       		.byte	0x9c
 4258 07cd C5000000 		.4byte	0xc5
 4259 07d1 AE010000 		.4byte	.LLST10
 4260 07d5 18       		.uleb128 0x18
 4261 07d6 6900     		.ascii	"i\000"
 4262 07d8 01       		.byte	0x1
 4263 07d9 9E       		.byte	0x9e
 4264 07da 5D000000 		.4byte	0x5d
 4265 07de DA010000 		.4byte	.LLST11
 4266 07e2 1B       		.uleb128 0x1b
 4267 07e3 FD080000 		.4byte	.LASF149
 4268 07e7 01       		.byte	0x1
 4269 07e8 9F       		.byte	0x9f
 4270 07e9 EF030000 		.4byte	0x3ef
 4271 07ed 02       		.uleb128 0x2
 4272 07ee 91       		.byte	0x91
 4273 07ef 64       		.sleb128 -28
 4274 07f0 1C       		.uleb128 0x1c
 4275 07f1 12000000 		.4byte	.LVL48
 4276 07f5 7A200000 		.4byte	0x207a
 4277 07f9 0A080000 		.4byte	0x80a
 4278 07fd 1A       		.uleb128 0x1a
 4279 07fe 01       		.uleb128 0x1
 4280 07ff 51       		.byte	0x51
 4281 0800 02       		.uleb128 0x2
 4282 0801 91       		.byte	0x91
 4283 0802 64       		.sleb128 -28
 4284 0803 1A       		.uleb128 0x1a
 4285 0804 01       		.uleb128 0x1
 4286 0805 50       		.byte	0x50
 4287 0806 02       		.uleb128 0x2
 4288 0807 74       		.byte	0x74
 4289 0808 00       		.sleb128 0
 4290 0809 00       		.byte	0
 4291 080a 19       		.uleb128 0x19
 4292 080b 1A000000 		.4byte	.LVL49
 4293 080f 60200000 		.4byte	0x2060
 4294 0813 1A       		.uleb128 0x1a
 4295 0814 01       		.uleb128 0x1
 4296 0815 50       		.byte	0x50
 4297 0816 02       		.uleb128 0x2
 4298 0817 75       		.byte	0x75
 4299 0818 00       		.sleb128 0
 4300 0819 00       		.byte	0
 4301 081a 00       		.byte	0
 4302 081b 16       		.uleb128 0x16
 4303 081c 6F030000 		.4byte	.LASF150
 4304 0820 01       		.byte	0x1
ARM GAS  C:\Users\MM1005~1\AppData\Local\Temp\cc36bet7.s 			page 105


 4305 0821 B0       		.byte	0xb0
 4306 0822 A5050000 		.4byte	0x5a5
 4307 0826 00000000 		.4byte	.LFB41
 4308 082a 3C000000 		.4byte	.LFE41-.LFB41
 4309 082e 01       		.uleb128 0x1
 4310 082f 9C       		.byte	0x9c
 4311 0830 75080000 		.4byte	0x875
 4312 0834 17       		.uleb128 0x17
 4313 0835 00000000 		.4byte	.LASF144
 4314 0839 01       		.byte	0x1
 4315 083a B0       		.byte	0xb0
 4316 083b C5000000 		.4byte	0xc5
 4317 083f F9010000 		.4byte	.LLST12
 4318 0843 18       		.uleb128 0x18
 4319 0844 6900     		.ascii	"i\000"
 4320 0846 01       		.byte	0x1
 4321 0847 B2       		.byte	0xb2
 4322 0848 5D000000 		.4byte	0x5d
 4323 084c 25020000 		.4byte	.LLST13
 4324 0850 19       		.uleb128 0x19
 4325 0851 1A000000 		.4byte	.LVL56
 4326 0855 60200000 		.4byte	0x2060
 4327 0859 1A       		.uleb128 0x1a
 4328 085a 01       		.uleb128 0x1
 4329 085b 51       		.byte	0x51
 4330 085c 10       		.uleb128 0x10
 4331 085d 75       		.byte	0x75
 4332 085e 00       		.sleb128 0
 4333 085f 31       		.byte	0x31
 4334 0860 24       		.byte	0x24
 4335 0861 75       		.byte	0x75
 4336 0862 00       		.sleb128 0
 4337 0863 22       		.byte	0x22
 4338 0864 32       		.byte	0x32
 4339 0865 24       		.byte	0x24
 4340 0866 03       		.byte	0x3
 4341 0867 2C010000 		.4byte	.LANCHOR1+116
 4342 086b 22       		.byte	0x22
 4343 086c 06       		.byte	0x6
 4344 086d 1A       		.uleb128 0x1a
 4345 086e 01       		.uleb128 0x1
 4346 086f 50       		.byte	0x50
 4347 0870 02       		.uleb128 0x2
 4348 0871 74       		.byte	0x74
 4349 0872 00       		.sleb128 0
 4350 0873 00       		.byte	0
 4351 0874 00       		.byte	0
 4352 0875 16       		.uleb128 0x16
 4353 0876 880D0000 		.4byte	.LASF151
 4354 087a 01       		.byte	0x1
 4355 087b C2       		.byte	0xc2
 4356 087c 75050000 		.4byte	0x575
 4357 0880 00000000 		.4byte	.LFB42
 4358 0884 3C000000 		.4byte	.LFE42-.LFB42
 4359 0888 01       		.uleb128 0x1
 4360 0889 9C       		.byte	0x9c
 4361 088a CF080000 		.4byte	0x8cf
ARM GAS  C:\Users\MM1005~1\AppData\Local\Temp\cc36bet7.s 			page 106


 4362 088e 17       		.uleb128 0x17
 4363 088f 00000000 		.4byte	.LASF144
 4364 0893 01       		.byte	0x1
 4365 0894 C2       		.byte	0xc2
 4366 0895 C5000000 		.4byte	0xc5
 4367 0899 4F020000 		.4byte	.LLST14
 4368 089d 18       		.uleb128 0x18
 4369 089e 6900     		.ascii	"i\000"
 4370 08a0 01       		.byte	0x1
 4371 08a1 C4       		.byte	0xc4
 4372 08a2 5D000000 		.4byte	0x5d
 4373 08a6 7B020000 		.4byte	.LLST15
 4374 08aa 19       		.uleb128 0x19
 4375 08ab 1A000000 		.4byte	.LVL65
 4376 08af 60200000 		.4byte	0x2060
 4377 08b3 1A       		.uleb128 0x1a
 4378 08b4 01       		.uleb128 0x1
 4379 08b5 51       		.byte	0x51
 4380 08b6 10       		.uleb128 0x10
 4381 08b7 75       		.byte	0x75
 4382 08b8 00       		.sleb128 0
 4383 08b9 31       		.byte	0x31
 4384 08ba 24       		.byte	0x24
 4385 08bb 75       		.byte	0x75
 4386 08bc 00       		.sleb128 0
 4387 08bd 22       		.byte	0x22
 4388 08be 32       		.byte	0x32
 4389 08bf 24       		.byte	0x24
 4390 08c0 03       		.byte	0x3
 4391 08c1 50010000 		.4byte	.LANCHOR2+24
 4392 08c5 22       		.byte	0x22
 4393 08c6 06       		.byte	0x6
 4394 08c7 1A       		.uleb128 0x1a
 4395 08c8 01       		.uleb128 0x1
 4396 08c9 50       		.byte	0x50
 4397 08ca 02       		.uleb128 0x2
 4398 08cb 74       		.byte	0x74
 4399 08cc 00       		.sleb128 0
 4400 08cd 00       		.byte	0
 4401 08ce 00       		.byte	0
 4402 08cf 1D       		.uleb128 0x1d
 4403 08d0 FA0F0000 		.4byte	.LASF152
 4404 08d4 01       		.byte	0x1
 4405 08d5 3103     		.2byte	0x331
 4406 08d7 00000000 		.4byte	.LFB44
 4407 08db 02000000 		.4byte	.LFE44-.LFB44
 4408 08df 01       		.uleb128 0x1
 4409 08e0 9C       		.byte	0x9c
 4410 08e1 1D       		.uleb128 0x1d
 4411 08e2 16060000 		.4byte	.LASF153
 4412 08e6 01       		.byte	0x1
 4413 08e7 6003     		.2byte	0x360
 4414 08e9 00000000 		.4byte	.LFB47
 4415 08ed 02000000 		.4byte	.LFE47-.LFB47
 4416 08f1 01       		.uleb128 0x1
 4417 08f2 9C       		.byte	0x9c
 4418 08f3 1E       		.uleb128 0x1e
ARM GAS  C:\Users\MM1005~1\AppData\Local\Temp\cc36bet7.s 			page 107


 4419 08f4 BE0A0000 		.4byte	.LASF154
 4420 08f8 01       		.byte	0x1
 4421 08f9 EC03     		.2byte	0x3ec
 4422 08fb 76000000 		.4byte	0x76
 4423 08ff 00000000 		.4byte	.LFB52
 4424 0903 0C000000 		.4byte	.LFE52-.LFB52
 4425 0907 01       		.uleb128 0x1
 4426 0908 9C       		.byte	0x9c
 4427 0909 1F       		.uleb128 0x1f
 4428 090a F6040000 		.4byte	.LASF156
 4429 090e 01       		.byte	0x1
 4430 090f DF03     		.2byte	0x3df
 4431 0911 00000000 		.4byte	.LFB51
 4432 0915 1C000000 		.4byte	.LFE51-.LFB51
 4433 0919 01       		.uleb128 0x1
 4434 091a 9C       		.byte	0x9c
 4435 091b 5F090000 		.4byte	0x95f
 4436 091f 20       		.uleb128 0x20
 4437 0920 52070000 		.4byte	.LASF155
 4438 0924 01       		.byte	0x1
 4439 0925 DF03     		.2byte	0x3df
 4440 0927 C5000000 		.4byte	0xc5
 4441 092b A5020000 		.4byte	.LLST16
 4442 092f 21       		.uleb128 0x21
 4443 0930 08000000 		.4byte	.LVL72
 4444 0934 F3080000 		.4byte	0x8f3
 4445 0938 21       		.uleb128 0x21
 4446 0939 10000000 		.4byte	.LVL73
 4447 093d 96200000 		.4byte	0x2096
 4448 0941 1C       		.uleb128 0x1c
 4449 0942 16000000 		.4byte	.LVL74
 4450 0946 9D200000 		.4byte	0x209d
 4451 094a 55090000 		.4byte	0x955
 4452 094e 1A       		.uleb128 0x1a
 4453 094f 01       		.uleb128 0x1
 4454 0950 50       		.byte	0x50
 4455 0951 02       		.uleb128 0x2
 4456 0952 74       		.byte	0x74
 4457 0953 00       		.sleb128 0
 4458 0954 00       		.byte	0
 4459 0955 21       		.uleb128 0x21
 4460 0956 1A000000 		.4byte	.LVL75
 4461 095a AE200000 		.4byte	0x20ae
 4462 095e 00       		.byte	0
 4463 095f 1F       		.uleb128 0x1f
 4464 0960 E8080000 		.4byte	.LASF157
 4465 0964 01       		.byte	0x1
 4466 0965 3903     		.2byte	0x339
 4467 0967 00000000 		.4byte	.LFB45
 4468 096b B8000000 		.4byte	.LFE45-.LFB45
 4469 096f 01       		.uleb128 0x1
 4470 0970 9C       		.byte	0x9c
 4471 0971 CA0A0000 		.4byte	0xaca
 4472 0975 20       		.uleb128 0x20
 4473 0976 F2030000 		.4byte	.LASF158
 4474 097a 01       		.byte	0x1
 4475 097b 3903     		.2byte	0x339
ARM GAS  C:\Users\MM1005~1\AppData\Local\Temp\cc36bet7.s 			page 108


 4476 097d 2B040000 		.4byte	0x42b
 4477 0981 D1020000 		.4byte	.LLST17
 4478 0985 20       		.uleb128 0x20
 4479 0986 400C0000 		.4byte	.LASF159
 4480 098a 01       		.byte	0x1
 4481 098b 3903     		.2byte	0x339
 4482 098d C5000000 		.4byte	0xc5
 4483 0991 F2020000 		.4byte	.LLST18
 4484 0995 20       		.uleb128 0x20
 4485 0996 6F080000 		.4byte	.LASF79
 4486 099a 01       		.byte	0x1
 4487 099b 3903     		.2byte	0x339
 4488 099d C5000000 		.4byte	0xc5
 4489 09a1 1E030000 		.4byte	.LLST19
 4490 09a5 22       		.uleb128 0x22
 4491 09a6 8E0A0000 		.4byte	.LASF160
 4492 09aa 01       		.byte	0x1
 4493 09ab 3B03     		.2byte	0x33b
 4494 09ad CA0A0000 		.4byte	0xaca
 4495 09b1 02       		.uleb128 0x2
 4496 09b2 91       		.byte	0x91
 4497 09b3 54       		.sleb128 -44
 4498 09b4 1C       		.uleb128 0x1c
 4499 09b5 2E000000 		.4byte	.LVL80
 4500 09b9 B5200000 		.4byte	0x20b5
 4501 09bd D4090000 		.4byte	0x9d4
 4502 09c1 1A       		.uleb128 0x1a
 4503 09c2 01       		.uleb128 0x1
 4504 09c3 52       		.byte	0x52
 4505 09c4 03       		.uleb128 0x3
 4506 09c5 0A       		.byte	0xa
 4507 09c6 0002     		.2byte	0x200
 4508 09c8 1A       		.uleb128 0x1a
 4509 09c9 01       		.uleb128 0x1
 4510 09ca 51       		.byte	0x51
 4511 09cb 01       		.uleb128 0x1
 4512 09cc 30       		.byte	0x30
 4513 09cd 1A       		.uleb128 0x1a
 4514 09ce 01       		.uleb128 0x1
 4515 09cf 50       		.byte	0x50
 4516 09d0 02       		.uleb128 0x2
 4517 09d1 74       		.byte	0x74
 4518 09d2 00       		.sleb128 0
 4519 09d3 00       		.byte	0
 4520 09d4 1C       		.uleb128 0x1c
 4521 09d5 50000000 		.4byte	.LVL81
 4522 09d9 D2200000 		.4byte	0x20d2
 4523 09dd F4090000 		.4byte	0x9f4
 4524 09e1 1A       		.uleb128 0x1a
 4525 09e2 01       		.uleb128 0x1
 4526 09e3 51       		.byte	0x51
 4527 09e4 08       		.uleb128 0x8
 4528 09e5 78       		.byte	0x78
 4529 09e6 00       		.sleb128 0
 4530 09e7 32       		.byte	0x32
 4531 09e8 24       		.byte	0x24
 4532 09e9 77       		.byte	0x77
ARM GAS  C:\Users\MM1005~1\AppData\Local\Temp\cc36bet7.s 			page 109


 4533 09ea 00       		.sleb128 0
 4534 09eb 22       		.byte	0x22
 4535 09ec 06       		.byte	0x6
 4536 09ed 1A       		.uleb128 0x1a
 4537 09ee 01       		.uleb128 0x1
 4538 09ef 50       		.byte	0x50
 4539 09f0 02       		.uleb128 0x2
 4540 09f1 74       		.byte	0x74
 4541 09f2 00       		.sleb128 0
 4542 09f3 00       		.byte	0
 4543 09f4 1C       		.uleb128 0x1c
 4544 09f5 56000000 		.4byte	.LVL82
 4545 09f9 EC200000 		.4byte	0x20ec
 4546 09fd 080A0000 		.4byte	0xa08
 4547 0a01 1A       		.uleb128 0x1a
 4548 0a02 01       		.uleb128 0x1
 4549 0a03 50       		.byte	0x50
 4550 0a04 02       		.uleb128 0x2
 4551 0a05 74       		.byte	0x74
 4552 0a06 00       		.sleb128 0
 4553 0a07 00       		.byte	0
 4554 0a08 1C       		.uleb128 0x1c
 4555 0a09 60000000 		.4byte	.LVL83
 4556 0a0d 05210000 		.4byte	0x2105
 4557 0a11 240A0000 		.4byte	0xa24
 4558 0a15 1A       		.uleb128 0x1a
 4559 0a16 01       		.uleb128 0x1
 4560 0a17 52       		.byte	0x52
 4561 0a18 01       		.uleb128 0x1
 4562 0a19 3E       		.byte	0x3e
 4563 0a1a 1A       		.uleb128 0x1a
 4564 0a1b 01       		.uleb128 0x1
 4565 0a1c 51       		.byte	0x51
 4566 0a1d 05       		.uleb128 0x5
 4567 0a1e 03       		.byte	0x3
 4568 0a1f 1C000000 		.4byte	.LC19
 4569 0a23 00       		.byte	0
 4570 0a24 1C       		.uleb128 0x1c
 4571 0a25 68000000 		.4byte	.LVL84
 4572 0a29 D2200000 		.4byte	0x20d2
 4573 0a2d 3E0A0000 		.4byte	0xa3e
 4574 0a31 1A       		.uleb128 0x1a
 4575 0a32 01       		.uleb128 0x1
 4576 0a33 51       		.byte	0x51
 4577 0a34 02       		.uleb128 0x2
 4578 0a35 76       		.byte	0x76
 4579 0a36 00       		.sleb128 0
 4580 0a37 1A       		.uleb128 0x1a
 4581 0a38 01       		.uleb128 0x1
 4582 0a39 50       		.byte	0x50
 4583 0a3a 02       		.uleb128 0x2
 4584 0a3b 74       		.byte	0x74
 4585 0a3c 00       		.sleb128 0
 4586 0a3d 00       		.byte	0
 4587 0a3e 1C       		.uleb128 0x1c
 4588 0a3f 6E000000 		.4byte	.LVL85
 4589 0a43 EC200000 		.4byte	0x20ec
ARM GAS  C:\Users\MM1005~1\AppData\Local\Temp\cc36bet7.s 			page 110


 4590 0a47 520A0000 		.4byte	0xa52
 4591 0a4b 1A       		.uleb128 0x1a
 4592 0a4c 01       		.uleb128 0x1
 4593 0a4d 50       		.byte	0x50
 4594 0a4e 02       		.uleb128 0x2
 4595 0a4f 74       		.byte	0x74
 4596 0a50 00       		.sleb128 0
 4597 0a51 00       		.byte	0
 4598 0a52 1C       		.uleb128 0x1c
 4599 0a53 78000000 		.4byte	.LVL86
 4600 0a57 05210000 		.4byte	0x2105
 4601 0a5b 6E0A0000 		.4byte	0xa6e
 4602 0a5f 1A       		.uleb128 0x1a
 4603 0a60 01       		.uleb128 0x1
 4604 0a61 52       		.byte	0x52
 4605 0a62 01       		.uleb128 0x1
 4606 0a63 43       		.byte	0x43
 4607 0a64 1A       		.uleb128 0x1a
 4608 0a65 01       		.uleb128 0x1
 4609 0a66 51       		.byte	0x51
 4610 0a67 05       		.uleb128 0x5
 4611 0a68 03       		.byte	0x3
 4612 0a69 2C000000 		.4byte	.LC21
 4613 0a6d 00       		.byte	0
 4614 0a6e 1C       		.uleb128 0x1c
 4615 0a6f 80000000 		.4byte	.LVL87
 4616 0a73 D2200000 		.4byte	0x20d2
 4617 0a77 890A0000 		.4byte	0xa89
 4618 0a7b 1A       		.uleb128 0x1a
 4619 0a7c 01       		.uleb128 0x1
 4620 0a7d 51       		.byte	0x51
 4621 0a7e 03       		.uleb128 0x3
 4622 0a7f 91       		.byte	0x91
 4623 0a80 4C       		.sleb128 -52
 4624 0a81 06       		.byte	0x6
 4625 0a82 1A       		.uleb128 0x1a
 4626 0a83 01       		.uleb128 0x1
 4627 0a84 50       		.byte	0x50
 4628 0a85 02       		.uleb128 0x2
 4629 0a86 74       		.byte	0x74
 4630 0a87 00       		.sleb128 0
 4631 0a88 00       		.byte	0
 4632 0a89 1C       		.uleb128 0x1c
 4633 0a8a 86000000 		.4byte	.LVL88
 4634 0a8e EC200000 		.4byte	0x20ec
 4635 0a92 9D0A0000 		.4byte	0xa9d
 4636 0a96 1A       		.uleb128 0x1a
 4637 0a97 01       		.uleb128 0x1
 4638 0a98 50       		.byte	0x50
 4639 0a99 02       		.uleb128 0x2
 4640 0a9a 74       		.byte	0x74
 4641 0a9b 00       		.sleb128 0
 4642 0a9c 00       		.byte	0
 4643 0a9d 1C       		.uleb128 0x1c
 4644 0a9e 90000000 		.4byte	.LVL89
 4645 0aa2 05210000 		.4byte	0x2105
 4646 0aa6 B90A0000 		.4byte	0xab9
ARM GAS  C:\Users\MM1005~1\AppData\Local\Temp\cc36bet7.s 			page 111


 4647 0aaa 1A       		.uleb128 0x1a
 4648 0aab 01       		.uleb128 0x1
 4649 0aac 52       		.byte	0x52
 4650 0aad 01       		.uleb128 0x1
 4651 0aae 33       		.byte	0x33
 4652 0aaf 1A       		.uleb128 0x1a
 4653 0ab0 01       		.uleb128 0x1
 4654 0ab1 51       		.byte	0x51
 4655 0ab2 05       		.uleb128 0x5
 4656 0ab3 03       		.byte	0x3
 4657 0ab4 40000000 		.4byte	.LC23
 4658 0ab8 00       		.byte	0
 4659 0ab9 19       		.uleb128 0x19
 4660 0aba 96000000 		.4byte	.LVL90
 4661 0abe 09090000 		.4byte	0x909
 4662 0ac2 1A       		.uleb128 0x1a
 4663 0ac3 01       		.uleb128 0x1
 4664 0ac4 50       		.byte	0x50
 4665 0ac5 02       		.uleb128 0x2
 4666 0ac6 74       		.byte	0x74
 4667 0ac7 00       		.sleb128 0
 4668 0ac8 00       		.byte	0
 4669 0ac9 00       		.byte	0
 4670 0aca 0C       		.uleb128 0xc
 4671 0acb C5000000 		.4byte	0xc5
 4672 0acf DA0A0000 		.4byte	0xada
 4673 0ad3 0D       		.uleb128 0xd
 4674 0ad4 B6000000 		.4byte	0xb6
 4675 0ad8 04       		.byte	0x4
 4676 0ad9 00       		.byte	0
 4677 0ada 1F       		.uleb128 0x1f
 4678 0adb 310A0000 		.4byte	.LASF161
 4679 0adf 01       		.byte	0x1
 4680 0ae0 4D03     		.2byte	0x34d
 4681 0ae2 00000000 		.4byte	.LFB46
 4682 0ae6 80000000 		.4byte	.LFE46-.LFB46
 4683 0aea 01       		.uleb128 0x1
 4684 0aeb 9C       		.byte	0x9c
 4685 0aec F20B0000 		.4byte	0xbf2
 4686 0af0 20       		.uleb128 0x20
 4687 0af1 5E0B0000 		.4byte	.LASF162
 4688 0af5 01       		.byte	0x1
 4689 0af6 4D03     		.2byte	0x34d
 4690 0af8 91030000 		.4byte	0x391
 4691 0afc 3D030000 		.4byte	.LLST20
 4692 0b00 20       		.uleb128 0x20
 4693 0b01 F90B0000 		.4byte	.LASF163
 4694 0b05 01       		.byte	0x1
 4695 0b06 4D03     		.2byte	0x34d
 4696 0b08 C5000000 		.4byte	0xc5
 4697 0b0c 5E030000 		.4byte	.LLST21
 4698 0b10 22       		.uleb128 0x22
 4699 0b11 FD080000 		.4byte	.LASF149
 4700 0b15 01       		.byte	0x1
 4701 0b16 4F03     		.2byte	0x34f
 4702 0b18 EF030000 		.4byte	0x3ef
 4703 0b1c 02       		.uleb128 0x2
ARM GAS  C:\Users\MM1005~1\AppData\Local\Temp\cc36bet7.s 			page 112


 4704 0b1d 91       		.byte	0x91
 4705 0b1e 64       		.sleb128 -28
 4706 0b1f 1C       		.uleb128 0x1c
 4707 0b20 0C000000 		.4byte	.LVL94
 4708 0b24 7A200000 		.4byte	0x207a
 4709 0b28 330B0000 		.4byte	0xb33
 4710 0b2c 1A       		.uleb128 0x1a
 4711 0b2d 01       		.uleb128 0x1
 4712 0b2e 51       		.byte	0x51
 4713 0b2f 02       		.uleb128 0x2
 4714 0b30 91       		.byte	0x91
 4715 0b31 64       		.sleb128 -28
 4716 0b32 00       		.byte	0
 4717 0b33 1C       		.uleb128 0x1c
 4718 0b34 1C000000 		.4byte	.LVL95
 4719 0b38 B5200000 		.4byte	0x20b5
 4720 0b3c 530B0000 		.4byte	0xb53
 4721 0b40 1A       		.uleb128 0x1a
 4722 0b41 01       		.uleb128 0x1
 4723 0b42 52       		.byte	0x52
 4724 0b43 03       		.uleb128 0x3
 4725 0b44 0A       		.byte	0xa
 4726 0b45 0002     		.2byte	0x200
 4727 0b47 1A       		.uleb128 0x1a
 4728 0b48 01       		.uleb128 0x1
 4729 0b49 51       		.byte	0x51
 4730 0b4a 01       		.uleb128 0x1
 4731 0b4b 30       		.byte	0x30
 4732 0b4c 1A       		.uleb128 0x1a
 4733 0b4d 01       		.uleb128 0x1
 4734 0b4e 50       		.byte	0x50
 4735 0b4f 02       		.uleb128 0x2
 4736 0b50 74       		.byte	0x74
 4737 0b51 00       		.sleb128 0
 4738 0b52 00       		.byte	0
 4739 0b53 1C       		.uleb128 0x1c
 4740 0b54 3E000000 		.4byte	.LVL96
 4741 0b58 D2200000 		.4byte	0x20d2
 4742 0b5c 670B0000 		.4byte	0xb67
 4743 0b60 1A       		.uleb128 0x1a
 4744 0b61 01       		.uleb128 0x1
 4745 0b62 50       		.byte	0x50
 4746 0b63 02       		.uleb128 0x2
 4747 0b64 74       		.byte	0x74
 4748 0b65 00       		.sleb128 0
 4749 0b66 00       		.byte	0
 4750 0b67 1C       		.uleb128 0x1c
 4751 0b68 44000000 		.4byte	.LVL97
 4752 0b6c EC200000 		.4byte	0x20ec
 4753 0b70 7B0B0000 		.4byte	0xb7b
 4754 0b74 1A       		.uleb128 0x1a
 4755 0b75 01       		.uleb128 0x1
 4756 0b76 50       		.byte	0x50
 4757 0b77 02       		.uleb128 0x2
 4758 0b78 74       		.byte	0x74
 4759 0b79 00       		.sleb128 0
 4760 0b7a 00       		.byte	0
ARM GAS  C:\Users\MM1005~1\AppData\Local\Temp\cc36bet7.s 			page 113


 4761 0b7b 1C       		.uleb128 0x1c
 4762 0b7c 4E000000 		.4byte	.LVL98
 4763 0b80 05210000 		.4byte	0x2105
 4764 0b84 970B0000 		.4byte	0xb97
 4765 0b88 1A       		.uleb128 0x1a
 4766 0b89 01       		.uleb128 0x1
 4767 0b8a 52       		.byte	0x52
 4768 0b8b 01       		.uleb128 0x1
 4769 0b8c 3E       		.byte	0x3e
 4770 0b8d 1A       		.uleb128 0x1a
 4771 0b8e 01       		.uleb128 0x1
 4772 0b8f 51       		.byte	0x51
 4773 0b90 05       		.uleb128 0x5
 4774 0b91 03       		.byte	0x3
 4775 0b92 64000000 		.4byte	.LC29
 4776 0b96 00       		.byte	0
 4777 0b97 1C       		.uleb128 0x1c
 4778 0b98 56000000 		.4byte	.LVL99
 4779 0b9c D2200000 		.4byte	0x20d2
 4780 0ba0 B10B0000 		.4byte	0xbb1
 4781 0ba4 1A       		.uleb128 0x1a
 4782 0ba5 01       		.uleb128 0x1
 4783 0ba6 51       		.byte	0x51
 4784 0ba7 02       		.uleb128 0x2
 4785 0ba8 75       		.byte	0x75
 4786 0ba9 00       		.sleb128 0
 4787 0baa 1A       		.uleb128 0x1a
 4788 0bab 01       		.uleb128 0x1
 4789 0bac 50       		.byte	0x50
 4790 0bad 02       		.uleb128 0x2
 4791 0bae 74       		.byte	0x74
 4792 0baf 00       		.sleb128 0
 4793 0bb0 00       		.byte	0
 4794 0bb1 1C       		.uleb128 0x1c
 4795 0bb2 5C000000 		.4byte	.LVL100
 4796 0bb6 EC200000 		.4byte	0x20ec
 4797 0bba C50B0000 		.4byte	0xbc5
 4798 0bbe 1A       		.uleb128 0x1a
 4799 0bbf 01       		.uleb128 0x1
 4800 0bc0 50       		.byte	0x50
 4801 0bc1 02       		.uleb128 0x2
 4802 0bc2 74       		.byte	0x74
 4803 0bc3 00       		.sleb128 0
 4804 0bc4 00       		.byte	0
 4805 0bc5 1C       		.uleb128 0x1c
 4806 0bc6 66000000 		.4byte	.LVL101
 4807 0bca 05210000 		.4byte	0x2105
 4808 0bce E10B0000 		.4byte	0xbe1
 4809 0bd2 1A       		.uleb128 0x1a
 4810 0bd3 01       		.uleb128 0x1
 4811 0bd4 52       		.byte	0x52
 4812 0bd5 01       		.uleb128 0x1
 4813 0bd6 33       		.byte	0x33
 4814 0bd7 1A       		.uleb128 0x1a
 4815 0bd8 01       		.uleb128 0x1
 4816 0bd9 51       		.byte	0x51
 4817 0bda 05       		.uleb128 0x5
ARM GAS  C:\Users\MM1005~1\AppData\Local\Temp\cc36bet7.s 			page 114


 4818 0bdb 03       		.byte	0x3
 4819 0bdc 40000000 		.4byte	.LC23
 4820 0be0 00       		.byte	0
 4821 0be1 19       		.uleb128 0x19
 4822 0be2 6C000000 		.4byte	.LVL102
 4823 0be6 09090000 		.4byte	0x909
 4824 0bea 1A       		.uleb128 0x1a
 4825 0beb 01       		.uleb128 0x1
 4826 0bec 50       		.byte	0x50
 4827 0bed 02       		.uleb128 0x2
 4828 0bee 74       		.byte	0x74
 4829 0bef 00       		.sleb128 0
 4830 0bf0 00       		.byte	0
 4831 0bf1 00       		.byte	0
 4832 0bf2 1F       		.uleb128 0x1f
 4833 0bf3 E8010000 		.4byte	.LASF164
 4834 0bf7 01       		.byte	0x1
 4835 0bf8 BA03     		.2byte	0x3ba
 4836 0bfa 00000000 		.4byte	.LFB49
 4837 0bfe A8000000 		.4byte	.LFE49-.LFB49
 4838 0c02 01       		.uleb128 0x1
 4839 0c03 9C       		.byte	0x9c
 4840 0c04 740D0000 		.4byte	0xd74
 4841 0c08 20       		.uleb128 0x20
 4842 0c09 CF050000 		.4byte	.LASF165
 4843 0c0d 01       		.byte	0x1
 4844 0c0e BA03     		.2byte	0x3ba
 4845 0c10 76000000 		.4byte	0x76
 4846 0c14 8A030000 		.4byte	.LLST22
 4847 0c18 20       		.uleb128 0x20
 4848 0c19 C6080000 		.4byte	.LASF166
 4849 0c1d 01       		.byte	0x1
 4850 0c1e BA03     		.2byte	0x3ba
 4851 0c20 BF000000 		.4byte	0xbf
 4852 0c24 AB030000 		.4byte	.LLST23
 4853 0c28 20       		.uleb128 0x20
 4854 0c29 830C0000 		.4byte	.LASF167
 4855 0c2d 01       		.byte	0x1
 4856 0c2e BA03     		.2byte	0x3ba
 4857 0c30 76000000 		.4byte	0x76
 4858 0c34 D7030000 		.4byte	.LLST24
 4859 0c38 1C       		.uleb128 0x1c
 4860 0c39 18000000 		.4byte	.LVL108
 4861 0c3d B5200000 		.4byte	0x20b5
 4862 0c41 580C0000 		.4byte	0xc58
 4863 0c45 1A       		.uleb128 0x1a
 4864 0c46 01       		.uleb128 0x1
 4865 0c47 52       		.byte	0x52
 4866 0c48 03       		.uleb128 0x3
 4867 0c49 0A       		.byte	0xa
 4868 0c4a 0002     		.2byte	0x200
 4869 0c4c 1A       		.uleb128 0x1a
 4870 0c4d 01       		.uleb128 0x1
 4871 0c4e 51       		.byte	0x51
 4872 0c4f 01       		.uleb128 0x1
 4873 0c50 30       		.byte	0x30
 4874 0c51 1A       		.uleb128 0x1a
ARM GAS  C:\Users\MM1005~1\AppData\Local\Temp\cc36bet7.s 			page 115


 4875 0c52 01       		.uleb128 0x1
 4876 0c53 50       		.byte	0x50
 4877 0c54 02       		.uleb128 0x2
 4878 0c55 74       		.byte	0x74
 4879 0c56 00       		.sleb128 0
 4880 0c57 00       		.byte	0
 4881 0c58 1C       		.uleb128 0x1c
 4882 0c59 1E000000 		.4byte	.LVL109
 4883 0c5d EC200000 		.4byte	0x20ec
 4884 0c61 6C0C0000 		.4byte	0xc6c
 4885 0c65 1A       		.uleb128 0x1a
 4886 0c66 01       		.uleb128 0x1
 4887 0c67 50       		.byte	0x50
 4888 0c68 02       		.uleb128 0x2
 4889 0c69 74       		.byte	0x74
 4890 0c6a 00       		.sleb128 0
 4891 0c6b 00       		.byte	0
 4892 0c6c 1C       		.uleb128 0x1c
 4893 0c6d 28000000 		.4byte	.LVL110
 4894 0c71 05210000 		.4byte	0x2105
 4895 0c75 880C0000 		.4byte	0xc88
 4896 0c79 1A       		.uleb128 0x1a
 4897 0c7a 01       		.uleb128 0x1
 4898 0c7b 52       		.byte	0x52
 4899 0c7c 01       		.uleb128 0x1
 4900 0c7d 4E       		.byte	0x4e
 4901 0c7e 1A       		.uleb128 0x1a
 4902 0c7f 01       		.uleb128 0x1
 4903 0c80 51       		.byte	0x51
 4904 0c81 05       		.uleb128 0x5
 4905 0c82 03       		.byte	0x3
 4906 0c83 80000000 		.4byte	.LC38
 4907 0c87 00       		.byte	0
 4908 0c88 21       		.uleb128 0x21
 4909 0c89 30000000 		.4byte	.LVL111
 4910 0c8d 22210000 		.4byte	0x2122
 4911 0c91 1C       		.uleb128 0x1c
 4912 0c92 38000000 		.4byte	.LVL112
 4913 0c96 D2200000 		.4byte	0x20d2
 4914 0c9a A50C0000 		.4byte	0xca5
 4915 0c9e 1A       		.uleb128 0x1a
 4916 0c9f 01       		.uleb128 0x1
 4917 0ca0 50       		.byte	0x50
 4918 0ca1 02       		.uleb128 0x2
 4919 0ca2 74       		.byte	0x74
 4920 0ca3 00       		.sleb128 0
 4921 0ca4 00       		.byte	0
 4922 0ca5 1C       		.uleb128 0x1c
 4923 0ca6 3E000000 		.4byte	.LVL113
 4924 0caa EC200000 		.4byte	0x20ec
 4925 0cae B90C0000 		.4byte	0xcb9
 4926 0cb2 1A       		.uleb128 0x1a
 4927 0cb3 01       		.uleb128 0x1
 4928 0cb4 50       		.byte	0x50
 4929 0cb5 02       		.uleb128 0x2
 4930 0cb6 74       		.byte	0x74
 4931 0cb7 00       		.sleb128 0
ARM GAS  C:\Users\MM1005~1\AppData\Local\Temp\cc36bet7.s 			page 116


 4932 0cb8 00       		.byte	0
 4933 0cb9 1C       		.uleb128 0x1c
 4934 0cba 48000000 		.4byte	.LVL114
 4935 0cbe 05210000 		.4byte	0x2105
 4936 0cc2 D50C0000 		.4byte	0xcd5
 4937 0cc6 1A       		.uleb128 0x1a
 4938 0cc7 01       		.uleb128 0x1
 4939 0cc8 52       		.byte	0x52
 4940 0cc9 01       		.uleb128 0x1
 4941 0cca 3B       		.byte	0x3b
 4942 0ccb 1A       		.uleb128 0x1a
 4943 0ccc 01       		.uleb128 0x1
 4944 0ccd 51       		.byte	0x51
 4945 0cce 05       		.uleb128 0x5
 4946 0ccf 03       		.byte	0x3
 4947 0cd0 A0000000 		.4byte	.LC40
 4948 0cd4 00       		.byte	0
 4949 0cd5 1C       		.uleb128 0x1c
 4950 0cd6 50000000 		.4byte	.LVL115
 4951 0cda D2200000 		.4byte	0x20d2
 4952 0cde EF0C0000 		.4byte	0xcef
 4953 0ce2 1A       		.uleb128 0x1a
 4954 0ce3 01       		.uleb128 0x1
 4955 0ce4 51       		.byte	0x51
 4956 0ce5 02       		.uleb128 0x2
 4957 0ce6 75       		.byte	0x75
 4958 0ce7 00       		.sleb128 0
 4959 0ce8 1A       		.uleb128 0x1a
 4960 0ce9 01       		.uleb128 0x1
 4961 0cea 50       		.byte	0x50
 4962 0ceb 02       		.uleb128 0x2
 4963 0cec 74       		.byte	0x74
 4964 0ced 00       		.sleb128 0
 4965 0cee 00       		.byte	0
 4966 0cef 1C       		.uleb128 0x1c
 4967 0cf0 56000000 		.4byte	.LVL116
 4968 0cf4 EC200000 		.4byte	0x20ec
 4969 0cf8 030D0000 		.4byte	0xd03
 4970 0cfc 1A       		.uleb128 0x1a
 4971 0cfd 01       		.uleb128 0x1
 4972 0cfe 50       		.byte	0x50
 4973 0cff 02       		.uleb128 0x2
 4974 0d00 74       		.byte	0x74
 4975 0d01 00       		.sleb128 0
 4976 0d02 00       		.byte	0
 4977 0d03 1C       		.uleb128 0x1c
 4978 0d04 60000000 		.4byte	.LVL117
 4979 0d08 05210000 		.4byte	0x2105
 4980 0d0c 1F0D0000 		.4byte	0xd1f
 4981 0d10 1A       		.uleb128 0x1a
 4982 0d11 01       		.uleb128 0x1
 4983 0d12 52       		.byte	0x52
 4984 0d13 01       		.uleb128 0x1
 4985 0d14 3D       		.byte	0x3d
 4986 0d15 1A       		.uleb128 0x1a
 4987 0d16 01       		.uleb128 0x1
 4988 0d17 51       		.byte	0x51
ARM GAS  C:\Users\MM1005~1\AppData\Local\Temp\cc36bet7.s 			page 117


 4989 0d18 05       		.uleb128 0x5
 4990 0d19 03       		.byte	0x3
 4991 0d1a AC000000 		.4byte	.LC42
 4992 0d1e 00       		.byte	0
 4993 0d1f 1C       		.uleb128 0x1c
 4994 0d20 74000000 		.4byte	.LVL118
 4995 0d24 D2200000 		.4byte	0x20d2
 4996 0d28 330D0000 		.4byte	0xd33
 4997 0d2c 1A       		.uleb128 0x1a
 4998 0d2d 01       		.uleb128 0x1
 4999 0d2e 50       		.byte	0x50
 5000 0d2f 02       		.uleb128 0x2
 5001 0d30 74       		.byte	0x74
 5002 0d31 00       		.sleb128 0
 5003 0d32 00       		.byte	0
 5004 0d33 1C       		.uleb128 0x1c
 5005 0d34 7A000000 		.4byte	.LVL119
 5006 0d38 EC200000 		.4byte	0x20ec
 5007 0d3c 470D0000 		.4byte	0xd47
 5008 0d40 1A       		.uleb128 0x1a
 5009 0d41 01       		.uleb128 0x1
 5010 0d42 50       		.byte	0x50
 5011 0d43 02       		.uleb128 0x2
 5012 0d44 74       		.byte	0x74
 5013 0d45 00       		.sleb128 0
 5014 0d46 00       		.byte	0
 5015 0d47 1C       		.uleb128 0x1c
 5016 0d48 84000000 		.4byte	.LVL120
 5017 0d4c 05210000 		.4byte	0x2105
 5018 0d50 630D0000 		.4byte	0xd63
 5019 0d54 1A       		.uleb128 0x1a
 5020 0d55 01       		.uleb128 0x1
 5021 0d56 52       		.byte	0x52
 5022 0d57 01       		.uleb128 0x1
 5023 0d58 33       		.byte	0x33
 5024 0d59 1A       		.uleb128 0x1a
 5025 0d5a 01       		.uleb128 0x1
 5026 0d5b 51       		.byte	0x51
 5027 0d5c 05       		.uleb128 0x5
 5028 0d5d 03       		.byte	0x3
 5029 0d5e 40000000 		.4byte	.LC23
 5030 0d62 00       		.byte	0
 5031 0d63 19       		.uleb128 0x19
 5032 0d64 8A000000 		.4byte	.LVL121
 5033 0d68 09090000 		.4byte	0x909
 5034 0d6c 1A       		.uleb128 0x1a
 5035 0d6d 01       		.uleb128 0x1
 5036 0d6e 50       		.byte	0x50
 5037 0d6f 02       		.uleb128 0x2
 5038 0d70 74       		.byte	0x74
 5039 0d71 00       		.sleb128 0
 5040 0d72 00       		.byte	0
 5041 0d73 00       		.byte	0
 5042 0d74 1F       		.uleb128 0x1f
 5043 0d75 D4030000 		.4byte	.LASF168
 5044 0d79 01       		.byte	0x1
 5045 0d7a CC03     		.2byte	0x3cc
ARM GAS  C:\Users\MM1005~1\AppData\Local\Temp\cc36bet7.s 			page 118


 5046 0d7c 00000000 		.4byte	.LFB50
 5047 0d80 D8000000 		.4byte	.LFE50-.LFB50
 5048 0d84 01       		.uleb128 0x1
 5049 0d85 9C       		.byte	0x9c
 5050 0d86 2F0F0000 		.4byte	0xf2f
 5051 0d8a 20       		.uleb128 0x20
 5052 0d8b D8090000 		.4byte	.LASF169
 5053 0d8f 01       		.byte	0x1
 5054 0d90 CC03     		.2byte	0x3cc
 5055 0d92 8E000000 		.4byte	0x8e
 5056 0d96 F8030000 		.4byte	.LLST25
 5057 0d9a 20       		.uleb128 0x20
 5058 0d9b 1F080000 		.4byte	.LASF170
 5059 0d9f 01       		.byte	0x1
 5060 0da0 CC03     		.2byte	0x3cc
 5061 0da2 8E000000 		.4byte	0x8e
 5062 0da6 24040000 		.4byte	.LLST26
 5063 0daa 20       		.uleb128 0x20
 5064 0dab D00C0000 		.4byte	.LASF171
 5065 0daf 01       		.byte	0x1
 5066 0db0 CC03     		.2byte	0x3cc
 5067 0db2 8E000000 		.4byte	0x8e
 5068 0db6 50040000 		.4byte	.LLST27
 5069 0dba 20       		.uleb128 0x20
 5070 0dbb 6E0B0000 		.4byte	.LASF172
 5071 0dbf 01       		.byte	0x1
 5072 0dc0 CC03     		.2byte	0x3cc
 5073 0dc2 8E000000 		.4byte	0x8e
 5074 0dc6 7B040000 		.4byte	.LLST28
 5075 0dca 1C       		.uleb128 0x1c
 5076 0dcb 1C000000 		.4byte	.LVL127
 5077 0dcf B5200000 		.4byte	0x20b5
 5078 0dd3 EA0D0000 		.4byte	0xdea
 5079 0dd7 1A       		.uleb128 0x1a
 5080 0dd8 01       		.uleb128 0x1
 5081 0dd9 52       		.byte	0x52
 5082 0dda 03       		.uleb128 0x3
 5083 0ddb 0A       		.byte	0xa
 5084 0ddc 0002     		.2byte	0x200
 5085 0dde 1A       		.uleb128 0x1a
 5086 0ddf 01       		.uleb128 0x1
 5087 0de0 51       		.byte	0x51
 5088 0de1 01       		.uleb128 0x1
 5089 0de2 30       		.byte	0x30
 5090 0de3 1A       		.uleb128 0x1a
 5091 0de4 01       		.uleb128 0x1
 5092 0de5 50       		.byte	0x50
 5093 0de6 02       		.uleb128 0x2
 5094 0de7 74       		.byte	0x74
 5095 0de8 00       		.sleb128 0
 5096 0de9 00       		.byte	0
 5097 0dea 21       		.uleb128 0x21
 5098 0deb 3E000000 		.4byte	.LVL128
 5099 0def 22210000 		.4byte	0x2122
 5100 0df3 1C       		.uleb128 0x1c
 5101 0df4 46000000 		.4byte	.LVL129
 5102 0df8 D2200000 		.4byte	0x20d2
ARM GAS  C:\Users\MM1005~1\AppData\Local\Temp\cc36bet7.s 			page 119


 5103 0dfc 070E0000 		.4byte	0xe07
 5104 0e00 1A       		.uleb128 0x1a
 5105 0e01 01       		.uleb128 0x1
 5106 0e02 50       		.byte	0x50
 5107 0e03 02       		.uleb128 0x2
 5108 0e04 74       		.byte	0x74
 5109 0e05 00       		.sleb128 0
 5110 0e06 00       		.byte	0
 5111 0e07 1C       		.uleb128 0x1c
 5112 0e08 4C000000 		.4byte	.LVL130
 5113 0e0c EC200000 		.4byte	0x20ec
 5114 0e10 1B0E0000 		.4byte	0xe1b
 5115 0e14 1A       		.uleb128 0x1a
 5116 0e15 01       		.uleb128 0x1
 5117 0e16 50       		.byte	0x50
 5118 0e17 02       		.uleb128 0x2
 5119 0e18 74       		.byte	0x74
 5120 0e19 00       		.sleb128 0
 5121 0e1a 00       		.byte	0
 5122 0e1b 1C       		.uleb128 0x1c
 5123 0e1c 56000000 		.4byte	.LVL131
 5124 0e20 05210000 		.4byte	0x2105
 5125 0e24 370E0000 		.4byte	0xe37
 5126 0e28 1A       		.uleb128 0x1a
 5127 0e29 01       		.uleb128 0x1
 5128 0e2a 52       		.byte	0x52
 5129 0e2b 01       		.uleb128 0x1
 5130 0e2c 3F       		.byte	0x3f
 5131 0e2d 1A       		.uleb128 0x1a
 5132 0e2e 01       		.uleb128 0x1
 5133 0e2f 51       		.byte	0x51
 5134 0e30 05       		.uleb128 0x5
 5135 0e31 03       		.byte	0x3
 5136 0e32 E4000000 		.4byte	.LC49
 5137 0e36 00       		.byte	0
 5138 0e37 21       		.uleb128 0x21
 5139 0e38 5E000000 		.4byte	.LVL132
 5140 0e3c 22210000 		.4byte	0x2122
 5141 0e40 1C       		.uleb128 0x1c
 5142 0e41 66000000 		.4byte	.LVL133
 5143 0e45 D2200000 		.4byte	0x20d2
 5144 0e49 540E0000 		.4byte	0xe54
 5145 0e4d 1A       		.uleb128 0x1a
 5146 0e4e 01       		.uleb128 0x1
 5147 0e4f 50       		.byte	0x50
 5148 0e50 02       		.uleb128 0x2
 5149 0e51 74       		.byte	0x74
 5150 0e52 00       		.sleb128 0
 5151 0e53 00       		.byte	0
 5152 0e54 1C       		.uleb128 0x1c
 5153 0e55 6C000000 		.4byte	.LVL134
 5154 0e59 EC200000 		.4byte	0x20ec
 5155 0e5d 680E0000 		.4byte	0xe68
 5156 0e61 1A       		.uleb128 0x1a
 5157 0e62 01       		.uleb128 0x1
 5158 0e63 50       		.byte	0x50
 5159 0e64 02       		.uleb128 0x2
ARM GAS  C:\Users\MM1005~1\AppData\Local\Temp\cc36bet7.s 			page 120


 5160 0e65 74       		.byte	0x74
 5161 0e66 00       		.sleb128 0
 5162 0e67 00       		.byte	0
 5163 0e68 1C       		.uleb128 0x1c
 5164 0e69 76000000 		.4byte	.LVL135
 5165 0e6d 05210000 		.4byte	0x2105
 5166 0e71 840E0000 		.4byte	0xe84
 5167 0e75 1A       		.uleb128 0x1a
 5168 0e76 01       		.uleb128 0x1
 5169 0e77 52       		.byte	0x52
 5170 0e78 01       		.uleb128 0x1
 5171 0e79 3E       		.byte	0x3e
 5172 0e7a 1A       		.uleb128 0x1a
 5173 0e7b 01       		.uleb128 0x1
 5174 0e7c 51       		.byte	0x51
 5175 0e7d 05       		.uleb128 0x5
 5176 0e7e 03       		.byte	0x3
 5177 0e7f F4000000 		.4byte	.LC51
 5178 0e83 00       		.byte	0
 5179 0e84 21       		.uleb128 0x21
 5180 0e85 7E000000 		.4byte	.LVL136
 5181 0e89 22210000 		.4byte	0x2122
 5182 0e8d 1C       		.uleb128 0x1c
 5183 0e8e 86000000 		.4byte	.LVL137
 5184 0e92 D2200000 		.4byte	0x20d2
 5185 0e96 A10E0000 		.4byte	0xea1
 5186 0e9a 1A       		.uleb128 0x1a
 5187 0e9b 01       		.uleb128 0x1
 5188 0e9c 50       		.byte	0x50
 5189 0e9d 02       		.uleb128 0x2
 5190 0e9e 74       		.byte	0x74
 5191 0e9f 00       		.sleb128 0
 5192 0ea0 00       		.byte	0
 5193 0ea1 1C       		.uleb128 0x1c
 5194 0ea2 8C000000 		.4byte	.LVL138
 5195 0ea6 EC200000 		.4byte	0x20ec
 5196 0eaa B50E0000 		.4byte	0xeb5
 5197 0eae 1A       		.uleb128 0x1a
 5198 0eaf 01       		.uleb128 0x1
 5199 0eb0 50       		.byte	0x50
 5200 0eb1 02       		.uleb128 0x2
 5201 0eb2 74       		.byte	0x74
 5202 0eb3 00       		.sleb128 0
 5203 0eb4 00       		.byte	0
 5204 0eb5 1C       		.uleb128 0x1c
 5205 0eb6 96000000 		.4byte	.LVL139
 5206 0eba 05210000 		.4byte	0x2105
 5207 0ebe D10E0000 		.4byte	0xed1
 5208 0ec2 1A       		.uleb128 0x1a
 5209 0ec3 01       		.uleb128 0x1
 5210 0ec4 52       		.byte	0x52
 5211 0ec5 01       		.uleb128 0x1
 5212 0ec6 3A       		.byte	0x3a
 5213 0ec7 1A       		.uleb128 0x1a
 5214 0ec8 01       		.uleb128 0x1
 5215 0ec9 51       		.byte	0x51
 5216 0eca 05       		.uleb128 0x5
ARM GAS  C:\Users\MM1005~1\AppData\Local\Temp\cc36bet7.s 			page 121


 5217 0ecb 03       		.byte	0x3
 5218 0ecc 04010000 		.4byte	.LC53
 5219 0ed0 00       		.byte	0
 5220 0ed1 21       		.uleb128 0x21
 5221 0ed2 9E000000 		.4byte	.LVL140
 5222 0ed6 22210000 		.4byte	0x2122
 5223 0eda 1C       		.uleb128 0x1c
 5224 0edb A6000000 		.4byte	.LVL141
 5225 0edf D2200000 		.4byte	0x20d2
 5226 0ee3 EE0E0000 		.4byte	0xeee
 5227 0ee7 1A       		.uleb128 0x1a
 5228 0ee8 01       		.uleb128 0x1
 5229 0ee9 50       		.byte	0x50
 5230 0eea 02       		.uleb128 0x2
 5231 0eeb 74       		.byte	0x74
 5232 0eec 00       		.sleb128 0
 5233 0eed 00       		.byte	0
 5234 0eee 1C       		.uleb128 0x1c
 5235 0eef AC000000 		.4byte	.LVL142
 5236 0ef3 EC200000 		.4byte	0x20ec
 5237 0ef7 020F0000 		.4byte	0xf02
 5238 0efb 1A       		.uleb128 0x1a
 5239 0efc 01       		.uleb128 0x1
 5240 0efd 50       		.byte	0x50
 5241 0efe 02       		.uleb128 0x2
 5242 0eff 74       		.byte	0x74
 5243 0f00 00       		.sleb128 0
 5244 0f01 00       		.byte	0
 5245 0f02 1C       		.uleb128 0x1c
 5246 0f03 B6000000 		.4byte	.LVL143
 5247 0f07 05210000 		.4byte	0x2105
 5248 0f0b 1E0F0000 		.4byte	0xf1e
 5249 0f0f 1A       		.uleb128 0x1a
 5250 0f10 01       		.uleb128 0x1
 5251 0f11 52       		.byte	0x52
 5252 0f12 01       		.uleb128 0x1
 5253 0f13 32       		.byte	0x32
 5254 0f14 1A       		.uleb128 0x1a
 5255 0f15 01       		.uleb128 0x1
 5256 0f16 51       		.byte	0x51
 5257 0f17 05       		.uleb128 0x5
 5258 0f18 03       		.byte	0x3
 5259 0f19 10010000 		.4byte	.LC55
 5260 0f1d 00       		.byte	0
 5261 0f1e 19       		.uleb128 0x19
 5262 0f1f BC000000 		.4byte	.LVL144
 5263 0f23 09090000 		.4byte	0x909
 5264 0f27 1A       		.uleb128 0x1a
 5265 0f28 01       		.uleb128 0x1
 5266 0f29 50       		.byte	0x50
 5267 0f2a 02       		.uleb128 0x2
 5268 0f2b 74       		.byte	0x74
 5269 0f2c 00       		.sleb128 0
 5270 0f2d 00       		.byte	0
 5271 0f2e 00       		.byte	0
 5272 0f2f 1F       		.uleb128 0x1f
 5273 0f30 5E020000 		.4byte	.LASF173
ARM GAS  C:\Users\MM1005~1\AppData\Local\Temp\cc36bet7.s 			page 122


 5274 0f34 01       		.byte	0x1
 5275 0f35 F403     		.2byte	0x3f4
 5276 0f37 00000000 		.4byte	.LFB53
 5277 0f3b 0C000000 		.4byte	.LFE53-.LFB53
 5278 0f3f 01       		.uleb128 0x1
 5279 0f40 9C       		.byte	0x9c
 5280 0f41 540F0000 		.4byte	0xf54
 5281 0f45 23       		.uleb128 0x23
 5282 0f46 DF0C0000 		.4byte	.LASF174
 5283 0f4a 01       		.byte	0x1
 5284 0f4b F403     		.2byte	0x3f4
 5285 0f4d 76000000 		.4byte	0x76
 5286 0f51 01       		.uleb128 0x1
 5287 0f52 50       		.byte	0x50
 5288 0f53 00       		.byte	0
 5289 0f54 1E       		.uleb128 0x1e
 5290 0f55 5D050000 		.4byte	.LASF175
 5291 0f59 01       		.byte	0x1
 5292 0f5a FC03     		.2byte	0x3fc
 5293 0f5c 76000000 		.4byte	0x76
 5294 0f60 00000000 		.4byte	.LFB54
 5295 0f64 0C000000 		.4byte	.LFE54-.LFB54
 5296 0f68 01       		.uleb128 0x1
 5297 0f69 9C       		.byte	0x9c
 5298 0f6a 1F       		.uleb128 0x1f
 5299 0f6b A10E0000 		.4byte	.LASF176
 5300 0f6f 01       		.byte	0x1
 5301 0f70 8003     		.2byte	0x380
 5302 0f72 00000000 		.4byte	.LFB48
 5303 0f76 C8000000 		.4byte	.LFE48-.LFB48
 5304 0f7a 01       		.uleb128 0x1
 5305 0f7b 9C       		.byte	0x9c
 5306 0f7c 3A110000 		.4byte	0x113a
 5307 0f80 20       		.uleb128 0x20
 5308 0f81 C0050000 		.4byte	.LASF177
 5309 0f85 01       		.byte	0x1
 5310 0f86 8003     		.2byte	0x380
 5311 0f88 5D000000 		.4byte	0x5d
 5312 0f8c 9A040000 		.4byte	.LLST29
 5313 0f90 20       		.uleb128 0x20
 5314 0f91 F90B0000 		.4byte	.LASF163
 5315 0f95 01       		.byte	0x1
 5316 0f96 8003     		.2byte	0x380
 5317 0f98 C5000000 		.4byte	0xc5
 5318 0f9c C6040000 		.4byte	.LLST30
 5319 0fa0 20       		.uleb128 0x20
 5320 0fa1 500B0000 		.4byte	.LASF178
 5321 0fa5 01       		.byte	0x1
 5322 0fa6 8003     		.2byte	0x380
 5323 0fa8 EE020000 		.4byte	0x2ee
 5324 0fac F2040000 		.4byte	.LLST31
 5325 0fb0 20       		.uleb128 0x20
 5326 0fb1 430E0000 		.4byte	.LASF179
 5327 0fb5 01       		.byte	0x1
 5328 0fb6 8003     		.2byte	0x380
 5329 0fb8 82000000 		.4byte	0x82
 5330 0fbc 13050000 		.4byte	.LLST32
ARM GAS  C:\Users\MM1005~1\AppData\Local\Temp\cc36bet7.s 			page 123


 5331 0fc0 23       		.uleb128 0x23
 5332 0fc1 B50D0000 		.4byte	.LASF180
 5333 0fc5 01       		.byte	0x1
 5334 0fc6 8003     		.2byte	0x380
 5335 0fc8 82000000 		.4byte	0x82
 5336 0fcc 02       		.uleb128 0x2
 5337 0fcd 91       		.byte	0x91
 5338 0fce 00       		.sleb128 0
 5339 0fcf 24       		.uleb128 0x24
 5340 0fd0 A5020000 		.4byte	.LASF181
 5341 0fd4 01       		.byte	0x1
 5342 0fd5 8203     		.2byte	0x382
 5343 0fd7 5D000000 		.4byte	0x5d
 5344 0fdb 34050000 		.4byte	.LLST33
 5345 0fdf 25       		.uleb128 0x25
 5346 0fe0 F60A0000 		.4byte	.LASF182
 5347 0fe4 01       		.byte	0x1
 5348 0fe5 8303     		.2byte	0x383
 5349 0fe7 4F000000 		.4byte	0x4f
 5350 0feb 25       		.uleb128 0x25
 5351 0fec 0D0A0000 		.4byte	.LASF183
 5352 0ff0 01       		.byte	0x1
 5353 0ff1 8403     		.2byte	0x384
 5354 0ff3 3A110000 		.4byte	0x113a
 5355 0ff7 24       		.uleb128 0x24
 5356 0ff8 2E060000 		.4byte	.LASF184
 5357 0ffc 01       		.byte	0x1
 5358 0ffd 8503     		.2byte	0x385
 5359 0fff 82000000 		.4byte	0x82
 5360 1003 48050000 		.4byte	.LLST34
 5361 1007 22       		.uleb128 0x22
 5362 1008 37040000 		.4byte	.LASF185
 5363 100c 01       		.byte	0x1
 5364 100d 8603     		.2byte	0x386
 5365 100f 4A110000 		.4byte	0x114a
 5366 1013 03       		.uleb128 0x3
 5367 1014 91       		.byte	0x91
 5368 1015 A87F     		.sleb128 -88
 5369 1017 26       		.uleb128 0x26
 5370 1018 6900     		.ascii	"i\000"
 5371 101a 01       		.byte	0x1
 5372 101b 8703     		.2byte	0x387
 5373 101d 82000000 		.4byte	0x82
 5374 1021 67050000 		.4byte	.LLST35
 5375 1025 21       		.uleb128 0x21
 5376 1026 0C000000 		.4byte	.LVL151
 5377 102a 37210000 		.4byte	0x2137
 5378 102e 21       		.uleb128 0x21
 5379 102f 10000000 		.4byte	.LVL152
 5380 1033 48210000 		.4byte	0x2148
 5381 1037 1C       		.uleb128 0x1c
 5382 1038 1E000000 		.4byte	.LVL153
 5383 103c B5200000 		.4byte	0x20b5
 5384 1040 5A100000 		.4byte	0x105a
 5385 1044 1A       		.uleb128 0x1a
 5386 1045 01       		.uleb128 0x1
 5387 1046 52       		.byte	0x52
ARM GAS  C:\Users\MM1005~1\AppData\Local\Temp\cc36bet7.s 			page 124


 5388 1047 03       		.uleb128 0x3
 5389 1048 0A       		.byte	0xa
 5390 1049 0002     		.2byte	0x200
 5391 104b 1A       		.uleb128 0x1a
 5392 104c 01       		.uleb128 0x1
 5393 104d 51       		.byte	0x51
 5394 104e 01       		.uleb128 0x1
 5395 104f 30       		.byte	0x30
 5396 1050 1A       		.uleb128 0x1a
 5397 1051 01       		.uleb128 0x1
 5398 1052 50       		.byte	0x50
 5399 1053 05       		.uleb128 0x5
 5400 1054 03       		.byte	0x3
 5401 1055 04000000 		.4byte	.LANCHOR3+4
 5402 1059 00       		.byte	0
 5403 105a 1C       		.uleb128 0x1c
 5404 105b 28000000 		.4byte	.LVL154
 5405 105f B5200000 		.4byte	0x20b5
 5406 1063 79100000 		.4byte	0x1079
 5407 1067 1A       		.uleb128 0x1a
 5408 1068 01       		.uleb128 0x1
 5409 1069 52       		.byte	0x52
 5410 106a 02       		.uleb128 0x2
 5411 106b 08       		.byte	0x8
 5412 106c 40       		.byte	0x40
 5413 106d 1A       		.uleb128 0x1a
 5414 106e 01       		.uleb128 0x1
 5415 106f 51       		.byte	0x51
 5416 1070 01       		.uleb128 0x1
 5417 1071 30       		.byte	0x30
 5418 1072 1A       		.uleb128 0x1a
 5419 1073 01       		.uleb128 0x1
 5420 1074 50       		.byte	0x50
 5421 1075 02       		.uleb128 0x2
 5422 1076 7D       		.byte	0x7d
 5423 1077 00       		.sleb128 0
 5424 1078 00       		.byte	0
 5425 1079 1C       		.uleb128 0x1c
 5426 107a 42000000 		.4byte	.LVL157
 5427 107e 54210000 		.4byte	0x2154
 5428 1082 92100000 		.4byte	0x1092
 5429 1086 1A       		.uleb128 0x1a
 5430 1087 01       		.uleb128 0x1
 5431 1088 51       		.byte	0x51
 5432 1089 02       		.uleb128 0x2
 5433 108a 74       		.byte	0x74
 5434 108b 00       		.sleb128 0
 5435 108c 1A       		.uleb128 0x1a
 5436 108d 01       		.uleb128 0x1
 5437 108e 50       		.byte	0x50
 5438 108f 01       		.uleb128 0x1
 5439 1090 30       		.byte	0x30
 5440 1091 00       		.byte	0
 5441 1092 21       		.uleb128 0x21
 5442 1093 7A000000 		.4byte	.LVL162
 5443 1097 22210000 		.4byte	0x2122
 5444 109b 1C       		.uleb128 0x1c
ARM GAS  C:\Users\MM1005~1\AppData\Local\Temp\cc36bet7.s 			page 125


 5445 109c 82000000 		.4byte	.LVL163
 5446 10a0 D2200000 		.4byte	0x20d2
 5447 10a4 AF100000 		.4byte	0x10af
 5448 10a8 1A       		.uleb128 0x1a
 5449 10a9 01       		.uleb128 0x1
 5450 10aa 50       		.byte	0x50
 5451 10ab 02       		.uleb128 0x2
 5452 10ac 74       		.byte	0x74
 5453 10ad 00       		.sleb128 0
 5454 10ae 00       		.byte	0
 5455 10af 1C       		.uleb128 0x1c
 5456 10b0 88000000 		.4byte	.LVL164
 5457 10b4 EC200000 		.4byte	0x20ec
 5458 10b8 C3100000 		.4byte	0x10c3
 5459 10bc 1A       		.uleb128 0x1a
 5460 10bd 01       		.uleb128 0x1
 5461 10be 50       		.byte	0x50
 5462 10bf 02       		.uleb128 0x2
 5463 10c0 74       		.byte	0x74
 5464 10c1 00       		.sleb128 0
 5465 10c2 00       		.byte	0
 5466 10c3 1C       		.uleb128 0x1c
 5467 10c4 92000000 		.4byte	.LVL165
 5468 10c8 05210000 		.4byte	0x2105
 5469 10cc DF100000 		.4byte	0x10df
 5470 10d0 1A       		.uleb128 0x1a
 5471 10d1 01       		.uleb128 0x1
 5472 10d2 52       		.byte	0x52
 5473 10d3 01       		.uleb128 0x1
 5474 10d4 3D       		.byte	0x3d
 5475 10d5 1A       		.uleb128 0x1a
 5476 10d6 01       		.uleb128 0x1
 5477 10d7 51       		.byte	0x51
 5478 10d8 05       		.uleb128 0x5
 5479 10d9 03       		.byte	0x3
 5480 10da 30010000 		.4byte	.LC64
 5481 10de 00       		.byte	0
 5482 10df 1C       		.uleb128 0x1c
 5483 10e0 9A000000 		.4byte	.LVL166
 5484 10e4 D2200000 		.4byte	0x20d2
 5485 10e8 F9100000 		.4byte	0x10f9
 5486 10ec 1A       		.uleb128 0x1a
 5487 10ed 01       		.uleb128 0x1
 5488 10ee 51       		.byte	0x51
 5489 10ef 02       		.uleb128 0x2
 5490 10f0 76       		.byte	0x76
 5491 10f1 00       		.sleb128 0
 5492 10f2 1A       		.uleb128 0x1a
 5493 10f3 01       		.uleb128 0x1
 5494 10f4 50       		.byte	0x50
 5495 10f5 02       		.uleb128 0x2
 5496 10f6 74       		.byte	0x74
 5497 10f7 00       		.sleb128 0
 5498 10f8 00       		.byte	0
 5499 10f9 1C       		.uleb128 0x1c
 5500 10fa A0000000 		.4byte	.LVL167
 5501 10fe EC200000 		.4byte	0x20ec
ARM GAS  C:\Users\MM1005~1\AppData\Local\Temp\cc36bet7.s 			page 126


 5502 1102 0D110000 		.4byte	0x110d
 5503 1106 1A       		.uleb128 0x1a
 5504 1107 01       		.uleb128 0x1
 5505 1108 50       		.byte	0x50
 5506 1109 02       		.uleb128 0x2
 5507 110a 74       		.byte	0x74
 5508 110b 00       		.sleb128 0
 5509 110c 00       		.byte	0
 5510 110d 1C       		.uleb128 0x1c
 5511 110e AA000000 		.4byte	.LVL168
 5512 1112 05210000 		.4byte	0x2105
 5513 1116 29110000 		.4byte	0x1129
 5514 111a 1A       		.uleb128 0x1a
 5515 111b 01       		.uleb128 0x1
 5516 111c 52       		.byte	0x52
 5517 111d 01       		.uleb128 0x1
 5518 111e 33       		.byte	0x33
 5519 111f 1A       		.uleb128 0x1a
 5520 1120 01       		.uleb128 0x1
 5521 1121 51       		.byte	0x51
 5522 1122 05       		.uleb128 0x5
 5523 1123 03       		.byte	0x3
 5524 1124 40000000 		.4byte	.LC23
 5525 1128 00       		.byte	0
 5526 1129 19       		.uleb128 0x19
 5527 112a B0000000 		.4byte	.LVL169
 5528 112e 09090000 		.4byte	0x909
 5529 1132 1A       		.uleb128 0x1a
 5530 1133 01       		.uleb128 0x1
 5531 1134 50       		.byte	0x50
 5532 1135 02       		.uleb128 0x2
 5533 1136 74       		.byte	0x74
 5534 1137 00       		.sleb128 0
 5535 1138 00       		.byte	0
 5536 1139 00       		.byte	0
 5537 113a 0C       		.uleb128 0xc
 5538 113b A8000000 		.4byte	0xa8
 5539 113f 4A110000 		.4byte	0x114a
 5540 1143 0D       		.uleb128 0xd
 5541 1144 B6000000 		.4byte	0xb6
 5542 1148 01       		.byte	0x1
 5543 1149 00       		.byte	0
 5544 114a 0C       		.uleb128 0xc
 5545 114b A8000000 		.4byte	0xa8
 5546 114f 5A110000 		.4byte	0x115a
 5547 1153 0D       		.uleb128 0xd
 5548 1154 B6000000 		.4byte	0xb6
 5549 1158 3F       		.byte	0x3f
 5550 1159 00       		.byte	0
 5551 115a 1F       		.uleb128 0x1f
 5552 115b 110D0000 		.4byte	.LASF186
 5553 115f 01       		.byte	0x1
 5554 1160 0404     		.2byte	0x404
 5555 1162 00000000 		.4byte	.LFB55
 5556 1166 0C000000 		.4byte	.LFE55-.LFB55
 5557 116a 01       		.uleb128 0x1
 5558 116b 9C       		.byte	0x9c
ARM GAS  C:\Users\MM1005~1\AppData\Local\Temp\cc36bet7.s 			page 127


 5559 116c 7F110000 		.4byte	0x117f
 5560 1170 23       		.uleb128 0x23
 5561 1171 76040000 		.4byte	.LASF187
 5562 1175 01       		.byte	0x1
 5563 1176 0404     		.2byte	0x404
 5564 1178 76000000 		.4byte	0x76
 5565 117c 01       		.uleb128 0x1
 5566 117d 50       		.byte	0x50
 5567 117e 00       		.byte	0
 5568 117f 16       		.uleb128 0x16
 5569 1180 690C0000 		.4byte	.LASF188
 5570 1184 01       		.byte	0x1
 5571 1185 D4       		.byte	0xd4
 5572 1186 76000000 		.4byte	0x76
 5573 118a 00000000 		.4byte	.LFB43
 5574 118e 1C070000 		.4byte	.LFE43-.LFB43
 5575 1192 01       		.uleb128 0x1
 5576 1193 9C       		.byte	0x9c
 5577 1194 111F0000 		.4byte	0x1f11
 5578 1198 17       		.uleb128 0x17
 5579 1199 8F0E0000 		.4byte	.LASF189
 5580 119d 01       		.byte	0x1
 5581 119e D4       		.byte	0xd4
 5582 119f C5000000 		.4byte	0xc5
 5583 11a3 91050000 		.4byte	.LLST36
 5584 11a7 27       		.uleb128 0x27
 5585 11a8 300D0000 		.4byte	.LASF190
 5586 11ac 01       		.byte	0x1
 5587 11ad D6       		.byte	0xd6
 5588 11ae 7F040000 		.4byte	0x47f
 5589 11b2 08060000 		.4byte	.LLST37
 5590 11b6 27       		.uleb128 0x27
 5591 11b7 CC090000 		.4byte	.LASF191
 5592 11bb 01       		.byte	0x1
 5593 11bc D7       		.byte	0xd7
 5594 11bd B5040000 		.4byte	0x4b5
 5595 11c1 32060000 		.4byte	.LLST38
 5596 11c5 27       		.uleb128 0x27
 5597 11c6 03020000 		.4byte	.LASF192
 5598 11ca 01       		.byte	0x1
 5599 11cb D8       		.byte	0xd8
 5600 11cc 91030000 		.4byte	0x391
 5601 11d0 89060000 		.4byte	.LLST39
 5602 11d4 27       		.uleb128 0x27
 5603 11d5 ED060000 		.4byte	.LASF193
 5604 11d9 01       		.byte	0x1
 5605 11da D9       		.byte	0xd9
 5606 11db 75050000 		.4byte	0x575
 5607 11df BF060000 		.4byte	.LLST40
 5608 11e3 27       		.uleb128 0x27
 5609 11e4 B2050000 		.4byte	.LASF194
 5610 11e8 01       		.byte	0x1
 5611 11e9 DA       		.byte	0xda
 5612 11ea DF040000 		.4byte	0x4df
 5613 11ee F5060000 		.4byte	.LLST41
 5614 11f2 27       		.uleb128 0x27
 5615 11f3 020F0000 		.4byte	.LASF195
ARM GAS  C:\Users\MM1005~1\AppData\Local\Temp\cc36bet7.s 			page 128


 5616 11f7 01       		.byte	0x1
 5617 11f8 DB       		.byte	0xdb
 5618 11f9 09050000 		.4byte	0x509
 5619 11fd 36070000 		.4byte	.LLST42
 5620 1201 27       		.uleb128 0x27
 5621 1202 63090000 		.4byte	.LASF196
 5622 1206 01       		.byte	0x1
 5623 1207 DC       		.byte	0xdc
 5624 1208 39050000 		.4byte	0x539
 5625 120c 77070000 		.4byte	.LLST43
 5626 1210 27       		.uleb128 0x27
 5627 1211 10070000 		.4byte	.LASF197
 5628 1215 01       		.byte	0x1
 5629 1216 DD       		.byte	0xdd
 5630 1217 A5050000 		.4byte	0x5a5
 5631 121b C3070000 		.4byte	.LLST44
 5632 121f 27       		.uleb128 0x27
 5633 1220 F70C0000 		.4byte	.LASF198
 5634 1224 01       		.byte	0x1
 5635 1225 DE       		.byte	0xde
 5636 1226 BF000000 		.4byte	0xbf
 5637 122a 0F080000 		.4byte	.LLST45
 5638 122e 27       		.uleb128 0x27
 5639 122f AF0A0000 		.4byte	.LASF199
 5640 1233 01       		.byte	0x1
 5641 1234 DF       		.byte	0xdf
 5642 1235 BF000000 		.4byte	0xbf
 5643 1239 620D0000 		.4byte	.LLST46
 5644 123d 18       		.uleb128 0x18
 5645 123e 72656400 		.ascii	"red\000"
 5646 1242 01       		.byte	0x1
 5647 1243 E0       		.byte	0xe0
 5648 1244 5D000000 		.4byte	0x5d
 5649 1248 180E0000 		.4byte	.LLST47
 5650 124c 27       		.uleb128 0x27
 5651 124d 1B0A0000 		.4byte	.LASF200
 5652 1251 01       		.byte	0x1
 5653 1252 E1       		.byte	0xe1
 5654 1253 5D000000 		.4byte	0x5d
 5655 1257 500E0000 		.4byte	.LLST48
 5656 125b 27       		.uleb128 0x27
 5657 125c F40B0000 		.4byte	.LASF201
 5658 1260 01       		.byte	0x1
 5659 1261 E2       		.byte	0xe2
 5660 1262 5D000000 		.4byte	0x5d
 5661 1266 860E0000 		.4byte	.LLST49
 5662 126a 27       		.uleb128 0x27
 5663 126b 25030000 		.4byte	.LASF202
 5664 126f 01       		.byte	0x1
 5665 1270 E3       		.byte	0xe3
 5666 1271 5D000000 		.4byte	0x5d
 5667 1275 D20E0000 		.4byte	.LLST50
 5668 1279 27       		.uleb128 0x27
 5669 127a EA0D0000 		.4byte	.LASF203
 5670 127e 01       		.byte	0x1
 5671 127f E4       		.byte	0xe4
 5672 1280 5D000000 		.4byte	0x5d
ARM GAS  C:\Users\MM1005~1\AppData\Local\Temp\cc36bet7.s 			page 129


 5673 1284 1E0F0000 		.4byte	.LLST51
 5674 1288 1B       		.uleb128 0x1b
 5675 1289 FD080000 		.4byte	.LASF149
 5676 128d 01       		.byte	0x1
 5677 128e EB       		.byte	0xeb
 5678 128f EF030000 		.4byte	0x3ef
 5679 1293 02       		.uleb128 0x2
 5680 1294 91       		.byte	0x91
 5681 1295 5C       		.sleb128 -36
 5682 1296 1B       		.uleb128 0x1b
 5683 1297 84060000 		.4byte	.LASF204
 5684 129b 01       		.byte	0x1
 5685 129c EC       		.byte	0xec
 5686 129d 111F0000 		.4byte	0x1f11
 5687 12a1 03       		.uleb128 0x3
 5688 12a2 91       		.byte	0x91
 5689 12a3 AC7F     		.sleb128 -84
 5690 12a5 18       		.uleb128 0x18
 5691 12a6 6900     		.ascii	"i\000"
 5692 12a8 01       		.byte	0x1
 5693 12a9 ED       		.byte	0xed
 5694 12aa 5D000000 		.4byte	0x5d
 5695 12ae 540F0000 		.4byte	.LLST52
 5696 12b2 1C       		.uleb128 0x1c
 5697 12b3 0C000000 		.4byte	.LVL175
 5698 12b7 6F210000 		.4byte	0x216f
 5699 12bb CC120000 		.4byte	0x12cc
 5700 12bf 1A       		.uleb128 0x1a
 5701 12c0 01       		.uleb128 0x1
 5702 12c1 51       		.byte	0x51
 5703 12c2 02       		.uleb128 0x2
 5704 12c3 08       		.byte	0x8
 5705 12c4 2C       		.byte	0x2c
 5706 12c5 1A       		.uleb128 0x1a
 5707 12c6 01       		.uleb128 0x1
 5708 12c7 50       		.byte	0x50
 5709 12c8 02       		.uleb128 0x2
 5710 12c9 74       		.byte	0x74
 5711 12ca 00       		.sleb128 0
 5712 12cb 00       		.byte	0
 5713 12cc 1C       		.uleb128 0x1c
 5714 12cd 1A000000 		.4byte	.LVL177
 5715 12d1 5F090000 		.4byte	0x95f
 5716 12d5 E9120000 		.4byte	0x12e9
 5717 12d9 1A       		.uleb128 0x1a
 5718 12da 01       		.uleb128 0x1
 5719 12db 52       		.byte	0x52
 5720 12dc 05       		.uleb128 0x5
 5721 12dd 03       		.byte	0x3
 5722 12de 40010000 		.4byte	.LC69
 5723 12e2 1A       		.uleb128 0x1a
 5724 12e3 01       		.uleb128 0x1
 5725 12e4 51       		.byte	0x51
 5726 12e5 02       		.uleb128 0x2
 5727 12e6 74       		.byte	0x74
 5728 12e7 00       		.sleb128 0
 5729 12e8 00       		.byte	0
ARM GAS  C:\Users\MM1005~1\AppData\Local\Temp\cc36bet7.s 			page 130


 5730 12e9 1C       		.uleb128 0x1c
 5731 12ea 24000000 		.4byte	.LVL180
 5732 12ee EB050000 		.4byte	0x5eb
 5733 12f2 FD120000 		.4byte	0x12fd
 5734 12f6 1A       		.uleb128 0x1a
 5735 12f7 01       		.uleb128 0x1
 5736 12f8 50       		.byte	0x50
 5737 12f9 02       		.uleb128 0x2
 5738 12fa 75       		.byte	0x75
 5739 12fb 7F       		.sleb128 -1
 5740 12fc 00       		.byte	0
 5741 12fd 1C       		.uleb128 0x1c
 5742 12fe 3C000000 		.4byte	.LVL182
 5743 1302 5F090000 		.4byte	0x95f
 5744 1306 1F130000 		.4byte	0x131f
 5745 130a 1A       		.uleb128 0x1a
 5746 130b 01       		.uleb128 0x1
 5747 130c 52       		.byte	0x52
 5748 130d 05       		.uleb128 0x5
 5749 130e 03       		.byte	0x3
 5750 130f 5C010000 		.4byte	.LC72
 5751 1313 1A       		.uleb128 0x1a
 5752 1314 01       		.uleb128 0x1
 5753 1315 51       		.byte	0x51
 5754 1316 02       		.uleb128 0x2
 5755 1317 74       		.byte	0x74
 5756 1318 00       		.sleb128 0
 5757 1319 1A       		.uleb128 0x1a
 5758 131a 01       		.uleb128 0x1
 5759 131b 50       		.byte	0x50
 5760 131c 01       		.uleb128 0x1
 5761 131d 32       		.byte	0x32
 5762 131e 00       		.byte	0
 5763 131f 1C       		.uleb128 0x1c
 5764 1320 54000000 		.4byte	.LVL184
 5765 1324 5F090000 		.4byte	0x95f
 5766 1328 5A130000 		.4byte	0x135a
 5767 132c 1A       		.uleb128 0x1a
 5768 132d 01       		.uleb128 0x1
 5769 132e 52       		.byte	0x52
 5770 132f 10       		.uleb128 0x10
 5771 1330 74       		.byte	0x74
 5772 1331 00       		.sleb128 0
 5773 1332 31       		.byte	0x31
 5774 1333 24       		.byte	0x24
 5775 1334 74       		.byte	0x74
 5776 1335 00       		.sleb128 0
 5777 1336 22       		.byte	0x22
 5778 1337 32       		.byte	0x32
 5779 1338 24       		.byte	0x24
 5780 1339 03       		.byte	0x3
 5781 133a 40000000 		.4byte	.LANCHOR0+8
 5782 133e 22       		.byte	0x22
 5783 133f 06       		.byte	0x6
 5784 1340 1A       		.uleb128 0x1a
 5785 1341 01       		.uleb128 0x1
 5786 1342 51       		.byte	0x51
ARM GAS  C:\Users\MM1005~1\AppData\Local\Temp\cc36bet7.s 			page 131


 5787 1343 10       		.uleb128 0x10
 5788 1344 74       		.byte	0x74
 5789 1345 00       		.sleb128 0
 5790 1346 31       		.byte	0x31
 5791 1347 24       		.byte	0x24
 5792 1348 74       		.byte	0x74
 5793 1349 00       		.sleb128 0
 5794 134a 22       		.byte	0x22
 5795 134b 32       		.byte	0x32
 5796 134c 24       		.byte	0x24
 5797 134d 03       		.byte	0x3
 5798 134e 3C000000 		.4byte	.LANCHOR0+4
 5799 1352 22       		.byte	0x22
 5800 1353 06       		.byte	0x6
 5801 1354 1A       		.uleb128 0x1a
 5802 1355 01       		.uleb128 0x1
 5803 1356 50       		.byte	0x50
 5804 1357 01       		.uleb128 0x1
 5805 1358 30       		.byte	0x30
 5806 1359 00       		.byte	0
 5807 135a 1C       		.uleb128 0x1c
 5808 135b 6A000000 		.4byte	.LVL190
 5809 135f 7A200000 		.4byte	0x207a
 5810 1363 74130000 		.4byte	0x1374
 5811 1367 1A       		.uleb128 0x1a
 5812 1368 01       		.uleb128 0x1
 5813 1369 51       		.byte	0x51
 5814 136a 02       		.uleb128 0x2
 5815 136b 91       		.byte	0x91
 5816 136c 5C       		.sleb128 -36
 5817 136d 1A       		.uleb128 0x1a
 5818 136e 01       		.uleb128 0x1
 5819 136f 50       		.byte	0x50
 5820 1370 02       		.uleb128 0x2
 5821 1371 74       		.byte	0x74
 5822 1372 00       		.sleb128 0
 5823 1373 00       		.byte	0
 5824 1374 1C       		.uleb128 0x1c
 5825 1375 74000000 		.4byte	.LVL191
 5826 1379 5F090000 		.4byte	0x95f
 5827 137d 90130000 		.4byte	0x1390
 5828 1381 1A       		.uleb128 0x1a
 5829 1382 01       		.uleb128 0x1
 5830 1383 51       		.byte	0x51
 5831 1384 05       		.uleb128 0x5
 5832 1385 03       		.byte	0x3
 5833 1386 64010000 		.4byte	.LC75
 5834 138a 1A       		.uleb128 0x1a
 5835 138b 01       		.uleb128 0x1
 5836 138c 50       		.byte	0x50
 5837 138d 01       		.uleb128 0x1
 5838 138e 30       		.byte	0x30
 5839 138f 00       		.byte	0
 5840 1390 1C       		.uleb128 0x1c
 5841 1391 86000000 		.4byte	.LVL194
 5842 1395 6F210000 		.4byte	0x216f
 5843 1399 AA130000 		.4byte	0x13aa
ARM GAS  C:\Users\MM1005~1\AppData\Local\Temp\cc36bet7.s 			page 132


 5844 139d 1A       		.uleb128 0x1a
 5845 139e 01       		.uleb128 0x1
 5846 139f 51       		.byte	0x51
 5847 13a0 02       		.uleb128 0x2
 5848 13a1 08       		.byte	0x8
 5849 13a2 2C       		.byte	0x2c
 5850 13a3 1A       		.uleb128 0x1a
 5851 13a4 01       		.uleb128 0x1
 5852 13a5 50       		.byte	0x50
 5853 13a6 02       		.uleb128 0x2
 5854 13a7 75       		.byte	0x75
 5855 13a8 00       		.sleb128 0
 5856 13a9 00       		.byte	0
 5857 13aa 1C       		.uleb128 0x1c
 5858 13ab 94000000 		.4byte	.LVL196
 5859 13af 5F090000 		.4byte	0x95f
 5860 13b3 C7130000 		.4byte	0x13c7
 5861 13b7 1A       		.uleb128 0x1a
 5862 13b8 01       		.uleb128 0x1
 5863 13b9 52       		.byte	0x52
 5864 13ba 05       		.uleb128 0x5
 5865 13bb 03       		.byte	0x3
 5866 13bc 70010000 		.4byte	.LC77
 5867 13c0 1A       		.uleb128 0x1a
 5868 13c1 01       		.uleb128 0x1
 5869 13c2 51       		.byte	0x51
 5870 13c3 02       		.uleb128 0x2
 5871 13c4 74       		.byte	0x74
 5872 13c5 00       		.sleb128 0
 5873 13c6 00       		.byte	0
 5874 13c7 1C       		.uleb128 0x1c
 5875 13c8 A0000000 		.4byte	.LVL199
 5876 13cc 6F210000 		.4byte	0x216f
 5877 13d0 DB130000 		.4byte	0x13db
 5878 13d4 1A       		.uleb128 0x1a
 5879 13d5 01       		.uleb128 0x1
 5880 13d6 51       		.byte	0x51
 5881 13d7 02       		.uleb128 0x2
 5882 13d8 08       		.byte	0x8
 5883 13d9 3A       		.byte	0x3a
 5884 13da 00       		.byte	0
 5885 13db 1C       		.uleb128 0x1c
 5886 13dc AE000000 		.4byte	.LVL201
 5887 13e0 5F090000 		.4byte	0x95f
 5888 13e4 F8130000 		.4byte	0x13f8
 5889 13e8 1A       		.uleb128 0x1a
 5890 13e9 01       		.uleb128 0x1
 5891 13ea 52       		.byte	0x52
 5892 13eb 05       		.uleb128 0x5
 5893 13ec 03       		.byte	0x3
 5894 13ed 70010000 		.4byte	.LC77
 5895 13f1 1A       		.uleb128 0x1a
 5896 13f2 01       		.uleb128 0x1
 5897 13f3 51       		.byte	0x51
 5898 13f4 02       		.uleb128 0x2
 5899 13f5 74       		.byte	0x74
 5900 13f6 00       		.sleb128 0
ARM GAS  C:\Users\MM1005~1\AppData\Local\Temp\cc36bet7.s 			page 133


 5901 13f7 00       		.byte	0
 5902 13f8 1C       		.uleb128 0x1c
 5903 13f9 BA000000 		.4byte	.LVL204
 5904 13fd 53070000 		.4byte	0x753
 5905 1401 0C140000 		.4byte	0x140c
 5906 1405 1A       		.uleb128 0x1a
 5907 1406 01       		.uleb128 0x1
 5908 1407 50       		.byte	0x50
 5909 1408 02       		.uleb128 0x2
 5910 1409 75       		.byte	0x75
 5911 140a 00       		.sleb128 0
 5912 140b 00       		.byte	0
 5913 140c 1C       		.uleb128 0x1c
 5914 140d D2000000 		.4byte	.LVL206
 5915 1411 89210000 		.4byte	0x2189
 5916 1415 1F140000 		.4byte	0x141f
 5917 1419 1A       		.uleb128 0x1a
 5918 141a 01       		.uleb128 0x1
 5919 141b 50       		.byte	0x50
 5920 141c 01       		.uleb128 0x1
 5921 141d 31       		.byte	0x31
 5922 141e 00       		.byte	0
 5923 141f 1C       		.uleb128 0x1c
 5924 1420 DC000000 		.4byte	.LVL209
 5925 1424 89210000 		.4byte	0x2189
 5926 1428 32140000 		.4byte	0x1432
 5927 142c 1A       		.uleb128 0x1a
 5928 142d 01       		.uleb128 0x1
 5929 142e 50       		.byte	0x50
 5930 142f 01       		.uleb128 0x1
 5931 1430 30       		.byte	0x30
 5932 1431 00       		.byte	0
 5933 1432 1C       		.uleb128 0x1c
 5934 1433 E6000000 		.4byte	.LVL212
 5935 1437 9A210000 		.4byte	0x219a
 5936 143b 45140000 		.4byte	0x1445
 5937 143f 1A       		.uleb128 0x1a
 5938 1440 01       		.uleb128 0x1
 5939 1441 50       		.byte	0x50
 5940 1442 01       		.uleb128 0x1
 5941 1443 30       		.byte	0x30
 5942 1444 00       		.byte	0
 5943 1445 1C       		.uleb128 0x1c
 5944 1446 F0000000 		.4byte	.LVL215
 5945 144a 9A210000 		.4byte	0x219a
 5946 144e 58140000 		.4byte	0x1458
 5947 1452 1A       		.uleb128 0x1a
 5948 1453 01       		.uleb128 0x1
 5949 1454 50       		.byte	0x50
 5950 1455 01       		.uleb128 0x1
 5951 1456 31       		.byte	0x31
 5952 1457 00       		.byte	0
 5953 1458 1C       		.uleb128 0x1c
 5954 1459 FA000000 		.4byte	.LVL218
 5955 145d AD070000 		.4byte	0x7ad
 5956 1461 6C140000 		.4byte	0x146c
 5957 1465 1A       		.uleb128 0x1a
ARM GAS  C:\Users\MM1005~1\AppData\Local\Temp\cc36bet7.s 			page 134


 5958 1466 01       		.uleb128 0x1
 5959 1467 50       		.byte	0x50
 5960 1468 02       		.uleb128 0x2
 5961 1469 75       		.byte	0x75
 5962 146a 00       		.sleb128 0
 5963 146b 00       		.byte	0
 5964 146c 21       		.uleb128 0x21
 5965 146d 02010000 		.4byte	.LVL219
 5966 1471 AB210000 		.4byte	0x21ab
 5967 1475 1C       		.uleb128 0x1c
 5968 1476 10010000 		.4byte	.LVL222
 5969 147a 5F090000 		.4byte	0x95f
 5970 147e 97140000 		.4byte	0x1497
 5971 1482 1A       		.uleb128 0x1a
 5972 1483 01       		.uleb128 0x1
 5973 1484 52       		.byte	0x52
 5974 1485 05       		.uleb128 0x5
 5975 1486 03       		.byte	0x3
 5976 1487 70010000 		.4byte	.LC77
 5977 148b 1A       		.uleb128 0x1a
 5978 148c 01       		.uleb128 0x1
 5979 148d 51       		.byte	0x51
 5980 148e 02       		.uleb128 0x2
 5981 148f 74       		.byte	0x74
 5982 1490 00       		.sleb128 0
 5983 1491 1A       		.uleb128 0x1a
 5984 1492 01       		.uleb128 0x1
 5985 1493 50       		.byte	0x50
 5986 1494 01       		.uleb128 0x1
 5987 1495 32       		.byte	0x32
 5988 1496 00       		.byte	0
 5989 1497 1C       		.uleb128 0x1c
 5990 1498 1C010000 		.4byte	.LVL224
 5991 149c 6F210000 		.4byte	0x216f
 5992 14a0 B1140000 		.4byte	0x14b1
 5993 14a4 1A       		.uleb128 0x1a
 5994 14a5 01       		.uleb128 0x1
 5995 14a6 51       		.byte	0x51
 5996 14a7 02       		.uleb128 0x2
 5997 14a8 08       		.byte	0x8
 5998 14a9 2C       		.byte	0x2c
 5999 14aa 1A       		.uleb128 0x1a
 6000 14ab 01       		.uleb128 0x1
 6001 14ac 50       		.byte	0x50
 6002 14ad 02       		.uleb128 0x2
 6003 14ae 75       		.byte	0x75
 6004 14af 00       		.sleb128 0
 6005 14b0 00       		.byte	0
 6006 14b1 1C       		.uleb128 0x1c
 6007 14b2 2A010000 		.4byte	.LVL226
 6008 14b6 5F090000 		.4byte	0x95f
 6009 14ba CE140000 		.4byte	0x14ce
 6010 14be 1A       		.uleb128 0x1a
 6011 14bf 01       		.uleb128 0x1
 6012 14c0 52       		.byte	0x52
 6013 14c1 05       		.uleb128 0x5
 6014 14c2 03       		.byte	0x3
ARM GAS  C:\Users\MM1005~1\AppData\Local\Temp\cc36bet7.s 			page 135


 6015 14c3 90010000 		.4byte	.LC79
 6016 14c7 1A       		.uleb128 0x1a
 6017 14c8 01       		.uleb128 0x1
 6018 14c9 51       		.byte	0x51
 6019 14ca 02       		.uleb128 0x2
 6020 14cb 74       		.byte	0x74
 6021 14cc 00       		.sleb128 0
 6022 14cd 00       		.byte	0
 6023 14ce 1C       		.uleb128 0x1c
 6024 14cf 36010000 		.4byte	.LVL229
 6025 14d3 6F210000 		.4byte	0x216f
 6026 14d7 E2140000 		.4byte	0x14e2
 6027 14db 1A       		.uleb128 0x1a
 6028 14dc 01       		.uleb128 0x1
 6029 14dd 51       		.byte	0x51
 6030 14de 02       		.uleb128 0x2
 6031 14df 08       		.byte	0x8
 6032 14e0 3A       		.byte	0x3a
 6033 14e1 00       		.byte	0
 6034 14e2 1C       		.uleb128 0x1c
 6035 14e3 44010000 		.4byte	.LVL231
 6036 14e7 5F090000 		.4byte	0x95f
 6037 14eb FF140000 		.4byte	0x14ff
 6038 14ef 1A       		.uleb128 0x1a
 6039 14f0 01       		.uleb128 0x1
 6040 14f1 52       		.byte	0x52
 6041 14f2 05       		.uleb128 0x5
 6042 14f3 03       		.byte	0x3
 6043 14f4 90010000 		.4byte	.LC79
 6044 14f8 1A       		.uleb128 0x1a
 6045 14f9 01       		.uleb128 0x1
 6046 14fa 51       		.byte	0x51
 6047 14fb 02       		.uleb128 0x2
 6048 14fc 74       		.byte	0x74
 6049 14fd 00       		.sleb128 0
 6050 14fe 00       		.byte	0
 6051 14ff 21       		.uleb128 0x21
 6052 1500 4E010000 		.4byte	.LVL234
 6053 1504 1B080000 		.4byte	0x81b
 6054 1508 1C       		.uleb128 0x1c
 6055 1509 66010000 		.4byte	.LVL236
 6056 150d 5F090000 		.4byte	0x95f
 6057 1511 2A150000 		.4byte	0x152a
 6058 1515 1A       		.uleb128 0x1a
 6059 1516 01       		.uleb128 0x1
 6060 1517 52       		.byte	0x52
 6061 1518 05       		.uleb128 0x5
 6062 1519 03       		.byte	0x3
 6063 151a AC010000 		.4byte	.LC81
 6064 151e 1A       		.uleb128 0x1a
 6065 151f 01       		.uleb128 0x1
 6066 1520 51       		.byte	0x51
 6067 1521 02       		.uleb128 0x2
 6068 1522 74       		.byte	0x74
 6069 1523 00       		.sleb128 0
 6070 1524 1A       		.uleb128 0x1a
 6071 1525 01       		.uleb128 0x1
ARM GAS  C:\Users\MM1005~1\AppData\Local\Temp\cc36bet7.s 			page 136


 6072 1526 50       		.byte	0x50
 6073 1527 01       		.uleb128 0x1
 6074 1528 33       		.byte	0x33
 6075 1529 00       		.byte	0
 6076 152a 1C       		.uleb128 0x1c
 6077 152b 74010000 		.4byte	.LVL239
 6078 152f 5F090000 		.4byte	0x95f
 6079 1533 4C150000 		.4byte	0x154c
 6080 1537 1A       		.uleb128 0x1a
 6081 1538 01       		.uleb128 0x1
 6082 1539 52       		.byte	0x52
 6083 153a 05       		.uleb128 0x5
 6084 153b 03       		.byte	0x3
 6085 153c AC010000 		.4byte	.LC81
 6086 1540 1A       		.uleb128 0x1a
 6087 1541 01       		.uleb128 0x1
 6088 1542 51       		.byte	0x51
 6089 1543 02       		.uleb128 0x2
 6090 1544 74       		.byte	0x74
 6091 1545 00       		.sleb128 0
 6092 1546 1A       		.uleb128 0x1a
 6093 1547 01       		.uleb128 0x1
 6094 1548 50       		.byte	0x50
 6095 1549 01       		.uleb128 0x1
 6096 154a 33       		.byte	0x33
 6097 154b 00       		.byte	0
 6098 154c 1C       		.uleb128 0x1c
 6099 154d 82010000 		.4byte	.LVL242
 6100 1551 5F090000 		.4byte	0x95f
 6101 1555 6E150000 		.4byte	0x156e
 6102 1559 1A       		.uleb128 0x1a
 6103 155a 01       		.uleb128 0x1
 6104 155b 52       		.byte	0x52
 6105 155c 05       		.uleb128 0x5
 6106 155d 03       		.byte	0x3
 6107 155e AC010000 		.4byte	.LC81
 6108 1562 1A       		.uleb128 0x1a
 6109 1563 01       		.uleb128 0x1
 6110 1564 51       		.byte	0x51
 6111 1565 02       		.uleb128 0x2
 6112 1566 74       		.byte	0x74
 6113 1567 00       		.sleb128 0
 6114 1568 1A       		.uleb128 0x1a
 6115 1569 01       		.uleb128 0x1
 6116 156a 50       		.byte	0x50
 6117 156b 01       		.uleb128 0x1
 6118 156c 33       		.byte	0x33
 6119 156d 00       		.byte	0
 6120 156e 1C       		.uleb128 0x1c
 6121 156f 90010000 		.4byte	.LVL245
 6122 1573 5F090000 		.4byte	0x95f
 6123 1577 90150000 		.4byte	0x1590
 6124 157b 1A       		.uleb128 0x1a
 6125 157c 01       		.uleb128 0x1
 6126 157d 52       		.byte	0x52
 6127 157e 05       		.uleb128 0x5
 6128 157f 03       		.byte	0x3
ARM GAS  C:\Users\MM1005~1\AppData\Local\Temp\cc36bet7.s 			page 137


 6129 1580 C4010000 		.4byte	.LC83
 6130 1584 1A       		.uleb128 0x1a
 6131 1585 01       		.uleb128 0x1
 6132 1586 51       		.byte	0x51
 6133 1587 02       		.uleb128 0x2
 6134 1588 74       		.byte	0x74
 6135 1589 00       		.sleb128 0
 6136 158a 1A       		.uleb128 0x1a
 6137 158b 01       		.uleb128 0x1
 6138 158c 50       		.byte	0x50
 6139 158d 01       		.uleb128 0x1
 6140 158e 32       		.byte	0x32
 6141 158f 00       		.byte	0
 6142 1590 1C       		.uleb128 0x1c
 6143 1591 9A010000 		.4byte	.LVL247
 6144 1595 75080000 		.4byte	0x875
 6145 1599 A4150000 		.4byte	0x15a4
 6146 159d 1A       		.uleb128 0x1a
 6147 159e 01       		.uleb128 0x1
 6148 159f 50       		.byte	0x50
 6149 15a0 02       		.uleb128 0x2
 6150 15a1 75       		.byte	0x75
 6151 15a2 00       		.sleb128 0
 6152 15a3 00       		.byte	0
 6153 15a4 1C       		.uleb128 0x1c
 6154 15a5 B0010000 		.4byte	.LVL250
 6155 15a9 BC210000 		.4byte	0x21bc
 6156 15ad B7150000 		.4byte	0x15b7
 6157 15b1 1A       		.uleb128 0x1a
 6158 15b2 01       		.uleb128 0x1
 6159 15b3 50       		.byte	0x50
 6160 15b4 01       		.uleb128 0x1
 6161 15b5 30       		.byte	0x30
 6162 15b6 00       		.byte	0
 6163 15b7 1C       		.uleb128 0x1c
 6164 15b8 BC010000 		.4byte	.LVL251
 6165 15bc 6F210000 		.4byte	0x216f
 6166 15c0 D1150000 		.4byte	0x15d1
 6167 15c4 1A       		.uleb128 0x1a
 6168 15c5 01       		.uleb128 0x1
 6169 15c6 51       		.byte	0x51
 6170 15c7 02       		.uleb128 0x2
 6171 15c8 08       		.byte	0x8
 6172 15c9 2C       		.byte	0x2c
 6173 15ca 1A       		.uleb128 0x1a
 6174 15cb 01       		.uleb128 0x1
 6175 15cc 50       		.byte	0x50
 6176 15cd 02       		.uleb128 0x2
 6177 15ce 75       		.byte	0x75
 6178 15cf 00       		.sleb128 0
 6179 15d0 00       		.byte	0
 6180 15d1 1C       		.uleb128 0x1c
 6181 15d2 CA010000 		.4byte	.LVL253
 6182 15d6 5F090000 		.4byte	0x95f
 6183 15da EE150000 		.4byte	0x15ee
 6184 15de 1A       		.uleb128 0x1a
 6185 15df 01       		.uleb128 0x1
ARM GAS  C:\Users\MM1005~1\AppData\Local\Temp\cc36bet7.s 			page 138


 6186 15e0 52       		.byte	0x52
 6187 15e1 05       		.uleb128 0x5
 6188 15e2 03       		.byte	0x3
 6189 15e3 70010000 		.4byte	.LC77
 6190 15e7 1A       		.uleb128 0x1a
 6191 15e8 01       		.uleb128 0x1
 6192 15e9 51       		.byte	0x51
 6193 15ea 02       		.uleb128 0x2
 6194 15eb 74       		.byte	0x74
 6195 15ec 00       		.sleb128 0
 6196 15ed 00       		.byte	0
 6197 15ee 1C       		.uleb128 0x1c
 6198 15ef D6010000 		.4byte	.LVL256
 6199 15f3 6F210000 		.4byte	0x216f
 6200 15f7 02160000 		.4byte	0x1602
 6201 15fb 1A       		.uleb128 0x1a
 6202 15fc 01       		.uleb128 0x1
 6203 15fd 51       		.byte	0x51
 6204 15fe 02       		.uleb128 0x2
 6205 15ff 08       		.byte	0x8
 6206 1600 3A       		.byte	0x3a
 6207 1601 00       		.byte	0
 6208 1602 1C       		.uleb128 0x1c
 6209 1603 E4010000 		.4byte	.LVL258
 6210 1607 5F090000 		.4byte	0x95f
 6211 160b 1F160000 		.4byte	0x161f
 6212 160f 1A       		.uleb128 0x1a
 6213 1610 01       		.uleb128 0x1
 6214 1611 52       		.byte	0x52
 6215 1612 05       		.uleb128 0x5
 6216 1613 03       		.byte	0x3
 6217 1614 E4010000 		.4byte	.LC86
 6218 1618 1A       		.uleb128 0x1a
 6219 1619 01       		.uleb128 0x1
 6220 161a 51       		.byte	0x51
 6221 161b 02       		.uleb128 0x2
 6222 161c 74       		.byte	0x74
 6223 161d 00       		.sleb128 0
 6224 161e 00       		.byte	0
 6225 161f 1C       		.uleb128 0x1c
 6226 1620 F0010000 		.4byte	.LVL261
 6227 1624 6F210000 		.4byte	0x216f
 6228 1628 33160000 		.4byte	0x1633
 6229 162c 1A       		.uleb128 0x1a
 6230 162d 01       		.uleb128 0x1
 6231 162e 51       		.byte	0x51
 6232 162f 02       		.uleb128 0x2
 6233 1630 08       		.byte	0x8
 6234 1631 3A       		.byte	0x3a
 6235 1632 00       		.byte	0
 6236 1633 1C       		.uleb128 0x1c
 6237 1634 FE010000 		.4byte	.LVL263
 6238 1638 5F090000 		.4byte	0x95f
 6239 163c 50160000 		.4byte	0x1650
 6240 1640 1A       		.uleb128 0x1a
 6241 1641 01       		.uleb128 0x1
 6242 1642 52       		.byte	0x52
ARM GAS  C:\Users\MM1005~1\AppData\Local\Temp\cc36bet7.s 			page 139


 6243 1643 05       		.uleb128 0x5
 6244 1644 03       		.byte	0x3
 6245 1645 E4010000 		.4byte	.LC86
 6246 1649 1A       		.uleb128 0x1a
 6247 164a 01       		.uleb128 0x1
 6248 164b 51       		.byte	0x51
 6249 164c 02       		.uleb128 0x2
 6250 164d 74       		.byte	0x74
 6251 164e 00       		.sleb128 0
 6252 164f 00       		.byte	0
 6253 1650 1C       		.uleb128 0x1c
 6254 1651 0C020000 		.4byte	.LVL266
 6255 1655 6F210000 		.4byte	0x216f
 6256 1659 6A160000 		.4byte	0x166a
 6257 165d 1A       		.uleb128 0x1a
 6258 165e 01       		.uleb128 0x1
 6259 165f 51       		.byte	0x51
 6260 1660 02       		.uleb128 0x2
 6261 1661 08       		.byte	0x8
 6262 1662 2C       		.byte	0x2c
 6263 1663 1A       		.uleb128 0x1a
 6264 1664 01       		.uleb128 0x1
 6265 1665 50       		.byte	0x50
 6266 1666 02       		.uleb128 0x2
 6267 1667 75       		.byte	0x75
 6268 1668 00       		.sleb128 0
 6269 1669 00       		.byte	0
 6270 166a 1C       		.uleb128 0x1c
 6271 166b 1A020000 		.4byte	.LVL268
 6272 166f 5F090000 		.4byte	0x95f
 6273 1673 87160000 		.4byte	0x1687
 6274 1677 1A       		.uleb128 0x1a
 6275 1678 01       		.uleb128 0x1
 6276 1679 52       		.byte	0x52
 6277 167a 05       		.uleb128 0x5
 6278 167b 03       		.byte	0x3
 6279 167c E4010000 		.4byte	.LC86
 6280 1680 1A       		.uleb128 0x1a
 6281 1681 01       		.uleb128 0x1
 6282 1682 51       		.byte	0x51
 6283 1683 02       		.uleb128 0x2
 6284 1684 74       		.byte	0x74
 6285 1685 00       		.sleb128 0
 6286 1686 00       		.byte	0
 6287 1687 1C       		.uleb128 0x1c
 6288 1688 2A020000 		.4byte	.LVL271
 6289 168c CD210000 		.4byte	0x21cd
 6290 1690 9B160000 		.4byte	0x169b
 6291 1694 1A       		.uleb128 0x1a
 6292 1695 01       		.uleb128 0x1
 6293 1696 50       		.byte	0x50
 6294 1697 02       		.uleb128 0x2
 6295 1698 75       		.byte	0x75
 6296 1699 00       		.sleb128 0
 6297 169a 00       		.byte	0
 6298 169b 1C       		.uleb128 0x1c
 6299 169c 34020000 		.4byte	.LVL274
ARM GAS  C:\Users\MM1005~1\AppData\Local\Temp\cc36bet7.s 			page 140


 6300 16a0 6F210000 		.4byte	0x216f
 6301 16a4 B5160000 		.4byte	0x16b5
 6302 16a8 1A       		.uleb128 0x1a
 6303 16a9 01       		.uleb128 0x1
 6304 16aa 51       		.byte	0x51
 6305 16ab 02       		.uleb128 0x2
 6306 16ac 08       		.byte	0x8
 6307 16ad 3A       		.byte	0x3a
 6308 16ae 1A       		.uleb128 0x1a
 6309 16af 01       		.uleb128 0x1
 6310 16b0 50       		.byte	0x50
 6311 16b1 02       		.uleb128 0x2
 6312 16b2 77       		.byte	0x77
 6313 16b3 00       		.sleb128 0
 6314 16b4 00       		.byte	0
 6315 16b5 1C       		.uleb128 0x1c
 6316 16b6 42020000 		.4byte	.LVL276
 6317 16ba 5F090000 		.4byte	0x95f
 6318 16be D2160000 		.4byte	0x16d2
 6319 16c2 1A       		.uleb128 0x1a
 6320 16c3 01       		.uleb128 0x1
 6321 16c4 52       		.byte	0x52
 6322 16c5 05       		.uleb128 0x5
 6323 16c6 03       		.byte	0x3
 6324 16c7 04020000 		.4byte	.LC88
 6325 16cb 1A       		.uleb128 0x1a
 6326 16cc 01       		.uleb128 0x1
 6327 16cd 51       		.byte	0x51
 6328 16ce 02       		.uleb128 0x2
 6329 16cf 74       		.byte	0x74
 6330 16d0 00       		.sleb128 0
 6331 16d1 00       		.byte	0
 6332 16d2 1C       		.uleb128 0x1c
 6333 16d3 50020000 		.4byte	.LVL279
 6334 16d7 6F210000 		.4byte	0x216f
 6335 16db EC160000 		.4byte	0x16ec
 6336 16df 1A       		.uleb128 0x1a
 6337 16e0 01       		.uleb128 0x1
 6338 16e1 51       		.byte	0x51
 6339 16e2 02       		.uleb128 0x2
 6340 16e3 08       		.byte	0x8
 6341 16e4 2C       		.byte	0x2c
 6342 16e5 1A       		.uleb128 0x1a
 6343 16e6 01       		.uleb128 0x1
 6344 16e7 50       		.byte	0x50
 6345 16e8 02       		.uleb128 0x2
 6346 16e9 77       		.byte	0x77
 6347 16ea 00       		.sleb128 0
 6348 16eb 00       		.byte	0
 6349 16ec 1C       		.uleb128 0x1c
 6350 16ed 5E020000 		.4byte	.LVL281
 6351 16f1 5F090000 		.4byte	0x95f
 6352 16f5 09170000 		.4byte	0x1709
 6353 16f9 1A       		.uleb128 0x1a
 6354 16fa 01       		.uleb128 0x1
 6355 16fb 52       		.byte	0x52
 6356 16fc 05       		.uleb128 0x5
ARM GAS  C:\Users\MM1005~1\AppData\Local\Temp\cc36bet7.s 			page 141


 6357 16fd 03       		.byte	0x3
 6358 16fe 28020000 		.4byte	.LC90
 6359 1702 1A       		.uleb128 0x1a
 6360 1703 01       		.uleb128 0x1
 6361 1704 51       		.byte	0x51
 6362 1705 02       		.uleb128 0x2
 6363 1706 74       		.byte	0x74
 6364 1707 00       		.sleb128 0
 6365 1708 00       		.byte	0
 6366 1709 1C       		.uleb128 0x1c
 6367 170a 6E020000 		.4byte	.LVL284
 6368 170e CD210000 		.4byte	0x21cd
 6369 1712 1D170000 		.4byte	0x171d
 6370 1716 1A       		.uleb128 0x1a
 6371 1717 01       		.uleb128 0x1
 6372 1718 50       		.byte	0x50
 6373 1719 02       		.uleb128 0x2
 6374 171a 77       		.byte	0x77
 6375 171b 00       		.sleb128 0
 6376 171c 00       		.byte	0
 6377 171d 1C       		.uleb128 0x1c
 6378 171e 78020000 		.4byte	.LVL287
 6379 1722 6F210000 		.4byte	0x216f
 6380 1726 37170000 		.4byte	0x1737
 6381 172a 1A       		.uleb128 0x1a
 6382 172b 01       		.uleb128 0x1
 6383 172c 51       		.byte	0x51
 6384 172d 02       		.uleb128 0x2
 6385 172e 08       		.byte	0x8
 6386 172f 3A       		.byte	0x3a
 6387 1730 1A       		.uleb128 0x1a
 6388 1731 01       		.uleb128 0x1
 6389 1732 50       		.byte	0x50
 6390 1733 02       		.uleb128 0x2
 6391 1734 75       		.byte	0x75
 6392 1735 00       		.sleb128 0
 6393 1736 00       		.byte	0
 6394 1737 1C       		.uleb128 0x1c
 6395 1738 86020000 		.4byte	.LVL289
 6396 173c 5F090000 		.4byte	0x95f
 6397 1740 54170000 		.4byte	0x1754
 6398 1744 1A       		.uleb128 0x1a
 6399 1745 01       		.uleb128 0x1
 6400 1746 52       		.byte	0x52
 6401 1747 05       		.uleb128 0x5
 6402 1748 03       		.byte	0x3
 6403 1749 04020000 		.4byte	.LC88
 6404 174d 1A       		.uleb128 0x1a
 6405 174e 01       		.uleb128 0x1
 6406 174f 51       		.byte	0x51
 6407 1750 02       		.uleb128 0x2
 6408 1751 74       		.byte	0x74
 6409 1752 00       		.sleb128 0
 6410 1753 00       		.byte	0
 6411 1754 21       		.uleb128 0x21
 6412 1755 90020000 		.4byte	.LVL292
 6413 1759 CD210000 		.4byte	0x21cd
ARM GAS  C:\Users\MM1005~1\AppData\Local\Temp\cc36bet7.s 			page 142


 6414 175d 1C       		.uleb128 0x1c
 6415 175e A0020000 		.4byte	.LVL295
 6416 1762 E2210000 		.4byte	0x21e2
 6417 1766 78170000 		.4byte	0x1778
 6418 176a 1A       		.uleb128 0x1a
 6419 176b 01       		.uleb128 0x1
 6420 176c 51       		.byte	0x51
 6421 176d 04       		.uleb128 0x4
 6422 176e 7D       		.byte	0x7d
 6423 176f 04       		.sleb128 4
 6424 1770 94       		.byte	0x94
 6425 1771 02       		.byte	0x2
 6426 1772 1A       		.uleb128 0x1a
 6427 1773 01       		.uleb128 0x1
 6428 1774 50       		.byte	0x50
 6429 1775 01       		.uleb128 0x1
 6430 1776 45       		.byte	0x45
 6431 1777 00       		.byte	0
 6432 1778 1C       		.uleb128 0x1c
 6433 1779 A8020000 		.4byte	.LVL296
 6434 177d E2210000 		.4byte	0x21e2
 6435 1781 91170000 		.4byte	0x1791
 6436 1785 1A       		.uleb128 0x1a
 6437 1786 01       		.uleb128 0x1
 6438 1787 51       		.byte	0x51
 6439 1788 02       		.uleb128 0x2
 6440 1789 77       		.byte	0x77
 6441 178a 00       		.sleb128 0
 6442 178b 1A       		.uleb128 0x1a
 6443 178c 01       		.uleb128 0x1
 6444 178d 50       		.byte	0x50
 6445 178e 01       		.uleb128 0x1
 6446 178f 46       		.byte	0x46
 6447 1790 00       		.byte	0
 6448 1791 1C       		.uleb128 0x1c
 6449 1792 B0020000 		.4byte	.LVL297
 6450 1796 E2210000 		.4byte	0x21e2
 6451 179a AA170000 		.4byte	0x17aa
 6452 179e 1A       		.uleb128 0x1a
 6453 179f 01       		.uleb128 0x1
 6454 17a0 51       		.byte	0x51
 6455 17a1 02       		.uleb128 0x2
 6456 17a2 74       		.byte	0x74
 6457 17a3 00       		.sleb128 0
 6458 17a4 1A       		.uleb128 0x1a
 6459 17a5 01       		.uleb128 0x1
 6460 17a6 50       		.byte	0x50
 6461 17a7 01       		.uleb128 0x1
 6462 17a8 47       		.byte	0x47
 6463 17a9 00       		.byte	0
 6464 17aa 1C       		.uleb128 0x1c
 6465 17ab BE020000 		.4byte	.LVL300
 6466 17af E2210000 		.4byte	0x21e2
 6467 17b3 C5170000 		.4byte	0x17c5
 6468 17b7 1A       		.uleb128 0x1a
 6469 17b8 01       		.uleb128 0x1
 6470 17b9 51       		.byte	0x51
ARM GAS  C:\Users\MM1005~1\AppData\Local\Temp\cc36bet7.s 			page 143


 6471 17ba 04       		.uleb128 0x4
 6472 17bb 7D       		.byte	0x7d
 6473 17bc 04       		.sleb128 4
 6474 17bd 94       		.byte	0x94
 6475 17be 02       		.byte	0x2
 6476 17bf 1A       		.uleb128 0x1a
 6477 17c0 01       		.uleb128 0x1
 6478 17c1 50       		.byte	0x50
 6479 17c2 01       		.uleb128 0x1
 6480 17c3 42       		.byte	0x42
 6481 17c4 00       		.byte	0
 6482 17c5 1C       		.uleb128 0x1c
 6483 17c6 C6020000 		.4byte	.LVL301
 6484 17ca E2210000 		.4byte	0x21e2
 6485 17ce DE170000 		.4byte	0x17de
 6486 17d2 1A       		.uleb128 0x1a
 6487 17d3 01       		.uleb128 0x1
 6488 17d4 51       		.byte	0x51
 6489 17d5 02       		.uleb128 0x2
 6490 17d6 77       		.byte	0x77
 6491 17d7 00       		.sleb128 0
 6492 17d8 1A       		.uleb128 0x1a
 6493 17d9 01       		.uleb128 0x1
 6494 17da 50       		.byte	0x50
 6495 17db 01       		.uleb128 0x1
 6496 17dc 43       		.byte	0x43
 6497 17dd 00       		.byte	0
 6498 17de 1C       		.uleb128 0x1c
 6499 17df CE020000 		.4byte	.LVL302
 6500 17e3 E2210000 		.4byte	0x21e2
 6501 17e7 F7170000 		.4byte	0x17f7
 6502 17eb 1A       		.uleb128 0x1a
 6503 17ec 01       		.uleb128 0x1
 6504 17ed 51       		.byte	0x51
 6505 17ee 02       		.uleb128 0x2
 6506 17ef 74       		.byte	0x74
 6507 17f0 00       		.sleb128 0
 6508 17f1 1A       		.uleb128 0x1a
 6509 17f2 01       		.uleb128 0x1
 6510 17f3 50       		.byte	0x50
 6511 17f4 01       		.uleb128 0x1
 6512 17f5 44       		.byte	0x44
 6513 17f6 00       		.byte	0
 6514 17f7 1C       		.uleb128 0x1c
 6515 17f8 DA020000 		.4byte	.LVL304
 6516 17fc 6F210000 		.4byte	0x216f
 6517 1800 11180000 		.4byte	0x1811
 6518 1804 1A       		.uleb128 0x1a
 6519 1805 01       		.uleb128 0x1
 6520 1806 51       		.byte	0x51
 6521 1807 02       		.uleb128 0x2
 6522 1808 08       		.byte	0x8
 6523 1809 2C       		.byte	0x2c
 6524 180a 1A       		.uleb128 0x1a
 6525 180b 01       		.uleb128 0x1
 6526 180c 50       		.byte	0x50
 6527 180d 02       		.uleb128 0x2
ARM GAS  C:\Users\MM1005~1\AppData\Local\Temp\cc36bet7.s 			page 144


 6528 180e 75       		.byte	0x75
 6529 180f 00       		.sleb128 0
 6530 1810 00       		.byte	0
 6531 1811 1C       		.uleb128 0x1c
 6532 1812 E8020000 		.4byte	.LVL306
 6533 1816 5F090000 		.4byte	0x95f
 6534 181a 2E180000 		.4byte	0x182e
 6535 181e 1A       		.uleb128 0x1a
 6536 181f 01       		.uleb128 0x1
 6537 1820 52       		.byte	0x52
 6538 1821 05       		.uleb128 0x5
 6539 1822 03       		.byte	0x3
 6540 1823 70010000 		.4byte	.LC77
 6541 1827 1A       		.uleb128 0x1a
 6542 1828 01       		.uleb128 0x1
 6543 1829 51       		.byte	0x51
 6544 182a 02       		.uleb128 0x2
 6545 182b 74       		.byte	0x74
 6546 182c 00       		.sleb128 0
 6547 182d 00       		.byte	0
 6548 182e 1C       		.uleb128 0x1c
 6549 182f F4020000 		.4byte	.LVL309
 6550 1833 6F210000 		.4byte	0x216f
 6551 1837 42180000 		.4byte	0x1842
 6552 183b 1A       		.uleb128 0x1a
 6553 183c 01       		.uleb128 0x1
 6554 183d 51       		.byte	0x51
 6555 183e 02       		.uleb128 0x2
 6556 183f 08       		.byte	0x8
 6557 1840 3A       		.byte	0x3a
 6558 1841 00       		.byte	0
 6559 1842 1C       		.uleb128 0x1c
 6560 1843 02030000 		.4byte	.LVL311
 6561 1847 5F090000 		.4byte	0x95f
 6562 184b 5F180000 		.4byte	0x185f
 6563 184f 1A       		.uleb128 0x1a
 6564 1850 01       		.uleb128 0x1
 6565 1851 52       		.byte	0x52
 6566 1852 05       		.uleb128 0x5
 6567 1853 03       		.byte	0x3
 6568 1854 4C020000 		.4byte	.LC92
 6569 1858 1A       		.uleb128 0x1a
 6570 1859 01       		.uleb128 0x1
 6571 185a 51       		.byte	0x51
 6572 185b 02       		.uleb128 0x2
 6573 185c 74       		.byte	0x74
 6574 185d 00       		.sleb128 0
 6575 185e 00       		.byte	0
 6576 185f 1C       		.uleb128 0x1c
 6577 1860 0E030000 		.4byte	.LVL314
 6578 1864 6F210000 		.4byte	0x216f
 6579 1868 73180000 		.4byte	0x1873
 6580 186c 1A       		.uleb128 0x1a
 6581 186d 01       		.uleb128 0x1
 6582 186e 51       		.byte	0x51
 6583 186f 02       		.uleb128 0x2
 6584 1870 08       		.byte	0x8
ARM GAS  C:\Users\MM1005~1\AppData\Local\Temp\cc36bet7.s 			page 145


 6585 1871 3A       		.byte	0x3a
 6586 1872 00       		.byte	0
 6587 1873 1C       		.uleb128 0x1c
 6588 1874 1C030000 		.4byte	.LVL316
 6589 1878 5F090000 		.4byte	0x95f
 6590 187c 90180000 		.4byte	0x1890
 6591 1880 1A       		.uleb128 0x1a
 6592 1881 01       		.uleb128 0x1
 6593 1882 52       		.byte	0x52
 6594 1883 05       		.uleb128 0x5
 6595 1884 03       		.byte	0x3
 6596 1885 68020000 		.4byte	.LC94
 6597 1889 1A       		.uleb128 0x1a
 6598 188a 01       		.uleb128 0x1
 6599 188b 51       		.byte	0x51
 6600 188c 02       		.uleb128 0x2
 6601 188d 74       		.byte	0x74
 6602 188e 00       		.sleb128 0
 6603 188f 00       		.byte	0
 6604 1890 1C       		.uleb128 0x1c
 6605 1891 2A030000 		.4byte	.LVL319
 6606 1895 6F210000 		.4byte	0x216f
 6607 1899 AA180000 		.4byte	0x18aa
 6608 189d 1A       		.uleb128 0x1a
 6609 189e 01       		.uleb128 0x1
 6610 189f 51       		.byte	0x51
 6611 18a0 02       		.uleb128 0x2
 6612 18a1 08       		.byte	0x8
 6613 18a2 2C       		.byte	0x2c
 6614 18a3 1A       		.uleb128 0x1a
 6615 18a4 01       		.uleb128 0x1
 6616 18a5 50       		.byte	0x50
 6617 18a6 02       		.uleb128 0x2
 6618 18a7 76       		.byte	0x76
 6619 18a8 00       		.sleb128 0
 6620 18a9 00       		.byte	0
 6621 18aa 1C       		.uleb128 0x1c
 6622 18ab 38030000 		.4byte	.LVL321
 6623 18af 5F090000 		.4byte	0x95f
 6624 18b3 C7180000 		.4byte	0x18c7
 6625 18b7 1A       		.uleb128 0x1a
 6626 18b8 01       		.uleb128 0x1
 6627 18b9 52       		.byte	0x52
 6628 18ba 05       		.uleb128 0x5
 6629 18bb 03       		.byte	0x3
 6630 18bc 68020000 		.4byte	.LC94
 6631 18c0 1A       		.uleb128 0x1a
 6632 18c1 01       		.uleb128 0x1
 6633 18c2 51       		.byte	0x51
 6634 18c3 02       		.uleb128 0x2
 6635 18c4 74       		.byte	0x74
 6636 18c5 00       		.sleb128 0
 6637 18c6 00       		.byte	0
 6638 18c7 1C       		.uleb128 0x1c
 6639 18c8 84030000 		.4byte	.LVL324
 6640 18cc CD210000 		.4byte	0x21cd
 6641 18d0 DB180000 		.4byte	0x18db
ARM GAS  C:\Users\MM1005~1\AppData\Local\Temp\cc36bet7.s 			page 146


 6642 18d4 1A       		.uleb128 0x1a
 6643 18d5 01       		.uleb128 0x1
 6644 18d6 50       		.byte	0x50
 6645 18d7 02       		.uleb128 0x2
 6646 18d8 76       		.byte	0x76
 6647 18d9 00       		.sleb128 0
 6648 18da 00       		.byte	0
 6649 18db 1C       		.uleb128 0x1c
 6650 18dc 94030000 		.4byte	.LVL327
 6651 18e0 5F090000 		.4byte	0x95f
 6652 18e4 FD180000 		.4byte	0x18fd
 6653 18e8 1A       		.uleb128 0x1a
 6654 18e9 01       		.uleb128 0x1
 6655 18ea 52       		.byte	0x52
 6656 18eb 05       		.uleb128 0x5
 6657 18ec 03       		.byte	0x3
 6658 18ed 80020000 		.4byte	.LC96
 6659 18f1 1A       		.uleb128 0x1a
 6660 18f2 01       		.uleb128 0x1
 6661 18f3 51       		.byte	0x51
 6662 18f4 02       		.uleb128 0x2
 6663 18f5 74       		.byte	0x74
 6664 18f6 00       		.sleb128 0
 6665 18f7 1A       		.uleb128 0x1a
 6666 18f8 01       		.uleb128 0x1
 6667 18f9 50       		.byte	0x50
 6668 18fa 01       		.uleb128 0x1
 6669 18fb 32       		.byte	0x32
 6670 18fc 00       		.byte	0
 6671 18fd 1C       		.uleb128 0x1c
 6672 18fe A0030000 		.4byte	.LVL330
 6673 1902 6F210000 		.4byte	0x216f
 6674 1906 17190000 		.4byte	0x1917
 6675 190a 1A       		.uleb128 0x1a
 6676 190b 01       		.uleb128 0x1
 6677 190c 51       		.byte	0x51
 6678 190d 02       		.uleb128 0x2
 6679 190e 08       		.byte	0x8
 6680 190f 3A       		.byte	0x3a
 6681 1910 1A       		.uleb128 0x1a
 6682 1911 01       		.uleb128 0x1
 6683 1912 50       		.byte	0x50
 6684 1913 02       		.uleb128 0x2
 6685 1914 75       		.byte	0x75
 6686 1915 00       		.sleb128 0
 6687 1916 00       		.byte	0
 6688 1917 1C       		.uleb128 0x1c
 6689 1918 AE030000 		.4byte	.LVL332
 6690 191c 5F090000 		.4byte	0x95f
 6691 1920 34190000 		.4byte	0x1934
 6692 1924 1A       		.uleb128 0x1a
 6693 1925 01       		.uleb128 0x1
 6694 1926 52       		.byte	0x52
 6695 1927 05       		.uleb128 0x5
 6696 1928 03       		.byte	0x3
 6697 1929 04020000 		.4byte	.LC88
 6698 192d 1A       		.uleb128 0x1a
ARM GAS  C:\Users\MM1005~1\AppData\Local\Temp\cc36bet7.s 			page 147


 6699 192e 01       		.uleb128 0x1
 6700 192f 51       		.byte	0x51
 6701 1930 02       		.uleb128 0x2
 6702 1931 74       		.byte	0x74
 6703 1932 00       		.sleb128 0
 6704 1933 00       		.byte	0
 6705 1934 21       		.uleb128 0x21
 6706 1935 B8030000 		.4byte	.LVL335
 6707 1939 CD210000 		.4byte	0x21cd
 6708 193d 1C       		.uleb128 0x1c
 6709 193e C2030000 		.4byte	.LVL339
 6710 1942 E2210000 		.4byte	0x21e2
 6711 1946 51190000 		.4byte	0x1951
 6712 194a 1A       		.uleb128 0x1a
 6713 194b 01       		.uleb128 0x1
 6714 194c 50       		.byte	0x50
 6715 194d 02       		.uleb128 0x2
 6716 194e 76       		.byte	0x76
 6717 194f 00       		.sleb128 0
 6718 1950 00       		.byte	0
 6719 1951 1C       		.uleb128 0x1c
 6720 1952 CE030000 		.4byte	.LVL341
 6721 1956 6F210000 		.4byte	0x216f
 6722 195a 6B190000 		.4byte	0x196b
 6723 195e 1A       		.uleb128 0x1a
 6724 195f 01       		.uleb128 0x1
 6725 1960 51       		.byte	0x51
 6726 1961 02       		.uleb128 0x2
 6727 1962 08       		.byte	0x8
 6728 1963 2C       		.byte	0x2c
 6729 1964 1A       		.uleb128 0x1a
 6730 1965 01       		.uleb128 0x1
 6731 1966 50       		.byte	0x50
 6732 1967 02       		.uleb128 0x2
 6733 1968 75       		.byte	0x75
 6734 1969 00       		.sleb128 0
 6735 196a 00       		.byte	0
 6736 196b 1C       		.uleb128 0x1c
 6737 196c DC030000 		.4byte	.LVL343
 6738 1970 5F090000 		.4byte	0x95f
 6739 1974 88190000 		.4byte	0x1988
 6740 1978 1A       		.uleb128 0x1a
 6741 1979 01       		.uleb128 0x1
 6742 197a 52       		.byte	0x52
 6743 197b 05       		.uleb128 0x5
 6744 197c 03       		.byte	0x3
 6745 197d 94020000 		.4byte	.LC98
 6746 1981 1A       		.uleb128 0x1a
 6747 1982 01       		.uleb128 0x1
 6748 1983 51       		.byte	0x51
 6749 1984 02       		.uleb128 0x2
 6750 1985 74       		.byte	0x74
 6751 1986 00       		.sleb128 0
 6752 1987 00       		.byte	0
 6753 1988 1C       		.uleb128 0x1c
 6754 1989 E8030000 		.4byte	.LVL346
 6755 198d 6F210000 		.4byte	0x216f
ARM GAS  C:\Users\MM1005~1\AppData\Local\Temp\cc36bet7.s 			page 148


 6756 1991 9C190000 		.4byte	0x199c
 6757 1995 1A       		.uleb128 0x1a
 6758 1996 01       		.uleb128 0x1
 6759 1997 51       		.byte	0x51
 6760 1998 02       		.uleb128 0x2
 6761 1999 08       		.byte	0x8
 6762 199a 2C       		.byte	0x2c
 6763 199b 00       		.byte	0
 6764 199c 1C       		.uleb128 0x1c
 6765 199d F6030000 		.4byte	.LVL348
 6766 19a1 5F090000 		.4byte	0x95f
 6767 19a5 B9190000 		.4byte	0x19b9
 6768 19a9 1A       		.uleb128 0x1a
 6769 19aa 01       		.uleb128 0x1
 6770 19ab 52       		.byte	0x52
 6771 19ac 05       		.uleb128 0x5
 6772 19ad 03       		.byte	0x3
 6773 19ae 94020000 		.4byte	.LC98
 6774 19b2 1A       		.uleb128 0x1a
 6775 19b3 01       		.uleb128 0x1
 6776 19b4 51       		.byte	0x51
 6777 19b5 02       		.uleb128 0x2
 6778 19b6 74       		.byte	0x74
 6779 19b7 00       		.sleb128 0
 6780 19b8 00       		.byte	0
 6781 19b9 1C       		.uleb128 0x1c
 6782 19ba 02040000 		.4byte	.LVL351
 6783 19be 6F210000 		.4byte	0x216f
 6784 19c2 CD190000 		.4byte	0x19cd
 6785 19c6 1A       		.uleb128 0x1a
 6786 19c7 01       		.uleb128 0x1
 6787 19c8 51       		.byte	0x51
 6788 19c9 02       		.uleb128 0x2
 6789 19ca 08       		.byte	0x8
 6790 19cb 3A       		.byte	0x3a
 6791 19cc 00       		.byte	0
 6792 19cd 1C       		.uleb128 0x1c
 6793 19ce 10040000 		.4byte	.LVL353
 6794 19d2 5F090000 		.4byte	0x95f
 6795 19d6 EA190000 		.4byte	0x19ea
 6796 19da 1A       		.uleb128 0x1a
 6797 19db 01       		.uleb128 0x1
 6798 19dc 52       		.byte	0x52
 6799 19dd 05       		.uleb128 0x5
 6800 19de 03       		.byte	0x3
 6801 19df 94020000 		.4byte	.LC98
 6802 19e3 1A       		.uleb128 0x1a
 6803 19e4 01       		.uleb128 0x1
 6804 19e5 51       		.byte	0x51
 6805 19e6 02       		.uleb128 0x2
 6806 19e7 74       		.byte	0x74
 6807 19e8 00       		.sleb128 0
 6808 19e9 00       		.byte	0
 6809 19ea 1C       		.uleb128 0x1c
 6810 19eb 36040000 		.4byte	.LVL356
 6811 19ef 6F210000 		.4byte	0x216f
 6812 19f3 FE190000 		.4byte	0x19fe
ARM GAS  C:\Users\MM1005~1\AppData\Local\Temp\cc36bet7.s 			page 149


 6813 19f7 1A       		.uleb128 0x1a
 6814 19f8 01       		.uleb128 0x1
 6815 19f9 51       		.byte	0x51
 6816 19fa 02       		.uleb128 0x2
 6817 19fb 08       		.byte	0x8
 6818 19fc 22       		.byte	0x22
 6819 19fd 00       		.byte	0
 6820 19fe 1C       		.uleb128 0x1c
 6821 19ff 44040000 		.4byte	.LVL358
 6822 1a03 5F090000 		.4byte	0x95f
 6823 1a07 1B1A0000 		.4byte	0x1a1b
 6824 1a0b 1A       		.uleb128 0x1a
 6825 1a0c 01       		.uleb128 0x1
 6826 1a0d 52       		.byte	0x52
 6827 1a0e 05       		.uleb128 0x5
 6828 1a0f 03       		.byte	0x3
 6829 1a10 94020000 		.4byte	.LC98
 6830 1a14 1A       		.uleb128 0x1a
 6831 1a15 01       		.uleb128 0x1
 6832 1a16 51       		.byte	0x51
 6833 1a17 02       		.uleb128 0x2
 6834 1a18 74       		.byte	0x74
 6835 1a19 00       		.sleb128 0
 6836 1a1a 00       		.byte	0
 6837 1a1b 1C       		.uleb128 0x1c
 6838 1a1c 50040000 		.4byte	.LVL361
 6839 1a20 CD210000 		.4byte	0x21cd
 6840 1a24 2F1A0000 		.4byte	0x1a2f
 6841 1a28 1A       		.uleb128 0x1a
 6842 1a29 01       		.uleb128 0x1
 6843 1a2a 50       		.byte	0x50
 6844 1a2b 02       		.uleb128 0x2
 6845 1a2c 75       		.byte	0x75
 6846 1a2d 00       		.sleb128 0
 6847 1a2e 00       		.byte	0
 6848 1a2f 1C       		.uleb128 0x1c
 6849 1a30 5C040000 		.4byte	.LVL362
 6850 1a34 6F210000 		.4byte	0x216f
 6851 1a38 491A0000 		.4byte	0x1a49
 6852 1a3c 1A       		.uleb128 0x1a
 6853 1a3d 01       		.uleb128 0x1
 6854 1a3e 51       		.byte	0x51
 6855 1a3f 02       		.uleb128 0x2
 6856 1a40 08       		.byte	0x8
 6857 1a41 2D       		.byte	0x2d
 6858 1a42 1A       		.uleb128 0x1a
 6859 1a43 01       		.uleb128 0x1
 6860 1a44 50       		.byte	0x50
 6861 1a45 02       		.uleb128 0x2
 6862 1a46 75       		.byte	0x75
 6863 1a47 00       		.sleb128 0
 6864 1a48 00       		.byte	0
 6865 1a49 1C       		.uleb128 0x1c
 6866 1a4a 6A040000 		.4byte	.LVL364
 6867 1a4e 5F090000 		.4byte	0x95f
 6868 1a52 661A0000 		.4byte	0x1a66
 6869 1a56 1A       		.uleb128 0x1a
ARM GAS  C:\Users\MM1005~1\AppData\Local\Temp\cc36bet7.s 			page 150


 6870 1a57 01       		.uleb128 0x1
 6871 1a58 52       		.byte	0x52
 6872 1a59 05       		.uleb128 0x5
 6873 1a5a 03       		.byte	0x3
 6874 1a5b 94020000 		.4byte	.LC98
 6875 1a5f 1A       		.uleb128 0x1a
 6876 1a60 01       		.uleb128 0x1
 6877 1a61 51       		.byte	0x51
 6878 1a62 02       		.uleb128 0x2
 6879 1a63 74       		.byte	0x74
 6880 1a64 00       		.sleb128 0
 6881 1a65 00       		.byte	0
 6882 1a66 1C       		.uleb128 0x1c
 6883 1a67 76040000 		.4byte	.LVL367
 6884 1a6b CD210000 		.4byte	0x21cd
 6885 1a6f 7A1A0000 		.4byte	0x1a7a
 6886 1a73 1A       		.uleb128 0x1a
 6887 1a74 01       		.uleb128 0x1
 6888 1a75 50       		.byte	0x50
 6889 1a76 02       		.uleb128 0x2
 6890 1a77 75       		.byte	0x75
 6891 1a78 00       		.sleb128 0
 6892 1a79 00       		.byte	0
 6893 1a7a 1C       		.uleb128 0x1c
 6894 1a7b 82040000 		.4byte	.LVL368
 6895 1a7f 6F210000 		.4byte	0x216f
 6896 1a83 941A0000 		.4byte	0x1a94
 6897 1a87 1A       		.uleb128 0x1a
 6898 1a88 01       		.uleb128 0x1
 6899 1a89 51       		.byte	0x51
 6900 1a8a 02       		.uleb128 0x2
 6901 1a8b 08       		.byte	0x8
 6902 1a8c 2D       		.byte	0x2d
 6903 1a8d 1A       		.uleb128 0x1a
 6904 1a8e 01       		.uleb128 0x1
 6905 1a8f 50       		.byte	0x50
 6906 1a90 02       		.uleb128 0x2
 6907 1a91 75       		.byte	0x75
 6908 1a92 00       		.sleb128 0
 6909 1a93 00       		.byte	0
 6910 1a94 1C       		.uleb128 0x1c
 6911 1a95 90040000 		.4byte	.LVL370
 6912 1a99 5F090000 		.4byte	0x95f
 6913 1a9d B11A0000 		.4byte	0x1ab1
 6914 1aa1 1A       		.uleb128 0x1a
 6915 1aa2 01       		.uleb128 0x1
 6916 1aa3 52       		.byte	0x52
 6917 1aa4 05       		.uleb128 0x5
 6918 1aa5 03       		.byte	0x3
 6919 1aa6 94020000 		.4byte	.LC98
 6920 1aaa 1A       		.uleb128 0x1a
 6921 1aab 01       		.uleb128 0x1
 6922 1aac 51       		.byte	0x51
 6923 1aad 02       		.uleb128 0x2
 6924 1aae 74       		.byte	0x74
 6925 1aaf 00       		.sleb128 0
 6926 1ab0 00       		.byte	0
ARM GAS  C:\Users\MM1005~1\AppData\Local\Temp\cc36bet7.s 			page 151


 6927 1ab1 1C       		.uleb128 0x1c
 6928 1ab2 9C040000 		.4byte	.LVL373
 6929 1ab6 CD210000 		.4byte	0x21cd
 6930 1aba C51A0000 		.4byte	0x1ac5
 6931 1abe 1A       		.uleb128 0x1a
 6932 1abf 01       		.uleb128 0x1
 6933 1ac0 50       		.byte	0x50
 6934 1ac1 02       		.uleb128 0x2
 6935 1ac2 75       		.byte	0x75
 6936 1ac3 00       		.sleb128 0
 6937 1ac4 00       		.byte	0
 6938 1ac5 1C       		.uleb128 0x1c
 6939 1ac6 AC040000 		.4byte	.LVL376
 6940 1aca 6F210000 		.4byte	0x216f
 6941 1ace DF1A0000 		.4byte	0x1adf
 6942 1ad2 1A       		.uleb128 0x1a
 6943 1ad3 01       		.uleb128 0x1
 6944 1ad4 51       		.byte	0x51
 6945 1ad5 02       		.uleb128 0x2
 6946 1ad6 08       		.byte	0x8
 6947 1ad7 2D       		.byte	0x2d
 6948 1ad8 1A       		.uleb128 0x1a
 6949 1ad9 01       		.uleb128 0x1
 6950 1ada 50       		.byte	0x50
 6951 1adb 02       		.uleb128 0x2
 6952 1adc 75       		.byte	0x75
 6953 1add 00       		.sleb128 0
 6954 1ade 00       		.byte	0
 6955 1adf 1C       		.uleb128 0x1c
 6956 1ae0 BA040000 		.4byte	.LVL378
 6957 1ae4 5F090000 		.4byte	0x95f
 6958 1ae8 FC1A0000 		.4byte	0x1afc
 6959 1aec 1A       		.uleb128 0x1a
 6960 1aed 01       		.uleb128 0x1
 6961 1aee 52       		.byte	0x52
 6962 1aef 05       		.uleb128 0x5
 6963 1af0 03       		.byte	0x3
 6964 1af1 94020000 		.4byte	.LC98
 6965 1af5 1A       		.uleb128 0x1a
 6966 1af6 01       		.uleb128 0x1
 6967 1af7 51       		.byte	0x51
 6968 1af8 02       		.uleb128 0x2
 6969 1af9 74       		.byte	0x74
 6970 1afa 00       		.sleb128 0
 6971 1afb 00       		.byte	0
 6972 1afc 1C       		.uleb128 0x1c
 6973 1afd C6040000 		.4byte	.LVL381
 6974 1b01 CD210000 		.4byte	0x21cd
 6975 1b05 101B0000 		.4byte	0x1b10
 6976 1b09 1A       		.uleb128 0x1a
 6977 1b0a 01       		.uleb128 0x1
 6978 1b0b 50       		.byte	0x50
 6979 1b0c 02       		.uleb128 0x2
 6980 1b0d 75       		.byte	0x75
 6981 1b0e 00       		.sleb128 0
 6982 1b0f 00       		.byte	0
 6983 1b10 1C       		.uleb128 0x1c
ARM GAS  C:\Users\MM1005~1\AppData\Local\Temp\cc36bet7.s 			page 152


 6984 1b11 DA040000 		.4byte	.LVL383
 6985 1b15 6F210000 		.4byte	0x216f
 6986 1b19 2A1B0000 		.4byte	0x1b2a
 6987 1b1d 1A       		.uleb128 0x1a
 6988 1b1e 01       		.uleb128 0x1
 6989 1b1f 51       		.byte	0x51
 6990 1b20 02       		.uleb128 0x2
 6991 1b21 08       		.byte	0x8
 6992 1b22 2D       		.byte	0x2d
 6993 1b23 1A       		.uleb128 0x1a
 6994 1b24 01       		.uleb128 0x1
 6995 1b25 50       		.byte	0x50
 6996 1b26 02       		.uleb128 0x2
 6997 1b27 75       		.byte	0x75
 6998 1b28 00       		.sleb128 0
 6999 1b29 00       		.byte	0
 7000 1b2a 1C       		.uleb128 0x1c
 7001 1b2b E8040000 		.4byte	.LVL385
 7002 1b2f 5F090000 		.4byte	0x95f
 7003 1b33 471B0000 		.4byte	0x1b47
 7004 1b37 1A       		.uleb128 0x1a
 7005 1b38 01       		.uleb128 0x1
 7006 1b39 52       		.byte	0x52
 7007 1b3a 05       		.uleb128 0x5
 7008 1b3b 03       		.byte	0x3
 7009 1b3c 94020000 		.4byte	.LC98
 7010 1b40 1A       		.uleb128 0x1a
 7011 1b41 01       		.uleb128 0x1
 7012 1b42 51       		.byte	0x51
 7013 1b43 02       		.uleb128 0x2
 7014 1b44 74       		.byte	0x74
 7015 1b45 00       		.sleb128 0
 7016 1b46 00       		.byte	0
 7017 1b47 1C       		.uleb128 0x1c
 7018 1b48 F4040000 		.4byte	.LVL388
 7019 1b4c CD210000 		.4byte	0x21cd
 7020 1b50 5B1B0000 		.4byte	0x1b5b
 7021 1b54 1A       		.uleb128 0x1a
 7022 1b55 01       		.uleb128 0x1
 7023 1b56 50       		.byte	0x50
 7024 1b57 02       		.uleb128 0x2
 7025 1b58 75       		.byte	0x75
 7026 1b59 00       		.sleb128 0
 7027 1b5a 00       		.byte	0
 7028 1b5b 1C       		.uleb128 0x1c
 7029 1b5c 00050000 		.4byte	.LVL389
 7030 1b60 6F210000 		.4byte	0x216f
 7031 1b64 751B0000 		.4byte	0x1b75
 7032 1b68 1A       		.uleb128 0x1a
 7033 1b69 01       		.uleb128 0x1
 7034 1b6a 51       		.byte	0x51
 7035 1b6b 02       		.uleb128 0x2
 7036 1b6c 08       		.byte	0x8
 7037 1b6d 2D       		.byte	0x2d
 7038 1b6e 1A       		.uleb128 0x1a
 7039 1b6f 01       		.uleb128 0x1
 7040 1b70 50       		.byte	0x50
ARM GAS  C:\Users\MM1005~1\AppData\Local\Temp\cc36bet7.s 			page 153


 7041 1b71 02       		.uleb128 0x2
 7042 1b72 75       		.byte	0x75
 7043 1b73 00       		.sleb128 0
 7044 1b74 00       		.byte	0
 7045 1b75 1C       		.uleb128 0x1c
 7046 1b76 0E050000 		.4byte	.LVL391
 7047 1b7a 5F090000 		.4byte	0x95f
 7048 1b7e 921B0000 		.4byte	0x1b92
 7049 1b82 1A       		.uleb128 0x1a
 7050 1b83 01       		.uleb128 0x1
 7051 1b84 52       		.byte	0x52
 7052 1b85 05       		.uleb128 0x5
 7053 1b86 03       		.byte	0x3
 7054 1b87 94020000 		.4byte	.LC98
 7055 1b8b 1A       		.uleb128 0x1a
 7056 1b8c 01       		.uleb128 0x1
 7057 1b8d 51       		.byte	0x51
 7058 1b8e 02       		.uleb128 0x2
 7059 1b8f 74       		.byte	0x74
 7060 1b90 00       		.sleb128 0
 7061 1b91 00       		.byte	0
 7062 1b92 1C       		.uleb128 0x1c
 7063 1b93 1A050000 		.4byte	.LVL394
 7064 1b97 CD210000 		.4byte	0x21cd
 7065 1b9b A61B0000 		.4byte	0x1ba6
 7066 1b9f 1A       		.uleb128 0x1a
 7067 1ba0 01       		.uleb128 0x1
 7068 1ba1 50       		.byte	0x50
 7069 1ba2 02       		.uleb128 0x2
 7070 1ba3 75       		.byte	0x75
 7071 1ba4 00       		.sleb128 0
 7072 1ba5 00       		.byte	0
 7073 1ba6 1C       		.uleb128 0x1c
 7074 1ba7 26050000 		.4byte	.LVL395
 7075 1bab 6F210000 		.4byte	0x216f
 7076 1baf C01B0000 		.4byte	0x1bc0
 7077 1bb3 1A       		.uleb128 0x1a
 7078 1bb4 01       		.uleb128 0x1
 7079 1bb5 51       		.byte	0x51
 7080 1bb6 02       		.uleb128 0x2
 7081 1bb7 08       		.byte	0x8
 7082 1bb8 2D       		.byte	0x2d
 7083 1bb9 1A       		.uleb128 0x1a
 7084 1bba 01       		.uleb128 0x1
 7085 1bbb 50       		.byte	0x50
 7086 1bbc 02       		.uleb128 0x2
 7087 1bbd 75       		.byte	0x75
 7088 1bbe 00       		.sleb128 0
 7089 1bbf 00       		.byte	0
 7090 1bc0 1C       		.uleb128 0x1c
 7091 1bc1 34050000 		.4byte	.LVL397
 7092 1bc5 5F090000 		.4byte	0x95f
 7093 1bc9 DD1B0000 		.4byte	0x1bdd
 7094 1bcd 1A       		.uleb128 0x1a
 7095 1bce 01       		.uleb128 0x1
 7096 1bcf 52       		.byte	0x52
 7097 1bd0 05       		.uleb128 0x5
ARM GAS  C:\Users\MM1005~1\AppData\Local\Temp\cc36bet7.s 			page 154


 7098 1bd1 03       		.byte	0x3
 7099 1bd2 94020000 		.4byte	.LC98
 7100 1bd6 1A       		.uleb128 0x1a
 7101 1bd7 01       		.uleb128 0x1
 7102 1bd8 51       		.byte	0x51
 7103 1bd9 02       		.uleb128 0x2
 7104 1bda 74       		.byte	0x74
 7105 1bdb 00       		.sleb128 0
 7106 1bdc 00       		.byte	0
 7107 1bdd 21       		.uleb128 0x21
 7108 1bde 3E050000 		.4byte	.LVL400
 7109 1be2 CD210000 		.4byte	0x21cd
 7110 1be6 1C       		.uleb128 0x1c
 7111 1be7 48050000 		.4byte	.LVL401
 7112 1beb F8210000 		.4byte	0x21f8
 7113 1bef FB1B0000 		.4byte	0x1bfb
 7114 1bf3 1A       		.uleb128 0x1a
 7115 1bf4 01       		.uleb128 0x1
 7116 1bf5 50       		.byte	0x50
 7117 1bf6 03       		.uleb128 0x3
 7118 1bf7 91       		.byte	0x91
 7119 1bf8 AC7F     		.sleb128 -84
 7120 1bfa 00       		.byte	0
 7121 1bfb 1C       		.uleb128 0x1c
 7122 1bfc 56050000 		.4byte	.LVL404
 7123 1c00 5F090000 		.4byte	0x95f
 7124 1c04 1D1C0000 		.4byte	0x1c1d
 7125 1c08 1A       		.uleb128 0x1a
 7126 1c09 01       		.uleb128 0x1
 7127 1c0a 52       		.byte	0x52
 7128 1c0b 05       		.uleb128 0x5
 7129 1c0c 03       		.byte	0x3
 7130 1c0d B4020000 		.4byte	.LC100
 7131 1c11 1A       		.uleb128 0x1a
 7132 1c12 01       		.uleb128 0x1
 7133 1c13 51       		.byte	0x51
 7134 1c14 02       		.uleb128 0x2
 7135 1c15 74       		.byte	0x74
 7136 1c16 00       		.sleb128 0
 7137 1c17 1A       		.uleb128 0x1a
 7138 1c18 01       		.uleb128 0x1
 7139 1c19 50       		.byte	0x50
 7140 1c1a 01       		.uleb128 0x1
 7141 1c1b 32       		.byte	0x32
 7142 1c1c 00       		.byte	0
 7143 1c1d 1C       		.uleb128 0x1c
 7144 1c1e 62050000 		.4byte	.LVL406
 7145 1c22 6F210000 		.4byte	0x216f
 7146 1c26 371C0000 		.4byte	0x1c37
 7147 1c2a 1A       		.uleb128 0x1a
 7148 1c2b 01       		.uleb128 0x1
 7149 1c2c 51       		.byte	0x51
 7150 1c2d 02       		.uleb128 0x2
 7151 1c2e 08       		.byte	0x8
 7152 1c2f 2C       		.byte	0x2c
 7153 1c30 1A       		.uleb128 0x1a
 7154 1c31 01       		.uleb128 0x1
ARM GAS  C:\Users\MM1005~1\AppData\Local\Temp\cc36bet7.s 			page 155


 7155 1c32 50       		.byte	0x50
 7156 1c33 02       		.uleb128 0x2
 7157 1c34 75       		.byte	0x75
 7158 1c35 00       		.sleb128 0
 7159 1c36 00       		.byte	0
 7160 1c37 1C       		.uleb128 0x1c
 7161 1c38 70050000 		.4byte	.LVL408
 7162 1c3c 5F090000 		.4byte	0x95f
 7163 1c40 541C0000 		.4byte	0x1c54
 7164 1c44 1A       		.uleb128 0x1a
 7165 1c45 01       		.uleb128 0x1
 7166 1c46 52       		.byte	0x52
 7167 1c47 05       		.uleb128 0x5
 7168 1c48 03       		.byte	0x3
 7169 1c49 90010000 		.4byte	.LC79
 7170 1c4d 1A       		.uleb128 0x1a
 7171 1c4e 01       		.uleb128 0x1
 7172 1c4f 51       		.byte	0x51
 7173 1c50 02       		.uleb128 0x2
 7174 1c51 74       		.byte	0x74
 7175 1c52 00       		.sleb128 0
 7176 1c53 00       		.byte	0
 7177 1c54 1C       		.uleb128 0x1c
 7178 1c55 7C050000 		.4byte	.LVL411
 7179 1c59 6F210000 		.4byte	0x216f
 7180 1c5d 681C0000 		.4byte	0x1c68
 7181 1c61 1A       		.uleb128 0x1a
 7182 1c62 01       		.uleb128 0x1
 7183 1c63 51       		.byte	0x51
 7184 1c64 02       		.uleb128 0x2
 7185 1c65 08       		.byte	0x8
 7186 1c66 3A       		.byte	0x3a
 7187 1c67 00       		.byte	0
 7188 1c68 1C       		.uleb128 0x1c
 7189 1c69 8A050000 		.4byte	.LVL413
 7190 1c6d 5F090000 		.4byte	0x95f
 7191 1c71 851C0000 		.4byte	0x1c85
 7192 1c75 1A       		.uleb128 0x1a
 7193 1c76 01       		.uleb128 0x1
 7194 1c77 52       		.byte	0x52
 7195 1c78 05       		.uleb128 0x5
 7196 1c79 03       		.byte	0x3
 7197 1c7a 90010000 		.4byte	.LC79
 7198 1c7e 1A       		.uleb128 0x1a
 7199 1c7f 01       		.uleb128 0x1
 7200 1c80 51       		.byte	0x51
 7201 1c81 02       		.uleb128 0x2
 7202 1c82 74       		.byte	0x74
 7203 1c83 00       		.sleb128 0
 7204 1c84 00       		.byte	0
 7205 1c85 21       		.uleb128 0x21
 7206 1c86 94050000 		.4byte	.LVL416
 7207 1c8a 45060000 		.4byte	0x645
 7208 1c8e 1C       		.uleb128 0x1c
 7209 1c8f A2050000 		.4byte	.LVL418
 7210 1c93 5A110000 		.4byte	0x115a
 7211 1c97 A11C0000 		.4byte	0x1ca1
ARM GAS  C:\Users\MM1005~1\AppData\Local\Temp\cc36bet7.s 			page 156


 7212 1c9b 1A       		.uleb128 0x1a
 7213 1c9c 01       		.uleb128 0x1
 7214 1c9d 50       		.byte	0x50
 7215 1c9e 01       		.uleb128 0x1
 7216 1c9f 30       		.byte	0x30
 7217 1ca0 00       		.byte	0
 7218 1ca1 1C       		.uleb128 0x1c
 7219 1ca2 AC050000 		.4byte	.LVL421
 7220 1ca6 5A110000 		.4byte	0x115a
 7221 1caa B41C0000 		.4byte	0x1cb4
 7222 1cae 1A       		.uleb128 0x1a
 7223 1caf 01       		.uleb128 0x1
 7224 1cb0 50       		.byte	0x50
 7225 1cb1 01       		.uleb128 0x1
 7226 1cb2 31       		.byte	0x31
 7227 1cb3 00       		.byte	0
 7228 1cb4 1C       		.uleb128 0x1c
 7229 1cb5 BA050000 		.4byte	.LVL424
 7230 1cb9 5F090000 		.4byte	0x95f
 7231 1cbd D61C0000 		.4byte	0x1cd6
 7232 1cc1 1A       		.uleb128 0x1a
 7233 1cc2 01       		.uleb128 0x1
 7234 1cc3 52       		.byte	0x52
 7235 1cc4 05       		.uleb128 0x5
 7236 1cc5 03       		.byte	0x3
 7237 1cc6 90010000 		.4byte	.LC79
 7238 1cca 1A       		.uleb128 0x1a
 7239 1ccb 01       		.uleb128 0x1
 7240 1ccc 51       		.byte	0x51
 7241 1ccd 02       		.uleb128 0x2
 7242 1cce 74       		.byte	0x74
 7243 1ccf 00       		.sleb128 0
 7244 1cd0 1A       		.uleb128 0x1a
 7245 1cd1 01       		.uleb128 0x1
 7246 1cd2 50       		.byte	0x50
 7247 1cd3 01       		.uleb128 0x1
 7248 1cd4 32       		.byte	0x32
 7249 1cd5 00       		.byte	0
 7250 1cd6 1C       		.uleb128 0x1c
 7251 1cd7 C6050000 		.4byte	.LVL426
 7252 1cdb 6F210000 		.4byte	0x216f
 7253 1cdf F01C0000 		.4byte	0x1cf0
 7254 1ce3 1A       		.uleb128 0x1a
 7255 1ce4 01       		.uleb128 0x1
 7256 1ce5 51       		.byte	0x51
 7257 1ce6 02       		.uleb128 0x2
 7258 1ce7 08       		.byte	0x8
 7259 1ce8 2C       		.byte	0x2c
 7260 1ce9 1A       		.uleb128 0x1a
 7261 1cea 01       		.uleb128 0x1
 7262 1ceb 50       		.byte	0x50
 7263 1cec 02       		.uleb128 0x2
 7264 1ced 75       		.byte	0x75
 7265 1cee 00       		.sleb128 0
 7266 1cef 00       		.byte	0
 7267 1cf0 1C       		.uleb128 0x1c
 7268 1cf1 D4050000 		.4byte	.LVL428
ARM GAS  C:\Users\MM1005~1\AppData\Local\Temp\cc36bet7.s 			page 157


 7269 1cf5 5F090000 		.4byte	0x95f
 7270 1cf9 0D1D0000 		.4byte	0x1d0d
 7271 1cfd 1A       		.uleb128 0x1a
 7272 1cfe 01       		.uleb128 0x1
 7273 1cff 52       		.byte	0x52
 7274 1d00 05       		.uleb128 0x5
 7275 1d01 03       		.byte	0x3
 7276 1d02 CC020000 		.4byte	.LC102
 7277 1d06 1A       		.uleb128 0x1a
 7278 1d07 01       		.uleb128 0x1
 7279 1d08 51       		.byte	0x51
 7280 1d09 02       		.uleb128 0x2
 7281 1d0a 74       		.byte	0x74
 7282 1d0b 00       		.sleb128 0
 7283 1d0c 00       		.byte	0
 7284 1d0d 1C       		.uleb128 0x1c
 7285 1d0e E0050000 		.4byte	.LVL431
 7286 1d12 6F210000 		.4byte	0x216f
 7287 1d16 211D0000 		.4byte	0x1d21
 7288 1d1a 1A       		.uleb128 0x1a
 7289 1d1b 01       		.uleb128 0x1
 7290 1d1c 51       		.byte	0x51
 7291 1d1d 02       		.uleb128 0x2
 7292 1d1e 08       		.byte	0x8
 7293 1d1f 3A       		.byte	0x3a
 7294 1d20 00       		.byte	0
 7295 1d21 1C       		.uleb128 0x1c
 7296 1d22 EE050000 		.4byte	.LVL433
 7297 1d26 5F090000 		.4byte	0x95f
 7298 1d2a 3E1D0000 		.4byte	0x1d3e
 7299 1d2e 1A       		.uleb128 0x1a
 7300 1d2f 01       		.uleb128 0x1
 7301 1d30 52       		.byte	0x52
 7302 1d31 05       		.uleb128 0x5
 7303 1d32 03       		.byte	0x3
 7304 1d33 CC020000 		.4byte	.LC102
 7305 1d37 1A       		.uleb128 0x1a
 7306 1d38 01       		.uleb128 0x1
 7307 1d39 51       		.byte	0x51
 7308 1d3a 02       		.uleb128 0x2
 7309 1d3b 74       		.byte	0x74
 7310 1d3c 00       		.sleb128 0
 7311 1d3d 00       		.byte	0
 7312 1d3e 21       		.uleb128 0x21
 7313 1d3f F8050000 		.4byte	.LVL436
 7314 1d43 9F060000 		.4byte	0x69f
 7315 1d47 1C       		.uleb128 0x1c
 7316 1d48 06060000 		.4byte	.LVL438
 7317 1d4c 2F0F0000 		.4byte	0xf2f
 7318 1d50 5A1D0000 		.4byte	0x1d5a
 7319 1d54 1A       		.uleb128 0x1a
 7320 1d55 01       		.uleb128 0x1
 7321 1d56 50       		.byte	0x50
 7322 1d57 01       		.uleb128 0x1
 7323 1d58 30       		.byte	0x30
 7324 1d59 00       		.byte	0
 7325 1d5a 1C       		.uleb128 0x1c
ARM GAS  C:\Users\MM1005~1\AppData\Local\Temp\cc36bet7.s 			page 158


 7326 1d5b 10060000 		.4byte	.LVL441
 7327 1d5f 2F0F0000 		.4byte	0xf2f
 7328 1d63 6D1D0000 		.4byte	0x1d6d
 7329 1d67 1A       		.uleb128 0x1a
 7330 1d68 01       		.uleb128 0x1
 7331 1d69 50       		.byte	0x50
 7332 1d6a 01       		.uleb128 0x1
 7333 1d6b 31       		.byte	0x31
 7334 1d6c 00       		.byte	0
 7335 1d6d 1C       		.uleb128 0x1c
 7336 1d6e 1E060000 		.4byte	.LVL444
 7337 1d72 5F090000 		.4byte	0x95f
 7338 1d76 8F1D0000 		.4byte	0x1d8f
 7339 1d7a 1A       		.uleb128 0x1a
 7340 1d7b 01       		.uleb128 0x1
 7341 1d7c 52       		.byte	0x52
 7342 1d7d 05       		.uleb128 0x5
 7343 1d7e 03       		.byte	0x3
 7344 1d7f CC020000 		.4byte	.LC102
 7345 1d83 1A       		.uleb128 0x1a
 7346 1d84 01       		.uleb128 0x1
 7347 1d85 51       		.byte	0x51
 7348 1d86 02       		.uleb128 0x2
 7349 1d87 74       		.byte	0x74
 7350 1d88 00       		.sleb128 0
 7351 1d89 1A       		.uleb128 0x1a
 7352 1d8a 01       		.uleb128 0x1
 7353 1d8b 50       		.byte	0x50
 7354 1d8c 01       		.uleb128 0x1
 7355 1d8d 32       		.byte	0x32
 7356 1d8e 00       		.byte	0
 7357 1d8f 1C       		.uleb128 0x1c
 7358 1d90 2A060000 		.4byte	.LVL446
 7359 1d94 6F210000 		.4byte	0x216f
 7360 1d98 A91D0000 		.4byte	0x1da9
 7361 1d9c 1A       		.uleb128 0x1a
 7362 1d9d 01       		.uleb128 0x1
 7363 1d9e 51       		.byte	0x51
 7364 1d9f 02       		.uleb128 0x2
 7365 1da0 08       		.byte	0x8
 7366 1da1 2C       		.byte	0x2c
 7367 1da2 1A       		.uleb128 0x1a
 7368 1da3 01       		.uleb128 0x1
 7369 1da4 50       		.byte	0x50
 7370 1da5 02       		.uleb128 0x2
 7371 1da6 75       		.byte	0x75
 7372 1da7 00       		.sleb128 0
 7373 1da8 00       		.byte	0
 7374 1da9 1C       		.uleb128 0x1c
 7375 1daa 38060000 		.4byte	.LVL448
 7376 1dae 5F090000 		.4byte	0x95f
 7377 1db2 C61D0000 		.4byte	0x1dc6
 7378 1db6 1A       		.uleb128 0x1a
 7379 1db7 01       		.uleb128 0x1
 7380 1db8 52       		.byte	0x52
 7381 1db9 05       		.uleb128 0x5
 7382 1dba 03       		.byte	0x3
ARM GAS  C:\Users\MM1005~1\AppData\Local\Temp\cc36bet7.s 			page 159


 7383 1dbb EC020000 		.4byte	.LC104
 7384 1dbf 1A       		.uleb128 0x1a
 7385 1dc0 01       		.uleb128 0x1
 7386 1dc1 51       		.byte	0x51
 7387 1dc2 02       		.uleb128 0x2
 7388 1dc3 74       		.byte	0x74
 7389 1dc4 00       		.sleb128 0
 7390 1dc5 00       		.byte	0
 7391 1dc6 1C       		.uleb128 0x1c
 7392 1dc7 44060000 		.4byte	.LVL451
 7393 1dcb 6F210000 		.4byte	0x216f
 7394 1dcf DA1D0000 		.4byte	0x1dda
 7395 1dd3 1A       		.uleb128 0x1a
 7396 1dd4 01       		.uleb128 0x1
 7397 1dd5 51       		.byte	0x51
 7398 1dd6 02       		.uleb128 0x2
 7399 1dd7 08       		.byte	0x8
 7400 1dd8 3A       		.byte	0x3a
 7401 1dd9 00       		.byte	0
 7402 1dda 1C       		.uleb128 0x1c
 7403 1ddb 52060000 		.4byte	.LVL453
 7404 1ddf 5F090000 		.4byte	0x95f
 7405 1de3 F71D0000 		.4byte	0x1df7
 7406 1de7 1A       		.uleb128 0x1a
 7407 1de8 01       		.uleb128 0x1
 7408 1de9 52       		.byte	0x52
 7409 1dea 05       		.uleb128 0x5
 7410 1deb 03       		.byte	0x3
 7411 1dec EC020000 		.4byte	.LC104
 7412 1df0 1A       		.uleb128 0x1a
 7413 1df1 01       		.uleb128 0x1
 7414 1df2 51       		.byte	0x51
 7415 1df3 02       		.uleb128 0x2
 7416 1df4 74       		.byte	0x74
 7417 1df5 00       		.sleb128 0
 7418 1df6 00       		.byte	0
 7419 1df7 1C       		.uleb128 0x1c
 7420 1df8 5E060000 		.4byte	.LVL456
 7421 1dfc F9060000 		.4byte	0x6f9
 7422 1e00 0B1E0000 		.4byte	0x1e0b
 7423 1e04 1A       		.uleb128 0x1a
 7424 1e05 01       		.uleb128 0x1
 7425 1e06 50       		.byte	0x50
 7426 1e07 02       		.uleb128 0x2
 7427 1e08 75       		.byte	0x75
 7428 1e09 00       		.sleb128 0
 7429 1e0a 00       		.byte	0
 7430 1e0b 1C       		.uleb128 0x1c
 7431 1e0c 72060000 		.4byte	.LVL458
 7432 1e10 09220000 		.4byte	0x2209
 7433 1e14 1E1E0000 		.4byte	0x1e1e
 7434 1e18 1A       		.uleb128 0x1a
 7435 1e19 01       		.uleb128 0x1
 7436 1e1a 50       		.byte	0x50
 7437 1e1b 01       		.uleb128 0x1
 7438 1e1c 30       		.byte	0x30
 7439 1e1d 00       		.byte	0
ARM GAS  C:\Users\MM1005~1\AppData\Local\Temp\cc36bet7.s 			page 160


 7440 1e1e 1C       		.uleb128 0x1c
 7441 1e1f 7C060000 		.4byte	.LVL461
 7442 1e23 09220000 		.4byte	0x2209
 7443 1e27 311E0000 		.4byte	0x1e31
 7444 1e2b 1A       		.uleb128 0x1a
 7445 1e2c 01       		.uleb128 0x1
 7446 1e2d 50       		.byte	0x50
 7447 1e2e 01       		.uleb128 0x1
 7448 1e2f 31       		.byte	0x31
 7449 1e30 00       		.byte	0
 7450 1e31 1C       		.uleb128 0x1c
 7451 1e32 88060000 		.4byte	.LVL464
 7452 1e36 6F210000 		.4byte	0x216f
 7453 1e3a 4B1E0000 		.4byte	0x1e4b
 7454 1e3e 1A       		.uleb128 0x1a
 7455 1e3f 01       		.uleb128 0x1
 7456 1e40 51       		.byte	0x51
 7457 1e41 02       		.uleb128 0x2
 7458 1e42 08       		.byte	0x8
 7459 1e43 2C       		.byte	0x2c
 7460 1e44 1A       		.uleb128 0x1a
 7461 1e45 01       		.uleb128 0x1
 7462 1e46 50       		.byte	0x50
 7463 1e47 02       		.uleb128 0x2
 7464 1e48 75       		.byte	0x75
 7465 1e49 00       		.sleb128 0
 7466 1e4a 00       		.byte	0
 7467 1e4b 1C       		.uleb128 0x1c
 7468 1e4c 96060000 		.4byte	.LVL466
 7469 1e50 5F090000 		.4byte	0x95f
 7470 1e54 681E0000 		.4byte	0x1e68
 7471 1e58 1A       		.uleb128 0x1a
 7472 1e59 01       		.uleb128 0x1
 7473 1e5a 52       		.byte	0x52
 7474 1e5b 05       		.uleb128 0x5
 7475 1e5c 03       		.byte	0x3
 7476 1e5d EC020000 		.4byte	.LC104
 7477 1e61 1A       		.uleb128 0x1a
 7478 1e62 01       		.uleb128 0x1
 7479 1e63 51       		.byte	0x51
 7480 1e64 02       		.uleb128 0x2
 7481 1e65 74       		.byte	0x74
 7482 1e66 00       		.sleb128 0
 7483 1e67 00       		.byte	0
 7484 1e68 1C       		.uleb128 0x1c
 7485 1e69 A2060000 		.4byte	.LVL469
 7486 1e6d 6F210000 		.4byte	0x216f
 7487 1e71 7C1E0000 		.4byte	0x1e7c
 7488 1e75 1A       		.uleb128 0x1a
 7489 1e76 01       		.uleb128 0x1
 7490 1e77 51       		.byte	0x51
 7491 1e78 02       		.uleb128 0x2
 7492 1e79 08       		.byte	0x8
 7493 1e7a 3A       		.byte	0x3a
 7494 1e7b 00       		.byte	0
 7495 1e7c 1C       		.uleb128 0x1c
 7496 1e7d B0060000 		.4byte	.LVL471
ARM GAS  C:\Users\MM1005~1\AppData\Local\Temp\cc36bet7.s 			page 161


 7497 1e81 5F090000 		.4byte	0x95f
 7498 1e85 991E0000 		.4byte	0x1e99
 7499 1e89 1A       		.uleb128 0x1a
 7500 1e8a 01       		.uleb128 0x1
 7501 1e8b 52       		.byte	0x52
 7502 1e8c 05       		.uleb128 0x5
 7503 1e8d 03       		.byte	0x3
 7504 1e8e EC020000 		.4byte	.LC104
 7505 1e92 1A       		.uleb128 0x1a
 7506 1e93 01       		.uleb128 0x1
 7507 1e94 51       		.byte	0x51
 7508 1e95 02       		.uleb128 0x2
 7509 1e96 74       		.byte	0x74
 7510 1e97 00       		.sleb128 0
 7511 1e98 00       		.byte	0
 7512 1e99 21       		.uleb128 0x21
 7513 1e9a BA060000 		.4byte	.LVL474
 7514 1e9e CD210000 		.4byte	0x21cd
 7515 1ea2 21       		.uleb128 0x21
 7516 1ea3 C0060000 		.4byte	.LVL475
 7517 1ea7 1A220000 		.4byte	0x221a
 7518 1eab 1C       		.uleb128 0x1c
 7519 1eac CE060000 		.4byte	.LVL478
 7520 1eb0 5F090000 		.4byte	0x95f
 7521 1eb4 CD1E0000 		.4byte	0x1ecd
 7522 1eb8 1A       		.uleb128 0x1a
 7523 1eb9 01       		.uleb128 0x1
 7524 1eba 52       		.byte	0x52
 7525 1ebb 05       		.uleb128 0x5
 7526 1ebc 03       		.byte	0x3
 7527 1ebd EC020000 		.4byte	.LC104
 7528 1ec1 1A       		.uleb128 0x1a
 7529 1ec2 01       		.uleb128 0x1
 7530 1ec3 51       		.byte	0x51
 7531 1ec4 02       		.uleb128 0x2
 7532 1ec5 74       		.byte	0x74
 7533 1ec6 00       		.sleb128 0
 7534 1ec7 1A       		.uleb128 0x1a
 7535 1ec8 01       		.uleb128 0x1
 7536 1ec9 50       		.byte	0x50
 7537 1eca 01       		.uleb128 0x1
 7538 1ecb 32       		.byte	0x32
 7539 1ecc 00       		.byte	0
 7540 1ecd 21       		.uleb128 0x21
 7541 1ece F4060000 		.4byte	.LVL480
 7542 1ed2 2B220000 		.4byte	0x222b
 7543 1ed6 1C       		.uleb128 0x1c
 7544 1ed7 FE060000 		.4byte	.LVL481
 7545 1edb 5F090000 		.4byte	0x95f
 7546 1edf F21E0000 		.4byte	0x1ef2
 7547 1ee3 1A       		.uleb128 0x1a
 7548 1ee4 01       		.uleb128 0x1
 7549 1ee5 51       		.byte	0x51
 7550 1ee6 05       		.uleb128 0x5
 7551 1ee7 03       		.byte	0x3
 7552 1ee8 08030000 		.4byte	.LC106
 7553 1eec 1A       		.uleb128 0x1a
ARM GAS  C:\Users\MM1005~1\AppData\Local\Temp\cc36bet7.s 			page 162


 7554 1eed 01       		.uleb128 0x1
 7555 1eee 50       		.byte	0x50
 7556 1eef 01       		.uleb128 0x1
 7557 1ef0 31       		.byte	0x31
 7558 1ef1 00       		.byte	0
 7559 1ef2 19       		.uleb128 0x19
 7560 1ef3 0C070000 		.4byte	.LVL484
 7561 1ef7 5F090000 		.4byte	0x95f
 7562 1efb 1A       		.uleb128 0x1a
 7563 1efc 01       		.uleb128 0x1
 7564 1efd 52       		.byte	0x52
 7565 1efe 05       		.uleb128 0x5
 7566 1eff 03       		.byte	0x3
 7567 1f00 10030000 		.4byte	.LC108
 7568 1f04 1A       		.uleb128 0x1a
 7569 1f05 01       		.uleb128 0x1
 7570 1f06 51       		.byte	0x51
 7571 1f07 02       		.uleb128 0x2
 7572 1f08 74       		.byte	0x74
 7573 1f09 00       		.sleb128 0
 7574 1f0a 1A       		.uleb128 0x1a
 7575 1f0b 01       		.uleb128 0x1
 7576 1f0c 50       		.byte	0x50
 7577 1f0d 01       		.uleb128 0x1
 7578 1f0e 32       		.byte	0x32
 7579 1f0f 00       		.byte	0
 7580 1f10 00       		.byte	0
 7581 1f11 0C       		.uleb128 0xc
 7582 1f12 82000000 		.4byte	0x82
 7583 1f16 211F0000 		.4byte	0x1f21
 7584 1f1a 0D       		.uleb128 0xd
 7585 1f1b B6000000 		.4byte	0xb6
 7586 1f1f 17       		.byte	0x17
 7587 1f20 00       		.byte	0
 7588 1f21 0C       		.uleb128 0xc
 7589 1f22 E0050000 		.4byte	0x5e0
 7590 1f26 311F0000 		.4byte	0x1f31
 7591 1f2a 0D       		.uleb128 0xd
 7592 1f2b B6000000 		.4byte	0xb6
 7593 1f2f 02       		.byte	0x2
 7594 1f30 00       		.byte	0
 7595 1f31 1B       		.uleb128 0x1b
 7596 1f32 520E0000 		.4byte	.LASF205
 7597 1f36 01       		.byte	0x1
 7598 1f37 12       		.byte	0x12
 7599 1f38 421F0000 		.4byte	0x1f42
 7600 1f3c 05       		.uleb128 0x5
 7601 1f3d 03       		.byte	0x3
 7602 1f3e 28010000 		.4byte	vec_boot_commands
 7603 1f42 09       		.uleb128 0x9
 7604 1f43 211F0000 		.4byte	0x1f21
 7605 1f47 0C       		.uleb128 0xc
 7606 1f48 E0050000 		.4byte	0x5e0
 7607 1f4c 571F0000 		.4byte	0x1f57
 7608 1f50 0D       		.uleb128 0xd
 7609 1f51 B6000000 		.4byte	0xb6
 7610 1f55 03       		.byte	0x3
ARM GAS  C:\Users\MM1005~1\AppData\Local\Temp\cc36bet7.s 			page 163


 7611 1f56 00       		.byte	0
 7612 1f57 1B       		.uleb128 0x1b
 7613 1f58 C4040000 		.4byte	.LASF206
 7614 1f5c 01       		.byte	0x1
 7615 1f5d 15       		.byte	0x15
 7616 1f5e 681F0000 		.4byte	0x1f68
 7617 1f62 05       		.uleb128 0x5
 7618 1f63 03       		.byte	0x3
 7619 1f64 F8000000 		.4byte	vec_anim_commands
 7620 1f68 09       		.uleb128 0x9
 7621 1f69 471F0000 		.4byte	0x1f47
 7622 1f6d 0C       		.uleb128 0xc
 7623 1f6e E0050000 		.4byte	0x5e0
 7624 1f72 7D1F0000 		.4byte	0x1f7d
 7625 1f76 0D       		.uleb128 0xd
 7626 1f77 B6000000 		.4byte	0xb6
 7627 1f7b 01       		.byte	0x1
 7628 1f7c 00       		.byte	0
 7629 1f7d 1B       		.uleb128 0x1b
 7630 1f7e 4F010000 		.4byte	.LASF207
 7631 1f82 01       		.byte	0x1
 7632 1f83 19       		.byte	0x19
 7633 1f84 8E1F0000 		.4byte	0x1f8e
 7634 1f88 05       		.uleb128 0x5
 7635 1f89 03       		.byte	0x3
 7636 1f8a A4000000 		.4byte	vec_sensor_commands
 7637 1f8e 09       		.uleb128 0x9
 7638 1f8f 6D1F0000 		.4byte	0x1f6d
 7639 1f93 1B       		.uleb128 0x1b
 7640 1f94 C0070000 		.4byte	.LASF208
 7641 1f98 01       		.byte	0x1
 7642 1f99 1B       		.byte	0x1b
 7643 1f9a A41F0000 		.4byte	0x1fa4
 7644 1f9e 05       		.uleb128 0x5
 7645 1f9f 03       		.byte	0x3
 7646 1fa0 BC000000 		.4byte	vec_telemetry_commands
 7647 1fa4 09       		.uleb128 0x9
 7648 1fa5 6D1F0000 		.4byte	0x1f6d
 7649 1fa9 1B       		.uleb128 0x1b
 7650 1faa 7C050000 		.4byte	.LASF209
 7651 1fae 01       		.byte	0x1
 7652 1faf 1D       		.byte	0x1d
 7653 1fb0 BA1F0000 		.4byte	0x1fba
 7654 1fb4 05       		.uleb128 0x5
 7655 1fb5 03       		.byte	0x3
 7656 1fb6 D4000000 		.4byte	vec_tracker_commands
 7657 1fba 09       		.uleb128 0x9
 7658 1fbb 211F0000 		.4byte	0x1f21
 7659 1fbf 0C       		.uleb128 0xc
 7660 1fc0 E0050000 		.4byte	0x5e0
 7661 1fc4 CF1F0000 		.4byte	0x1fcf
 7662 1fc8 0D       		.uleb128 0xd
 7663 1fc9 B6000000 		.4byte	0xb6
 7664 1fcd 04       		.byte	0x4
 7665 1fce 00       		.byte	0
 7666 1fcf 1B       		.uleb128 0x1b
 7667 1fd0 640E0000 		.4byte	.LASF210
ARM GAS  C:\Users\MM1005~1\AppData\Local\Temp\cc36bet7.s 			page 164


 7668 1fd4 01       		.byte	0x1
 7669 1fd5 20       		.byte	0x20
 7670 1fd6 E01F0000 		.4byte	0x1fe0
 7671 1fda 05       		.uleb128 0x5
 7672 1fdb 03       		.byte	0x3
 7673 1fdc 4C010000 		.4byte	vec_led_commands
 7674 1fe0 09       		.uleb128 0x9
 7675 1fe1 BF1F0000 		.4byte	0x1fbf
 7676 1fe5 0C       		.uleb128 0xc
 7677 1fe6 E0050000 		.4byte	0x5e0
 7678 1fea F51F0000 		.4byte	0x1ff5
 7679 1fee 0D       		.uleb128 0xd
 7680 1fef B6000000 		.4byte	0xb6
 7681 1ff3 08       		.byte	0x8
 7682 1ff4 00       		.byte	0
 7683 1ff5 1B       		.uleb128 0x1b
 7684 1ff6 370F0000 		.4byte	.LASF211
 7685 1ffa 01       		.byte	0x1
 7686 1ffb 25       		.byte	0x25
 7687 1ffc 06200000 		.4byte	0x2006
 7688 2000 05       		.uleb128 0x5
 7689 2001 03       		.byte	0x3
 7690 2002 38000000 		.4byte	vec_commands
 7691 2006 09       		.uleb128 0x9
 7692 2007 E51F0000 		.4byte	0x1fe5
 7693 200b 1B       		.uleb128 0x1b
 7694 200c 9B0A0000 		.4byte	.LASF212
 7695 2010 01       		.byte	0x1
 7696 2011 2F       		.byte	0x2f
 7697 2012 76000000 		.4byte	0x76
 7698 2016 05       		.uleb128 0x5
 7699 2017 03       		.byte	0x3
 7700 2018 00000000 		.4byte	is_telemetry_enable
 7701 201c 1B       		.uleb128 0x1b
 7702 201d AE010000 		.4byte	.LASF213
 7703 2021 01       		.byte	0x1
 7704 2022 30       		.byte	0x30
 7705 2023 76000000 		.4byte	0x76
 7706 2027 05       		.uleb128 0x5
 7707 2028 03       		.byte	0x3
 7708 2029 04020000 		.4byte	is_sensor_telemetry_enable
 7709 202d 0C       		.uleb128 0xc
 7710 202e A8000000 		.4byte	0xa8
 7711 2032 3E200000 		.4byte	0x203e
 7712 2036 28       		.uleb128 0x28
 7713 2037 B6000000 		.4byte	0xb6
 7714 203b FF01     		.2byte	0x1ff
 7715 203d 00       		.byte	0
 7716 203e 1B       		.uleb128 0x1b
 7717 203f 52070000 		.4byte	.LASF155
 7718 2043 01       		.byte	0x1
 7719 2044 31       		.byte	0x31
 7720 2045 2D200000 		.4byte	0x202d
 7721 2049 05       		.uleb128 0x5
 7722 204a 03       		.byte	0x3
 7723 204b 04000000 		.4byte	telemetry
 7724 204f 29       		.uleb128 0x29
ARM GAS  C:\Users\MM1005~1\AppData\Local\Temp\cc36bet7.s 			page 165


 7725 2050 580C0000 		.4byte	.LASF238
 7726 2054 06       		.byte	0x6
 7727 2055 C103     		.2byte	0x3c1
 7728 2057 5B200000 		.4byte	0x205b
 7729 205b 09       		.uleb128 0x9
 7730 205c C0020000 		.4byte	0x2c0
 7731 2060 2A       		.uleb128 0x2a
 7732 2061 2F030000 		.4byte	.LASF219
 7733 2065 0D       		.byte	0xd
 7734 2066 28       		.byte	0x28
 7735 2067 BF000000 		.4byte	0xbf
 7736 206b 7A200000 		.4byte	0x207a
 7737 206f 2B       		.uleb128 0x2b
 7738 2070 C5000000 		.4byte	0xc5
 7739 2074 2B       		.uleb128 0x2b
 7740 2075 C5000000 		.4byte	0xc5
 7741 2079 00       		.byte	0
 7742 207a 2C       		.uleb128 0x2c
 7743 207b 72090000 		.4byte	.LASF214
 7744 207f 09       		.byte	0x9
 7745 2080 47       		.byte	0x47
 7746 2081 90200000 		.4byte	0x2090
 7747 2085 2B       		.uleb128 0x2b
 7748 2086 91030000 		.4byte	0x391
 7749 208a 2B       		.uleb128 0x2b
 7750 208b 90200000 		.4byte	0x2090
 7751 208f 00       		.byte	0
 7752 2090 06       		.uleb128 0x6
 7753 2091 04       		.byte	0x4
 7754 2092 EF030000 		.4byte	0x3ef
 7755 2096 2D       		.uleb128 0x2d
 7756 2097 79010000 		.4byte	.LASF216
 7757 209b 0C       		.byte	0xc
 7758 209c 25       		.byte	0x25
 7759 209d 2C       		.uleb128 0x2c
 7760 209e 1B100000 		.4byte	.LASF215
 7761 20a2 0B       		.byte	0xb
 7762 20a3 11       		.byte	0x11
 7763 20a4 AE200000 		.4byte	0x20ae
 7764 20a8 2B       		.uleb128 0x2b
 7765 20a9 C5000000 		.4byte	0xc5
 7766 20ad 00       		.byte	0
 7767 20ae 2D       		.uleb128 0x2d
 7768 20af 5B080000 		.4byte	.LASF217
 7769 20b3 0C       		.byte	0xc
 7770 20b4 23       		.byte	0x23
 7771 20b5 2E       		.uleb128 0x2e
 7772 20b6 2C090000 		.4byte	.LASF218
 7773 20ba BD000000 		.4byte	0xbd
 7774 20be D2200000 		.4byte	0x20d2
 7775 20c2 2B       		.uleb128 0x2b
 7776 20c3 BD000000 		.4byte	0xbd
 7777 20c7 2B       		.uleb128 0x2b
 7778 20c8 5D000000 		.4byte	0x5d
 7779 20cc 2B       		.uleb128 0x2b
 7780 20cd B6000000 		.4byte	0xb6
 7781 20d1 00       		.byte	0
ARM GAS  C:\Users\MM1005~1\AppData\Local\Temp\cc36bet7.s 			page 166


 7782 20d2 2A       		.uleb128 0x2a
 7783 20d3 49030000 		.4byte	.LASF220
 7784 20d7 0D       		.byte	0xd
 7785 20d8 1A       		.byte	0x1a
 7786 20d9 BF000000 		.4byte	0xbf
 7787 20dd EC200000 		.4byte	0x20ec
 7788 20e1 2B       		.uleb128 0x2b
 7789 20e2 BF000000 		.4byte	0xbf
 7790 20e6 2B       		.uleb128 0x2b
 7791 20e7 C5000000 		.4byte	0xc5
 7792 20eb 00       		.byte	0
 7793 20ec 2F       		.uleb128 0x2f
 7794 20ed FD030000 		.4byte	.LASF239
 7795 20f1 0E       		.byte	0xe
 7796 20f2 00       		.byte	0
 7797 20f3 3D010000 		.4byte	.LASF240
 7798 20f7 64000000 		.4byte	0x64
 7799 20fb 05210000 		.4byte	0x2105
 7800 20ff 2B       		.uleb128 0x2b
 7801 2100 C5000000 		.4byte	0xc5
 7802 2104 00       		.byte	0
 7803 2105 2E       		.uleb128 0x2e
 7804 2106 440F0000 		.4byte	.LASF221
 7805 210a BD000000 		.4byte	0xbd
 7806 210e 22210000 		.4byte	0x2122
 7807 2112 2B       		.uleb128 0x2b
 7808 2113 BD000000 		.4byte	0xbd
 7809 2117 2B       		.uleb128 0x2b
 7810 2118 7A020000 		.4byte	0x27a
 7811 211c 2B       		.uleb128 0x2b
 7812 211d B6000000 		.4byte	0xb6
 7813 2121 00       		.byte	0
 7814 2122 2A       		.uleb128 0x2a
 7815 2123 1A0E0000 		.4byte	.LASF222
 7816 2127 07       		.byte	0x7
 7817 2128 38       		.byte	0x38
 7818 2129 BF000000 		.4byte	0xbf
 7819 212d 37210000 		.4byte	0x2137
 7820 2131 2B       		.uleb128 0x2b
 7821 2132 4F000000 		.4byte	0x4f
 7822 2136 00       		.byte	0
 7823 2137 30       		.uleb128 0x30
 7824 2138 300B0000 		.4byte	.LASF223
 7825 213c 07       		.byte	0x7
 7826 213d 3E       		.byte	0x3e
 7827 213e 6B000000 		.4byte	0x6b
 7828 2142 48210000 		.4byte	0x2148
 7829 2146 31       		.uleb128 0x31
 7830 2147 00       		.byte	0
 7831 2148 32       		.uleb128 0x32
 7832 2149 780F0000 		.4byte	.LASF241
 7833 214d 0F       		.byte	0xf
 7834 214e 4B01     		.2byte	0x14b
 7835 2150 8E000000 		.4byte	0x8e
 7836 2154 33       		.uleb128 0x33
 7837 2155 33070000 		.4byte	.LASF224
 7838 2159 06       		.byte	0x6
ARM GAS  C:\Users\MM1005~1\AppData\Local\Temp\cc36bet7.s 			page 167


 7839 215a D603     		.2byte	0x3d6
 7840 215c 8E000000 		.4byte	0x8e
 7841 2160 6F210000 		.4byte	0x216f
 7842 2164 2B       		.uleb128 0x2b
 7843 2165 8E000000 		.4byte	0x8e
 7844 2169 2B       		.uleb128 0x2b
 7845 216a 8E000000 		.4byte	0x8e
 7846 216e 00       		.byte	0
 7847 216f 2A       		.uleb128 0x2a
 7848 2170 D60A0000 		.4byte	.LASF225
 7849 2174 0D       		.byte	0xd
 7850 2175 1B       		.byte	0x1b
 7851 2176 BF000000 		.4byte	0xbf
 7852 217a 89210000 		.4byte	0x2189
 7853 217e 2B       		.uleb128 0x2b
 7854 217f C5000000 		.4byte	0xc5
 7855 2183 2B       		.uleb128 0x2b
 7856 2184 5D000000 		.4byte	0x5d
 7857 2188 00       		.byte	0
 7858 2189 2C       		.uleb128 0x2c
 7859 218a 370D0000 		.4byte	.LASF226
 7860 218e 09       		.byte	0x9
 7861 218f 4B       		.byte	0x4b
 7862 2190 9A210000 		.4byte	0x219a
 7863 2194 2B       		.uleb128 0x2b
 7864 2195 76000000 		.4byte	0x76
 7865 2199 00       		.byte	0
 7866 219a 2C       		.uleb128 0x2c
 7867 219b D7000000 		.4byte	.LASF227
 7868 219f 09       		.byte	0x9
 7869 21a0 4D       		.byte	0x4d
 7870 21a1 AB210000 		.4byte	0x21ab
 7871 21a5 2B       		.uleb128 0x2b
 7872 21a6 76000000 		.4byte	0x76
 7873 21aa 00       		.byte	0
 7874 21ab 2C       		.uleb128 0x2c
 7875 21ac 96070000 		.4byte	.LASF228
 7876 21b0 09       		.byte	0x9
 7877 21b1 49       		.byte	0x49
 7878 21b2 BC210000 		.4byte	0x21bc
 7879 21b6 2B       		.uleb128 0x2b
 7880 21b7 91030000 		.4byte	0x391
 7881 21bb 00       		.byte	0
 7882 21bc 2C       		.uleb128 0x2c
 7883 21bd 710D0000 		.4byte	.LASF229
 7884 21c1 08       		.byte	0x8
 7885 21c2 3C       		.byte	0x3c
 7886 21c3 CD210000 		.4byte	0x21cd
 7887 21c7 2B       		.uleb128 0x2b
 7888 21c8 82000000 		.4byte	0x82
 7889 21cc 00       		.byte	0
 7890 21cd 2A       		.uleb128 0x2a
 7891 21ce 4B0F0000 		.4byte	.LASF230
 7892 21d2 07       		.byte	0x7
 7893 21d3 39       		.byte	0x39
 7894 21d4 5D000000 		.4byte	0x5d
 7895 21d8 E2210000 		.4byte	0x21e2
ARM GAS  C:\Users\MM1005~1\AppData\Local\Temp\cc36bet7.s 			page 168


 7896 21dc 2B       		.uleb128 0x2b
 7897 21dd BF000000 		.4byte	0xbf
 7898 21e1 00       		.byte	0
 7899 21e2 2C       		.uleb128 0x2c
 7900 21e3 C4090000 		.4byte	.LASF231
 7901 21e7 08       		.byte	0x8
 7902 21e8 39       		.byte	0x39
 7903 21e9 F8210000 		.4byte	0x21f8
 7904 21ed 2B       		.uleb128 0x2b
 7905 21ee A8000000 		.4byte	0xa8
 7906 21f2 2B       		.uleb128 0x2b
 7907 21f3 82000000 		.4byte	0x82
 7908 21f7 00       		.byte	0
 7909 21f8 2C       		.uleb128 0x2c
 7910 21f9 A0010000 		.4byte	.LASF232
 7911 21fd 08       		.byte	0x8
 7912 21fe 3D       		.byte	0x3d
 7913 21ff 09220000 		.4byte	0x2209
 7914 2203 2B       		.uleb128 0x2b
 7915 2204 EC000000 		.4byte	0xec
 7916 2208 00       		.byte	0
 7917 2209 2C       		.uleb128 0x2c
 7918 220a 990B0000 		.4byte	.LASF233
 7919 220e 07       		.byte	0x7
 7920 220f 3B       		.byte	0x3b
 7921 2210 1A220000 		.4byte	0x221a
 7922 2214 2B       		.uleb128 0x2b
 7923 2215 76000000 		.4byte	0x76
 7924 2219 00       		.byte	0
 7925 221a 2C       		.uleb128 0x2c
 7926 221b 63010000 		.4byte	.LASF234
 7927 221f 07       		.byte	0x7
 7928 2220 3D       		.byte	0x3d
 7929 2221 2B220000 		.4byte	0x222b
 7930 2225 2B       		.uleb128 0x2b
 7931 2226 82000000 		.4byte	0x82
 7932 222a 00       		.byte	0
 7933 222b 34       		.uleb128 0x34
 7934 222c 4E090000 		.4byte	.LASF242
 7935 2230 07       		.byte	0x7
 7936 2231 40       		.byte	0x40
 7937 2232 C5000000 		.4byte	0xc5
 7938 2236 31       		.uleb128 0x31
 7939 2237 00       		.byte	0
 7940 2238 00       		.byte	0
 7941              		.section	.debug_abbrev,"",%progbits
 7942              	.Ldebug_abbrev0:
 7943 0000 01       		.uleb128 0x1
 7944 0001 11       		.uleb128 0x11
 7945 0002 01       		.byte	0x1
 7946 0003 25       		.uleb128 0x25
 7947 0004 0E       		.uleb128 0xe
 7948 0005 13       		.uleb128 0x13
 7949 0006 0B       		.uleb128 0xb
 7950 0007 03       		.uleb128 0x3
 7951 0008 0E       		.uleb128 0xe
 7952 0009 1B       		.uleb128 0x1b
ARM GAS  C:\Users\MM1005~1\AppData\Local\Temp\cc36bet7.s 			page 169


 7953 000a 0E       		.uleb128 0xe
 7954 000b 55       		.uleb128 0x55
 7955 000c 17       		.uleb128 0x17
 7956 000d 11       		.uleb128 0x11
 7957 000e 01       		.uleb128 0x1
 7958 000f 10       		.uleb128 0x10
 7959 0010 17       		.uleb128 0x17
 7960 0011 00       		.byte	0
 7961 0012 00       		.byte	0
 7962 0013 02       		.uleb128 0x2
 7963 0014 24       		.uleb128 0x24
 7964 0015 00       		.byte	0
 7965 0016 0B       		.uleb128 0xb
 7966 0017 0B       		.uleb128 0xb
 7967 0018 3E       		.uleb128 0x3e
 7968 0019 0B       		.uleb128 0xb
 7969 001a 03       		.uleb128 0x3
 7970 001b 0E       		.uleb128 0xe
 7971 001c 00       		.byte	0
 7972 001d 00       		.byte	0
 7973 001e 03       		.uleb128 0x3
 7974 001f 24       		.uleb128 0x24
 7975 0020 00       		.byte	0
 7976 0021 0B       		.uleb128 0xb
 7977 0022 0B       		.uleb128 0xb
 7978 0023 3E       		.uleb128 0x3e
 7979 0024 0B       		.uleb128 0xb
 7980 0025 03       		.uleb128 0x3
 7981 0026 08       		.uleb128 0x8
 7982 0027 00       		.byte	0
 7983 0028 00       		.byte	0
 7984 0029 04       		.uleb128 0x4
 7985 002a 16       		.uleb128 0x16
 7986 002b 00       		.byte	0
 7987 002c 03       		.uleb128 0x3
 7988 002d 0E       		.uleb128 0xe
 7989 002e 3A       		.uleb128 0x3a
 7990 002f 0B       		.uleb128 0xb
 7991 0030 3B       		.uleb128 0x3b
 7992 0031 0B       		.uleb128 0xb
 7993 0032 49       		.uleb128 0x49
 7994 0033 13       		.uleb128 0x13
 7995 0034 00       		.byte	0
 7996 0035 00       		.byte	0
 7997 0036 05       		.uleb128 0x5
 7998 0037 16       		.uleb128 0x16
 7999 0038 00       		.byte	0
 8000 0039 03       		.uleb128 0x3
 8001 003a 0E       		.uleb128 0xe
 8002 003b 3A       		.uleb128 0x3a
 8003 003c 0B       		.uleb128 0xb
 8004 003d 3B       		.uleb128 0x3b
 8005 003e 05       		.uleb128 0x5
 8006 003f 49       		.uleb128 0x49
 8007 0040 13       		.uleb128 0x13
 8008 0041 00       		.byte	0
 8009 0042 00       		.byte	0
ARM GAS  C:\Users\MM1005~1\AppData\Local\Temp\cc36bet7.s 			page 170


 8010 0043 06       		.uleb128 0x6
 8011 0044 0F       		.uleb128 0xf
 8012 0045 00       		.byte	0
 8013 0046 0B       		.uleb128 0xb
 8014 0047 0B       		.uleb128 0xb
 8015 0048 49       		.uleb128 0x49
 8016 0049 13       		.uleb128 0x13
 8017 004a 00       		.byte	0
 8018 004b 00       		.byte	0
 8019 004c 07       		.uleb128 0x7
 8020 004d 15       		.uleb128 0x15
 8021 004e 00       		.byte	0
 8022 004f 27       		.uleb128 0x27
 8023 0050 19       		.uleb128 0x19
 8024 0051 00       		.byte	0
 8025 0052 00       		.byte	0
 8026 0053 08       		.uleb128 0x8
 8027 0054 0F       		.uleb128 0xf
 8028 0055 00       		.byte	0
 8029 0056 0B       		.uleb128 0xb
 8030 0057 0B       		.uleb128 0xb
 8031 0058 00       		.byte	0
 8032 0059 00       		.byte	0
 8033 005a 09       		.uleb128 0x9
 8034 005b 26       		.uleb128 0x26
 8035 005c 00       		.byte	0
 8036 005d 49       		.uleb128 0x49
 8037 005e 13       		.uleb128 0x13
 8038 005f 00       		.byte	0
 8039 0060 00       		.byte	0
 8040 0061 0A       		.uleb128 0xa
 8041 0062 13       		.uleb128 0x13
 8042 0063 01       		.byte	0x1
 8043 0064 0B       		.uleb128 0xb
 8044 0065 0B       		.uleb128 0xb
 8045 0066 3A       		.uleb128 0x3a
 8046 0067 0B       		.uleb128 0xb
 8047 0068 3B       		.uleb128 0x3b
 8048 0069 0B       		.uleb128 0xb
 8049 006a 01       		.uleb128 0x1
 8050 006b 13       		.uleb128 0x13
 8051 006c 00       		.byte	0
 8052 006d 00       		.byte	0
 8053 006e 0B       		.uleb128 0xb
 8054 006f 0D       		.uleb128 0xd
 8055 0070 00       		.byte	0
 8056 0071 03       		.uleb128 0x3
 8057 0072 0E       		.uleb128 0xe
 8058 0073 3A       		.uleb128 0x3a
 8059 0074 0B       		.uleb128 0xb
 8060 0075 3B       		.uleb128 0x3b
 8061 0076 0B       		.uleb128 0xb
 8062 0077 49       		.uleb128 0x49
 8063 0078 13       		.uleb128 0x13
 8064 0079 38       		.uleb128 0x38
 8065 007a 0B       		.uleb128 0xb
 8066 007b 00       		.byte	0
ARM GAS  C:\Users\MM1005~1\AppData\Local\Temp\cc36bet7.s 			page 171


 8067 007c 00       		.byte	0
 8068 007d 0C       		.uleb128 0xc
 8069 007e 01       		.uleb128 0x1
 8070 007f 01       		.byte	0x1
 8071 0080 49       		.uleb128 0x49
 8072 0081 13       		.uleb128 0x13
 8073 0082 01       		.uleb128 0x1
 8074 0083 13       		.uleb128 0x13
 8075 0084 00       		.byte	0
 8076 0085 00       		.byte	0
 8077 0086 0D       		.uleb128 0xd
 8078 0087 21       		.uleb128 0x21
 8079 0088 00       		.byte	0
 8080 0089 49       		.uleb128 0x49
 8081 008a 13       		.uleb128 0x13
 8082 008b 2F       		.uleb128 0x2f
 8083 008c 0B       		.uleb128 0xb
 8084 008d 00       		.byte	0
 8085 008e 00       		.byte	0
 8086 008f 0E       		.uleb128 0xe
 8087 0090 13       		.uleb128 0x13
 8088 0091 01       		.byte	0x1
 8089 0092 0B       		.uleb128 0xb
 8090 0093 0B       		.uleb128 0xb
 8091 0094 3A       		.uleb128 0x3a
 8092 0095 0B       		.uleb128 0xb
 8093 0096 3B       		.uleb128 0x3b
 8094 0097 05       		.uleb128 0x5
 8095 0098 01       		.uleb128 0x1
 8096 0099 13       		.uleb128 0x13
 8097 009a 00       		.byte	0
 8098 009b 00       		.byte	0
 8099 009c 0F       		.uleb128 0xf
 8100 009d 0D       		.uleb128 0xd
 8101 009e 00       		.byte	0
 8102 009f 03       		.uleb128 0x3
 8103 00a0 08       		.uleb128 0x8
 8104 00a1 3A       		.uleb128 0x3a
 8105 00a2 0B       		.uleb128 0xb
 8106 00a3 3B       		.uleb128 0x3b
 8107 00a4 05       		.uleb128 0x5
 8108 00a5 49       		.uleb128 0x49
 8109 00a6 13       		.uleb128 0x13
 8110 00a7 38       		.uleb128 0x38
 8111 00a8 0B       		.uleb128 0xb
 8112 00a9 00       		.byte	0
 8113 00aa 00       		.byte	0
 8114 00ab 10       		.uleb128 0x10
 8115 00ac 0D       		.uleb128 0xd
 8116 00ad 00       		.byte	0
 8117 00ae 03       		.uleb128 0x3
 8118 00af 0E       		.uleb128 0xe
 8119 00b0 3A       		.uleb128 0x3a
 8120 00b1 0B       		.uleb128 0xb
 8121 00b2 3B       		.uleb128 0x3b
 8122 00b3 05       		.uleb128 0x5
 8123 00b4 49       		.uleb128 0x49
ARM GAS  C:\Users\MM1005~1\AppData\Local\Temp\cc36bet7.s 			page 172


 8124 00b5 13       		.uleb128 0x13
 8125 00b6 38       		.uleb128 0x38
 8126 00b7 0B       		.uleb128 0xb
 8127 00b8 00       		.byte	0
 8128 00b9 00       		.byte	0
 8129 00ba 11       		.uleb128 0x11
 8130 00bb 26       		.uleb128 0x26
 8131 00bc 00       		.byte	0
 8132 00bd 00       		.byte	0
 8133 00be 00       		.byte	0
 8134 00bf 12       		.uleb128 0x12
 8135 00c0 04       		.uleb128 0x4
 8136 00c1 01       		.byte	0x1
 8137 00c2 03       		.uleb128 0x3
 8138 00c3 0E       		.uleb128 0xe
 8139 00c4 0B       		.uleb128 0xb
 8140 00c5 0B       		.uleb128 0xb
 8141 00c6 3A       		.uleb128 0x3a
 8142 00c7 0B       		.uleb128 0xb
 8143 00c8 3B       		.uleb128 0x3b
 8144 00c9 0B       		.uleb128 0xb
 8145 00ca 01       		.uleb128 0x1
 8146 00cb 13       		.uleb128 0x13
 8147 00cc 00       		.byte	0
 8148 00cd 00       		.byte	0
 8149 00ce 13       		.uleb128 0x13
 8150 00cf 28       		.uleb128 0x28
 8151 00d0 00       		.byte	0
 8152 00d1 03       		.uleb128 0x3
 8153 00d2 0E       		.uleb128 0xe
 8154 00d3 1C       		.uleb128 0x1c
 8155 00d4 0D       		.uleb128 0xd
 8156 00d5 00       		.byte	0
 8157 00d6 00       		.byte	0
 8158 00d7 14       		.uleb128 0x14
 8159 00d8 13       		.uleb128 0x13
 8160 00d9 01       		.byte	0x1
 8161 00da 03       		.uleb128 0x3
 8162 00db 0E       		.uleb128 0xe
 8163 00dc 0B       		.uleb128 0xb
 8164 00dd 0B       		.uleb128 0xb
 8165 00de 3A       		.uleb128 0x3a
 8166 00df 0B       		.uleb128 0xb
 8167 00e0 3B       		.uleb128 0x3b
 8168 00e1 0B       		.uleb128 0xb
 8169 00e2 01       		.uleb128 0x1
 8170 00e3 13       		.uleb128 0x13
 8171 00e4 00       		.byte	0
 8172 00e5 00       		.byte	0
 8173 00e6 15       		.uleb128 0x15
 8174 00e7 0D       		.uleb128 0xd
 8175 00e8 00       		.byte	0
 8176 00e9 03       		.uleb128 0x3
 8177 00ea 08       		.uleb128 0x8
 8178 00eb 3A       		.uleb128 0x3a
 8179 00ec 0B       		.uleb128 0xb
 8180 00ed 3B       		.uleb128 0x3b
ARM GAS  C:\Users\MM1005~1\AppData\Local\Temp\cc36bet7.s 			page 173


 8181 00ee 0B       		.uleb128 0xb
 8182 00ef 49       		.uleb128 0x49
 8183 00f0 13       		.uleb128 0x13
 8184 00f1 38       		.uleb128 0x38
 8185 00f2 0B       		.uleb128 0xb
 8186 00f3 00       		.byte	0
 8187 00f4 00       		.byte	0
 8188 00f5 16       		.uleb128 0x16
 8189 00f6 2E       		.uleb128 0x2e
 8190 00f7 01       		.byte	0x1
 8191 00f8 3F       		.uleb128 0x3f
 8192 00f9 19       		.uleb128 0x19
 8193 00fa 03       		.uleb128 0x3
 8194 00fb 0E       		.uleb128 0xe
 8195 00fc 3A       		.uleb128 0x3a
 8196 00fd 0B       		.uleb128 0xb
 8197 00fe 3B       		.uleb128 0x3b
 8198 00ff 0B       		.uleb128 0xb
 8199 0100 27       		.uleb128 0x27
 8200 0101 19       		.uleb128 0x19
 8201 0102 49       		.uleb128 0x49
 8202 0103 13       		.uleb128 0x13
 8203 0104 11       		.uleb128 0x11
 8204 0105 01       		.uleb128 0x1
 8205 0106 12       		.uleb128 0x12
 8206 0107 06       		.uleb128 0x6
 8207 0108 40       		.uleb128 0x40
 8208 0109 18       		.uleb128 0x18
 8209 010a 9742     		.uleb128 0x2117
 8210 010c 19       		.uleb128 0x19
 8211 010d 01       		.uleb128 0x1
 8212 010e 13       		.uleb128 0x13
 8213 010f 00       		.byte	0
 8214 0110 00       		.byte	0
 8215 0111 17       		.uleb128 0x17
 8216 0112 05       		.uleb128 0x5
 8217 0113 00       		.byte	0
 8218 0114 03       		.uleb128 0x3
 8219 0115 0E       		.uleb128 0xe
 8220 0116 3A       		.uleb128 0x3a
 8221 0117 0B       		.uleb128 0xb
 8222 0118 3B       		.uleb128 0x3b
 8223 0119 0B       		.uleb128 0xb
 8224 011a 49       		.uleb128 0x49
 8225 011b 13       		.uleb128 0x13
 8226 011c 02       		.uleb128 0x2
 8227 011d 17       		.uleb128 0x17
 8228 011e 00       		.byte	0
 8229 011f 00       		.byte	0
 8230 0120 18       		.uleb128 0x18
 8231 0121 34       		.uleb128 0x34
 8232 0122 00       		.byte	0
 8233 0123 03       		.uleb128 0x3
 8234 0124 08       		.uleb128 0x8
 8235 0125 3A       		.uleb128 0x3a
 8236 0126 0B       		.uleb128 0xb
 8237 0127 3B       		.uleb128 0x3b
ARM GAS  C:\Users\MM1005~1\AppData\Local\Temp\cc36bet7.s 			page 174


 8238 0128 0B       		.uleb128 0xb
 8239 0129 49       		.uleb128 0x49
 8240 012a 13       		.uleb128 0x13
 8241 012b 02       		.uleb128 0x2
 8242 012c 17       		.uleb128 0x17
 8243 012d 00       		.byte	0
 8244 012e 00       		.byte	0
 8245 012f 19       		.uleb128 0x19
 8246 0130 898201   		.uleb128 0x4109
 8247 0133 01       		.byte	0x1
 8248 0134 11       		.uleb128 0x11
 8249 0135 01       		.uleb128 0x1
 8250 0136 31       		.uleb128 0x31
 8251 0137 13       		.uleb128 0x13
 8252 0138 00       		.byte	0
 8253 0139 00       		.byte	0
 8254 013a 1A       		.uleb128 0x1a
 8255 013b 8A8201   		.uleb128 0x410a
 8256 013e 00       		.byte	0
 8257 013f 02       		.uleb128 0x2
 8258 0140 18       		.uleb128 0x18
 8259 0141 9142     		.uleb128 0x2111
 8260 0143 18       		.uleb128 0x18
 8261 0144 00       		.byte	0
 8262 0145 00       		.byte	0
 8263 0146 1B       		.uleb128 0x1b
 8264 0147 34       		.uleb128 0x34
 8265 0148 00       		.byte	0
 8266 0149 03       		.uleb128 0x3
 8267 014a 0E       		.uleb128 0xe
 8268 014b 3A       		.uleb128 0x3a
 8269 014c 0B       		.uleb128 0xb
 8270 014d 3B       		.uleb128 0x3b
 8271 014e 0B       		.uleb128 0xb
 8272 014f 49       		.uleb128 0x49
 8273 0150 13       		.uleb128 0x13
 8274 0151 02       		.uleb128 0x2
 8275 0152 18       		.uleb128 0x18
 8276 0153 00       		.byte	0
 8277 0154 00       		.byte	0
 8278 0155 1C       		.uleb128 0x1c
 8279 0156 898201   		.uleb128 0x4109
 8280 0159 01       		.byte	0x1
 8281 015a 11       		.uleb128 0x11
 8282 015b 01       		.uleb128 0x1
 8283 015c 31       		.uleb128 0x31
 8284 015d 13       		.uleb128 0x13
 8285 015e 01       		.uleb128 0x1
 8286 015f 13       		.uleb128 0x13
 8287 0160 00       		.byte	0
 8288 0161 00       		.byte	0
 8289 0162 1D       		.uleb128 0x1d
 8290 0163 2E       		.uleb128 0x2e
 8291 0164 00       		.byte	0
 8292 0165 3F       		.uleb128 0x3f
 8293 0166 19       		.uleb128 0x19
 8294 0167 03       		.uleb128 0x3
ARM GAS  C:\Users\MM1005~1\AppData\Local\Temp\cc36bet7.s 			page 175


 8295 0168 0E       		.uleb128 0xe
 8296 0169 3A       		.uleb128 0x3a
 8297 016a 0B       		.uleb128 0xb
 8298 016b 3B       		.uleb128 0x3b
 8299 016c 05       		.uleb128 0x5
 8300 016d 27       		.uleb128 0x27
 8301 016e 19       		.uleb128 0x19
 8302 016f 11       		.uleb128 0x11
 8303 0170 01       		.uleb128 0x1
 8304 0171 12       		.uleb128 0x12
 8305 0172 06       		.uleb128 0x6
 8306 0173 40       		.uleb128 0x40
 8307 0174 18       		.uleb128 0x18
 8308 0175 9742     		.uleb128 0x2117
 8309 0177 19       		.uleb128 0x19
 8310 0178 00       		.byte	0
 8311 0179 00       		.byte	0
 8312 017a 1E       		.uleb128 0x1e
 8313 017b 2E       		.uleb128 0x2e
 8314 017c 00       		.byte	0
 8315 017d 3F       		.uleb128 0x3f
 8316 017e 19       		.uleb128 0x19
 8317 017f 03       		.uleb128 0x3
 8318 0180 0E       		.uleb128 0xe
 8319 0181 3A       		.uleb128 0x3a
 8320 0182 0B       		.uleb128 0xb
 8321 0183 3B       		.uleb128 0x3b
 8322 0184 05       		.uleb128 0x5
 8323 0185 49       		.uleb128 0x49
 8324 0186 13       		.uleb128 0x13
 8325 0187 11       		.uleb128 0x11
 8326 0188 01       		.uleb128 0x1
 8327 0189 12       		.uleb128 0x12
 8328 018a 06       		.uleb128 0x6
 8329 018b 40       		.uleb128 0x40
 8330 018c 18       		.uleb128 0x18
 8331 018d 9742     		.uleb128 0x2117
 8332 018f 19       		.uleb128 0x19
 8333 0190 00       		.byte	0
 8334 0191 00       		.byte	0
 8335 0192 1F       		.uleb128 0x1f
 8336 0193 2E       		.uleb128 0x2e
 8337 0194 01       		.byte	0x1
 8338 0195 3F       		.uleb128 0x3f
 8339 0196 19       		.uleb128 0x19
 8340 0197 03       		.uleb128 0x3
 8341 0198 0E       		.uleb128 0xe
 8342 0199 3A       		.uleb128 0x3a
 8343 019a 0B       		.uleb128 0xb
 8344 019b 3B       		.uleb128 0x3b
 8345 019c 05       		.uleb128 0x5
 8346 019d 27       		.uleb128 0x27
 8347 019e 19       		.uleb128 0x19
 8348 019f 11       		.uleb128 0x11
 8349 01a0 01       		.uleb128 0x1
 8350 01a1 12       		.uleb128 0x12
 8351 01a2 06       		.uleb128 0x6
ARM GAS  C:\Users\MM1005~1\AppData\Local\Temp\cc36bet7.s 			page 176


 8352 01a3 40       		.uleb128 0x40
 8353 01a4 18       		.uleb128 0x18
 8354 01a5 9742     		.uleb128 0x2117
 8355 01a7 19       		.uleb128 0x19
 8356 01a8 01       		.uleb128 0x1
 8357 01a9 13       		.uleb128 0x13
 8358 01aa 00       		.byte	0
 8359 01ab 00       		.byte	0
 8360 01ac 20       		.uleb128 0x20
 8361 01ad 05       		.uleb128 0x5
 8362 01ae 00       		.byte	0
 8363 01af 03       		.uleb128 0x3
 8364 01b0 0E       		.uleb128 0xe
 8365 01b1 3A       		.uleb128 0x3a
 8366 01b2 0B       		.uleb128 0xb
 8367 01b3 3B       		.uleb128 0x3b
 8368 01b4 05       		.uleb128 0x5
 8369 01b5 49       		.uleb128 0x49
 8370 01b6 13       		.uleb128 0x13
 8371 01b7 02       		.uleb128 0x2
 8372 01b8 17       		.uleb128 0x17
 8373 01b9 00       		.byte	0
 8374 01ba 00       		.byte	0
 8375 01bb 21       		.uleb128 0x21
 8376 01bc 898201   		.uleb128 0x4109
 8377 01bf 00       		.byte	0
 8378 01c0 11       		.uleb128 0x11
 8379 01c1 01       		.uleb128 0x1
 8380 01c2 31       		.uleb128 0x31
 8381 01c3 13       		.uleb128 0x13
 8382 01c4 00       		.byte	0
 8383 01c5 00       		.byte	0
 8384 01c6 22       		.uleb128 0x22
 8385 01c7 34       		.uleb128 0x34
 8386 01c8 00       		.byte	0
 8387 01c9 03       		.uleb128 0x3
 8388 01ca 0E       		.uleb128 0xe
 8389 01cb 3A       		.uleb128 0x3a
 8390 01cc 0B       		.uleb128 0xb
 8391 01cd 3B       		.uleb128 0x3b
 8392 01ce 05       		.uleb128 0x5
 8393 01cf 49       		.uleb128 0x49
 8394 01d0 13       		.uleb128 0x13
 8395 01d1 02       		.uleb128 0x2
 8396 01d2 18       		.uleb128 0x18
 8397 01d3 00       		.byte	0
 8398 01d4 00       		.byte	0
 8399 01d5 23       		.uleb128 0x23
 8400 01d6 05       		.uleb128 0x5
 8401 01d7 00       		.byte	0
 8402 01d8 03       		.uleb128 0x3
 8403 01d9 0E       		.uleb128 0xe
 8404 01da 3A       		.uleb128 0x3a
 8405 01db 0B       		.uleb128 0xb
 8406 01dc 3B       		.uleb128 0x3b
 8407 01dd 05       		.uleb128 0x5
 8408 01de 49       		.uleb128 0x49
ARM GAS  C:\Users\MM1005~1\AppData\Local\Temp\cc36bet7.s 			page 177


 8409 01df 13       		.uleb128 0x13
 8410 01e0 02       		.uleb128 0x2
 8411 01e1 18       		.uleb128 0x18
 8412 01e2 00       		.byte	0
 8413 01e3 00       		.byte	0
 8414 01e4 24       		.uleb128 0x24
 8415 01e5 34       		.uleb128 0x34
 8416 01e6 00       		.byte	0
 8417 01e7 03       		.uleb128 0x3
 8418 01e8 0E       		.uleb128 0xe
 8419 01e9 3A       		.uleb128 0x3a
 8420 01ea 0B       		.uleb128 0xb
 8421 01eb 3B       		.uleb128 0x3b
 8422 01ec 05       		.uleb128 0x5
 8423 01ed 49       		.uleb128 0x49
 8424 01ee 13       		.uleb128 0x13
 8425 01ef 02       		.uleb128 0x2
 8426 01f0 17       		.uleb128 0x17
 8427 01f1 00       		.byte	0
 8428 01f2 00       		.byte	0
 8429 01f3 25       		.uleb128 0x25
 8430 01f4 34       		.uleb128 0x34
 8431 01f5 00       		.byte	0
 8432 01f6 03       		.uleb128 0x3
 8433 01f7 0E       		.uleb128 0xe
 8434 01f8 3A       		.uleb128 0x3a
 8435 01f9 0B       		.uleb128 0xb
 8436 01fa 3B       		.uleb128 0x3b
 8437 01fb 05       		.uleb128 0x5
 8438 01fc 49       		.uleb128 0x49
 8439 01fd 13       		.uleb128 0x13
 8440 01fe 00       		.byte	0
 8441 01ff 00       		.byte	0
 8442 0200 26       		.uleb128 0x26
 8443 0201 34       		.uleb128 0x34
 8444 0202 00       		.byte	0
 8445 0203 03       		.uleb128 0x3
 8446 0204 08       		.uleb128 0x8
 8447 0205 3A       		.uleb128 0x3a
 8448 0206 0B       		.uleb128 0xb
 8449 0207 3B       		.uleb128 0x3b
 8450 0208 05       		.uleb128 0x5
 8451 0209 49       		.uleb128 0x49
 8452 020a 13       		.uleb128 0x13
 8453 020b 02       		.uleb128 0x2
 8454 020c 17       		.uleb128 0x17
 8455 020d 00       		.byte	0
 8456 020e 00       		.byte	0
 8457 020f 27       		.uleb128 0x27
 8458 0210 34       		.uleb128 0x34
 8459 0211 00       		.byte	0
 8460 0212 03       		.uleb128 0x3
 8461 0213 0E       		.uleb128 0xe
 8462 0214 3A       		.uleb128 0x3a
 8463 0215 0B       		.uleb128 0xb
 8464 0216 3B       		.uleb128 0x3b
 8465 0217 0B       		.uleb128 0xb
ARM GAS  C:\Users\MM1005~1\AppData\Local\Temp\cc36bet7.s 			page 178


 8466 0218 49       		.uleb128 0x49
 8467 0219 13       		.uleb128 0x13
 8468 021a 02       		.uleb128 0x2
 8469 021b 17       		.uleb128 0x17
 8470 021c 00       		.byte	0
 8471 021d 00       		.byte	0
 8472 021e 28       		.uleb128 0x28
 8473 021f 21       		.uleb128 0x21
 8474 0220 00       		.byte	0
 8475 0221 49       		.uleb128 0x49
 8476 0222 13       		.uleb128 0x13
 8477 0223 2F       		.uleb128 0x2f
 8478 0224 05       		.uleb128 0x5
 8479 0225 00       		.byte	0
 8480 0226 00       		.byte	0
 8481 0227 29       		.uleb128 0x29
 8482 0228 34       		.uleb128 0x34
 8483 0229 00       		.byte	0
 8484 022a 03       		.uleb128 0x3
 8485 022b 0E       		.uleb128 0xe
 8486 022c 3A       		.uleb128 0x3a
 8487 022d 0B       		.uleb128 0xb
 8488 022e 3B       		.uleb128 0x3b
 8489 022f 05       		.uleb128 0x5
 8490 0230 49       		.uleb128 0x49
 8491 0231 13       		.uleb128 0x13
 8492 0232 3F       		.uleb128 0x3f
 8493 0233 19       		.uleb128 0x19
 8494 0234 3C       		.uleb128 0x3c
 8495 0235 19       		.uleb128 0x19
 8496 0236 00       		.byte	0
 8497 0237 00       		.byte	0
 8498 0238 2A       		.uleb128 0x2a
 8499 0239 2E       		.uleb128 0x2e
 8500 023a 01       		.byte	0x1
 8501 023b 3F       		.uleb128 0x3f
 8502 023c 19       		.uleb128 0x19
 8503 023d 03       		.uleb128 0x3
 8504 023e 0E       		.uleb128 0xe
 8505 023f 3A       		.uleb128 0x3a
 8506 0240 0B       		.uleb128 0xb
 8507 0241 3B       		.uleb128 0x3b
 8508 0242 0B       		.uleb128 0xb
 8509 0243 27       		.uleb128 0x27
 8510 0244 19       		.uleb128 0x19
 8511 0245 49       		.uleb128 0x49
 8512 0246 13       		.uleb128 0x13
 8513 0247 3C       		.uleb128 0x3c
 8514 0248 19       		.uleb128 0x19
 8515 0249 01       		.uleb128 0x1
 8516 024a 13       		.uleb128 0x13
 8517 024b 00       		.byte	0
 8518 024c 00       		.byte	0
 8519 024d 2B       		.uleb128 0x2b
 8520 024e 05       		.uleb128 0x5
 8521 024f 00       		.byte	0
 8522 0250 49       		.uleb128 0x49
ARM GAS  C:\Users\MM1005~1\AppData\Local\Temp\cc36bet7.s 			page 179


 8523 0251 13       		.uleb128 0x13
 8524 0252 00       		.byte	0
 8525 0253 00       		.byte	0
 8526 0254 2C       		.uleb128 0x2c
 8527 0255 2E       		.uleb128 0x2e
 8528 0256 01       		.byte	0x1
 8529 0257 3F       		.uleb128 0x3f
 8530 0258 19       		.uleb128 0x19
 8531 0259 03       		.uleb128 0x3
 8532 025a 0E       		.uleb128 0xe
 8533 025b 3A       		.uleb128 0x3a
 8534 025c 0B       		.uleb128 0xb
 8535 025d 3B       		.uleb128 0x3b
 8536 025e 0B       		.uleb128 0xb
 8537 025f 27       		.uleb128 0x27
 8538 0260 19       		.uleb128 0x19
 8539 0261 3C       		.uleb128 0x3c
 8540 0262 19       		.uleb128 0x19
 8541 0263 01       		.uleb128 0x1
 8542 0264 13       		.uleb128 0x13
 8543 0265 00       		.byte	0
 8544 0266 00       		.byte	0
 8545 0267 2D       		.uleb128 0x2d
 8546 0268 2E       		.uleb128 0x2e
 8547 0269 00       		.byte	0
 8548 026a 3F       		.uleb128 0x3f
 8549 026b 19       		.uleb128 0x19
 8550 026c 03       		.uleb128 0x3
 8551 026d 0E       		.uleb128 0xe
 8552 026e 3A       		.uleb128 0x3a
 8553 026f 0B       		.uleb128 0xb
 8554 0270 3B       		.uleb128 0x3b
 8555 0271 0B       		.uleb128 0xb
 8556 0272 27       		.uleb128 0x27
 8557 0273 19       		.uleb128 0x19
 8558 0274 3C       		.uleb128 0x3c
 8559 0275 19       		.uleb128 0x19
 8560 0276 00       		.byte	0
 8561 0277 00       		.byte	0
 8562 0278 2E       		.uleb128 0x2e
 8563 0279 2E       		.uleb128 0x2e
 8564 027a 01       		.byte	0x1
 8565 027b 3F       		.uleb128 0x3f
 8566 027c 19       		.uleb128 0x19
 8567 027d 03       		.uleb128 0x3
 8568 027e 0E       		.uleb128 0xe
 8569 027f 27       		.uleb128 0x27
 8570 0280 19       		.uleb128 0x19
 8571 0281 49       		.uleb128 0x49
 8572 0282 13       		.uleb128 0x13
 8573 0283 34       		.uleb128 0x34
 8574 0284 19       		.uleb128 0x19
 8575 0285 3C       		.uleb128 0x3c
 8576 0286 19       		.uleb128 0x19
 8577 0287 01       		.uleb128 0x1
 8578 0288 13       		.uleb128 0x13
 8579 0289 00       		.byte	0
ARM GAS  C:\Users\MM1005~1\AppData\Local\Temp\cc36bet7.s 			page 180


 8580 028a 00       		.byte	0
 8581 028b 2F       		.uleb128 0x2f
 8582 028c 2E       		.uleb128 0x2e
 8583 028d 01       		.byte	0x1
 8584 028e 3F       		.uleb128 0x3f
 8585 028f 19       		.uleb128 0x19
 8586 0290 03       		.uleb128 0x3
 8587 0291 0E       		.uleb128 0xe
 8588 0292 3A       		.uleb128 0x3a
 8589 0293 0B       		.uleb128 0xb
 8590 0294 3B       		.uleb128 0x3b
 8591 0295 0B       		.uleb128 0xb
 8592 0296 6E       		.uleb128 0x6e
 8593 0297 0E       		.uleb128 0xe
 8594 0298 27       		.uleb128 0x27
 8595 0299 19       		.uleb128 0x19
 8596 029a 49       		.uleb128 0x49
 8597 029b 13       		.uleb128 0x13
 8598 029c 3C       		.uleb128 0x3c
 8599 029d 19       		.uleb128 0x19
 8600 029e 01       		.uleb128 0x1
 8601 029f 13       		.uleb128 0x13
 8602 02a0 00       		.byte	0
 8603 02a1 00       		.byte	0
 8604 02a2 30       		.uleb128 0x30
 8605 02a3 2E       		.uleb128 0x2e
 8606 02a4 01       		.byte	0x1
 8607 02a5 3F       		.uleb128 0x3f
 8608 02a6 19       		.uleb128 0x19
 8609 02a7 03       		.uleb128 0x3
 8610 02a8 0E       		.uleb128 0xe
 8611 02a9 3A       		.uleb128 0x3a
 8612 02aa 0B       		.uleb128 0xb
 8613 02ab 3B       		.uleb128 0x3b
 8614 02ac 0B       		.uleb128 0xb
 8615 02ad 49       		.uleb128 0x49
 8616 02ae 13       		.uleb128 0x13
 8617 02af 3C       		.uleb128 0x3c
 8618 02b0 19       		.uleb128 0x19
 8619 02b1 01       		.uleb128 0x1
 8620 02b2 13       		.uleb128 0x13
 8621 02b3 00       		.byte	0
 8622 02b4 00       		.byte	0
 8623 02b5 31       		.uleb128 0x31
 8624 02b6 18       		.uleb128 0x18
 8625 02b7 00       		.byte	0
 8626 02b8 00       		.byte	0
 8627 02b9 00       		.byte	0
 8628 02ba 32       		.uleb128 0x32
 8629 02bb 2E       		.uleb128 0x2e
 8630 02bc 00       		.byte	0
 8631 02bd 3F       		.uleb128 0x3f
 8632 02be 19       		.uleb128 0x19
 8633 02bf 03       		.uleb128 0x3
 8634 02c0 0E       		.uleb128 0xe
 8635 02c1 3A       		.uleb128 0x3a
 8636 02c2 0B       		.uleb128 0xb
ARM GAS  C:\Users\MM1005~1\AppData\Local\Temp\cc36bet7.s 			page 181


 8637 02c3 3B       		.uleb128 0x3b
 8638 02c4 05       		.uleb128 0x5
 8639 02c5 27       		.uleb128 0x27
 8640 02c6 19       		.uleb128 0x19
 8641 02c7 49       		.uleb128 0x49
 8642 02c8 13       		.uleb128 0x13
 8643 02c9 3C       		.uleb128 0x3c
 8644 02ca 19       		.uleb128 0x19
 8645 02cb 00       		.byte	0
 8646 02cc 00       		.byte	0
 8647 02cd 33       		.uleb128 0x33
 8648 02ce 2E       		.uleb128 0x2e
 8649 02cf 01       		.byte	0x1
 8650 02d0 3F       		.uleb128 0x3f
 8651 02d1 19       		.uleb128 0x19
 8652 02d2 03       		.uleb128 0x3
 8653 02d3 0E       		.uleb128 0xe
 8654 02d4 3A       		.uleb128 0x3a
 8655 02d5 0B       		.uleb128 0xb
 8656 02d6 3B       		.uleb128 0x3b
 8657 02d7 05       		.uleb128 0x5
 8658 02d8 27       		.uleb128 0x27
 8659 02d9 19       		.uleb128 0x19
 8660 02da 49       		.uleb128 0x49
 8661 02db 13       		.uleb128 0x13
 8662 02dc 3C       		.uleb128 0x3c
 8663 02dd 19       		.uleb128 0x19
 8664 02de 01       		.uleb128 0x1
 8665 02df 13       		.uleb128 0x13
 8666 02e0 00       		.byte	0
 8667 02e1 00       		.byte	0
 8668 02e2 34       		.uleb128 0x34
 8669 02e3 2E       		.uleb128 0x2e
 8670 02e4 01       		.byte	0x1
 8671 02e5 3F       		.uleb128 0x3f
 8672 02e6 19       		.uleb128 0x19
 8673 02e7 03       		.uleb128 0x3
 8674 02e8 0E       		.uleb128 0xe
 8675 02e9 3A       		.uleb128 0x3a
 8676 02ea 0B       		.uleb128 0xb
 8677 02eb 3B       		.uleb128 0x3b
 8678 02ec 0B       		.uleb128 0xb
 8679 02ed 49       		.uleb128 0x49
 8680 02ee 13       		.uleb128 0x13
 8681 02ef 3C       		.uleb128 0x3c
 8682 02f0 19       		.uleb128 0x19
 8683 02f1 00       		.byte	0
 8684 02f2 00       		.byte	0
 8685 02f3 00       		.byte	0
 8686              		.section	.debug_loc,"",%progbits
 8687              	.Ldebug_loc0:
 8688              	.LLST0:
 8689 0000 00000000 		.4byte	.LVL0
 8690 0004 08000000 		.4byte	.LVL2
 8691 0008 0100     		.2byte	0x1
 8692 000a 50       		.byte	0x50
 8693 000b 08000000 		.4byte	.LVL2
ARM GAS  C:\Users\MM1005~1\AppData\Local\Temp\cc36bet7.s 			page 182


 8694 000f 32000000 		.4byte	.LVL8
 8695 0013 0100     		.2byte	0x1
 8696 0015 54       		.byte	0x54
 8697 0016 32000000 		.4byte	.LVL8
 8698 001a 38000000 		.4byte	.LFE35
 8699 001e 0400     		.2byte	0x4
 8700 0020 F3       		.byte	0xf3
 8701 0021 01       		.uleb128 0x1
 8702 0022 50       		.byte	0x50
 8703 0023 9F       		.byte	0x9f
 8704 0024 00000000 		.4byte	0
 8705 0028 00000000 		.4byte	0
 8706              	.LLST1:
 8707 002c 04000000 		.4byte	.LVL1
 8708 0030 08000000 		.4byte	.LVL2
 8709 0034 0200     		.2byte	0x2
 8710 0036 30       		.byte	0x30
 8711 0037 9F       		.byte	0x9f
 8712 0038 08000000 		.4byte	.LVL2
 8713 003c 22000000 		.4byte	.LVL4
 8714 0040 0100     		.2byte	0x1
 8715 0042 55       		.byte	0x55
 8716 0043 2A000000 		.4byte	.LVL5
 8717 0047 32000000 		.4byte	.LVL7
 8718 004b 0100     		.2byte	0x1
 8719 004d 55       		.byte	0x55
 8720 004e 00000000 		.4byte	0
 8721 0052 00000000 		.4byte	0
 8722              	.LLST2:
 8723 0056 00000000 		.4byte	.LVL9
 8724 005a 08000000 		.4byte	.LVL11
 8725 005e 0100     		.2byte	0x1
 8726 0060 50       		.byte	0x50
 8727 0061 08000000 		.4byte	.LVL11
 8728 0065 36000000 		.4byte	.LVL17
 8729 0069 0100     		.2byte	0x1
 8730 006b 54       		.byte	0x54
 8731 006c 36000000 		.4byte	.LVL17
 8732 0070 3C000000 		.4byte	.LFE36
 8733 0074 0400     		.2byte	0x4
 8734 0076 F3       		.byte	0xf3
 8735 0077 01       		.uleb128 0x1
 8736 0078 50       		.byte	0x50
 8737 0079 9F       		.byte	0x9f
 8738 007a 00000000 		.4byte	0
 8739 007e 00000000 		.4byte	0
 8740              	.LLST3:
 8741 0082 04000000 		.4byte	.LVL10
 8742 0086 08000000 		.4byte	.LVL11
 8743 008a 0200     		.2byte	0x2
 8744 008c 30       		.byte	0x30
 8745 008d 9F       		.byte	0x9f
 8746 008e 08000000 		.4byte	.LVL11
 8747 0092 22000000 		.4byte	.LVL13
 8748 0096 0100     		.2byte	0x1
 8749 0098 55       		.byte	0x55
 8750 0099 2E000000 		.4byte	.LVL14
ARM GAS  C:\Users\MM1005~1\AppData\Local\Temp\cc36bet7.s 			page 183


 8751 009d 36000000 		.4byte	.LVL16
 8752 00a1 0100     		.2byte	0x1
 8753 00a3 55       		.byte	0x55
 8754 00a4 00000000 		.4byte	0
 8755 00a8 00000000 		.4byte	0
 8756              	.LLST4:
 8757 00ac 00000000 		.4byte	.LVL18
 8758 00b0 08000000 		.4byte	.LVL20
 8759 00b4 0100     		.2byte	0x1
 8760 00b6 50       		.byte	0x50
 8761 00b7 08000000 		.4byte	.LVL20
 8762 00bb 34000000 		.4byte	.LVL26
 8763 00bf 0100     		.2byte	0x1
 8764 00c1 54       		.byte	0x54
 8765 00c2 34000000 		.4byte	.LVL26
 8766 00c6 3C000000 		.4byte	.LFE37
 8767 00ca 0400     		.2byte	0x4
 8768 00cc F3       		.byte	0xf3
 8769 00cd 01       		.uleb128 0x1
 8770 00ce 50       		.byte	0x50
 8771 00cf 9F       		.byte	0x9f
 8772 00d0 00000000 		.4byte	0
 8773 00d4 00000000 		.4byte	0
 8774              	.LLST5:
 8775 00d8 04000000 		.4byte	.LVL19
 8776 00dc 08000000 		.4byte	.LVL20
 8777 00e0 0200     		.2byte	0x2
 8778 00e2 30       		.byte	0x30
 8779 00e3 9F       		.byte	0x9f
 8780 00e4 08000000 		.4byte	.LVL20
 8781 00e8 22000000 		.4byte	.LVL22
 8782 00ec 0100     		.2byte	0x1
 8783 00ee 55       		.byte	0x55
 8784 00ef 2C000000 		.4byte	.LVL23
 8785 00f3 34000000 		.4byte	.LVL25
 8786 00f7 0100     		.2byte	0x1
 8787 00f9 55       		.byte	0x55
 8788 00fa 00000000 		.4byte	0
 8789 00fe 00000000 		.4byte	0
 8790              	.LLST6:
 8791 0102 00000000 		.4byte	.LVL27
 8792 0106 08000000 		.4byte	.LVL29
 8793 010a 0100     		.2byte	0x1
 8794 010c 50       		.byte	0x50
 8795 010d 08000000 		.4byte	.LVL29
 8796 0111 34000000 		.4byte	.LVL35
 8797 0115 0100     		.2byte	0x1
 8798 0117 54       		.byte	0x54
 8799 0118 34000000 		.4byte	.LVL35
 8800 011c 3C000000 		.4byte	.LFE38
 8801 0120 0400     		.2byte	0x4
 8802 0122 F3       		.byte	0xf3
 8803 0123 01       		.uleb128 0x1
 8804 0124 50       		.byte	0x50
 8805 0125 9F       		.byte	0x9f
 8806 0126 00000000 		.4byte	0
 8807 012a 00000000 		.4byte	0
ARM GAS  C:\Users\MM1005~1\AppData\Local\Temp\cc36bet7.s 			page 184


 8808              	.LLST7:
 8809 012e 04000000 		.4byte	.LVL28
 8810 0132 08000000 		.4byte	.LVL29
 8811 0136 0200     		.2byte	0x2
 8812 0138 30       		.byte	0x30
 8813 0139 9F       		.byte	0x9f
 8814 013a 08000000 		.4byte	.LVL29
 8815 013e 22000000 		.4byte	.LVL31
 8816 0142 0100     		.2byte	0x1
 8817 0144 55       		.byte	0x55
 8818 0145 2C000000 		.4byte	.LVL32
 8819 0149 34000000 		.4byte	.LVL34
 8820 014d 0100     		.2byte	0x1
 8821 014f 55       		.byte	0x55
 8822 0150 00000000 		.4byte	0
 8823 0154 00000000 		.4byte	0
 8824              	.LLST8:
 8825 0158 00000000 		.4byte	.LVL36
 8826 015c 08000000 		.4byte	.LVL38
 8827 0160 0100     		.2byte	0x1
 8828 0162 50       		.byte	0x50
 8829 0163 08000000 		.4byte	.LVL38
 8830 0167 36000000 		.4byte	.LVL44
 8831 016b 0100     		.2byte	0x1
 8832 016d 54       		.byte	0x54
 8833 016e 36000000 		.4byte	.LVL44
 8834 0172 3C000000 		.4byte	.LFE39
 8835 0176 0400     		.2byte	0x4
 8836 0178 F3       		.byte	0xf3
 8837 0179 01       		.uleb128 0x1
 8838 017a 50       		.byte	0x50
 8839 017b 9F       		.byte	0x9f
 8840 017c 00000000 		.4byte	0
 8841 0180 00000000 		.4byte	0
 8842              	.LLST9:
 8843 0184 04000000 		.4byte	.LVL37
 8844 0188 08000000 		.4byte	.LVL38
 8845 018c 0200     		.2byte	0x2
 8846 018e 30       		.byte	0x30
 8847 018f 9F       		.byte	0x9f
 8848 0190 08000000 		.4byte	.LVL38
 8849 0194 22000000 		.4byte	.LVL40
 8850 0198 0100     		.2byte	0x1
 8851 019a 55       		.byte	0x55
 8852 019b 2E000000 		.4byte	.LVL41
 8853 019f 36000000 		.4byte	.LVL43
 8854 01a3 0100     		.2byte	0x1
 8855 01a5 55       		.byte	0x55
 8856 01a6 00000000 		.4byte	0
 8857 01aa 00000000 		.4byte	0
 8858              	.LLST10:
 8859 01ae 00000000 		.4byte	.LVL45
 8860 01b2 0A000000 		.4byte	.LVL47
 8861 01b6 0100     		.2byte	0x1
 8862 01b8 50       		.byte	0x50
 8863 01b9 0A000000 		.4byte	.LVL47
 8864 01bd 2E000000 		.4byte	.LVL52
ARM GAS  C:\Users\MM1005~1\AppData\Local\Temp\cc36bet7.s 			page 185


 8865 01c1 0100     		.2byte	0x1
 8866 01c3 55       		.byte	0x55
 8867 01c4 2E000000 		.4byte	.LVL52
 8868 01c8 30000000 		.4byte	.LFE40
 8869 01cc 0400     		.2byte	0x4
 8870 01ce F3       		.byte	0xf3
 8871 01cf 01       		.uleb128 0x1
 8872 01d0 50       		.byte	0x50
 8873 01d1 9F       		.byte	0x9f
 8874 01d2 00000000 		.4byte	0
 8875 01d6 00000000 		.4byte	0
 8876              	.LLST11:
 8877 01da 06000000 		.4byte	.LVL46
 8878 01de 0A000000 		.4byte	.LVL47
 8879 01e2 0200     		.2byte	0x2
 8880 01e4 30       		.byte	0x30
 8881 01e5 9F       		.byte	0x9f
 8882 01e6 0A000000 		.4byte	.LVL47
 8883 01ea 2E000000 		.4byte	.LVL51
 8884 01ee 0100     		.2byte	0x1
 8885 01f0 54       		.byte	0x54
 8886 01f1 00000000 		.4byte	0
 8887 01f5 00000000 		.4byte	0
 8888              	.LLST12:
 8889 01f9 00000000 		.4byte	.LVL53
 8890 01fd 08000000 		.4byte	.LVL55
 8891 0201 0100     		.2byte	0x1
 8892 0203 50       		.byte	0x50
 8893 0204 08000000 		.4byte	.LVL55
 8894 0208 36000000 		.4byte	.LVL61
 8895 020c 0100     		.2byte	0x1
 8896 020e 54       		.byte	0x54
 8897 020f 36000000 		.4byte	.LVL61
 8898 0213 3C000000 		.4byte	.LFE41
 8899 0217 0400     		.2byte	0x4
 8900 0219 F3       		.byte	0xf3
 8901 021a 01       		.uleb128 0x1
 8902 021b 50       		.byte	0x50
 8903 021c 9F       		.byte	0x9f
 8904 021d 00000000 		.4byte	0
 8905 0221 00000000 		.4byte	0
 8906              	.LLST13:
 8907 0225 04000000 		.4byte	.LVL54
 8908 0229 08000000 		.4byte	.LVL55
 8909 022d 0200     		.2byte	0x2
 8910 022f 30       		.byte	0x30
 8911 0230 9F       		.byte	0x9f
 8912 0231 08000000 		.4byte	.LVL55
 8913 0235 22000000 		.4byte	.LVL57
 8914 0239 0100     		.2byte	0x1
 8915 023b 55       		.byte	0x55
 8916 023c 2E000000 		.4byte	.LVL58
 8917 0240 36000000 		.4byte	.LVL60
 8918 0244 0100     		.2byte	0x1
 8919 0246 55       		.byte	0x55
 8920 0247 00000000 		.4byte	0
 8921 024b 00000000 		.4byte	0
ARM GAS  C:\Users\MM1005~1\AppData\Local\Temp\cc36bet7.s 			page 186


 8922              	.LLST14:
 8923 024f 00000000 		.4byte	.LVL62
 8924 0253 08000000 		.4byte	.LVL64
 8925 0257 0100     		.2byte	0x1
 8926 0259 50       		.byte	0x50
 8927 025a 08000000 		.4byte	.LVL64
 8928 025e 34000000 		.4byte	.LVL70
 8929 0262 0100     		.2byte	0x1
 8930 0264 54       		.byte	0x54
 8931 0265 34000000 		.4byte	.LVL70
 8932 0269 3C000000 		.4byte	.LFE42
 8933 026d 0400     		.2byte	0x4
 8934 026f F3       		.byte	0xf3
 8935 0270 01       		.uleb128 0x1
 8936 0271 50       		.byte	0x50
 8937 0272 9F       		.byte	0x9f
 8938 0273 00000000 		.4byte	0
 8939 0277 00000000 		.4byte	0
 8940              	.LLST15:
 8941 027b 04000000 		.4byte	.LVL63
 8942 027f 08000000 		.4byte	.LVL64
 8943 0283 0200     		.2byte	0x2
 8944 0285 30       		.byte	0x30
 8945 0286 9F       		.byte	0x9f
 8946 0287 08000000 		.4byte	.LVL64
 8947 028b 22000000 		.4byte	.LVL66
 8948 028f 0100     		.2byte	0x1
 8949 0291 55       		.byte	0x55
 8950 0292 2C000000 		.4byte	.LVL67
 8951 0296 34000000 		.4byte	.LVL69
 8952 029a 0100     		.2byte	0x1
 8953 029c 55       		.byte	0x55
 8954 029d 00000000 		.4byte	0
 8955 02a1 00000000 		.4byte	0
 8956              	.LLST16:
 8957 02a5 00000000 		.4byte	.LVL71
 8958 02a9 07000000 		.4byte	.LVL72-1
 8959 02ad 0100     		.2byte	0x1
 8960 02af 50       		.byte	0x50
 8961 02b0 07000000 		.4byte	.LVL72-1
 8962 02b4 1A000000 		.4byte	.LVL76
 8963 02b8 0100     		.2byte	0x1
 8964 02ba 54       		.byte	0x54
 8965 02bb 1A000000 		.4byte	.LVL76
 8966 02bf 1C000000 		.4byte	.LFE51
 8967 02c3 0400     		.2byte	0x4
 8968 02c5 F3       		.byte	0xf3
 8969 02c6 01       		.uleb128 0x1
 8970 02c7 50       		.byte	0x50
 8971 02c8 9F       		.byte	0x9f
 8972 02c9 00000000 		.4byte	0
 8973 02cd 00000000 		.4byte	0
 8974              	.LLST17:
 8975 02d1 00000000 		.4byte	.LVL77
 8976 02d5 1A000000 		.4byte	.LVL79
 8977 02d9 0100     		.2byte	0x1
 8978 02db 50       		.byte	0x50
ARM GAS  C:\Users\MM1005~1\AppData\Local\Temp\cc36bet7.s 			page 187


 8979 02dc 1A000000 		.4byte	.LVL79
 8980 02e0 B8000000 		.4byte	.LFE45
 8981 02e4 0400     		.2byte	0x4
 8982 02e6 F3       		.byte	0xf3
 8983 02e7 01       		.uleb128 0x1
 8984 02e8 50       		.byte	0x50
 8985 02e9 9F       		.byte	0x9f
 8986 02ea 00000000 		.4byte	0
 8987 02ee 00000000 		.4byte	0
 8988              	.LLST18:
 8989 02f2 00000000 		.4byte	.LVL77
 8990 02f6 1A000000 		.4byte	.LVL79
 8991 02fa 0100     		.2byte	0x1
 8992 02fc 51       		.byte	0x51
 8993 02fd 1A000000 		.4byte	.LVL79
 8994 0301 98000000 		.4byte	.LVL91
 8995 0305 0100     		.2byte	0x1
 8996 0307 56       		.byte	0x56
 8997 0308 98000000 		.4byte	.LVL91
 8998 030c B8000000 		.4byte	.LFE45
 8999 0310 0400     		.2byte	0x4
 9000 0312 F3       		.byte	0xf3
 9001 0313 01       		.uleb128 0x1
 9002 0314 51       		.byte	0x51
 9003 0315 9F       		.byte	0x9f
 9004 0316 00000000 		.4byte	0
 9005 031a 00000000 		.4byte	0
 9006              	.LLST19:
 9007 031e 00000000 		.4byte	.LVL77
 9008 0322 12000000 		.4byte	.LVL78
 9009 0326 0100     		.2byte	0x1
 9010 0328 52       		.byte	0x52
 9011 0329 12000000 		.4byte	.LVL78
 9012 032d B8000000 		.4byte	.LFE45
 9013 0331 0200     		.2byte	0x2
 9014 0333 91       		.byte	0x91
 9015 0334 4C       		.sleb128 -52
 9016 0335 00000000 		.4byte	0
 9017 0339 00000000 		.4byte	0
 9018              	.LLST20:
 9019 033d 00000000 		.4byte	.LVL92
 9020 0341 0B000000 		.4byte	.LVL94-1
 9021 0345 0100     		.2byte	0x1
 9022 0347 50       		.byte	0x50
 9023 0348 0B000000 		.4byte	.LVL94-1
 9024 034c 80000000 		.4byte	.LFE46
 9025 0350 0400     		.2byte	0x4
 9026 0352 F3       		.byte	0xf3
 9027 0353 01       		.uleb128 0x1
 9028 0354 50       		.byte	0x50
 9029 0355 9F       		.byte	0x9f
 9030 0356 00000000 		.4byte	0
 9031 035a 00000000 		.4byte	0
 9032              	.LLST21:
 9033 035e 00000000 		.4byte	.LVL92
 9034 0362 08000000 		.4byte	.LVL93
 9035 0366 0100     		.2byte	0x1
ARM GAS  C:\Users\MM1005~1\AppData\Local\Temp\cc36bet7.s 			page 188


 9036 0368 51       		.byte	0x51
 9037 0369 08000000 		.4byte	.LVL93
 9038 036d 6E000000 		.4byte	.LVL103
 9039 0371 0100     		.2byte	0x1
 9040 0373 55       		.byte	0x55
 9041 0374 6E000000 		.4byte	.LVL103
 9042 0378 80000000 		.4byte	.LFE46
 9043 037c 0400     		.2byte	0x4
 9044 037e F3       		.byte	0xf3
 9045 037f 01       		.uleb128 0x1
 9046 0380 51       		.byte	0x51
 9047 0381 9F       		.byte	0x9f
 9048 0382 00000000 		.4byte	0
 9049 0386 00000000 		.4byte	0
 9050              	.LLST22:
 9051 038a 00000000 		.4byte	.LVL104
 9052 038e 0E000000 		.4byte	.LVL105
 9053 0392 0100     		.2byte	0x1
 9054 0394 50       		.byte	0x50
 9055 0395 0E000000 		.4byte	.LVL105
 9056 0399 A8000000 		.4byte	.LFE49
 9057 039d 0400     		.2byte	0x4
 9058 039f F3       		.byte	0xf3
 9059 03a0 01       		.uleb128 0x1
 9060 03a1 50       		.byte	0x50
 9061 03a2 9F       		.byte	0x9f
 9062 03a3 00000000 		.4byte	0
 9063 03a7 00000000 		.4byte	0
 9064              	.LLST23:
 9065 03ab 00000000 		.4byte	.LVL104
 9066 03af 10000000 		.4byte	.LVL106
 9067 03b3 0100     		.2byte	0x1
 9068 03b5 51       		.byte	0x51
 9069 03b6 10000000 		.4byte	.LVL106
 9070 03ba 8A000000 		.4byte	.LVL122
 9071 03be 0100     		.2byte	0x1
 9072 03c0 55       		.byte	0x55
 9073 03c1 8A000000 		.4byte	.LVL122
 9074 03c5 A8000000 		.4byte	.LFE49
 9075 03c9 0400     		.2byte	0x4
 9076 03cb F3       		.byte	0xf3
 9077 03cc 01       		.uleb128 0x1
 9078 03cd 51       		.byte	0x51
 9079 03ce 9F       		.byte	0x9f
 9080 03cf 00000000 		.4byte	0
 9081 03d3 00000000 		.4byte	0
 9082              	.LLST24:
 9083 03d7 00000000 		.4byte	.LVL104
 9084 03db 12000000 		.4byte	.LVL107
 9085 03df 0100     		.2byte	0x1
 9086 03e1 52       		.byte	0x52
 9087 03e2 12000000 		.4byte	.LVL107
 9088 03e6 A8000000 		.4byte	.LFE49
 9089 03ea 0400     		.2byte	0x4
 9090 03ec F3       		.byte	0xf3
 9091 03ed 01       		.uleb128 0x1
 9092 03ee 52       		.byte	0x52
ARM GAS  C:\Users\MM1005~1\AppData\Local\Temp\cc36bet7.s 			page 189


 9093 03ef 9F       		.byte	0x9f
 9094 03f0 00000000 		.4byte	0
 9095 03f4 00000000 		.4byte	0
 9096              	.LLST25:
 9097 03f8 00000000 		.4byte	.LVL123
 9098 03fc 12000000 		.4byte	.LVL124
 9099 0400 0100     		.2byte	0x1
 9100 0402 50       		.byte	0x50
 9101 0403 12000000 		.4byte	.LVL124
 9102 0407 BE000000 		.4byte	.LVL147
 9103 040b 0100     		.2byte	0x1
 9104 040d 57       		.byte	0x57
 9105 040e BE000000 		.4byte	.LVL147
 9106 0412 D8000000 		.4byte	.LFE50
 9107 0416 0400     		.2byte	0x4
 9108 0418 F3       		.byte	0xf3
 9109 0419 01       		.uleb128 0x1
 9110 041a 50       		.byte	0x50
 9111 041b 9F       		.byte	0x9f
 9112 041c 00000000 		.4byte	0
 9113 0420 00000000 		.4byte	0
 9114              	.LLST26:
 9115 0424 00000000 		.4byte	.LVL123
 9116 0428 14000000 		.4byte	.LVL125
 9117 042c 0100     		.2byte	0x1
 9118 042e 51       		.byte	0x51
 9119 042f 14000000 		.4byte	.LVL125
 9120 0433 BE000000 		.4byte	.LVL146
 9121 0437 0100     		.2byte	0x1
 9122 0439 56       		.byte	0x56
 9123 043a BE000000 		.4byte	.LVL146
 9124 043e D8000000 		.4byte	.LFE50
 9125 0442 0400     		.2byte	0x4
 9126 0444 F3       		.byte	0xf3
 9127 0445 01       		.uleb128 0x1
 9128 0446 51       		.byte	0x51
 9129 0447 9F       		.byte	0x9f
 9130 0448 00000000 		.4byte	0
 9131 044c 00000000 		.4byte	0
 9132              	.LLST27:
 9133 0450 00000000 		.4byte	.LVL123
 9134 0454 16000000 		.4byte	.LVL126
 9135 0458 0100     		.2byte	0x1
 9136 045a 52       		.byte	0x52
 9137 045b 16000000 		.4byte	.LVL126
 9138 045f BE000000 		.4byte	.LVL145
 9139 0463 0200     		.2byte	0x2
 9140 0465 7D       		.byte	0x7d
 9141 0466 00       		.sleb128 0
 9142 0467 BE000000 		.4byte	.LVL145
 9143 046b D8000000 		.4byte	.LFE50
 9144 046f 0200     		.2byte	0x2
 9145 0471 91       		.byte	0x91
 9146 0472 60       		.sleb128 -32
 9147 0473 00000000 		.4byte	0
 9148 0477 00000000 		.4byte	0
 9149              	.LLST28:
ARM GAS  C:\Users\MM1005~1\AppData\Local\Temp\cc36bet7.s 			page 190


 9150 047b 00000000 		.4byte	.LVL123
 9151 047f 1B000000 		.4byte	.LVL127-1
 9152 0483 0100     		.2byte	0x1
 9153 0485 53       		.byte	0x53
 9154 0486 1B000000 		.4byte	.LVL127-1
 9155 048a D8000000 		.4byte	.LFE50
 9156 048e 0200     		.2byte	0x2
 9157 0490 91       		.byte	0x91
 9158 0491 64       		.sleb128 -28
 9159 0492 00000000 		.4byte	0
 9160 0496 00000000 		.4byte	0
 9161              	.LLST29:
 9162 049a 00000000 		.4byte	.LVL149
 9163 049e 0B000000 		.4byte	.LVL151-1
 9164 04a2 0100     		.2byte	0x1
 9165 04a4 50       		.byte	0x50
 9166 04a5 0B000000 		.4byte	.LVL151-1
 9167 04a9 B2000000 		.4byte	.LVL170
 9168 04ad 0100     		.2byte	0x1
 9169 04af 55       		.byte	0x55
 9170 04b0 B2000000 		.4byte	.LVL170
 9171 04b4 C8000000 		.4byte	.LFE48
 9172 04b8 0400     		.2byte	0x4
 9173 04ba F3       		.byte	0xf3
 9174 04bb 01       		.uleb128 0x1
 9175 04bc 50       		.byte	0x50
 9176 04bd 9F       		.byte	0x9f
 9177 04be 00000000 		.4byte	0
 9178 04c2 00000000 		.4byte	0
 9179              	.LLST30:
 9180 04c6 00000000 		.4byte	.LVL149
 9181 04ca 0B000000 		.4byte	.LVL151-1
 9182 04ce 0100     		.2byte	0x1
 9183 04d0 51       		.byte	0x51
 9184 04d1 0B000000 		.4byte	.LVL151-1
 9185 04d5 B2000000 		.4byte	.LVL171
 9186 04d9 0100     		.2byte	0x1
 9187 04db 56       		.byte	0x56
 9188 04dc B2000000 		.4byte	.LVL171
 9189 04e0 C8000000 		.4byte	.LFE48
 9190 04e4 0400     		.2byte	0x4
 9191 04e6 F3       		.byte	0xf3
 9192 04e7 01       		.uleb128 0x1
 9193 04e8 51       		.byte	0x51
 9194 04e9 9F       		.byte	0x9f
 9195 04ea 00000000 		.4byte	0
 9196 04ee 00000000 		.4byte	0
 9197              	.LLST31:
 9198 04f2 00000000 		.4byte	.LVL149
 9199 04f6 0B000000 		.4byte	.LVL151-1
 9200 04fa 0100     		.2byte	0x1
 9201 04fc 52       		.byte	0x52
 9202 04fd 0B000000 		.4byte	.LVL151-1
 9203 0501 C8000000 		.4byte	.LFE48
 9204 0505 0400     		.2byte	0x4
 9205 0507 F3       		.byte	0xf3
 9206 0508 01       		.uleb128 0x1
ARM GAS  C:\Users\MM1005~1\AppData\Local\Temp\cc36bet7.s 			page 191


 9207 0509 52       		.byte	0x52
 9208 050a 9F       		.byte	0x9f
 9209 050b 00000000 		.4byte	0
 9210 050f 00000000 		.4byte	0
 9211              	.LLST32:
 9212 0513 00000000 		.4byte	.LVL149
 9213 0517 0B000000 		.4byte	.LVL151-1
 9214 051b 0100     		.2byte	0x1
 9215 051d 53       		.byte	0x53
 9216 051e 0B000000 		.4byte	.LVL151-1
 9217 0522 C8000000 		.4byte	.LFE48
 9218 0526 0400     		.2byte	0x4
 9219 0528 F3       		.byte	0xf3
 9220 0529 01       		.uleb128 0x1
 9221 052a 53       		.byte	0x53
 9222 052b 9F       		.byte	0x9f
 9223 052c 00000000 		.4byte	0
 9224 0530 00000000 		.4byte	0
 9225              	.LLST33:
 9226 0534 08000000 		.4byte	.LVL150
 9227 0538 3A000000 		.4byte	.LVL156
 9228 053c 0200     		.2byte	0x2
 9229 053e 30       		.byte	0x30
 9230 053f 9F       		.byte	0x9f
 9231 0540 00000000 		.4byte	0
 9232 0544 00000000 		.4byte	0
 9233              	.LLST34:
 9234 0548 10000000 		.4byte	.LVL152
 9235 054c 36000000 		.4byte	.LVL155
 9236 0550 0200     		.2byte	0x2
 9237 0552 30       		.byte	0x30
 9238 0553 9F       		.byte	0x9f
 9239 0554 36000000 		.4byte	.LVL155
 9240 0558 6A000000 		.4byte	.LVL161
 9241 055c 0100     		.2byte	0x1
 9242 055e 57       		.byte	0x57
 9243 055f 00000000 		.4byte	0
 9244 0563 00000000 		.4byte	0
 9245              	.LLST35:
 9246 0567 36000000 		.4byte	.LVL155
 9247 056b 3A000000 		.4byte	.LVL156
 9248 056f 0200     		.2byte	0x2
 9249 0571 30       		.byte	0x30
 9250 0572 9F       		.byte	0x9f
 9251 0573 3A000000 		.4byte	.LVL156
 9252 0577 56000000 		.4byte	.LVL158
 9253 057b 0100     		.2byte	0x1
 9254 057d 54       		.byte	0x54
 9255 057e 58000000 		.4byte	.LVL159
 9256 0582 5E000000 		.4byte	.LVL160
 9257 0586 0100     		.2byte	0x1
 9258 0588 54       		.byte	0x54
 9259 0589 00000000 		.4byte	0
 9260 058d 00000000 		.4byte	0
 9261              	.LLST36:
 9262 0591 00000000 		.4byte	.LVL173
 9263 0595 0B000000 		.4byte	.LVL175-1
ARM GAS  C:\Users\MM1005~1\AppData\Local\Temp\cc36bet7.s 			page 192


 9264 0599 0100     		.2byte	0x1
 9265 059b 50       		.byte	0x50
 9266 059c 0B000000 		.4byte	.LVL175-1
 9267 05a0 40000000 		.4byte	.LVL183
 9268 05a4 0100     		.2byte	0x1
 9269 05a6 54       		.byte	0x54
 9270 05a7 40000000 		.4byte	.LVL183
 9271 05ab 58000000 		.4byte	.LVL186
 9272 05af 0400     		.2byte	0x4
 9273 05b1 F3       		.byte	0xf3
 9274 05b2 01       		.uleb128 0x1
 9275 05b3 50       		.byte	0x50
 9276 05b4 9F       		.byte	0x9f
 9277 05b5 58000000 		.4byte	.LVL186
 9278 05b9 5A000000 		.4byte	.LVL187
 9279 05bd 0100     		.2byte	0x1
 9280 05bf 54       		.byte	0x54
 9281 05c0 5A000000 		.4byte	.LVL187
 9282 05c4 7E000000 		.4byte	.LVL193
 9283 05c8 0400     		.2byte	0x4
 9284 05ca F3       		.byte	0xf3
 9285 05cb 01       		.uleb128 0x1
 9286 05cc 50       		.byte	0x50
 9287 05cd 9F       		.byte	0x9f
 9288 05ce 7E000000 		.4byte	.LVL193
 9289 05d2 92020000 		.4byte	.LVL293
 9290 05d6 0100     		.2byte	0x1
 9291 05d8 54       		.byte	0x54
 9292 05d9 92020000 		.4byte	.LVL293
 9293 05dd D2020000 		.4byte	.LVL303
 9294 05e1 0400     		.2byte	0x4
 9295 05e3 F3       		.byte	0xf3
 9296 05e4 01       		.uleb128 0x1
 9297 05e5 50       		.byte	0x50
 9298 05e6 9F       		.byte	0x9f
 9299 05e7 D2020000 		.4byte	.LVL303
 9300 05eb 0E070000 		.4byte	.LVL485
 9301 05ef 0100     		.2byte	0x1
 9302 05f1 54       		.byte	0x54
 9303 05f2 0E070000 		.4byte	.LVL485
 9304 05f6 1C070000 		.4byte	.LFE43
 9305 05fa 0400     		.2byte	0x4
 9306 05fc F3       		.byte	0xf3
 9307 05fd 01       		.uleb128 0x1
 9308 05fe 50       		.byte	0x50
 9309 05ff 9F       		.byte	0x9f
 9310 0600 00000000 		.4byte	0
 9311 0604 00000000 		.4byte	0
 9312              	.LLST37:
 9313 0608 06000000 		.4byte	.LVL174
 9314 060c 24000000 		.4byte	.LVL180
 9315 0610 0200     		.2byte	0x2
 9316 0612 39       		.byte	0x39
 9317 0613 9F       		.byte	0x9f
 9318 0614 24000000 		.4byte	.LVL180
 9319 0618 2C000000 		.4byte	.LVL181
 9320 061c 0100     		.2byte	0x1
ARM GAS  C:\Users\MM1005~1\AppData\Local\Temp\cc36bet7.s 			page 193


 9321 061e 50       		.byte	0x50
 9322 061f 02070000 		.4byte	.LVL482
 9323 0623 04070000 		.4byte	.LVL483
 9324 0627 0100     		.2byte	0x1
 9325 0629 50       		.byte	0x50
 9326 062a 00000000 		.4byte	0
 9327 062e 00000000 		.4byte	0
 9328              	.LLST38:
 9329 0632 06000000 		.4byte	.LVL174
 9330 0636 BA000000 		.4byte	.LVL204
 9331 063a 0200     		.2byte	0x2
 9332 063c 34       		.byte	0x34
 9333 063d 9F       		.byte	0x9f
 9334 063e BA000000 		.4byte	.LVL204
 9335 0642 CE000000 		.4byte	.LVL205
 9336 0646 0100     		.2byte	0x1
 9337 0648 50       		.byte	0x50
 9338 0649 D6000000 		.4byte	.LVL207
 9339 064d D8000000 		.4byte	.LVL208
 9340 0651 0100     		.2byte	0x1
 9341 0653 50       		.byte	0x50
 9342 0654 E0000000 		.4byte	.LVL210
 9343 0658 E2000000 		.4byte	.LVL211
 9344 065c 0100     		.2byte	0x1
 9345 065e 50       		.byte	0x50
 9346 065f EA000000 		.4byte	.LVL213
 9347 0663 EC000000 		.4byte	.LVL214
 9348 0667 0100     		.2byte	0x1
 9349 0669 50       		.byte	0x50
 9350 066a F4000000 		.4byte	.LVL216
 9351 066e F6000000 		.4byte	.LVL217
 9352 0672 0100     		.2byte	0x1
 9353 0674 50       		.byte	0x50
 9354 0675 14010000 		.4byte	.LVL223
 9355 0679 0E070000 		.4byte	.LVL485
 9356 067d 0200     		.2byte	0x2
 9357 067f 34       		.byte	0x34
 9358 0680 9F       		.byte	0x9f
 9359 0681 00000000 		.4byte	0
 9360 0685 00000000 		.4byte	0
 9361              	.LLST39:
 9362 0689 06000000 		.4byte	.LVL174
 9363 068d FA000000 		.4byte	.LVL218
 9364 0691 0200     		.2byte	0x2
 9365 0693 3E       		.byte	0x3e
 9366 0694 9F       		.byte	0x9f
 9367 0695 FA000000 		.4byte	.LVL218
 9368 0699 01010000 		.4byte	.LVL219-1
 9369 069d 0100     		.2byte	0x1
 9370 069f 50       		.byte	0x50
 9371 06a0 06010000 		.4byte	.LVL220
 9372 06a4 08010000 		.4byte	.LVL221
 9373 06a8 0100     		.2byte	0x1
 9374 06aa 50       		.byte	0x50
 9375 06ab 14010000 		.4byte	.LVL223
 9376 06af 0E070000 		.4byte	.LVL485
 9377 06b3 0200     		.2byte	0x2
ARM GAS  C:\Users\MM1005~1\AppData\Local\Temp\cc36bet7.s 			page 194


 9378 06b5 3E       		.byte	0x3e
 9379 06b6 9F       		.byte	0x9f
 9380 06b7 00000000 		.4byte	0
 9381 06bb 00000000 		.4byte	0
 9382              	.LLST40:
 9383 06bf 06000000 		.4byte	.LVL174
 9384 06c3 9C010000 		.4byte	.LVL248
 9385 06c7 0200     		.2byte	0x2
 9386 06c9 35       		.byte	0x35
 9387 06ca 9F       		.byte	0x9f
 9388 06cb 9C010000 		.4byte	.LVL248
 9389 06cf A4010000 		.4byte	.LVL249
 9390 06d3 0100     		.2byte	0x1
 9391 06d5 50       		.byte	0x50
 9392 06d6 4C050000 		.4byte	.LVL402
 9393 06da 4E050000 		.4byte	.LVL403
 9394 06de 0100     		.2byte	0x1
 9395 06e0 50       		.byte	0x50
 9396 06e1 5A050000 		.4byte	.LVL405
 9397 06e5 0E070000 		.4byte	.LVL485
 9398 06e9 0200     		.2byte	0x2
 9399 06eb 35       		.byte	0x35
 9400 06ec 9F       		.byte	0x9f
 9401 06ed 00000000 		.4byte	0
 9402 06f1 00000000 		.4byte	0
 9403              	.LLST41:
 9404 06f5 06000000 		.4byte	.LVL174
 9405 06f9 94050000 		.4byte	.LVL416
 9406 06fd 0200     		.2byte	0x2
 9407 06ff 32       		.byte	0x32
 9408 0700 9F       		.byte	0x9f
 9409 0701 94050000 		.4byte	.LVL416
 9410 0705 9E050000 		.4byte	.LVL417
 9411 0709 0100     		.2byte	0x1
 9412 070b 50       		.byte	0x50
 9413 070c A6050000 		.4byte	.LVL419
 9414 0710 A8050000 		.4byte	.LVL420
 9415 0714 0100     		.2byte	0x1
 9416 0716 50       		.byte	0x50
 9417 0717 B0050000 		.4byte	.LVL422
 9418 071b B2050000 		.4byte	.LVL423
 9419 071f 0100     		.2byte	0x1
 9420 0721 50       		.byte	0x50
 9421 0722 BE050000 		.4byte	.LVL425
 9422 0726 0E070000 		.4byte	.LVL485
 9423 072a 0200     		.2byte	0x2
 9424 072c 32       		.byte	0x32
 9425 072d 9F       		.byte	0x9f
 9426 072e 00000000 		.4byte	0
 9427 0732 00000000 		.4byte	0
 9428              	.LLST42:
 9429 0736 06000000 		.4byte	.LVL174
 9430 073a F8050000 		.4byte	.LVL436
 9431 073e 0200     		.2byte	0x2
 9432 0740 32       		.byte	0x32
 9433 0741 9F       		.byte	0x9f
 9434 0742 F8050000 		.4byte	.LVL436
ARM GAS  C:\Users\MM1005~1\AppData\Local\Temp\cc36bet7.s 			page 195


 9435 0746 02060000 		.4byte	.LVL437
 9436 074a 0100     		.2byte	0x1
 9437 074c 50       		.byte	0x50
 9438 074d 0A060000 		.4byte	.LVL439
 9439 0751 0C060000 		.4byte	.LVL440
 9440 0755 0100     		.2byte	0x1
 9441 0757 50       		.byte	0x50
 9442 0758 14060000 		.4byte	.LVL442
 9443 075c 16060000 		.4byte	.LVL443
 9444 0760 0100     		.2byte	0x1
 9445 0762 50       		.byte	0x50
 9446 0763 22060000 		.4byte	.LVL445
 9447 0767 0E070000 		.4byte	.LVL485
 9448 076b 0200     		.2byte	0x2
 9449 076d 32       		.byte	0x32
 9450 076e 9F       		.byte	0x9f
 9451 076f 00000000 		.4byte	0
 9452 0773 00000000 		.4byte	0
 9453              	.LLST43:
 9454 0777 06000000 		.4byte	.LVL174
 9455 077b 5E060000 		.4byte	.LVL456
 9456 077f 0200     		.2byte	0x2
 9457 0781 33       		.byte	0x33
 9458 0782 9F       		.byte	0x9f
 9459 0783 5E060000 		.4byte	.LVL456
 9460 0787 6E060000 		.4byte	.LVL457
 9461 078b 0100     		.2byte	0x1
 9462 078d 50       		.byte	0x50
 9463 078e 76060000 		.4byte	.LVL459
 9464 0792 78060000 		.4byte	.LVL460
 9465 0796 0100     		.2byte	0x1
 9466 0798 50       		.byte	0x50
 9467 0799 80060000 		.4byte	.LVL462
 9468 079d 82060000 		.4byte	.LVL463
 9469 07a1 0100     		.2byte	0x1
 9470 07a3 50       		.byte	0x50
 9471 07a4 C4060000 		.4byte	.LVL476
 9472 07a8 C6060000 		.4byte	.LVL477
 9473 07ac 0100     		.2byte	0x1
 9474 07ae 50       		.byte	0x50
 9475 07af F0060000 		.4byte	.LVL479
 9476 07b3 0E070000 		.4byte	.LVL485
 9477 07b7 0200     		.2byte	0x2
 9478 07b9 33       		.byte	0x33
 9479 07ba 9F       		.byte	0x9f
 9480 07bb 00000000 		.4byte	0
 9481 07bf 00000000 		.4byte	0
 9482              	.LLST44:
 9483 07c3 06000000 		.4byte	.LVL174
 9484 07c7 4E010000 		.4byte	.LVL234
 9485 07cb 0200     		.2byte	0x2
 9486 07cd 33       		.byte	0x33
 9487 07ce 9F       		.byte	0x9f
 9488 07cf 4E010000 		.4byte	.LVL234
 9489 07d3 5E010000 		.4byte	.LVL235
 9490 07d7 0100     		.2byte	0x1
 9491 07d9 50       		.byte	0x50
ARM GAS  C:\Users\MM1005~1\AppData\Local\Temp\cc36bet7.s 			page 196


 9492 07da 6A010000 		.4byte	.LVL237
 9493 07de 6C010000 		.4byte	.LVL238
 9494 07e2 0100     		.2byte	0x1
 9495 07e4 50       		.byte	0x50
 9496 07e5 78010000 		.4byte	.LVL240
 9497 07e9 7A010000 		.4byte	.LVL241
 9498 07ed 0100     		.2byte	0x1
 9499 07ef 50       		.byte	0x50
 9500 07f0 86010000 		.4byte	.LVL243
 9501 07f4 88010000 		.4byte	.LVL244
 9502 07f8 0100     		.2byte	0x1
 9503 07fa 50       		.byte	0x50
 9504 07fb 94010000 		.4byte	.LVL246
 9505 07ff 0E070000 		.4byte	.LVL485
 9506 0803 0200     		.2byte	0x2
 9507 0805 33       		.byte	0x33
 9508 0806 9F       		.byte	0x9f
 9509 0807 00000000 		.4byte	0
 9510 080b 00000000 		.4byte	0
 9511              	.LLST45:
 9512 080f 0C000000 		.4byte	.LVL175
 9513 0813 12000000 		.4byte	.LVL176
 9514 0817 0100     		.2byte	0x1
 9515 0819 50       		.byte	0x50
 9516 081a 12000000 		.4byte	.LVL176
 9517 081e 19000000 		.4byte	.LVL177-1
 9518 0822 0300     		.2byte	0x3
 9519 0824 70       		.byte	0x70
 9520 0825 7E       		.sleb128 -2
 9521 0826 9F       		.byte	0x9f
 9522 0827 1E000000 		.4byte	.LVL178
 9523 082b 20000000 		.4byte	.LVL179
 9524 082f 0100     		.2byte	0x1
 9525 0831 50       		.byte	0x50
 9526 0832 20000000 		.4byte	.LVL179
 9527 0836 86000000 		.4byte	.LVL194
 9528 083a 0100     		.2byte	0x1
 9529 083c 55       		.byte	0x55
 9530 083d 86000000 		.4byte	.LVL194
 9531 0841 8C000000 		.4byte	.LVL195
 9532 0845 0100     		.2byte	0x1
 9533 0847 50       		.byte	0x50
 9534 0848 8C000000 		.4byte	.LVL195
 9535 084c 93000000 		.4byte	.LVL196-1
 9536 0850 0300     		.2byte	0x3
 9537 0852 70       		.byte	0x70
 9538 0853 7E       		.sleb128 -2
 9539 0854 9F       		.byte	0x9f
 9540 0855 98000000 		.4byte	.LVL197
 9541 0859 9F000000 		.4byte	.LVL199-1
 9542 085d 0100     		.2byte	0x1
 9543 085f 50       		.byte	0x50
 9544 0860 A0000000 		.4byte	.LVL199
 9545 0864 A6000000 		.4byte	.LVL200
 9546 0868 0100     		.2byte	0x1
 9547 086a 50       		.byte	0x50
 9548 086b A6000000 		.4byte	.LVL200
ARM GAS  C:\Users\MM1005~1\AppData\Local\Temp\cc36bet7.s 			page 197


 9549 086f AD000000 		.4byte	.LVL201-1
 9550 0873 0300     		.2byte	0x3
 9551 0875 70       		.byte	0x70
 9552 0876 7E       		.sleb128 -2
 9553 0877 9F       		.byte	0x9f
 9554 0878 B2000000 		.4byte	.LVL202
 9555 087c B4000000 		.4byte	.LVL203
 9556 0880 0100     		.2byte	0x1
 9557 0882 50       		.byte	0x50
 9558 0883 B4000000 		.4byte	.LVL203
 9559 0887 1C010000 		.4byte	.LVL224
 9560 088b 0100     		.2byte	0x1
 9561 088d 55       		.byte	0x55
 9562 088e 1C010000 		.4byte	.LVL224
 9563 0892 22010000 		.4byte	.LVL225
 9564 0896 0100     		.2byte	0x1
 9565 0898 50       		.byte	0x50
 9566 0899 22010000 		.4byte	.LVL225
 9567 089d 29010000 		.4byte	.LVL226-1
 9568 08a1 0300     		.2byte	0x3
 9569 08a3 70       		.byte	0x70
 9570 08a4 7E       		.sleb128 -2
 9571 08a5 9F       		.byte	0x9f
 9572 08a6 2E010000 		.4byte	.LVL227
 9573 08aa 35010000 		.4byte	.LVL229-1
 9574 08ae 0100     		.2byte	0x1
 9575 08b0 50       		.byte	0x50
 9576 08b1 36010000 		.4byte	.LVL229
 9577 08b5 3C010000 		.4byte	.LVL230
 9578 08b9 0100     		.2byte	0x1
 9579 08bb 50       		.byte	0x50
 9580 08bc 3C010000 		.4byte	.LVL230
 9581 08c0 43010000 		.4byte	.LVL231-1
 9582 08c4 0300     		.2byte	0x3
 9583 08c6 70       		.byte	0x70
 9584 08c7 7E       		.sleb128 -2
 9585 08c8 9F       		.byte	0x9f
 9586 08c9 48010000 		.4byte	.LVL232
 9587 08cd 4D010000 		.4byte	.LVL234-1
 9588 08d1 0100     		.2byte	0x1
 9589 08d3 50       		.byte	0x50
 9590 08d4 94010000 		.4byte	.LVL246
 9591 08d8 BC010000 		.4byte	.LVL251
 9592 08dc 0100     		.2byte	0x1
 9593 08de 55       		.byte	0x55
 9594 08df BC010000 		.4byte	.LVL251
 9595 08e3 C2010000 		.4byte	.LVL252
 9596 08e7 0100     		.2byte	0x1
 9597 08e9 50       		.byte	0x50
 9598 08ea C2010000 		.4byte	.LVL252
 9599 08ee C9010000 		.4byte	.LVL253-1
 9600 08f2 0300     		.2byte	0x3
 9601 08f4 70       		.byte	0x70
 9602 08f5 7E       		.sleb128 -2
 9603 08f6 9F       		.byte	0x9f
 9604 08f7 CE010000 		.4byte	.LVL254
 9605 08fb D5010000 		.4byte	.LVL256-1
ARM GAS  C:\Users\MM1005~1\AppData\Local\Temp\cc36bet7.s 			page 198


 9606 08ff 0100     		.2byte	0x1
 9607 0901 50       		.byte	0x50
 9608 0902 D6010000 		.4byte	.LVL256
 9609 0906 DC010000 		.4byte	.LVL257
 9610 090a 0100     		.2byte	0x1
 9611 090c 50       		.byte	0x50
 9612 090d DC010000 		.4byte	.LVL257
 9613 0911 E3010000 		.4byte	.LVL258-1
 9614 0915 0300     		.2byte	0x3
 9615 0917 70       		.byte	0x70
 9616 0918 7E       		.sleb128 -2
 9617 0919 9F       		.byte	0x9f
 9618 091a E8010000 		.4byte	.LVL259
 9619 091e EF010000 		.4byte	.LVL261-1
 9620 0922 0100     		.2byte	0x1
 9621 0924 50       		.byte	0x50
 9622 0925 F0010000 		.4byte	.LVL261
 9623 0929 F6010000 		.4byte	.LVL262
 9624 092d 0100     		.2byte	0x1
 9625 092f 50       		.byte	0x50
 9626 0930 F6010000 		.4byte	.LVL262
 9627 0934 FD010000 		.4byte	.LVL263-1
 9628 0938 0300     		.2byte	0x3
 9629 093a 70       		.byte	0x70
 9630 093b 7E       		.sleb128 -2
 9631 093c 9F       		.byte	0x9f
 9632 093d 02020000 		.4byte	.LVL264
 9633 0941 04020000 		.4byte	.LVL265
 9634 0945 0100     		.2byte	0x1
 9635 0947 50       		.byte	0x50
 9636 0948 04020000 		.4byte	.LVL265
 9637 094c 34020000 		.4byte	.LVL274
 9638 0950 0100     		.2byte	0x1
 9639 0952 55       		.byte	0x55
 9640 0953 34020000 		.4byte	.LVL274
 9641 0957 3A020000 		.4byte	.LVL275
 9642 095b 0100     		.2byte	0x1
 9643 095d 50       		.byte	0x50
 9644 095e 3A020000 		.4byte	.LVL275
 9645 0962 41020000 		.4byte	.LVL276-1
 9646 0966 0300     		.2byte	0x3
 9647 0968 70       		.byte	0x70
 9648 0969 7E       		.sleb128 -2
 9649 096a 9F       		.byte	0x9f
 9650 096b 46020000 		.4byte	.LVL277
 9651 096f 48020000 		.4byte	.LVL278
 9652 0973 0100     		.2byte	0x1
 9653 0975 50       		.byte	0x50
 9654 0976 48020000 		.4byte	.LVL278
 9655 097a 70020000 		.4byte	.LVL285
 9656 097e 0100     		.2byte	0x1
 9657 0980 57       		.byte	0x57
 9658 0981 78020000 		.4byte	.LVL287
 9659 0985 7E020000 		.4byte	.LVL288
 9660 0989 0100     		.2byte	0x1
 9661 098b 50       		.byte	0x50
 9662 098c 7E020000 		.4byte	.LVL288
ARM GAS  C:\Users\MM1005~1\AppData\Local\Temp\cc36bet7.s 			page 199


 9663 0990 85020000 		.4byte	.LVL289-1
 9664 0994 0300     		.2byte	0x3
 9665 0996 70       		.byte	0x70
 9666 0997 7E       		.sleb128 -2
 9667 0998 9F       		.byte	0x9f
 9668 0999 8A020000 		.4byte	.LVL290
 9669 099d 8C020000 		.4byte	.LVL291
 9670 09a1 0300     		.2byte	0x3
 9671 09a3 70       		.byte	0x70
 9672 09a4 01       		.sleb128 1
 9673 09a5 9F       		.byte	0x9f
 9674 09a6 8C020000 		.4byte	.LVL291
 9675 09aa 8F020000 		.4byte	.LVL292-1
 9676 09ae 0100     		.2byte	0x1
 9677 09b0 50       		.byte	0x50
 9678 09b1 D2020000 		.4byte	.LVL303
 9679 09b5 DA020000 		.4byte	.LVL304
 9680 09b9 0100     		.2byte	0x1
 9681 09bb 55       		.byte	0x55
 9682 09bc DA020000 		.4byte	.LVL304
 9683 09c0 E0020000 		.4byte	.LVL305
 9684 09c4 0100     		.2byte	0x1
 9685 09c6 50       		.byte	0x50
 9686 09c7 E0020000 		.4byte	.LVL305
 9687 09cb E7020000 		.4byte	.LVL306-1
 9688 09cf 0300     		.2byte	0x3
 9689 09d1 70       		.byte	0x70
 9690 09d2 7E       		.sleb128 -2
 9691 09d3 9F       		.byte	0x9f
 9692 09d4 EC020000 		.4byte	.LVL307
 9693 09d8 F3020000 		.4byte	.LVL309-1
 9694 09dc 0100     		.2byte	0x1
 9695 09de 50       		.byte	0x50
 9696 09df F4020000 		.4byte	.LVL309
 9697 09e3 FA020000 		.4byte	.LVL310
 9698 09e7 0100     		.2byte	0x1
 9699 09e9 50       		.byte	0x50
 9700 09ea FA020000 		.4byte	.LVL310
 9701 09ee 01030000 		.4byte	.LVL311-1
 9702 09f2 0300     		.2byte	0x3
 9703 09f4 70       		.byte	0x70
 9704 09f5 7E       		.sleb128 -2
 9705 09f6 9F       		.byte	0x9f
 9706 09f7 06030000 		.4byte	.LVL312
 9707 09fb 0D030000 		.4byte	.LVL314-1
 9708 09ff 0100     		.2byte	0x1
 9709 0a01 50       		.byte	0x50
 9710 0a02 0E030000 		.4byte	.LVL314
 9711 0a06 14030000 		.4byte	.LVL315
 9712 0a0a 0100     		.2byte	0x1
 9713 0a0c 50       		.byte	0x50
 9714 0a0d 14030000 		.4byte	.LVL315
 9715 0a11 1B030000 		.4byte	.LVL316-1
 9716 0a15 0300     		.2byte	0x3
 9717 0a17 70       		.byte	0x70
 9718 0a18 7E       		.sleb128 -2
 9719 0a19 9F       		.byte	0x9f
ARM GAS  C:\Users\MM1005~1\AppData\Local\Temp\cc36bet7.s 			page 200


 9720 0a1a 20030000 		.4byte	.LVL317
 9721 0a1e 22030000 		.4byte	.LVL318
 9722 0a22 0100     		.2byte	0x1
 9723 0a24 50       		.byte	0x50
 9724 0a25 22030000 		.4byte	.LVL318
 9725 0a29 86030000 		.4byte	.LVL325
 9726 0a2d 0100     		.2byte	0x1
 9727 0a2f 56       		.byte	0x56
 9728 0a30 A0030000 		.4byte	.LVL330
 9729 0a34 A6030000 		.4byte	.LVL331
 9730 0a38 0100     		.2byte	0x1
 9731 0a3a 50       		.byte	0x50
 9732 0a3b A6030000 		.4byte	.LVL331
 9733 0a3f AD030000 		.4byte	.LVL332-1
 9734 0a43 0300     		.2byte	0x3
 9735 0a45 70       		.byte	0x70
 9736 0a46 7E       		.sleb128 -2
 9737 0a47 9F       		.byte	0x9f
 9738 0a48 B2030000 		.4byte	.LVL333
 9739 0a4c B4030000 		.4byte	.LVL334
 9740 0a50 0300     		.2byte	0x3
 9741 0a52 70       		.byte	0x70
 9742 0a53 01       		.sleb128 1
 9743 0a54 9F       		.byte	0x9f
 9744 0a55 B4030000 		.4byte	.LVL334
 9745 0a59 B7030000 		.4byte	.LVL335-1
 9746 0a5d 0100     		.2byte	0x1
 9747 0a5f 50       		.byte	0x50
 9748 0a60 C6030000 		.4byte	.LVL340
 9749 0a64 CE030000 		.4byte	.LVL341
 9750 0a68 0100     		.2byte	0x1
 9751 0a6a 55       		.byte	0x55
 9752 0a6b CE030000 		.4byte	.LVL341
 9753 0a6f D4030000 		.4byte	.LVL342
 9754 0a73 0100     		.2byte	0x1
 9755 0a75 50       		.byte	0x50
 9756 0a76 D4030000 		.4byte	.LVL342
 9757 0a7a DB030000 		.4byte	.LVL343-1
 9758 0a7e 0300     		.2byte	0x3
 9759 0a80 70       		.byte	0x70
 9760 0a81 7E       		.sleb128 -2
 9761 0a82 9F       		.byte	0x9f
 9762 0a83 E0030000 		.4byte	.LVL344
 9763 0a87 E7030000 		.4byte	.LVL346-1
 9764 0a8b 0100     		.2byte	0x1
 9765 0a8d 50       		.byte	0x50
 9766 0a8e E8030000 		.4byte	.LVL346
 9767 0a92 EE030000 		.4byte	.LVL347
 9768 0a96 0100     		.2byte	0x1
 9769 0a98 50       		.byte	0x50
 9770 0a99 EE030000 		.4byte	.LVL347
 9771 0a9d F5030000 		.4byte	.LVL348-1
 9772 0aa1 0300     		.2byte	0x3
 9773 0aa3 70       		.byte	0x70
 9774 0aa4 7E       		.sleb128 -2
 9775 0aa5 9F       		.byte	0x9f
 9776 0aa6 FA030000 		.4byte	.LVL349
ARM GAS  C:\Users\MM1005~1\AppData\Local\Temp\cc36bet7.s 			page 201


 9777 0aaa 01040000 		.4byte	.LVL351-1
 9778 0aae 0100     		.2byte	0x1
 9779 0ab0 50       		.byte	0x50
 9780 0ab1 02040000 		.4byte	.LVL351
 9781 0ab5 08040000 		.4byte	.LVL352
 9782 0ab9 0100     		.2byte	0x1
 9783 0abb 50       		.byte	0x50
 9784 0abc 08040000 		.4byte	.LVL352
 9785 0ac0 0F040000 		.4byte	.LVL353-1
 9786 0ac4 0300     		.2byte	0x3
 9787 0ac6 70       		.byte	0x70
 9788 0ac7 7E       		.sleb128 -2
 9789 0ac8 9F       		.byte	0x9f
 9790 0ac9 14040000 		.4byte	.LVL354
 9791 0acd 35040000 		.4byte	.LVL356-1
 9792 0ad1 0100     		.2byte	0x1
 9793 0ad3 50       		.byte	0x50
 9794 0ad4 36040000 		.4byte	.LVL356
 9795 0ad8 3C040000 		.4byte	.LVL357
 9796 0adc 0100     		.2byte	0x1
 9797 0ade 50       		.byte	0x50
 9798 0adf 3C040000 		.4byte	.LVL357
 9799 0ae3 43040000 		.4byte	.LVL358-1
 9800 0ae7 0300     		.2byte	0x3
 9801 0ae9 70       		.byte	0x70
 9802 0aea 7E       		.sleb128 -2
 9803 0aeb 9F       		.byte	0x9f
 9804 0aec 48040000 		.4byte	.LVL359
 9805 0af0 4A040000 		.4byte	.LVL360
 9806 0af4 0100     		.2byte	0x1
 9807 0af6 50       		.byte	0x50
 9808 0af7 4A040000 		.4byte	.LVL360
 9809 0afb 5C040000 		.4byte	.LVL362
 9810 0aff 0100     		.2byte	0x1
 9811 0b01 55       		.byte	0x55
 9812 0b02 5C040000 		.4byte	.LVL362
 9813 0b06 62040000 		.4byte	.LVL363
 9814 0b0a 0100     		.2byte	0x1
 9815 0b0c 50       		.byte	0x50
 9816 0b0d 62040000 		.4byte	.LVL363
 9817 0b11 69040000 		.4byte	.LVL364-1
 9818 0b15 0300     		.2byte	0x3
 9819 0b17 70       		.byte	0x70
 9820 0b18 7E       		.sleb128 -2
 9821 0b19 9F       		.byte	0x9f
 9822 0b1a 6E040000 		.4byte	.LVL365
 9823 0b1e 70040000 		.4byte	.LVL366
 9824 0b22 0100     		.2byte	0x1
 9825 0b24 50       		.byte	0x50
 9826 0b25 70040000 		.4byte	.LVL366
 9827 0b29 82040000 		.4byte	.LVL368
 9828 0b2d 0100     		.2byte	0x1
 9829 0b2f 55       		.byte	0x55
 9830 0b30 82040000 		.4byte	.LVL368
 9831 0b34 88040000 		.4byte	.LVL369
 9832 0b38 0100     		.2byte	0x1
 9833 0b3a 50       		.byte	0x50
ARM GAS  C:\Users\MM1005~1\AppData\Local\Temp\cc36bet7.s 			page 202


 9834 0b3b 88040000 		.4byte	.LVL369
 9835 0b3f 8F040000 		.4byte	.LVL370-1
 9836 0b43 0300     		.2byte	0x3
 9837 0b45 70       		.byte	0x70
 9838 0b46 7E       		.sleb128 -2
 9839 0b47 9F       		.byte	0x9f
 9840 0b48 94040000 		.4byte	.LVL371
 9841 0b4c 96040000 		.4byte	.LVL372
 9842 0b50 0100     		.2byte	0x1
 9843 0b52 50       		.byte	0x50
 9844 0b53 96040000 		.4byte	.LVL372
 9845 0b57 AC040000 		.4byte	.LVL376
 9846 0b5b 0100     		.2byte	0x1
 9847 0b5d 55       		.byte	0x55
 9848 0b5e AC040000 		.4byte	.LVL376
 9849 0b62 B2040000 		.4byte	.LVL377
 9850 0b66 0100     		.2byte	0x1
 9851 0b68 50       		.byte	0x50
 9852 0b69 B2040000 		.4byte	.LVL377
 9853 0b6d B9040000 		.4byte	.LVL378-1
 9854 0b71 0300     		.2byte	0x3
 9855 0b73 70       		.byte	0x70
 9856 0b74 7E       		.sleb128 -2
 9857 0b75 9F       		.byte	0x9f
 9858 0b76 BE040000 		.4byte	.LVL379
 9859 0b7a C0040000 		.4byte	.LVL380
 9860 0b7e 0100     		.2byte	0x1
 9861 0b80 50       		.byte	0x50
 9862 0b81 C0040000 		.4byte	.LVL380
 9863 0b85 DA040000 		.4byte	.LVL383
 9864 0b89 0100     		.2byte	0x1
 9865 0b8b 55       		.byte	0x55
 9866 0b8c DA040000 		.4byte	.LVL383
 9867 0b90 E0040000 		.4byte	.LVL384
 9868 0b94 0100     		.2byte	0x1
 9869 0b96 50       		.byte	0x50
 9870 0b97 E0040000 		.4byte	.LVL384
 9871 0b9b E7040000 		.4byte	.LVL385-1
 9872 0b9f 0300     		.2byte	0x3
 9873 0ba1 70       		.byte	0x70
 9874 0ba2 7E       		.sleb128 -2
 9875 0ba3 9F       		.byte	0x9f
 9876 0ba4 EC040000 		.4byte	.LVL386
 9877 0ba8 EE040000 		.4byte	.LVL387
 9878 0bac 0100     		.2byte	0x1
 9879 0bae 50       		.byte	0x50
 9880 0baf EE040000 		.4byte	.LVL387
 9881 0bb3 00050000 		.4byte	.LVL389
 9882 0bb7 0100     		.2byte	0x1
 9883 0bb9 55       		.byte	0x55
 9884 0bba 00050000 		.4byte	.LVL389
 9885 0bbe 06050000 		.4byte	.LVL390
 9886 0bc2 0100     		.2byte	0x1
 9887 0bc4 50       		.byte	0x50
 9888 0bc5 06050000 		.4byte	.LVL390
 9889 0bc9 0D050000 		.4byte	.LVL391-1
 9890 0bcd 0300     		.2byte	0x3
ARM GAS  C:\Users\MM1005~1\AppData\Local\Temp\cc36bet7.s 			page 203


 9891 0bcf 70       		.byte	0x70
 9892 0bd0 7E       		.sleb128 -2
 9893 0bd1 9F       		.byte	0x9f
 9894 0bd2 12050000 		.4byte	.LVL392
 9895 0bd6 14050000 		.4byte	.LVL393
 9896 0bda 0100     		.2byte	0x1
 9897 0bdc 50       		.byte	0x50
 9898 0bdd 14050000 		.4byte	.LVL393
 9899 0be1 26050000 		.4byte	.LVL395
 9900 0be5 0100     		.2byte	0x1
 9901 0be7 55       		.byte	0x55
 9902 0be8 26050000 		.4byte	.LVL395
 9903 0bec 2C050000 		.4byte	.LVL396
 9904 0bf0 0100     		.2byte	0x1
 9905 0bf2 50       		.byte	0x50
 9906 0bf3 2C050000 		.4byte	.LVL396
 9907 0bf7 33050000 		.4byte	.LVL397-1
 9908 0bfb 0300     		.2byte	0x3
 9909 0bfd 70       		.byte	0x70
 9910 0bfe 7E       		.sleb128 -2
 9911 0bff 9F       		.byte	0x9f
 9912 0c00 38050000 		.4byte	.LVL398
 9913 0c04 3D050000 		.4byte	.LVL400-1
 9914 0c08 0100     		.2byte	0x1
 9915 0c0a 50       		.byte	0x50
 9916 0c0b 4C050000 		.4byte	.LVL402
 9917 0c0f 62050000 		.4byte	.LVL406
 9918 0c13 0100     		.2byte	0x1
 9919 0c15 55       		.byte	0x55
 9920 0c16 62050000 		.4byte	.LVL406
 9921 0c1a 68050000 		.4byte	.LVL407
 9922 0c1e 0100     		.2byte	0x1
 9923 0c20 50       		.byte	0x50
 9924 0c21 68050000 		.4byte	.LVL407
 9925 0c25 6F050000 		.4byte	.LVL408-1
 9926 0c29 0300     		.2byte	0x3
 9927 0c2b 70       		.byte	0x70
 9928 0c2c 7E       		.sleb128 -2
 9929 0c2d 9F       		.byte	0x9f
 9930 0c2e 74050000 		.4byte	.LVL409
 9931 0c32 7B050000 		.4byte	.LVL411-1
 9932 0c36 0100     		.2byte	0x1
 9933 0c38 50       		.byte	0x50
 9934 0c39 7C050000 		.4byte	.LVL411
 9935 0c3d 82050000 		.4byte	.LVL412
 9936 0c41 0100     		.2byte	0x1
 9937 0c43 50       		.byte	0x50
 9938 0c44 82050000 		.4byte	.LVL412
 9939 0c48 89050000 		.4byte	.LVL413-1
 9940 0c4c 0300     		.2byte	0x3
 9941 0c4e 70       		.byte	0x70
 9942 0c4f 7E       		.sleb128 -2
 9943 0c50 9F       		.byte	0x9f
 9944 0c51 8E050000 		.4byte	.LVL414
 9945 0c55 93050000 		.4byte	.LVL416-1
 9946 0c59 0100     		.2byte	0x1
 9947 0c5b 50       		.byte	0x50
ARM GAS  C:\Users\MM1005~1\AppData\Local\Temp\cc36bet7.s 			page 204


 9948 0c5c BE050000 		.4byte	.LVL425
 9949 0c60 C6050000 		.4byte	.LVL426
 9950 0c64 0100     		.2byte	0x1
 9951 0c66 55       		.byte	0x55
 9952 0c67 C6050000 		.4byte	.LVL426
 9953 0c6b CC050000 		.4byte	.LVL427
 9954 0c6f 0100     		.2byte	0x1
 9955 0c71 50       		.byte	0x50
 9956 0c72 CC050000 		.4byte	.LVL427
 9957 0c76 D3050000 		.4byte	.LVL428-1
 9958 0c7a 0300     		.2byte	0x3
 9959 0c7c 70       		.byte	0x70
 9960 0c7d 7E       		.sleb128 -2
 9961 0c7e 9F       		.byte	0x9f
 9962 0c7f D8050000 		.4byte	.LVL429
 9963 0c83 DF050000 		.4byte	.LVL431-1
 9964 0c87 0100     		.2byte	0x1
 9965 0c89 50       		.byte	0x50
 9966 0c8a E0050000 		.4byte	.LVL431
 9967 0c8e E6050000 		.4byte	.LVL432
 9968 0c92 0100     		.2byte	0x1
 9969 0c94 50       		.byte	0x50
 9970 0c95 E6050000 		.4byte	.LVL432
 9971 0c99 ED050000 		.4byte	.LVL433-1
 9972 0c9d 0300     		.2byte	0x3
 9973 0c9f 70       		.byte	0x70
 9974 0ca0 7E       		.sleb128 -2
 9975 0ca1 9F       		.byte	0x9f
 9976 0ca2 F2050000 		.4byte	.LVL434
 9977 0ca6 F7050000 		.4byte	.LVL436-1
 9978 0caa 0100     		.2byte	0x1
 9979 0cac 50       		.byte	0x50
 9980 0cad 22060000 		.4byte	.LVL445
 9981 0cb1 2A060000 		.4byte	.LVL446
 9982 0cb5 0100     		.2byte	0x1
 9983 0cb7 55       		.byte	0x55
 9984 0cb8 2A060000 		.4byte	.LVL446
 9985 0cbc 30060000 		.4byte	.LVL447
 9986 0cc0 0100     		.2byte	0x1
 9987 0cc2 50       		.byte	0x50
 9988 0cc3 30060000 		.4byte	.LVL447
 9989 0cc7 37060000 		.4byte	.LVL448-1
 9990 0ccb 0300     		.2byte	0x3
 9991 0ccd 70       		.byte	0x70
 9992 0cce 7E       		.sleb128 -2
 9993 0ccf 9F       		.byte	0x9f
 9994 0cd0 3C060000 		.4byte	.LVL449
 9995 0cd4 43060000 		.4byte	.LVL451-1
 9996 0cd8 0100     		.2byte	0x1
 9997 0cda 50       		.byte	0x50
 9998 0cdb 44060000 		.4byte	.LVL451
 9999 0cdf 4A060000 		.4byte	.LVL452
 10000 0ce3 0100     		.2byte	0x1
 10001 0ce5 50       		.byte	0x50
 10002 0ce6 4A060000 		.4byte	.LVL452
 10003 0cea 51060000 		.4byte	.LVL453-1
 10004 0cee 0300     		.2byte	0x3
ARM GAS  C:\Users\MM1005~1\AppData\Local\Temp\cc36bet7.s 			page 205


 10005 0cf0 70       		.byte	0x70
 10006 0cf1 7E       		.sleb128 -2
 10007 0cf2 9F       		.byte	0x9f
 10008 0cf3 56060000 		.4byte	.LVL454
 10009 0cf7 58060000 		.4byte	.LVL455
 10010 0cfb 0100     		.2byte	0x1
 10011 0cfd 50       		.byte	0x50
 10012 0cfe 58060000 		.4byte	.LVL455
 10013 0d02 88060000 		.4byte	.LVL464
 10014 0d06 0100     		.2byte	0x1
 10015 0d08 55       		.byte	0x55
 10016 0d09 88060000 		.4byte	.LVL464
 10017 0d0d 8E060000 		.4byte	.LVL465
 10018 0d11 0100     		.2byte	0x1
 10019 0d13 50       		.byte	0x50
 10020 0d14 8E060000 		.4byte	.LVL465
 10021 0d18 95060000 		.4byte	.LVL466-1
 10022 0d1c 0300     		.2byte	0x3
 10023 0d1e 70       		.byte	0x70
 10024 0d1f 7E       		.sleb128 -2
 10025 0d20 9F       		.byte	0x9f
 10026 0d21 9A060000 		.4byte	.LVL467
 10027 0d25 A1060000 		.4byte	.LVL469-1
 10028 0d29 0100     		.2byte	0x1
 10029 0d2b 50       		.byte	0x50
 10030 0d2c A2060000 		.4byte	.LVL469
 10031 0d30 A8060000 		.4byte	.LVL470
 10032 0d34 0100     		.2byte	0x1
 10033 0d36 50       		.byte	0x50
 10034 0d37 A8060000 		.4byte	.LVL470
 10035 0d3b AF060000 		.4byte	.LVL471-1
 10036 0d3f 0300     		.2byte	0x3
 10037 0d41 70       		.byte	0x70
 10038 0d42 7E       		.sleb128 -2
 10039 0d43 9F       		.byte	0x9f
 10040 0d44 B4060000 		.4byte	.LVL472
 10041 0d48 B9060000 		.4byte	.LVL474-1
 10042 0d4c 0100     		.2byte	0x1
 10043 0d4e 50       		.byte	0x50
 10044 0d4f C4060000 		.4byte	.LVL476
 10045 0d53 0E070000 		.4byte	.LVL485
 10046 0d57 0100     		.2byte	0x1
 10047 0d59 55       		.byte	0x55
 10048 0d5a 00000000 		.4byte	0
 10049 0d5e 00000000 		.4byte	0
 10050              	.LLST46:
 10051 0d62 0C000000 		.4byte	.LVL175
 10052 0d66 0C020000 		.4byte	.LVL266
 10053 0d6a 0200     		.2byte	0x2
 10054 0d6c 30       		.byte	0x30
 10055 0d6d 9F       		.byte	0x9f
 10056 0d6e 0C020000 		.4byte	.LVL266
 10057 0d72 12020000 		.4byte	.LVL267
 10058 0d76 0100     		.2byte	0x1
 10059 0d78 50       		.byte	0x50
 10060 0d79 12020000 		.4byte	.LVL267
 10061 0d7d 19020000 		.4byte	.LVL268-1
ARM GAS  C:\Users\MM1005~1\AppData\Local\Temp\cc36bet7.s 			page 206


 10062 0d81 0300     		.2byte	0x3
 10063 0d83 70       		.byte	0x70
 10064 0d84 7E       		.sleb128 -2
 10065 0d85 9F       		.byte	0x9f
 10066 0d86 1E020000 		.4byte	.LVL269
 10067 0d8a 24020000 		.4byte	.LVL270
 10068 0d8e 0100     		.2byte	0x1
 10069 0d90 50       		.byte	0x50
 10070 0d91 24020000 		.4byte	.LVL270
 10071 0d95 48020000 		.4byte	.LVL278
 10072 0d99 0100     		.2byte	0x1
 10073 0d9b 57       		.byte	0x57
 10074 0d9c 50020000 		.4byte	.LVL279
 10075 0da0 56020000 		.4byte	.LVL280
 10076 0da4 0100     		.2byte	0x1
 10077 0da6 50       		.byte	0x50
 10078 0da7 56020000 		.4byte	.LVL280
 10079 0dab 5D020000 		.4byte	.LVL281-1
 10080 0daf 0300     		.2byte	0x3
 10081 0db1 70       		.byte	0x70
 10082 0db2 7E       		.sleb128 -2
 10083 0db3 9F       		.byte	0x9f
 10084 0db4 62020000 		.4byte	.LVL282
 10085 0db8 68020000 		.4byte	.LVL283
 10086 0dbc 0100     		.2byte	0x1
 10087 0dbe 50       		.byte	0x50
 10088 0dbf 68020000 		.4byte	.LVL283
 10089 0dc3 D2020000 		.4byte	.LVL303
 10090 0dc7 0100     		.2byte	0x1
 10091 0dc9 55       		.byte	0x55
 10092 0dca D2020000 		.4byte	.LVL303
 10093 0dce 2A030000 		.4byte	.LVL319
 10094 0dd2 0200     		.2byte	0x2
 10095 0dd4 30       		.byte	0x30
 10096 0dd5 9F       		.byte	0x9f
 10097 0dd6 2A030000 		.4byte	.LVL319
 10098 0dda 30030000 		.4byte	.LVL320
 10099 0dde 0100     		.2byte	0x1
 10100 0de0 50       		.byte	0x50
 10101 0de1 30030000 		.4byte	.LVL320
 10102 0de5 37030000 		.4byte	.LVL321-1
 10103 0de9 0300     		.2byte	0x3
 10104 0deb 70       		.byte	0x70
 10105 0dec 7E       		.sleb128 -2
 10106 0ded 9F       		.byte	0x9f
 10107 0dee 78030000 		.4byte	.LVL322
 10108 0df2 7E030000 		.4byte	.LVL323
 10109 0df6 0100     		.2byte	0x1
 10110 0df8 50       		.byte	0x50
 10111 0df9 7E030000 		.4byte	.LVL323
 10112 0dfd C6030000 		.4byte	.LVL340
 10113 0e01 0100     		.2byte	0x1
 10114 0e03 55       		.byte	0x55
 10115 0e04 C6030000 		.4byte	.LVL340
 10116 0e08 0E070000 		.4byte	.LVL485
 10117 0e0c 0200     		.2byte	0x2
 10118 0e0e 30       		.byte	0x30
ARM GAS  C:\Users\MM1005~1\AppData\Local\Temp\cc36bet7.s 			page 207


 10119 0e0f 9F       		.byte	0x9f
 10120 0e10 00000000 		.4byte	0
 10121 0e14 00000000 		.4byte	0
 10122              	.LLST47:
 10123 0e18 0C000000 		.4byte	.LVL175
 10124 0e1c 2C020000 		.4byte	.LVL272
 10125 0e20 0200     		.2byte	0x2
 10126 0e22 30       		.byte	0x30
 10127 0e23 9F       		.byte	0x9f
 10128 0e24 2C020000 		.4byte	.LVL272
 10129 0e28 2E020000 		.4byte	.LVL273
 10130 0e2c 0100     		.2byte	0x1
 10131 0e2e 50       		.byte	0x50
 10132 0e2f 2E020000 		.4byte	.LVL273
 10133 0e33 D2020000 		.4byte	.LVL303
 10134 0e37 0300     		.2byte	0x3
 10135 0e39 91       		.byte	0x91
 10136 0e3a A47F     		.sleb128 -92
 10137 0e3c D2020000 		.4byte	.LVL303
 10138 0e40 0E070000 		.4byte	.LVL485
 10139 0e44 0200     		.2byte	0x2
 10140 0e46 30       		.byte	0x30
 10141 0e47 9F       		.byte	0x9f
 10142 0e48 00000000 		.4byte	0
 10143 0e4c 00000000 		.4byte	0
 10144              	.LLST48:
 10145 0e50 0C000000 		.4byte	.LVL175
 10146 0e54 70020000 		.4byte	.LVL285
 10147 0e58 0200     		.2byte	0x2
 10148 0e5a 30       		.byte	0x30
 10149 0e5b 9F       		.byte	0x9f
 10150 0e5c 70020000 		.4byte	.LVL285
 10151 0e60 72020000 		.4byte	.LVL286
 10152 0e64 0100     		.2byte	0x1
 10153 0e66 50       		.byte	0x50
 10154 0e67 72020000 		.4byte	.LVL286
 10155 0e6b D2020000 		.4byte	.LVL303
 10156 0e6f 0100     		.2byte	0x1
 10157 0e71 57       		.byte	0x57
 10158 0e72 D2020000 		.4byte	.LVL303
 10159 0e76 0E070000 		.4byte	.LVL485
 10160 0e7a 0200     		.2byte	0x2
 10161 0e7c 30       		.byte	0x30
 10162 0e7d 9F       		.byte	0x9f
 10163 0e7e 00000000 		.4byte	0
 10164 0e82 00000000 		.4byte	0
 10165              	.LLST49:
 10166 0e86 0C000000 		.4byte	.LVL175
 10167 0e8a 92020000 		.4byte	.LVL293
 10168 0e8e 0200     		.2byte	0x2
 10169 0e90 30       		.byte	0x30
 10170 0e91 9F       		.byte	0x9f
 10171 0e92 92020000 		.4byte	.LVL293
 10172 0e96 9C020000 		.4byte	.LVL294
 10173 0e9a 0100     		.2byte	0x1
 10174 0e9c 50       		.byte	0x50
 10175 0e9d 9C020000 		.4byte	.LVL294
ARM GAS  C:\Users\MM1005~1\AppData\Local\Temp\cc36bet7.s 			page 208


 10176 0ea1 B4020000 		.4byte	.LVL298
 10177 0ea5 0100     		.2byte	0x1
 10178 0ea7 54       		.byte	0x54
 10179 0ea8 B4020000 		.4byte	.LVL298
 10180 0eac BA020000 		.4byte	.LVL299
 10181 0eb0 0100     		.2byte	0x1
 10182 0eb2 50       		.byte	0x50
 10183 0eb3 BA020000 		.4byte	.LVL299
 10184 0eb7 D2020000 		.4byte	.LVL303
 10185 0ebb 0100     		.2byte	0x1
 10186 0ebd 54       		.byte	0x54
 10187 0ebe D2020000 		.4byte	.LVL303
 10188 0ec2 0E070000 		.4byte	.LVL485
 10189 0ec6 0200     		.2byte	0x2
 10190 0ec8 30       		.byte	0x30
 10191 0ec9 9F       		.byte	0x9f
 10192 0eca 00000000 		.4byte	0
 10193 0ece 00000000 		.4byte	0
 10194              	.LLST50:
 10195 0ed2 0C000000 		.4byte	.LVL175
 10196 0ed6 86030000 		.4byte	.LVL325
 10197 0eda 0200     		.2byte	0x2
 10198 0edc 30       		.byte	0x30
 10199 0edd 9F       		.byte	0x9f
 10200 0ede 86030000 		.4byte	.LVL325
 10201 0ee2 8C030000 		.4byte	.LVL326
 10202 0ee6 0100     		.2byte	0x1
 10203 0ee8 50       		.byte	0x50
 10204 0ee9 8C030000 		.4byte	.LVL326
 10205 0eed 98030000 		.4byte	.LVL328
 10206 0ef1 0100     		.2byte	0x1
 10207 0ef3 56       		.byte	0x56
 10208 0ef4 98030000 		.4byte	.LVL328
 10209 0ef8 9A030000 		.4byte	.LVL329
 10210 0efc 0100     		.2byte	0x1
 10211 0efe 50       		.byte	0x50
 10212 0eff 9A030000 		.4byte	.LVL329
 10213 0f03 C6030000 		.4byte	.LVL340
 10214 0f07 0100     		.2byte	0x1
 10215 0f09 56       		.byte	0x56
 10216 0f0a C6030000 		.4byte	.LVL340
 10217 0f0e 0E070000 		.4byte	.LVL485
 10218 0f12 0200     		.2byte	0x2
 10219 0f14 30       		.byte	0x30
 10220 0f15 9F       		.byte	0x9f
 10221 0f16 00000000 		.4byte	0
 10222 0f1a 00000000 		.4byte	0
 10223              	.LLST51:
 10224 0f1e 0C000000 		.4byte	.LVL175
 10225 0f22 BA030000 		.4byte	.LVL336
 10226 0f26 0200     		.2byte	0x2
 10227 0f28 30       		.byte	0x30
 10228 0f29 9F       		.byte	0x9f
 10229 0f2a BA030000 		.4byte	.LVL336
 10230 0f2e BC030000 		.4byte	.LVL337
 10231 0f32 0100     		.2byte	0x1
 10232 0f34 50       		.byte	0x50
ARM GAS  C:\Users\MM1005~1\AppData\Local\Temp\cc36bet7.s 			page 209


 10233 0f35 BC030000 		.4byte	.LVL337
 10234 0f39 BE030000 		.4byte	.LVL338
 10235 0f3d 0100     		.2byte	0x1
 10236 0f3f 51       		.byte	0x51
 10237 0f40 C6030000 		.4byte	.LVL340
 10238 0f44 0E070000 		.4byte	.LVL485
 10239 0f48 0200     		.2byte	0x2
 10240 0f4a 30       		.byte	0x30
 10241 0f4b 9F       		.byte	0x9f
 10242 0f4c 00000000 		.4byte	0
 10243 0f50 00000000 		.4byte	0
 10244              	.LLST52:
 10245 0f54 40000000 		.4byte	.LVL183
 10246 0f58 58000000 		.4byte	.LVL186
 10247 0f5c 0100     		.2byte	0x1
 10248 0f5e 54       		.byte	0x54
 10249 0f5f 5A000000 		.4byte	.LVL187
 10250 0f63 60000000 		.4byte	.LVL188
 10251 0f67 0100     		.2byte	0x1
 10252 0f69 54       		.byte	0x54
 10253 0f6a 62000000 		.4byte	.LVL189
 10254 0f6e 7E000000 		.4byte	.LVL193
 10255 0f72 0100     		.2byte	0x1
 10256 0f74 54       		.byte	0x54
 10257 0f75 A0040000 		.4byte	.LVL374
 10258 0f79 A4040000 		.4byte	.LVL375
 10259 0f7d 0200     		.2byte	0x2
 10260 0f7f 30       		.byte	0x30
 10261 0f80 9F       		.byte	0x9f
 10262 0f81 A4040000 		.4byte	.LVL375
 10263 0f85 4C050000 		.4byte	.LVL402
 10264 0f89 0100     		.2byte	0x1
 10265 0f8b 56       		.byte	0x56
 10266 0f8c 00000000 		.4byte	0
 10267 0f90 00000000 		.4byte	0
 10268              		.section	.debug_aranges,"",%progbits
 10269 0000 BC000000 		.4byte	0xbc
 10270 0004 0200     		.2byte	0x2
 10271 0006 00000000 		.4byte	.Ldebug_info0
 10272 000a 04       		.byte	0x4
 10273 000b 00       		.byte	0
 10274 000c 0000     		.2byte	0
 10275 000e 0000     		.2byte	0
 10276 0010 00000000 		.4byte	.LFB35
 10277 0014 38000000 		.4byte	.LFE35-.LFB35
 10278 0018 00000000 		.4byte	.LFB36
 10279 001c 3C000000 		.4byte	.LFE36-.LFB36
 10280 0020 00000000 		.4byte	.LFB37
 10281 0024 3C000000 		.4byte	.LFE37-.LFB37
 10282 0028 00000000 		.4byte	.LFB38
 10283 002c 3C000000 		.4byte	.LFE38-.LFB38
 10284 0030 00000000 		.4byte	.LFB39
 10285 0034 3C000000 		.4byte	.LFE39-.LFB39
 10286 0038 00000000 		.4byte	.LFB40
 10287 003c 30000000 		.4byte	.LFE40-.LFB40
 10288 0040 00000000 		.4byte	.LFB41
 10289 0044 3C000000 		.4byte	.LFE41-.LFB41
ARM GAS  C:\Users\MM1005~1\AppData\Local\Temp\cc36bet7.s 			page 210


 10290 0048 00000000 		.4byte	.LFB42
 10291 004c 3C000000 		.4byte	.LFE42-.LFB42
 10292 0050 00000000 		.4byte	.LFB44
 10293 0054 02000000 		.4byte	.LFE44-.LFB44
 10294 0058 00000000 		.4byte	.LFB47
 10295 005c 02000000 		.4byte	.LFE47-.LFB47
 10296 0060 00000000 		.4byte	.LFB52
 10297 0064 0C000000 		.4byte	.LFE52-.LFB52
 10298 0068 00000000 		.4byte	.LFB51
 10299 006c 1C000000 		.4byte	.LFE51-.LFB51
 10300 0070 00000000 		.4byte	.LFB45
 10301 0074 B8000000 		.4byte	.LFE45-.LFB45
 10302 0078 00000000 		.4byte	.LFB46
 10303 007c 80000000 		.4byte	.LFE46-.LFB46
 10304 0080 00000000 		.4byte	.LFB49
 10305 0084 A8000000 		.4byte	.LFE49-.LFB49
 10306 0088 00000000 		.4byte	.LFB50
 10307 008c D8000000 		.4byte	.LFE50-.LFB50
 10308 0090 00000000 		.4byte	.LFB53
 10309 0094 0C000000 		.4byte	.LFE53-.LFB53
 10310 0098 00000000 		.4byte	.LFB54
 10311 009c 0C000000 		.4byte	.LFE54-.LFB54
 10312 00a0 00000000 		.4byte	.LFB48
 10313 00a4 C8000000 		.4byte	.LFE48-.LFB48
 10314 00a8 00000000 		.4byte	.LFB55
 10315 00ac 0C000000 		.4byte	.LFE55-.LFB55
 10316 00b0 00000000 		.4byte	.LFB43
 10317 00b4 1C070000 		.4byte	.LFE43-.LFB43
 10318 00b8 00000000 		.4byte	0
 10319 00bc 00000000 		.4byte	0
 10320              		.section	.debug_ranges,"",%progbits
 10321              	.Ldebug_ranges0:
 10322 0000 00000000 		.4byte	.LFB35
 10323 0004 38000000 		.4byte	.LFE35
 10324 0008 00000000 		.4byte	.LFB36
 10325 000c 3C000000 		.4byte	.LFE36
 10326 0010 00000000 		.4byte	.LFB37
 10327 0014 3C000000 		.4byte	.LFE37
 10328 0018 00000000 		.4byte	.LFB38
 10329 001c 3C000000 		.4byte	.LFE38
 10330 0020 00000000 		.4byte	.LFB39
 10331 0024 3C000000 		.4byte	.LFE39
 10332 0028 00000000 		.4byte	.LFB40
 10333 002c 30000000 		.4byte	.LFE40
 10334 0030 00000000 		.4byte	.LFB41
 10335 0034 3C000000 		.4byte	.LFE41
 10336 0038 00000000 		.4byte	.LFB42
 10337 003c 3C000000 		.4byte	.LFE42
 10338 0040 00000000 		.4byte	.LFB44
 10339 0044 02000000 		.4byte	.LFE44
 10340 0048 00000000 		.4byte	.LFB47
 10341 004c 02000000 		.4byte	.LFE47
 10342 0050 00000000 		.4byte	.LFB52
 10343 0054 0C000000 		.4byte	.LFE52
 10344 0058 00000000 		.4byte	.LFB51
 10345 005c 1C000000 		.4byte	.LFE51
 10346 0060 00000000 		.4byte	.LFB45
ARM GAS  C:\Users\MM1005~1\AppData\Local\Temp\cc36bet7.s 			page 211


 10347 0064 B8000000 		.4byte	.LFE45
 10348 0068 00000000 		.4byte	.LFB46
 10349 006c 80000000 		.4byte	.LFE46
 10350 0070 00000000 		.4byte	.LFB49
 10351 0074 A8000000 		.4byte	.LFE49
 10352 0078 00000000 		.4byte	.LFB50
 10353 007c D8000000 		.4byte	.LFE50
 10354 0080 00000000 		.4byte	.LFB53
 10355 0084 0C000000 		.4byte	.LFE53
 10356 0088 00000000 		.4byte	.LFB54
 10357 008c 0C000000 		.4byte	.LFE54
 10358 0090 00000000 		.4byte	.LFB48
 10359 0094 C8000000 		.4byte	.LFE48
 10360 0098 00000000 		.4byte	.LFB55
 10361 009c 0C000000 		.4byte	.LFE55
 10362 00a0 00000000 		.4byte	.LFB43
 10363 00a4 1C070000 		.4byte	.LFE43
 10364 00a8 00000000 		.4byte	0
 10365 00ac 00000000 		.4byte	0
 10366              		.section	.debug_line,"",%progbits
 10367              	.Ldebug_line0:
 10368 0000 A7050000 		.section	.debug_str,"MS",%progbits,1
 10368      02009F01 
 10368      00000201 
 10368      FB0E0D00 
 10368      01010101 
 10369              	.LASF144:
 10370 0000 636D645F 		.ascii	"cmd_str\000"
 10370      73747200 
 10371              	.LASF104:
 10372 0008 434D445F 		.ascii	"CMD_ANIM_STOP\000"
 10372      414E494D 
 10372      5F53544F 
 10372      5000
 10373              	.LASF235:
 10374 0016 474E5520 		.ascii	"GNU C 4.9.3 20150303 (release) [ARM/embedded-4_9-br"
 10374      4320342E 
 10374      392E3320 
 10374      32303135 
 10374      30333033 
 10375 0049 616E6368 		.ascii	"anch revision 221220] -mcpu=cortex-m0plus -mthumb -"
 10375      20726576 
 10375      6973696F 
 10375      6E203232 
 10375      31323230 
 10376 007c 67202D4F 		.ascii	"g -Og -ffunction-sections -ffat-lto-objects\000"
 10376      67202D66 
 10376      66756E63 
 10376      74696F6E 
 10376      2D736563 
 10377              	.LASF146:
 10378 00a8 6765745F 		.ascii	"get_tracker_cmd_id_from_cmd_string\000"
 10378      74726163 
 10378      6B65725F 
 10378      636D645F 
 10378      69645F66 
 10379              	.LASF85:
ARM GAS  C:\Users\MM1005~1\AppData\Local\Temp\cc36bet7.s 			page 212


 10380 00cb 414C4152 		.ascii	"ALARM_ERROR\000"
 10380      4D5F4552 
 10380      524F5200 
 10381              	.LASF227:
 10382 00d7 7365745F 		.ascii	"set_is_anim_on_button_up_enable\000"
 10382      69735F61 
 10382      6E696D5F 
 10382      6F6E5F62 
 10382      7574746F 
 10383              	.LASF73:
 10384 00f7 414E494D 		.ascii	"ANIM_UNKNOWN\000"
 10384      5F554E4B 
 10384      4E4F574E 
 10384      00
 10385              	.LASF80:
 10386 0104 745F7374 		.ascii	"t_struct_animation\000"
 10386      72756374 
 10386      5F616E69 
 10386      6D617469 
 10386      6F6E00
 10387              	.LASF114:
 10388 0117 434D445F 		.ascii	"CMD_TELEMETRY_ENABLE\000"
 10388      54454C45 
 10388      4D455452 
 10388      595F454E 
 10388      41424C45 
 10389              	.LASF56:
 10390 012c 455F4C45 		.ascii	"E_LED_LEFT_GREEN\000"
 10390      445F4C45 
 10390      46545F47 
 10390      5245454E 
 10390      00
 10391              	.LASF240:
 10392 013d 7374726C 		.ascii	"strlen\000"
 10392      656E00
 10393              	.LASF83:
 10394 0144 414C4152 		.ascii	"ALARM_INFO\000"
 10394      4D5F494E 
 10394      464F00
 10395              	.LASF207:
 10396 014f 7665635F 		.ascii	"vec_sensor_commands\000"
 10396      73656E73 
 10396      6F725F63 
 10396      6F6D6D61 
 10396      6E647300 
 10397              	.LASF234:
 10398 0163 7365745F 		.ascii	"set_number_of_buttons\000"
 10398      6E756D62 
 10398      65725F6F 
 10398      665F6275 
 10398      74746F6E 
 10399              	.LASF216:
 10400 0179 43617053 		.ascii	"CapSense_ISR_Disable\000"
 10400      656E7365 
 10400      5F495352 
 10400      5F446973 
 10400      61626C65 
ARM GAS  C:\Users\MM1005~1\AppData\Local\Temp\cc36bet7.s 			page 213


 10401              	.LASF88:
 10402 018e 745F656E 		.ascii	"t_enum_alarm_type\000"
 10402      756D5F61 
 10402      6C61726D 
 10402      5F747970 
 10402      6500
 10403              	.LASF232:
 10404 01a0 7365745F 		.ascii	"set_led_strip\000"
 10404      6C65645F 
 10404      73747269 
 10404      7000
 10405              	.LASF213:
 10406 01ae 69735F73 		.ascii	"is_sensor_telemetry_enable\000"
 10406      656E736F 
 10406      725F7465 
 10406      6C656D65 
 10406      7472795F 
 10407              	.LASF105:
 10408 01c9 434D445F 		.ascii	"CMD_ANIM_RESUME\000"
 10408      414E494D 
 10408      5F524553 
 10408      554D4500 
 10409              	.LASF91:
 10410 01d9 434D445F 		.ascii	"CMD_BOOTLOADER\000"
 10410      424F4F54 
 10410      4C4F4144 
 10410      455200
 10411              	.LASF164:
 10412 01e8 73656E64 		.ascii	"send_push_button_telemetry\000"
 10412      5F707573 
 10412      685F6275 
 10412      74746F6E 
 10412      5F74656C 
 10413              	.LASF192:
 10414 0203 616E696D 		.ascii	"anim_id\000"
 10414      5F696400 
 10415              	.LASF8:
 10416 020b 756E7369 		.ascii	"unsigned int\000"
 10416      676E6564 
 10416      20696E74 
 10416      00
 10417              	.LASF58:
 10418 0218 656E756D 		.ascii	"enum_animation\000"
 10418      5F616E69 
 10418      6D617469 
 10418      6F6E00
 10419              	.LASF138:
 10420 0227 73747275 		.ascii	"struct_animation\000"
 10420      63745F61 
 10420      6E696D61 
 10420      74696F6E 
 10420      00
 10421              	.LASF9:
 10422 0238 75696E74 		.ascii	"uint_fast64_t\000"
 10422      5F666173 
 10422      7436345F 
 10422      7400
ARM GAS  C:\Users\MM1005~1\AppData\Local\Temp\cc36bet7.s 			page 214


 10423              	.LASF60:
 10424 0246 414E494D 		.ascii	"ANIM_BUTTON_SMOOTH_FAST\000"
 10424      5F425554 
 10424      544F4E5F 
 10424      534D4F4F 
 10424      54485F46 
 10425              	.LASF173:
 10426 025e 7365745F 		.ascii	"set_is_telemetry_enable\000"
 10426      69735F74 
 10426      656C656D 
 10426      65747279 
 10426      5F656E61 
 10427              	.LASF92:
 10428 0276 434D445F 		.ascii	"CMD_CAPSENSE\000"
 10428      43415053 
 10428      454E5345 
 10428      00
 10429              	.LASF75:
 10430 0283 745F6361 		.ascii	"t_callback_anim\000"
 10430      6C6C6261 
 10430      636B5F61 
 10430      6E696D00 
 10431              	.LASF109:
 10432 0293 434D445F 		.ascii	"CMD_SENSOR_ENABLE\000"
 10432      53454E53 
 10432      4F525F45 
 10432      4E41424C 
 10432      4500
 10433              	.LASF181:
 10434 02a5 6E625F74 		.ascii	"nb_touched\000"
 10434      6F756368 
 10434      656400
 10435              	.LASF67:
 10436 02b0 414E494D 		.ascii	"ANIM_RED_WHITE_INTENSITY\000"
 10436      5F524544 
 10436      5F574849 
 10436      54455F49 
 10436      4E54454E 
 10437              	.LASF89:
 10438 02c9 656E756D 		.ascii	"enum_command\000"
 10438      5F636F6D 
 10438      6D616E64 
 10438      00
 10439              	.LASF101:
 10440 02d6 656E756D 		.ascii	"enum_anim_command\000"
 10440      5F616E69 
 10440      6D5F636F 
 10440      6D6D616E 
 10440      6400
 10441              	.LASF115:
 10442 02e8 434D445F 		.ascii	"CMD_TELEMETRY_DISABLE\000"
 10442      54454C45 
 10442      4D455452 
 10442      595F4449 
 10442      5341424C 
 10443              	.LASF99:
 10444 02fe 434D445F 		.ascii	"CMD_UNKNOWN\000"
ARM GAS  C:\Users\MM1005~1\AppData\Local\Temp\cc36bet7.s 			page 215


 10444      554E4B4E 
 10444      4F574E00 
 10445              	.LASF142:
 10446 030a 6765745F 		.ascii	"get_cmd_id_from_cmd_string\000"
 10446      636D645F 
 10446      69645F66 
 10446      726F6D5F 
 10446      636D645F 
 10447              	.LASF202:
 10448 0325 6C65645F 		.ascii	"led_index\000"
 10448      696E6465 
 10448      7800
 10449              	.LASF219:
 10450 032f 73747273 		.ascii	"strstr\000"
 10450      747200
 10451              	.LASF131:
 10452 0336 745F656E 		.ascii	"t_enum_led_command\000"
 10452      756D5F6C 
 10452      65645F63 
 10452      6F6D6D61 
 10452      6E6400
 10453              	.LASF220:
 10454 0349 73747263 		.ascii	"strcat\000"
 10454      617400
 10455              	.LASF13:
 10456 0350 666C6F61 		.ascii	"float\000"
 10456      7400
 10457              	.LASF117:
 10458 0356 745F656E 		.ascii	"t_enum_telemetry_command\000"
 10458      756D5F74 
 10458      656C656D 
 10458      65747279 
 10458      5F636F6D 
 10459              	.LASF150:
 10460 036f 6765745F 		.ascii	"get_boot_cmd_id_from_cmd_string\000"
 10460      626F6F74 
 10460      5F636D64 
 10460      5F69645F 
 10460      66726F6D 
 10461              	.LASF76:
 10462 038f 68696768 		.ascii	"high_speed\000"
 10462      5F737065 
 10462      656400
 10463              	.LASF7:
 10464 039a 6C6F6E67 		.ascii	"long long unsigned int\000"
 10464      206C6F6E 
 10464      6720756E 
 10464      7369676E 
 10464      65642069 
 10465              	.LASF122:
 10466 03b1 434D445F 		.ascii	"CMD_TRACKER_UNKNOWN\000"
 10466      54524143 
 10466      4B45525F 
 10466      554E4B4E 
 10466      4F574E00 
 10467              	.LASF100:
 10468 03c5 745F656E 		.ascii	"t_enum_command\000"
ARM GAS  C:\Users\MM1005~1\AppData\Local\Temp\cc36bet7.s 			page 216


 10468      756D5F63 
 10468      6F6D6D61 
 10468      6E6400
 10469              	.LASF168:
 10470 03d4 73656E64 		.ascii	"send_flash_geometry_telemetry\000"
 10470      5F666C61 
 10470      73685F67 
 10470      656F6D65 
 10470      7472795F 
 10471              	.LASF158:
 10472 03f2 616C6172 		.ascii	"alarm_type\000"
 10472      6D5F7479 
 10472      706500
 10473              	.LASF239:
 10474 03fd 5F5F6275 		.ascii	"__builtin_strlen\000"
 10474      696C7469 
 10474      6E5F7374 
 10474      726C656E 
 10474      00
 10475              	.LASF124:
 10476 040e 656E756D 		.ascii	"enum_led_command\000"
 10476      5F6C6564 
 10476      5F636F6D 
 10476      6D616E64 
 10476      00
 10477              	.LASF42:
 10478 041f 70747232 		.ascii	"ptr2NoiseEnvlp\000"
 10478      4E6F6973 
 10478      65456E76 
 10478      6C7000
 10479              	.LASF40:
 10480 042e 77646774 		.ascii	"wdgtType\000"
 10480      54797065 
 10480      00
 10481              	.LASF185:
 10482 0437 73656E73 		.ascii	"sensors_vec\000"
 10482      6F72735F 
 10482      76656300 
 10483              	.LASF49:
 10484 0443 745F656E 		.ascii	"t_enum_direction\000"
 10484      756D5F64 
 10484      69726563 
 10484      74696F6E 
 10484      00
 10485              	.LASF53:
 10486 0454 455F4C45 		.ascii	"E_LED_RIGHT_GREEN\000"
 10486      445F5249 
 10486      4748545F 
 10486      47524545 
 10486      4E00
 10487              	.LASF57:
 10488 0466 455F4C45 		.ascii	"E_LED_LEFT_BLUE\000"
 10488      445F4C45 
 10488      46545F42 
 10488      4C554500 
 10489              	.LASF187:
 10490 0476 7468655F 		.ascii	"the_is_sensor_telemetry_enable\000"
ARM GAS  C:\Users\MM1005~1\AppData\Local\Temp\cc36bet7.s 			page 217


 10490      69735F73 
 10490      656E736F 
 10490      725F7465 
 10490      6C656D65 
 10491              	.LASF55:
 10492 0495 455F4C45 		.ascii	"E_LED_LEFT_RED\000"
 10492      445F4C45 
 10492      46545F52 
 10492      454400
 10493              	.LASF147:
 10494 04a4 6765745F 		.ascii	"get_anim_cmd_id_from_cmd_string\000"
 10494      616E696D 
 10494      5F636D64 
 10494      5F69645F 
 10494      66726F6D 
 10495              	.LASF206:
 10496 04c4 7665635F 		.ascii	"vec_anim_commands\000"
 10496      616E696D 
 10496      5F636F6D 
 10496      6D616E64 
 10496      7300
 10497              	.LASF86:
 10498 04d6 414C4152 		.ascii	"ALARM_FATAL\000"
 10498      4D5F4641 
 10498      54414C00 
 10499              	.LASF107:
 10500 04e2 745F656E 		.ascii	"t_enum_anim_command\000"
 10500      756D5F61 
 10500      6E696D5F 
 10500      636F6D6D 
 10500      616E6400 
 10501              	.LASF156:
 10502 04f6 73656E64 		.ascii	"send_telemetry\000"
 10502      5F74656C 
 10502      656D6574 
 10502      727900
 10503              	.LASF32:
 10504 0505 43617053 		.ascii	"CapSense_RAM_SNS_STRUCT\000"
 10504      656E7365 
 10504      5F52414D 
 10504      5F534E53 
 10504      5F535452 
 10505              	.LASF127:
 10506 051d 434D445F 		.ascii	"CMD_LED_SET_COLOR_RIGHT\000"
 10506      4C45445F 
 10506      5345545F 
 10506      434F4C4F 
 10506      525F5249 
 10507              	.LASF65:
 10508 0535 414E494D 		.ascii	"ANIM_GREEN_INTENSITY\000"
 10508      5F475245 
 10508      454E5F49 
 10508      4E54454E 
 10508      53495459 
 10509              	.LASF64:
 10510 054a 414E494D 		.ascii	"ANIM_RED_INTENSITY\000"
 10510      5F524544 
ARM GAS  C:\Users\MM1005~1\AppData\Local\Temp\cc36bet7.s 			page 218


 10510      5F494E54 
 10510      454E5349 
 10510      545900
 10511              	.LASF175:
 10512 055d 6765745F 		.ascii	"get_is_sensor_telemetry_enable\000"
 10512      69735F73 
 10512      656E736F 
 10512      725F7465 
 10512      6C656D65 
 10513              	.LASF209:
 10514 057c 7665635F 		.ascii	"vec_tracker_commands\000"
 10514      74726163 
 10514      6B65725F 
 10514      636F6D6D 
 10514      616E6473 
 10515              	.LASF134:
 10516 0591 434D445F 		.ascii	"CMD_BOOT_EXIT\000"
 10516      424F4F54 
 10516      5F455849 
 10516      5400
 10517              	.LASF110:
 10518 059f 434D445F 		.ascii	"CMD_SENSOR_DISABLE\000"
 10518      53454E53 
 10518      4F525F44 
 10518      49534142 
 10518      4C4500
 10519              	.LASF194:
 10520 05b2 73656E73 		.ascii	"sensor_cmd_id\000"
 10520      6F725F63 
 10520      6D645F69 
 10520      6400
 10521              	.LASF177:
 10522 05c0 62757474 		.ascii	"button\000"
 10522      6F6E00
 10523              	.LASF93:
 10524 05c7 434D445F 		.ascii	"CMD_LED\000"
 10524      4C454400 
 10525              	.LASF165:
 10526 05cf 63617073 		.ascii	"capsense_id\000"
 10526      656E7365 
 10526      5F696400 
 10527              	.LASF102:
 10528 05db 434D445F 		.ascii	"CMD_ANIM_AUTO\000"
 10528      414E494D 
 10528      5F415554 
 10528      4F00
 10529              	.LASF66:
 10530 05e9 414E494D 		.ascii	"ANIM_BLUE_INTENSITY\000"
 10530      5F424C55 
 10530      455F494E 
 10530      54454E53 
 10530      49545900 
 10531              	.LASF43:
 10532 05fd 43617053 		.ascii	"CapSense_FLASH_WD_STRUCT\000"
 10532      656E7365 
 10532      5F464C41 
 10532      53485F57 
ARM GAS  C:\Users\MM1005~1\AppData\Local\Temp\cc36bet7.s 			page 219


 10532      445F5354 
 10533              	.LASF153:
 10534 0616 73656E64 		.ascii	"send_telemetry_capsense\000"
 10534      5F74656C 
 10534      656D6574 
 10534      72795F63 
 10534      61707365 
 10535              	.LASF184:
 10536 062e 6D61785F 		.ascii	"max_sensor\000"
 10536      73656E73 
 10536      6F7200
 10537              	.LASF130:
 10538 0639 434D445F 		.ascii	"CMD_LED_UNKNOWN\000"
 10538      4C45445F 
 10538      554E4B4E 
 10538      4F574E00 
 10539              	.LASF121:
 10540 0649 434D445F 		.ascii	"CMD_TRACKER_SET_BUTTON\000"
 10540      54524143 
 10540      4B45525F 
 10540      5345545F 
 10540      42555454 
 10541              	.LASF236:
 10542 0660 2E2E5C53 		.ascii	"..\\Slider.cydsn\\command_telemetry.c\000"
 10542      6C696465 
 10542      722E6379 
 10542      64736E5C 
 10542      636F6D6D 
 10543              	.LASF204:
 10544 0684 6C65645F 		.ascii	"led_vec\000"
 10544      76656300 
 10545              	.LASF39:
 10546 068c 746F7461 		.ascii	"totalNumSns\000"
 10546      6C4E756D 
 10546      536E7300 
 10547              	.LASF96:
 10548 0698 434D445F 		.ascii	"CMD_TELEMETRY\000"
 10548      54454C45 
 10548      4D455452 
 10548      5900
 10549              	.LASF26:
 10550 06a6 534D4152 		.ascii	"SMARTSENSE_CSD_NOISE_ENVELOPE_STRUCT\000"
 10550      5453454E 
 10550      53455F43 
 10550      53445F4E 
 10550      4F495345 
 10551              	.LASF136:
 10552 06cb 434D445F 		.ascii	"CMD_BOOT_UNKNOWN\000"
 10552      424F4F54 
 10552      5F554E4B 
 10552      4E4F574E 
 10552      00
 10553              	.LASF141:
 10554 06dc 745F7374 		.ascii	"t_struct_command\000"
 10554      72756374 
 10554      5F636F6D 
 10554      6D616E64 
ARM GAS  C:\Users\MM1005~1\AppData\Local\Temp\cc36bet7.s 			page 220


 10554      00
 10555              	.LASF193:
 10556 06ed 6C65645F 		.ascii	"led_cmd_id\000"
 10556      636D645F 
 10556      696400
 10557              	.LASF15:
 10558 06f8 63686172 		.ascii	"char\000"
 10558      00
 10559              	.LASF119:
 10560 06fd 434D445F 		.ascii	"CMD_TRACKER_ENABLE\000"
 10560      54524143 
 10560      4B45525F 
 10560      454E4142 
 10560      4C4500
 10561              	.LASF197:
 10562 0710 626F6F74 		.ascii	"boot_cmd_id\000"
 10562      5F636D64 
 10562      5F696400 
 10563              	.LASF123:
 10564 071c 745F656E 		.ascii	"t_enum_tracker_command\000"
 10564      756D5F74 
 10564      7261636B 
 10564      65725F63 
 10564      6F6D6D61 
 10565              	.LASF224:
 10566 0733 43617053 		.ascii	"CapSense_IsSensorActive\000"
 10566      656E7365 
 10566      5F497353 
 10566      656E736F 
 10566      72416374 
 10567              	.LASF11:
 10568 074b 75696E74 		.ascii	"uint16\000"
 10568      313600
 10569              	.LASF155:
 10570 0752 74656C65 		.ascii	"telemetry\000"
 10570      6D657472 
 10570      7900
 10571              	.LASF97:
 10572 075c 434D445F 		.ascii	"CMD_TRACKER\000"
 10572      54524143 
 10572      4B455200 
 10573              	.LASF237:
 10574 0768 433A5C77 		.ascii	"C:\\work\\Eddie\\Eddie_DP0_Slider\\Prof_DP0.cydsn\000"
 10574      6F726B5C 
 10574      45646469 
 10574      655C4564 
 10574      6469655F 
 10575              	.LASF228:
 10576 0796 7365745F 		.ascii	"set_current_callback_anim\000"
 10576      63757272 
 10576      656E745F 
 10576      63616C6C 
 10576      6261636B 
 10577              	.LASF61:
 10578 07b0 414E494D 		.ascii	"ANIM_LEFT_RIGHT\000"
 10578      5F4C4546 
 10578      545F5249 
ARM GAS  C:\Users\MM1005~1\AppData\Local\Temp\cc36bet7.s 			page 221


 10578      47485400 
 10579              	.LASF208:
 10580 07c0 7665635F 		.ascii	"vec_telemetry_commands\000"
 10580      74656C65 
 10580      6D657472 
 10580      795F636F 
 10580      6D6D616E 
 10581              	.LASF18:
 10582 07d7 43617053 		.ascii	"CapSense_LOW_BSLN_RST_TYPE\000"
 10582      656E7365 
 10582      5F4C4F57 
 10582      5F42534C 
 10582      4E5F5253 
 10583              	.LASF84:
 10584 07f2 414C4152 		.ascii	"ALARM_WARNING\000"
 10584      4D5F5741 
 10584      524E494E 
 10584      4700
 10585              	.LASF112:
 10586 0800 745F656E 		.ascii	"t_enum_sensor_command\000"
 10586      756D5F73 
 10586      656E736F 
 10586      725F636F 
 10586      6D6D616E 
 10587              	.LASF31:
 10588 0816 69646163 		.ascii	"idacComp\000"
 10588      436F6D70 
 10588      00
 10589              	.LASF170:
 10590 081f 666C6173 		.ascii	"flash_first_row\000"
 10590      685F6669 
 10590      7273745F 
 10590      726F7700 
 10591              	.LASF116:
 10592 082f 434D445F 		.ascii	"CMD_TELEMETRY_UNKNOWN\000"
 10592      54454C45 
 10592      4D455452 
 10592      595F554E 
 10592      4B4E4F57 
 10593              	.LASF6:
 10594 0845 6C6F6E67 		.ascii	"long long int\000"
 10594      206C6F6E 
 10594      6720696E 
 10594      7400
 10595              	.LASF41:
 10596 0853 6E756D43 		.ascii	"numCols\000"
 10596      6F6C7300 
 10597              	.LASF217:
 10598 085b 43617053 		.ascii	"CapSense_ISR_Enable\000"
 10598      656E7365 
 10598      5F495352 
 10598      5F456E61 
 10598      626C6500 
 10599              	.LASF79:
 10600 086f 64657363 		.ascii	"description\000"
 10600      72697074 
 10600      696F6E00 
ARM GAS  C:\Users\MM1005~1\AppData\Local\Temp\cc36bet7.s 			page 222


 10601              	.LASF137:
 10602 087b 745F656E 		.ascii	"t_enum_bootloader_command\000"
 10602      756D5F62 
 10602      6F6F746C 
 10602      6F616465 
 10602      725F636F 
 10603              	.LASF95:
 10604 0895 434D445F 		.ascii	"CMD_SENSOR\000"
 10604      53454E53 
 10604      4F5200
 10605              	.LASF72:
 10606 08a0 414E494D 		.ascii	"ANIM_FIX_WHITE\000"
 10606      5F464958 
 10606      5F574849 
 10606      544500
 10607              	.LASF135:
 10608 08af 434D445F 		.ascii	"CMD_BOOT_GET_FLASH_GEO\000"
 10608      424F4F54 
 10608      5F474554 
 10608      5F464C41 
 10608      53485F47 
 10609              	.LASF166:
 10610 08c6 62757474 		.ascii	"button_name\000"
 10610      6F6E5F6E 
 10610      616D6500 
 10611              	.LASF45:
 10612 08d2 43617053 		.ascii	"CapSense_FLASH_STRUCT\000"
 10612      656E7365 
 10612      5F464C41 
 10612      53485F53 
 10612      54525543 
 10613              	.LASF157:
 10614 08e8 73656E64 		.ascii	"send_alarm_telemetry\000"
 10614      5F616C61 
 10614      726D5F74 
 10614      656C656D 
 10614      65747279 
 10615              	.LASF149:
 10616 08fd 616E696D 		.ascii	"animation\000"
 10616      6174696F 
 10616      6E00
 10617              	.LASF111:
 10618 0907 434D445F 		.ascii	"CMD_SENSOR_UNKNOWN\000"
 10618      53454E53 
 10618      4F525F55 
 10618      4E4B4E4F 
 10618      574E00
 10619              	.LASF128:
 10620 091a 434D445F 		.ascii	"CMD_LED_SET_WHITE\000"
 10620      4C45445F 
 10620      5345545F 
 10620      57484954 
 10620      4500
 10621              	.LASF218:
 10622 092c 6D656D73 		.ascii	"memset\000"
 10622      657400
 10623              	.LASF50:
ARM GAS  C:\Users\MM1005~1\AppData\Local\Temp\cc36bet7.s 			page 223


 10624 0933 656E756D 		.ascii	"enum_direction\000"
 10624      5F646972 
 10624      65637469 
 10624      6F6E00
 10625              	.LASF48:
 10626 0942 44495245 		.ascii	"DIRECT_STOP\000"
 10626      43545F53 
 10626      544F5000 
 10627              	.LASF242:
 10628 094e 6765745F 		.ascii	"get_software_version\000"
 10628      736F6674 
 10628      77617265 
 10628      5F766572 
 10628      73696F6E 
 10629              	.LASF196:
 10630 0963 74726163 		.ascii	"tracker_cmd_id\000"
 10630      6B65725F 
 10630      636D645F 
 10630      696400
 10631              	.LASF214:
 10632 0972 6765745F 		.ascii	"get_animation\000"
 10632      616E696D 
 10632      6174696F 
 10632      6E00
 10633              	.LASF69:
 10634 0980 414E494D 		.ascii	"ANIM_BLUE_WHITE_INTENSITY\000"
 10634      5F424C55 
 10634      455F5748 
 10634      4954455F 
 10634      494E5445 
 10635              	.LASF12:
 10636 099a 75696E74 		.ascii	"uint32\000"
 10636      333200
 10637              	.LASF36:
 10638 09a1 70747232 		.ascii	"ptr2FltrHistory\000"
 10638      466C7472 
 10638      48697374 
 10638      6F727900 
 10639              	.LASF51:
 10640 09b1 656E756D 		.ascii	"enum_color_led_pos\000"
 10640      5F636F6C 
 10640      6F725F6C 
 10640      65645F70 
 10640      6F7300
 10641              	.LASF231:
 10642 09c4 7365745F 		.ascii	"set_led\000"
 10642      6C656400 
 10643              	.LASF191:
 10644 09cc 616E696D 		.ascii	"anim_cmd_id\000"
 10644      5F636D64 
 10644      5F696400 
 10645              	.LASF169:
 10646 09d8 666C6173 		.ascii	"flash_checksum\000"
 10646      685F6368 
 10646      65636B73 
 10646      756D00
 10647              	.LASF77:
ARM GAS  C:\Users\MM1005~1\AppData\Local\Temp\cc36bet7.s 			page 224


 10648 09e7 73746172 		.ascii	"started\000"
 10648      74656400 
 10649              	.LASF82:
 10650 09ef 414C4152 		.ascii	"ALARM_LOG\000"
 10650      4D5F4C4F 
 10650      4700
 10651              	.LASF120:
 10652 09f9 434D445F 		.ascii	"CMD_TRACKER_DISABLE\000"
 10652      54524143 
 10652      4B45525F 
 10652      44495341 
 10652      424C4500 
 10653              	.LASF183:
 10654 0a0d 7374725F 		.ascii	"str_direction\000"
 10654      64697265 
 10654      6374696F 
 10654      6E00
 10655              	.LASF200:
 10656 0a1b 67726565 		.ascii	"green\000"
 10656      6E00
 10657              	.LASF52:
 10658 0a21 455F4C45 		.ascii	"E_LED_RIGHT_RED\000"
 10658      445F5249 
 10658      4748545F 
 10658      52454400 
 10659              	.LASF161:
 10660 0a31 73656E64 		.ascii	"send_animation_telemetry\000"
 10660      5F616E69 
 10660      6D617469 
 10660      6F6E5F74 
 10660      656C656D 
 10661              	.LASF87:
 10662 0a4a 414C4152 		.ascii	"ALARM_UNKNOWN\000"
 10662      4D5F554E 
 10662      4B4E4F57 
 10662      4E00
 10663              	.LASF35:
 10664 0a58 70747232 		.ascii	"ptr2SnsRam\000"
 10664      536E7352 
 10664      616D00
 10665              	.LASF118:
 10666 0a63 656E756D 		.ascii	"enum_tracker_command\000"
 10666      5F747261 
 10666      636B6572 
 10666      5F636F6D 
 10666      6D616E64 
 10667              	.LASF70:
 10668 0a78 414E494D 		.ascii	"ANIM_COLORS_INTENSITY\000"
 10668      5F434F4C 
 10668      4F52535F 
 10668      494E5445 
 10668      4E534954 
 10669              	.LASF160:
 10670 0a8e 616C6172 		.ascii	"alarm_string\000"
 10670      6D5F7374 
 10670      72696E67 
 10670      00
ARM GAS  C:\Users\MM1005~1\AppData\Local\Temp\cc36bet7.s 			page 225


 10671              	.LASF212:
 10672 0a9b 69735F74 		.ascii	"is_telemetry_enable\000"
 10672      656C656D 
 10672      65747279 
 10672      5F656E61 
 10672      626C6500 
 10673              	.LASF199:
 10674 0aaf 6E657874 		.ascii	"next_param_str\000"
 10674      5F706172 
 10674      616D5F73 
 10674      747200
 10675              	.LASF154:
 10676 0abe 6765745F 		.ascii	"get_is_telemetry_enable\000"
 10676      69735F74 
 10676      656C656D 
 10676      65747279 
 10676      5F656E61 
 10677              	.LASF225:
 10678 0ad6 73747263 		.ascii	"strchr\000"
 10678      687200
 10679              	.LASF139:
 10680 0add 73747275 		.ascii	"struct_command\000"
 10680      63745F63 
 10680      6F6D6D61 
 10680      6E6400
 10681              	.LASF2:
 10682 0aec 73686F72 		.ascii	"short int\000"
 10682      7420696E 
 10682      7400
 10683              	.LASF182:
 10684 0af6 636C6F63 		.ascii	"clock_time\000"
 10684      6B5F7469 
 10684      6D6500
 10685              	.LASF90:
 10686 0b01 434D445F 		.ascii	"CMD_ANIMATION\000"
 10686      414E494D 
 10686      4154494F 
 10686      4E00
 10687              	.LASF4:
 10688 0b0f 6C6F6E67 		.ascii	"long int\000"
 10688      20696E74 
 10688      00
 10689              	.LASF132:
 10690 0b18 656E756D 		.ascii	"enum_bootloader_command\000"
 10690      5F626F6F 
 10690      746C6F61 
 10690      6465725F 
 10690      636F6D6D 
 10691              	.LASF223:
 10692 0b30 6765745F 		.ascii	"get_timer_interrrupt_count\000"
 10692      74696D65 
 10692      725F696E 
 10692      74657272 
 10692      72757074 
 10693              	.LASF29:
 10694 0b4b 64696666 		.ascii	"diff\000"
 10694      00
ARM GAS  C:\Users\MM1005~1\AppData\Local\Temp\cc36bet7.s 			page 226


 10695              	.LASF178:
 10696 0b50 66696E67 		.ascii	"finger_direct\000"
 10696      65725F64 
 10696      69726563 
 10696      7400
 10697              	.LASF162:
 10698 0b5e 616E696D 		.ascii	"animation_index\000"
 10698      6174696F 
 10698      6E5F696E 
 10698      64657800 
 10699              	.LASF172:
 10700 0b6e 666C6173 		.ascii	"flash_size\000"
 10700      685F7369 
 10700      7A6500
 10701              	.LASF81:
 10702 0b79 656E756D 		.ascii	"enum_alarm_type\000"
 10702      5F616C61 
 10702      726D5F74 
 10702      79706500 
 10703              	.LASF103:
 10704 0b89 434D445F 		.ascii	"CMD_ANIM_MANUAL\000"
 10704      414E494D 
 10704      5F4D414E 
 10704      55414C00 
 10705              	.LASF233:
 10706 0b99 7365745F 		.ascii	"set_is_tracker_enable\000"
 10706      69735F74 
 10706      7261636B 
 10706      65725F65 
 10706      6E61626C 
 10707              	.LASF59:
 10708 0baf 414E494D 		.ascii	"ANIM_BUTTON_SMOOTH_SLOW\000"
 10708      5F425554 
 10708      544F4E5F 
 10708      534D4F4F 
 10708      54485F53 
 10709              	.LASF68:
 10710 0bc7 414E494D 		.ascii	"ANIM_GREEN_WHITE_INTENSITY\000"
 10710      5F475245 
 10710      454E5F57 
 10710      48495445 
 10710      5F494E54 
 10711              	.LASF129:
 10712 0be2 434D445F 		.ascii	"CMD_LED_SET_STRIP\000"
 10712      4C45445F 
 10712      5345545F 
 10712      53545249 
 10712      5000
 10713              	.LASF201:
 10714 0bf4 626C7565 		.ascii	"blue\000"
 10714      00
 10715              	.LASF163:
 10716 0bf9 61637469 		.ascii	"action\000"
 10716      6F6E00
 10717              	.LASF106:
 10718 0c00 434D445F 		.ascii	"CMD_ANIM_UNKNOWN\000"
 10718      414E494D 
ARM GAS  C:\Users\MM1005~1\AppData\Local\Temp\cc36bet7.s 			page 227


 10718      5F554E4B 
 10718      4E4F574E 
 10718      00
 10719              	.LASF126:
 10720 0c11 434D445F 		.ascii	"CMD_LED_SET_COLOR_LEFT\000"
 10720      4C45445F 
 10720      5345545F 
 10720      434F4C4F 
 10720      525F4C45 
 10721              	.LASF94:
 10722 0c28 434D445F 		.ascii	"CMD_HELP\000"
 10722      48454C50 
 10722      00
 10723              	.LASF62:
 10724 0c31 414E494D 		.ascii	"ANIM_INTENSITY\000"
 10724      5F494E54 
 10724      454E5349 
 10724      545900
 10725              	.LASF159:
 10726 0c40 736F7572 		.ascii	"source\000"
 10726      636500
 10727              	.LASF98:
 10728 0c47 434D445F 		.ascii	"CMD_VERSION\000"
 10728      56455253 
 10728      494F4E00 
 10729              	.LASF140:
 10730 0c53 6E616D65 		.ascii	"name\000"
 10730      00
 10731              	.LASF238:
 10732 0c58 43617053 		.ascii	"CapSense_dsFlash\000"
 10732      656E7365 
 10732      5F647346 
 10732      6C617368 
 10732      00
 10733              	.LASF188:
 10734 0c69 70617273 		.ascii	"parse_and_execute_command\000"
 10734      655F616E 
 10734      645F6578 
 10734      65637574 
 10734      655F636F 
 10735              	.LASF167:
 10736 0c83 69735F62 		.ascii	"is_button_down\000"
 10736      7574746F 
 10736      6E5F646F 
 10736      776E00
 10737              	.LASF16:
 10738 0c92 73697A65 		.ascii	"sizetype\000"
 10738      74797065 
 10738      00
 10739              	.LASF5:
 10740 0c9b 6C6F6E67 		.ascii	"long unsigned int\000"
 10740      20756E73 
 10740      69676E65 
 10740      6420696E 
 10740      7400
 10741              	.LASF71:
 10742 0cad 414E494D 		.ascii	"ANIM_RAINBOW_COLORS\000"
ARM GAS  C:\Users\MM1005~1\AppData\Local\Temp\cc36bet7.s 			page 228


 10742      5F524149 
 10742      4E424F57 
 10742      5F434F4C 
 10742      4F525300 
 10743              	.LASF133:
 10744 0cc1 434D445F 		.ascii	"CMD_BOOT_START\000"
 10744      424F4F54 
 10744      5F535441 
 10744      525400
 10745              	.LASF171:
 10746 0cd0 666C6173 		.ascii	"flash_last_row\000"
 10746      685F6C61 
 10746      73745F72 
 10746      6F7700
 10747              	.LASF174:
 10748 0cdf 7468655F 		.ascii	"the_is_telemetry_enable\000"
 10748      69735F74 
 10748      656C656D 
 10748      65747279 
 10748      5F656E61 
 10749              	.LASF198:
 10750 0cf7 70617261 		.ascii	"param_str\000"
 10750      6D5F7374 
 10750      7200
 10751              	.LASF37:
 10752 0d01 70747232 		.ascii	"ptr2DebounceArr\000"
 10752      4465626F 
 10752      756E6365 
 10752      41727200 
 10753              	.LASF186:
 10754 0d11 7365745F 		.ascii	"set_is_sensor_telemetry_enable\000"
 10754      69735F73 
 10754      656E736F 
 10754      725F7465 
 10754      6C656D65 
 10755              	.LASF190:
 10756 0d30 636D645F 		.ascii	"cmd_id\000"
 10756      696400
 10757              	.LASF226:
 10758 0d37 7365745F 		.ascii	"set_is_auto_anim_rotation_enable\000"
 10758      69735F61 
 10758      75746F5F 
 10758      616E696D 
 10758      5F726F74 
 10759              	.LASF74:
 10760 0d58 745F656E 		.ascii	"t_enum_animation\000"
 10760      756D5F61 
 10760      6E696D61 
 10760      74696F6E 
 10760      00
 10761              	.LASF28:
 10762 0d69 62736C6E 		.ascii	"bslnExt\000"
 10762      45787400 
 10763              	.LASF229:
 10764 0d71 7365745F 		.ascii	"set_all_leds_intensity\000"
 10764      616C6C5F 
 10764      6C656473 
ARM GAS  C:\Users\MM1005~1\AppData\Local\Temp\cc36bet7.s 			page 229


 10764      5F696E74 
 10764      656E7369 
 10765              	.LASF151:
 10766 0d88 6765745F 		.ascii	"get_led_cmd_id_from_cmd_string\000"
 10766      6C65645F 
 10766      636D645F 
 10766      69645F66 
 10766      726F6D5F 
 10767              	.LASF1:
 10768 0da7 756E7369 		.ascii	"unsigned char\000"
 10768      676E6564 
 10768      20636861 
 10768      7200
 10769              	.LASF180:
 10770 0db5 70726576 		.ascii	"previous_raw_pos\000"
 10770      696F7573 
 10770      5F726177 
 10770      5F706F73 
 10770      00
 10771              	.LASF38:
 10772 0dc6 73746174 		.ascii	"staticConfig\000"
 10772      6963436F 
 10772      6E666967 
 10772      00
 10773              	.LASF113:
 10774 0dd3 656E756D 		.ascii	"enum_telemetry_command\000"
 10774      5F74656C 
 10774      656D6574 
 10774      72795F63 
 10774      6F6D6D61 
 10775              	.LASF203:
 10776 0dea 6C65645F 		.ascii	"led_intensity\000"
 10776      696E7465 
 10776      6E736974 
 10776      7900
 10777              	.LASF143:
 10778 0df8 6765745F 		.ascii	"get_sensor_cmd_id_from_cmd_string\000"
 10778      73656E73 
 10778      6F725F63 
 10778      6D645F69 
 10778      645F6672 
 10779              	.LASF222:
 10780 0e1a 69746F61 		.ascii	"itoa\000"
 10780      00
 10781              	.LASF34:
 10782 0e1f 70747232 		.ascii	"ptr2WdgtRam\000"
 10782      57646774 
 10782      52616D00 
 10783              	.LASF17:
 10784 0e2b 43617053 		.ascii	"CapSense_THRESHOLD_TYPE\000"
 10784      656E7365 
 10784      5F544852 
 10784      4553484F 
 10784      4C445F54 
 10785              	.LASF179:
 10786 0e43 61637475 		.ascii	"actual_raw_pos\000"
 10786      616C5F72 
ARM GAS  C:\Users\MM1005~1\AppData\Local\Temp\cc36bet7.s 			page 230


 10786      61775F70 
 10786      6F7300
 10787              	.LASF205:
 10788 0e52 7665635F 		.ascii	"vec_boot_commands\000"
 10788      626F6F74 
 10788      5F636F6D 
 10788      6D616E64 
 10788      7300
 10789              	.LASF210:
 10790 0e64 7665635F 		.ascii	"vec_led_commands\000"
 10790      6C65645F 
 10790      636F6D6D 
 10790      616E6473 
 10790      00
 10791              	.LASF54:
 10792 0e75 455F4C45 		.ascii	"E_LED_RIGHT_BLUE\000"
 10792      445F5249 
 10792      4748545F 
 10792      424C5545 
 10792      00
 10793              	.LASF78:
 10794 0e86 63616C6C 		.ascii	"callback\000"
 10794      6261636B 
 10794      00
 10795              	.LASF189:
 10796 0e8f 636D645F 		.ascii	"cmd_str_and_param\000"
 10796      7374725F 
 10796      616E645F 
 10796      70617261 
 10796      6D00
 10797              	.LASF176:
 10798 0ea1 73656E64 		.ascii	"send_button_telemetry\000"
 10798      5F627574 
 10798      746F6E5F 
 10798      74656C65 
 10798      6D657472 
 10799              	.LASF47:
 10800 0eb7 44495245 		.ascii	"DIRECT_RIGHT\000"
 10800      43545F52 
 10800      49474854 
 10800      00
 10801              	.LASF108:
 10802 0ec4 656E756D 		.ascii	"enum_sensor_command\000"
 10802      5F73656E 
 10802      736F725F 
 10802      636F6D6D 
 10802      616E6400 
 10803              	.LASF125:
 10804 0ed8 434D445F 		.ascii	"CMD_LED_CLEAR\000"
 10804      4C45445F 
 10804      434C4541 
 10804      5200
 10805              	.LASF148:
 10806 0ee6 6765745F 		.ascii	"get_anim_id_from_cmd_string\000"
 10806      616E696D 
 10806      5F69645F 
 10806      66726F6D 
ARM GAS  C:\Users\MM1005~1\AppData\Local\Temp\cc36bet7.s 			page 231


 10806      5F636D64 
 10807              	.LASF195:
 10808 0f02 74656C65 		.ascii	"telemetry_cmd_id\000"
 10808      6D657472 
 10808      795F636D 
 10808      645F6964 
 10808      00
 10809              	.LASF0:
 10810 0f13 7369676E 		.ascii	"signed char\000"
 10810      65642063 
 10810      68617200 
 10811              	.LASF27:
 10812 0f1f 62736C6E 		.ascii	"bsln\000"
 10812      00
 10813              	.LASF3:
 10814 0f24 73686F72 		.ascii	"short unsigned int\000"
 10814      7420756E 
 10814      7369676E 
 10814      65642069 
 10814      6E7400
 10815              	.LASF211:
 10816 0f37 7665635F 		.ascii	"vec_commands\000"
 10816      636F6D6D 
 10816      616E6473 
 10816      00
 10817              	.LASF221:
 10818 0f44 6D656D63 		.ascii	"memcpy\000"
 10818      707900
 10819              	.LASF230:
 10820 0f4b 61746F69 		.ascii	"atoi\000"
 10820      00
 10821              	.LASF33:
 10822 0f50 70747232 		.ascii	"ptr2SnsFlash\000"
 10822      536E7346 
 10822      6C617368 
 10822      00
 10823              	.LASF10:
 10824 0f5d 75696E74 		.ascii	"uint8\000"
 10824      3800
 10825              	.LASF14:
 10826 0f63 646F7562 		.ascii	"double\000"
 10826      6C6500
 10827              	.LASF30:
 10828 0f6a 6E656742 		.ascii	"negBslnRstCnt\000"
 10828      736C6E52 
 10828      7374436E 
 10828      7400
 10829              	.LASF241:
 10830 0f78 54696D65 		.ascii	"Timer_1_ReadCounter\000"
 10830      725F315F 
 10830      52656164 
 10830      436F756E 
 10830      74657200 
 10831              	.LASF19:
 10832 0f8c 70617261 		.ascii	"param0\000"
 10832      6D3000
 10833              	.LASF20:
ARM GAS  C:\Users\MM1005~1\AppData\Local\Temp\cc36bet7.s 			page 232


 10834 0f93 70617261 		.ascii	"param1\000"
 10834      6D3100
 10835              	.LASF21:
 10836 0f9a 70617261 		.ascii	"param2\000"
 10836      6D3200
 10837              	.LASF22:
 10838 0fa1 70617261 		.ascii	"param3\000"
 10838      6D3300
 10839              	.LASF23:
 10840 0fa8 70617261 		.ascii	"param4\000"
 10840      6D3400
 10841              	.LASF24:
 10842 0faf 70617261 		.ascii	"param5\000"
 10842      6D3500
 10843              	.LASF25:
 10844 0fb6 70617261 		.ascii	"param6\000"
 10844      6D3600
 10845              	.LASF145:
 10846 0fbd 6765745F 		.ascii	"get_telemetry_cmd_id_from_cmd_string\000"
 10846      74656C65 
 10846      6D657472 
 10846      795F636D 
 10846      645F6964 
 10847              	.LASF63:
 10848 0fe2 414E494D 		.ascii	"ANIM_2_LEDS\000"
 10848      5F325F4C 
 10848      45445300 
 10849              	.LASF46:
 10850 0fee 44495245 		.ascii	"DIRECT_LEFT\000"
 10850      43545F4C 
 10850      45465400 
 10851              	.LASF152:
 10852 0ffa 73656E64 		.ascii	"send_bootloader_config_telemetry\000"
 10852      5F626F6F 
 10852      746C6F61 
 10852      6465725F 
 10852      636F6E66 
 10853              	.LASF215:
 10854 101b 436F6D6D 		.ascii	"CommsSendData\000"
 10854      7353656E 
 10854      64446174 
 10854      6100
 10855              	.LASF44:
 10856 1029 77646774 		.ascii	"wdgtArray\000"
 10856      41727261 
 10856      7900
 10857              		.ident	"GCC: (GNU Tools for ARM Embedded Processors) 4.9.3 20150303 (release) [ARM/embedded-4_9-br
