ARM GAS  C:\Users\MM1005~1\AppData\Local\Temp\cc36bet7.s 			page 1


   1              		.cpu cortex-m0plus
   2              		.fpu softvfp
   3              		.eabi_attribute 20, 1
   4              		.eabi_attribute 21, 1
   5              		.eabi_attribute 23, 3
   6              		.eabi_attribute 24, 1
   7              		.eabi_attribute 25, 1
   8              		.eabi_attribute 26, 1
   9              		.eabi_attribute 30, 1
  10              		.eabi_attribute 34, 0
  11              		.eabi_attribute 18, 4
  12              		.code	16
  13              		.file	"command_telemetry.c"
  14              		.text
  15              	.Ltext0:
  16              		.cfi_sections	.debug_frame
  17              		.section	.text.get_cmd_id_from_cmd_string,"ax",%progbits
  18              		.align	2
  19              		.global	get_cmd_id_from_cmd_string
  20              		.code	16
  21              		.thumb_func
  22              		.type	get_cmd_id_from_cmd_string, %function
  23              	get_cmd_id_from_cmd_string:
  24              	.LFB35:
  25              		.file 1 "..\\Slider.cydsn\\command_telemetry.c"
   1:..\Slider.cydsn/command_telemetry.c **** /* ========================================
   2:..\Slider.cydsn/command_telemetry.c ****  *
   3:..\Slider.cydsn/command_telemetry.c ****  * Copyright YOUR COMPANY, THE YEAR
   4:..\Slider.cydsn/command_telemetry.c ****  * All Rights Reserved
   5:..\Slider.cydsn/command_telemetry.c ****  * UNPUBLISHED, LICENSED SOFTWARE.
   6:..\Slider.cydsn/command_telemetry.c ****  *
   7:..\Slider.cydsn/command_telemetry.c ****  * CONFIDENTIAL AND PROPRIETARY INFORMATION
   8:..\Slider.cydsn/command_telemetry.c ****  * WHICH IS THE PROPERTY OF your company.
   9:..\Slider.cydsn/command_telemetry.c ****  *
  10:..\Slider.cydsn/command_telemetry.c ****  * ========================================
  11:..\Slider.cydsn/command_telemetry.c **** */
  12:..\Slider.cydsn/command_telemetry.c **** #include "command_telemetry.h"
  13:..\Slider.cydsn/command_telemetry.c **** #include "comms.h"
  14:..\Slider.cydsn/command_telemetry.c **** 
  15:..\Slider.cydsn/command_telemetry.c **** //=============================================================================
  16:..\Slider.cydsn/command_telemetry.c **** //============================================================ static variables
  17:..\Slider.cydsn/command_telemetry.c **** //=============================================================================
  18:..\Slider.cydsn/command_telemetry.c **** static t_struct_command vec_boot_commands[CMD_BOOT_UNKNOWN]           = {{CMD_BOOT_START         , 
  19:..\Slider.cydsn/command_telemetry.c ****                                                                          {CMD_BOOT_EXIT          , 
  20:..\Slider.cydsn/command_telemetry.c ****                                                                          {CMD_BOOT_GET_FLASH_GEO , 
  21:..\Slider.cydsn/command_telemetry.c **** static t_struct_command vec_anim_commands[CMD_ANIM_UNKNOWN]           = {{CMD_ANIM_AUTO          , 
  22:..\Slider.cydsn/command_telemetry.c ****                                                                          {CMD_ANIM_MANUAL        , 
  23:..\Slider.cydsn/command_telemetry.c ****                                                                          {CMD_ANIM_STOP          , 
  24:..\Slider.cydsn/command_telemetry.c ****                                                                          {CMD_ANIM_RESUME        , 
  25:..\Slider.cydsn/command_telemetry.c **** static t_struct_command vec_sensor_commands[CMD_SENSOR_UNKNOWN]       = {{CMD_SENSOR_DISABLE     , 
  26:..\Slider.cydsn/command_telemetry.c ****                                                                          {CMD_SENSOR_ENABLE      , 
  27:..\Slider.cydsn/command_telemetry.c **** static t_struct_command vec_telemetry_commands[CMD_TELEMETRY_UNKNOWN] = {{CMD_TELEMETRY_DISABLE  , 
  28:..\Slider.cydsn/command_telemetry.c ****                                                                          {CMD_TELEMETRY_ENABLE   , 
  29:..\Slider.cydsn/command_telemetry.c **** static t_struct_command vec_tracker_commands[CMD_TRACKER_UNKNOWN]     = {{CMD_TRACKER_DISABLE    , 
  30:..\Slider.cydsn/command_telemetry.c ****                                                                          {CMD_TRACKER_ENABLE     , 
  31:..\Slider.cydsn/command_telemetry.c ****                                                                          {CMD_TRACKER_SET_BUTTON , 
  32:..\Slider.cydsn/command_telemetry.c **** static t_struct_command vec_led_commands[CMD_LED_UNKNOWN]             = {{CMD_LED_CLEAR          , 
ARM GAS  C:\Users\MM1005~1\AppData\Local\Temp\cc36bet7.s 			page 2


  33:..\Slider.cydsn/command_telemetry.c ****                                                                          {CMD_LED_SET_COLOR_LEFT , 
  34:..\Slider.cydsn/command_telemetry.c ****                                                                          {CMD_LED_SET_COLOR_RIGHT, 
  35:..\Slider.cydsn/command_telemetry.c ****                                                                          {CMD_LED_SET_WHITE      , 
  36:..\Slider.cydsn/command_telemetry.c ****                                                                          {CMD_LED_SET_STRIP      , 
  37:..\Slider.cydsn/command_telemetry.c **** static t_struct_command vec_commands[CMD_UNKNOWN]                     = {{CMD_ANIMATION          , 
  38:..\Slider.cydsn/command_telemetry.c ****                                                                          {CMD_BOOTLOADER         , 
  39:..\Slider.cydsn/command_telemetry.c ****                                                                          {CMD_CAPSENSE           , 
  40:..\Slider.cydsn/command_telemetry.c ****                                                                          {CMD_HELP               , 
  41:..\Slider.cydsn/command_telemetry.c ****                                                                          {CMD_LED                , 
  42:..\Slider.cydsn/command_telemetry.c ****                                                                          {CMD_SENSOR             , 
  43:..\Slider.cydsn/command_telemetry.c ****                                                                          {CMD_TELEMETRY          , 
  44:..\Slider.cydsn/command_telemetry.c ****                                                                          {CMD_TRACKER            , 
  45:..\Slider.cydsn/command_telemetry.c ****                                                                          {CMD_VERSION            , 
  46:..\Slider.cydsn/command_telemetry.c **** 
  47:..\Slider.cydsn/command_telemetry.c **** static BOOL is_telemetry_enable        = FALSE; // enable/disable the telemetry
  48:..\Slider.cydsn/command_telemetry.c **** static BOOL is_sensor_telemetry_enable = FALSE; // when enable: send the sensors status on each cap
  49:..\Slider.cydsn/command_telemetry.c **** static char telemetry[512];
  50:..\Slider.cydsn/command_telemetry.c **** 
  51:..\Slider.cydsn/command_telemetry.c **** //=============================================================================
  52:..\Slider.cydsn/command_telemetry.c **** //========================================================= function prototypes
  53:..\Slider.cydsn/command_telemetry.c **** //=============================================================================
  54:..\Slider.cydsn/command_telemetry.c **** t_enum_command            get_cmd_id_from_cmd_string          (const char* command_str);
  55:..\Slider.cydsn/command_telemetry.c **** t_enum_anim_command       get_anim_cmd_id_from_cmd_string     (const char* cmd_str);
  56:..\Slider.cydsn/command_telemetry.c **** t_enum_animation          get_anim_id_from_cmd_string         (const char* cmd_str);
  57:..\Slider.cydsn/command_telemetry.c **** t_enum_sensor_command     get_sensor_cmd_id_from_cmd_string   (const char* cmd_str);
  58:..\Slider.cydsn/command_telemetry.c **** t_enum_telemetry_command  get_telemetry_cmd_id_from_cmd_string(const char* cmd_str);
  59:..\Slider.cydsn/command_telemetry.c **** t_enum_tracker_command    get_tracker_cmd_id_from_cmd_string  (const char* cmd_str);
  60:..\Slider.cydsn/command_telemetry.c **** t_enum_led_command        get_led_cmd_id_from_cmd_string      (const char* cmd_str);
  61:..\Slider.cydsn/command_telemetry.c **** t_enum_bootloader_command get_boot_cmd_id_from_cmd_string     (const char* cmd_str);
  62:..\Slider.cydsn/command_telemetry.c **** 
  63:..\Slider.cydsn/command_telemetry.c **** //=============================================================================
  64:..\Slider.cydsn/command_telemetry.c **** //================================================== get_cmd_id_from_cmd_string
  65:..\Slider.cydsn/command_telemetry.c **** //=============================================================================
  66:..\Slider.cydsn/command_telemetry.c **** t_enum_command get_cmd_id_from_cmd_string(const char* cmd_str)
  67:..\Slider.cydsn/command_telemetry.c **** {
  26              		.loc 1 67 0
  27              		.cfi_startproc
  28              	.LVL0:
  29 0000 38B5     		push	{r3, r4, r5, lr}
  30              		.cfi_def_cfa_offset 16
  31              		.cfi_offset 3, -16
  32              		.cfi_offset 4, -12
  33              		.cfi_offset 5, -8
  34              		.cfi_offset 14, -4
  35 0002 041C     		mov	r4, r0
  36              	.LVL1:
  68:..\Slider.cydsn/command_telemetry.c ****     int i;
  69:..\Slider.cydsn/command_telemetry.c ****     
  70:..\Slider.cydsn/command_telemetry.c ****     for (i = 0; i < CMD_UNKNOWN; i++)
  37              		.loc 1 70 0
  38 0004 0025     		mov	r5, #0
  39 0006 11E0     		b	.L2
  40              	.LVL2:
  41              	.L5:
  71:..\Slider.cydsn/command_telemetry.c ****     {
  72:..\Slider.cydsn/command_telemetry.c ****         if (strstr(cmd_str, vec_commands[i].name))
  42              		.loc 1 72 0
ARM GAS  C:\Users\MM1005~1\AppData\Local\Temp\cc36bet7.s 			page 3


  43 0008 6B00     		lsl	r3, r5, #1
  44 000a 5B19     		add	r3, r3, r5
  45 000c 9B00     		lsl	r3, r3, #2
  46 000e 094A     		ldr	r2, .L6
  47 0010 D318     		add	r3, r2, r3
  48 0012 5968     		ldr	r1, [r3, #4]
  49 0014 201C     		mov	r0, r4
  50 0016 FFF7FEFF 		bl	strstr
  51              	.LVL3:
  52 001a 0028     		cmp	r0, #0
  53 001c 05D0     		beq	.L3
  73:..\Slider.cydsn/command_telemetry.c ****         {
  74:..\Slider.cydsn/command_telemetry.c ****             return vec_commands[i].id;
  54              		.loc 1 74 0
  55 001e 6B00     		lsl	r3, r5, #1
  56 0020 5D19     		add	r5, r3, r5
  57              	.LVL4:
  58 0022 AD00     		lsl	r5, r5, #2
  59 0024 034B     		ldr	r3, .L6
  60 0026 585D     		ldrb	r0, [r3, r5]
  61 0028 03E0     		b	.L4
  62              	.LVL5:
  63              	.L3:
  70:..\Slider.cydsn/command_telemetry.c ****     {
  64              		.loc 1 70 0 discriminator 2
  65 002a 0135     		add	r5, r5, #1
  66              	.LVL6:
  67              	.L2:
  70:..\Slider.cydsn/command_telemetry.c ****     {
  68              		.loc 1 70 0 is_stmt 0 discriminator 1
  69 002c 082D     		cmp	r5, #8
  70 002e EBDD     		ble	.L5
  75:..\Slider.cydsn/command_telemetry.c ****         }
  76:..\Slider.cydsn/command_telemetry.c ****     }// for all the commands
  77:..\Slider.cydsn/command_telemetry.c ****     
  78:..\Slider.cydsn/command_telemetry.c ****     return CMD_UNKNOWN;
  71              		.loc 1 78 0 is_stmt 1
  72 0030 0920     		mov	r0, #9
  73              	.LVL7:
  74              	.L4:
  79:..\Slider.cydsn/command_telemetry.c **** }// get_cmd_id_from_cmd_string
  75              		.loc 1 79 0
  76              		@ sp needed
  77              	.LVL8:
  78 0032 38BD     		pop	{r3, r4, r5, pc}
  79              	.L7:
  80              		.align	2
  81              	.L6:
  82 0034 38000000 		.word	.LANCHOR0
  83              		.cfi_endproc
  84              	.LFE35:
  85              		.size	get_cmd_id_from_cmd_string, .-get_cmd_id_from_cmd_string
  86              		.section	.text.get_sensor_cmd_id_from_cmd_string,"ax",%progbits
  87              		.align	2
  88              		.global	get_sensor_cmd_id_from_cmd_string
  89              		.code	16
  90              		.thumb_func
ARM GAS  C:\Users\MM1005~1\AppData\Local\Temp\cc36bet7.s 			page 4


  91              		.type	get_sensor_cmd_id_from_cmd_string, %function
  92              	get_sensor_cmd_id_from_cmd_string:
  93              	.LFB36:
  80:..\Slider.cydsn/command_telemetry.c **** 
  81:..\Slider.cydsn/command_telemetry.c **** //=============================================================================
  82:..\Slider.cydsn/command_telemetry.c **** //=========================================== get_sensor_cmd_id_from_cmd_string
  83:..\Slider.cydsn/command_telemetry.c **** //=============================================================================
  84:..\Slider.cydsn/command_telemetry.c **** t_enum_sensor_command get_sensor_cmd_id_from_cmd_string (const char* cmd_str)
  85:..\Slider.cydsn/command_telemetry.c **** {
  94              		.loc 1 85 0
  95              		.cfi_startproc
  96              	.LVL9:
  97 0000 38B5     		push	{r3, r4, r5, lr}
  98              		.cfi_def_cfa_offset 16
  99              		.cfi_offset 3, -16
 100              		.cfi_offset 4, -12
 101              		.cfi_offset 5, -8
 102              		.cfi_offset 14, -4
 103 0002 041C     		mov	r4, r0
 104              	.LVL10:
  86:..\Slider.cydsn/command_telemetry.c ****     int i;
  87:..\Slider.cydsn/command_telemetry.c ****     
  88:..\Slider.cydsn/command_telemetry.c ****     for (i = 0; i < CMD_SENSOR_UNKNOWN; i++)
 105              		.loc 1 88 0
 106 0004 0025     		mov	r5, #0
 107 0006 13E0     		b	.L9
 108              	.LVL11:
 109              	.L12:
  89:..\Slider.cydsn/command_telemetry.c ****     {
  90:..\Slider.cydsn/command_telemetry.c ****         if (strstr(cmd_str, vec_sensor_commands[i].name))
 110              		.loc 1 90 0
 111 0008 6B00     		lsl	r3, r5, #1
 112 000a 5B19     		add	r3, r3, r5
 113 000c 9B00     		lsl	r3, r3, #2
 114 000e 0A4A     		ldr	r2, .L13
 115 0010 D318     		add	r3, r2, r3
 116 0012 196F     		ldr	r1, [r3, #112]
 117 0014 201C     		mov	r0, r4
 118 0016 FFF7FEFF 		bl	strstr
 119              	.LVL12:
 120 001a 0028     		cmp	r0, #0
 121 001c 07D0     		beq	.L10
  91:..\Slider.cydsn/command_telemetry.c ****         {
  92:..\Slider.cydsn/command_telemetry.c ****             return vec_sensor_commands[i].id;
 122              		.loc 1 92 0
 123 001e 6B00     		lsl	r3, r5, #1
 124 0020 5D19     		add	r5, r3, r5
 125              	.LVL13:
 126 0022 AD00     		lsl	r5, r5, #2
 127 0024 044B     		ldr	r3, .L13
 128 0026 5D19     		add	r5, r3, r5
 129 0028 6C23     		mov	r3, #108
 130 002a E85C     		ldrb	r0, [r5, r3]
 131 002c 03E0     		b	.L11
 132              	.LVL14:
 133              	.L10:
  88:..\Slider.cydsn/command_telemetry.c ****     {
ARM GAS  C:\Users\MM1005~1\AppData\Local\Temp\cc36bet7.s 			page 5


 134              		.loc 1 88 0 discriminator 2
 135 002e 0135     		add	r5, r5, #1
 136              	.LVL15:
 137              	.L9:
  88:..\Slider.cydsn/command_telemetry.c ****     {
 138              		.loc 1 88 0 is_stmt 0 discriminator 1
 139 0030 012D     		cmp	r5, #1
 140 0032 E9DD     		ble	.L12
  93:..\Slider.cydsn/command_telemetry.c ****         }
  94:..\Slider.cydsn/command_telemetry.c ****     }// for all the commands
  95:..\Slider.cydsn/command_telemetry.c ****     
  96:..\Slider.cydsn/command_telemetry.c ****     return CMD_SENSOR_UNKNOWN;
 141              		.loc 1 96 0 is_stmt 1
 142 0034 0220     		mov	r0, #2
 143              	.LVL16:
 144              	.L11:
  97:..\Slider.cydsn/command_telemetry.c **** }// get_sensor_cmd_id_from_cmd_string
 145              		.loc 1 97 0
 146              		@ sp needed
 147              	.LVL17:
 148 0036 38BD     		pop	{r3, r4, r5, pc}
 149              	.L14:
 150              		.align	2
 151              	.L13:
 152 0038 38000000 		.word	.LANCHOR0
 153              		.cfi_endproc
 154              	.LFE36:
 155              		.size	get_sensor_cmd_id_from_cmd_string, .-get_sensor_cmd_id_from_cmd_string
 156              		.section	.text.get_telemetry_cmd_id_from_cmd_string,"ax",%progbits
 157              		.align	2
 158              		.global	get_telemetry_cmd_id_from_cmd_string
 159              		.code	16
 160              		.thumb_func
 161              		.type	get_telemetry_cmd_id_from_cmd_string, %function
 162              	get_telemetry_cmd_id_from_cmd_string:
 163              	.LFB37:
  98:..\Slider.cydsn/command_telemetry.c **** 
  99:..\Slider.cydsn/command_telemetry.c **** //=============================================================================
 100:..\Slider.cydsn/command_telemetry.c **** //======================================== get_telemetry_cmd_id_from_cmd_string
 101:..\Slider.cydsn/command_telemetry.c **** //=============================================================================
 102:..\Slider.cydsn/command_telemetry.c **** t_enum_telemetry_command get_telemetry_cmd_id_from_cmd_string (const char* cmd_str)
 103:..\Slider.cydsn/command_telemetry.c **** {
 164              		.loc 1 103 0
 165              		.cfi_startproc
 166              	.LVL18:
 167 0000 38B5     		push	{r3, r4, r5, lr}
 168              		.cfi_def_cfa_offset 16
 169              		.cfi_offset 3, -16
 170              		.cfi_offset 4, -12
 171              		.cfi_offset 5, -8
 172              		.cfi_offset 14, -4
 173 0002 041C     		mov	r4, r0
 174              	.LVL19:
 104:..\Slider.cydsn/command_telemetry.c ****     int i;
 105:..\Slider.cydsn/command_telemetry.c ****     
 106:..\Slider.cydsn/command_telemetry.c ****     for (i = 0; i < CMD_TELEMETRY_UNKNOWN; i++)
 175              		.loc 1 106 0
ARM GAS  C:\Users\MM1005~1\AppData\Local\Temp\cc36bet7.s 			page 6


 176 0004 0025     		mov	r5, #0
 177 0006 12E0     		b	.L16
 178              	.LVL20:
 179              	.L19:
 107:..\Slider.cydsn/command_telemetry.c ****     {
 108:..\Slider.cydsn/command_telemetry.c ****         if (strstr(cmd_str, vec_telemetry_commands[i].name))
 180              		.loc 1 108 0
 181 0008 6B00     		lsl	r3, r5, #1
 182 000a 5B19     		add	r3, r3, r5
 183 000c 9B00     		lsl	r3, r3, #2
 184 000e 0A4A     		ldr	r2, .L20
 185 0010 D318     		add	r3, r2, r3
 186 0012 9968     		ldr	r1, [r3, #8]
 187 0014 201C     		mov	r0, r4
 188 0016 FFF7FEFF 		bl	strstr
 189              	.LVL21:
 190 001a 0028     		cmp	r0, #0
 191 001c 06D0     		beq	.L17
 109:..\Slider.cydsn/command_telemetry.c ****         {
 110:..\Slider.cydsn/command_telemetry.c ****             return vec_telemetry_commands[i].id;
 192              		.loc 1 110 0
 193 001e 6B00     		lsl	r3, r5, #1
 194 0020 5D19     		add	r5, r3, r5
 195              	.LVL22:
 196 0022 AD00     		lsl	r5, r5, #2
 197 0024 044B     		ldr	r3, .L20
 198 0026 5D19     		add	r5, r3, r5
 199 0028 2879     		ldrb	r0, [r5, #4]
 200 002a 03E0     		b	.L18
 201              	.LVL23:
 202              	.L17:
 106:..\Slider.cydsn/command_telemetry.c ****     {
 203              		.loc 1 106 0 discriminator 2
 204 002c 0135     		add	r5, r5, #1
 205              	.LVL24:
 206              	.L16:
 106:..\Slider.cydsn/command_telemetry.c ****     {
 207              		.loc 1 106 0 is_stmt 0 discriminator 1
 208 002e 012D     		cmp	r5, #1
 209 0030 EADD     		ble	.L19
 111:..\Slider.cydsn/command_telemetry.c ****         }
 112:..\Slider.cydsn/command_telemetry.c ****     }// for all the commands
 113:..\Slider.cydsn/command_telemetry.c ****     
 114:..\Slider.cydsn/command_telemetry.c ****     return CMD_TELEMETRY_UNKNOWN;
 210              		.loc 1 114 0 is_stmt 1
 211 0032 0220     		mov	r0, #2
 212              	.LVL25:
 213              	.L18:
 115:..\Slider.cydsn/command_telemetry.c **** }// get_telemetry_cmd_id_from_cmd_string
 214              		.loc 1 115 0
 215              		@ sp needed
 216              	.LVL26:
 217 0034 38BD     		pop	{r3, r4, r5, pc}
 218              	.L21:
 219 0036 C046     		.align	2
 220              	.L20:
 221 0038 B8000000 		.word	.LANCHOR1
ARM GAS  C:\Users\MM1005~1\AppData\Local\Temp\cc36bet7.s 			page 7


 222              		.cfi_endproc
 223              	.LFE37:
 224              		.size	get_telemetry_cmd_id_from_cmd_string, .-get_telemetry_cmd_id_from_cmd_string
 225              		.section	.text.get_tracker_cmd_id_from_cmd_string,"ax",%progbits
 226              		.align	2
 227              		.global	get_tracker_cmd_id_from_cmd_string
 228              		.code	16
 229              		.thumb_func
 230              		.type	get_tracker_cmd_id_from_cmd_string, %function
 231              	get_tracker_cmd_id_from_cmd_string:
 232              	.LFB38:
 116:..\Slider.cydsn/command_telemetry.c **** 
 117:..\Slider.cydsn/command_telemetry.c **** //=============================================================================
 118:..\Slider.cydsn/command_telemetry.c **** //========================================== get_tracker_cmd_id_from_cmd_string
 119:..\Slider.cydsn/command_telemetry.c **** //=============================================================================
 120:..\Slider.cydsn/command_telemetry.c **** t_enum_tracker_command get_tracker_cmd_id_from_cmd_string(const char* cmd_str)
 121:..\Slider.cydsn/command_telemetry.c **** {
 233              		.loc 1 121 0
 234              		.cfi_startproc
 235              	.LVL27:
 236 0000 38B5     		push	{r3, r4, r5, lr}
 237              		.cfi_def_cfa_offset 16
 238              		.cfi_offset 3, -16
 239              		.cfi_offset 4, -12
 240              		.cfi_offset 5, -8
 241              		.cfi_offset 14, -4
 242 0002 041C     		mov	r4, r0
 243              	.LVL28:
 122:..\Slider.cydsn/command_telemetry.c ****     int i;
 123:..\Slider.cydsn/command_telemetry.c ****     
 124:..\Slider.cydsn/command_telemetry.c ****     for (i = 0; i < CMD_TRACKER_UNKNOWN; i++)
 244              		.loc 1 124 0
 245 0004 0025     		mov	r5, #0
 246 0006 12E0     		b	.L23
 247              	.LVL29:
 248              	.L26:
 125:..\Slider.cydsn/command_telemetry.c ****     {
 126:..\Slider.cydsn/command_telemetry.c ****         if (strstr(cmd_str, vec_tracker_commands[i].name))
 249              		.loc 1 126 0
 250 0008 6B00     		lsl	r3, r5, #1
 251 000a 5B19     		add	r3, r3, r5
 252 000c 9B00     		lsl	r3, r3, #2
 253 000e 0A4A     		ldr	r2, .L27
 254 0010 D318     		add	r3, r2, r3
 255 0012 196A     		ldr	r1, [r3, #32]
 256 0014 201C     		mov	r0, r4
 257 0016 FFF7FEFF 		bl	strstr
 258              	.LVL30:
 259 001a 0028     		cmp	r0, #0
 260 001c 06D0     		beq	.L24
 127:..\Slider.cydsn/command_telemetry.c ****         {
 128:..\Slider.cydsn/command_telemetry.c ****             return vec_tracker_commands[i].id;
 261              		.loc 1 128 0
 262 001e 6B00     		lsl	r3, r5, #1
 263 0020 5D19     		add	r5, r3, r5
 264              	.LVL31:
 265 0022 AD00     		lsl	r5, r5, #2
ARM GAS  C:\Users\MM1005~1\AppData\Local\Temp\cc36bet7.s 			page 8


 266 0024 044B     		ldr	r3, .L27
 267 0026 5D19     		add	r5, r3, r5
 268 0028 287F     		ldrb	r0, [r5, #28]
 269 002a 03E0     		b	.L25
 270              	.LVL32:
 271              	.L24:
 124:..\Slider.cydsn/command_telemetry.c ****     {
 272              		.loc 1 124 0 discriminator 2
 273 002c 0135     		add	r5, r5, #1
 274              	.LVL33:
 275              	.L23:
 124:..\Slider.cydsn/command_telemetry.c ****     {
 276              		.loc 1 124 0 is_stmt 0 discriminator 1
 277 002e 022D     		cmp	r5, #2
 278 0030 EADD     		ble	.L26
 129:..\Slider.cydsn/command_telemetry.c ****         }
 130:..\Slider.cydsn/command_telemetry.c ****     }// for all the commands
 131:..\Slider.cydsn/command_telemetry.c ****     
 132:..\Slider.cydsn/command_telemetry.c ****     return CMD_TRACKER_UNKNOWN;
 279              		.loc 1 132 0 is_stmt 1
 280 0032 0320     		mov	r0, #3
 281              	.LVL34:
 282              	.L25:
 133:..\Slider.cydsn/command_telemetry.c **** }// get_anim_cmd_id_from_cmd_string
 283              		.loc 1 133 0
 284              		@ sp needed
 285              	.LVL35:
 286 0034 38BD     		pop	{r3, r4, r5, pc}
 287              	.L28:
 288 0036 C046     		.align	2
 289              	.L27:
 290 0038 B8000000 		.word	.LANCHOR1
 291              		.cfi_endproc
 292              	.LFE38:
 293              		.size	get_tracker_cmd_id_from_cmd_string, .-get_tracker_cmd_id_from_cmd_string
 294              		.section	.text.get_anim_cmd_id_from_cmd_string,"ax",%progbits
 295              		.align	2
 296              		.global	get_anim_cmd_id_from_cmd_string
 297              		.code	16
 298              		.thumb_func
 299              		.type	get_anim_cmd_id_from_cmd_string, %function
 300              	get_anim_cmd_id_from_cmd_string:
 301              	.LFB39:
 134:..\Slider.cydsn/command_telemetry.c **** 
 135:..\Slider.cydsn/command_telemetry.c **** //=============================================================================
 136:..\Slider.cydsn/command_telemetry.c **** //============================================= get_anim_cmd_id_from_cmd_string
 137:..\Slider.cydsn/command_telemetry.c **** //=============================================================================
 138:..\Slider.cydsn/command_telemetry.c **** t_enum_anim_command get_anim_cmd_id_from_cmd_string(const char* cmd_str)
 139:..\Slider.cydsn/command_telemetry.c **** {
 302              		.loc 1 139 0
 303              		.cfi_startproc
 304              	.LVL36:
 305 0000 38B5     		push	{r3, r4, r5, lr}
 306              		.cfi_def_cfa_offset 16
 307              		.cfi_offset 3, -16
 308              		.cfi_offset 4, -12
 309              		.cfi_offset 5, -8
ARM GAS  C:\Users\MM1005~1\AppData\Local\Temp\cc36bet7.s 			page 9


 310              		.cfi_offset 14, -4
 311 0002 041C     		mov	r4, r0
 312              	.LVL37:
 140:..\Slider.cydsn/command_telemetry.c ****     int i;
 141:..\Slider.cydsn/command_telemetry.c ****     
 142:..\Slider.cydsn/command_telemetry.c ****     for (i = 0; i < CMD_ANIM_UNKNOWN; i++)
 313              		.loc 1 142 0
 314 0004 0025     		mov	r5, #0
 315 0006 13E0     		b	.L30
 316              	.LVL38:
 317              	.L33:
 143:..\Slider.cydsn/command_telemetry.c ****     {
 144:..\Slider.cydsn/command_telemetry.c ****         if (strstr(cmd_str, vec_anim_commands[i].name))
 318              		.loc 1 144 0
 319 0008 6B00     		lsl	r3, r5, #1
 320 000a 5B19     		add	r3, r3, r5
 321 000c 9B00     		lsl	r3, r3, #2
 322 000e 0A4A     		ldr	r2, .L34
 323 0010 D318     		add	r3, r2, r3
 324 0012 596C     		ldr	r1, [r3, #68]
 325 0014 201C     		mov	r0, r4
 326 0016 FFF7FEFF 		bl	strstr
 327              	.LVL39:
 328 001a 0028     		cmp	r0, #0
 329 001c 07D0     		beq	.L31
 145:..\Slider.cydsn/command_telemetry.c ****         {
 146:..\Slider.cydsn/command_telemetry.c ****             return vec_anim_commands[i].id;
 330              		.loc 1 146 0
 331 001e 6B00     		lsl	r3, r5, #1
 332 0020 5D19     		add	r5, r3, r5
 333              	.LVL40:
 334 0022 AD00     		lsl	r5, r5, #2
 335 0024 044B     		ldr	r3, .L34
 336 0026 5D19     		add	r5, r3, r5
 337 0028 4023     		mov	r3, #64
 338 002a E85C     		ldrb	r0, [r5, r3]
 339 002c 03E0     		b	.L32
 340              	.LVL41:
 341              	.L31:
 142:..\Slider.cydsn/command_telemetry.c ****     {
 342              		.loc 1 142 0 discriminator 2
 343 002e 0135     		add	r5, r5, #1
 344              	.LVL42:
 345              	.L30:
 142:..\Slider.cydsn/command_telemetry.c ****     {
 346              		.loc 1 142 0 is_stmt 0 discriminator 1
 347 0030 032D     		cmp	r5, #3
 348 0032 E9DD     		ble	.L33
 147:..\Slider.cydsn/command_telemetry.c ****         }
 148:..\Slider.cydsn/command_telemetry.c ****     }// for all the commands
 149:..\Slider.cydsn/command_telemetry.c ****     
 150:..\Slider.cydsn/command_telemetry.c ****     return CMD_ANIM_UNKNOWN;
 349              		.loc 1 150 0 is_stmt 1
 350 0034 0420     		mov	r0, #4
 351              	.LVL43:
 352              	.L32:
 151:..\Slider.cydsn/command_telemetry.c **** }// get_anim_cmd_id_from_cmd_string
ARM GAS  C:\Users\MM1005~1\AppData\Local\Temp\cc36bet7.s 			page 10


 353              		.loc 1 151 0
 354              		@ sp needed
 355              	.LVL44:
 356 0036 38BD     		pop	{r3, r4, r5, pc}
 357              	.L35:
 358              		.align	2
 359              	.L34:
 360 0038 B8000000 		.word	.LANCHOR1
 361              		.cfi_endproc
 362              	.LFE39:
 363              		.size	get_anim_cmd_id_from_cmd_string, .-get_anim_cmd_id_from_cmd_string
 364              		.section	.text.get_anim_id_from_cmd_string,"ax",%progbits
 365              		.align	2
 366              		.global	get_anim_id_from_cmd_string
 367              		.code	16
 368              		.thumb_func
 369              		.type	get_anim_id_from_cmd_string, %function
 370              	get_anim_id_from_cmd_string:
 371              	.LFB40:
 152:..\Slider.cydsn/command_telemetry.c **** 
 153:..\Slider.cydsn/command_telemetry.c **** //=============================================================================
 154:..\Slider.cydsn/command_telemetry.c **** //================================================= get_anim_id_from_cmd_string
 155:..\Slider.cydsn/command_telemetry.c **** //=============================================================================
 156:..\Slider.cydsn/command_telemetry.c **** t_enum_animation get_anim_id_from_cmd_string(const char* cmd_str)
 157:..\Slider.cydsn/command_telemetry.c **** {
 372              		.loc 1 157 0
 373              		.cfi_startproc
 374              	.LVL45:
 375 0000 30B5     		push	{r4, r5, lr}
 376              		.cfi_def_cfa_offset 12
 377              		.cfi_offset 4, -12
 378              		.cfi_offset 5, -8
 379              		.cfi_offset 14, -4
 380 0002 85B0     		sub	sp, sp, #20
 381              		.cfi_def_cfa_offset 32
 382 0004 051C     		mov	r5, r0
 383              	.LVL46:
 158:..\Slider.cydsn/command_telemetry.c ****     int                i;
 159:..\Slider.cydsn/command_telemetry.c ****     t_struct_animation animation;
 160:..\Slider.cydsn/command_telemetry.c ****     
 161:..\Slider.cydsn/command_telemetry.c ****     for (i = 0; i < ANIM_UNKNOWN; i++)
 384              		.loc 1 161 0
 385 0006 0024     		mov	r4, #0
 386 0008 0DE0     		b	.L37
 387              	.LVL47:
 388              	.L40:
 162:..\Slider.cydsn/command_telemetry.c ****     {
 163:..\Slider.cydsn/command_telemetry.c ****         get_animation ((t_enum_animation) i, &animation);
 389              		.loc 1 163 0
 390 000a E0B2     		uxtb	r0, r4
 391 000c 01A9     		add	r1, sp, #4
 392 000e FFF7FEFF 		bl	get_animation
 393              	.LVL48:
 164:..\Slider.cydsn/command_telemetry.c ****         if (strstr(cmd_str, animation.description))
 394              		.loc 1 164 0
 395 0012 0399     		ldr	r1, [sp, #12]
 396 0014 281C     		mov	r0, r5
ARM GAS  C:\Users\MM1005~1\AppData\Local\Temp\cc36bet7.s 			page 11


 397 0016 FFF7FEFF 		bl	strstr
 398              	.LVL49:
 399 001a 0028     		cmp	r0, #0
 400 001c 02D0     		beq	.L38
 165:..\Slider.cydsn/command_telemetry.c ****         {
 166:..\Slider.cydsn/command_telemetry.c ****             return animation.id;
 401              		.loc 1 166 0
 402 001e 01AB     		add	r3, sp, #4
 403 0020 1878     		ldrb	r0, [r3]
 404 0022 03E0     		b	.L39
 405              	.L38:
 161:..\Slider.cydsn/command_telemetry.c ****     {
 406              		.loc 1 161 0 discriminator 2
 407 0024 0134     		add	r4, r4, #1
 408              	.LVL50:
 409              	.L37:
 161:..\Slider.cydsn/command_telemetry.c ****     {
 410              		.loc 1 161 0 is_stmt 0 discriminator 1
 411 0026 0D2C     		cmp	r4, #13
 412 0028 EFDD     		ble	.L40
 167:..\Slider.cydsn/command_telemetry.c ****         }
 168:..\Slider.cydsn/command_telemetry.c ****     }// for all the commands
 169:..\Slider.cydsn/command_telemetry.c ****     
 170:..\Slider.cydsn/command_telemetry.c ****     return ANIM_UNKNOWN;
 413              		.loc 1 170 0 is_stmt 1
 414 002a 0E20     		mov	r0, #14
 415              	.L39:
 171:..\Slider.cydsn/command_telemetry.c **** }// get_anim_cmd_id_from_cmd_string
 416              		.loc 1 171 0
 417 002c 05B0     		add	sp, sp, #20
 418              		@ sp needed
 419              	.LVL51:
 420              	.LVL52:
 421 002e 30BD     		pop	{r4, r5, pc}
 422              		.cfi_endproc
 423              	.LFE40:
 424              		.size	get_anim_id_from_cmd_string, .-get_anim_id_from_cmd_string
 425              		.section	.text.get_boot_cmd_id_from_cmd_string,"ax",%progbits
 426              		.align	2
 427              		.global	get_boot_cmd_id_from_cmd_string
 428              		.code	16
 429              		.thumb_func
 430              		.type	get_boot_cmd_id_from_cmd_string, %function
 431              	get_boot_cmd_id_from_cmd_string:
 432              	.LFB41:
 172:..\Slider.cydsn/command_telemetry.c **** 
 173:..\Slider.cydsn/command_telemetry.c **** //=============================================================================
 174:..\Slider.cydsn/command_telemetry.c **** //============================================= get_boot_cmd_id_from_cmd_string
 175:..\Slider.cydsn/command_telemetry.c **** //=============================================================================
 176:..\Slider.cydsn/command_telemetry.c **** t_enum_bootloader_command get_boot_cmd_id_from_cmd_string(const char* cmd_str)
 177:..\Slider.cydsn/command_telemetry.c **** {
 433              		.loc 1 177 0
 434              		.cfi_startproc
 435              	.LVL53:
 436 0000 38B5     		push	{r3, r4, r5, lr}
 437              		.cfi_def_cfa_offset 16
 438              		.cfi_offset 3, -16
ARM GAS  C:\Users\MM1005~1\AppData\Local\Temp\cc36bet7.s 			page 12


 439              		.cfi_offset 4, -12
 440              		.cfi_offset 5, -8
 441              		.cfi_offset 14, -4
 442 0002 041C     		mov	r4, r0
 443              	.LVL54:
 178:..\Slider.cydsn/command_telemetry.c ****     int i;
 179:..\Slider.cydsn/command_telemetry.c ****     
 180:..\Slider.cydsn/command_telemetry.c ****     for (i = 0; i < CMD_BOOT_UNKNOWN; i++)
 444              		.loc 1 180 0
 445 0004 0025     		mov	r5, #0
 446 0006 13E0     		b	.L42
 447              	.LVL55:
 448              	.L45:
 181:..\Slider.cydsn/command_telemetry.c ****     {
 182:..\Slider.cydsn/command_telemetry.c ****         if (strstr(cmd_str, vec_boot_commands[i].name))
 449              		.loc 1 182 0
 450 0008 6B00     		lsl	r3, r5, #1
 451 000a 5B19     		add	r3, r3, r5
 452 000c 9B00     		lsl	r3, r3, #2
 453 000e 0A4A     		ldr	r2, .L46
 454 0010 D318     		add	r3, r2, r3
 455 0012 596F     		ldr	r1, [r3, #116]
 456 0014 201C     		mov	r0, r4
 457 0016 FFF7FEFF 		bl	strstr
 458              	.LVL56:
 459 001a 0028     		cmp	r0, #0
 460 001c 07D0     		beq	.L43
 183:..\Slider.cydsn/command_telemetry.c ****         {
 184:..\Slider.cydsn/command_telemetry.c ****             return vec_boot_commands[i].id;
 461              		.loc 1 184 0
 462 001e 6B00     		lsl	r3, r5, #1
 463 0020 5D19     		add	r5, r3, r5
 464              	.LVL57:
 465 0022 AD00     		lsl	r5, r5, #2
 466 0024 044B     		ldr	r3, .L46
 467 0026 5D19     		add	r5, r3, r5
 468 0028 7023     		mov	r3, #112
 469 002a E85C     		ldrb	r0, [r5, r3]
 470 002c 03E0     		b	.L44
 471              	.LVL58:
 472              	.L43:
 180:..\Slider.cydsn/command_telemetry.c ****     {
 473              		.loc 1 180 0 discriminator 2
 474 002e 0135     		add	r5, r5, #1
 475              	.LVL59:
 476              	.L42:
 180:..\Slider.cydsn/command_telemetry.c ****     {
 477              		.loc 1 180 0 is_stmt 0 discriminator 1
 478 0030 022D     		cmp	r5, #2
 479 0032 E9DD     		ble	.L45
 185:..\Slider.cydsn/command_telemetry.c ****         }
 186:..\Slider.cydsn/command_telemetry.c ****     }// for all the commands
 187:..\Slider.cydsn/command_telemetry.c ****     
 188:..\Slider.cydsn/command_telemetry.c ****     return CMD_BOOT_UNKNOWN;
 480              		.loc 1 188 0 is_stmt 1
 481 0034 0320     		mov	r0, #3
 482              	.LVL60:
ARM GAS  C:\Users\MM1005~1\AppData\Local\Temp\cc36bet7.s 			page 13


 483              	.L44:
 189:..\Slider.cydsn/command_telemetry.c **** }// get_boot_cmd_id_from_cmd_string
 484              		.loc 1 189 0
 485              		@ sp needed
 486              	.LVL61:
 487 0036 38BD     		pop	{r3, r4, r5, pc}
 488              	.L47:
 489              		.align	2
 490              	.L46:
 491 0038 B8000000 		.word	.LANCHOR1
 492              		.cfi_endproc
 493              	.LFE41:
 494              		.size	get_boot_cmd_id_from_cmd_string, .-get_boot_cmd_id_from_cmd_string
 495              		.section	.text.get_led_cmd_id_from_cmd_string,"ax",%progbits
 496              		.align	2
 497              		.global	get_led_cmd_id_from_cmd_string
 498              		.code	16
 499              		.thumb_func
 500              		.type	get_led_cmd_id_from_cmd_string, %function
 501              	get_led_cmd_id_from_cmd_string:
 502              	.LFB42:
 190:..\Slider.cydsn/command_telemetry.c **** 
 191:..\Slider.cydsn/command_telemetry.c **** //=============================================================================
 192:..\Slider.cydsn/command_telemetry.c **** //============================================== get_led_cmd_id_from_cmd_string
 193:..\Slider.cydsn/command_telemetry.c **** //=============================================================================
 194:..\Slider.cydsn/command_telemetry.c **** t_enum_led_command get_led_cmd_id_from_cmd_string(const char* cmd_str)
 195:..\Slider.cydsn/command_telemetry.c **** {
 503              		.loc 1 195 0
 504              		.cfi_startproc
 505              	.LVL62:
 506 0000 38B5     		push	{r3, r4, r5, lr}
 507              		.cfi_def_cfa_offset 16
 508              		.cfi_offset 3, -16
 509              		.cfi_offset 4, -12
 510              		.cfi_offset 5, -8
 511              		.cfi_offset 14, -4
 512 0002 041C     		mov	r4, r0
 513              	.LVL63:
 196:..\Slider.cydsn/command_telemetry.c ****     int i;
 197:..\Slider.cydsn/command_telemetry.c ****     
 198:..\Slider.cydsn/command_telemetry.c ****     for (i = 0; i < CMD_LED_UNKNOWN; i++)
 514              		.loc 1 198 0
 515 0004 0025     		mov	r5, #0
 516 0006 12E0     		b	.L49
 517              	.LVL64:
 518              	.L52:
 199:..\Slider.cydsn/command_telemetry.c ****     {
 200:..\Slider.cydsn/command_telemetry.c ****         if (strstr(cmd_str, vec_led_commands[i].name))
 519              		.loc 1 200 0
 520 0008 6B00     		lsl	r3, r5, #1
 521 000a 5B19     		add	r3, r3, r5
 522 000c 9B00     		lsl	r3, r3, #2
 523 000e 0A4A     		ldr	r2, .L53
 524 0010 D318     		add	r3, r2, r3
 525 0012 9969     		ldr	r1, [r3, #24]
 526 0014 201C     		mov	r0, r4
 527 0016 FFF7FEFF 		bl	strstr
ARM GAS  C:\Users\MM1005~1\AppData\Local\Temp\cc36bet7.s 			page 14


 528              	.LVL65:
 529 001a 0028     		cmp	r0, #0
 530 001c 06D0     		beq	.L50
 201:..\Slider.cydsn/command_telemetry.c ****         {
 202:..\Slider.cydsn/command_telemetry.c ****             return vec_led_commands[i].id;
 531              		.loc 1 202 0
 532 001e 6B00     		lsl	r3, r5, #1
 533 0020 5D19     		add	r5, r3, r5
 534              	.LVL66:
 535 0022 AD00     		lsl	r5, r5, #2
 536 0024 044B     		ldr	r3, .L53
 537 0026 5D19     		add	r5, r3, r5
 538 0028 287D     		ldrb	r0, [r5, #20]
 539 002a 03E0     		b	.L51
 540              	.LVL67:
 541              	.L50:
 198:..\Slider.cydsn/command_telemetry.c ****     {
 542              		.loc 1 198 0 discriminator 2
 543 002c 0135     		add	r5, r5, #1
 544              	.LVL68:
 545              	.L49:
 198:..\Slider.cydsn/command_telemetry.c ****     {
 546              		.loc 1 198 0 is_stmt 0 discriminator 1
 547 002e 042D     		cmp	r5, #4
 548 0030 EADD     		ble	.L52
 203:..\Slider.cydsn/command_telemetry.c ****         }
 204:..\Slider.cydsn/command_telemetry.c ****     }// for all the commands
 205:..\Slider.cydsn/command_telemetry.c ****     
 206:..\Slider.cydsn/command_telemetry.c ****     return CMD_LED_UNKNOWN;
 549              		.loc 1 206 0 is_stmt 1
 550 0032 0520     		mov	r0, #5
 551              	.LVL69:
 552              	.L51:
 207:..\Slider.cydsn/command_telemetry.c **** }// get_led_cmd_id_from_cmd_string
 553              		.loc 1 207 0
 554              		@ sp needed
 555              	.LVL70:
 556 0034 38BD     		pop	{r3, r4, r5, pc}
 557              	.L54:
 558 0036 C046     		.align	2
 559              	.L53:
 560 0038 38010000 		.word	.LANCHOR2
 561              		.cfi_endproc
 562              	.LFE42:
 563              		.size	get_led_cmd_id_from_cmd_string, .-get_led_cmd_id_from_cmd_string
 564              		.section	.text.send_bootloader_config_telemetry,"ax",%progbits
 565              		.align	2
 566              		.global	send_bootloader_config_telemetry
 567              		.code	16
 568              		.thumb_func
 569              		.type	send_bootloader_config_telemetry, %function
 570              	send_bootloader_config_telemetry:
 571              	.LFB44:
 208:..\Slider.cydsn/command_telemetry.c **** 
 209:..\Slider.cydsn/command_telemetry.c **** //=============================================================================
 210:..\Slider.cydsn/command_telemetry.c **** //=================================================== parse_and_execute_command
 211:..\Slider.cydsn/command_telemetry.c **** //=============================================================================
ARM GAS  C:\Users\MM1005~1\AppData\Local\Temp\cc36bet7.s 			page 15


 212:..\Slider.cydsn/command_telemetry.c **** BOOL parse_and_execute_command(const char* cmd_str_and_param)
 213:..\Slider.cydsn/command_telemetry.c **** { 
 214:..\Slider.cydsn/command_telemetry.c ****     t_enum_command            cmd_id           = CMD_UNKNOWN;
 215:..\Slider.cydsn/command_telemetry.c ****     t_enum_anim_command       anim_cmd_id      = CMD_ANIM_UNKNOWN;
 216:..\Slider.cydsn/command_telemetry.c ****     t_enum_animation          anim_id          = ANIM_UNKNOWN;
 217:..\Slider.cydsn/command_telemetry.c ****     t_enum_led_command        led_cmd_id       = CMD_LED_UNKNOWN;
 218:..\Slider.cydsn/command_telemetry.c ****     t_enum_sensor_command     sensor_cmd_id    = CMD_SENSOR_UNKNOWN;
 219:..\Slider.cydsn/command_telemetry.c ****     t_enum_telemetry_command  telemetry_cmd_id = CMD_TELEMETRY_UNKNOWN;
 220:..\Slider.cydsn/command_telemetry.c ****     t_enum_tracker_command    tracker_cmd_id   = CMD_TRACKER_UNKNOWN;
 221:..\Slider.cydsn/command_telemetry.c ****     t_enum_bootloader_command boot_cmd_id      = CMD_BOOT_UNKNOWN;   
 222:..\Slider.cydsn/command_telemetry.c ****     char*                     param_str        = strchr(cmd_str_and_param, ',');
 223:..\Slider.cydsn/command_telemetry.c ****     char*                     next_param_str   = NULL; 
 224:..\Slider.cydsn/command_telemetry.c ****     int                       red              = 0;
 225:..\Slider.cydsn/command_telemetry.c ****     int                       green            = 0;
 226:..\Slider.cydsn/command_telemetry.c ****     int                       blue             = 0;
 227:..\Slider.cydsn/command_telemetry.c ****     int                       led_index        = 0;
 228:..\Slider.cydsn/command_telemetry.c ****     int                       led_intensity    = 0;
 229:..\Slider.cydsn/command_telemetry.c **** #if 0   
 230:..\Slider.cydsn/command_telemetry.c ****     uint32                    flash_checksum   = 0;
 231:..\Slider.cydsn/command_telemetry.c ****     uint32                    flash_first_row  = 0;
 232:..\Slider.cydsn/command_telemetry.c ****     uint32                    flash_last_row   = 0;
 233:..\Slider.cydsn/command_telemetry.c ****     uint32                    flash_size       = 0;
 234:..\Slider.cydsn/command_telemetry.c **** #endif // USE_BOOTLOADER    
 235:..\Slider.cydsn/command_telemetry.c ****     t_struct_animation        animation;
 236:..\Slider.cydsn/command_telemetry.c ****     uint16                    led_vec[MAX_LEDS]; 
 237:..\Slider.cydsn/command_telemetry.c ****     int                       i;
 238:..\Slider.cydsn/command_telemetry.c ****     
 239:..\Slider.cydsn/command_telemetry.c ****     if (param_str == NULL)
 240:..\Slider.cydsn/command_telemetry.c ****     {
 241:..\Slider.cydsn/command_telemetry.c ****         send_alarm_telemetry(ALARM_WARNING, cmd_str_and_param, "can't find comma in command");
 242:..\Slider.cydsn/command_telemetry.c ****         return FALSE;    
 243:..\Slider.cydsn/command_telemetry.c ****     }// If we can't a comma inside the command
 244:..\Slider.cydsn/command_telemetry.c ****    
 245:..\Slider.cydsn/command_telemetry.c ****     cmd_id = get_cmd_id_from_cmd_string(param_str++);
 246:..\Slider.cydsn/command_telemetry.c ****     
 247:..\Slider.cydsn/command_telemetry.c ****     switch (cmd_id)
 248:..\Slider.cydsn/command_telemetry.c ****     {
 249:..\Slider.cydsn/command_telemetry.c ****         case CMD_CAPSENSE:
 250:..\Slider.cydsn/command_telemetry.c ****         {
 251:..\Slider.cydsn/command_telemetry.c ****             send_alarm_telemetry(ALARM_WARNING, cmd_str_and_param, "FIXME!");
 252:..\Slider.cydsn/command_telemetry.c ****             return FALSE;    
 253:..\Slider.cydsn/command_telemetry.c ****         }// CMD_CAPSENSE
 254:..\Slider.cydsn/command_telemetry.c ****         
 255:..\Slider.cydsn/command_telemetry.c ****         case CMD_HELP:
 256:..\Slider.cydsn/command_telemetry.c ****         {
 257:..\Slider.cydsn/command_telemetry.c ****             for (i = 0; i < CMD_UNKNOWN; i++)
 258:..\Slider.cydsn/command_telemetry.c ****             {
 259:..\Slider.cydsn/command_telemetry.c ****                 send_alarm_telemetry(ALARM_LOG, vec_commands[i].name, vec_commands[i].description);
 260:..\Slider.cydsn/command_telemetry.c ****             }// for all the commands
 261:..\Slider.cydsn/command_telemetry.c ****             
 262:..\Slider.cydsn/command_telemetry.c ****             for (i = 0; i < ANIM_UNKNOWN; i++)
 263:..\Slider.cydsn/command_telemetry.c ****             {
 264:..\Slider.cydsn/command_telemetry.c ****                 get_animation ((t_enum_animation) i, &animation);
 265:..\Slider.cydsn/command_telemetry.c ****                 send_alarm_telemetry(ALARM_LOG, "animation", animation.description);
 266:..\Slider.cydsn/command_telemetry.c ****             }// for all the commands
 267:..\Slider.cydsn/command_telemetry.c ****             
 268:..\Slider.cydsn/command_telemetry.c ****             break;      
ARM GAS  C:\Users\MM1005~1\AppData\Local\Temp\cc36bet7.s 			page 16


 269:..\Slider.cydsn/command_telemetry.c ****         }// CMD_HELP
 270:..\Slider.cydsn/command_telemetry.c ****         
 271:..\Slider.cydsn/command_telemetry.c ****         case CMD_ANIMATION:
 272:..\Slider.cydsn/command_telemetry.c ****         {
 273:..\Slider.cydsn/command_telemetry.c ****             if ((param_str = strchr(param_str, ',')) == NULL)
 274:..\Slider.cydsn/command_telemetry.c ****             {
 275:..\Slider.cydsn/command_telemetry.c ****                 send_alarm_telemetry(ALARM_WARNING, cmd_str_and_param, "unsupported animation actio
 276:..\Slider.cydsn/command_telemetry.c ****                 return FALSE;
 277:..\Slider.cydsn/command_telemetry.c ****             }// If we can't find the next ',' character
 278:..\Slider.cydsn/command_telemetry.c ****             
 279:..\Slider.cydsn/command_telemetry.c ****             if ((param_str = strchr(++param_str, ':')) == NULL)
 280:..\Slider.cydsn/command_telemetry.c ****             {
 281:..\Slider.cydsn/command_telemetry.c ****                 send_alarm_telemetry(ALARM_WARNING, cmd_str_and_param, "unsupported animation actio
 282:..\Slider.cydsn/command_telemetry.c ****                 return FALSE;
 283:..\Slider.cydsn/command_telemetry.c ****             }// If we can't find the next ':' character
 284:..\Slider.cydsn/command_telemetry.c ****             param_str++;
 285:..\Slider.cydsn/command_telemetry.c ****             
 286:..\Slider.cydsn/command_telemetry.c ****             switch (anim_cmd_id = get_anim_cmd_id_from_cmd_string(param_str))
 287:..\Slider.cydsn/command_telemetry.c ****             {
 288:..\Slider.cydsn/command_telemetry.c ****                 case CMD_ANIM_AUTO:
 289:..\Slider.cydsn/command_telemetry.c ****                 {
 290:..\Slider.cydsn/command_telemetry.c ****                     set_is_auto_anim_rotation_enable(TRUE);
 291:..\Slider.cydsn/command_telemetry.c ****                     break;
 292:..\Slider.cydsn/command_telemetry.c ****                 }// CMD_ANIM_AUTO
 293:..\Slider.cydsn/command_telemetry.c ****                 
 294:..\Slider.cydsn/command_telemetry.c ****                 case CMD_ANIM_MANUAL:
 295:..\Slider.cydsn/command_telemetry.c ****                 {
 296:..\Slider.cydsn/command_telemetry.c ****                     set_is_auto_anim_rotation_enable(FALSE);
 297:..\Slider.cydsn/command_telemetry.c ****                     break;
 298:..\Slider.cydsn/command_telemetry.c ****                 }// CMD_ANIM_MANUAL
 299:..\Slider.cydsn/command_telemetry.c ****                 
 300:..\Slider.cydsn/command_telemetry.c ****                 case CMD_ANIM_STOP:
 301:..\Slider.cydsn/command_telemetry.c ****                 {
 302:..\Slider.cydsn/command_telemetry.c ****                     set_is_anim_on_button_up_enable(FALSE);
 303:..\Slider.cydsn/command_telemetry.c ****                     break;
 304:..\Slider.cydsn/command_telemetry.c ****                 }// CMD_ANIM_STOP
 305:..\Slider.cydsn/command_telemetry.c ****                 
 306:..\Slider.cydsn/command_telemetry.c ****                 case CMD_ANIM_RESUME:
 307:..\Slider.cydsn/command_telemetry.c ****                 {
 308:..\Slider.cydsn/command_telemetry.c ****                     set_is_anim_on_button_up_enable(TRUE);
 309:..\Slider.cydsn/command_telemetry.c ****                     break;
 310:..\Slider.cydsn/command_telemetry.c ****                 }// CMD_ANIM_RESUME
 311:..\Slider.cydsn/command_telemetry.c ****                 
 312:..\Slider.cydsn/command_telemetry.c ****                 case CMD_ANIM_UNKNOWN:
 313:..\Slider.cydsn/command_telemetry.c ****                 default              :
 314:..\Slider.cydsn/command_telemetry.c ****                 {
 315:..\Slider.cydsn/command_telemetry.c ****                     if ((anim_id = get_anim_id_from_cmd_string(param_str)) != ANIM_UNKNOWN)
 316:..\Slider.cydsn/command_telemetry.c ****                     {
 317:..\Slider.cydsn/command_telemetry.c ****                         set_current_callback_anim(anim_id);
 318:..\Slider.cydsn/command_telemetry.c ****                     }// if we found a valid animation description in the command
 319:..\Slider.cydsn/command_telemetry.c ****                     else
 320:..\Slider.cydsn/command_telemetry.c ****                     {
 321:..\Slider.cydsn/command_telemetry.c ****                         send_alarm_telemetry(ALARM_WARNING, cmd_str_and_param, "unsupported animati
 322:..\Slider.cydsn/command_telemetry.c ****                         return FALSE;
 323:..\Slider.cydsn/command_telemetry.c ****                     }// else, we couldn't find a valid animation 
 324:..\Slider.cydsn/command_telemetry.c ****                     break;
 325:..\Slider.cydsn/command_telemetry.c ****                 }// CMD_ANIM_UNKOWN, default
ARM GAS  C:\Users\MM1005~1\AppData\Local\Temp\cc36bet7.s 			page 17


 326:..\Slider.cydsn/command_telemetry.c ****             }// switch on the animation command
 327:..\Slider.cydsn/command_telemetry.c ****             break;  
 328:..\Slider.cydsn/command_telemetry.c ****         }// CMD_SET_ANIMATION
 329:..\Slider.cydsn/command_telemetry.c ****         
 330:..\Slider.cydsn/command_telemetry.c ****         case CMD_BOOTLOADER:
 331:..\Slider.cydsn/command_telemetry.c ****         {
 332:..\Slider.cydsn/command_telemetry.c ****             if ((param_str = strchr(param_str, ',')) == NULL)
 333:..\Slider.cydsn/command_telemetry.c ****             {
 334:..\Slider.cydsn/command_telemetry.c ****                 send_alarm_telemetry(ALARM_WARNING, cmd_str_and_param, "unsupported sensor action")
 335:..\Slider.cydsn/command_telemetry.c ****                 return FALSE;
 336:..\Slider.cydsn/command_telemetry.c ****             }// If we can't find the next ',' character
 337:..\Slider.cydsn/command_telemetry.c ****             
 338:..\Slider.cydsn/command_telemetry.c ****             if ((param_str = strchr(++param_str, ':')) == NULL)
 339:..\Slider.cydsn/command_telemetry.c ****             {
 340:..\Slider.cydsn/command_telemetry.c ****                 send_alarm_telemetry(ALARM_WARNING, cmd_str_and_param, "unsupported sensor action")
 341:..\Slider.cydsn/command_telemetry.c ****                 return FALSE;
 342:..\Slider.cydsn/command_telemetry.c ****             }// If we can't find the next ':' character
 343:..\Slider.cydsn/command_telemetry.c ****             param_str++;
 344:..\Slider.cydsn/command_telemetry.c ****             
 345:..\Slider.cydsn/command_telemetry.c ****             switch (boot_cmd_id = get_boot_cmd_id_from_cmd_string(param_str))
 346:..\Slider.cydsn/command_telemetry.c ****             {
 347:..\Slider.cydsn/command_telemetry.c ****                 case CMD_BOOT_START:
 348:..\Slider.cydsn/command_telemetry.c ****                 {   
 349:..\Slider.cydsn/command_telemetry.c **** 
 350:..\Slider.cydsn/command_telemetry.c **** #if USE_BOOTLOADER                     
 351:..\Slider.cydsn/command_telemetry.c ****                     Timer_1_Stop();
 352:..\Slider.cydsn/command_telemetry.c ****                     Bootloadable_1_Load();
 353:..\Slider.cydsn/command_telemetry.c **** #else 
 354:..\Slider.cydsn/command_telemetry.c ****                     send_alarm_telemetry(ALARM_ERROR, cmd_str_and_param, "bootloader is disabled");
 355:..\Slider.cydsn/command_telemetry.c **** #endif // USE_BOOTLOADER  
 356:..\Slider.cydsn/command_telemetry.c ****                     break;
 357:..\Slider.cydsn/command_telemetry.c ****                 }// CMD_BOOT_START      
 358:..\Slider.cydsn/command_telemetry.c ****                 
 359:..\Slider.cydsn/command_telemetry.c ****                 case CMD_BOOT_EXIT:
 360:..\Slider.cydsn/command_telemetry.c ****                 {
 361:..\Slider.cydsn/command_telemetry.c **** #if 0                    
 362:..\Slider.cydsn/command_telemetry.c ****                     Bootloader_1_Exit(Bootloader_1_EXIT_TO_BTLDB);
 363:..\Slider.cydsn/command_telemetry.c **** #else 
 364:..\Slider.cydsn/command_telemetry.c ****                     send_alarm_telemetry(ALARM_ERROR, cmd_str_and_param, "bootloader is disabled");
 365:..\Slider.cydsn/command_telemetry.c **** #endif // USE_BOOTLOADER      
 366:..\Slider.cydsn/command_telemetry.c ****                     break;
 367:..\Slider.cydsn/command_telemetry.c ****                 }// CMD_BOOT_EXIT
 368:..\Slider.cydsn/command_telemetry.c ****                 
 369:..\Slider.cydsn/command_telemetry.c ****                 case CMD_BOOT_GET_FLASH_GEO:
 370:..\Slider.cydsn/command_telemetry.c ****                 {
 371:..\Slider.cydsn/command_telemetry.c **** #if 0                   
 372:..\Slider.cydsn/command_telemetry.c ****                     flash_checksum  = Bootloader_1_GetMetadata(Bootloader_1_GET_BTLDB_CHECKSUM, 0);
 373:..\Slider.cydsn/command_telemetry.c ****                     flash_first_row = Bootloader_1_GetMetadata(Bootloader_1_GET_BTLDB_ADDR    , 0);
 374:..\Slider.cydsn/command_telemetry.c ****                     flash_last_row  = Bootloader_1_GetMetadata(Bootloader_1_GET_BTLDR_LAST_ROW, 0);
 375:..\Slider.cydsn/command_telemetry.c ****                     flash_size      = Bootloader_1_GetMetadata(Bootloader_1_GET_BTLDB_LENGTH  , 0);
 376:..\Slider.cydsn/command_telemetry.c ****                     send_flash_geometry_telemetry(flash_checksum, flash_first_row, flash_last_row, 
 377:..\Slider.cydsn/command_telemetry.c **** #else 
 378:..\Slider.cydsn/command_telemetry.c ****                     send_alarm_telemetry(ALARM_ERROR, cmd_str_and_param, "bootloader is disabled");
 379:..\Slider.cydsn/command_telemetry.c **** #endif // USE_BOOTLOADER  
 380:..\Slider.cydsn/command_telemetry.c ****                     break;
 381:..\Slider.cydsn/command_telemetry.c ****                 }// CMD_BOOT_EXIT
 382:..\Slider.cydsn/command_telemetry.c ****                 
ARM GAS  C:\Users\MM1005~1\AppData\Local\Temp\cc36bet7.s 			page 18


 383:..\Slider.cydsn/command_telemetry.c ****                 case CMD_BOOT_UNKNOWN:
 384:..\Slider.cydsn/command_telemetry.c ****                 default              :
 385:..\Slider.cydsn/command_telemetry.c ****                 {
 386:..\Slider.cydsn/command_telemetry.c ****                     send_alarm_telemetry(ALARM_WARNING, cmd_str_and_param, "unsupported bootloader 
 387:..\Slider.cydsn/command_telemetry.c ****                     return FALSE;
 388:..\Slider.cydsn/command_telemetry.c ****                 }// CMD_TRACKER_UNKNOWN, default
 389:..\Slider.cydsn/command_telemetry.c ****             }// switch in the tracker action
 390:..\Slider.cydsn/command_telemetry.c ****             break;
 391:..\Slider.cydsn/command_telemetry.c ****             //send_alarm_telemetry(ALARM_WARNING, cmd_str_and_param, "jumping in bootloader");     
 392:..\Slider.cydsn/command_telemetry.c ****            
 393:..\Slider.cydsn/command_telemetry.c ****             break;
 394:..\Slider.cydsn/command_telemetry.c ****         }// CMD_BOOTLOADER
 395:..\Slider.cydsn/command_telemetry.c ****               
 396:..\Slider.cydsn/command_telemetry.c ****         case CMD_LED:
 397:..\Slider.cydsn/command_telemetry.c ****         {
 398:..\Slider.cydsn/command_telemetry.c ****             switch (led_cmd_id = get_led_cmd_id_from_cmd_string(param_str))
 399:..\Slider.cydsn/command_telemetry.c ****             {
 400:..\Slider.cydsn/command_telemetry.c ****                 case CMD_LED_CLEAR:
 401:..\Slider.cydsn/command_telemetry.c ****                 {
 402:..\Slider.cydsn/command_telemetry.c ****                     set_all_leds_intensity(0x00);
 403:..\Slider.cydsn/command_telemetry.c ****                     break;
 404:..\Slider.cydsn/command_telemetry.c ****                 }// CMD_LED_CLEAR
 405:..\Slider.cydsn/command_telemetry.c ****                 
 406:..\Slider.cydsn/command_telemetry.c ****                 case CMD_LED_SET_COLOR_LEFT:
 407:..\Slider.cydsn/command_telemetry.c ****                 case CMD_LED_SET_COLOR_RIGHT:
 408:..\Slider.cydsn/command_telemetry.c ****                 {
 409:..\Slider.cydsn/command_telemetry.c ****                     if ((param_str = strchr(param_str, ',')) == NULL)
 410:..\Slider.cydsn/command_telemetry.c ****                     {
 411:..\Slider.cydsn/command_telemetry.c ****                         send_alarm_telemetry(ALARM_WARNING, cmd_str_and_param, "unsupported animati
 412:..\Slider.cydsn/command_telemetry.c ****                         return FALSE;
 413:..\Slider.cydsn/command_telemetry.c ****                     }// If we can't find the next ',' character
 414:..\Slider.cydsn/command_telemetry.c ****                     
 415:..\Slider.cydsn/command_telemetry.c ****                     if ((param_str = strchr(++param_str, ':')) == NULL)
 416:..\Slider.cydsn/command_telemetry.c ****                     {
 417:..\Slider.cydsn/command_telemetry.c ****                         send_alarm_telemetry(ALARM_WARNING, cmd_str_and_param, "can't parse red fro
 418:..\Slider.cydsn/command_telemetry.c ****                         return FALSE;
 419:..\Slider.cydsn/command_telemetry.c ****                     }// If we can't find the next ':' character
 420:..\Slider.cydsn/command_telemetry.c **** 
 421:..\Slider.cydsn/command_telemetry.c ****                     // ========================================================
 422:..\Slider.cydsn/command_telemetry.c ****                     // parse red
 423:..\Slider.cydsn/command_telemetry.c ****                     // ========================================================
 424:..\Slider.cydsn/command_telemetry.c ****                     if ((param_str = strchr(++param_str, ':')) == NULL)
 425:..\Slider.cydsn/command_telemetry.c ****                     {
 426:..\Slider.cydsn/command_telemetry.c ****                         send_alarm_telemetry(ALARM_WARNING, cmd_str_and_param, "can't parse red fro
 427:..\Slider.cydsn/command_telemetry.c ****                         return FALSE;
 428:..\Slider.cydsn/command_telemetry.c ****                     }// If we can't find the next ':' character
 429:..\Slider.cydsn/command_telemetry.c **** 
 430:..\Slider.cydsn/command_telemetry.c ****                     if ((next_param_str = strchr(++param_str, ',')) == NULL)
 431:..\Slider.cydsn/command_telemetry.c ****                     {
 432:..\Slider.cydsn/command_telemetry.c ****                         send_alarm_telemetry(ALARM_WARNING, cmd_str_and_param, "can't parse red fro
 433:..\Slider.cydsn/command_telemetry.c ****                         return FALSE;
 434:..\Slider.cydsn/command_telemetry.c ****                     }// If we can't find the next ',' character
 435:..\Slider.cydsn/command_telemetry.c ****                     *next_param_str = '\0';
 436:..\Slider.cydsn/command_telemetry.c ****                     next_param_str++;
 437:..\Slider.cydsn/command_telemetry.c ****                     
 438:..\Slider.cydsn/command_telemetry.c ****                     red = atoi(param_str);
 439:..\Slider.cydsn/command_telemetry.c ****                     
ARM GAS  C:\Users\MM1005~1\AppData\Local\Temp\cc36bet7.s 			page 19


 440:..\Slider.cydsn/command_telemetry.c ****                     // ========================================================
 441:..\Slider.cydsn/command_telemetry.c ****                     // parse green
 442:..\Slider.cydsn/command_telemetry.c ****                     // ========================================================
 443:..\Slider.cydsn/command_telemetry.c ****                     if ((param_str = strchr(next_param_str, ':')) == NULL)
 444:..\Slider.cydsn/command_telemetry.c ****                     {
 445:..\Slider.cydsn/command_telemetry.c ****                         send_alarm_telemetry(ALARM_WARNING, cmd_str_and_param, "can't parse green f
 446:..\Slider.cydsn/command_telemetry.c ****                         return FALSE;
 447:..\Slider.cydsn/command_telemetry.c ****                     }// If we can't find the next ':' character
 448:..\Slider.cydsn/command_telemetry.c **** 
 449:..\Slider.cydsn/command_telemetry.c ****                     if ((next_param_str = strchr(++param_str, ',')) == NULL)
 450:..\Slider.cydsn/command_telemetry.c ****                     {
 451:..\Slider.cydsn/command_telemetry.c ****                         send_alarm_telemetry(ALARM_WARNING, cmd_str_and_param, "can't parsed green 
 452:..\Slider.cydsn/command_telemetry.c ****                         return FALSE;
 453:..\Slider.cydsn/command_telemetry.c ****                     }// If we can't find the next ',' character
 454:..\Slider.cydsn/command_telemetry.c ****                     *next_param_str = '\0';
 455:..\Slider.cydsn/command_telemetry.c ****                     next_param_str++;
 456:..\Slider.cydsn/command_telemetry.c ****                     
 457:..\Slider.cydsn/command_telemetry.c ****                     green = atoi(param_str);
 458:..\Slider.cydsn/command_telemetry.c ****                     
 459:..\Slider.cydsn/command_telemetry.c ****                     // ========================================================
 460:..\Slider.cydsn/command_telemetry.c ****                     // parse blue
 461:..\Slider.cydsn/command_telemetry.c ****                     // ========================================================
 462:..\Slider.cydsn/command_telemetry.c ****                     if ((param_str = strchr(next_param_str, ':')) == NULL)
 463:..\Slider.cydsn/command_telemetry.c ****                     {
 464:..\Slider.cydsn/command_telemetry.c ****                         send_alarm_telemetry(ALARM_WARNING, cmd_str_and_param, "can't parse green f
 465:..\Slider.cydsn/command_telemetry.c ****                         return FALSE;
 466:..\Slider.cydsn/command_telemetry.c ****                     }// If we can't find the next ':' character
 467:..\Slider.cydsn/command_telemetry.c ****                     
 468:..\Slider.cydsn/command_telemetry.c ****                     blue = atoi(++param_str);                    
 469:..\Slider.cydsn/command_telemetry.c ****                     // ========================================================
 470:..\Slider.cydsn/command_telemetry.c ****                     // execute the command
 471:..\Slider.cydsn/command_telemetry.c ****                     // ========================================================
 472:..\Slider.cydsn/command_telemetry.c ****                     if (led_cmd_id == CMD_LED_SET_COLOR_LEFT)
 473:..\Slider.cydsn/command_telemetry.c ****                     {
 474:..\Slider.cydsn/command_telemetry.c ****                         set_led(E_LED_LEFT_RED  ,  red  );
 475:..\Slider.cydsn/command_telemetry.c ****                         set_led(E_LED_LEFT_GREEN,  green);
 476:..\Slider.cydsn/command_telemetry.c ****                         set_led(E_LED_LEFT_BLUE ,  blue );
 477:..\Slider.cydsn/command_telemetry.c ****                     }// if it's the left colored LED
 478:..\Slider.cydsn/command_telemetry.c ****                     else
 479:..\Slider.cydsn/command_telemetry.c ****                     {
 480:..\Slider.cydsn/command_telemetry.c ****                         set_led(E_LED_RIGHT_RED  ,  red  );
 481:..\Slider.cydsn/command_telemetry.c ****                         set_led(E_LED_RIGHT_GREEN,  green);
 482:..\Slider.cydsn/command_telemetry.c ****                         set_led(E_LED_RIGHT_BLUE ,  blue );
 483:..\Slider.cydsn/command_telemetry.c ****                     }// if it's the right colored LED
 484:..\Slider.cydsn/command_telemetry.c ****                     
 485:..\Slider.cydsn/command_telemetry.c ****                     break;
 486:..\Slider.cydsn/command_telemetry.c ****                 }// CMD_LED_SET_COLOR_LEFT
 487:..\Slider.cydsn/command_telemetry.c ****                 
 488:..\Slider.cydsn/command_telemetry.c ****                 case CMD_LED_SET_WHITE:
 489:..\Slider.cydsn/command_telemetry.c ****                 {
 490:..\Slider.cydsn/command_telemetry.c ****                     if ((param_str = strchr(param_str, ',')) == NULL)
 491:..\Slider.cydsn/command_telemetry.c ****                     {
 492:..\Slider.cydsn/command_telemetry.c ****                         send_alarm_telemetry(ALARM_WARNING, cmd_str_and_param, "unsupported animati
 493:..\Slider.cydsn/command_telemetry.c ****                         return FALSE;
 494:..\Slider.cydsn/command_telemetry.c ****                     }// If we can't find the next ',' character
 495:..\Slider.cydsn/command_telemetry.c ****                     
 496:..\Slider.cydsn/command_telemetry.c ****                     if ((param_str = strchr(++param_str, ':')) == NULL)
ARM GAS  C:\Users\MM1005~1\AppData\Local\Temp\cc36bet7.s 			page 20


 497:..\Slider.cydsn/command_telemetry.c ****                     {
 498:..\Slider.cydsn/command_telemetry.c ****                         send_alarm_telemetry(ALARM_WARNING, cmd_str_and_param, "can't parse LED ind
 499:..\Slider.cydsn/command_telemetry.c ****                         return FALSE;
 500:..\Slider.cydsn/command_telemetry.c ****                     }// If we can't find the next ':' character
 501:..\Slider.cydsn/command_telemetry.c **** 
 502:..\Slider.cydsn/command_telemetry.c ****                     // ========================================================
 503:..\Slider.cydsn/command_telemetry.c ****                     // parse index
 504:..\Slider.cydsn/command_telemetry.c ****                     // ========================================================
 505:..\Slider.cydsn/command_telemetry.c ****                     if ((param_str = strchr(++param_str, ':')) == NULL)
 506:..\Slider.cydsn/command_telemetry.c ****                     {
 507:..\Slider.cydsn/command_telemetry.c ****                         send_alarm_telemetry(ALARM_WARNING, cmd_str_and_param, "can't parse LED ind
 508:..\Slider.cydsn/command_telemetry.c ****                         return FALSE;
 509:..\Slider.cydsn/command_telemetry.c ****                     }// If we can't find the next ':' character
 510:..\Slider.cydsn/command_telemetry.c **** 
 511:..\Slider.cydsn/command_telemetry.c ****                     if ((next_param_str = strchr(++param_str, ',')) == NULL)
 512:..\Slider.cydsn/command_telemetry.c ****                     {
 513:..\Slider.cydsn/command_telemetry.c ****                         send_alarm_telemetry(ALARM_WARNING, cmd_str_and_param, "can't parse LED ind
 514:..\Slider.cydsn/command_telemetry.c ****                         return FALSE;
 515:..\Slider.cydsn/command_telemetry.c ****                     }// If we can't find the next ',' character
 516:..\Slider.cydsn/command_telemetry.c ****                     *next_param_str = '\0';
 517:..\Slider.cydsn/command_telemetry.c ****                     next_param_str++;
 518:..\Slider.cydsn/command_telemetry.c ****                     
 519:..\Slider.cydsn/command_telemetry.c ****                     led_index = atoi(param_str);
 520:..\Slider.cydsn/command_telemetry.c ****                     
 521:..\Slider.cydsn/command_telemetry.c ****                     if ((led_index < 0) || (led_index >= NUMBER_OF_WHITE_LEDS))
 522:..\Slider.cydsn/command_telemetry.c ****                     {
 523:..\Slider.cydsn/command_telemetry.c ****                         send_alarm_telemetry(ALARM_WARNING, cmd_str_and_param, "invalid led index")
 524:..\Slider.cydsn/command_telemetry.c ****                         return FALSE;
 525:..\Slider.cydsn/command_telemetry.c ****                     }
 526:..\Slider.cydsn/command_telemetry.c ****                     
 527:..\Slider.cydsn/command_telemetry.c ****                     // ========================================================
 528:..\Slider.cydsn/command_telemetry.c ****                     // parse led intensity
 529:..\Slider.cydsn/command_telemetry.c ****                     // ========================================================
 530:..\Slider.cydsn/command_telemetry.c ****                     if ((param_str = strchr(next_param_str, ':')) == NULL)
 531:..\Slider.cydsn/command_telemetry.c ****                     {
 532:..\Slider.cydsn/command_telemetry.c ****                         send_alarm_telemetry(ALARM_WARNING, cmd_str_and_param, "can't parse green f
 533:..\Slider.cydsn/command_telemetry.c ****                         return FALSE;
 534:..\Slider.cydsn/command_telemetry.c ****                     }// If we can't find the next ':' character
 535:..\Slider.cydsn/command_telemetry.c ****                     
 536:..\Slider.cydsn/command_telemetry.c ****                     led_intensity = atoi(++param_str);     
 537:..\Slider.cydsn/command_telemetry.c ****                     
 538:..\Slider.cydsn/command_telemetry.c ****                     // ========================================================
 539:..\Slider.cydsn/command_telemetry.c ****                     // execute the command
 540:..\Slider.cydsn/command_telemetry.c ****                     // ========================================================
 541:..\Slider.cydsn/command_telemetry.c ****                     set_led(led_index, led_intensity);
 542:..\Slider.cydsn/command_telemetry.c ****                     break;
 543:..\Slider.cydsn/command_telemetry.c ****                 }// CMD_LED_SET_WHITE
 544:..\Slider.cydsn/command_telemetry.c ****                 
 545:..\Slider.cydsn/command_telemetry.c ****                 case CMD_LED_SET_STRIP:
 546:..\Slider.cydsn/command_telemetry.c ****                 {
 547:..\Slider.cydsn/command_telemetry.c ****                     if ((param_str = strchr(param_str, ',')) == NULL)
 548:..\Slider.cydsn/command_telemetry.c ****                     {
 549:..\Slider.cydsn/command_telemetry.c ****                         send_alarm_telemetry(ALARM_WARNING, cmd_str_and_param, "can't parse LED str
 550:..\Slider.cydsn/command_telemetry.c ****                         return FALSE;
 551:..\Slider.cydsn/command_telemetry.c ****                     }// If we can't find the next ',' character
 552:..\Slider.cydsn/command_telemetry.c ****                     
 553:..\Slider.cydsn/command_telemetry.c ****                     if ((param_str = strchr(++param_str, ',')) == NULL)
ARM GAS  C:\Users\MM1005~1\AppData\Local\Temp\cc36bet7.s 			page 21


 554:..\Slider.cydsn/command_telemetry.c ****                     {
 555:..\Slider.cydsn/command_telemetry.c ****                         send_alarm_telemetry(ALARM_WARNING, cmd_str_and_param, "can't parse LED str
 556:..\Slider.cydsn/command_telemetry.c ****                         return FALSE;
 557:..\Slider.cydsn/command_telemetry.c ****                     }// If we can't find the next ',' character 
 558:..\Slider.cydsn/command_telemetry.c ****                     
 559:..\Slider.cydsn/command_telemetry.c ****                     if ((param_str = strchr(++param_str, ':')) == NULL)
 560:..\Slider.cydsn/command_telemetry.c ****                     {
 561:..\Slider.cydsn/command_telemetry.c ****                         send_alarm_telemetry(ALARM_WARNING, cmd_str_and_param, "can't parse LED str
 562:..\Slider.cydsn/command_telemetry.c ****                         return FALSE;
 563:..\Slider.cydsn/command_telemetry.c ****                     }// If we can't find the next ':' character
 564:..\Slider.cydsn/command_telemetry.c ****                     
 565:..\Slider.cydsn/command_telemetry.c ****                     memset(led_vec, 0, sizeof(led_vec));
 566:..\Slider.cydsn/command_telemetry.c ****                     
 567:..\Slider.cydsn/command_telemetry.c ****                     //=========================================================
 568:..\Slider.cydsn/command_telemetry.c ****                     // left red
 569:..\Slider.cydsn/command_telemetry.c ****                     //=========================================================
 570:..\Slider.cydsn/command_telemetry.c ****                     if ((param_str = strchr(++param_str, '\"')) == NULL)
 571:..\Slider.cydsn/command_telemetry.c ****                     {
 572:..\Slider.cydsn/command_telemetry.c ****                         send_alarm_telemetry(ALARM_WARNING, cmd_str_and_param, "can't parse LED str
 573:..\Slider.cydsn/command_telemetry.c ****                         return FALSE;
 574:..\Slider.cydsn/command_telemetry.c ****                     }// If we can't find the next '"' character
 575:..\Slider.cydsn/command_telemetry.c ****                     param_str++;  
 576:..\Slider.cydsn/command_telemetry.c ****                     led_vec[E_LED_LEFT_RED] = atoi(param_str);
 577:..\Slider.cydsn/command_telemetry.c ****                  
 578:..\Slider.cydsn/command_telemetry.c ****                     //=========================================================
 579:..\Slider.cydsn/command_telemetry.c ****                     // left green
 580:..\Slider.cydsn/command_telemetry.c ****                     //=========================================================
 581:..\Slider.cydsn/command_telemetry.c ****                     if ((param_str = strchr(param_str, '-')) == NULL)
 582:..\Slider.cydsn/command_telemetry.c ****                     {
 583:..\Slider.cydsn/command_telemetry.c ****                         send_alarm_telemetry(ALARM_WARNING, cmd_str_and_param, "can't parse LED str
 584:..\Slider.cydsn/command_telemetry.c ****                         return FALSE;
 585:..\Slider.cydsn/command_telemetry.c ****                     }// If we can't find the next '-' character
 586:..\Slider.cydsn/command_telemetry.c ****                     param_str++;
 587:..\Slider.cydsn/command_telemetry.c ****                     led_vec[E_LED_LEFT_GREEN] = atoi(param_str);
 588:..\Slider.cydsn/command_telemetry.c ****                     
 589:..\Slider.cydsn/command_telemetry.c ****                     //=========================================================
 590:..\Slider.cydsn/command_telemetry.c ****                     // left blue
 591:..\Slider.cydsn/command_telemetry.c ****                     //=========================================================
 592:..\Slider.cydsn/command_telemetry.c ****                     if ((param_str = strchr(param_str, '-')) == NULL)
 593:..\Slider.cydsn/command_telemetry.c ****                     {
 594:..\Slider.cydsn/command_telemetry.c ****                         send_alarm_telemetry(ALARM_WARNING, cmd_str_and_param, "can't parse LED str
 595:..\Slider.cydsn/command_telemetry.c ****                         return FALSE;
 596:..\Slider.cydsn/command_telemetry.c ****                     }// If we can't find the next '-' character
 597:..\Slider.cydsn/command_telemetry.c ****                     param_str++;
 598:..\Slider.cydsn/command_telemetry.c ****                     led_vec[E_LED_LEFT_BLUE] = atoi(param_str);
 599:..\Slider.cydsn/command_telemetry.c ****                     
 600:..\Slider.cydsn/command_telemetry.c ****                     //=========================================================
 601:..\Slider.cydsn/command_telemetry.c ****                     // All whites
 602:..\Slider.cydsn/command_telemetry.c ****                     //=========================================================                    
 603:..\Slider.cydsn/command_telemetry.c ****                     for(i = 0; i < NUMBER_OF_WHITE_LEDS; i++)
 604:..\Slider.cydsn/command_telemetry.c ****                     {
 605:..\Slider.cydsn/command_telemetry.c ****                         if ((param_str = strchr(param_str, '-')) == NULL)
 606:..\Slider.cydsn/command_telemetry.c ****                         {
 607:..\Slider.cydsn/command_telemetry.c ****                             send_alarm_telemetry(ALARM_WARNING, cmd_str_and_param, "can't parse LED
 608:..\Slider.cydsn/command_telemetry.c ****                             return FALSE;
 609:..\Slider.cydsn/command_telemetry.c ****                         }// If we can't find the next '-' character
 610:..\Slider.cydsn/command_telemetry.c ****                         param_str++;
ARM GAS  C:\Users\MM1005~1\AppData\Local\Temp\cc36bet7.s 			page 22


 611:..\Slider.cydsn/command_telemetry.c ****                         led_vec[i] = atoi(param_str);
 612:..\Slider.cydsn/command_telemetry.c ****                     }// for all the white LEDS
 613:..\Slider.cydsn/command_telemetry.c ****                     
 614:..\Slider.cydsn/command_telemetry.c ****                     //=========================================================
 615:..\Slider.cydsn/command_telemetry.c ****                     // right red
 616:..\Slider.cydsn/command_telemetry.c ****                     //=========================================================
 617:..\Slider.cydsn/command_telemetry.c ****                     if ((param_str = strchr(param_str, '-')) == NULL)
 618:..\Slider.cydsn/command_telemetry.c ****                     {
 619:..\Slider.cydsn/command_telemetry.c ****                         send_alarm_telemetry(ALARM_WARNING, cmd_str_and_param, "can't parse LED str
 620:..\Slider.cydsn/command_telemetry.c ****                         return FALSE;
 621:..\Slider.cydsn/command_telemetry.c ****                     }// If we can't find the next '-' character
 622:..\Slider.cydsn/command_telemetry.c ****                     param_str++;
 623:..\Slider.cydsn/command_telemetry.c ****                     led_vec[E_LED_RIGHT_RED] = atoi(param_str);
 624:..\Slider.cydsn/command_telemetry.c ****                     
 625:..\Slider.cydsn/command_telemetry.c ****                     //=========================================================
 626:..\Slider.cydsn/command_telemetry.c ****                     // right green
 627:..\Slider.cydsn/command_telemetry.c ****                     //=========================================================
 628:..\Slider.cydsn/command_telemetry.c ****                     if ((param_str = strchr(param_str, '-')) == NULL)
 629:..\Slider.cydsn/command_telemetry.c ****                     {
 630:..\Slider.cydsn/command_telemetry.c ****                         send_alarm_telemetry(ALARM_WARNING, cmd_str_and_param, "can't parse LED str
 631:..\Slider.cydsn/command_telemetry.c ****                         return FALSE;
 632:..\Slider.cydsn/command_telemetry.c ****                     }// If we can't find the next '-' character
 633:..\Slider.cydsn/command_telemetry.c ****                     param_str++;
 634:..\Slider.cydsn/command_telemetry.c ****                     led_vec[E_LED_RIGHT_GREEN] = atoi(param_str);
 635:..\Slider.cydsn/command_telemetry.c ****                     
 636:..\Slider.cydsn/command_telemetry.c ****                     //=========================================================
 637:..\Slider.cydsn/command_telemetry.c ****                     // right blue
 638:..\Slider.cydsn/command_telemetry.c ****                     //=========================================================
 639:..\Slider.cydsn/command_telemetry.c ****                     if ((param_str = strchr(param_str, '-')) == NULL)
 640:..\Slider.cydsn/command_telemetry.c ****                     {
 641:..\Slider.cydsn/command_telemetry.c ****                         send_alarm_telemetry(ALARM_WARNING, cmd_str_and_param, "can't parse LED str
 642:..\Slider.cydsn/command_telemetry.c ****                         return FALSE;
 643:..\Slider.cydsn/command_telemetry.c ****                     }// If we can't find the next '-' character
 644:..\Slider.cydsn/command_telemetry.c ****                     param_str++;
 645:..\Slider.cydsn/command_telemetry.c ****                     led_vec[E_LED_RIGHT_BLUE] = atoi(param_str);
 646:..\Slider.cydsn/command_telemetry.c ****                     
 647:..\Slider.cydsn/command_telemetry.c ****                     set_led_strip(led_vec);
 648:..\Slider.cydsn/command_telemetry.c ****                     break;
 649:..\Slider.cydsn/command_telemetry.c ****                 }// CMD_LED_SET_STRIP
 650:..\Slider.cydsn/command_telemetry.c ****                 
 651:..\Slider.cydsn/command_telemetry.c ****                 case CMD_LED_UNKNOWN:
 652:..\Slider.cydsn/command_telemetry.c ****                 default             :
 653:..\Slider.cydsn/command_telemetry.c ****                 {
 654:..\Slider.cydsn/command_telemetry.c ****                     send_alarm_telemetry(ALARM_WARNING, cmd_str_and_param, "unsupported led action"
 655:..\Slider.cydsn/command_telemetry.c ****                     return FALSE;
 656:..\Slider.cydsn/command_telemetry.c ****                 }// CMD_LED_UNKNOWN, default
 657:..\Slider.cydsn/command_telemetry.c ****             }// switch on the led command
 658:..\Slider.cydsn/command_telemetry.c ****             
 659:..\Slider.cydsn/command_telemetry.c ****             break;
 660:..\Slider.cydsn/command_telemetry.c ****         }// CMD_LED
 661:..\Slider.cydsn/command_telemetry.c ****         
 662:..\Slider.cydsn/command_telemetry.c ****         case CMD_SENSOR:
 663:..\Slider.cydsn/command_telemetry.c ****         {
 664:..\Slider.cydsn/command_telemetry.c ****             if ((param_str = strchr(param_str, ',')) == NULL)
 665:..\Slider.cydsn/command_telemetry.c ****             {
 666:..\Slider.cydsn/command_telemetry.c ****                 send_alarm_telemetry(ALARM_WARNING, cmd_str_and_param, "unsupported sensor action")
 667:..\Slider.cydsn/command_telemetry.c ****                 return FALSE;
ARM GAS  C:\Users\MM1005~1\AppData\Local\Temp\cc36bet7.s 			page 23


 668:..\Slider.cydsn/command_telemetry.c ****             }// If we can't find the next ',' character
 669:..\Slider.cydsn/command_telemetry.c ****             
 670:..\Slider.cydsn/command_telemetry.c ****             if ((param_str = strchr(++param_str, ':')) == NULL)
 671:..\Slider.cydsn/command_telemetry.c ****             {
 672:..\Slider.cydsn/command_telemetry.c ****                 send_alarm_telemetry(ALARM_WARNING, cmd_str_and_param, "unsupported sensor action")
 673:..\Slider.cydsn/command_telemetry.c ****                 return FALSE;
 674:..\Slider.cydsn/command_telemetry.c ****             }// If we can't find the next ':' character
 675:..\Slider.cydsn/command_telemetry.c ****             param_str++;
 676:..\Slider.cydsn/command_telemetry.c ****             
 677:..\Slider.cydsn/command_telemetry.c ****             switch (sensor_cmd_id = get_sensor_cmd_id_from_cmd_string(param_str))
 678:..\Slider.cydsn/command_telemetry.c ****             {
 679:..\Slider.cydsn/command_telemetry.c ****                 case CMD_SENSOR_DISABLE:
 680:..\Slider.cydsn/command_telemetry.c ****                 {
 681:..\Slider.cydsn/command_telemetry.c ****                     set_is_sensor_telemetry_enable(FALSE);
 682:..\Slider.cydsn/command_telemetry.c ****                     break;
 683:..\Slider.cydsn/command_telemetry.c ****                 }// CMD_TRACKER_DISABLE      
 684:..\Slider.cydsn/command_telemetry.c ****                 
 685:..\Slider.cydsn/command_telemetry.c ****                 case CMD_SENSOR_ENABLE:
 686:..\Slider.cydsn/command_telemetry.c ****                 {
 687:..\Slider.cydsn/command_telemetry.c ****                     set_is_sensor_telemetry_enable(TRUE);
 688:..\Slider.cydsn/command_telemetry.c ****                     break;
 689:..\Slider.cydsn/command_telemetry.c ****                 }// CMD_TRACKER_ENABLE
 690:..\Slider.cydsn/command_telemetry.c ****                 
 691:..\Slider.cydsn/command_telemetry.c ****                 case CMD_SENSOR_UNKNOWN:
 692:..\Slider.cydsn/command_telemetry.c ****                 default                 :
 693:..\Slider.cydsn/command_telemetry.c ****                 {
 694:..\Slider.cydsn/command_telemetry.c ****                     send_alarm_telemetry(ALARM_WARNING, cmd_str_and_param, "unsupported sensor acti
 695:..\Slider.cydsn/command_telemetry.c ****                     return FALSE;
 696:..\Slider.cydsn/command_telemetry.c ****                 }// CMD_TRACKER_UNKNOWN, default
 697:..\Slider.cydsn/command_telemetry.c ****             }// switch in the tracker action
 698:..\Slider.cydsn/command_telemetry.c ****             break;
 699:..\Slider.cydsn/command_telemetry.c ****         }// CMD_SENSOR
 700:..\Slider.cydsn/command_telemetry.c ****         
 701:..\Slider.cydsn/command_telemetry.c ****        case CMD_TELEMETRY:
 702:..\Slider.cydsn/command_telemetry.c ****         {
 703:..\Slider.cydsn/command_telemetry.c ****             if ((param_str = strchr(param_str, ',')) == NULL)
 704:..\Slider.cydsn/command_telemetry.c ****             {
 705:..\Slider.cydsn/command_telemetry.c ****                 send_alarm_telemetry(ALARM_WARNING, cmd_str_and_param, "unsupported telemetry actio
 706:..\Slider.cydsn/command_telemetry.c ****                 return FALSE;
 707:..\Slider.cydsn/command_telemetry.c ****             }// If we can't find the next ',' character
 708:..\Slider.cydsn/command_telemetry.c ****             
 709:..\Slider.cydsn/command_telemetry.c ****             if ((param_str = strchr(++param_str, ':')) == NULL)
 710:..\Slider.cydsn/command_telemetry.c ****             {
 711:..\Slider.cydsn/command_telemetry.c ****                 send_alarm_telemetry(ALARM_WARNING, cmd_str_and_param, "unsupported telemetry actio
 712:..\Slider.cydsn/command_telemetry.c ****                 return FALSE;
 713:..\Slider.cydsn/command_telemetry.c ****             }// If we can't find the next ':' character
 714:..\Slider.cydsn/command_telemetry.c ****             param_str++;
 715:..\Slider.cydsn/command_telemetry.c ****             
 716:..\Slider.cydsn/command_telemetry.c ****             switch (telemetry_cmd_id = get_telemetry_cmd_id_from_cmd_string(param_str))
 717:..\Slider.cydsn/command_telemetry.c ****             {
 718:..\Slider.cydsn/command_telemetry.c ****                 case CMD_TELEMETRY_DISABLE:
 719:..\Slider.cydsn/command_telemetry.c ****                 {
 720:..\Slider.cydsn/command_telemetry.c ****                     set_is_telemetry_enable(FALSE);
 721:..\Slider.cydsn/command_telemetry.c ****                     break;
 722:..\Slider.cydsn/command_telemetry.c ****                 }// CMD_TRACKER_DISABLE      
 723:..\Slider.cydsn/command_telemetry.c ****                 
 724:..\Slider.cydsn/command_telemetry.c ****                 case CMD_TELEMETRY_ENABLE:
ARM GAS  C:\Users\MM1005~1\AppData\Local\Temp\cc36bet7.s 			page 24


 725:..\Slider.cydsn/command_telemetry.c ****                 {
 726:..\Slider.cydsn/command_telemetry.c ****                     set_is_telemetry_enable(TRUE);
 727:..\Slider.cydsn/command_telemetry.c ****                     break;
 728:..\Slider.cydsn/command_telemetry.c ****                 }// CMD_TRACKER_ENABLE
 729:..\Slider.cydsn/command_telemetry.c ****                 
 730:..\Slider.cydsn/command_telemetry.c ****                 case CMD_TELEMETRY_UNKNOWN:
 731:..\Slider.cydsn/command_telemetry.c ****                 default                   :
 732:..\Slider.cydsn/command_telemetry.c ****                 {
 733:..\Slider.cydsn/command_telemetry.c ****                     send_alarm_telemetry(ALARM_WARNING, cmd_str_and_param, "unsupported telemetry a
 734:..\Slider.cydsn/command_telemetry.c ****                     return FALSE;
 735:..\Slider.cydsn/command_telemetry.c ****                 }// CMD_TRACKER_UNKNOWN, default
 736:..\Slider.cydsn/command_telemetry.c ****             }// switch in the tracker action
 737:..\Slider.cydsn/command_telemetry.c ****             break;
 738:..\Slider.cydsn/command_telemetry.c ****         }// CMD_TELEMETRY
 739:..\Slider.cydsn/command_telemetry.c **** 
 740:..\Slider.cydsn/command_telemetry.c ****         case CMD_TRACKER:
 741:..\Slider.cydsn/command_telemetry.c ****         {
 742:..\Slider.cydsn/command_telemetry.c ****             if ((param_str = strchr(param_str, ',')) == NULL)
 743:..\Slider.cydsn/command_telemetry.c ****             {
 744:..\Slider.cydsn/command_telemetry.c ****                 send_alarm_telemetry(ALARM_WARNING, cmd_str_and_param, "unsupported tracker action"
 745:..\Slider.cydsn/command_telemetry.c ****                 return FALSE;
 746:..\Slider.cydsn/command_telemetry.c ****             }// If we can't find the next ',' character
 747:..\Slider.cydsn/command_telemetry.c ****             
 748:..\Slider.cydsn/command_telemetry.c ****             if ((param_str = strchr(++param_str, ':')) == NULL)
 749:..\Slider.cydsn/command_telemetry.c ****             {
 750:..\Slider.cydsn/command_telemetry.c ****                 send_alarm_telemetry(ALARM_WARNING, cmd_str_and_param, "unsupported tracker action"
 751:..\Slider.cydsn/command_telemetry.c ****                 return FALSE;
 752:..\Slider.cydsn/command_telemetry.c ****             }// If we can't find the next ':' character
 753:..\Slider.cydsn/command_telemetry.c ****             param_str++;
 754:..\Slider.cydsn/command_telemetry.c ****             
 755:..\Slider.cydsn/command_telemetry.c ****             switch (tracker_cmd_id = get_tracker_cmd_id_from_cmd_string(param_str))
 756:..\Slider.cydsn/command_telemetry.c ****             {
 757:..\Slider.cydsn/command_telemetry.c ****                 case CMD_TRACKER_DISABLE:
 758:..\Slider.cydsn/command_telemetry.c ****                 {
 759:..\Slider.cydsn/command_telemetry.c ****                     set_is_tracker_enable(FALSE);
 760:..\Slider.cydsn/command_telemetry.c ****                     break;
 761:..\Slider.cydsn/command_telemetry.c ****                 }// CMD_TRACKER_DISABLE      
 762:..\Slider.cydsn/command_telemetry.c ****                 
 763:..\Slider.cydsn/command_telemetry.c ****                 case CMD_TRACKER_ENABLE:
 764:..\Slider.cydsn/command_telemetry.c ****                 {
 765:..\Slider.cydsn/command_telemetry.c ****                     set_is_tracker_enable(TRUE);
 766:..\Slider.cydsn/command_telemetry.c ****                     break;
 767:..\Slider.cydsn/command_telemetry.c ****                 }// CMD_TRACKER_ENABLE
 768:..\Slider.cydsn/command_telemetry.c ****                 
 769:..\Slider.cydsn/command_telemetry.c ****                 case CMD_TRACKER_SET_BUTTON:
 770:..\Slider.cydsn/command_telemetry.c ****                 {
 771:..\Slider.cydsn/command_telemetry.c ****                     if ((param_str = strchr(param_str, ',')) == NULL)
 772:..\Slider.cydsn/command_telemetry.c ****                     {
 773:..\Slider.cydsn/command_telemetry.c ****                         send_alarm_telemetry(ALARM_WARNING, cmd_str_and_param, "unsupported tracker
 774:..\Slider.cydsn/command_telemetry.c ****                         return FALSE;
 775:..\Slider.cydsn/command_telemetry.c ****                     }// If we can't find the next ',' character
 776:..\Slider.cydsn/command_telemetry.c ****             
 777:..\Slider.cydsn/command_telemetry.c ****                     if ((param_str = strchr(++param_str, ':')) == NULL)
 778:..\Slider.cydsn/command_telemetry.c ****                     {
 779:..\Slider.cydsn/command_telemetry.c ****                         send_alarm_telemetry(ALARM_WARNING, cmd_str_and_param, "unsupported tracker
 780:..\Slider.cydsn/command_telemetry.c ****                         return FALSE;
 781:..\Slider.cydsn/command_telemetry.c ****                     }// If we can't find the next ':' character
ARM GAS  C:\Users\MM1005~1\AppData\Local\Temp\cc36bet7.s 			page 25


 782:..\Slider.cydsn/command_telemetry.c ****                     param_str++;
 783:..\Slider.cydsn/command_telemetry.c ****                     set_number_of_buttons (atoi(param_str));
 784:..\Slider.cydsn/command_telemetry.c ****                     break;
 785:..\Slider.cydsn/command_telemetry.c ****                 }// CMD_TRACKER_SET_BUTTON
 786:..\Slider.cydsn/command_telemetry.c ****                 
 787:..\Slider.cydsn/command_telemetry.c ****                 case CMD_TRACKER_UNKNOWN:
 788:..\Slider.cydsn/command_telemetry.c ****                 default                 :
 789:..\Slider.cydsn/command_telemetry.c ****                 {
 790:..\Slider.cydsn/command_telemetry.c ****                     send_alarm_telemetry(ALARM_WARNING, cmd_str_and_param, "unsupported tracker act
 791:..\Slider.cydsn/command_telemetry.c ****                     return FALSE;
 792:..\Slider.cydsn/command_telemetry.c ****                 }// CMD_TRACKER_UNKNOWN, default
 793:..\Slider.cydsn/command_telemetry.c ****             }// switch in the tracker action
 794:..\Slider.cydsn/command_telemetry.c ****             break;
 795:..\Slider.cydsn/command_telemetry.c ****         }// CMD_TRACKER
 796:..\Slider.cydsn/command_telemetry.c ****         
 797:..\Slider.cydsn/command_telemetry.c ****         case CMD_VERSION:
 798:..\Slider.cydsn/command_telemetry.c ****         {
 799:..\Slider.cydsn/command_telemetry.c ****             send_alarm_telemetry(ALARM_INFO, "version", get_software_version());
 800:..\Slider.cydsn/command_telemetry.c ****             break;
 801:..\Slider.cydsn/command_telemetry.c ****         }// CMD_VERSION
 802:..\Slider.cydsn/command_telemetry.c ****         
 803:..\Slider.cydsn/command_telemetry.c ****         case CMD_UNKNOWN:
 804:..\Slider.cydsn/command_telemetry.c ****         default         :
 805:..\Slider.cydsn/command_telemetry.c ****         {
 806:..\Slider.cydsn/command_telemetry.c ****             send_alarm_telemetry(ALARM_WARNING, cmd_str_and_param, "unsupported command");
 807:..\Slider.cydsn/command_telemetry.c ****             return FALSE;
 808:..\Slider.cydsn/command_telemetry.c ****         }// default
 809:..\Slider.cydsn/command_telemetry.c ****     }// switch cmd id
 810:..\Slider.cydsn/command_telemetry.c ****     
 811:..\Slider.cydsn/command_telemetry.c ****     return TRUE; // the command succeed 
 812:..\Slider.cydsn/command_telemetry.c **** }// parse_and_execute_command
 813:..\Slider.cydsn/command_telemetry.c **** 
 814:..\Slider.cydsn/command_telemetry.c **** //=============================================================================
 815:..\Slider.cydsn/command_telemetry.c **** //============================================ send_bootloader_config_telemetry
 816:..\Slider.cydsn/command_telemetry.c **** //=============================================================================
 817:..\Slider.cydsn/command_telemetry.c **** void send_bootloader_config_telemetry(void)
 818:..\Slider.cydsn/command_telemetry.c **** {
 572              		.loc 1 818 0
 573              		.cfi_startproc
 819:..\Slider.cydsn/command_telemetry.c ****     // FIXME!
 820:..\Slider.cydsn/command_telemetry.c **** }// send_bootloader_config_telemetry
 574              		.loc 1 820 0
 575              		@ sp needed
 576 0000 7047     		bx	lr
 577              		.cfi_endproc
 578              	.LFE44:
 579              		.size	send_bootloader_config_telemetry, .-send_bootloader_config_telemetry
 580 0002 C046     		.section	.text.send_telemetry_capsense,"ax",%progbits
 581              		.align	2
 582              		.global	send_telemetry_capsense
 583              		.code	16
 584              		.thumb_func
 585              		.type	send_telemetry_capsense, %function
 586              	send_telemetry_capsense:
 587              	.LFB47:
 821:..\Slider.cydsn/command_telemetry.c **** 
 822:..\Slider.cydsn/command_telemetry.c **** //=============================================================================
ARM GAS  C:\Users\MM1005~1\AppData\Local\Temp\cc36bet7.s 			page 26


 823:..\Slider.cydsn/command_telemetry.c **** //======================================================== send_alarm_telemetry
 824:..\Slider.cydsn/command_telemetry.c **** //=============================================================================
 825:..\Slider.cydsn/command_telemetry.c **** void send_alarm_telemetry(t_enum_alarm_type alarm_type, const char* source, const char* description
 826:..\Slider.cydsn/command_telemetry.c **** {
 827:..\Slider.cydsn/command_telemetry.c ****     const char* alarm_string[ALARM_UNKNOWN] = {"log", "info", "warning", "error", "fatal"};
 828:..\Slider.cydsn/command_telemetry.c ****  
 829:..\Slider.cydsn/command_telemetry.c ****     memset(telemetry, '\0', sizeof(telemetry));
 830:..\Slider.cydsn/command_telemetry.c ****     
 831:..\Slider.cydsn/command_telemetry.c ****     strcpy(telemetry, "{\"event\":\"alarm\", \"type\":\"");
 832:..\Slider.cydsn/command_telemetry.c ****     strcat(telemetry, alarm_string[alarm_type]);
 833:..\Slider.cydsn/command_telemetry.c ****     strcat(telemetry, "\", \"source\":\"");
 834:..\Slider.cydsn/command_telemetry.c ****     strcat(telemetry, source);
 835:..\Slider.cydsn/command_telemetry.c ****     strcat(telemetry, "\", \"description\":\"");
 836:..\Slider.cydsn/command_telemetry.c ****     strcat(telemetry, description);
 837:..\Slider.cydsn/command_telemetry.c ****     strcat(telemetry, "\"}");
 838:..\Slider.cydsn/command_telemetry.c ****     
 839:..\Slider.cydsn/command_telemetry.c ****     send_telemetry(telemetry);
 840:..\Slider.cydsn/command_telemetry.c **** }// send_alarm_telemetry
 841:..\Slider.cydsn/command_telemetry.c **** 
 842:..\Slider.cydsn/command_telemetry.c **** //=============================================================================
 843:..\Slider.cydsn/command_telemetry.c **** //==================================================== send_animation_telemetry
 844:..\Slider.cydsn/command_telemetry.c **** //=============================================================================
 845:..\Slider.cydsn/command_telemetry.c **** void send_animation_telemetry(t_enum_animation animation_index, const char* action)
 846:..\Slider.cydsn/command_telemetry.c **** {
 847:..\Slider.cydsn/command_telemetry.c ****     t_struct_animation animation;
 848:..\Slider.cydsn/command_telemetry.c ****  
 849:..\Slider.cydsn/command_telemetry.c ****     get_animation(animation_index, &animation);
 850:..\Slider.cydsn/command_telemetry.c ****     
 851:..\Slider.cydsn/command_telemetry.c ****     memset(telemetry, '\0', sizeof(telemetry));
 852:..\Slider.cydsn/command_telemetry.c ****     strcpy(telemetry, "{\"event\":\"animation\", \"name\":\"");
 853:..\Slider.cydsn/command_telemetry.c ****     strcat(telemetry, animation.description);
 854:..\Slider.cydsn/command_telemetry.c ****     strcat(telemetry, "\", \"action\":\"");
 855:..\Slider.cydsn/command_telemetry.c ****     strcat(telemetry, action);
 856:..\Slider.cydsn/command_telemetry.c ****     strcat(telemetry, "\"}");
 857:..\Slider.cydsn/command_telemetry.c ****     
 858:..\Slider.cydsn/command_telemetry.c ****     send_telemetry(telemetry);
 859:..\Slider.cydsn/command_telemetry.c **** }// send_animation_telemetry
 860:..\Slider.cydsn/command_telemetry.c **** 
 861:..\Slider.cydsn/command_telemetry.c **** //=============================================================================
 862:..\Slider.cydsn/command_telemetry.c **** //===================================================== send_telemetry_capsense
 863:..\Slider.cydsn/command_telemetry.c **** //=============================================================================
 864:..\Slider.cydsn/command_telemetry.c **** void send_telemetry_capsense(void)
 865:..\Slider.cydsn/command_telemetry.c **** {
 588              		.loc 1 865 0
 589              		.cfi_startproc
 866:..\Slider.cydsn/command_telemetry.c **** #ifndef PROFESSOR
 867:..\Slider.cydsn/command_telemetry.c ****     uint16 i;
 868:..\Slider.cydsn/command_telemetry.c ****     uint16 nb_sensors = CapSense_GET_SENSOR_COUNT(0);
 869:..\Slider.cydsn/command_telemetry.c ****    
 870:..\Slider.cydsn/command_telemetry.c ****     for (i = 0; i < nb_sensors; i++)
 871:..\Slider.cydsn/command_telemetry.c ****     {
 872:..\Slider.cydsn/command_telemetry.c ****         memset(telemetry, '\0', sizeof(telemetry));
 873:..\Slider.cydsn/command_telemetry.c ****         strcpy(telemetry, "{\"event\":\"sensor\", \"id\":");
 874:..\Slider.cydsn/command_telemetry.c ****         strcat(telemetry, itoa(i));
 875:..\Slider.cydsn/command_telemetry.c ****         strcat(telemetry, ", \"raw\":");
 876:..\Slider.cydsn/command_telemetry.c ****         strcat(telemetry, itoa(CapSense_dsRam.snsList.linearslider0[i].raw[0]));
 877:..\Slider.cydsn/command_telemetry.c ****         strcat(telemetry, ", \"baseline\":");
ARM GAS  C:\Users\MM1005~1\AppData\Local\Temp\cc36bet7.s 			page 27


 878:..\Slider.cydsn/command_telemetry.c ****         strcat(telemetry, itoa(CapSense_dsRam.snsList.linearslider0[i].bsln[0]));
 879:..\Slider.cydsn/command_telemetry.c ****         strcat(telemetry, ", \"bucket baseline\":");
 880:..\Slider.cydsn/command_telemetry.c ****         strcat(telemetry, itoa(CapSense_dsRam.snsList.linearslider0[i].bslnExt[0]));
 881:..\Slider.cydsn/command_telemetry.c ****         strcat(telemetry, ", \"diff\":");
 882:..\Slider.cydsn/command_telemetry.c ****         strcat(telemetry, itoa(CapSense_dsRam.snsList.linearslider0[i].diff));
 883:..\Slider.cydsn/command_telemetry.c ****         strcat(telemetry, ", \"baseline reset\":");
 884:..\Slider.cydsn/command_telemetry.c ****         strcat(telemetry, itoa(CapSense_dsRam.snsList.linearslider0[i].negBslnRstCnt[0]));
 885:..\Slider.cydsn/command_telemetry.c ****         strcat(telemetry, ", \"IDAC\":");
 886:..\Slider.cydsn/command_telemetry.c ****         strcat(telemetry, itoa(CapSense_dsRam.snsList.linearslider0[i].idacComp[0]));
 887:..\Slider.cydsn/command_telemetry.c ****         strcat(telemetry, "\"}");
 888:..\Slider.cydsn/command_telemetry.c ****         send_telemetry(telemetry);
 889:..\Slider.cydsn/command_telemetry.c ****     }// for all the sensors
 890:..\Slider.cydsn/command_telemetry.c **** #endif
 891:..\Slider.cydsn/command_telemetry.c **** }// send_telemetry_capsense
 590              		.loc 1 891 0
 591              		@ sp needed
 592 0000 7047     		bx	lr
 593              		.cfi_endproc
 594              	.LFE47:
 595              		.size	send_telemetry_capsense, .-send_telemetry_capsense
 596 0002 C046     		.section	.text.get_is_telemetry_enable,"ax",%progbits
 597              		.align	2
 598              		.global	get_is_telemetry_enable
 599              		.code	16
 600              		.thumb_func
 601              		.type	get_is_telemetry_enable, %function
 602              	get_is_telemetry_enable:
 603              	.LFB52:
 892:..\Slider.cydsn/command_telemetry.c **** 
 893:..\Slider.cydsn/command_telemetry.c **** //=============================================================================
 894:..\Slider.cydsn/command_telemetry.c **** //======================================================= send_button_telemetry
 895:..\Slider.cydsn/command_telemetry.c **** //=============================================================================
 896:..\Slider.cydsn/command_telemetry.c **** void send_button_telemetry(int button, const char* action, t_enum_direction finger_direct, uint16 a
 897:..\Slider.cydsn/command_telemetry.c **** {
 898:..\Slider.cydsn/command_telemetry.c ****     int           nb_touched       =  0;
 899:..\Slider.cydsn/command_telemetry.c ****     long long int clock_time       = (get_timer_interrrupt_count() << 16) + Timer_1_ReadCounter();
 900:..\Slider.cydsn/command_telemetry.c ****     char          str_direction[2] = {finger_direct, '\0'};
 901:..\Slider.cydsn/command_telemetry.c ****     uint16        max_sensor       = 0;
 902:..\Slider.cydsn/command_telemetry.c ****     char          sensors_vec[64];
 903:..\Slider.cydsn/command_telemetry.c ****     uint16        i;
 904:..\Slider.cydsn/command_telemetry.c **** 
 905:..\Slider.cydsn/command_telemetry.c ****     memset(telemetry  , '\0', sizeof(telemetry  ));
 906:..\Slider.cydsn/command_telemetry.c ****     memset(sensors_vec, '\0', sizeof(sensors_vec));
 907:..\Slider.cydsn/command_telemetry.c ****     
 908:..\Slider.cydsn/command_telemetry.c ****     max_sensor = min(CapSense_GET_SENSOR_COUNT(0), sizeof(sensors_vec) - 1);
 909:..\Slider.cydsn/command_telemetry.c ****          
 910:..\Slider.cydsn/command_telemetry.c ****     for (i = 0; i < max_sensor; i++)
 911:..\Slider.cydsn/command_telemetry.c ****     {
 912:..\Slider.cydsn/command_telemetry.c ****         if (CapSense_IsSensorActive(0, i))
 913:..\Slider.cydsn/command_telemetry.c ****         {
 914:..\Slider.cydsn/command_telemetry.c ****             nb_touched++;
 915:..\Slider.cydsn/command_telemetry.c ****             sensors_vec[i] = '1';
 916:..\Slider.cydsn/command_telemetry.c ****         }
 917:..\Slider.cydsn/command_telemetry.c ****         else
 918:..\Slider.cydsn/command_telemetry.c ****         {
 919:..\Slider.cydsn/command_telemetry.c ****              sensors_vec[i] = '0';  
 920:..\Slider.cydsn/command_telemetry.c ****         }
ARM GAS  C:\Users\MM1005~1\AppData\Local\Temp\cc36bet7.s 			page 28


 921:..\Slider.cydsn/command_telemetry.c ****     }// for all the sensors;
 922:..\Slider.cydsn/command_telemetry.c ****     
 923:..\Slider.cydsn/command_telemetry.c ****     strcpy(telemetry, "{\"event\":\"button\", \"id\":");
 924:..\Slider.cydsn/command_telemetry.c ****     strcat(telemetry, itoa(button));
 925:..\Slider.cydsn/command_telemetry.c **** #if USE_ALL_BUTTON_TELE     
 926:..\Slider.cydsn/command_telemetry.c ****     strcat(telemetry, ", \"sensor count\":");
 927:..\Slider.cydsn/command_telemetry.c ****     strcat(telemetry, itoa(nb_touched));
 928:..\Slider.cydsn/command_telemetry.c ****     strcat(telemetry, ", \"clock\":");
 929:..\Slider.cydsn/command_telemetry.c ****     strcat(telemetry, itoa(clock_time));
 930:..\Slider.cydsn/command_telemetry.c ****     strcat(telemetry, ", \"direction\":\"");
 931:..\Slider.cydsn/command_telemetry.c ****     strcat(telemetry, str_direction);
 932:..\Slider.cydsn/command_telemetry.c ****     strcat(telemetry, "\", \"sensors\":\"");
 933:..\Slider.cydsn/command_telemetry.c ****     strcat(telemetry, sensors_vec);
 934:..\Slider.cydsn/command_telemetry.c ****     strcat(telemetry, "\", \"actual raw pos\":");
 935:..\Slider.cydsn/command_telemetry.c ****     strcat(telemetry, itoa(actual_raw_pos));
 936:..\Slider.cydsn/command_telemetry.c ****     strcat(telemetry, ", \"previous raw pos\":");
 937:..\Slider.cydsn/command_telemetry.c ****     strcat(telemetry, itoa(previous_raw_pos));
 938:..\Slider.cydsn/command_telemetry.c **** #endif //  USE_ALL_BUTTON_TELE   
 939:..\Slider.cydsn/command_telemetry.c ****     strcat(telemetry, ", \"action\":\"");
 940:..\Slider.cydsn/command_telemetry.c ****     strcat(telemetry, action);
 941:..\Slider.cydsn/command_telemetry.c ****     strcat(telemetry, "\"}");
 942:..\Slider.cydsn/command_telemetry.c ****     
 943:..\Slider.cydsn/command_telemetry.c ****     send_telemetry(telemetry);
 944:..\Slider.cydsn/command_telemetry.c ****     
 945:..\Slider.cydsn/command_telemetry.c ****     if (get_is_sensor_telemetry_enable())
 946:..\Slider.cydsn/command_telemetry.c ****     {
 947:..\Slider.cydsn/command_telemetry.c ****         send_telemetry_capsense();      
 948:..\Slider.cydsn/command_telemetry.c ****     }
 949:..\Slider.cydsn/command_telemetry.c **** }// send_button_telemetry
 950:..\Slider.cydsn/command_telemetry.c **** 
 951:..\Slider.cydsn/command_telemetry.c **** //=============================================================================
 952:..\Slider.cydsn/command_telemetry.c **** //================================================== send_push_button_telemetry
 953:..\Slider.cydsn/command_telemetry.c **** //=============================================================================
 954:..\Slider.cydsn/command_telemetry.c **** void send_push_button_telemetry(uint8 capsense_id, char* button_name, BOOL is_button_down)
 955:..\Slider.cydsn/command_telemetry.c **** {
 956:..\Slider.cydsn/command_telemetry.c ****     memset(telemetry, '\0', sizeof(telemetry));
 957:..\Slider.cydsn/command_telemetry.c ****     
 958:..\Slider.cydsn/command_telemetry.c ****     strcat(telemetry, "{\"event\":\"push button\", \"id\":");
 959:..\Slider.cydsn/command_telemetry.c ****     strcat(telemetry, itoa(capsense_id));
 960:..\Slider.cydsn/command_telemetry.c ****     strcat(telemetry, ", \"name\":\"");
 961:..\Slider.cydsn/command_telemetry.c ****     strcat(telemetry, button_name);
 962:..\Slider.cydsn/command_telemetry.c ****     strcat(telemetry, "\", \"state\":\"");
 963:..\Slider.cydsn/command_telemetry.c ****     strcat(telemetry, is_button_down ? "down" : "up"); 
 964:..\Slider.cydsn/command_telemetry.c ****     strcat(telemetry, "\"}");
 965:..\Slider.cydsn/command_telemetry.c ****     
 966:..\Slider.cydsn/command_telemetry.c ****     send_telemetry(telemetry);
 967:..\Slider.cydsn/command_telemetry.c **** }// send_push_button_telemetry
 968:..\Slider.cydsn/command_telemetry.c **** 
 969:..\Slider.cydsn/command_telemetry.c **** //=============================================================================
 970:..\Slider.cydsn/command_telemetry.c **** //=============================================== send_flash_geometry_telemetry
 971:..\Slider.cydsn/command_telemetry.c **** //=============================================================================
 972:..\Slider.cydsn/command_telemetry.c **** void send_flash_geometry_telemetry(uint32 flash_checksum, uint32 flash_first_row, uint32 flash_last
 973:..\Slider.cydsn/command_telemetry.c **** {
 974:..\Slider.cydsn/command_telemetry.c ****     memset(telemetry, '\0', sizeof(telemetry));
 975:..\Slider.cydsn/command_telemetry.c ****     strcpy(telemetry, "{\"event\":\"flash geometry\", \"checksum\":");
 976:..\Slider.cydsn/command_telemetry.c ****     strcat(telemetry, itoa(flash_checksum));
 977:..\Slider.cydsn/command_telemetry.c ****     strcat(telemetry, ", \"first row\":");
ARM GAS  C:\Users\MM1005~1\AppData\Local\Temp\cc36bet7.s 			page 29


 978:..\Slider.cydsn/command_telemetry.c ****     strcat(telemetry, itoa(flash_first_row));
 979:..\Slider.cydsn/command_telemetry.c ****     strcat(telemetry, ", \"last row\":");
 980:..\Slider.cydsn/command_telemetry.c ****     strcat(telemetry, itoa(flash_last_row));
 981:..\Slider.cydsn/command_telemetry.c ****     strcat(telemetry, ", \"size\":");
 982:..\Slider.cydsn/command_telemetry.c ****     strcat(telemetry, itoa(flash_size));
 983:..\Slider.cydsn/command_telemetry.c ****     strcat(telemetry, "}");
 984:..\Slider.cydsn/command_telemetry.c ****     
 985:..\Slider.cydsn/command_telemetry.c ****     send_telemetry(telemetry);
 986:..\Slider.cydsn/command_telemetry.c **** }// send_flash_geometry_telemetry
 987:..\Slider.cydsn/command_telemetry.c **** 
 988:..\Slider.cydsn/command_telemetry.c **** //=============================================================================
 989:..\Slider.cydsn/command_telemetry.c **** //============================================================== send_telemetry
 990:..\Slider.cydsn/command_telemetry.c **** //=============================================================================
 991:..\Slider.cydsn/command_telemetry.c **** void send_telemetry(const char *telemetry)
 992:..\Slider.cydsn/command_telemetry.c **** {
 993:..\Slider.cydsn/command_telemetry.c ****     if (get_is_telemetry_enable())
 994:..\Slider.cydsn/command_telemetry.c ****     {
 995:..\Slider.cydsn/command_telemetry.c ****         CapSense_ISR_Disable();
 996:..\Slider.cydsn/command_telemetry.c ****         CommsSendData(telemetry);
 997:..\Slider.cydsn/command_telemetry.c ****         CapSense_ISR_Enable();
 998:..\Slider.cydsn/command_telemetry.c ****     }// If the telemetry are enable
 999:..\Slider.cydsn/command_telemetry.c **** }// send_button_telemetry
1000:..\Slider.cydsn/command_telemetry.c **** 
1001:..\Slider.cydsn/command_telemetry.c **** //=============================================================================
1002:..\Slider.cydsn/command_telemetry.c **** //===================================================== get_is_telemetry_enable
1003:..\Slider.cydsn/command_telemetry.c **** //=============================================================================
1004:..\Slider.cydsn/command_telemetry.c **** BOOL get_is_telemetry_enable()
1005:..\Slider.cydsn/command_telemetry.c **** {
 604              		.loc 1 1005 0
 605              		.cfi_startproc
1006:..\Slider.cydsn/command_telemetry.c ****     return is_telemetry_enable;
 606              		.loc 1 1006 0
 607 0000 014B     		ldr	r3, .L58
 608 0002 1878     		ldrb	r0, [r3]
1007:..\Slider.cydsn/command_telemetry.c **** }// get_is_telemetry_enable
 609              		.loc 1 1007 0
 610              		@ sp needed
 611 0004 7047     		bx	lr
 612              	.L59:
 613 0006 C046     		.align	2
 614              	.L58:
 615 0008 00000000 		.word	.LANCHOR3
 616              		.cfi_endproc
 617              	.LFE52:
 618              		.size	get_is_telemetry_enable, .-get_is_telemetry_enable
 619              		.section	.text.send_telemetry,"ax",%progbits
 620              		.align	2
 621              		.global	send_telemetry
 622              		.code	16
 623              		.thumb_func
 624              		.type	send_telemetry, %function
 625              	send_telemetry:
 626              	.LFB51:
 992:..\Slider.cydsn/command_telemetry.c ****     if (get_is_telemetry_enable())
 627              		.loc 1 992 0
 628              		.cfi_startproc
 629              	.LVL71:
ARM GAS  C:\Users\MM1005~1\AppData\Local\Temp\cc36bet7.s 			page 30


 630 0000 10B5     		push	{r4, lr}
 631              		.cfi_def_cfa_offset 8
 632              		.cfi_offset 4, -8
 633              		.cfi_offset 14, -4
 634 0002 041C     		mov	r4, r0
 993:..\Slider.cydsn/command_telemetry.c ****     {
 635              		.loc 1 993 0
 636 0004 FFF7FEFF 		bl	get_is_telemetry_enable
 637              	.LVL72:
 638 0008 0028     		cmp	r0, #0
 639 000a 06D0     		beq	.L60
 995:..\Slider.cydsn/command_telemetry.c ****         CommsSendData(telemetry);
 640              		.loc 1 995 0
 641 000c FFF7FEFF 		bl	CapSense_ISR_Disable
 642              	.LVL73:
 996:..\Slider.cydsn/command_telemetry.c ****         CapSense_ISR_Enable();
 643              		.loc 1 996 0
 644 0010 201C     		mov	r0, r4
 645 0012 FFF7FEFF 		bl	CommsSendData
 646              	.LVL74:
 997:..\Slider.cydsn/command_telemetry.c ****     }// If the telemetry are enable
 647              		.loc 1 997 0
 648 0016 FFF7FEFF 		bl	CapSense_ISR_Enable
 649              	.LVL75:
 650              	.L60:
 999:..\Slider.cydsn/command_telemetry.c **** 
 651              		.loc 1 999 0
 652              		@ sp needed
 653              	.LVL76:
 654 001a 10BD     		pop	{r4, pc}
 655              		.cfi_endproc
 656              	.LFE51:
 657              		.size	send_telemetry, .-send_telemetry
 658              		.section	.text.send_alarm_telemetry,"ax",%progbits
 659              		.align	2
 660              		.global	send_alarm_telemetry
 661              		.code	16
 662              		.thumb_func
 663              		.type	send_alarm_telemetry, %function
 664              	send_alarm_telemetry:
 665              	.LFB45:
 826:..\Slider.cydsn/command_telemetry.c ****     const char* alarm_string[ALARM_UNKNOWN] = {"log", "info", "warning", "error", "fatal"};
 666              		.loc 1 826 0
 667              		.cfi_startproc
 668              	.LVL77:
 669 0000 F0B5     		push	{r4, r5, r6, r7, lr}
 670              		.cfi_def_cfa_offset 20
 671              		.cfi_offset 4, -20
 672              		.cfi_offset 5, -16
 673              		.cfi_offset 6, -12
 674              		.cfi_offset 7, -8
 675              		.cfi_offset 14, -4
 676 0002 4746     		mov	r7, r8
 677 0004 80B4     		push	{r7}
 678              		.cfi_def_cfa_offset 24
 679              		.cfi_offset 8, -24
 680 0006 88B0     		sub	sp, sp, #32
ARM GAS  C:\Users\MM1005~1\AppData\Local\Temp\cc36bet7.s 			page 31


 681              		.cfi_def_cfa_offset 56
 682 0008 8046     		mov	r8, r0
 683 000a 0E1C     		mov	r6, r1
 684 000c 0192     		str	r2, [sp, #4]
 827:..\Slider.cydsn/command_telemetry.c ****  
 685              		.loc 1 827 0
 686 000e 03AF     		add	r7, sp, #12
 687 0010 3A1C     		mov	r2, r7
 688              	.LVL78:
 689 0012 234B     		ldr	r3, .L63
 690 0014 5033     		add	r3, r3, #80
 691 0016 13CB     		ldmia	r3!, {r0, r1, r4}
 692 0018 13C2     		stmia	r2!, {r0, r1, r4}
 693              	.LVL79:
 694 001a 11CB     		ldmia	r3!, {r0, r4}
 695 001c 11C2     		stmia	r2!, {r0, r4}
 829:..\Slider.cydsn/command_telemetry.c ****     
 696              		.loc 1 829 0
 697 001e 214C     		ldr	r4, .L63+4
 698 0020 0434     		add	r4, r4, #4
 699 0022 201C     		mov	r0, r4
 700 0024 0021     		mov	r1, #0
 701 0026 8022     		mov	r2, #128
 702 0028 9200     		lsl	r2, r2, #2
 703 002a FFF7FEFF 		bl	memset
 704              	.LVL80:
 831:..\Slider.cydsn/command_telemetry.c ****     strcat(telemetry, alarm_string[alarm_type]);
 705              		.loc 1 831 0
 706 002e 1E49     		ldr	r1, .L63+8
 707 0030 231C     		mov	r3, r4
 708 0032 0A1C     		mov	r2, r1
 709 0034 23CA     		ldmia	r2!, {r0, r1, r5}
 710 0036 23C3     		stmia	r3!, {r0, r1, r5}
 711 0038 23CA     		ldmia	r2!, {r0, r1, r5}
 712 003a 23C3     		stmia	r3!, {r0, r1, r5}
 713 003c 1188     		ldrh	r1, [r2]
 714 003e 1980     		strh	r1, [r3]
 715 0040 9278     		ldrb	r2, [r2, #2]
 716 0042 9A70     		strb	r2, [r3, #2]
 832:..\Slider.cydsn/command_telemetry.c ****     strcat(telemetry, "\", \"source\":\"");
 717              		.loc 1 832 0
 718 0044 4346     		mov	r3, r8
 719 0046 9B00     		lsl	r3, r3, #2
 720 0048 D959     		ldr	r1, [r3, r7]
 721 004a 201C     		mov	r0, r4
 722 004c FFF7FEFF 		bl	strcat
 723              	.LVL81:
 833:..\Slider.cydsn/command_telemetry.c ****     strcat(telemetry, source);
 724              		.loc 1 833 0
 725 0050 201C     		mov	r0, r4
 726 0052 FFF7FEFF 		bl	strlen
 727              	.LVL82:
 728 0056 2018     		add	r0, r4, r0
 729 0058 1449     		ldr	r1, .L63+12
 730 005a 0E22     		mov	r2, #14
 731 005c FFF7FEFF 		bl	memcpy
 732              	.LVL83:
ARM GAS  C:\Users\MM1005~1\AppData\Local\Temp\cc36bet7.s 			page 32


 834:..\Slider.cydsn/command_telemetry.c ****     strcat(telemetry, "\", \"description\":\"");
 733              		.loc 1 834 0
 734 0060 201C     		mov	r0, r4
 735 0062 311C     		mov	r1, r6
 736 0064 FFF7FEFF 		bl	strcat
 737              	.LVL84:
 835:..\Slider.cydsn/command_telemetry.c ****     strcat(telemetry, description);
 738              		.loc 1 835 0
 739 0068 201C     		mov	r0, r4
 740 006a FFF7FEFF 		bl	strlen
 741              	.LVL85:
 742 006e 2018     		add	r0, r4, r0
 743 0070 0F49     		ldr	r1, .L63+16
 744 0072 1322     		mov	r2, #19
 745 0074 FFF7FEFF 		bl	memcpy
 746              	.LVL86:
 836:..\Slider.cydsn/command_telemetry.c ****     strcat(telemetry, "\"}");
 747              		.loc 1 836 0
 748 0078 201C     		mov	r0, r4
 749 007a 0199     		ldr	r1, [sp, #4]
 750 007c FFF7FEFF 		bl	strcat
 751              	.LVL87:
 837:..\Slider.cydsn/command_telemetry.c ****     
 752              		.loc 1 837 0
 753 0080 201C     		mov	r0, r4
 754 0082 FFF7FEFF 		bl	strlen
 755              	.LVL88:
 756 0086 2018     		add	r0, r4, r0
 757 0088 0A49     		ldr	r1, .L63+20
 758 008a 0322     		mov	r2, #3
 759 008c FFF7FEFF 		bl	memcpy
 760              	.LVL89:
 839:..\Slider.cydsn/command_telemetry.c **** }// send_alarm_telemetry
 761              		.loc 1 839 0
 762 0090 201C     		mov	r0, r4
 763 0092 FFF7FEFF 		bl	send_telemetry
 764              	.LVL90:
 840:..\Slider.cydsn/command_telemetry.c **** 
 765              		.loc 1 840 0
 766 0096 08B0     		add	sp, sp, #32
 767              		@ sp needed
 768              	.LVL91:
 769 0098 04BC     		pop	{r2}
 770 009a 9046     		mov	r8, r2
 771 009c F0BD     		pop	{r4, r5, r6, r7, pc}
 772              	.L64:
 773 009e C046     		.align	2
 774              	.L63:
 775 00a0 38010000 		.word	.LANCHOR2
 776 00a4 00000000 		.word	.LANCHOR3
 777 00a8 00000000 		.word	.LC17
 778 00ac 1C000000 		.word	.LC19
 779 00b0 2C000000 		.word	.LC21
 780 00b4 40000000 		.word	.LC23
 781              		.cfi_endproc
 782              	.LFE45:
 783              		.size	send_alarm_telemetry, .-send_alarm_telemetry
ARM GAS  C:\Users\MM1005~1\AppData\Local\Temp\cc36bet7.s 			page 33


 784              		.section	.text.send_animation_telemetry,"ax",%progbits
 785              		.align	2
 786              		.global	send_animation_telemetry
 787              		.code	16
 788              		.thumb_func
 789              		.type	send_animation_telemetry, %function
 790              	send_animation_telemetry:
 791              	.LFB46:
 846:..\Slider.cydsn/command_telemetry.c ****     t_struct_animation animation;
 792              		.loc 1 846 0
 793              		.cfi_startproc
 794              	.LVL92:
 795 0000 70B5     		push	{r4, r5, r6, lr}
 796              		.cfi_def_cfa_offset 16
 797              		.cfi_offset 4, -16
 798              		.cfi_offset 5, -12
 799              		.cfi_offset 6, -8
 800              		.cfi_offset 14, -4
 801 0002 84B0     		sub	sp, sp, #16
 802              		.cfi_def_cfa_offset 32
 803 0004 0D1C     		mov	r5, r1
 849:..\Slider.cydsn/command_telemetry.c ****     
 804              		.loc 1 849 0
 805 0006 01A9     		add	r1, sp, #4
 806              	.LVL93:
 807 0008 FFF7FEFF 		bl	get_animation
 808              	.LVL94:
 851:..\Slider.cydsn/command_telemetry.c ****     strcpy(telemetry, "{\"event\":\"animation\", \"name\":\"");
 809              		.loc 1 851 0
 810 000c 184C     		ldr	r4, .L66
 811 000e 0434     		add	r4, r4, #4
 812 0010 201C     		mov	r0, r4
 813 0012 0021     		mov	r1, #0
 814 0014 8022     		mov	r2, #128
 815 0016 9200     		lsl	r2, r2, #2
 816 0018 FFF7FEFF 		bl	memset
 817              	.LVL95:
 852:..\Slider.cydsn/command_telemetry.c ****     strcat(telemetry, animation.description);
 818              		.loc 1 852 0
 819 001c 1549     		ldr	r1, .L66+4
 820 001e 231C     		mov	r3, r4
 821 0020 0A1C     		mov	r2, r1
 822 0022 43CA     		ldmia	r2!, {r0, r1, r6}
 823 0024 43C3     		stmia	r3!, {r0, r1, r6}
 824 0026 43CA     		ldmia	r2!, {r0, r1, r6}
 825 0028 43C3     		stmia	r3!, {r0, r1, r6}
 826 002a 1168     		ldr	r1, [r2]
 827 002c 1960     		str	r1, [r3]
 828 002e 9188     		ldrh	r1, [r2, #4]
 829 0030 9980     		strh	r1, [r3, #4]
 830 0032 9279     		ldrb	r2, [r2, #6]
 831 0034 9A71     		strb	r2, [r3, #6]
 853:..\Slider.cydsn/command_telemetry.c ****     strcat(telemetry, "\", \"action\":\"");
 832              		.loc 1 853 0
 833 0036 0399     		ldr	r1, [sp, #12]
 834 0038 201C     		mov	r0, r4
 835 003a FFF7FEFF 		bl	strcat
ARM GAS  C:\Users\MM1005~1\AppData\Local\Temp\cc36bet7.s 			page 34


 836              	.LVL96:
 854:..\Slider.cydsn/command_telemetry.c ****     strcat(telemetry, action);
 837              		.loc 1 854 0
 838 003e 201C     		mov	r0, r4
 839 0040 FFF7FEFF 		bl	strlen
 840              	.LVL97:
 841 0044 2018     		add	r0, r4, r0
 842 0046 0C49     		ldr	r1, .L66+8
 843 0048 0E22     		mov	r2, #14
 844 004a FFF7FEFF 		bl	memcpy
 845              	.LVL98:
 855:..\Slider.cydsn/command_telemetry.c ****     strcat(telemetry, "\"}");
 846              		.loc 1 855 0
 847 004e 201C     		mov	r0, r4
 848 0050 291C     		mov	r1, r5
 849 0052 FFF7FEFF 		bl	strcat
 850              	.LVL99:
 856:..\Slider.cydsn/command_telemetry.c ****     
 851              		.loc 1 856 0
 852 0056 201C     		mov	r0, r4
 853 0058 FFF7FEFF 		bl	strlen
 854              	.LVL100:
 855 005c 2018     		add	r0, r4, r0
 856 005e 0749     		ldr	r1, .L66+12
 857 0060 0322     		mov	r2, #3
 858 0062 FFF7FEFF 		bl	memcpy
 859              	.LVL101:
 858:..\Slider.cydsn/command_telemetry.c **** }// send_animation_telemetry
 860              		.loc 1 858 0
 861 0066 201C     		mov	r0, r4
 862 0068 FFF7FEFF 		bl	send_telemetry
 863              	.LVL102:
 859:..\Slider.cydsn/command_telemetry.c **** 
 864              		.loc 1 859 0
 865 006c 04B0     		add	sp, sp, #16
 866              		@ sp needed
 867              	.LVL103:
 868 006e 70BD     		pop	{r4, r5, r6, pc}
 869              	.L67:
 870              		.align	2
 871              	.L66:
 872 0070 00000000 		.word	.LANCHOR3
 873 0074 44000000 		.word	.LC27
 874 0078 64000000 		.word	.LC29
 875 007c 40000000 		.word	.LC23
 876              		.cfi_endproc
 877              	.LFE46:
 878              		.size	send_animation_telemetry, .-send_animation_telemetry
 879              		.section	.text.send_push_button_telemetry,"ax",%progbits
 880              		.align	2
 881              		.global	send_push_button_telemetry
 882              		.code	16
 883              		.thumb_func
 884              		.type	send_push_button_telemetry, %function
 885              	send_push_button_telemetry:
 886              	.LFB49:
 955:..\Slider.cydsn/command_telemetry.c ****     memset(telemetry, '\0', sizeof(telemetry));
ARM GAS  C:\Users\MM1005~1\AppData\Local\Temp\cc36bet7.s 			page 35


 887              		.loc 1 955 0
 888              		.cfi_startproc
 889              	.LVL104:
 890 0000 F8B5     		push	{r3, r4, r5, r6, r7, lr}
 891              		.cfi_def_cfa_offset 24
 892              		.cfi_offset 3, -24
 893              		.cfi_offset 4, -20
 894              		.cfi_offset 5, -16
 895              		.cfi_offset 6, -12
 896              		.cfi_offset 7, -8
 897              		.cfi_offset 14, -4
 898 0002 071C     		mov	r7, r0
 899 0004 0D1C     		mov	r5, r1
 900 0006 161C     		mov	r6, r2
 956:..\Slider.cydsn/command_telemetry.c ****     
 901              		.loc 1 956 0
 902 0008 204C     		ldr	r4, .L71
 903 000a 0434     		add	r4, r4, #4
 904 000c 201C     		mov	r0, r4
 905              	.LVL105:
 906 000e 0021     		mov	r1, #0
 907              	.LVL106:
 908 0010 8022     		mov	r2, #128
 909              	.LVL107:
 910 0012 9200     		lsl	r2, r2, #2
 911 0014 FFF7FEFF 		bl	memset
 912              	.LVL108:
 958:..\Slider.cydsn/command_telemetry.c ****     strcat(telemetry, itoa(capsense_id));
 913              		.loc 1 958 0
 914 0018 201C     		mov	r0, r4
 915 001a FFF7FEFF 		bl	strlen
 916              	.LVL109:
 917 001e 2018     		add	r0, r4, r0
 918 0020 1B49     		ldr	r1, .L71+4
 919 0022 1E22     		mov	r2, #30
 920 0024 FFF7FEFF 		bl	memcpy
 921              	.LVL110:
 959:..\Slider.cydsn/command_telemetry.c ****     strcat(telemetry, ", \"name\":\"");
 922              		.loc 1 959 0
 923 0028 381C     		mov	r0, r7
 924 002a 0021     		mov	r1, #0
 925 002c FFF7FEFF 		bl	itoa
 926              	.LVL111:
 927 0030 011C     		mov	r1, r0
 928 0032 201C     		mov	r0, r4
 929 0034 FFF7FEFF 		bl	strcat
 930              	.LVL112:
 960:..\Slider.cydsn/command_telemetry.c ****     strcat(telemetry, button_name);
 931              		.loc 1 960 0
 932 0038 201C     		mov	r0, r4
 933 003a FFF7FEFF 		bl	strlen
 934              	.LVL113:
 935 003e 2018     		add	r0, r4, r0
 936 0040 1449     		ldr	r1, .L71+8
 937 0042 0B22     		mov	r2, #11
 938 0044 FFF7FEFF 		bl	memcpy
 939              	.LVL114:
ARM GAS  C:\Users\MM1005~1\AppData\Local\Temp\cc36bet7.s 			page 36


 961:..\Slider.cydsn/command_telemetry.c ****     strcat(telemetry, "\", \"state\":\"");
 940              		.loc 1 961 0
 941 0048 201C     		mov	r0, r4
 942 004a 291C     		mov	r1, r5
 943 004c FFF7FEFF 		bl	strcat
 944              	.LVL115:
 962:..\Slider.cydsn/command_telemetry.c ****     strcat(telemetry, is_button_down ? "down" : "up"); 
 945              		.loc 1 962 0
 946 0050 201C     		mov	r0, r4
 947 0052 FFF7FEFF 		bl	strlen
 948              	.LVL116:
 949 0056 2018     		add	r0, r4, r0
 950 0058 0F49     		ldr	r1, .L71+12
 951 005a 0D22     		mov	r2, #13
 952 005c FFF7FEFF 		bl	memcpy
 953              	.LVL117:
 963:..\Slider.cydsn/command_telemetry.c ****     strcat(telemetry, "\"}");
 954              		.loc 1 963 0
 955 0060 002E     		cmp	r6, #0
 956 0062 01D0     		beq	.L70
 957 0064 0D49     		ldr	r1, .L71+16
 958 0066 00E0     		b	.L69
 959              	.L70:
 960 0068 0D49     		ldr	r1, .L71+20
 961              	.L69:
 963:..\Slider.cydsn/command_telemetry.c ****     strcat(telemetry, "\"}");
 962              		.loc 1 963 0 is_stmt 0 discriminator 4
 963 006a 084C     		ldr	r4, .L71
 964 006c 0434     		add	r4, r4, #4
 965 006e 201C     		mov	r0, r4
 966 0070 FFF7FEFF 		bl	strcat
 967              	.LVL118:
 964:..\Slider.cydsn/command_telemetry.c ****     
 968              		.loc 1 964 0 is_stmt 1 discriminator 4
 969 0074 201C     		mov	r0, r4
 970 0076 FFF7FEFF 		bl	strlen
 971              	.LVL119:
 972 007a 2018     		add	r0, r4, r0
 973 007c 0949     		ldr	r1, .L71+24
 974 007e 0322     		mov	r2, #3
 975 0080 FFF7FEFF 		bl	memcpy
 976              	.LVL120:
 966:..\Slider.cydsn/command_telemetry.c **** }// send_push_button_telemetry
 977              		.loc 1 966 0 discriminator 4
 978 0084 201C     		mov	r0, r4
 979 0086 FFF7FEFF 		bl	send_telemetry
 980              	.LVL121:
 967:..\Slider.cydsn/command_telemetry.c **** 
 981              		.loc 1 967 0 discriminator 4
 982              		@ sp needed
 983              	.LVL122:
 984 008a F8BD     		pop	{r3, r4, r5, r6, r7, pc}
 985              	.L72:
 986              		.align	2
 987              	.L71:
 988 008c 00000000 		.word	.LANCHOR3
 989 0090 80000000 		.word	.LC38
ARM GAS  C:\Users\MM1005~1\AppData\Local\Temp\cc36bet7.s 			page 37


 990 0094 A0000000 		.word	.LC40
 991 0098 AC000000 		.word	.LC42
 992 009c 74000000 		.word	.LC33
 993 00a0 7C000000 		.word	.LC35
 994 00a4 40000000 		.word	.LC23
 995              		.cfi_endproc
 996              	.LFE49:
 997              		.size	send_push_button_telemetry, .-send_push_button_telemetry
 998              		.section	.text.send_flash_geometry_telemetry,"ax",%progbits
 999              		.align	2
 1000              		.global	send_flash_geometry_telemetry
 1001              		.code	16
 1002              		.thumb_func
 1003              		.type	send_flash_geometry_telemetry, %function
 1004              	send_flash_geometry_telemetry:
 1005              	.LFB50:
 973:..\Slider.cydsn/command_telemetry.c ****     memset(telemetry, '\0', sizeof(telemetry));
 1006              		.loc 1 973 0
 1007              		.cfi_startproc
 1008              	.LVL123:
 1009 0000 F0B5     		push	{r4, r5, r6, r7, lr}
 1010              		.cfi_def_cfa_offset 20
 1011              		.cfi_offset 4, -20
 1012              		.cfi_offset 5, -16
 1013              		.cfi_offset 6, -12
 1014              		.cfi_offset 7, -8
 1015              		.cfi_offset 14, -4
 1016 0002 83B0     		sub	sp, sp, #12
 1017              		.cfi_def_cfa_offset 32
 1018 0004 071C     		mov	r7, r0
 1019 0006 0E1C     		mov	r6, r1
 1020 0008 0092     		str	r2, [sp]
 1021 000a 0193     		str	r3, [sp, #4]
 974:..\Slider.cydsn/command_telemetry.c ****     strcpy(telemetry, "{\"event\":\"flash geometry\", \"checksum\":");
 1022              		.loc 1 974 0
 1023 000c 2C4C     		ldr	r4, .L74
 1024 000e 0434     		add	r4, r4, #4
 1025 0010 201C     		mov	r0, r4
 1026              	.LVL124:
 1027 0012 0021     		mov	r1, #0
 1028              	.LVL125:
 1029 0014 8022     		mov	r2, #128
 1030              	.LVL126:
 1031 0016 9200     		lsl	r2, r2, #2
 1032 0018 FFF7FEFF 		bl	memset
 1033              	.LVL127:
 975:..\Slider.cydsn/command_telemetry.c ****     strcat(telemetry, itoa(flash_checksum));
 1034              		.loc 1 975 0
 1035 001c 2949     		ldr	r1, .L74+4
 1036 001e 231C     		mov	r3, r4
 1037 0020 0A1C     		mov	r2, r1
 1038 0022 23CA     		ldmia	r2!, {r0, r1, r5}
 1039 0024 23C3     		stmia	r3!, {r0, r1, r5}
 1040 0026 23CA     		ldmia	r2!, {r0, r1, r5}
 1041 0028 23C3     		stmia	r3!, {r0, r1, r5}
 1042 002a 23CA     		ldmia	r2!, {r0, r1, r5}
 1043 002c 23C3     		stmia	r3!, {r0, r1, r5}
ARM GAS  C:\Users\MM1005~1\AppData\Local\Temp\cc36bet7.s 			page 38


 1044 002e 1188     		ldrh	r1, [r2]
 1045 0030 1980     		strh	r1, [r3]
 1046 0032 9278     		ldrb	r2, [r2, #2]
 1047 0034 9A70     		strb	r2, [r3, #2]
 976:..\Slider.cydsn/command_telemetry.c ****     strcat(telemetry, ", \"first row\":");
 1048              		.loc 1 976 0
 1049 0036 381C     		mov	r0, r7
 1050 0038 0021     		mov	r1, #0
 1051 003a FFF7FEFF 		bl	itoa
 1052              	.LVL128:
 1053 003e 011C     		mov	r1, r0
 1054 0040 201C     		mov	r0, r4
 1055 0042 FFF7FEFF 		bl	strcat
 1056              	.LVL129:
 977:..\Slider.cydsn/command_telemetry.c ****     strcat(telemetry, itoa(flash_first_row));
 1057              		.loc 1 977 0
 1058 0046 201C     		mov	r0, r4
 1059 0048 FFF7FEFF 		bl	strlen
 1060              	.LVL130:
 1061 004c 2018     		add	r0, r4, r0
 1062 004e 1E49     		ldr	r1, .L74+8
 1063 0050 0F22     		mov	r2, #15
 1064 0052 FFF7FEFF 		bl	memcpy
 1065              	.LVL131:
 978:..\Slider.cydsn/command_telemetry.c ****     strcat(telemetry, ", \"last row\":");
 1066              		.loc 1 978 0
 1067 0056 301C     		mov	r0, r6
 1068 0058 0021     		mov	r1, #0
 1069 005a FFF7FEFF 		bl	itoa
 1070              	.LVL132:
 1071 005e 011C     		mov	r1, r0
 1072 0060 201C     		mov	r0, r4
 1073 0062 FFF7FEFF 		bl	strcat
 1074              	.LVL133:
 979:..\Slider.cydsn/command_telemetry.c ****     strcat(telemetry, itoa(flash_last_row));
 1075              		.loc 1 979 0
 1076 0066 201C     		mov	r0, r4
 1077 0068 FFF7FEFF 		bl	strlen
 1078              	.LVL134:
 1079 006c 2018     		add	r0, r4, r0
 1080 006e 1749     		ldr	r1, .L74+12
 1081 0070 0E22     		mov	r2, #14
 1082 0072 FFF7FEFF 		bl	memcpy
 1083              	.LVL135:
 980:..\Slider.cydsn/command_telemetry.c ****     strcat(telemetry, ", \"size\":");
 1084              		.loc 1 980 0
 1085 0076 0098     		ldr	r0, [sp]
 1086 0078 0021     		mov	r1, #0
 1087 007a FFF7FEFF 		bl	itoa
 1088              	.LVL136:
 1089 007e 011C     		mov	r1, r0
 1090 0080 201C     		mov	r0, r4
 1091 0082 FFF7FEFF 		bl	strcat
 1092              	.LVL137:
 981:..\Slider.cydsn/command_telemetry.c ****     strcat(telemetry, itoa(flash_size));
 1093              		.loc 1 981 0
 1094 0086 201C     		mov	r0, r4
ARM GAS  C:\Users\MM1005~1\AppData\Local\Temp\cc36bet7.s 			page 39


 1095 0088 FFF7FEFF 		bl	strlen
 1096              	.LVL138:
 1097 008c 2018     		add	r0, r4, r0
 1098 008e 1049     		ldr	r1, .L74+16
 1099 0090 0A22     		mov	r2, #10
 1100 0092 FFF7FEFF 		bl	memcpy
 1101              	.LVL139:
 982:..\Slider.cydsn/command_telemetry.c ****     strcat(telemetry, "}");
 1102              		.loc 1 982 0
 1103 0096 0198     		ldr	r0, [sp, #4]
 1104 0098 0021     		mov	r1, #0
 1105 009a FFF7FEFF 		bl	itoa
 1106              	.LVL140:
 1107 009e 011C     		mov	r1, r0
 1108 00a0 201C     		mov	r0, r4
 1109 00a2 FFF7FEFF 		bl	strcat
 1110              	.LVL141:
 983:..\Slider.cydsn/command_telemetry.c ****     
 1111              		.loc 1 983 0
 1112 00a6 201C     		mov	r0, r4
 1113 00a8 FFF7FEFF 		bl	strlen
 1114              	.LVL142:
 1115 00ac 2018     		add	r0, r4, r0
 1116 00ae 0949     		ldr	r1, .L74+20
 1117 00b0 0222     		mov	r2, #2
 1118 00b2 FFF7FEFF 		bl	memcpy
 1119              	.LVL143:
 985:..\Slider.cydsn/command_telemetry.c **** }// send_flash_geometry_telemetry
 1120              		.loc 1 985 0
 1121 00b6 201C     		mov	r0, r4
 1122 00b8 FFF7FEFF 		bl	send_telemetry
 1123              	.LVL144:
 986:..\Slider.cydsn/command_telemetry.c **** 
 1124              		.loc 1 986 0
 1125 00bc 03B0     		add	sp, sp, #12
 1126              	.LVL145:
 1127              		@ sp needed
 1128              	.LVL146:
 1129              	.LVL147:
 1130 00be F0BD     		pop	{r4, r5, r6, r7, pc}
 1131              	.L75:
 1132              		.align	2
 1133              	.L74:
 1134 00c0 00000000 		.word	.LANCHOR3
 1135 00c4 BC000000 		.word	.LC47
 1136 00c8 E4000000 		.word	.LC49
 1137 00cc F4000000 		.word	.LC51
 1138 00d0 04010000 		.word	.LC53
 1139 00d4 10010000 		.word	.LC55
 1140              		.cfi_endproc
 1141              	.LFE50:
 1142              		.size	send_flash_geometry_telemetry, .-send_flash_geometry_telemetry
 1143              		.section	.text.set_is_telemetry_enable,"ax",%progbits
 1144              		.align	2
 1145              		.global	set_is_telemetry_enable
 1146              		.code	16
 1147              		.thumb_func
ARM GAS  C:\Users\MM1005~1\AppData\Local\Temp\cc36bet7.s 			page 40


 1148              		.type	set_is_telemetry_enable, %function
 1149              	set_is_telemetry_enable:
 1150              	.LFB53:
1008:..\Slider.cydsn/command_telemetry.c **** 
1009:..\Slider.cydsn/command_telemetry.c **** //=============================================================================
1010:..\Slider.cydsn/command_telemetry.c **** //===================================================== set_is_telemetry_enable
1011:..\Slider.cydsn/command_telemetry.c **** //=============================================================================
1012:..\Slider.cydsn/command_telemetry.c **** void set_is_telemetry_enable(BOOL the_is_telemetry_enable)
1013:..\Slider.cydsn/command_telemetry.c **** {
 1151              		.loc 1 1013 0
 1152              		.cfi_startproc
 1153              	.LVL148:
1014:..\Slider.cydsn/command_telemetry.c ****     is_telemetry_enable = the_is_telemetry_enable;
 1154              		.loc 1 1014 0
 1155 0000 014B     		ldr	r3, .L77
 1156 0002 1870     		strb	r0, [r3]
1015:..\Slider.cydsn/command_telemetry.c **** }// set_is_telemetry_enable
 1157              		.loc 1 1015 0
 1158              		@ sp needed
 1159 0004 7047     		bx	lr
 1160              	.L78:
 1161 0006 C046     		.align	2
 1162              	.L77:
 1163 0008 00000000 		.word	.LANCHOR3
 1164              		.cfi_endproc
 1165              	.LFE53:
 1166              		.size	set_is_telemetry_enable, .-set_is_telemetry_enable
 1167              		.section	.text.get_is_sensor_telemetry_enable,"ax",%progbits
 1168              		.align	2
 1169              		.global	get_is_sensor_telemetry_enable
 1170              		.code	16
 1171              		.thumb_func
 1172              		.type	get_is_sensor_telemetry_enable, %function
 1173              	get_is_sensor_telemetry_enable:
 1174              	.LFB54:
1016:..\Slider.cydsn/command_telemetry.c **** 
1017:..\Slider.cydsn/command_telemetry.c **** //=============================================================================
1018:..\Slider.cydsn/command_telemetry.c **** //============================================== get_is_sensor_telemetry_enable
1019:..\Slider.cydsn/command_telemetry.c **** //=============================================================================
1020:..\Slider.cydsn/command_telemetry.c **** BOOL get_is_sensor_telemetry_enable()
1021:..\Slider.cydsn/command_telemetry.c **** {
 1175              		.loc 1 1021 0
 1176              		.cfi_startproc
1022:..\Slider.cydsn/command_telemetry.c ****     return is_sensor_telemetry_enable;
 1177              		.loc 1 1022 0
 1178 0000 014B     		ldr	r3, .L80
 1179 0002 1879     		ldrb	r0, [r3, #4]
1023:..\Slider.cydsn/command_telemetry.c **** }// get_is_sensor_telemetry_enable
 1180              		.loc 1 1023 0
 1181              		@ sp needed
 1182 0004 7047     		bx	lr
 1183              	.L81:
 1184 0006 C046     		.align	2
 1185              	.L80:
 1186 0008 00020000 		.word	.LANCHOR4
 1187              		.cfi_endproc
 1188              	.LFE54:
ARM GAS  C:\Users\MM1005~1\AppData\Local\Temp\cc36bet7.s 			page 41


 1189              		.size	get_is_sensor_telemetry_enable, .-get_is_sensor_telemetry_enable
 1190              		.section	.text.send_button_telemetry,"ax",%progbits
 1191              		.align	2
 1192              		.global	send_button_telemetry
 1193              		.code	16
 1194              		.thumb_func
 1195              		.type	send_button_telemetry, %function
 1196              	send_button_telemetry:
 1197              	.LFB48:
 897:..\Slider.cydsn/command_telemetry.c ****     int           nb_touched       =  0;
 1198              		.loc 1 897 0
 1199              		.cfi_startproc
 1200              	.LVL149:
 1201 0000 F0B5     		push	{r4, r5, r6, r7, lr}
 1202              		.cfi_def_cfa_offset 20
 1203              		.cfi_offset 4, -20
 1204              		.cfi_offset 5, -16
 1205              		.cfi_offset 6, -12
 1206              		.cfi_offset 7, -8
 1207              		.cfi_offset 14, -4
 1208 0002 91B0     		sub	sp, sp, #68
 1209              		.cfi_def_cfa_offset 88
 1210 0004 051C     		mov	r5, r0
 1211 0006 0E1C     		mov	r6, r1
 1212              	.LVL150:
 899:..\Slider.cydsn/command_telemetry.c ****     char          str_direction[2] = {finger_direct, '\0'};
 1213              		.loc 1 899 0
 1214 0008 FFF7FEFF 		bl	get_timer_interrrupt_count
 1215              	.LVL151:
 1216 000c FFF7FEFF 		bl	Timer_1_ReadCounter
 1217              	.LVL152:
 905:..\Slider.cydsn/command_telemetry.c ****     memset(sensors_vec, '\0', sizeof(sensors_vec));
 1218              		.loc 1 905 0
 1219 0010 2848     		ldr	r0, .L88
 1220 0012 0430     		add	r0, r0, #4
 1221 0014 0021     		mov	r1, #0
 1222 0016 8022     		mov	r2, #128
 1223 0018 9200     		lsl	r2, r2, #2
 1224 001a FFF7FEFF 		bl	memset
 1225              	.LVL153:
 906:..\Slider.cydsn/command_telemetry.c ****     
 1226              		.loc 1 906 0
 1227 001e 6846     		mov	r0, sp
 1228 0020 0021     		mov	r1, #0
 1229 0022 4022     		mov	r2, #64
 1230 0024 FFF7FEFF 		bl	memset
 1231              	.LVL154:
 908:..\Slider.cydsn/command_telemetry.c ****          
 1232              		.loc 1 908 0
 1233 0028 234B     		ldr	r3, .L88+4
 1234 002a DB8A     		ldrh	r3, [r3, #22]
 1235 002c 1F1C     		add	r7, r3, #0
 1236 002e 3F2B     		cmp	r3, #63
 1237 0030 00D9     		bls	.L83
 1238 0032 3F27     		mov	r7, #63
 1239              	.L83:
 1240 0034 BFB2     		uxth	r7, r7
ARM GAS  C:\Users\MM1005~1\AppData\Local\Temp\cc36bet7.s 			page 42


 1241              	.LVL155:
 910:..\Slider.cydsn/command_telemetry.c ****     {
 1242              		.loc 1 910 0
 1243 0036 0024     		mov	r4, #0
 1244 0038 0EE0     		b	.L84
 1245              	.LVL156:
 1246              	.L87:
 912:..\Slider.cydsn/command_telemetry.c ****         {
 1247              		.loc 1 912 0
 1248 003a 0020     		mov	r0, #0
 1249 003c 211C     		mov	r1, r4
 1250 003e FFF7FEFF 		bl	CapSense_IsSensorActive
 1251              	.LVL157:
 1252 0042 0028     		cmp	r0, #0
 1253 0044 03D0     		beq	.L85
 915:..\Slider.cydsn/command_telemetry.c ****         }
 1254              		.loc 1 915 0
 1255 0046 3123     		mov	r3, #49
 1256 0048 6A46     		mov	r2, sp
 1257 004a 1355     		strb	r3, [r2, r4]
 1258 004c 02E0     		b	.L86
 1259              	.L85:
 919:..\Slider.cydsn/command_telemetry.c ****         }
 1260              		.loc 1 919 0
 1261 004e 3023     		mov	r3, #48
 1262 0050 6A46     		mov	r2, sp
 1263 0052 1355     		strb	r3, [r2, r4]
 1264              	.L86:
 910:..\Slider.cydsn/command_telemetry.c ****     {
 1265              		.loc 1 910 0 discriminator 2
 1266 0054 0134     		add	r4, r4, #1
 1267              	.LVL158:
 1268 0056 A4B2     		uxth	r4, r4
 1269              	.LVL159:
 1270              	.L84:
 910:..\Slider.cydsn/command_telemetry.c ****     {
 1271              		.loc 1 910 0 is_stmt 0 discriminator 1
 1272 0058 BC42     		cmp	r4, r7
 1273 005a EED3     		bcc	.L87
 923:..\Slider.cydsn/command_telemetry.c ****     strcat(telemetry, itoa(button));
 1274              		.loc 1 923 0 is_stmt 1
 1275 005c 154C     		ldr	r4, .L88
 1276              	.LVL160:
 1277 005e 0434     		add	r4, r4, #4
 1278 0060 1649     		ldr	r1, .L88+8
 1279 0062 231C     		mov	r3, r4
 1280 0064 0A1C     		mov	r2, r1
 1281 0066 83CA     		ldmia	r2!, {r0, r1, r7}
 1282 0068 83C3     		stmia	r3!, {r0, r1, r7}
 1283              	.LVL161:
 1284 006a 83CA     		ldmia	r2!, {r0, r1, r7}
 1285 006c 83C3     		stmia	r3!, {r0, r1, r7}
 1286 006e 1278     		ldrb	r2, [r2]
 1287 0070 1A70     		strb	r2, [r3]
 924:..\Slider.cydsn/command_telemetry.c **** #if USE_ALL_BUTTON_TELE     
 1288              		.loc 1 924 0
 1289 0072 E917     		asr	r1, r5, #31
ARM GAS  C:\Users\MM1005~1\AppData\Local\Temp\cc36bet7.s 			page 43


 1290 0074 281C     		mov	r0, r5
 1291 0076 FFF7FEFF 		bl	itoa
 1292              	.LVL162:
 1293 007a 011C     		mov	r1, r0
 1294 007c 201C     		mov	r0, r4
 1295 007e FFF7FEFF 		bl	strcat
 1296              	.LVL163:
 939:..\Slider.cydsn/command_telemetry.c ****     strcat(telemetry, action);
 1297              		.loc 1 939 0
 1298 0082 201C     		mov	r0, r4
 1299 0084 FFF7FEFF 		bl	strlen
 1300              	.LVL164:
 1301 0088 2018     		add	r0, r4, r0
 1302 008a 0D49     		ldr	r1, .L88+12
 1303 008c 0D22     		mov	r2, #13
 1304 008e FFF7FEFF 		bl	memcpy
 1305              	.LVL165:
 940:..\Slider.cydsn/command_telemetry.c ****     strcat(telemetry, "\"}");
 1306              		.loc 1 940 0
 1307 0092 201C     		mov	r0, r4
 1308 0094 311C     		mov	r1, r6
 1309 0096 FFF7FEFF 		bl	strcat
 1310              	.LVL166:
 941:..\Slider.cydsn/command_telemetry.c ****     
 1311              		.loc 1 941 0
 1312 009a 201C     		mov	r0, r4
 1313 009c FFF7FEFF 		bl	strlen
 1314              	.LVL167:
 1315 00a0 2018     		add	r0, r4, r0
 1316 00a2 0849     		ldr	r1, .L88+16
 1317 00a4 0322     		mov	r2, #3
 1318 00a6 FFF7FEFF 		bl	memcpy
 1319              	.LVL168:
 943:..\Slider.cydsn/command_telemetry.c ****     
 1320              		.loc 1 943 0
 1321 00aa 201C     		mov	r0, r4
 1322 00ac FFF7FEFF 		bl	send_telemetry
 1323              	.LVL169:
 949:..\Slider.cydsn/command_telemetry.c **** 
 1324              		.loc 1 949 0
 1325 00b0 11B0     		add	sp, sp, #68
 1326              		@ sp needed
 1327              	.LVL170:
 1328              	.LVL171:
 1329 00b2 F0BD     		pop	{r4, r5, r6, r7, pc}
 1330              	.L89:
 1331              		.align	2
 1332              	.L88:
 1333 00b4 00000000 		.word	.LANCHOR3
 1334 00b8 00000000 		.word	CapSense_dsFlash
 1335 00bc 14010000 		.word	.LC62
 1336 00c0 30010000 		.word	.LC64
 1337 00c4 40000000 		.word	.LC23
 1338              		.cfi_endproc
 1339              	.LFE48:
 1340              		.size	send_button_telemetry, .-send_button_telemetry
 1341              		.section	.text.set_is_sensor_telemetry_enable,"ax",%progbits
ARM GAS  C:\Users\MM1005~1\AppData\Local\Temp\cc36bet7.s 			page 44


 1342              		.align	2
 1343              		.global	set_is_sensor_telemetry_enable
 1344              		.code	16
 1345              		.thumb_func
 1346              		.type	set_is_sensor_telemetry_enable, %function
 1347              	set_is_sensor_telemetry_enable:
 1348              	.LFB55:
1024:..\Slider.cydsn/command_telemetry.c **** 
1025:..\Slider.cydsn/command_telemetry.c **** //=============================================================================
1026:..\Slider.cydsn/command_telemetry.c **** //============================================== set_is_sensor_telemetry_enable
1027:..\Slider.cydsn/command_telemetry.c **** //=============================================================================
1028:..\Slider.cydsn/command_telemetry.c **** void set_is_sensor_telemetry_enable(BOOL the_is_sensor_telemetry_enable)
1029:..\Slider.cydsn/command_telemetry.c **** {
 1349              		.loc 1 1029 0
 1350              		.cfi_startproc
 1351              	.LVL172:
1030:..\Slider.cydsn/command_telemetry.c ****     is_sensor_telemetry_enable = the_is_sensor_telemetry_enable;
 1352              		.loc 1 1030 0
 1353 0000 014B     		ldr	r3, .L91
 1354 0002 1871     		strb	r0, [r3, #4]
1031:..\Slider.cydsn/command_telemetry.c **** }// set_is_sensor_telemetry_enable
 1355              		.loc 1 1031 0
 1356              		@ sp needed
 1357 0004 7047     		bx	lr
 1358              	.L92:
 1359 0006 C046     		.align	2
 1360              	.L91:
 1361 0008 00020000 		.word	.LANCHOR4
 1362              		.cfi_endproc
 1363              	.LFE55:
 1364              		.size	set_is_sensor_telemetry_enable, .-set_is_sensor_telemetry_enable
 1365              		.section	.text.parse_and_execute_command,"ax",%progbits
 1366              		.align	2
 1367              		.global	parse_and_execute_command
 1368              		.code	16
 1369              		.thumb_func
 1370              		.type	parse_and_execute_command, %function
 1371              	parse_and_execute_command:
 1372              	.LFB43:
 213:..\Slider.cydsn/command_telemetry.c ****     t_enum_command            cmd_id           = CMD_UNKNOWN;
 1373              		.loc 1 213 0
 1374              		.cfi_startproc
 1375              	.LVL173:
 1376 0000 F0B5     		push	{r4, r5, r6, r7, lr}
 1377              		.cfi_def_cfa_offset 20
 1378              		.cfi_offset 4, -20
 1379              		.cfi_offset 5, -16
 1380              		.cfi_offset 6, -12
 1381              		.cfi_offset 7, -8
 1382              		.cfi_offset 14, -4
 1383 0002 93B0     		sub	sp, sp, #76
 1384              		.cfi_def_cfa_offset 96
 1385 0004 041C     		mov	r4, r0
 1386              	.LVL174:
 222:..\Slider.cydsn/command_telemetry.c ****     char*                     next_param_str   = NULL; 
 1387              		.loc 1 222 0
 1388 0006 2C21     		mov	r1, #44
ARM GAS  C:\Users\MM1005~1\AppData\Local\Temp\cc36bet7.s 			page 45


 1389 0008 FFF7FEFF 		bl	strchr
 1390              	.LVL175:
 239:..\Slider.cydsn/command_telemetry.c ****     {
 1391              		.loc 1 239 0
 1392 000c 0028     		cmp	r0, #0
 1393 000e 06D1     		bne	.L94
 241:..\Slider.cydsn/command_telemetry.c ****         return FALSE;    
 1394              		.loc 1 241 0
 1395 0010 0230     		add	r0, r0, #2
 1396              	.LVL176:
 1397 0012 211C     		mov	r1, r4
 1398 0014 C94A     		ldr	r2, .L180
 1399 0016 FFF7FEFF 		bl	send_alarm_telemetry
 1400              	.LVL177:
 242:..\Slider.cydsn/command_telemetry.c ****     }// If we can't a comma inside the command
 1401              		.loc 1 242 0
 1402 001a 0020     		mov	r0, #0
 1403 001c 77E3     		b	.L95
 1404              	.LVL178:
 1405              	.L94:
 245:..\Slider.cydsn/command_telemetry.c ****     
 1406              		.loc 1 245 0
 1407 001e 451C     		add	r5, r0, #1
 1408              	.LVL179:
 1409 0020 FFF7FEFF 		bl	get_cmd_id_from_cmd_string
 1410              	.LVL180:
 247:..\Slider.cydsn/command_telemetry.c ****     {
 1411              		.loc 1 247 0
 1412 0024 0828     		cmp	r0, #8
 1413 0026 00D9     		bls	.LCB1398
 1414 0028 6BE3     		b	.L96	@long jump
 1415              	.LCB1398:
 1416 002a 8000     		lsl	r0, r0, #2
 1417              	.LVL181:
 1418 002c C44B     		ldr	r3, .L180+4
 1419 002e 1B58     		ldr	r3, [r3, r0]
 1420 0030 9F46     		mov	pc, r3
 1421              		.section	.rodata
 1422              		.align	2
 1423              	.L98:
 1424 0000 7E000000 		.word	.L97
 1425 0004 14010000 		.word	.L99
 1426 0008 32000000 		.word	.L100
 1427 000c 94010000 		.word	.L101
 1428 0010 58000000 		.word	.L174
 1429 0014 5A050000 		.word	.L103
 1430 0018 BE050000 		.word	.L104
 1431 001c 22060000 		.word	.L105
 1432 0020 F0060000 		.word	.L106
 1433              		.section	.text.parse_and_execute_command
 1434              	.L100:
 251:..\Slider.cydsn/command_telemetry.c ****             return FALSE;    
 1435              		.loc 1 251 0
 1436 0032 0220     		mov	r0, #2
 1437 0034 211C     		mov	r1, r4
 1438 0036 C34A     		ldr	r2, .L180+8
 1439 0038 FFF7FEFF 		bl	send_alarm_telemetry
ARM GAS  C:\Users\MM1005~1\AppData\Local\Temp\cc36bet7.s 			page 46


 1440              	.LVL182:
 252:..\Slider.cydsn/command_telemetry.c ****         }// CMD_CAPSENSE
 1441              		.loc 1 252 0
 1442 003c 0020     		mov	r0, #0
 1443 003e 66E3     		b	.L95
 1444              	.LVL183:
 1445              	.L107:
 259:..\Slider.cydsn/command_telemetry.c ****             }// for all the commands
 1446              		.loc 1 259 0 discriminator 3
 1447 0040 6300     		lsl	r3, r4, #1
 1448 0042 1B19     		add	r3, r3, r4
 1449 0044 9B00     		lsl	r3, r3, #2
 1450 0046 C04A     		ldr	r2, .L180+12
 1451 0048 D318     		add	r3, r2, r3
 1452 004a 5968     		ldr	r1, [r3, #4]
 1453 004c 9A68     		ldr	r2, [r3, #8]
 1454 004e 0020     		mov	r0, #0
 1455 0050 FFF7FEFF 		bl	send_alarm_telemetry
 1456              	.LVL184:
 257:..\Slider.cydsn/command_telemetry.c ****             {
 1457              		.loc 1 257 0 discriminator 3
 1458 0054 0134     		add	r4, r4, #1
 1459              	.LVL185:
 1460 0056 00E0     		b	.L102
 1461              	.LVL186:
 1462              	.L174:
 247:..\Slider.cydsn/command_telemetry.c ****     {
 1463              		.loc 1 247 0
 1464 0058 0024     		mov	r4, #0
 1465              	.LVL187:
 1466              	.L102:
 257:..\Slider.cydsn/command_telemetry.c ****             {
 1467              		.loc 1 257 0 discriminator 1
 1468 005a 082C     		cmp	r4, #8
 1469 005c F0DD     		ble	.L107
 1470 005e 0024     		mov	r4, #0
 1471              	.LVL188:
 1472 0060 09E0     		b	.L108
 1473              	.LVL189:
 1474              	.L109:
 264:..\Slider.cydsn/command_telemetry.c ****                 send_alarm_telemetry(ALARM_LOG, "animation", animation.description);
 1475              		.loc 1 264 0 discriminator 3
 1476 0062 E0B2     		uxtb	r0, r4
 1477 0064 0FA9     		add	r1, sp, #60
 1478 0066 FFF7FEFF 		bl	get_animation
 1479              	.LVL190:
 265:..\Slider.cydsn/command_telemetry.c ****             }// for all the commands
 1480              		.loc 1 265 0 discriminator 3
 1481 006a 119A     		ldr	r2, [sp, #68]
 1482 006c 0020     		mov	r0, #0
 1483 006e B749     		ldr	r1, .L180+16
 1484 0070 FFF7FEFF 		bl	send_alarm_telemetry
 1485              	.LVL191:
 262:..\Slider.cydsn/command_telemetry.c ****             {
 1486              		.loc 1 262 0 discriminator 3
 1487 0074 0134     		add	r4, r4, #1
 1488              	.LVL192:
ARM GAS  C:\Users\MM1005~1\AppData\Local\Temp\cc36bet7.s 			page 47


 1489              	.L108:
 262:..\Slider.cydsn/command_telemetry.c ****             {
 1490              		.loc 1 262 0 is_stmt 0 discriminator 1
 1491 0076 0D2C     		cmp	r4, #13
 1492 0078 F3DD     		ble	.L109
 811:..\Slider.cydsn/command_telemetry.c **** }// parse_and_execute_command
 1493              		.loc 1 811 0 is_stmt 1
 1494 007a 0120     		mov	r0, #1
 1495 007c 47E3     		b	.L95
 1496              	.LVL193:
 1497              	.L97:
 273:..\Slider.cydsn/command_telemetry.c ****             {
 1498              		.loc 1 273 0
 1499 007e 281C     		mov	r0, r5
 1500 0080 2C21     		mov	r1, #44
 1501 0082 FFF7FEFF 		bl	strchr
 1502              	.LVL194:
 1503 0086 0028     		cmp	r0, #0
 1504 0088 06D1     		bne	.L110
 275:..\Slider.cydsn/command_telemetry.c ****                 return FALSE;
 1505              		.loc 1 275 0
 1506 008a 0230     		add	r0, r0, #2
 1507              	.LVL195:
 1508 008c 211C     		mov	r1, r4
 1509 008e B04A     		ldr	r2, .L180+20
 1510 0090 FFF7FEFF 		bl	send_alarm_telemetry
 1511              	.LVL196:
 276:..\Slider.cydsn/command_telemetry.c ****             }// If we can't find the next ',' character
 1512              		.loc 1 276 0
 1513 0094 0020     		mov	r0, #0
 1514 0096 3AE3     		b	.L95
 1515              	.LVL197:
 1516              	.L110:
 279:..\Slider.cydsn/command_telemetry.c ****             {
 1517              		.loc 1 279 0
 1518 0098 0130     		add	r0, r0, #1
 1519              	.LVL198:
 1520 009a 3A21     		mov	r1, #58
 1521 009c FFF7FEFF 		bl	strchr
 1522              	.LVL199:
 1523 00a0 0028     		cmp	r0, #0
 1524 00a2 06D1     		bne	.L111
 281:..\Slider.cydsn/command_telemetry.c ****                 return FALSE;
 1525              		.loc 1 281 0
 1526 00a4 0230     		add	r0, r0, #2
 1527              	.LVL200:
 1528 00a6 211C     		mov	r1, r4
 1529 00a8 A94A     		ldr	r2, .L180+20
 1530 00aa FFF7FEFF 		bl	send_alarm_telemetry
 1531              	.LVL201:
 282:..\Slider.cydsn/command_telemetry.c ****             }// If we can't find the next ':' character
 1532              		.loc 1 282 0
 1533 00ae 0020     		mov	r0, #0
 1534 00b0 2DE3     		b	.L95
 1535              	.LVL202:
 1536              	.L111:
 284:..\Slider.cydsn/command_telemetry.c ****             
ARM GAS  C:\Users\MM1005~1\AppData\Local\Temp\cc36bet7.s 			page 48


 1537              		.loc 1 284 0
 1538 00b2 451C     		add	r5, r0, #1
 1539              	.LVL203:
 286:..\Slider.cydsn/command_telemetry.c ****             {
 1540              		.loc 1 286 0
 1541 00b4 281C     		mov	r0, r5
 1542 00b6 FFF7FEFF 		bl	get_anim_cmd_id_from_cmd_string
 1543              	.LVL204:
 1544 00ba 0128     		cmp	r0, #1
 1545 00bc 0BD0     		beq	.L113
 1546 00be 0028     		cmp	r0, #0
 1547 00c0 04D0     		beq	.L114
 1548 00c2 0228     		cmp	r0, #2
 1549 00c4 0CD0     		beq	.L115
 1550 00c6 0328     		cmp	r0, #3
 1551 00c8 0FD0     		beq	.L116
 1552 00ca 13E0     		b	.L175
 1553              	.L114:
 290:..\Slider.cydsn/command_telemetry.c ****                     break;
 1554              		.loc 1 290 0
 1555 00cc 0120     		mov	r0, #1
 1556              	.LVL205:
 1557 00ce FFF7FEFF 		bl	set_is_auto_anim_rotation_enable
 1558              	.LVL206:
 811:..\Slider.cydsn/command_telemetry.c **** }// parse_and_execute_command
 1559              		.loc 1 811 0
 1560 00d2 0120     		mov	r0, #1
 291:..\Slider.cydsn/command_telemetry.c ****                 }// CMD_ANIM_AUTO
 1561              		.loc 1 291 0
 1562 00d4 1BE3     		b	.L95
 1563              	.LVL207:
 1564              	.L113:
 296:..\Slider.cydsn/command_telemetry.c ****                     break;
 1565              		.loc 1 296 0
 1566 00d6 0020     		mov	r0, #0
 1567              	.LVL208:
 1568 00d8 FFF7FEFF 		bl	set_is_auto_anim_rotation_enable
 1569              	.LVL209:
 811:..\Slider.cydsn/command_telemetry.c **** }// parse_and_execute_command
 1570              		.loc 1 811 0
 1571 00dc 0120     		mov	r0, #1
 297:..\Slider.cydsn/command_telemetry.c ****                 }// CMD_ANIM_MANUAL
 1572              		.loc 1 297 0
 1573 00de 16E3     		b	.L95
 1574              	.LVL210:
 1575              	.L115:
 302:..\Slider.cydsn/command_telemetry.c ****                     break;
 1576              		.loc 1 302 0
 1577 00e0 0020     		mov	r0, #0
 1578              	.LVL211:
 1579 00e2 FFF7FEFF 		bl	set_is_anim_on_button_up_enable
 1580              	.LVL212:
 811:..\Slider.cydsn/command_telemetry.c **** }// parse_and_execute_command
 1581              		.loc 1 811 0
 1582 00e6 0120     		mov	r0, #1
 303:..\Slider.cydsn/command_telemetry.c ****                 }// CMD_ANIM_STOP
 1583              		.loc 1 303 0
ARM GAS  C:\Users\MM1005~1\AppData\Local\Temp\cc36bet7.s 			page 49


 1584 00e8 11E3     		b	.L95
 1585              	.LVL213:
 1586              	.L116:
 308:..\Slider.cydsn/command_telemetry.c ****                     break;
 1587              		.loc 1 308 0
 1588 00ea 0120     		mov	r0, #1
 1589              	.LVL214:
 1590 00ec FFF7FEFF 		bl	set_is_anim_on_button_up_enable
 1591              	.LVL215:
 811:..\Slider.cydsn/command_telemetry.c **** }// parse_and_execute_command
 1592              		.loc 1 811 0
 1593 00f0 0120     		mov	r0, #1
 309:..\Slider.cydsn/command_telemetry.c ****                 }// CMD_ANIM_RESUME
 1594              		.loc 1 309 0
 1595 00f2 0CE3     		b	.L95
 1596              	.LVL216:
 1597              	.L175:
 315:..\Slider.cydsn/command_telemetry.c ****                     {
 1598              		.loc 1 315 0
 1599 00f4 281C     		mov	r0, r5
 1600              	.LVL217:
 1601 00f6 FFF7FEFF 		bl	get_anim_id_from_cmd_string
 1602              	.LVL218:
 1603 00fa 0E28     		cmp	r0, #14
 1604 00fc 03D0     		beq	.L117
 317:..\Slider.cydsn/command_telemetry.c ****                     }// if we found a valid animation description in the command
 1605              		.loc 1 317 0
 1606 00fe FFF7FEFF 		bl	set_current_callback_anim
 1607              	.LVL219:
 811:..\Slider.cydsn/command_telemetry.c **** }// parse_and_execute_command
 1608              		.loc 1 811 0
 1609 0102 0120     		mov	r0, #1
 324:..\Slider.cydsn/command_telemetry.c ****                 }// CMD_ANIM_UNKOWN, default
 1610              		.loc 1 324 0
 1611 0104 03E3     		b	.L95
 1612              	.LVL220:
 1613              	.L117:
 321:..\Slider.cydsn/command_telemetry.c ****                         return FALSE;
 1614              		.loc 1 321 0
 1615 0106 0220     		mov	r0, #2
 1616              	.LVL221:
 1617 0108 211C     		mov	r1, r4
 1618 010a 914A     		ldr	r2, .L180+20
 1619 010c FFF7FEFF 		bl	send_alarm_telemetry
 1620              	.LVL222:
 322:..\Slider.cydsn/command_telemetry.c ****                     }// else, we couldn't find a valid animation 
 1621              		.loc 1 322 0
 1622 0110 0020     		mov	r0, #0
 1623 0112 FCE2     		b	.L95
 1624              	.LVL223:
 1625              	.L99:
 332:..\Slider.cydsn/command_telemetry.c ****             {
 1626              		.loc 1 332 0
 1627 0114 281C     		mov	r0, r5
 1628 0116 2C21     		mov	r1, #44
 1629 0118 FFF7FEFF 		bl	strchr
 1630              	.LVL224:
ARM GAS  C:\Users\MM1005~1\AppData\Local\Temp\cc36bet7.s 			page 50


 1631 011c 0028     		cmp	r0, #0
 1632 011e 06D1     		bne	.L118
 334:..\Slider.cydsn/command_telemetry.c ****                 return FALSE;
 1633              		.loc 1 334 0
 1634 0120 0230     		add	r0, r0, #2
 1635              	.LVL225:
 1636 0122 211C     		mov	r1, r4
 1637 0124 8B4A     		ldr	r2, .L180+24
 1638 0126 FFF7FEFF 		bl	send_alarm_telemetry
 1639              	.LVL226:
 335:..\Slider.cydsn/command_telemetry.c ****             }// If we can't find the next ',' character
 1640              		.loc 1 335 0
 1641 012a 0020     		mov	r0, #0
 1642 012c EFE2     		b	.L95
 1643              	.LVL227:
 1644              	.L118:
 338:..\Slider.cydsn/command_telemetry.c ****             {
 1645              		.loc 1 338 0
 1646 012e 0130     		add	r0, r0, #1
 1647              	.LVL228:
 1648 0130 3A21     		mov	r1, #58
 1649 0132 FFF7FEFF 		bl	strchr
 1650              	.LVL229:
 1651 0136 0028     		cmp	r0, #0
 1652 0138 06D1     		bne	.L119
 340:..\Slider.cydsn/command_telemetry.c ****                 return FALSE;
 1653              		.loc 1 340 0
 1654 013a 0230     		add	r0, r0, #2
 1655              	.LVL230:
 1656 013c 211C     		mov	r1, r4
 1657 013e 854A     		ldr	r2, .L180+24
 1658 0140 FFF7FEFF 		bl	send_alarm_telemetry
 1659              	.LVL231:
 341:..\Slider.cydsn/command_telemetry.c ****             }// If we can't find the next ':' character
 1660              		.loc 1 341 0
 1661 0144 0020     		mov	r0, #0
 1662 0146 E2E2     		b	.L95
 1663              	.LVL232:
 1664              	.L119:
 343:..\Slider.cydsn/command_telemetry.c ****             
 1665              		.loc 1 343 0
 1666 0148 0130     		add	r0, r0, #1
 1667              	.LVL233:
 345:..\Slider.cydsn/command_telemetry.c ****             {
 1668              		.loc 1 345 0
 1669 014a FFF7FEFF 		bl	get_boot_cmd_id_from_cmd_string
 1670              	.LVL234:
 1671 014e 0128     		cmp	r0, #1
 1672 0150 0BD0     		beq	.L121
 1673 0152 0028     		cmp	r0, #0
 1674 0154 02D0     		beq	.L122
 1675 0156 0228     		cmp	r0, #2
 1676 0158 0ED0     		beq	.L123
 1677 015a 14E0     		b	.L176
 1678              	.L122:
 354:..\Slider.cydsn/command_telemetry.c **** #endif // USE_BOOTLOADER  
 1679              		.loc 1 354 0
ARM GAS  C:\Users\MM1005~1\AppData\Local\Temp\cc36bet7.s 			page 51


 1680 015c 0320     		mov	r0, #3
 1681              	.LVL235:
 1682 015e 211C     		mov	r1, r4
 1683 0160 7D4A     		ldr	r2, .L180+28
 1684 0162 FFF7FEFF 		bl	send_alarm_telemetry
 1685              	.LVL236:
 811:..\Slider.cydsn/command_telemetry.c **** }// parse_and_execute_command
 1686              		.loc 1 811 0
 1687 0166 0120     		mov	r0, #1
 356:..\Slider.cydsn/command_telemetry.c ****                 }// CMD_BOOT_START      
 1688              		.loc 1 356 0
 1689 0168 D1E2     		b	.L95
 1690              	.LVL237:
 1691              	.L121:
 364:..\Slider.cydsn/command_telemetry.c **** #endif // USE_BOOTLOADER      
 1692              		.loc 1 364 0
 1693 016a 0320     		mov	r0, #3
 1694              	.LVL238:
 1695 016c 211C     		mov	r1, r4
 1696 016e 7A4A     		ldr	r2, .L180+28
 1697 0170 FFF7FEFF 		bl	send_alarm_telemetry
 1698              	.LVL239:
 811:..\Slider.cydsn/command_telemetry.c **** }// parse_and_execute_command
 1699              		.loc 1 811 0
 1700 0174 0120     		mov	r0, #1
 366:..\Slider.cydsn/command_telemetry.c ****                 }// CMD_BOOT_EXIT
 1701              		.loc 1 366 0
 1702 0176 CAE2     		b	.L95
 1703              	.LVL240:
 1704              	.L123:
 378:..\Slider.cydsn/command_telemetry.c **** #endif // USE_BOOTLOADER  
 1705              		.loc 1 378 0
 1706 0178 0320     		mov	r0, #3
 1707              	.LVL241:
 1708 017a 211C     		mov	r1, r4
 1709 017c 764A     		ldr	r2, .L180+28
 1710 017e FFF7FEFF 		bl	send_alarm_telemetry
 1711              	.LVL242:
 811:..\Slider.cydsn/command_telemetry.c **** }// parse_and_execute_command
 1712              		.loc 1 811 0
 1713 0182 0120     		mov	r0, #1
 380:..\Slider.cydsn/command_telemetry.c ****                 }// CMD_BOOT_EXIT
 1714              		.loc 1 380 0
 1715 0184 C3E2     		b	.L95
 1716              	.LVL243:
 1717              	.L176:
 386:..\Slider.cydsn/command_telemetry.c ****                     return FALSE;
 1718              		.loc 1 386 0
 1719 0186 0220     		mov	r0, #2
 1720              	.LVL244:
 1721 0188 211C     		mov	r1, r4
 1722 018a 744A     		ldr	r2, .L180+32
 1723 018c FFF7FEFF 		bl	send_alarm_telemetry
 1724              	.LVL245:
 387:..\Slider.cydsn/command_telemetry.c ****                 }// CMD_TRACKER_UNKNOWN, default
 1725              		.loc 1 387 0
 1726 0190 0020     		mov	r0, #0
ARM GAS  C:\Users\MM1005~1\AppData\Local\Temp\cc36bet7.s 			page 52


 1727 0192 BCE2     		b	.L95
 1728              	.LVL246:
 1729              	.L101:
 398:..\Slider.cydsn/command_telemetry.c ****             {
 1730              		.loc 1 398 0
 1731 0194 281C     		mov	r0, r5
 1732 0196 FFF7FEFF 		bl	get_led_cmd_id_from_cmd_string
 1733              	.LVL247:
 1734 019a 061E     		sub	r6, r0, #0
 1735              	.LVL248:
 1736 019c 042E     		cmp	r6, #4
 1737 019e 00D9     		bls	.LCB1740
 1738 01a0 D4E1     		b	.L124	@long jump
 1739              	.LCB1740:
 1740 01a2 8000     		lsl	r0, r0, #2
 1741              	.LVL249:
 1742 01a4 6E4B     		ldr	r3, .L180+36
 1743 01a6 1B58     		ldr	r3, [r3, r0]
 1744 01a8 9F46     		mov	pc, r3
 1745              		.section	.rodata
 1746              		.align	2
 1747              	.L126:
 1748 0024 AA010000 		.word	.L125
 1749 0028 B4010000 		.word	.L127
 1750 002c B4010000 		.word	.L127
 1751 0030 D2020000 		.word	.L128
 1752 0034 C6030000 		.word	.L129
 1753              		.section	.text.parse_and_execute_command
 1754              	.L125:
 402:..\Slider.cydsn/command_telemetry.c ****                     break;
 1755              		.loc 1 402 0
 1756 01aa 0020     		mov	r0, #0
 1757 01ac FFF7FEFF 		bl	set_all_leds_intensity
 1758              	.LVL250:
 811:..\Slider.cydsn/command_telemetry.c **** }// parse_and_execute_command
 1759              		.loc 1 811 0
 1760 01b0 0120     		mov	r0, #1
 403:..\Slider.cydsn/command_telemetry.c ****                 }// CMD_LED_CLEAR
 1761              		.loc 1 403 0
 1762 01b2 ACE2     		b	.L95
 1763              	.L127:
 409:..\Slider.cydsn/command_telemetry.c ****                     {
 1764              		.loc 1 409 0
 1765 01b4 281C     		mov	r0, r5
 1766 01b6 2C21     		mov	r1, #44
 1767 01b8 FFF7FEFF 		bl	strchr
 1768              	.LVL251:
 1769 01bc 0028     		cmp	r0, #0
 1770 01be 06D1     		bne	.L130
 411:..\Slider.cydsn/command_telemetry.c ****                         return FALSE;
 1771              		.loc 1 411 0
 1772 01c0 0230     		add	r0, r0, #2
 1773              	.LVL252:
 1774 01c2 211C     		mov	r1, r4
 1775 01c4 624A     		ldr	r2, .L180+20
 1776 01c6 FFF7FEFF 		bl	send_alarm_telemetry
 1777              	.LVL253:
ARM GAS  C:\Users\MM1005~1\AppData\Local\Temp\cc36bet7.s 			page 53


 412:..\Slider.cydsn/command_telemetry.c ****                     }// If we can't find the next ',' character
 1778              		.loc 1 412 0
 1779 01ca 0020     		mov	r0, #0
 1780 01cc 9FE2     		b	.L95
 1781              	.LVL254:
 1782              	.L130:
 415:..\Slider.cydsn/command_telemetry.c ****                     {
 1783              		.loc 1 415 0
 1784 01ce 0130     		add	r0, r0, #1
 1785              	.LVL255:
 1786 01d0 3A21     		mov	r1, #58
 1787 01d2 FFF7FEFF 		bl	strchr
 1788              	.LVL256:
 1789 01d6 0028     		cmp	r0, #0
 1790 01d8 06D1     		bne	.L131
 417:..\Slider.cydsn/command_telemetry.c ****                         return FALSE;
 1791              		.loc 1 417 0
 1792 01da 0230     		add	r0, r0, #2
 1793              	.LVL257:
 1794 01dc 211C     		mov	r1, r4
 1795 01de 614A     		ldr	r2, .L180+40
 1796 01e0 FFF7FEFF 		bl	send_alarm_telemetry
 1797              	.LVL258:
 418:..\Slider.cydsn/command_telemetry.c ****                     }// If we can't find the next ':' character
 1798              		.loc 1 418 0
 1799 01e4 0020     		mov	r0, #0
 1800 01e6 92E2     		b	.L95
 1801              	.LVL259:
 1802              	.L131:
 424:..\Slider.cydsn/command_telemetry.c ****                     {
 1803              		.loc 1 424 0
 1804 01e8 0130     		add	r0, r0, #1
 1805              	.LVL260:
 1806 01ea 3A21     		mov	r1, #58
 1807 01ec FFF7FEFF 		bl	strchr
 1808              	.LVL261:
 1809 01f0 0028     		cmp	r0, #0
 1810 01f2 06D1     		bne	.L132
 426:..\Slider.cydsn/command_telemetry.c ****                         return FALSE;
 1811              		.loc 1 426 0
 1812 01f4 0230     		add	r0, r0, #2
 1813              	.LVL262:
 1814 01f6 211C     		mov	r1, r4
 1815 01f8 5A4A     		ldr	r2, .L180+40
 1816 01fa FFF7FEFF 		bl	send_alarm_telemetry
 1817              	.LVL263:
 427:..\Slider.cydsn/command_telemetry.c ****                     }// If we can't find the next ':' character
 1818              		.loc 1 427 0
 1819 01fe 0020     		mov	r0, #0
 1820 0200 85E2     		b	.L95
 1821              	.LVL264:
 1822              	.L132:
 430:..\Slider.cydsn/command_telemetry.c ****                     {
 1823              		.loc 1 430 0
 1824 0202 451C     		add	r5, r0, #1
 1825              	.LVL265:
 1826 0204 281C     		mov	r0, r5
ARM GAS  C:\Users\MM1005~1\AppData\Local\Temp\cc36bet7.s 			page 54


 1827 0206 2C21     		mov	r1, #44
 1828 0208 FFF7FEFF 		bl	strchr
 1829              	.LVL266:
 1830 020c 0028     		cmp	r0, #0
 1831 020e 06D1     		bne	.L133
 432:..\Slider.cydsn/command_telemetry.c ****                         return FALSE;
 1832              		.loc 1 432 0
 1833 0210 0230     		add	r0, r0, #2
 1834              	.LVL267:
 1835 0212 211C     		mov	r1, r4
 1836 0214 534A     		ldr	r2, .L180+40
 1837 0216 FFF7FEFF 		bl	send_alarm_telemetry
 1838              	.LVL268:
 433:..\Slider.cydsn/command_telemetry.c ****                     }// If we can't find the next ',' character
 1839              		.loc 1 433 0
 1840 021a 0020     		mov	r0, #0
 1841 021c 77E2     		b	.L95
 1842              	.LVL269:
 1843              	.L133:
 435:..\Slider.cydsn/command_telemetry.c ****                     next_param_str++;
 1844              		.loc 1 435 0
 1845 021e 0023     		mov	r3, #0
 1846 0220 0370     		strb	r3, [r0]
 436:..\Slider.cydsn/command_telemetry.c ****                     
 1847              		.loc 1 436 0
 1848 0222 471C     		add	r7, r0, #1
 1849              	.LVL270:
 438:..\Slider.cydsn/command_telemetry.c ****                     
 1850              		.loc 1 438 0
 1851 0224 281C     		mov	r0, r5
 1852 0226 FFF7FEFF 		bl	atoi
 1853              	.LVL271:
 1854 022a 0190     		str	r0, [sp, #4]
 1855              	.LVL272:
 443:..\Slider.cydsn/command_telemetry.c ****                     {
 1856              		.loc 1 443 0
 1857 022c 381C     		mov	r0, r7
 1858              	.LVL273:
 1859 022e 3A21     		mov	r1, #58
 1860 0230 FFF7FEFF 		bl	strchr
 1861              	.LVL274:
 1862 0234 0028     		cmp	r0, #0
 1863 0236 06D1     		bne	.L134
 445:..\Slider.cydsn/command_telemetry.c ****                         return FALSE;
 1864              		.loc 1 445 0
 1865 0238 0230     		add	r0, r0, #2
 1866              	.LVL275:
 1867 023a 211C     		mov	r1, r4
 1868 023c 4A4A     		ldr	r2, .L180+44
 1869 023e FFF7FEFF 		bl	send_alarm_telemetry
 1870              	.LVL276:
 446:..\Slider.cydsn/command_telemetry.c ****                     }// If we can't find the next ':' character
 1871              		.loc 1 446 0
 1872 0242 0020     		mov	r0, #0
 1873 0244 63E2     		b	.L95
 1874              	.LVL277:
 1875              	.L134:
ARM GAS  C:\Users\MM1005~1\AppData\Local\Temp\cc36bet7.s 			page 55


 449:..\Slider.cydsn/command_telemetry.c ****                     {
 1876              		.loc 1 449 0
 1877 0246 471C     		add	r7, r0, #1
 1878              	.LVL278:
 1879 0248 381C     		mov	r0, r7
 1880 024a 2C21     		mov	r1, #44
 1881 024c FFF7FEFF 		bl	strchr
 1882              	.LVL279:
 1883 0250 0028     		cmp	r0, #0
 1884 0252 06D1     		bne	.L135
 451:..\Slider.cydsn/command_telemetry.c ****                         return FALSE;
 1885              		.loc 1 451 0
 1886 0254 0230     		add	r0, r0, #2
 1887              	.LVL280:
 1888 0256 211C     		mov	r1, r4
 1889 0258 444A     		ldr	r2, .L180+48
 1890 025a FFF7FEFF 		bl	send_alarm_telemetry
 1891              	.LVL281:
 452:..\Slider.cydsn/command_telemetry.c ****                     }// If we can't find the next ',' character
 1892              		.loc 1 452 0
 1893 025e 0020     		mov	r0, #0
 1894 0260 55E2     		b	.L95
 1895              	.LVL282:
 1896              	.L135:
 454:..\Slider.cydsn/command_telemetry.c ****                     next_param_str++;
 1897              		.loc 1 454 0
 1898 0262 0023     		mov	r3, #0
 1899 0264 0370     		strb	r3, [r0]
 455:..\Slider.cydsn/command_telemetry.c ****                     
 1900              		.loc 1 455 0
 1901 0266 451C     		add	r5, r0, #1
 1902              	.LVL283:
 457:..\Slider.cydsn/command_telemetry.c ****                     
 1903              		.loc 1 457 0
 1904 0268 381C     		mov	r0, r7
 1905 026a FFF7FEFF 		bl	atoi
 1906              	.LVL284:
 1907 026e 071C     		mov	r7, r0
 1908              	.LVL285:
 462:..\Slider.cydsn/command_telemetry.c ****                     {
 1909              		.loc 1 462 0
 1910 0270 281C     		mov	r0, r5
 1911              	.LVL286:
 1912 0272 3A21     		mov	r1, #58
 1913 0274 FFF7FEFF 		bl	strchr
 1914              	.LVL287:
 1915 0278 0028     		cmp	r0, #0
 1916 027a 06D1     		bne	.L136
 464:..\Slider.cydsn/command_telemetry.c ****                         return FALSE;
 1917              		.loc 1 464 0
 1918 027c 0230     		add	r0, r0, #2
 1919              	.LVL288:
 1920 027e 211C     		mov	r1, r4
 1921 0280 394A     		ldr	r2, .L180+44
 1922 0282 FFF7FEFF 		bl	send_alarm_telemetry
 1923              	.LVL289:
 465:..\Slider.cydsn/command_telemetry.c ****                     }// If we can't find the next ':' character
ARM GAS  C:\Users\MM1005~1\AppData\Local\Temp\cc36bet7.s 			page 56


 1924              		.loc 1 465 0
 1925 0286 0020     		mov	r0, #0
 1926 0288 41E2     		b	.L95
 1927              	.LVL290:
 1928              	.L136:
 468:..\Slider.cydsn/command_telemetry.c ****                     // ========================================================
 1929              		.loc 1 468 0
 1930 028a 0130     		add	r0, r0, #1
 1931              	.LVL291:
 1932 028c FFF7FEFF 		bl	atoi
 1933              	.LVL292:
 1934 0290 041C     		mov	r4, r0
 1935              	.LVL293:
 472:..\Slider.cydsn/command_telemetry.c ****                     {
 1936              		.loc 1 472 0
 1937 0292 012E     		cmp	r6, #1
 1938 0294 0ED1     		bne	.L137
 474:..\Slider.cydsn/command_telemetry.c ****                         set_led(E_LED_LEFT_GREEN,  green);
 1939              		.loc 1 474 0
 1940 0296 6B46     		mov	r3, sp
 1941 0298 9988     		ldrh	r1, [r3, #4]
 1942 029a 1520     		mov	r0, #21
 1943              	.LVL294:
 1944 029c FFF7FEFF 		bl	set_led
 1945              	.LVL295:
 475:..\Slider.cydsn/command_telemetry.c ****                         set_led(E_LED_LEFT_BLUE ,  blue );
 1946              		.loc 1 475 0
 1947 02a0 B9B2     		uxth	r1, r7
 1948 02a2 1620     		mov	r0, #22
 1949 02a4 FFF7FEFF 		bl	set_led
 1950              	.LVL296:
 476:..\Slider.cydsn/command_telemetry.c ****                     }// if it's the left colored LED
 1951              		.loc 1 476 0
 1952 02a8 A1B2     		uxth	r1, r4
 1953 02aa 1720     		mov	r0, #23
 1954 02ac FFF7FEFF 		bl	set_led
 1955              	.LVL297:
 811:..\Slider.cydsn/command_telemetry.c **** }// parse_and_execute_command
 1956              		.loc 1 811 0
 1957 02b0 0120     		mov	r0, #1
 1958 02b2 2CE2     		b	.L95
 1959              	.LVL298:
 1960              	.L137:
 480:..\Slider.cydsn/command_telemetry.c ****                         set_led(E_LED_RIGHT_GREEN,  green);
 1961              		.loc 1 480 0
 1962 02b4 6B46     		mov	r3, sp
 1963 02b6 9988     		ldrh	r1, [r3, #4]
 1964 02b8 1220     		mov	r0, #18
 1965              	.LVL299:
 1966 02ba FFF7FEFF 		bl	set_led
 1967              	.LVL300:
 481:..\Slider.cydsn/command_telemetry.c ****                         set_led(E_LED_RIGHT_BLUE ,  blue );
 1968              		.loc 1 481 0
 1969 02be B9B2     		uxth	r1, r7
 1970 02c0 1320     		mov	r0, #19
 1971 02c2 FFF7FEFF 		bl	set_led
 1972              	.LVL301:
ARM GAS  C:\Users\MM1005~1\AppData\Local\Temp\cc36bet7.s 			page 57


 482:..\Slider.cydsn/command_telemetry.c ****                     }// if it's the right colored LED
 1973              		.loc 1 482 0
 1974 02c6 A1B2     		uxth	r1, r4
 1975 02c8 1420     		mov	r0, #20
 1976 02ca FFF7FEFF 		bl	set_led
 1977              	.LVL302:
 811:..\Slider.cydsn/command_telemetry.c **** }// parse_and_execute_command
 1978              		.loc 1 811 0
 1979 02ce 0120     		mov	r0, #1
 1980 02d0 1DE2     		b	.L95
 1981              	.LVL303:
 1982              	.L128:
 490:..\Slider.cydsn/command_telemetry.c ****                     {
 1983              		.loc 1 490 0
 1984 02d2 281C     		mov	r0, r5
 1985 02d4 2C21     		mov	r1, #44
 1986 02d6 FFF7FEFF 		bl	strchr
 1987              	.LVL304:
 1988 02da 0028     		cmp	r0, #0
 1989 02dc 06D1     		bne	.L138
 492:..\Slider.cydsn/command_telemetry.c ****                         return FALSE;
 1990              		.loc 1 492 0
 1991 02de 0230     		add	r0, r0, #2
 1992              	.LVL305:
 1993 02e0 211C     		mov	r1, r4
 1994 02e2 1B4A     		ldr	r2, .L180+20
 1995 02e4 FFF7FEFF 		bl	send_alarm_telemetry
 1996              	.LVL306:
 493:..\Slider.cydsn/command_telemetry.c ****                     }// If we can't find the next ',' character
 1997              		.loc 1 493 0
 1998 02e8 0020     		mov	r0, #0
 1999 02ea 10E2     		b	.L95
 2000              	.LVL307:
 2001              	.L138:
 496:..\Slider.cydsn/command_telemetry.c ****                     {
 2002              		.loc 1 496 0
 2003 02ec 0130     		add	r0, r0, #1
 2004              	.LVL308:
 2005 02ee 3A21     		mov	r1, #58
 2006 02f0 FFF7FEFF 		bl	strchr
 2007              	.LVL309:
 2008 02f4 0028     		cmp	r0, #0
 2009 02f6 06D1     		bne	.L139
 498:..\Slider.cydsn/command_telemetry.c ****                         return FALSE;
 2010              		.loc 1 498 0
 2011 02f8 0230     		add	r0, r0, #2
 2012              	.LVL310:
 2013 02fa 211C     		mov	r1, r4
 2014 02fc 1C4A     		ldr	r2, .L180+52
 2015 02fe FFF7FEFF 		bl	send_alarm_telemetry
 2016              	.LVL311:
 499:..\Slider.cydsn/command_telemetry.c ****                     }// If we can't find the next ':' character
 2017              		.loc 1 499 0
 2018 0302 0020     		mov	r0, #0
 2019 0304 03E2     		b	.L95
 2020              	.LVL312:
 2021              	.L139:
ARM GAS  C:\Users\MM1005~1\AppData\Local\Temp\cc36bet7.s 			page 58


 505:..\Slider.cydsn/command_telemetry.c ****                     {
 2022              		.loc 1 505 0
 2023 0306 0130     		add	r0, r0, #1
 2024              	.LVL313:
 2025 0308 3A21     		mov	r1, #58
 2026 030a FFF7FEFF 		bl	strchr
 2027              	.LVL314:
 2028 030e 0028     		cmp	r0, #0
 2029 0310 06D1     		bne	.L140
 507:..\Slider.cydsn/command_telemetry.c ****                         return FALSE;
 2030              		.loc 1 507 0
 2031 0312 0230     		add	r0, r0, #2
 2032              	.LVL315:
 2033 0314 211C     		mov	r1, r4
 2034 0316 174A     		ldr	r2, .L180+56
 2035 0318 FFF7FEFF 		bl	send_alarm_telemetry
 2036              	.LVL316:
 508:..\Slider.cydsn/command_telemetry.c ****                     }// If we can't find the next ':' character
 2037              		.loc 1 508 0
 2038 031c 0020     		mov	r0, #0
 2039 031e F6E1     		b	.L95
 2040              	.LVL317:
 2041              	.L140:
 511:..\Slider.cydsn/command_telemetry.c ****                     {
 2042              		.loc 1 511 0
 2043 0320 461C     		add	r6, r0, #1
 2044              	.LVL318:
 2045 0322 301C     		mov	r0, r6
 2046 0324 2C21     		mov	r1, #44
 2047 0326 FFF7FEFF 		bl	strchr
 2048              	.LVL319:
 2049 032a 0028     		cmp	r0, #0
 2050 032c 24D1     		bne	.L141
 513:..\Slider.cydsn/command_telemetry.c ****                         return FALSE;
 2051              		.loc 1 513 0
 2052 032e 0230     		add	r0, r0, #2
 2053              	.LVL320:
 2054 0330 211C     		mov	r1, r4
 2055 0332 104A     		ldr	r2, .L180+56
 2056 0334 FFF7FEFF 		bl	send_alarm_telemetry
 2057              	.LVL321:
 514:..\Slider.cydsn/command_telemetry.c ****                     }// If we can't find the next ',' character
 2058              		.loc 1 514 0
 2059 0338 0020     		mov	r0, #0
 2060 033a E8E1     		b	.L95
 2061              	.L181:
 2062              		.align	2
 2063              	.L180:
 2064 033c 40010000 		.word	.LC69
 2065 0340 00000000 		.word	.L98
 2066 0344 5C010000 		.word	.LC72
 2067 0348 38000000 		.word	.LANCHOR0
 2068 034c 64010000 		.word	.LC75
 2069 0350 70010000 		.word	.LC77
 2070 0354 90010000 		.word	.LC79
 2071 0358 AC010000 		.word	.LC81
 2072 035c C4010000 		.word	.LC83
ARM GAS  C:\Users\MM1005~1\AppData\Local\Temp\cc36bet7.s 			page 59


 2073 0360 24000000 		.word	.L126
 2074 0364 E4010000 		.word	.LC86
 2075 0368 04020000 		.word	.LC88
 2076 036c 28020000 		.word	.LC90
 2077 0370 4C020000 		.word	.LC92
 2078 0374 68020000 		.word	.LC94
 2079              	.LVL322:
 2080              	.L141:
 516:..\Slider.cydsn/command_telemetry.c ****                     next_param_str++;
 2081              		.loc 1 516 0
 2082 0378 0023     		mov	r3, #0
 2083 037a 0370     		strb	r3, [r0]
 517:..\Slider.cydsn/command_telemetry.c ****                     
 2084              		.loc 1 517 0
 2085 037c 451C     		add	r5, r0, #1
 2086              	.LVL323:
 519:..\Slider.cydsn/command_telemetry.c ****                     
 2087              		.loc 1 519 0
 2088 037e 301C     		mov	r0, r6
 2089 0380 FFF7FEFF 		bl	atoi
 2090              	.LVL324:
 2091 0384 061E     		sub	r6, r0, #0
 2092              	.LVL325:
 521:..\Slider.cydsn/command_telemetry.c ****                     {
 2093              		.loc 1 521 0
 2094 0386 0E2E     		cmp	r6, #14
 2095 0388 06D9     		bls	.L142
 523:..\Slider.cydsn/command_telemetry.c ****                         return FALSE;
 2096              		.loc 1 523 0
 2097 038a 0220     		mov	r0, #2
 2098              	.LVL326:
 2099 038c 211C     		mov	r1, r4
 2100 038e D14A     		ldr	r2, .L182
 2101 0390 FFF7FEFF 		bl	send_alarm_telemetry
 2102              	.LVL327:
 524:..\Slider.cydsn/command_telemetry.c ****                     }
 2103              		.loc 1 524 0
 2104 0394 0020     		mov	r0, #0
 2105 0396 BAE1     		b	.L95
 2106              	.LVL328:
 2107              	.L142:
 530:..\Slider.cydsn/command_telemetry.c ****                     {
 2108              		.loc 1 530 0
 2109 0398 281C     		mov	r0, r5
 2110              	.LVL329:
 2111 039a 3A21     		mov	r1, #58
 2112 039c FFF7FEFF 		bl	strchr
 2113              	.LVL330:
 2114 03a0 0028     		cmp	r0, #0
 2115 03a2 06D1     		bne	.L143
 532:..\Slider.cydsn/command_telemetry.c ****                         return FALSE;
 2116              		.loc 1 532 0
 2117 03a4 0230     		add	r0, r0, #2
 2118              	.LVL331:
 2119 03a6 211C     		mov	r1, r4
 2120 03a8 CB4A     		ldr	r2, .L182+4
 2121 03aa FFF7FEFF 		bl	send_alarm_telemetry
ARM GAS  C:\Users\MM1005~1\AppData\Local\Temp\cc36bet7.s 			page 60


 2122              	.LVL332:
 533:..\Slider.cydsn/command_telemetry.c ****                     }// If we can't find the next ':' character
 2123              		.loc 1 533 0
 2124 03ae 0020     		mov	r0, #0
 2125 03b0 ADE1     		b	.L95
 2126              	.LVL333:
 2127              	.L143:
 536:..\Slider.cydsn/command_telemetry.c ****                     
 2128              		.loc 1 536 0
 2129 03b2 0130     		add	r0, r0, #1
 2130              	.LVL334:
 2131 03b4 FFF7FEFF 		bl	atoi
 2132              	.LVL335:
 2133 03b8 011C     		mov	r1, r0
 2134              	.LVL336:
 541:..\Slider.cydsn/command_telemetry.c ****                     break;
 2135              		.loc 1 541 0
 2136 03ba F0B2     		uxtb	r0, r6
 2137              	.LVL337:
 2138 03bc 89B2     		uxth	r1, r1
 2139              	.LVL338:
 2140 03be FFF7FEFF 		bl	set_led
 2141              	.LVL339:
 811:..\Slider.cydsn/command_telemetry.c **** }// parse_and_execute_command
 2142              		.loc 1 811 0
 2143 03c2 0120     		mov	r0, #1
 542:..\Slider.cydsn/command_telemetry.c ****                 }// CMD_LED_SET_WHITE
 2144              		.loc 1 542 0
 2145 03c4 A3E1     		b	.L95
 2146              	.LVL340:
 2147              	.L129:
 547:..\Slider.cydsn/command_telemetry.c ****                     {
 2148              		.loc 1 547 0
 2149 03c6 281C     		mov	r0, r5
 2150 03c8 2C21     		mov	r1, #44
 2151 03ca FFF7FEFF 		bl	strchr
 2152              	.LVL341:
 2153 03ce 0028     		cmp	r0, #0
 2154 03d0 06D1     		bne	.L144
 549:..\Slider.cydsn/command_telemetry.c ****                         return FALSE;
 2155              		.loc 1 549 0
 2156 03d2 0230     		add	r0, r0, #2
 2157              	.LVL342:
 2158 03d4 211C     		mov	r1, r4
 2159 03d6 C14A     		ldr	r2, .L182+8
 2160 03d8 FFF7FEFF 		bl	send_alarm_telemetry
 2161              	.LVL343:
 550:..\Slider.cydsn/command_telemetry.c ****                     }// If we can't find the next ',' character
 2162              		.loc 1 550 0
 2163 03dc 0020     		mov	r0, #0
 2164 03de 96E1     		b	.L95
 2165              	.LVL344:
 2166              	.L144:
 553:..\Slider.cydsn/command_telemetry.c ****                     {
 2167              		.loc 1 553 0
 2168 03e0 0130     		add	r0, r0, #1
 2169              	.LVL345:
ARM GAS  C:\Users\MM1005~1\AppData\Local\Temp\cc36bet7.s 			page 61


 2170 03e2 2C21     		mov	r1, #44
 2171 03e4 FFF7FEFF 		bl	strchr
 2172              	.LVL346:
 2173 03e8 0028     		cmp	r0, #0
 2174 03ea 06D1     		bne	.L145
 555:..\Slider.cydsn/command_telemetry.c ****                         return FALSE;
 2175              		.loc 1 555 0
 2176 03ec 0230     		add	r0, r0, #2
 2177              	.LVL347:
 2178 03ee 211C     		mov	r1, r4
 2179 03f0 BA4A     		ldr	r2, .L182+8
 2180 03f2 FFF7FEFF 		bl	send_alarm_telemetry
 2181              	.LVL348:
 556:..\Slider.cydsn/command_telemetry.c ****                     }// If we can't find the next ',' character 
 2182              		.loc 1 556 0
 2183 03f6 0020     		mov	r0, #0
 2184 03f8 89E1     		b	.L95
 2185              	.LVL349:
 2186              	.L145:
 559:..\Slider.cydsn/command_telemetry.c ****                     {
 2187              		.loc 1 559 0
 2188 03fa 0130     		add	r0, r0, #1
 2189              	.LVL350:
 2190 03fc 3A21     		mov	r1, #58
 2191 03fe FFF7FEFF 		bl	strchr
 2192              	.LVL351:
 2193 0402 0028     		cmp	r0, #0
 2194 0404 06D1     		bne	.L146
 561:..\Slider.cydsn/command_telemetry.c ****                         return FALSE;
 2195              		.loc 1 561 0
 2196 0406 0230     		add	r0, r0, #2
 2197              	.LVL352:
 2198 0408 211C     		mov	r1, r4
 2199 040a B44A     		ldr	r2, .L182+8
 2200 040c FFF7FEFF 		bl	send_alarm_telemetry
 2201              	.LVL353:
 562:..\Slider.cydsn/command_telemetry.c ****                     }// If we can't find the next ':' character
 2202              		.loc 1 562 0
 2203 0410 0020     		mov	r0, #0
 2204 0412 7CE1     		b	.L95
 2205              	.LVL354:
 2206              	.L146:
 565:..\Slider.cydsn/command_telemetry.c ****                     
 2207              		.loc 1 565 0
 2208 0414 0023     		mov	r3, #0
 2209 0416 0393     		str	r3, [sp, #12]
 2210 0418 0493     		str	r3, [sp, #16]
 2211 041a 0593     		str	r3, [sp, #20]
 2212 041c 0693     		str	r3, [sp, #24]
 2213 041e 0793     		str	r3, [sp, #28]
 2214 0420 0893     		str	r3, [sp, #32]
 2215 0422 0993     		str	r3, [sp, #36]
 2216 0424 0A93     		str	r3, [sp, #40]
 2217 0426 0B93     		str	r3, [sp, #44]
 2218 0428 0C93     		str	r3, [sp, #48]
 2219 042a 0D93     		str	r3, [sp, #52]
 2220 042c 0E93     		str	r3, [sp, #56]
ARM GAS  C:\Users\MM1005~1\AppData\Local\Temp\cc36bet7.s 			page 62


 570:..\Slider.cydsn/command_telemetry.c ****                     {
 2221              		.loc 1 570 0
 2222 042e 0130     		add	r0, r0, #1
 2223              	.LVL355:
 2224 0430 2221     		mov	r1, #34
 2225 0432 FFF7FEFF 		bl	strchr
 2226              	.LVL356:
 2227 0436 0028     		cmp	r0, #0
 2228 0438 06D1     		bne	.L147
 572:..\Slider.cydsn/command_telemetry.c ****                         return FALSE;
 2229              		.loc 1 572 0
 2230 043a 0230     		add	r0, r0, #2
 2231              	.LVL357:
 2232 043c 211C     		mov	r1, r4
 2233 043e A74A     		ldr	r2, .L182+8
 2234 0440 FFF7FEFF 		bl	send_alarm_telemetry
 2235              	.LVL358:
 573:..\Slider.cydsn/command_telemetry.c ****                     }// If we can't find the next '"' character
 2236              		.loc 1 573 0
 2237 0444 0020     		mov	r0, #0
 2238 0446 62E1     		b	.L95
 2239              	.LVL359:
 2240              	.L147:
 575:..\Slider.cydsn/command_telemetry.c ****                     led_vec[E_LED_LEFT_RED] = atoi(param_str);
 2241              		.loc 1 575 0
 2242 0448 451C     		add	r5, r0, #1
 2243              	.LVL360:
 576:..\Slider.cydsn/command_telemetry.c ****                  
 2244              		.loc 1 576 0
 2245 044a 281C     		mov	r0, r5
 2246 044c FFF7FEFF 		bl	atoi
 2247              	.LVL361:
 2248 0450 03AB     		add	r3, sp, #12
 2249 0452 5885     		strh	r0, [r3, #42]
 581:..\Slider.cydsn/command_telemetry.c ****                     {
 2250              		.loc 1 581 0
 2251 0454 281C     		mov	r0, r5
 2252 0456 2D21     		mov	r1, #45
 2253 0458 FFF7FEFF 		bl	strchr
 2254              	.LVL362:
 2255 045c 0028     		cmp	r0, #0
 2256 045e 06D1     		bne	.L148
 583:..\Slider.cydsn/command_telemetry.c ****                         return FALSE;
 2257              		.loc 1 583 0
 2258 0460 0230     		add	r0, r0, #2
 2259              	.LVL363:
 2260 0462 211C     		mov	r1, r4
 2261 0464 9D4A     		ldr	r2, .L182+8
 2262 0466 FFF7FEFF 		bl	send_alarm_telemetry
 2263              	.LVL364:
 584:..\Slider.cydsn/command_telemetry.c ****                     }// If we can't find the next '-' character
 2264              		.loc 1 584 0
 2265 046a 0020     		mov	r0, #0
 2266 046c 4FE1     		b	.L95
 2267              	.LVL365:
 2268              	.L148:
 586:..\Slider.cydsn/command_telemetry.c ****                     led_vec[E_LED_LEFT_GREEN] = atoi(param_str);
ARM GAS  C:\Users\MM1005~1\AppData\Local\Temp\cc36bet7.s 			page 63


 2269              		.loc 1 586 0
 2270 046e 451C     		add	r5, r0, #1
 2271              	.LVL366:
 587:..\Slider.cydsn/command_telemetry.c ****                     
 2272              		.loc 1 587 0
 2273 0470 281C     		mov	r0, r5
 2274 0472 FFF7FEFF 		bl	atoi
 2275              	.LVL367:
 2276 0476 03AB     		add	r3, sp, #12
 2277 0478 9885     		strh	r0, [r3, #44]
 592:..\Slider.cydsn/command_telemetry.c ****                     {
 2278              		.loc 1 592 0
 2279 047a 281C     		mov	r0, r5
 2280 047c 2D21     		mov	r1, #45
 2281 047e FFF7FEFF 		bl	strchr
 2282              	.LVL368:
 2283 0482 0028     		cmp	r0, #0
 2284 0484 06D1     		bne	.L149
 594:..\Slider.cydsn/command_telemetry.c ****                         return FALSE;
 2285              		.loc 1 594 0
 2286 0486 0230     		add	r0, r0, #2
 2287              	.LVL369:
 2288 0488 211C     		mov	r1, r4
 2289 048a 944A     		ldr	r2, .L182+8
 2290 048c FFF7FEFF 		bl	send_alarm_telemetry
 2291              	.LVL370:
 595:..\Slider.cydsn/command_telemetry.c ****                     }// If we can't find the next '-' character
 2292              		.loc 1 595 0
 2293 0490 0020     		mov	r0, #0
 2294 0492 3CE1     		b	.L95
 2295              	.LVL371:
 2296              	.L149:
 597:..\Slider.cydsn/command_telemetry.c ****                     led_vec[E_LED_LEFT_BLUE] = atoi(param_str);
 2297              		.loc 1 597 0
 2298 0494 451C     		add	r5, r0, #1
 2299              	.LVL372:
 598:..\Slider.cydsn/command_telemetry.c ****                     
 2300              		.loc 1 598 0
 2301 0496 281C     		mov	r0, r5
 2302 0498 FFF7FEFF 		bl	atoi
 2303              	.LVL373:
 2304 049c 03AB     		add	r3, sp, #12
 2305 049e D885     		strh	r0, [r3, #46]
 2306              	.LVL374:
 603:..\Slider.cydsn/command_telemetry.c ****                     {
 2307              		.loc 1 603 0
 2308 04a0 0026     		mov	r6, #0
 2309 04a2 14E0     		b	.L150
 2310              	.LVL375:
 2311              	.L152:
 605:..\Slider.cydsn/command_telemetry.c ****                         {
 2312              		.loc 1 605 0
 2313 04a4 281C     		mov	r0, r5
 2314 04a6 2D21     		mov	r1, #45
 2315 04a8 FFF7FEFF 		bl	strchr
 2316              	.LVL376:
 2317 04ac 0028     		cmp	r0, #0
ARM GAS  C:\Users\MM1005~1\AppData\Local\Temp\cc36bet7.s 			page 64


 2318 04ae 06D1     		bne	.L151
 607:..\Slider.cydsn/command_telemetry.c ****                             return FALSE;
 2319              		.loc 1 607 0
 2320 04b0 0230     		add	r0, r0, #2
 2321              	.LVL377:
 2322 04b2 211C     		mov	r1, r4
 2323 04b4 894A     		ldr	r2, .L182+8
 2324 04b6 FFF7FEFF 		bl	send_alarm_telemetry
 2325              	.LVL378:
 608:..\Slider.cydsn/command_telemetry.c ****                         }// If we can't find the next '-' character
 2326              		.loc 1 608 0
 2327 04ba 0020     		mov	r0, #0
 2328 04bc 27E1     		b	.L95
 2329              	.LVL379:
 2330              	.L151:
 610:..\Slider.cydsn/command_telemetry.c ****                         led_vec[i] = atoi(param_str);
 2331              		.loc 1 610 0 discriminator 2
 2332 04be 451C     		add	r5, r0, #1
 2333              	.LVL380:
 611:..\Slider.cydsn/command_telemetry.c ****                     }// for all the white LEDS
 2334              		.loc 1 611 0 discriminator 2
 2335 04c0 281C     		mov	r0, r5
 2336 04c2 FFF7FEFF 		bl	atoi
 2337              	.LVL381:
 2338 04c6 7200     		lsl	r2, r6, #1
 2339 04c8 03AB     		add	r3, sp, #12
 2340 04ca D052     		strh	r0, [r2, r3]
 603:..\Slider.cydsn/command_telemetry.c ****                     {
 2341              		.loc 1 603 0 discriminator 2
 2342 04cc 0136     		add	r6, r6, #1
 2343              	.LVL382:
 2344              	.L150:
 603:..\Slider.cydsn/command_telemetry.c ****                     {
 2345              		.loc 1 603 0 is_stmt 0 discriminator 1
 2346 04ce 0E2E     		cmp	r6, #14
 2347 04d0 E8DD     		ble	.L152
 617:..\Slider.cydsn/command_telemetry.c ****                     {
 2348              		.loc 1 617 0 is_stmt 1
 2349 04d2 281C     		mov	r0, r5
 2350 04d4 2D21     		mov	r1, #45
 2351 04d6 FFF7FEFF 		bl	strchr
 2352              	.LVL383:
 2353 04da 0028     		cmp	r0, #0
 2354 04dc 06D1     		bne	.L153
 619:..\Slider.cydsn/command_telemetry.c ****                         return FALSE;
 2355              		.loc 1 619 0
 2356 04de 0230     		add	r0, r0, #2
 2357              	.LVL384:
 2358 04e0 211C     		mov	r1, r4
 2359 04e2 7E4A     		ldr	r2, .L182+8
 2360 04e4 FFF7FEFF 		bl	send_alarm_telemetry
 2361              	.LVL385:
 620:..\Slider.cydsn/command_telemetry.c ****                     }// If we can't find the next '-' character
 2362              		.loc 1 620 0
 2363 04e8 0020     		mov	r0, #0
 2364 04ea 10E1     		b	.L95
 2365              	.LVL386:
ARM GAS  C:\Users\MM1005~1\AppData\Local\Temp\cc36bet7.s 			page 65


 2366              	.L153:
 622:..\Slider.cydsn/command_telemetry.c ****                     led_vec[E_LED_RIGHT_RED] = atoi(param_str);
 2367              		.loc 1 622 0
 2368 04ec 451C     		add	r5, r0, #1
 2369              	.LVL387:
 623:..\Slider.cydsn/command_telemetry.c ****                     
 2370              		.loc 1 623 0
 2371 04ee 281C     		mov	r0, r5
 2372 04f0 FFF7FEFF 		bl	atoi
 2373              	.LVL388:
 2374 04f4 03AB     		add	r3, sp, #12
 2375 04f6 9884     		strh	r0, [r3, #36]
 628:..\Slider.cydsn/command_telemetry.c ****                     {
 2376              		.loc 1 628 0
 2377 04f8 281C     		mov	r0, r5
 2378 04fa 2D21     		mov	r1, #45
 2379 04fc FFF7FEFF 		bl	strchr
 2380              	.LVL389:
 2381 0500 0028     		cmp	r0, #0
 2382 0502 06D1     		bne	.L154
 630:..\Slider.cydsn/command_telemetry.c ****                         return FALSE;
 2383              		.loc 1 630 0
 2384 0504 0230     		add	r0, r0, #2
 2385              	.LVL390:
 2386 0506 211C     		mov	r1, r4
 2387 0508 744A     		ldr	r2, .L182+8
 2388 050a FFF7FEFF 		bl	send_alarm_telemetry
 2389              	.LVL391:
 631:..\Slider.cydsn/command_telemetry.c ****                     }// If we can't find the next '-' character
 2390              		.loc 1 631 0
 2391 050e 0020     		mov	r0, #0
 2392 0510 FDE0     		b	.L95
 2393              	.LVL392:
 2394              	.L154:
 633:..\Slider.cydsn/command_telemetry.c ****                     led_vec[E_LED_RIGHT_GREEN] = atoi(param_str);
 2395              		.loc 1 633 0
 2396 0512 451C     		add	r5, r0, #1
 2397              	.LVL393:
 634:..\Slider.cydsn/command_telemetry.c ****                     
 2398              		.loc 1 634 0
 2399 0514 281C     		mov	r0, r5
 2400 0516 FFF7FEFF 		bl	atoi
 2401              	.LVL394:
 2402 051a 03AB     		add	r3, sp, #12
 2403 051c D884     		strh	r0, [r3, #38]
 639:..\Slider.cydsn/command_telemetry.c ****                     {
 2404              		.loc 1 639 0
 2405 051e 281C     		mov	r0, r5
 2406 0520 2D21     		mov	r1, #45
 2407 0522 FFF7FEFF 		bl	strchr
 2408              	.LVL395:
 2409 0526 0028     		cmp	r0, #0
 2410 0528 06D1     		bne	.L155
 641:..\Slider.cydsn/command_telemetry.c ****                         return FALSE;
 2411              		.loc 1 641 0
 2412 052a 0230     		add	r0, r0, #2
 2413              	.LVL396:
ARM GAS  C:\Users\MM1005~1\AppData\Local\Temp\cc36bet7.s 			page 66


 2414 052c 211C     		mov	r1, r4
 2415 052e 6B4A     		ldr	r2, .L182+8
 2416 0530 FFF7FEFF 		bl	send_alarm_telemetry
 2417              	.LVL397:
 642:..\Slider.cydsn/command_telemetry.c ****                     }// If we can't find the next '-' character
 2418              		.loc 1 642 0
 2419 0534 0020     		mov	r0, #0
 2420 0536 EAE0     		b	.L95
 2421              	.LVL398:
 2422              	.L155:
 644:..\Slider.cydsn/command_telemetry.c ****                     led_vec[E_LED_RIGHT_BLUE] = atoi(param_str);
 2423              		.loc 1 644 0
 2424 0538 0130     		add	r0, r0, #1
 2425              	.LVL399:
 645:..\Slider.cydsn/command_telemetry.c ****                     
 2426              		.loc 1 645 0
 2427 053a FFF7FEFF 		bl	atoi
 2428              	.LVL400:
 2429 053e 03AB     		add	r3, sp, #12
 2430 0540 1885     		strh	r0, [r3, #40]
 647:..\Slider.cydsn/command_telemetry.c ****                     break;
 2431              		.loc 1 647 0
 2432 0542 181C     		mov	r0, r3
 2433 0544 FFF7FEFF 		bl	set_led_strip
 2434              	.LVL401:
 811:..\Slider.cydsn/command_telemetry.c **** }// parse_and_execute_command
 2435              		.loc 1 811 0
 2436 0548 0120     		mov	r0, #1
 648:..\Slider.cydsn/command_telemetry.c ****                 }// CMD_LED_SET_STRIP
 2437              		.loc 1 648 0
 2438 054a E0E0     		b	.L95
 2439              	.LVL402:
 2440              	.L124:
 654:..\Slider.cydsn/command_telemetry.c ****                     return FALSE;
 2441              		.loc 1 654 0
 2442 054c 0220     		mov	r0, #2
 2443              	.LVL403:
 2444 054e 211C     		mov	r1, r4
 2445 0550 634A     		ldr	r2, .L182+12
 2446 0552 FFF7FEFF 		bl	send_alarm_telemetry
 2447              	.LVL404:
 655:..\Slider.cydsn/command_telemetry.c ****                 }// CMD_LED_UNKNOWN, default
 2448              		.loc 1 655 0
 2449 0556 0020     		mov	r0, #0
 2450 0558 D9E0     		b	.L95
 2451              	.LVL405:
 2452              	.L103:
 664:..\Slider.cydsn/command_telemetry.c ****             {
 2453              		.loc 1 664 0
 2454 055a 281C     		mov	r0, r5
 2455 055c 2C21     		mov	r1, #44
 2456 055e FFF7FEFF 		bl	strchr
 2457              	.LVL406:
 2458 0562 0028     		cmp	r0, #0
 2459 0564 06D1     		bne	.L156
 666:..\Slider.cydsn/command_telemetry.c ****                 return FALSE;
 2460              		.loc 1 666 0
ARM GAS  C:\Users\MM1005~1\AppData\Local\Temp\cc36bet7.s 			page 67


 2461 0566 0230     		add	r0, r0, #2
 2462              	.LVL407:
 2463 0568 211C     		mov	r1, r4
 2464 056a 5E4A     		ldr	r2, .L182+16
 2465 056c FFF7FEFF 		bl	send_alarm_telemetry
 2466              	.LVL408:
 667:..\Slider.cydsn/command_telemetry.c ****             }// If we can't find the next ',' character
 2467              		.loc 1 667 0
 2468 0570 0020     		mov	r0, #0
 2469 0572 CCE0     		b	.L95
 2470              	.LVL409:
 2471              	.L156:
 670:..\Slider.cydsn/command_telemetry.c ****             {
 2472              		.loc 1 670 0
 2473 0574 0130     		add	r0, r0, #1
 2474              	.LVL410:
 2475 0576 3A21     		mov	r1, #58
 2476 0578 FFF7FEFF 		bl	strchr
 2477              	.LVL411:
 2478 057c 0028     		cmp	r0, #0
 2479 057e 06D1     		bne	.L157
 672:..\Slider.cydsn/command_telemetry.c ****                 return FALSE;
 2480              		.loc 1 672 0
 2481 0580 0230     		add	r0, r0, #2
 2482              	.LVL412:
 2483 0582 211C     		mov	r1, r4
 2484 0584 574A     		ldr	r2, .L182+16
 2485 0586 FFF7FEFF 		bl	send_alarm_telemetry
 2486              	.LVL413:
 673:..\Slider.cydsn/command_telemetry.c ****             }// If we can't find the next ':' character
 2487              		.loc 1 673 0
 2488 058a 0020     		mov	r0, #0
 2489 058c BFE0     		b	.L95
 2490              	.LVL414:
 2491              	.L157:
 675:..\Slider.cydsn/command_telemetry.c ****             
 2492              		.loc 1 675 0
 2493 058e 0130     		add	r0, r0, #1
 2494              	.LVL415:
 677:..\Slider.cydsn/command_telemetry.c ****             {
 2495              		.loc 1 677 0
 2496 0590 FFF7FEFF 		bl	get_sensor_cmd_id_from_cmd_string
 2497              	.LVL416:
 2498 0594 0028     		cmp	r0, #0
 2499 0596 06D0     		beq	.L159
 2500 0598 0128     		cmp	r0, #1
 2501 059a 09D1     		bne	.L177
 681:..\Slider.cydsn/command_telemetry.c ****                     break;
 2502              		.loc 1 681 0
 2503 059c 0020     		mov	r0, #0
 2504              	.LVL417:
 2505 059e FFF7FEFF 		bl	set_is_sensor_telemetry_enable
 2506              	.LVL418:
 811:..\Slider.cydsn/command_telemetry.c **** }// parse_and_execute_command
 2507              		.loc 1 811 0
 2508 05a2 0120     		mov	r0, #1
 682:..\Slider.cydsn/command_telemetry.c ****                 }// CMD_TRACKER_DISABLE      
ARM GAS  C:\Users\MM1005~1\AppData\Local\Temp\cc36bet7.s 			page 68


 2509              		.loc 1 682 0
 2510 05a4 B3E0     		b	.L95
 2511              	.LVL419:
 2512              	.L159:
 687:..\Slider.cydsn/command_telemetry.c ****                     break;
 2513              		.loc 1 687 0
 2514 05a6 0120     		mov	r0, #1
 2515              	.LVL420:
 2516 05a8 FFF7FEFF 		bl	set_is_sensor_telemetry_enable
 2517              	.LVL421:
 811:..\Slider.cydsn/command_telemetry.c **** }// parse_and_execute_command
 2518              		.loc 1 811 0
 2519 05ac 0120     		mov	r0, #1
 688:..\Slider.cydsn/command_telemetry.c ****                 }// CMD_TRACKER_ENABLE
 2520              		.loc 1 688 0
 2521 05ae AEE0     		b	.L95
 2522              	.LVL422:
 2523              	.L177:
 694:..\Slider.cydsn/command_telemetry.c ****                     return FALSE;
 2524              		.loc 1 694 0
 2525 05b0 0220     		mov	r0, #2
 2526              	.LVL423:
 2527 05b2 211C     		mov	r1, r4
 2528 05b4 4B4A     		ldr	r2, .L182+16
 2529 05b6 FFF7FEFF 		bl	send_alarm_telemetry
 2530              	.LVL424:
 695:..\Slider.cydsn/command_telemetry.c ****                 }// CMD_TRACKER_UNKNOWN, default
 2531              		.loc 1 695 0
 2532 05ba 0020     		mov	r0, #0
 2533 05bc A7E0     		b	.L95
 2534              	.LVL425:
 2535              	.L104:
 703:..\Slider.cydsn/command_telemetry.c ****             {
 2536              		.loc 1 703 0
 2537 05be 281C     		mov	r0, r5
 2538 05c0 2C21     		mov	r1, #44
 2539 05c2 FFF7FEFF 		bl	strchr
 2540              	.LVL426:
 2541 05c6 0028     		cmp	r0, #0
 2542 05c8 06D1     		bne	.L161
 705:..\Slider.cydsn/command_telemetry.c ****                 return FALSE;
 2543              		.loc 1 705 0
 2544 05ca 0230     		add	r0, r0, #2
 2545              	.LVL427:
 2546 05cc 211C     		mov	r1, r4
 2547 05ce 464A     		ldr	r2, .L182+20
 2548 05d0 FFF7FEFF 		bl	send_alarm_telemetry
 2549              	.LVL428:
 706:..\Slider.cydsn/command_telemetry.c ****             }// If we can't find the next ',' character
 2550              		.loc 1 706 0
 2551 05d4 0020     		mov	r0, #0
 2552 05d6 9AE0     		b	.L95
 2553              	.LVL429:
 2554              	.L161:
 709:..\Slider.cydsn/command_telemetry.c ****             {
 2555              		.loc 1 709 0
 2556 05d8 0130     		add	r0, r0, #1
ARM GAS  C:\Users\MM1005~1\AppData\Local\Temp\cc36bet7.s 			page 69


 2557              	.LVL430:
 2558 05da 3A21     		mov	r1, #58
 2559 05dc FFF7FEFF 		bl	strchr
 2560              	.LVL431:
 2561 05e0 0028     		cmp	r0, #0
 2562 05e2 06D1     		bne	.L162
 711:..\Slider.cydsn/command_telemetry.c ****                 return FALSE;
 2563              		.loc 1 711 0
 2564 05e4 0230     		add	r0, r0, #2
 2565              	.LVL432:
 2566 05e6 211C     		mov	r1, r4
 2567 05e8 3F4A     		ldr	r2, .L182+20
 2568 05ea FFF7FEFF 		bl	send_alarm_telemetry
 2569              	.LVL433:
 712:..\Slider.cydsn/command_telemetry.c ****             }// If we can't find the next ':' character
 2570              		.loc 1 712 0
 2571 05ee 0020     		mov	r0, #0
 2572 05f0 8DE0     		b	.L95
 2573              	.LVL434:
 2574              	.L162:
 714:..\Slider.cydsn/command_telemetry.c ****             
 2575              		.loc 1 714 0
 2576 05f2 0130     		add	r0, r0, #1
 2577              	.LVL435:
 716:..\Slider.cydsn/command_telemetry.c ****             {
 2578              		.loc 1 716 0
 2579 05f4 FFF7FEFF 		bl	get_telemetry_cmd_id_from_cmd_string
 2580              	.LVL436:
 2581 05f8 0028     		cmp	r0, #0
 2582 05fa 06D0     		beq	.L164
 2583 05fc 0128     		cmp	r0, #1
 2584 05fe 09D1     		bne	.L178
 720:..\Slider.cydsn/command_telemetry.c ****                     break;
 2585              		.loc 1 720 0
 2586 0600 0020     		mov	r0, #0
 2587              	.LVL437:
 2588 0602 FFF7FEFF 		bl	set_is_telemetry_enable
 2589              	.LVL438:
 811:..\Slider.cydsn/command_telemetry.c **** }// parse_and_execute_command
 2590              		.loc 1 811 0
 2591 0606 0120     		mov	r0, #1
 721:..\Slider.cydsn/command_telemetry.c ****                 }// CMD_TRACKER_DISABLE      
 2592              		.loc 1 721 0
 2593 0608 81E0     		b	.L95
 2594              	.LVL439:
 2595              	.L164:
 726:..\Slider.cydsn/command_telemetry.c ****                     break;
 2596              		.loc 1 726 0
 2597 060a 0120     		mov	r0, #1
 2598              	.LVL440:
 2599 060c FFF7FEFF 		bl	set_is_telemetry_enable
 2600              	.LVL441:
 811:..\Slider.cydsn/command_telemetry.c **** }// parse_and_execute_command
 2601              		.loc 1 811 0
 2602 0610 0120     		mov	r0, #1
 727:..\Slider.cydsn/command_telemetry.c ****                 }// CMD_TRACKER_ENABLE
 2603              		.loc 1 727 0
ARM GAS  C:\Users\MM1005~1\AppData\Local\Temp\cc36bet7.s 			page 70


 2604 0612 7CE0     		b	.L95
 2605              	.LVL442:
 2606              	.L178:
 733:..\Slider.cydsn/command_telemetry.c ****                     return FALSE;
 2607              		.loc 1 733 0
 2608 0614 0220     		mov	r0, #2
 2609              	.LVL443:
 2610 0616 211C     		mov	r1, r4
 2611 0618 334A     		ldr	r2, .L182+20
 2612 061a FFF7FEFF 		bl	send_alarm_telemetry
 2613              	.LVL444:
 734:..\Slider.cydsn/command_telemetry.c ****                 }// CMD_TRACKER_UNKNOWN, default
 2614              		.loc 1 734 0
 2615 061e 0020     		mov	r0, #0
 2616 0620 75E0     		b	.L95
 2617              	.LVL445:
 2618              	.L105:
 742:..\Slider.cydsn/command_telemetry.c ****             {
 2619              		.loc 1 742 0
 2620 0622 281C     		mov	r0, r5
 2621 0624 2C21     		mov	r1, #44
 2622 0626 FFF7FEFF 		bl	strchr
 2623              	.LVL446:
 2624 062a 0028     		cmp	r0, #0
 2625 062c 06D1     		bne	.L166
 744:..\Slider.cydsn/command_telemetry.c ****                 return FALSE;
 2626              		.loc 1 744 0
 2627 062e 0230     		add	r0, r0, #2
 2628              	.LVL447:
 2629 0630 211C     		mov	r1, r4
 2630 0632 2E4A     		ldr	r2, .L182+24
 2631 0634 FFF7FEFF 		bl	send_alarm_telemetry
 2632              	.LVL448:
 745:..\Slider.cydsn/command_telemetry.c ****             }// If we can't find the next ',' character
 2633              		.loc 1 745 0
 2634 0638 0020     		mov	r0, #0
 2635 063a 68E0     		b	.L95
 2636              	.LVL449:
 2637              	.L166:
 748:..\Slider.cydsn/command_telemetry.c ****             {
 2638              		.loc 1 748 0
 2639 063c 0130     		add	r0, r0, #1
 2640              	.LVL450:
 2641 063e 3A21     		mov	r1, #58
 2642 0640 FFF7FEFF 		bl	strchr
 2643              	.LVL451:
 2644 0644 0028     		cmp	r0, #0
 2645 0646 06D1     		bne	.L167
 750:..\Slider.cydsn/command_telemetry.c ****                 return FALSE;
 2646              		.loc 1 750 0
 2647 0648 0230     		add	r0, r0, #2
 2648              	.LVL452:
 2649 064a 211C     		mov	r1, r4
 2650 064c 274A     		ldr	r2, .L182+24
 2651 064e FFF7FEFF 		bl	send_alarm_telemetry
 2652              	.LVL453:
 751:..\Slider.cydsn/command_telemetry.c ****             }// If we can't find the next ':' character
ARM GAS  C:\Users\MM1005~1\AppData\Local\Temp\cc36bet7.s 			page 71


 2653              		.loc 1 751 0
 2654 0652 0020     		mov	r0, #0
 2655 0654 5BE0     		b	.L95
 2656              	.LVL454:
 2657              	.L167:
 753:..\Slider.cydsn/command_telemetry.c ****             
 2658              		.loc 1 753 0
 2659 0656 451C     		add	r5, r0, #1
 2660              	.LVL455:
 755:..\Slider.cydsn/command_telemetry.c ****             {
 2661              		.loc 1 755 0
 2662 0658 281C     		mov	r0, r5
 2663 065a FFF7FEFF 		bl	get_tracker_cmd_id_from_cmd_string
 2664              	.LVL456:
 2665 065e 0128     		cmp	r0, #1
 2666 0660 04D0     		beq	.L169
 2667 0662 0028     		cmp	r0, #0
 2668 0664 07D0     		beq	.L170
 2669 0666 0228     		cmp	r0, #2
 2670 0668 0AD0     		beq	.L171
 2671 066a 2BE0     		b	.L179
 2672              	.L169:
 759:..\Slider.cydsn/command_telemetry.c ****                     break;
 2673              		.loc 1 759 0
 2674 066c 0020     		mov	r0, #0
 2675              	.LVL457:
 2676 066e FFF7FEFF 		bl	set_is_tracker_enable
 2677              	.LVL458:
 811:..\Slider.cydsn/command_telemetry.c **** }// parse_and_execute_command
 2678              		.loc 1 811 0
 2679 0672 0120     		mov	r0, #1
 760:..\Slider.cydsn/command_telemetry.c ****                 }// CMD_TRACKER_DISABLE      
 2680              		.loc 1 760 0
 2681 0674 4BE0     		b	.L95
 2682              	.LVL459:
 2683              	.L170:
 765:..\Slider.cydsn/command_telemetry.c ****                     break;
 2684              		.loc 1 765 0
 2685 0676 0120     		mov	r0, #1
 2686              	.LVL460:
 2687 0678 FFF7FEFF 		bl	set_is_tracker_enable
 2688              	.LVL461:
 811:..\Slider.cydsn/command_telemetry.c **** }// parse_and_execute_command
 2689              		.loc 1 811 0
 2690 067c 0120     		mov	r0, #1
 766:..\Slider.cydsn/command_telemetry.c ****                 }// CMD_TRACKER_ENABLE
 2691              		.loc 1 766 0
 2692 067e 46E0     		b	.L95
 2693              	.LVL462:
 2694              	.L171:
 771:..\Slider.cydsn/command_telemetry.c ****                     {
 2695              		.loc 1 771 0
 2696 0680 281C     		mov	r0, r5
 2697              	.LVL463:
 2698 0682 2C21     		mov	r1, #44
 2699 0684 FFF7FEFF 		bl	strchr
 2700              	.LVL464:
ARM GAS  C:\Users\MM1005~1\AppData\Local\Temp\cc36bet7.s 			page 72


 2701 0688 0028     		cmp	r0, #0
 2702 068a 06D1     		bne	.L172
 773:..\Slider.cydsn/command_telemetry.c ****                         return FALSE;
 2703              		.loc 1 773 0
 2704 068c 0230     		add	r0, r0, #2
 2705              	.LVL465:
 2706 068e 211C     		mov	r1, r4
 2707 0690 164A     		ldr	r2, .L182+24
 2708 0692 FFF7FEFF 		bl	send_alarm_telemetry
 2709              	.LVL466:
 774:..\Slider.cydsn/command_telemetry.c ****                     }// If we can't find the next ',' character
 2710              		.loc 1 774 0
 2711 0696 0020     		mov	r0, #0
 2712 0698 39E0     		b	.L95
 2713              	.LVL467:
 2714              	.L172:
 777:..\Slider.cydsn/command_telemetry.c ****                     {
 2715              		.loc 1 777 0
 2716 069a 0130     		add	r0, r0, #1
 2717              	.LVL468:
 2718 069c 3A21     		mov	r1, #58
 2719 069e FFF7FEFF 		bl	strchr
 2720              	.LVL469:
 2721 06a2 0028     		cmp	r0, #0
 2722 06a4 06D1     		bne	.L173
 779:..\Slider.cydsn/command_telemetry.c ****                         return FALSE;
 2723              		.loc 1 779 0
 2724 06a6 0230     		add	r0, r0, #2
 2725              	.LVL470:
 2726 06a8 211C     		mov	r1, r4
 2727 06aa 104A     		ldr	r2, .L182+24
 2728 06ac FFF7FEFF 		bl	send_alarm_telemetry
 2729              	.LVL471:
 780:..\Slider.cydsn/command_telemetry.c ****                     }// If we can't find the next ':' character
 2730              		.loc 1 780 0
 2731 06b0 0020     		mov	r0, #0
 2732 06b2 2CE0     		b	.L95
 2733              	.LVL472:
 2734              	.L173:
 782:..\Slider.cydsn/command_telemetry.c ****                     set_number_of_buttons (atoi(param_str));
 2735              		.loc 1 782 0
 2736 06b4 0130     		add	r0, r0, #1
 2737              	.LVL473:
 783:..\Slider.cydsn/command_telemetry.c ****                     break;
 2738              		.loc 1 783 0
 2739 06b6 FFF7FEFF 		bl	atoi
 2740              	.LVL474:
 2741 06ba 80B2     		uxth	r0, r0
 2742 06bc FFF7FEFF 		bl	set_number_of_buttons
 2743              	.LVL475:
 811:..\Slider.cydsn/command_telemetry.c **** }// parse_and_execute_command
 2744              		.loc 1 811 0
 2745 06c0 0120     		mov	r0, #1
 784:..\Slider.cydsn/command_telemetry.c ****                 }// CMD_TRACKER_SET_BUTTON
 2746              		.loc 1 784 0
 2747 06c2 24E0     		b	.L95
 2748              	.LVL476:
ARM GAS  C:\Users\MM1005~1\AppData\Local\Temp\cc36bet7.s 			page 73


 2749              	.L179:
 790:..\Slider.cydsn/command_telemetry.c ****                     return FALSE;
 2750              		.loc 1 790 0
 2751 06c4 0220     		mov	r0, #2
 2752              	.LVL477:
 2753 06c6 211C     		mov	r1, r4
 2754 06c8 084A     		ldr	r2, .L182+24
 2755 06ca FFF7FEFF 		bl	send_alarm_telemetry
 2756              	.LVL478:
 791:..\Slider.cydsn/command_telemetry.c ****                 }// CMD_TRACKER_UNKNOWN, default
 2757              		.loc 1 791 0
 2758 06ce 0020     		mov	r0, #0
 2759 06d0 1DE0     		b	.L95
 2760              	.L183:
 2761 06d2 C046     		.align	2
 2762              	.L182:
 2763 06d4 80020000 		.word	.LC96
 2764 06d8 04020000 		.word	.LC88
 2765 06dc 94020000 		.word	.LC98
 2766 06e0 B4020000 		.word	.LC100
 2767 06e4 90010000 		.word	.LC79
 2768 06e8 CC020000 		.word	.LC102
 2769 06ec EC020000 		.word	.LC104
 2770              	.LVL479:
 2771              	.L106:
 799:..\Slider.cydsn/command_telemetry.c ****             break;
 2772              		.loc 1 799 0
 2773 06f0 FFF7FEFF 		bl	get_software_version
 2774              	.LVL480:
 2775 06f4 021C     		mov	r2, r0
 2776 06f6 0120     		mov	r0, #1
 2777 06f8 0649     		ldr	r1, .L184
 2778 06fa FFF7FEFF 		bl	send_alarm_telemetry
 2779              	.LVL481:
 811:..\Slider.cydsn/command_telemetry.c **** }// parse_and_execute_command
 2780              		.loc 1 811 0
 2781 06fe 0120     		mov	r0, #1
 800:..\Slider.cydsn/command_telemetry.c ****         }// CMD_VERSION
 2782              		.loc 1 800 0
 2783 0700 05E0     		b	.L95
 2784              	.LVL482:
 2785              	.L96:
 806:..\Slider.cydsn/command_telemetry.c ****             return FALSE;
 2786              		.loc 1 806 0
 2787 0702 0220     		mov	r0, #2
 2788              	.LVL483:
 2789 0704 211C     		mov	r1, r4
 2790 0706 044A     		ldr	r2, .L184+4
 2791 0708 FFF7FEFF 		bl	send_alarm_telemetry
 2792              	.LVL484:
 807:..\Slider.cydsn/command_telemetry.c ****         }// default
 2793              		.loc 1 807 0
 2794 070c 0020     		mov	r0, #0
 2795              	.LVL485:
 2796              	.L95:
 812:..\Slider.cydsn/command_telemetry.c **** 
 2797              		.loc 1 812 0
ARM GAS  C:\Users\MM1005~1\AppData\Local\Temp\cc36bet7.s 			page 74


 2798 070e 13B0     		add	sp, sp, #76
 2799              		@ sp needed
 2800 0710 F0BD     		pop	{r4, r5, r6, r7, pc}
 2801              	.L185:
 2802 0712 C046     		.align	2
 2803              	.L184:
 2804 0714 08030000 		.word	.LC106
 2805 0718 10030000 		.word	.LC108
 2806              		.cfi_endproc
 2807              	.LFE43:
 2808              		.size	parse_and_execute_command, .-parse_and_execute_command
 2809              		.section	.rodata
 2810              		.align	2
 2811              		.set	.LANCHOR0,. + 0
 2812              		.set	.LANCHOR1,. + 128
 2813              		.set	.LANCHOR2,. + 256
 2814              		.type	vec_commands, %object
 2815              		.size	vec_commands, 108
 2816              	vec_commands:
 2817 0038 0000     		.short	0
 2818 003a 0000     		.space	2
 2819 003c 64010000 		.word	.LC75
 2820 0040 48030000 		.word	.LC110
 2821 0044 0100     		.short	1
 2822 0046 0000     		.space	2
 2823 0048 68030000 		.word	.LC111
 2824 004c 74030000 		.word	.LC112
 2825 0050 0200     		.short	2
 2826 0052 0000     		.space	2
 2827 0054 8C030000 		.word	.LC113
 2828 0058 98030000 		.word	.LC114
 2829 005c 0400     		.short	4
 2830 005e 0000     		.space	2
 2831 0060 BC030000 		.word	.LC115
 2832 0064 C4030000 		.word	.LC116
 2833 0068 0300     		.short	3
 2834 006a 0000     		.space	2
 2835 006c C8030000 		.word	.LC117
 2836 0070 CC030000 		.word	.LC118
 2837 0074 0500     		.short	5
 2838 0076 0000     		.space	2
 2839 0078 D8030000 		.word	.LC119
 2840 007c E0030000 		.word	.LC120
 2841 0080 0600     		.short	6
 2842 0082 0000     		.space	2
 2843 0084 04040000 		.word	.LC121
 2844 0088 10040000 		.word	.LC122
 2845 008c 0700     		.short	7
 2846 008e 0000     		.space	2
 2847 0090 2C040000 		.word	.LC123
 2848 0094 34040000 		.word	.LC124
 2849 0098 0800     		.short	8
 2850 009a 0000     		.space	2
 2851 009c 08030000 		.word	.LC106
 2852 00a0 58040000 		.word	.LC125
 2853              		.type	vec_sensor_commands, %object
 2854              		.size	vec_sensor_commands, 24
ARM GAS  C:\Users\MM1005~1\AppData\Local\Temp\cc36bet7.s 			page 75


 2855              	vec_sensor_commands:
 2856 00a4 0100     		.short	1
 2857 00a6 0000     		.space	2
 2858 00a8 30050000 		.word	.LC136
 2859 00ac D8050000 		.word	.LC144
 2860 00b0 0000     		.short	0
 2861 00b2 0000     		.space	2
 2862 00b4 58050000 		.word	.LC138
 2863 00b8 F4050000 		.word	.LC145
 2864              		.type	vec_telemetry_commands, %object
 2865              		.size	vec_telemetry_commands, 24
 2866              	vec_telemetry_commands:
 2867 00bc 0100     		.short	1
 2868 00be 0000     		.space	2
 2869 00c0 30050000 		.word	.LC136
 2870 00c4 B0050000 		.word	.LC142
 2871 00c8 0000     		.short	0
 2872 00ca 0000     		.space	2
 2873 00cc 58050000 		.word	.LC138
 2874 00d0 C4050000 		.word	.LC143
 2875              		.type	vec_tracker_commands, %object
 2876              		.size	vec_tracker_commands, 36
 2877              	vec_tracker_commands:
 2878 00d4 0100     		.short	1
 2879 00d6 0000     		.space	2
 2880 00d8 30050000 		.word	.LC136
 2881 00dc 38050000 		.word	.LC137
 2882 00e0 0000     		.short	0
 2883 00e2 0000     		.space	2
 2884 00e4 58050000 		.word	.LC138
 2885 00e8 60050000 		.word	.LC139
 2886 00ec 0200     		.short	2
 2887 00ee 0000     		.space	2
 2888 00f0 80050000 		.word	.LC140
 2889 00f4 8C050000 		.word	.LC141
 2890              		.type	vec_anim_commands, %object
 2891              		.size	vec_anim_commands, 48
 2892              	vec_anim_commands:
 2893 00f8 0000     		.short	0
 2894 00fa 0000     		.space	2
 2895 00fc 10060000 		.word	.LC146
 2896 0100 18060000 		.word	.LC147
 2897 0104 0100     		.short	1
 2898 0106 0000     		.space	2
 2899 0108 38060000 		.word	.LC148
 2900 010c 40060000 		.word	.LC149
 2901 0110 0200     		.short	2
 2902 0112 0000     		.space	2
 2903 0114 60060000 		.word	.LC150
 2904 0118 68060000 		.word	.LC151
 2905 011c 0300     		.short	3
 2906 011e 0000     		.space	2
 2907 0120 78060000 		.word	.LC152
 2908 0124 80060000 		.word	.LC153
 2909              		.type	vec_boot_commands, %object
 2910              		.size	vec_boot_commands, 36
 2911              	vec_boot_commands:
ARM GAS  C:\Users\MM1005~1\AppData\Local\Temp\cc36bet7.s 			page 76


 2912 0128 0000     		.short	0
 2913 012a 0000     		.space	2
 2914 012c 94060000 		.word	.LC154
 2915 0130 9C060000 		.word	.LC155
 2916 0134 0100     		.short	1
 2917 0136 0000     		.space	2
 2918 0138 B8060000 		.word	.LC156
 2919 013c C0060000 		.word	.LC157
 2920 0140 0200     		.short	2
 2921 0142 0000     		.space	2
 2922 0144 DC060000 		.word	.LC158
 2923 0148 EC060000 		.word	.LC159
 2924              		.type	vec_led_commands, %object
 2925              		.size	vec_led_commands, 60
 2926              	vec_led_commands:
 2927 014c 0000     		.short	0
 2928 014e 0000     		.space	2
 2929 0150 70040000 		.word	.LC126
 2930 0154 78040000 		.word	.LC127
 2931 0158 0100     		.short	1
 2932 015a 0000     		.space	2
 2933 015c 88040000 		.word	.LC128
 2934 0160 98040000 		.word	.LC129
 2935 0164 0200     		.short	2
 2936 0166 0000     		.space	2
 2937 0168 B8040000 		.word	.LC130
 2938 016c C8040000 		.word	.LC131
 2939 0170 0300     		.short	3
 2940 0172 0000     		.space	2
 2941 0174 E8040000 		.word	.LC132
 2942 0178 F4040000 		.word	.LC133
 2943 017c 0400     		.short	4
 2944 017e 0000     		.space	2
 2945 0180 10050000 		.word	.LC134
 2946 0184 1C050000 		.word	.LC135
 2947              	.LC14:
 2948 0188 24030000 		.word	.LC0
 2949 018c 28030000 		.word	.LC1
 2950 0190 30030000 		.word	.LC2
 2951 0194 38030000 		.word	.LC3
 2952 0198 40030000 		.word	.LC4
 2953              		.section	.rodata.str1.4,"aMS",%progbits,1
 2954              		.align	2
 2955              	.LC17:
 2956 0000 7B226576 		.ascii	"{\"event\":\"alarm\", \"type\":\"\000"
 2956      656E7422 
 2956      3A22616C 
 2956      61726D22 
 2956      2C202274 
 2957 001b 00       		.space	1
 2958              	.LC19:
 2959 001c 222C2022 		.ascii	"\", \"source\":\"\000"
 2959      736F7572 
 2959      6365223A 
 2959      2200
 2960 002a 0000     		.space	2
 2961              	.LC21:
ARM GAS  C:\Users\MM1005~1\AppData\Local\Temp\cc36bet7.s 			page 77


 2962 002c 222C2022 		.ascii	"\", \"description\":\"\000"
 2962      64657363 
 2962      72697074 
 2962      696F6E22 
 2962      3A2200
 2963 003f 00       		.space	1
 2964              	.LC23:
 2965 0040 227D00   		.ascii	"\"}\000"
 2966 0043 00       		.space	1
 2967              	.LC27:
 2968 0044 7B226576 		.ascii	"{\"event\":\"animation\", \"name\":\"\000"
 2968      656E7422 
 2968      3A22616E 
 2968      696D6174 
 2968      696F6E22 
 2969 0063 00       		.space	1
 2970              	.LC29:
 2971 0064 222C2022 		.ascii	"\", \"action\":\"\000"
 2971      61637469 
 2971      6F6E223A 
 2971      2200
 2972 0072 0000     		.space	2
 2973              	.LC33:
 2974 0074 646F776E 		.ascii	"down\000"
 2974      00
 2975 0079 000000   		.space	3
 2976              	.LC35:
 2977 007c 757000   		.ascii	"up\000"
 2978 007f 00       		.space	1
 2979              	.LC38:
 2980 0080 7B226576 		.ascii	"{\"event\":\"push button\", \"id\":\000"
 2980      656E7422 
 2980      3A227075 
 2980      73682062 
 2980      7574746F 
 2981 009e 0000     		.space	2
 2982              	.LC40:
 2983 00a0 2C20226E 		.ascii	", \"name\":\"\000"
 2983      616D6522 
 2983      3A2200
 2984 00ab 00       		.space	1
 2985              	.LC42:
 2986 00ac 222C2022 		.ascii	"\", \"state\":\"\000"
 2986      73746174 
 2986      65223A22 
 2986      00
 2987 00b9 000000   		.space	3
 2988              	.LC47:
 2989 00bc 7B226576 		.ascii	"{\"event\":\"flash geometry\", \"checksum\":\000"
 2989      656E7422 
 2989      3A22666C 
 2989      61736820 
 2989      67656F6D 
 2990 00e3 00       		.space	1
 2991              	.LC49:
 2992 00e4 2C202266 		.ascii	", \"first row\":\000"
 2992      69727374 
ARM GAS  C:\Users\MM1005~1\AppData\Local\Temp\cc36bet7.s 			page 78


 2992      20726F77 
 2992      223A00
 2993 00f3 00       		.space	1
 2994              	.LC51:
 2995 00f4 2C20226C 		.ascii	", \"last row\":\000"
 2995      61737420 
 2995      726F7722 
 2995      3A00
 2996 0102 0000     		.space	2
 2997              	.LC53:
 2998 0104 2C202273 		.ascii	", \"size\":\000"
 2998      697A6522 
 2998      3A00
 2999 010e 0000     		.space	2
 3000              	.LC55:
 3001 0110 7D00     		.ascii	"}\000"
 3002 0112 0000     		.space	2
 3003              	.LC62:
 3004 0114 7B226576 		.ascii	"{\"event\":\"button\", \"id\":\000"
 3004      656E7422 
 3004      3A226275 
 3004      74746F6E 
 3004      222C2022 
 3005 012d 000000   		.space	3
 3006              	.LC64:
 3007 0130 2C202261 		.ascii	", \"action\":\"\000"
 3007      6374696F 
 3007      6E223A22 
 3007      00
 3008 013d 000000   		.space	3
 3009              	.LC69:
 3010 0140 63616E27 		.ascii	"can't find comma in command\000"
 3010      74206669 
 3010      6E642063 
 3010      6F6D6D61 
 3010      20696E20 
 3011              	.LC72:
 3012 015c 4649584D 		.ascii	"FIXME!\000"
 3012      452100
 3013 0163 00       		.space	1
 3014              	.LC75:
 3015 0164 616E696D 		.ascii	"animation\000"
 3015      6174696F 
 3015      6E00
 3016 016e 0000     		.space	2
 3017              	.LC77:
 3018 0170 756E7375 		.ascii	"unsupported animation action\000"
 3018      70706F72 
 3018      74656420 
 3018      616E696D 
 3018      6174696F 
 3019 018d 000000   		.space	3
 3020              	.LC79:
 3021 0190 756E7375 		.ascii	"unsupported sensor action\000"
 3021      70706F72 
 3021      74656420 
 3021      73656E73 
ARM GAS  C:\Users\MM1005~1\AppData\Local\Temp\cc36bet7.s 			page 79


 3021      6F722061 
 3022 01aa 0000     		.space	2
 3023              	.LC81:
 3024 01ac 626F6F74 		.ascii	"bootloader is disabled\000"
 3024      6C6F6164 
 3024      65722069 
 3024      73206469 
 3024      7361626C 
 3025 01c3 00       		.space	1
 3026              	.LC83:
 3027 01c4 756E7375 		.ascii	"unsupported bootloader action\000"
 3027      70706F72 
 3027      74656420 
 3027      626F6F74 
 3027      6C6F6164 
 3028 01e2 0000     		.space	2
 3029              	.LC86:
 3030 01e4 63616E27 		.ascii	"can't parse red from RGB color\000"
 3030      74207061 
 3030      72736520 
 3030      72656420 
 3030      66726F6D 
 3031 0203 00       		.space	1
 3032              	.LC88:
 3033 0204 63616E27 		.ascii	"can't parse green from RGB color\000"
 3033      74207061 
 3033      72736520 
 3033      67726565 
 3033      6E206672 
 3034 0225 000000   		.space	3
 3035              	.LC90:
 3036 0228 63616E27 		.ascii	"can't parsed green from RGB color\000"
 3036      74207061 
 3036      72736564 
 3036      20677265 
 3036      656E2066 
 3037 024a 0000     		.space	2
 3038              	.LC92:
 3039 024c 63616E27 		.ascii	"can't parse LED index color\000"
 3039      74207061 
 3039      72736520 
 3039      4C454420 
 3039      696E6465 
 3040              	.LC94:
 3041 0268 63616E27 		.ascii	"can't parse LED index\000"
 3041      74207061 
 3041      72736520 
 3041      4C454420 
 3041      696E6465 
 3042 027e 0000     		.space	2
 3043              	.LC96:
 3044 0280 696E7661 		.ascii	"invalid led index\000"
 3044      6C696420 
 3044      6C656420 
 3044      696E6465 
 3044      7800
 3045 0292 0000     		.space	2
ARM GAS  C:\Users\MM1005~1\AppData\Local\Temp\cc36bet7.s 			page 80


 3046              	.LC98:
 3047 0294 63616E27 		.ascii	"can't parse LED strip command\000"
 3047      74207061 
 3047      72736520 
 3047      4C454420 
 3047      73747269 
 3048 02b2 0000     		.space	2
 3049              	.LC100:
 3050 02b4 756E7375 		.ascii	"unsupported led action\000"
 3050      70706F72 
 3050      74656420 
 3050      6C656420 
 3050      61637469 
 3051 02cb 00       		.space	1
 3052              	.LC102:
 3053 02cc 756E7375 		.ascii	"unsupported telemetry action\000"
 3053      70706F72 
 3053      74656420 
 3053      74656C65 
 3053      6D657472 
 3054 02e9 000000   		.space	3
 3055              	.LC104:
 3056 02ec 756E7375 		.ascii	"unsupported tracker action\000"
 3056      70706F72 
 3056      74656420 
 3056      74726163 
 3056      6B657220 
 3057 0307 00       		.space	1
 3058              	.LC106:
 3059 0308 76657273 		.ascii	"version\000"
 3059      696F6E00 
 3060              	.LC108:
 3061 0310 756E7375 		.ascii	"unsupported command\000"
 3061      70706F72 
 3061      74656420 
 3061      636F6D6D 
 3061      616E6400 
 3062              	.LC0:
 3063 0324 6C6F6700 		.ascii	"log\000"
 3064              	.LC1:
 3065 0328 696E666F 		.ascii	"info\000"
 3065      00
 3066 032d 000000   		.space	3
 3067              	.LC2:
 3068 0330 7761726E 		.ascii	"warning\000"
 3068      696E6700 
 3069              	.LC3:
 3070 0338 6572726F 		.ascii	"error\000"
 3070      7200
 3071 033e 0000     		.space	2
 3072              	.LC4:
 3073 0340 66617461 		.ascii	"fatal\000"
 3073      6C00
 3074 0346 0000     		.space	2
 3075              	.LC110:
 3076 0348 73657420 		.ascii	"set the animation parameters\000"
 3076      74686520 
ARM GAS  C:\Users\MM1005~1\AppData\Local\Temp\cc36bet7.s 			page 81


 3076      616E696D 
 3076      6174696F 
 3076      6E207061 
 3077 0365 000000   		.space	3
 3078              	.LC111:
 3079 0368 626F6F74 		.ascii	"bootloader\000"
 3079      6C6F6164 
 3079      657200
 3080 0373 00       		.space	1
 3081              	.LC112:
 3082 0374 6A756D70 		.ascii	"jump in booloader mode\000"
 3082      20696E20 
 3082      626F6F6C 
 3082      6F616465 
 3082      72206D6F 
 3083 038b 00       		.space	1
 3084              	.LC113:
 3085 038c 63617073 		.ascii	"capsense\000"
 3085      656E7365 
 3085      00
 3086 0395 000000   		.space	3
 3087              	.LC114:
 3088 0398 7365742F 		.ascii	"set/get the capsense configuration\000"
 3088      67657420 
 3088      74686520 
 3088      63617073 
 3088      656E7365 
 3089 03bb 00       		.space	1
 3090              	.LC115:
 3091 03bc 68656C70 		.ascii	"help\000"
 3091      00
 3092 03c1 000000   		.space	3
 3093              	.LC116:
 3094 03c4 00       		.ascii	"\000"
 3095 03c5 000000   		.space	3
 3096              	.LC117:
 3097 03c8 6C656400 		.ascii	"led\000"
 3098              	.LC118:
 3099 03cc 73657420 		.ascii	"set led(s)\000"
 3099      6C656428 
 3099      732900
 3100 03d7 00       		.space	1
 3101              	.LC119:
 3102 03d8 73656E73 		.ascii	"sensor\000"
 3102      6F7200
 3103 03df 00       		.space	1
 3104              	.LC120:
 3105 03e0 656E6162 		.ascii	"enable/disable sensors telemetries\000"
 3105      6C652F64 
 3105      69736162 
 3105      6C652073 
 3105      656E736F 
 3106 0403 00       		.space	1
 3107              	.LC121:
 3108 0404 74656C65 		.ascii	"telemetry\000"
 3108      6D657472 
 3108      7900
ARM GAS  C:\Users\MM1005~1\AppData\Local\Temp\cc36bet7.s 			page 82


 3109 040e 0000     		.space	2
 3110              	.LC122:
 3111 0410 656E6162 		.ascii	"enable/disable telemetries\000"
 3111      6C652F64 
 3111      69736162 
 3111      6C652074 
 3111      656C656D 
 3112 042b 00       		.space	1
 3113              	.LC123:
 3114 042c 74726163 		.ascii	"tracker\000"
 3114      6B657200 
 3115              	.LC124:
 3116 0434 7365742F 		.ascii	"set/get the tracker configuration\000"
 3116      67657420 
 3116      74686520 
 3116      74726163 
 3116      6B657220 
 3117 0456 0000     		.space	2
 3118              	.LC125:
 3119 0458 67657420 		.ascii	"get the actual version\000"
 3119      74686520 
 3119      61637475 
 3119      616C2076 
 3119      65727369 
 3120 046f 00       		.space	1
 3121              	.LC126:
 3122 0470 636C6561 		.ascii	"clear\000"
 3122      7200
 3123 0476 0000     		.space	2
 3124              	.LC127:
 3125 0478 636C6561 		.ascii	"clear all leds\000"
 3125      7220616C 
 3125      6C206C65 
 3125      647300
 3126 0487 00       		.space	1
 3127              	.LC128:
 3128 0488 73657420 		.ascii	"set color left\000"
 3128      636F6C6F 
 3128      72206C65 
 3128      667400
 3129 0497 00       		.space	1
 3130              	.LC129:
 3131 0498 73657420 		.ascii	"set the color of the left LED\000"
 3131      74686520 
 3131      636F6C6F 
 3131      72206F66 
 3131      20746865 
 3132 04b6 0000     		.space	2
 3133              	.LC130:
 3134 04b8 73657420 		.ascii	"set color right\000"
 3134      636F6C6F 
 3134      72207269 
 3134      67687400 
 3135              	.LC131:
 3136 04c8 73657420 		.ascii	"set the color of the right LED\000"
 3136      74686520 
 3136      636F6C6F 
ARM GAS  C:\Users\MM1005~1\AppData\Local\Temp\cc36bet7.s 			page 83


 3136      72206F66 
 3136      20746865 
 3137 04e7 00       		.space	1
 3138              	.LC132:
 3139 04e8 73657420 		.ascii	"set white\000"
 3139      77686974 
 3139      6500
 3140 04f2 0000     		.space	2
 3141              	.LC133:
 3142 04f4 73657420 		.ascii	"set the white LED intensity\000"
 3142      74686520 
 3142      77686974 
 3142      65204C45 
 3142      4420696E 
 3143              	.LC134:
 3144 0510 73657420 		.ascii	"set strip\000"
 3144      73747269 
 3144      7000
 3145 051a 0000     		.space	2
 3146              	.LC135:
 3147 051c 73657420 		.ascii	"set the LED strip\000"
 3147      74686520 
 3147      4C454420 
 3147      73747269 
 3147      7000
 3148 052e 0000     		.space	2
 3149              	.LC136:
 3150 0530 64697361 		.ascii	"disable\000"
 3150      626C6500 
 3151              	.LC137:
 3152 0538 64697361 		.ascii	"disable finger tracker on LEDs\000"
 3152      626C6520 
 3152      66696E67 
 3152      65722074 
 3152      7261636B 
 3153 0557 00       		.space	1
 3154              	.LC138:
 3155 0558 656E6162 		.ascii	"enable\000"
 3155      6C6500
 3156 055f 00       		.space	1
 3157              	.LC139:
 3158 0560 656E6162 		.ascii	"enable finger tracker on LEDs\000"
 3158      6C652066 
 3158      696E6765 
 3158      72207472 
 3158      61636B65 
 3159 057e 0000     		.space	2
 3160              	.LC140:
 3161 0580 73657420 		.ascii	"set button\000"
 3161      62757474 
 3161      6F6E00
 3162 058b 00       		.space	1
 3163              	.LC141:
 3164 058c 73657420 		.ascii	"set the number of logical buttons\000"
 3164      74686520 
 3164      6E756D62 
 3164      6572206F 
ARM GAS  C:\Users\MM1005~1\AppData\Local\Temp\cc36bet7.s 			page 84


 3164      66206C6F 
 3165 05ae 0000     		.space	2
 3166              	.LC142:
 3167 05b0 64697361 		.ascii	"disable telemetries\000"
 3167      626C6520 
 3167      74656C65 
 3167      6D657472 
 3167      69657300 
 3168              	.LC143:
 3169 05c4 656E6162 		.ascii	"enable telemetries\000"
 3169      6C652074 
 3169      656C656D 
 3169      65747269 
 3169      657300
 3170 05d7 00       		.space	1
 3171              	.LC144:
 3172 05d8 64697361 		.ascii	"disable sensors telemetries\000"
 3172      626C6520 
 3172      73656E73 
 3172      6F727320 
 3172      74656C65 
 3173              	.LC145:
 3174 05f4 656E6162 		.ascii	"enable sensors telemetries\000"
 3174      6C652073 
 3174      656E736F 
 3174      72732074 
 3174      656C656D 
 3175 060f 00       		.space	1
 3176              	.LC146:
 3177 0610 6175746F 		.ascii	"auto\000"
 3177      00
 3178 0615 000000   		.space	3
 3179              	.LC147:
 3180 0618 73657420 		.ascii	"set animation in automatic mode\000"
 3180      616E696D 
 3180      6174696F 
 3180      6E20696E 
 3180      20617574 
 3181              	.LC148:
 3182 0638 6D616E75 		.ascii	"manual\000"
 3182      616C00
 3183 063f 00       		.space	1
 3184              	.LC149:
 3185 0640 73657420 		.ascii	"set animation in manual mode\000"
 3185      616E696D 
 3185      6174696F 
 3185      6E20696E 
 3185      206D616E 
 3186 065d 000000   		.space	3
 3187              	.LC150:
 3188 0660 73746F70 		.ascii	"stop\000"
 3188      00
 3189 0665 000000   		.space	3
 3190              	.LC151:
 3191 0668 73746F70 		.ascii	"stop animation\000"
 3191      20616E69 
 3191      6D617469 
ARM GAS  C:\Users\MM1005~1\AppData\Local\Temp\cc36bet7.s 			page 85


 3191      6F6E00
 3192 0677 00       		.space	1
 3193              	.LC152:
 3194 0678 72657375 		.ascii	"resume\000"
 3194      6D6500
 3195 067f 00       		.space	1
 3196              	.LC153:
 3197 0680 72657375 		.ascii	"resume animation\000"
 3197      6D652061 
 3197      6E696D61 
 3197      74696F6E 
 3197      00
 3198 0691 000000   		.space	3
 3199              	.LC154:
 3200 0694 73746172 		.ascii	"start\000"
 3200      7400
 3201 069a 0000     		.space	2
 3202              	.LC155:
 3203 069c 656E7465 		.ascii	"enter in bootloader mode\000"
 3203      7220696E 
 3203      20626F6F 
 3203      746C6F61 
 3203      64657220 
 3204 06b5 000000   		.space	3
 3205              	.LC156:
 3206 06b8 65786974 		.ascii	"exit\000"
 3206      00
 3207 06bd 000000   		.space	3
 3208              	.LC157:
 3209 06c0 65786974 		.ascii	"exit from bootloader mode\000"
 3209      2066726F 
 3209      6D20626F 
 3209      6F746C6F 
 3209      61646572 
 3210 06da 0000     		.space	2
 3211              	.LC158:
 3212 06dc 67657420 		.ascii	"get flash geo\000"
 3212      666C6173 
 3212      68206765 
 3212      6F00
 3213 06ea 0000     		.space	2
 3214              	.LC159:
 3215 06ec 67657420 		.ascii	"get flash geometry\000"
 3215      666C6173 
 3215      68206765 
 3215      6F6D6574 
 3215      727900
 3216 06ff 00       		.bss
 3217              		.align	2
 3218              		.set	.LANCHOR3,. + 0
 3219              		.set	.LANCHOR4,. + 512
 3220              		.type	is_telemetry_enable, %object
 3221              		.size	is_telemetry_enable, 1
 3222              	is_telemetry_enable:
 3223 0000 00       		.space	1
 3224 0001 000000   		.space	3
 3225              		.type	telemetry, %object
ARM GAS  C:\Users\MM1005~1\AppData\Local\Temp\cc36bet7.s 			page 86


 3226              		.size	telemetry, 512
 3227              	telemetry:
 3228 0004 00000000 		.space	512
 3228      00000000 
 3228      00000000 
 3228      00000000 
 3228      00000000 
 3229              		.type	is_sensor_telemetry_enable, %object
 3230              		.size	is_sensor_telemetry_enable, 1
 3231              	is_sensor_telemetry_enable:
 3232 0204 00       		.space	1
 3233 0205 000000   		.text
 3234              	.Letext0:
 3235              		.file 2 "c:\\program files (x86)\\cypress\\psoc creator\\4.0\\psoc creator\\import\\gnu\\arm\\4.9.
 3236              		.file 3 "Generated_Source\\PSoC4/cytypes.h"
 3237              		.file 4 "Generated_Source\\PSoC4/CapSense_Configuration.h"
 3238              		.file 5 "Generated_Source\\PSoC4/CapSense_SmartSense_LL.h"
 3239              		.file 6 "Generated_Source\\PSoC4/CapSense_Structure.h"
 3240              		.file 7 "..\\Slider.cydsn\\util.h"
 3241              		.file 8 "..\\Slider.cydsn\\led.h"
 3242              		.file 9 "..\\Slider.cydsn\\animation.h"
 3243              		.file 10 "..\\Slider.cydsn\\command_telemetry.h"
 3244              		.file 11 "..\\Slider.cydsn\\comms.h"
 3245              		.file 12 "Generated_Source\\PSoC4/CapSense_ISR.h"
 3246              		.file 13 "c:\\program files (x86)\\cypress\\psoc creator\\4.0\\psoc creator\\import\\gnu\\arm\\4.9
 3247              		.file 14 "<built-in>"
 3248              		.file 15 "Generated_Source\\PSoC4/Timer_1.h"