ARM GAS  C:\Users\MM1005~1\AppData\Local\Temp\ccMnmCJP.s 			page 1


   1              		.cpu cortex-m0plus
   2              		.fpu softvfp
   3              		.eabi_attribute 20, 1
   4              		.eabi_attribute 21, 1
   5              		.eabi_attribute 23, 3
   6              		.eabi_attribute 24, 1
   7              		.eabi_attribute 25, 1
   8              		.eabi_attribute 26, 1
   9              		.eabi_attribute 30, 1
  10              		.eabi_attribute 34, 0
  11              		.eabi_attribute 18, 4
  12              		.code	16
  13              		.file	"main.c"
  14              		.text
  15              	.Ltext0:
  16              		.cfi_sections	.debug_frame
  17              		.section	.text.clock_interrupt_handler,"ax",%progbits
  18              		.align	2
  19              		.global	clock_interrupt_handler
  20              		.code	16
  21              		.thumb_func
  22              		.type	clock_interrupt_handler, %function
  23              	clock_interrupt_handler:
  24              	.LFB36:
  25              		.file 1 "..\\Slider.cydsn\\main.c"
   1:..\Slider.cydsn/main.c **** ﻿/* ========================================
   2:..\Slider.cydsn/main.c ****  *
   3:..\Slider.cydsn/main.c ****  * Copyright YOUR COMPANY, THE YEAR
   4:..\Slider.cydsn/main.c ****  * All Rights Reserved
   5:..\Slider.cydsn/main.c ****  * UNPUBLISHED, LICENSED SOFTWARE.
   6:..\Slider.cydsn/main.c ****  *
   7:..\Slider.cydsn/main.c ****  * CONFIDENTIAL AND PROPRIETARY INFORMATION
   8:..\Slider.cydsn/main.c ****  * WHICH IS THE PROPERTY OF your company.
   9:..\Slider.cydsn/main.c ****  *
  10:..\Slider.cydsn/main.c ****  * ========================================
  11:..\Slider.cydsn/main.c **** */
  12:..\Slider.cydsn/main.c **** #include <project.h>
  13:..\Slider.cydsn/main.c **** #include "util.h"
  14:..\Slider.cydsn/main.c **** #include "led.h"
  15:..\Slider.cydsn/main.c **** #include "animation.h"
  16:..\Slider.cydsn/main.c **** #include "command_telemetry.h"
  17:..\Slider.cydsn/main.c **** #include "comms.h"
  18:..\Slider.cydsn/main.c **** 
  19:..\Slider.cydsn/main.c **** //=============================================================================
  20:..\Slider.cydsn/main.c **** //=================================================================== constants
  21:..\Slider.cydsn/main.c **** //=============================================================================
  22:..\Slider.cydsn/main.c **** #define SLIDER_RESOLUTION 600
  23:..\Slider.cydsn/main.c **** #define START_OF_CMD      '{'
  24:..\Slider.cydsn/main.c **** #define END_OF_CMD        '}'
  25:..\Slider.cydsn/main.c **** #define NUMBER_OF_BUTTONS (CapSense_TOTAL_WIDGETS)
  26:..\Slider.cydsn/main.c **** 
  27:..\Slider.cydsn/main.c **** typedef struct {
  28:..\Slider.cydsn/main.c ****     uint8 capsense_id   ; 
  29:..\Slider.cydsn/main.c ****     BOOL  is_button_down;
  30:..\Slider.cydsn/main.c ****     char* name          ;
  31:..\Slider.cydsn/main.c **** }t_push_button_struct;
  32:..\Slider.cydsn/main.c **** 
ARM GAS  C:\Users\MM1005~1\AppData\Local\Temp\ccMnmCJP.s 			page 2


  33:..\Slider.cydsn/main.c **** t_push_button_struct push_button_vec[] = { {CapSense_BUT0_WDGT_ID, FALSE, "BT0"}
  34:..\Slider.cydsn/main.c **** #ifndef PROFESSOR
  35:..\Slider.cydsn/main.c ****                                                             ,{CapSense_BUT1_WDGT_ID, FALSE, "BT1"},
  36:..\Slider.cydsn/main.c ****                                                             {CapSense_BUT3_WDGT_ID, FALSE, "BT3"   
  37:..\Slider.cydsn/main.c ****                                                             {CapSense_BUT4_WDGT_ID, FALSE, "BT4"   
  38:..\Slider.cydsn/main.c ****                                                             {CapSense_BUT5_WDGT_ID, FALSE, "BT5"   
  39:..\Slider.cydsn/main.c ****                                                             {CapSense_BUT6_WDGT_ID, FALSE, "BT6"   
  40:..\Slider.cydsn/main.c ****                                                             {CapSense_BUT8_WDGT_ID, FALSE, "BT8"   
  41:..\Slider.cydsn/main.c **** #endif
  42:..\Slider.cydsn/main.c **** };
  43:..\Slider.cydsn/main.c ****                                                  
  44:..\Slider.cydsn/main.c **** //=============================================================================
  45:..\Slider.cydsn/main.c **** //========================================================= function prototypes
  46:..\Slider.cydsn/main.c **** //=============================================================================
  47:..\Slider.cydsn/main.c **** void   clock_interrupt_handler     (void);
  48:..\Slider.cydsn/main.c **** uint16 display_finger_tracker      (uint16 last_centroid_pos, uint32 centroid_pos);
  49:..\Slider.cydsn/main.c **** uint16 get_button_pos              (uint32 cap_old_pos, uint32 cap_new_pos);
  50:..\Slider.cydsn/main.c **** uint16 get_capsense_touched_sensors(void);
  51:..\Slider.cydsn/main.c **** uint16 get_led_pos                 (uint32 centroid_pos);
  52:..\Slider.cydsn/main.c **** void   reset_timer                 (void);
  53:..\Slider.cydsn/main.c **** void   push_button_scan            (void);
  54:..\Slider.cydsn/main.c ****                   
  55:..\Slider.cydsn/main.c **** //=============================================================================
  56:..\Slider.cydsn/main.c **** //======================================================================== main
  57:..\Slider.cydsn/main.c **** //=============================================================================
  58:..\Slider.cydsn/main.c **** int main()
  59:..\Slider.cydsn/main.c **** {
  60:..\Slider.cydsn/main.c ****     BOOL                    cap_sense_is_untouched  = TRUE;
  61:..\Slider.cydsn/main.c ****     BOOL                    cap_sense_was_untouched = FALSE;
  62:..\Slider.cydsn/main.c ****     uint16                  cap_cur_pos             = CapSense_SLIDER_NO_TOUCH;
  63:..\Slider.cydsn/main.c ****     uint16                  cap_old_pos             = CapSense_SLIDER_NO_TOUCH;
  64:..\Slider.cydsn/main.c ****     uint16                  led_pos                 = CapSense_SLIDER_NO_TOUCH;
  65:..\Slider.cydsn/main.c ****     uint16                  new_led_pos             = CapSense_SLIDER_NO_TOUCH;
  66:..\Slider.cydsn/main.c ****     static t_enum_direction finger_direction        = DIRECT_STOP;
  67:..\Slider.cydsn/main.c ****     char*                   command                 = NULL;
  68:..\Slider.cydsn/main.c ****     uint16                  tmp                     = 0;
  69:..\Slider.cydsn/main.c ****     uint16                  current_callback_anim   = 0;
  70:..\Slider.cydsn/main.c **** 
  71:..\Slider.cydsn/main.c ****     CyGlobalIntEnable; // enable global interrupts before starting capsense and I2C blocks
  72:..\Slider.cydsn/main.c **** 
  73:..\Slider.cydsn/main.c ****     //TimerISR_StartEx(clock_interrupt_handler);
  74:..\Slider.cydsn/main.c ****     //Timer_1_Start   ();
  75:..\Slider.cydsn/main.c ****     initialize_leds ();
  76:..\Slider.cydsn/main.c **** 
  77:..\Slider.cydsn/main.c ****     CommsInit();
  78:..\Slider.cydsn/main.c **** 
  79:..\Slider.cydsn/main.c ****     CapSense_Start();
  80:..\Slider.cydsn/main.c **** 
  81:..\Slider.cydsn/main.c ****     for(;;)
  82:..\Slider.cydsn/main.c ****     {
  83:..\Slider.cydsn/main.c **** 
  84:..\Slider.cydsn/main.c ****         if (CommsIsInputBufferReady())
  85:..\Slider.cydsn/main.c ****         {
  86:..\Slider.cydsn/main.c ****             if (get_is_telemetry_enable() == FALSE)
  87:..\Slider.cydsn/main.c ****             {
  88:..\Slider.cydsn/main.c ****                 set_is_telemetry_enable(TRUE);
  89:..\Slider.cydsn/main.c ****             }// the telemetry were disabled but we received something from the client
ARM GAS  C:\Users\MM1005~1\AppData\Local\Temp\ccMnmCJP.s 			page 3


  90:..\Slider.cydsn/main.c **** 
  91:..\Slider.cydsn/main.c ****             char *receive_string = (char *)CommsGetInputBuffer();
  92:..\Slider.cydsn/main.c **** 
  93:..\Slider.cydsn/main.c ****             if ((receive_string[0] != START_OF_CMD) || (receive_string[strlen(receive_string) - 1] 
  94:..\Slider.cydsn/main.c ****             {
  95:..\Slider.cydsn/main.c ****                 send_alarm_telemetry(ALARM_WARNING, "", "invalid start-end character(s)");
  96:..\Slider.cydsn/main.c ****             }// if the command is not well formed
  97:..\Slider.cydsn/main.c ****             else
  98:..\Slider.cydsn/main.c ****             {
  99:..\Slider.cydsn/main.c ****                 receive_string[strlen(receive_string) - 1] = '\0';
 100:..\Slider.cydsn/main.c ****                 if (parse_and_execute_command(&(receive_string[1])) == FALSE)
 101:..\Slider.cydsn/main.c ****                 {
 102:..\Slider.cydsn/main.c ****                     send_alarm_telemetry(ALARM_WARNING, command, "failed to execute the command");
 103:..\Slider.cydsn/main.c ****                 }// If we failed to execute the command
 104:..\Slider.cydsn/main.c ****                 else
 105:..\Slider.cydsn/main.c ****                 {
 106:..\Slider.cydsn/main.c ****                     send_alarm_telemetry(ALARM_LOG, command, "executed");
 107:..\Slider.cydsn/main.c ****                 }
 108:..\Slider.cydsn/main.c ****             }// else, the command seems well formed
 109:..\Slider.cydsn/main.c **** 
 110:..\Slider.cydsn/main.c ****             CommsResetInputBuffer();
 111:..\Slider.cydsn/main.c ****         }
 112:..\Slider.cydsn/main.c ****         
 113:..\Slider.cydsn/main.c ****         if (cap_sense_is_untouched && get_is_anim_on_button_up_enable())
 114:..\Slider.cydsn/main.c ****         {
 115:..\Slider.cydsn/main.c ****             run_current_animation(TRUE);
 116:..\Slider.cydsn/main.c ****         }
 117:..\Slider.cydsn/main.c ****         
 118:..\Slider.cydsn/main.c ****         if (CapSense_IsBusy() != CapSense_NOT_BUSY)
 119:..\Slider.cydsn/main.c ****         {
 120:..\Slider.cydsn/main.c ****             continue;    
 121:..\Slider.cydsn/main.c ****         }
 122:..\Slider.cydsn/main.c ****         
 123:..\Slider.cydsn/main.c ****         // process data for previous scan and initiate new scan only when the capsense hardware is 
 124:..\Slider.cydsn/main.c ****         if (CapSense_ProcessAllWidgets() == CYRET_INVALID_STATE)
 125:..\Slider.cydsn/main.c ****         {
 126:..\Slider.cydsn/main.c ****             continue;    
 127:..\Slider.cydsn/main.c ****         }
 128:..\Slider.cydsn/main.c ****         
 129:..\Slider.cydsn/main.c ****         push_button_scan();
 130:..\Slider.cydsn/main.c **** 
 131:..\Slider.cydsn/main.c **** #ifndef PROFESSOR
 132:..\Slider.cydsn/main.c ****         cap_cur_pos            = CapSense_GetCentroidPos(0);
 133:..\Slider.cydsn/main.c ****         cap_sense_is_untouched = ((cap_cur_pos == CapSense_SLIDER_NO_TOUCH) && (cap_old_pos == CapS
 134:..\Slider.cydsn/main.c ****         
 135:..\Slider.cydsn/main.c ****         if (cap_sense_is_untouched)
 136:..\Slider.cydsn/main.c ****         {
 137:..\Slider.cydsn/main.c ****             if (! cap_sense_was_untouched)
 138:..\Slider.cydsn/main.c ****             {
 139:..\Slider.cydsn/main.c ****                 if (get_is_tracker_enable()) 
 140:..\Slider.cydsn/main.c ****                 {
 141:..\Slider.cydsn/main.c ****                     set_all_leds_intensity(0x00);
 142:..\Slider.cydsn/main.c ****                 }
 143:..\Slider.cydsn/main.c ****                 
 144:..\Slider.cydsn/main.c ****                 finger_direction = DIRECT_STOP;
 145:..\Slider.cydsn/main.c ****                 send_button_telemetry(get_button_pos(cap_old_pos, cap_cur_pos), "up", finger_direct
 146:..\Slider.cydsn/main.c ****                 cap_cur_pos = CapSense_SLIDER_NO_TOUCH;
ARM GAS  C:\Users\MM1005~1\AppData\Local\Temp\ccMnmCJP.s 			page 4


 147:..\Slider.cydsn/main.c ****                 cap_old_pos = CapSense_SLIDER_NO_TOUCH;
 148:..\Slider.cydsn/main.c ****                 led_pos     = NUMBER_OF_WHITE_LEDS + 1;
 149:..\Slider.cydsn/main.c ****                
 150:..\Slider.cydsn/main.c ****                 if (get_is_auto_anim_rotation_enable())
 151:..\Slider.cydsn/main.c ****                 {
 152:..\Slider.cydsn/main.c ****                     current_callback_anim = get_current_callback_anim();
 153:..\Slider.cydsn/main.c ****                     current_callback_anim++;
 154:..\Slider.cydsn/main.c ****                     current_callback_anim %= ANIM_UNKNOWN;
 155:..\Slider.cydsn/main.c ****                     set_current_callback_anim(current_callback_anim);
 156:..\Slider.cydsn/main.c ****                 }
 157:..\Slider.cydsn/main.c ****             }
 158:..\Slider.cydsn/main.c ****    
 159:..\Slider.cydsn/main.c ****             if (get_is_anim_on_button_up_enable())
 160:..\Slider.cydsn/main.c ****             {
 161:..\Slider.cydsn/main.c ****                 run_current_animation(FALSE);
 162:..\Slider.cydsn/main.c ****             }
 163:..\Slider.cydsn/main.c ****         }// if capsense is untouched
 164:..\Slider.cydsn/main.c ****         else
 165:..\Slider.cydsn/main.c ****         {
 166:..\Slider.cydsn/main.c ****             if (cap_sense_was_untouched)
 167:..\Slider.cydsn/main.c ****             {
 168:..\Slider.cydsn/main.c ****                 tmp = get_button_pos(cap_old_pos, cap_cur_pos);
 169:..\Slider.cydsn/main.c ****                 reset_timer();
 170:..\Slider.cydsn/main.c ****                 send_button_telemetry(tmp, "down"    , finger_direction, cap_cur_pos, cap_old_pos);
 171:..\Slider.cydsn/main.c ****                 send_button_telemetry(tmp, "position", finger_direction, cap_cur_pos, cap_old_pos);
 172:..\Slider.cydsn/main.c ****                 if (get_is_anim_on_button_up_enable())
 173:..\Slider.cydsn/main.c ****                 {
 174:..\Slider.cydsn/main.c ****                     set_all_leds_intensity(0x00);
 175:..\Slider.cydsn/main.c ****                     send_animation_telemetry(current_callback_anim, "stopping");
 176:..\Slider.cydsn/main.c ****                 }
 177:..\Slider.cydsn/main.c ****             }
 178:..\Slider.cydsn/main.c ****             
 179:..\Slider.cydsn/main.c ****             if ((cap_cur_pos != CapSense_SLIDER_NO_TOUCH) && (cap_cur_pos != cap_old_pos))
 180:..\Slider.cydsn/main.c ****             {
 181:..\Slider.cydsn/main.c ****                 if (cap_old_pos != CapSense_SLIDER_NO_TOUCH)
 182:..\Slider.cydsn/main.c ****                 {
 183:..\Slider.cydsn/main.c ****                     finger_direction = (cap_cur_pos > cap_old_pos ? DIRECT_RIGHT : DIRECT_LEFT);
 184:..\Slider.cydsn/main.c ****                 }
 185:..\Slider.cydsn/main.c ****                 
 186:..\Slider.cydsn/main.c ****                 new_led_pos = display_finger_tracker (cap_old_pos, cap_cur_pos);
 187:..\Slider.cydsn/main.c ****                 if (new_led_pos != led_pos)
 188:..\Slider.cydsn/main.c ****                 {
 189:..\Slider.cydsn/main.c ****                     led_pos = new_led_pos;
 190:..\Slider.cydsn/main.c ****                     send_button_telemetry(get_button_pos(cap_old_pos, cap_cur_pos), "position", fin
 191:..\Slider.cydsn/main.c ****                 }
 192:..\Slider.cydsn/main.c ****             }
 193:..\Slider.cydsn/main.c ****             
 194:..\Slider.cydsn/main.c ****             cap_old_pos = cap_cur_pos;
 195:..\Slider.cydsn/main.c ****         }// else, capsense is touched
 196:..\Slider.cydsn/main.c ****         cap_sense_was_untouched = cap_sense_is_untouched;
 197:..\Slider.cydsn/main.c **** #endif
 198:..\Slider.cydsn/main.c **** 
 199:..\Slider.cydsn/main.c **** #if USE_TUNER
 200:..\Slider.cydsn/main.c ****         CapSense_RunTuner(); // sync capsense parameters via tuner before the beginning of new caps
 201:..\Slider.cydsn/main.c **** #endif // USE_TUNER
 202:..\Slider.cydsn/main.c **** 
 203:..\Slider.cydsn/main.c ****         CapSense_ScanAllWidgets();
ARM GAS  C:\Users\MM1005~1\AppData\Local\Temp\ccMnmCJP.s 			page 5


 204:..\Slider.cydsn/main.c ****     }// for ever
 205:..\Slider.cydsn/main.c **** }// main
 206:..\Slider.cydsn/main.c **** 
 207:..\Slider.cydsn/main.c **** //=============================================================================
 208:..\Slider.cydsn/main.c **** //===================================================== clock_interrupt_handler
 209:..\Slider.cydsn/main.c **** //=============================================================================
 210:..\Slider.cydsn/main.c **** void clock_interrupt_handler(void)
 211:..\Slider.cydsn/main.c **** {
  26              		.loc 1 211 0
  27              		.cfi_startproc
  28 0000 10B5     		push	{r4, lr}
  29              		.cfi_def_cfa_offset 8
  30              		.cfi_offset 4, -8
  31              		.cfi_offset 14, -4
 212:..\Slider.cydsn/main.c ****     uint8 enableInterrupts = CyEnterCriticalSection();
  32              		.loc 1 212 0
  33 0002 FFF7FEFF 		bl	CyEnterCriticalSection
  34              	.LVL0:
  35 0006 041C     		mov	r4, r0
  36              	.LVL1:
 213:..\Slider.cydsn/main.c ****         /* Check interrupt source */
 214:..\Slider.cydsn/main.c ****        	if (Timer_1_INTR_MASK_CC_MATCH == Timer_1_GetInterruptSourceMasked())
  37              		.loc 1 214 0
  38 0008 FFF7FEFF 		bl	Timer_1_GetInterruptSourceMasked
  39              	.LVL2:
  40 000c 0228     		cmp	r0, #2
  41 000e 02D1     		bne	.L2
 215:..\Slider.cydsn/main.c ****         {
 216:..\Slider.cydsn/main.c ****             /* Clear interrupt and then process Capture interrupt */
 217:..\Slider.cydsn/main.c ****             Timer_1_ClearInterrupt(Timer_1_INTR_MASK_CC_MATCH);
  42              		.loc 1 217 0
  43 0010 FFF7FEFF 		bl	Timer_1_ClearInterrupt
  44              	.LVL3:
  45 0014 02E0     		b	.L3
  46              	.L2:
 218:..\Slider.cydsn/main.c ****         }
 219:..\Slider.cydsn/main.c ****         else
 220:..\Slider.cydsn/main.c ****         {
 221:..\Slider.cydsn/main.c ****             /* Clear interrupt and then process Terminal Count interrupt */
 222:..\Slider.cydsn/main.c ****             Timer_1_ClearInterrupt(Timer_1_INTR_MASK_TC);
  47              		.loc 1 222 0
  48 0016 0120     		mov	r0, #1
  49 0018 FFF7FEFF 		bl	Timer_1_ClearInterrupt
  50              	.LVL4:
  51              	.L3:
 223:..\Slider.cydsn/main.c ****         }
 224:..\Slider.cydsn/main.c ****         set_timer_interrrupt_count(get_timer_interrrupt_count() + 1);    
  52              		.loc 1 224 0
  53 001c FFF7FEFF 		bl	get_timer_interrrupt_count
  54              	.LVL5:
  55 0020 0122     		mov	r2, #1
  56 0022 0023     		mov	r3, #0
  57 0024 8018     		add	r0, r0, r2
  58 0026 5941     		adc	r1, r1, r3
  59 0028 FFF7FEFF 		bl	set_timer_interrrupt_count
  60              	.LVL6:
 225:..\Slider.cydsn/main.c ****     CyExitCriticalSection(enableInterrupts);
ARM GAS  C:\Users\MM1005~1\AppData\Local\Temp\ccMnmCJP.s 			page 6


  61              		.loc 1 225 0
  62 002c 201C     		mov	r0, r4
  63 002e FFF7FEFF 		bl	CyExitCriticalSection
  64              	.LVL7:
 226:..\Slider.cydsn/main.c **** }// clock_interrupt_handler
  65              		.loc 1 226 0
  66              		@ sp needed
  67              	.LVL8:
  68 0032 10BD     		pop	{r4, pc}
  69              		.cfi_endproc
  70              	.LFE36:
  71              		.size	clock_interrupt_handler, .-clock_interrupt_handler
  72              		.section	.text.display_button,"ax",%progbits
  73              		.align	2
  74              		.global	display_button
  75              		.code	16
  76              		.thumb_func
  77              		.type	display_button, %function
  78              	display_button:
  79              	.LFB37:
 227:..\Slider.cydsn/main.c **** 
 228:..\Slider.cydsn/main.c **** //=============================================================================
 229:..\Slider.cydsn/main.c **** //============================================================== display_button
 230:..\Slider.cydsn/main.c **** //=============================================================================
 231:..\Slider.cydsn/main.c **** void display_button(uint16 button, uint16 intensity, uint16 button_width)
 232:..\Slider.cydsn/main.c **** {
  80              		.loc 1 232 0
  81              		.cfi_startproc
  82              	.LVL9:
  83 0000 10B5     		push	{r4, lr}
  84              		.cfi_def_cfa_offset 8
  85              		.cfi_offset 4, -8
  86              		.cfi_offset 14, -4
  87 0002 0C1C     		mov	r4, r1
  88              	.LVL10:
 233:..\Slider.cydsn/main.c ****     int side_leds_intensity = intensity / 4;
 234:..\Slider.cydsn/main.c **** 
 235:..\Slider.cydsn/main.c **** #if FORCE_BUTTON_WIDTH_TO_1
 236:..\Slider.cydsn/main.c ****         side_leds_intensity = 0;
 237:..\Slider.cydsn/main.c **** #endif // FORCE_BUTTON_WIDTH_TO_1
 238:..\Slider.cydsn/main.c **** 
 239:..\Slider.cydsn/main.c **** #if 0
 240:..\Slider.cydsn/main.c ****     uint16 led_start = button    * button_width;
 241:..\Slider.cydsn/main.c ****     uint16 led_stop  = led_start + button_width;
 242:..\Slider.cydsn/main.c ****     uint16 i;
 243:..\Slider.cydsn/main.c ****     
 244:..\Slider.cydsn/main.c ****     set_led(led_start, side_leds_intensity);
 245:..\Slider.cydsn/main.c ****     set_led(led_stop , side_leds_intensity);
 246:..\Slider.cydsn/main.c ****     
 247:..\Slider.cydsn/main.c ****     for (i = led_start + 1; i < led_stop; i++)
 248:..\Slider.cydsn/main.c ****     {
 249:..\Slider.cydsn/main.c ****         set_led(i, intensity);      
 250:..\Slider.cydsn/main.c ****     }      
 251:..\Slider.cydsn/main.c **** #else // This would work only with 6 buttons...For testing purpose only
 252:..\Slider.cydsn/main.c ****     button_width = 0; // to avoid warning
 253:..\Slider.cydsn/main.c ****     switch (button)
  89              		.loc 1 253 0
ARM GAS  C:\Users\MM1005~1\AppData\Local\Temp\ccMnmCJP.s 			page 7


  90 0004 0528     		cmp	r0, #5
  91 0006 44D8     		bhi	.L5
  92 0008 8000     		lsl	r0, r0, #2
  93              	.LVL11:
  94 000a 284B     		ldr	r3, .L13
  95 000c 1B58     		ldr	r3, [r3, r0]
  96 000e 9F46     		mov	pc, r3
  97              		.section	.rodata
  98              		.align	2
  99              	.L7:
 100 0000 92000000 		.word	.L5
 101 0004 10000000 		.word	.L6
 102 0008 2A000000 		.word	.L8
 103 000c 44000000 		.word	.L9
 104 0010 5E000000 		.word	.L10
 105 0014 78000000 		.word	.L11
 106              		.section	.text.display_button
 107              	.L6:
 254:..\Slider.cydsn/main.c ****     {
 255:..\Slider.cydsn/main.c ****         case 1: set_led(1, side_leds_intensity);
 108              		.loc 1 255 0
 109 0010 0120     		mov	r0, #1
 110 0012 0021     		mov	r1, #0
 111              	.LVL12:
 112 0014 FFF7FEFF 		bl	set_led
 113              	.LVL13:
 256:..\Slider.cydsn/main.c ****                 set_led(2, intensity          );
 114              		.loc 1 256 0
 115 0018 0220     		mov	r0, #2
 116 001a 211C     		mov	r1, r4
 117 001c FFF7FEFF 		bl	set_led
 118              	.LVL14:
 257:..\Slider.cydsn/main.c ****                 set_led(3, side_leds_intensity);
 119              		.loc 1 257 0
 120 0020 0320     		mov	r0, #3
 121 0022 0021     		mov	r1, #0
 122 0024 FFF7FEFF 		bl	set_led
 123              	.LVL15:
 258:..\Slider.cydsn/main.c ****                 break;
 124              		.loc 1 258 0
 125 0028 3FE0     		b	.L4
 126              	.LVL16:
 127              	.L8:
 259:..\Slider.cydsn/main.c ****         case 2: set_led(3, side_leds_intensity);
 128              		.loc 1 259 0
 129 002a 0320     		mov	r0, #3
 130 002c 0021     		mov	r1, #0
 131              	.LVL17:
 132 002e FFF7FEFF 		bl	set_led
 133              	.LVL18:
 260:..\Slider.cydsn/main.c ****                 set_led(4, intensity          );
 134              		.loc 1 260 0
 135 0032 0420     		mov	r0, #4
 136 0034 211C     		mov	r1, r4
 137 0036 FFF7FEFF 		bl	set_led
 138              	.LVL19:
 261:..\Slider.cydsn/main.c ****                 set_led(5, side_leds_intensity);
ARM GAS  C:\Users\MM1005~1\AppData\Local\Temp\ccMnmCJP.s 			page 8


 139              		.loc 1 261 0
 140 003a 0520     		mov	r0, #5
 141 003c 0021     		mov	r1, #0
 142 003e FFF7FEFF 		bl	set_led
 143              	.LVL20:
 262:..\Slider.cydsn/main.c ****                 break;
 144              		.loc 1 262 0
 145 0042 32E0     		b	.L4
 146              	.LVL21:
 147              	.L9:
 263:..\Slider.cydsn/main.c ****         case 3: set_led(5, side_leds_intensity);
 148              		.loc 1 263 0
 149 0044 0520     		mov	r0, #5
 150 0046 0021     		mov	r1, #0
 151              	.LVL22:
 152 0048 FFF7FEFF 		bl	set_led
 153              	.LVL23:
 264:..\Slider.cydsn/main.c ****                 set_led(6, intensity          );
 154              		.loc 1 264 0
 155 004c 0620     		mov	r0, #6
 156 004e 211C     		mov	r1, r4
 157 0050 FFF7FEFF 		bl	set_led
 158              	.LVL24:
 265:..\Slider.cydsn/main.c ****                 set_led(7, side_leds_intensity);
 159              		.loc 1 265 0
 160 0054 0720     		mov	r0, #7
 161 0056 0021     		mov	r1, #0
 162 0058 FFF7FEFF 		bl	set_led
 163              	.LVL25:
 266:..\Slider.cydsn/main.c ****                 break;
 164              		.loc 1 266 0
 165 005c 25E0     		b	.L4
 166              	.LVL26:
 167              	.L10:
 267:..\Slider.cydsn/main.c ****         case 4: set_led(7, side_leds_intensity);
 168              		.loc 1 267 0
 169 005e 0720     		mov	r0, #7
 170 0060 0021     		mov	r1, #0
 171              	.LVL27:
 172 0062 FFF7FEFF 		bl	set_led
 173              	.LVL28:
 268:..\Slider.cydsn/main.c ****                 set_led(8, intensity          );
 174              		.loc 1 268 0
 175 0066 0820     		mov	r0, #8
 176 0068 211C     		mov	r1, r4
 177 006a FFF7FEFF 		bl	set_led
 178              	.LVL29:
 269:..\Slider.cydsn/main.c ****                 set_led(9, side_leds_intensity);
 179              		.loc 1 269 0
 180 006e 0920     		mov	r0, #9
 181 0070 0021     		mov	r1, #0
 182 0072 FFF7FEFF 		bl	set_led
 183              	.LVL30:
 270:..\Slider.cydsn/main.c ****                 break;
 184              		.loc 1 270 0
 185 0076 18E0     		b	.L4
 186              	.LVL31:
ARM GAS  C:\Users\MM1005~1\AppData\Local\Temp\ccMnmCJP.s 			page 9


 187              	.L11:
 271:..\Slider.cydsn/main.c ****         case 5: set_led(9 , side_leds_intensity);
 188              		.loc 1 271 0
 189 0078 0920     		mov	r0, #9
 190 007a 0021     		mov	r1, #0
 191              	.LVL32:
 192 007c FFF7FEFF 		bl	set_led
 193              	.LVL33:
 272:..\Slider.cydsn/main.c ****                 set_led(10, intensity          );
 194              		.loc 1 272 0
 195 0080 0A20     		mov	r0, #10
 196 0082 211C     		mov	r1, r4
 197 0084 FFF7FEFF 		bl	set_led
 198              	.LVL34:
 273:..\Slider.cydsn/main.c ****                 set_led(11, side_leds_intensity);
 199              		.loc 1 273 0
 200 0088 0B20     		mov	r0, #11
 201 008a 0021     		mov	r1, #0
 202 008c FFF7FEFF 		bl	set_led
 203              	.LVL35:
 274:..\Slider.cydsn/main.c ****                 break;
 204              		.loc 1 274 0
 205 0090 0BE0     		b	.L4
 206              	.LVL36:
 207              	.L5:
 275:..\Slider.cydsn/main.c ****         case 6 : 
 276:..\Slider.cydsn/main.c ****         default:
 277:..\Slider.cydsn/main.c ****                 set_led(11, side_leds_intensity);
 208              		.loc 1 277 0
 209 0092 0B20     		mov	r0, #11
 210 0094 0021     		mov	r1, #0
 211              	.LVL37:
 212 0096 FFF7FEFF 		bl	set_led
 213              	.LVL38:
 278:..\Slider.cydsn/main.c ****                 set_led(12, intensity          );
 214              		.loc 1 278 0
 215 009a 0C20     		mov	r0, #12
 216 009c 211C     		mov	r1, r4
 217 009e FFF7FEFF 		bl	set_led
 218              	.LVL39:
 279:..\Slider.cydsn/main.c ****                 set_led(13, side_leds_intensity);
 219              		.loc 1 279 0
 220 00a2 0D20     		mov	r0, #13
 221 00a4 0021     		mov	r1, #0
 222 00a6 FFF7FEFF 		bl	set_led
 223              	.LVL40:
 224              	.L4:
 280:..\Slider.cydsn/main.c ****                 break; 
 281:..\Slider.cydsn/main.c ****     }// switch on button id    
 282:..\Slider.cydsn/main.c **** #endif // 0    
 283:..\Slider.cydsn/main.c **** }// display_button
 225              		.loc 1 283 0
 226              		@ sp needed
 227 00aa 10BD     		pop	{r4, pc}
 228              	.L14:
 229              		.align	2
 230              	.L13:
ARM GAS  C:\Users\MM1005~1\AppData\Local\Temp\ccMnmCJP.s 			page 10


 231 00ac 00000000 		.word	.L7
 232              		.cfi_endproc
 233              	.LFE37:
 234              		.size	display_button, .-display_button
 235              		.global	__aeabi_idiv
 236              		.global	__aeabi_uidiv
 237              		.section	.text.get_button_pos,"ax",%progbits
 238              		.align	2
 239              		.global	get_button_pos
 240              		.code	16
 241              		.thumb_func
 242              		.type	get_button_pos, %function
 243              	get_button_pos:
 244              	.LFB39:
 284:..\Slider.cydsn/main.c **** 
 285:..\Slider.cydsn/main.c **** //=============================================================================
 286:..\Slider.cydsn/main.c **** //====================================================== display_finger_tracker
 287:..\Slider.cydsn/main.c **** //=============================================================================
 288:..\Slider.cydsn/main.c **** uint16 display_finger_tracker(uint16 cap_old_pos, uint32 cap_new_pos)
 289:..\Slider.cydsn/main.c **** {
 290:..\Slider.cydsn/main.c ****     uint16 button_width = NUMBER_OF_WHITE_LEDS / get_number_of_buttons();
 291:..\Slider.cydsn/main.c ****     
 292:..\Slider.cydsn/main.c ****     if (get_is_tracker_enable())
 293:..\Slider.cydsn/main.c ****     {
 294:..\Slider.cydsn/main.c ****         if (button_width > 1)
 295:..\Slider.cydsn/main.c ****         {
 296:..\Slider.cydsn/main.c ****             display_button(get_button_pos(cap_old_pos, cap_old_pos), 0x00         , button_width);
 297:..\Slider.cydsn/main.c ****             display_button(get_button_pos(cap_new_pos, cap_new_pos), MAX_INTENSITY, button_width);
 298:..\Slider.cydsn/main.c ****         }
 299:..\Slider.cydsn/main.c ****         else
 300:..\Slider.cydsn/main.c ****         {
 301:..\Slider.cydsn/main.c ****             set_led(get_led_pos(cap_old_pos), 0x00         );
 302:..\Slider.cydsn/main.c ****             set_led(get_led_pos(cap_new_pos), MAX_INTENSITY);
 303:..\Slider.cydsn/main.c ****         }
 304:..\Slider.cydsn/main.c ****     }// if the finger tracker is enable
 305:..\Slider.cydsn/main.c **** 
 306:..\Slider.cydsn/main.c ****      return get_led_pos(cap_new_pos);
 307:..\Slider.cydsn/main.c **** }// display_finger_tracker
 308:..\Slider.cydsn/main.c **** 
 309:..\Slider.cydsn/main.c **** //=============================================================================
 310:..\Slider.cydsn/main.c **** //============================================================== get_button_pos
 311:..\Slider.cydsn/main.c **** //=============================================================================
 312:..\Slider.cydsn/main.c **** uint16 get_button_pos(uint32 cap_old_pos, uint32 cap_new_pos)
 313:..\Slider.cydsn/main.c **** {   
 245              		.loc 1 313 0
 246              		.cfi_startproc
 247              	.LVL41:
 248 0000 10B5     		push	{r4, lr}
 249              		.cfi_def_cfa_offset 8
 250              		.cfi_offset 4, -8
 251              		.cfi_offset 14, -4
 314:..\Slider.cydsn/main.c ****     static uint16 button_pos = 0;
 315:..\Slider.cydsn/main.c ****     
 316:..\Slider.cydsn/main.c ****     if ((cap_old_pos == CapSense_SLIDER_NO_TOUCH) && (cap_new_pos != CapSense_SLIDER_NO_TOUCH))
 252              		.loc 1 316 0
 253 0002 244B     		ldr	r3, .L23
 254 0004 9842     		cmp	r0, r3
ARM GAS  C:\Users\MM1005~1\AppData\Local\Temp\ccMnmCJP.s 			page 11


 255 0006 11D1     		bne	.L16
 256              		.loc 1 316 0 is_stmt 0 discriminator 1
 257 0008 9942     		cmp	r1, r3
 258 000a 0FD0     		beq	.L16
 259 000c 0C1C     		mov	r4, r1
 317:..\Slider.cydsn/main.c ****     {
 318:..\Slider.cydsn/main.c ****         button_pos = (cap_new_pos / (SLIDER_RESOLUTION / get_number_of_buttons())) + 1;
 260              		.loc 1 318 0 is_stmt 1
 261 000e FFF7FEFF 		bl	get_number_of_buttons
 262              	.LVL42:
 263 0012 011C     		mov	r1, r0
 264 0014 9620     		mov	r0, #150
 265 0016 8000     		lsl	r0, r0, #2
 266 0018 FFF7FEFF 		bl	__aeabi_idiv
 267              	.LVL43:
 268 001c 011C     		mov	r1, r0
 269 001e 201C     		mov	r0, r4
 270 0020 FFF7FEFF 		bl	__aeabi_uidiv
 271              	.LVL44:
 272 0024 0130     		add	r0, r0, #1
 273 0026 1C4B     		ldr	r3, .L23+4
 274 0028 1880     		strh	r0, [r3]
 275 002a 2FE0     		b	.L17
 276              	.LVL45:
 277              	.L16:
 319:..\Slider.cydsn/main.c ****     }// if it's a button down
 320:..\Slider.cydsn/main.c ****     else 
 321:..\Slider.cydsn/main.c ****     {
 322:..\Slider.cydsn/main.c ****         if (cap_new_pos <= 80)
 278              		.loc 1 322 0
 279 002c 5029     		cmp	r1, #80
 280 002e 03D8     		bhi	.L18
 323:..\Slider.cydsn/main.c ****         {
 324:..\Slider.cydsn/main.c ****             button_pos = 1;       
 281              		.loc 1 324 0
 282 0030 0122     		mov	r2, #1
 283 0032 194B     		ldr	r3, .L23+4
 284 0034 1A80     		strh	r2, [r3]
 285 0036 29E0     		b	.L17
 286              	.L18:
 325:..\Slider.cydsn/main.c ****         }
 326:..\Slider.cydsn/main.c ****         else if ((cap_new_pos >= 120) && (cap_new_pos <= 180))
 287              		.loc 1 326 0
 288 0038 0B1C     		mov	r3, r1
 289 003a 783B     		sub	r3, r3, #120
 290 003c 3C2B     		cmp	r3, #60
 291 003e 03D8     		bhi	.L19
 327:..\Slider.cydsn/main.c ****         {
 328:..\Slider.cydsn/main.c ****             button_pos = 2;       
 292              		.loc 1 328 0
 293 0040 0222     		mov	r2, #2
 294 0042 154B     		ldr	r3, .L23+4
 295 0044 1A80     		strh	r2, [r3]
 296 0046 21E0     		b	.L17
 297              	.L19:
 329:..\Slider.cydsn/main.c ****         }
 330:..\Slider.cydsn/main.c ****         else if ((cap_new_pos >= 220) && (cap_new_pos <= 280))
ARM GAS  C:\Users\MM1005~1\AppData\Local\Temp\ccMnmCJP.s 			page 12


 298              		.loc 1 330 0
 299 0048 0B1C     		mov	r3, r1
 300 004a DC3B     		sub	r3, r3, #220
 301 004c 3C2B     		cmp	r3, #60
 302 004e 03D8     		bhi	.L20
 331:..\Slider.cydsn/main.c ****         {
 332:..\Slider.cydsn/main.c ****             button_pos = 3;       
 303              		.loc 1 332 0
 304 0050 0322     		mov	r2, #3
 305 0052 114B     		ldr	r3, .L23+4
 306 0054 1A80     		strh	r2, [r3]
 307 0056 19E0     		b	.L17
 308              	.L20:
 333:..\Slider.cydsn/main.c ****         }
 334:..\Slider.cydsn/main.c ****         else if ((cap_new_pos >= 320) && (cap_new_pos <= 380))
 309              		.loc 1 334 0
 310 0058 0B1C     		mov	r3, r1
 311 005a 413B     		sub	r3, r3, #65
 312 005c FF3B     		sub	r3, r3, #255
 313 005e 3C2B     		cmp	r3, #60
 314 0060 03D8     		bhi	.L21
 335:..\Slider.cydsn/main.c ****         {
 336:..\Slider.cydsn/main.c ****             button_pos = 4;       
 315              		.loc 1 336 0
 316 0062 0422     		mov	r2, #4
 317 0064 0C4B     		ldr	r3, .L23+4
 318 0066 1A80     		strh	r2, [r3]
 319 0068 10E0     		b	.L17
 320              	.L21:
 337:..\Slider.cydsn/main.c ****         }
 338:..\Slider.cydsn/main.c ****         else if ((cap_new_pos >= 420) && (cap_new_pos <= 480))
 321              		.loc 1 338 0
 322 006a 0B1C     		mov	r3, r1
 323 006c A53B     		sub	r3, r3, #165
 324 006e FF3B     		sub	r3, r3, #255
 325 0070 3C2B     		cmp	r3, #60
 326 0072 03D8     		bhi	.L22
 339:..\Slider.cydsn/main.c ****         {
 340:..\Slider.cydsn/main.c ****             button_pos = 5;       
 327              		.loc 1 340 0
 328 0074 0522     		mov	r2, #5
 329 0076 084B     		ldr	r3, .L23+4
 330 0078 1A80     		strh	r2, [r3]
 331 007a 07E0     		b	.L17
 332              	.L22:
 341:..\Slider.cydsn/main.c ****         }
 342:..\Slider.cydsn/main.c ****         else if ((cap_new_pos >= 520) && (cap_new_pos <= 600))
 333              		.loc 1 342 0
 334 007c 074B     		ldr	r3, .L23+8
 335 007e 9C46     		mov	ip, r3
 336 0080 6144     		add	r1, r1, ip
 337              	.LVL46:
 338 0082 5029     		cmp	r1, #80
 339 0084 02D8     		bhi	.L17
 343:..\Slider.cydsn/main.c ****         {
 344:..\Slider.cydsn/main.c ****             button_pos = 6;       
 340              		.loc 1 344 0
ARM GAS  C:\Users\MM1005~1\AppData\Local\Temp\ccMnmCJP.s 			page 13


 341 0086 0622     		mov	r2, #6
 342 0088 034B     		ldr	r3, .L23+4
 343 008a 1A80     		strh	r2, [r3]
 344              	.LVL47:
 345              	.L17:
 345:..\Slider.cydsn/main.c ****         }    
 346:..\Slider.cydsn/main.c ****     }// else, it's a slide
 347:..\Slider.cydsn/main.c ****     
 348:..\Slider.cydsn/main.c ****     return button_pos;    
 346              		.loc 1 348 0
 347 008c 024B     		ldr	r3, .L23+4
 348 008e 1888     		ldrh	r0, [r3]
 349:..\Slider.cydsn/main.c **** }// get_button_pos
 349              		.loc 1 349 0
 350              		@ sp needed
 351 0090 10BD     		pop	{r4, pc}
 352              	.L24:
 353 0092 C046     		.align	2
 354              	.L23:
 355 0094 FFFF0000 		.word	65535
 356 0098 00000000 		.word	.LANCHOR0
 357 009c F8FDFFFF 		.word	-520
 358              		.cfi_endproc
 359              	.LFE39:
 360              		.size	get_button_pos, .-get_button_pos
 361              		.section	.text.get_led_pos,"ax",%progbits
 362              		.align	2
 363              		.global	get_led_pos
 364              		.code	16
 365              		.thumb_func
 366              		.type	get_led_pos, %function
 367              	get_led_pos:
 368              	.LFB40:
 350:..\Slider.cydsn/main.c **** 
 351:..\Slider.cydsn/main.c **** //=============================================================================
 352:..\Slider.cydsn/main.c **** //================================================================= get_led_pos
 353:..\Slider.cydsn/main.c **** //=============================================================================
 354:..\Slider.cydsn/main.c **** uint16 get_led_pos(uint32 centroid_pos)
 355:..\Slider.cydsn/main.c **** {    
 369              		.loc 1 355 0
 370              		.cfi_startproc
 371              	.LVL48:
 372 0000 08B5     		push	{r3, lr}
 373              		.cfi_def_cfa_offset 8
 374              		.cfi_offset 3, -8
 375              		.cfi_offset 14, -4
 356:..\Slider.cydsn/main.c ****     return min(NUMBER_OF_WHITE_LEDS, max(1, centroid_pos / (SLIDER_RESOLUTION / NUMBER_OF_WHITE_LED
 376              		.loc 1 356 0
 377 0002 074B     		ldr	r3, .L30
 378 0004 9842     		cmp	r0, r3
 379 0006 08D8     		bhi	.L28
 380              		.loc 1 356 0 is_stmt 0 discriminator 1
 381 0008 2728     		cmp	r0, #39
 382 000a 04D9     		bls	.L29
 383              		.loc 1 356 0 discriminator 3
 384 000c 2821     		mov	r1, #40
 385 000e FFF7FEFF 		bl	__aeabi_uidiv
ARM GAS  C:\Users\MM1005~1\AppData\Local\Temp\ccMnmCJP.s 			page 14


 386              	.LVL49:
 387 0012 80B2     		uxth	r0, r0
 388 0014 02E0     		b	.L26
 389              	.LVL50:
 390              	.L29:
 391              		.loc 1 356 0
 392 0016 0120     		mov	r0, #1
 393              	.LVL51:
 394 0018 00E0     		b	.L26
 395              	.LVL52:
 396              	.L28:
 397 001a 0F20     		mov	r0, #15
 398              	.LVL53:
 399              	.L26:
 357:..\Slider.cydsn/main.c **** }// get_led_pos
 400              		.loc 1 357 0 is_stmt 1 discriminator 8
 401              		@ sp needed
 402 001c 08BD     		pop	{r3, pc}
 403              	.L31:
 404 001e C046     		.align	2
 405              	.L30:
 406 0020 7F020000 		.word	639
 407              		.cfi_endproc
 408              	.LFE40:
 409              		.size	get_led_pos, .-get_led_pos
 410              		.section	.text.display_finger_tracker,"ax",%progbits
 411              		.align	2
 412              		.global	display_finger_tracker
 413              		.code	16
 414              		.thumb_func
 415              		.type	display_finger_tracker, %function
 416              	display_finger_tracker:
 417              	.LFB38:
 289:..\Slider.cydsn/main.c ****     uint16 button_width = NUMBER_OF_WHITE_LEDS / get_number_of_buttons();
 418              		.loc 1 289 0
 419              		.cfi_startproc
 420              	.LVL54:
 421 0000 70B5     		push	{r4, r5, r6, lr}
 422              		.cfi_def_cfa_offset 16
 423              		.cfi_offset 4, -16
 424              		.cfi_offset 5, -12
 425              		.cfi_offset 6, -8
 426              		.cfi_offset 14, -4
 427 0002 061C     		mov	r6, r0
 428 0004 0D1C     		mov	r5, r1
 290:..\Slider.cydsn/main.c ****     
 429              		.loc 1 290 0
 430 0006 FFF7FEFF 		bl	get_number_of_buttons
 431              	.LVL55:
 432 000a 011C     		mov	r1, r0
 433 000c 0F20     		mov	r0, #15
 434 000e FFF7FEFF 		bl	__aeabi_idiv
 435              	.LVL56:
 436 0012 84B2     		uxth	r4, r0
 437              	.LVL57:
 292:..\Slider.cydsn/main.c ****     {
 438              		.loc 1 292 0
ARM GAS  C:\Users\MM1005~1\AppData\Local\Temp\ccMnmCJP.s 			page 15


 439 0014 FFF7FEFF 		bl	get_is_tracker_enable
 440              	.LVL58:
 441 0018 0028     		cmp	r0, #0
 442 001a 20D0     		beq	.L33
 294:..\Slider.cydsn/main.c ****         {
 443              		.loc 1 294 0
 444 001c 012C     		cmp	r4, #1
 445 001e 10D9     		bls	.L34
 296:..\Slider.cydsn/main.c ****             display_button(get_button_pos(cap_new_pos, cap_new_pos), MAX_INTENSITY, button_width);
 446              		.loc 1 296 0
 447 0020 301C     		mov	r0, r6
 448 0022 311C     		mov	r1, r6
 449 0024 FFF7FEFF 		bl	get_button_pos
 450              	.LVL59:
 451 0028 0021     		mov	r1, #0
 452 002a 221C     		mov	r2, r4
 453 002c FFF7FEFF 		bl	display_button
 454              	.LVL60:
 297:..\Slider.cydsn/main.c ****         }
 455              		.loc 1 297 0
 456 0030 281C     		mov	r0, r5
 457 0032 291C     		mov	r1, r5
 458 0034 FFF7FEFF 		bl	get_button_pos
 459              	.LVL61:
 460 0038 0B49     		ldr	r1, .L35
 461 003a 221C     		mov	r2, r4
 462 003c FFF7FEFF 		bl	display_button
 463              	.LVL62:
 464 0040 0DE0     		b	.L33
 465              	.L34:
 301:..\Slider.cydsn/main.c ****             set_led(get_led_pos(cap_new_pos), MAX_INTENSITY);
 466              		.loc 1 301 0
 467 0042 301C     		mov	r0, r6
 468 0044 FFF7FEFF 		bl	get_led_pos
 469              	.LVL63:
 470 0048 C0B2     		uxtb	r0, r0
 471 004a 0021     		mov	r1, #0
 472 004c FFF7FEFF 		bl	set_led
 473              	.LVL64:
 302:..\Slider.cydsn/main.c ****         }
 474              		.loc 1 302 0
 475 0050 281C     		mov	r0, r5
 476 0052 FFF7FEFF 		bl	get_led_pos
 477              	.LVL65:
 478 0056 C0B2     		uxtb	r0, r0
 479 0058 0349     		ldr	r1, .L35
 480 005a FFF7FEFF 		bl	set_led
 481              	.LVL66:
 482              	.L33:
 306:..\Slider.cydsn/main.c **** }// display_finger_tracker
 483              		.loc 1 306 0
 484 005e 281C     		mov	r0, r5
 485 0060 FFF7FEFF 		bl	get_led_pos
 486              	.LVL67:
 307:..\Slider.cydsn/main.c **** 
 487              		.loc 1 307 0
 488              		@ sp needed
ARM GAS  C:\Users\MM1005~1\AppData\Local\Temp\ccMnmCJP.s 			page 16


 489              	.LVL68:
 490              	.LVL69:
 491 0064 70BD     		pop	{r4, r5, r6, pc}
 492              	.L36:
 493 0066 C046     		.align	2
 494              	.L35:
 495 0068 FF0F0000 		.word	4095
 496              		.cfi_endproc
 497              	.LFE38:
 498              		.size	display_finger_tracker, .-display_finger_tracker
 499              		.section	.text.get_capsense_touched_sensors,"ax",%progbits
 500              		.align	2
 501              		.global	get_capsense_touched_sensors
 502              		.code	16
 503              		.thumb_func
 504              		.type	get_capsense_touched_sensors, %function
 505              	get_capsense_touched_sensors:
 506              	.LFB41:
 358:..\Slider.cydsn/main.c **** 
 359:..\Slider.cydsn/main.c **** //=============================================================================
 360:..\Slider.cydsn/main.c **** //================================================ get_capsense_touched_sensors
 361:..\Slider.cydsn/main.c **** //=============================================================================
 362:..\Slider.cydsn/main.c **** uint16 get_capsense_touched_sensors (void)
 363:..\Slider.cydsn/main.c **** {
 507              		.loc 1 363 0
 508              		.cfi_startproc
 509 0000 70B5     		push	{r4, r5, r6, lr}
 510              		.cfi_def_cfa_offset 16
 511              		.cfi_offset 4, -16
 512              		.cfi_offset 5, -12
 513              		.cfi_offset 6, -8
 514              		.cfi_offset 14, -4
 364:..\Slider.cydsn/main.c ****     uint16 i;
 365:..\Slider.cydsn/main.c ****     uint16 max_sensor = CapSense_GET_SENSOR_COUNT(0);
 515              		.loc 1 365 0
 516 0002 094B     		ldr	r3, .L41
 517 0004 DE8A     		ldrh	r6, [r3, #22]
 518              	.LVL70:
 366:..\Slider.cydsn/main.c ****     uint16 nb_sensors = 0;
 519              		.loc 1 366 0
 520 0006 0025     		mov	r5, #0
 367:..\Slider.cydsn/main.c ****       
 368:..\Slider.cydsn/main.c ****     for (i = 0; i < max_sensor; i++)
 521              		.loc 1 368 0
 522 0008 0024     		mov	r4, #0
 523 000a 09E0     		b	.L38
 524              	.LVL71:
 525              	.L40:
 369:..\Slider.cydsn/main.c ****     {
 370:..\Slider.cydsn/main.c ****         if (CapSense_IsSensorActive(0, i))
 526              		.loc 1 370 0
 527 000c 0020     		mov	r0, #0
 528 000e 211C     		mov	r1, r4
 529 0010 FFF7FEFF 		bl	CapSense_IsSensorActive
 530              	.LVL72:
 531 0014 0028     		cmp	r0, #0
 532 0016 01D0     		beq	.L39
ARM GAS  C:\Users\MM1005~1\AppData\Local\Temp\ccMnmCJP.s 			page 17


 371:..\Slider.cydsn/main.c ****         {
 372:..\Slider.cydsn/main.c ****             nb_sensors++;
 533              		.loc 1 372 0
 534 0018 0135     		add	r5, r5, #1
 535              	.LVL73:
 536 001a ADB2     		uxth	r5, r5
 537              	.LVL74:
 538              	.L39:
 368:..\Slider.cydsn/main.c ****     {
 539              		.loc 1 368 0 discriminator 2
 540 001c 0134     		add	r4, r4, #1
 541              	.LVL75:
 542 001e A4B2     		uxth	r4, r4
 543              	.LVL76:
 544              	.L38:
 368:..\Slider.cydsn/main.c ****     {
 545              		.loc 1 368 0 is_stmt 0 discriminator 1
 546 0020 B442     		cmp	r4, r6
 547 0022 F3D3     		bcc	.L40
 373:..\Slider.cydsn/main.c ****         }      
 374:..\Slider.cydsn/main.c ****     }
 375:..\Slider.cydsn/main.c ****    
 376:..\Slider.cydsn/main.c ****     return nb_sensors;
 377:..\Slider.cydsn/main.c **** }// get_capsense_touched_sensors
 548              		.loc 1 377 0 is_stmt 1
 549 0024 281C     		mov	r0, r5
 550              		@ sp needed
 551              	.LVL77:
 552              	.LVL78:
 553              	.LVL79:
 554 0026 70BD     		pop	{r4, r5, r6, pc}
 555              	.L42:
 556              		.align	2
 557              	.L41:
 558 0028 00000000 		.word	CapSense_dsFlash
 559              		.cfi_endproc
 560              	.LFE41:
 561              		.size	get_capsense_touched_sensors, .-get_capsense_touched_sensors
 562              		.section	.text.reset_timer,"ax",%progbits
 563              		.align	2
 564              		.global	reset_timer
 565              		.code	16
 566              		.thumb_func
 567              		.type	reset_timer, %function
 568              	reset_timer:
 569              	.LFB42:
 378:..\Slider.cydsn/main.c **** 
 379:..\Slider.cydsn/main.c **** //=============================================================================
 380:..\Slider.cydsn/main.c **** //================================================================= reset_timer
 381:..\Slider.cydsn/main.c **** //=============================================================================
 382:..\Slider.cydsn/main.c **** void reset_timer(void)
 383:..\Slider.cydsn/main.c **** {
 570              		.loc 1 383 0
 571              		.cfi_startproc
 572 0000 10B5     		push	{r4, lr}
 573              		.cfi_def_cfa_offset 8
 574              		.cfi_offset 4, -8
ARM GAS  C:\Users\MM1005~1\AppData\Local\Temp\ccMnmCJP.s 			page 18


 575              		.cfi_offset 14, -4
 384:..\Slider.cydsn/main.c ****     uint8 enableInterrupts = CyEnterCriticalSection();
 576              		.loc 1 384 0
 577 0002 FFF7FEFF 		bl	CyEnterCriticalSection
 578              	.LVL80:
 579 0006 041C     		mov	r4, r0
 580              	.LVL81:
 385:..\Slider.cydsn/main.c ****      
 386:..\Slider.cydsn/main.c ****         Timer_1_WriteCounter(0);
 581              		.loc 1 386 0
 582 0008 0020     		mov	r0, #0
 583 000a FFF7FEFF 		bl	Timer_1_WriteCounter
 584              	.LVL82:
 387:..\Slider.cydsn/main.c ****         set_timer_interrrupt_count(0);
 585              		.loc 1 387 0
 586 000e 0020     		mov	r0, #0
 587 0010 0021     		mov	r1, #0
 588 0012 FFF7FEFF 		bl	set_timer_interrrupt_count
 589              	.LVL83:
 388:..\Slider.cydsn/main.c ****     
 389:..\Slider.cydsn/main.c ****     CyExitCriticalSection(enableInterrupts);
 590              		.loc 1 389 0
 591 0016 201C     		mov	r0, r4
 592 0018 FFF7FEFF 		bl	CyExitCriticalSection
 593              	.LVL84:
 390:..\Slider.cydsn/main.c **** }// reset_timer
 594              		.loc 1 390 0
 595              		@ sp needed
 596              	.LVL85:
 597 001c 10BD     		pop	{r4, pc}
 598              		.cfi_endproc
 599              	.LFE42:
 600              		.size	reset_timer, .-reset_timer
 601 001e C046     		.section	.text.push_button_scan,"ax",%progbits
 602              		.align	2
 603              		.global	push_button_scan
 604              		.code	16
 605              		.thumb_func
 606              		.type	push_button_scan, %function
 607              	push_button_scan:
 608              	.LFB43:
 391:..\Slider.cydsn/main.c **** 
 392:..\Slider.cydsn/main.c **** //=============================================================================
 393:..\Slider.cydsn/main.c **** //============================================================ push_button_scan
 394:..\Slider.cydsn/main.c **** //=============================================================================
 395:..\Slider.cydsn/main.c **** void push_button_scan (void){
 609              		.loc 1 395 0
 610              		.cfi_startproc
 611 0000 70B5     		push	{r4, r5, r6, lr}
 612              		.cfi_def_cfa_offset 16
 613              		.cfi_offset 4, -16
 614              		.cfi_offset 5, -12
 615              		.cfi_offset 6, -8
 616              		.cfi_offset 14, -4
 617 0002 90B0     		sub	sp, sp, #64
 618              		.cfi_def_cfa_offset 80
 619              	.LVL86:
ARM GAS  C:\Users\MM1005~1\AppData\Local\Temp\ccMnmCJP.s 			page 19


 396:..\Slider.cydsn/main.c ****     
 397:..\Slider.cydsn/main.c ****     uint8 i = 0;
 398:..\Slider.cydsn/main.c ****     char  telemetry[64];
 399:..\Slider.cydsn/main.c ****    
 400:..\Slider.cydsn/main.c ****     memset(telemetry, '\0', sizeof(telemetry));
 620              		.loc 1 400 0
 621 0004 6846     		mov	r0, sp
 622 0006 0021     		mov	r1, #0
 623 0008 4022     		mov	r2, #64
 624 000a FFF7FEFF 		bl	memset
 625              	.LVL87:
 401:..\Slider.cydsn/main.c ****     
 402:..\Slider.cydsn/main.c ****     for (i = 0; i < NUMBER_OF_BUTTONS; i++)
 626              		.loc 1 402 0
 627 000e 0024     		mov	r4, #0
 628 0010 16E0     		b	.L45
 629              	.LVL88:
 630              	.L47:
 403:..\Slider.cydsn/main.c ****     {
 404:..\Slider.cydsn/main.c ****         if (CapSense_IsWidgetActive(push_button_vec[i].capsense_id) != push_button_vec[i].is_button
 631              		.loc 1 404 0
 632 0012 0D4E     		ldr	r6, .L48
 633 0014 E500     		lsl	r5, r4, #3
 634 0016 A85D     		ldrb	r0, [r5, r6]
 635 0018 FFF7FEFF 		bl	CapSense_IsWidgetActive
 636              	.LVL89:
 637 001c 7519     		add	r5, r6, r5
 638 001e 6B78     		ldrb	r3, [r5, #1]
 639 0020 9842     		cmp	r0, r3
 640 0022 0BD0     		beq	.L46
 405:..\Slider.cydsn/main.c ****         {
 406:..\Slider.cydsn/main.c ****             push_button_vec[i].is_button_down = CapSense_IsWidgetActive(push_button_vec[i].capsense
 641              		.loc 1 406 0
 642 0024 084D     		ldr	r5, .L48
 643 0026 E600     		lsl	r6, r4, #3
 644 0028 705D     		ldrb	r0, [r6, r5]
 645 002a FFF7FEFF 		bl	CapSense_IsWidgetActive
 646              	.LVL90:
 647 002e C2B2     		uxtb	r2, r0
 648 0030 AB19     		add	r3, r5, r6
 649 0032 5A70     		strb	r2, [r3, #1]
 407:..\Slider.cydsn/main.c ****             send_push_button_telemetry(push_button_vec[i].capsense_id, push_button_vec[i].name, pus
 650              		.loc 1 407 0
 651 0034 705D     		ldrb	r0, [r6, r5]
 652 0036 5968     		ldr	r1, [r3, #4]
 653 0038 FFF7FEFF 		bl	send_push_button_telemetry
 654              	.LVL91:
 655              	.L46:
 402:..\Slider.cydsn/main.c ****     {
 656              		.loc 1 402 0 discriminator 2
 657 003c 0134     		add	r4, r4, #1
 658              	.LVL92:
 659 003e E4B2     		uxtb	r4, r4
 660              	.LVL93:
 661              	.L45:
 402:..\Slider.cydsn/main.c ****     {
 662              		.loc 1 402 0 is_stmt 0 discriminator 1
ARM GAS  C:\Users\MM1005~1\AppData\Local\Temp\ccMnmCJP.s 			page 20


 663 0040 002C     		cmp	r4, #0
 664 0042 E6D0     		beq	.L47
 408:..\Slider.cydsn/main.c ****         }// If the button state changed
 409:..\Slider.cydsn/main.c ****     }// for all the buttons
 410:..\Slider.cydsn/main.c ****           
 411:..\Slider.cydsn/main.c **** }// push_button_scan
 665              		.loc 1 411 0 is_stmt 1
 666 0044 10B0     		add	sp, sp, #64
 667              		@ sp needed
 668              	.LVL94:
 669 0046 70BD     		pop	{r4, r5, r6, pc}
 670              	.L49:
 671              		.align	2
 672              	.L48:
 673 0048 00000000 		.word	.LANCHOR1
 674              		.cfi_endproc
 675              	.LFE43:
 676              		.size	push_button_scan, .-push_button_scan
 677              		.section	.text.main,"ax",%progbits
 678              		.align	2
 679              		.global	main
 680              		.code	16
 681              		.thumb_func
 682              		.type	main, %function
 683              	main:
 684              	.LFB35:
  59:..\Slider.cydsn/main.c ****     BOOL                    cap_sense_is_untouched  = TRUE;
 685              		.loc 1 59 0
 686              		.cfi_startproc
 687 0000 10B5     		push	{r4, lr}
 688              		.cfi_def_cfa_offset 8
 689              		.cfi_offset 4, -8
 690              		.cfi_offset 14, -4
 691              	.LVL95:
  71:..\Slider.cydsn/main.c **** 
 692              		.loc 1 71 0
 693              	@ 71 "..\Slider.cydsn\main.c" 1
 694 0002 62B6     		CPSIE   i
 695              	@ 0 "" 2
  75:..\Slider.cydsn/main.c **** 
 696              		.loc 1 75 0
 697              		.code	16
 698 0004 FFF7FEFF 		bl	initialize_leds
 699              	.LVL96:
  77:..\Slider.cydsn/main.c **** 
 700              		.loc 1 77 0
 701 0008 FFF7FEFF 		bl	CommsInit
 702              	.LVL97:
  79:..\Slider.cydsn/main.c **** 
 703              		.loc 1 79 0
 704 000c FFF7FEFF 		bl	CapSense_Start
 705              	.LVL98:
 706              	.L51:
  84:..\Slider.cydsn/main.c ****         {
 707              		.loc 1 84 0
 708 0010 FFF7FEFF 		bl	CommsIsInputBufferReady
 709              	.LVL99:
ARM GAS  C:\Users\MM1005~1\AppData\Local\Temp\ccMnmCJP.s 			page 21


 710 0014 0028     		cmp	r0, #0
 711 0016 2DD0     		beq	.L52
 712              	.LBB2:
  86:..\Slider.cydsn/main.c ****             {
 713              		.loc 1 86 0
 714 0018 FFF7FEFF 		bl	get_is_telemetry_enable
 715              	.LVL100:
 716 001c 0028     		cmp	r0, #0
 717 001e 02D1     		bne	.L53
  88:..\Slider.cydsn/main.c ****             }// the telemetry were disabled but we received something from the client
 718              		.loc 1 88 0
 719 0020 0130     		add	r0, r0, #1
 720 0022 FFF7FEFF 		bl	set_is_telemetry_enable
 721              	.LVL101:
 722              	.L53:
  91:..\Slider.cydsn/main.c **** 
 723              		.loc 1 91 0
 724 0026 FFF7FEFF 		bl	CommsGetInputBuffer
 725              	.LVL102:
 726 002a 041C     		mov	r4, r0
 727              	.LVL103:
  93:..\Slider.cydsn/main.c ****             {
 728              		.loc 1 93 0
 729 002c 0378     		ldrb	r3, [r0]
 730 002e 7B2B     		cmp	r3, #123
 731 0030 06D1     		bne	.L54
  93:..\Slider.cydsn/main.c ****             {
 732              		.loc 1 93 0 is_stmt 0 discriminator 1
 733 0032 FFF7FEFF 		bl	strlen
 734              	.LVL104:
 735 0036 0138     		sub	r0, r0, #1
 736 0038 2018     		add	r0, r4, r0
 737 003a 0378     		ldrb	r3, [r0]
 738 003c 7D2B     		cmp	r3, #125
 739 003e 05D0     		beq	.L55
 740              	.L54:
  95:..\Slider.cydsn/main.c ****             }// if the command is not well formed
 741              		.loc 1 95 0 is_stmt 1
 742 0040 0220     		mov	r0, #2
 743 0042 1649     		ldr	r1, .L60
 744 0044 164A     		ldr	r2, .L60+4
 745 0046 FFF7FEFF 		bl	send_alarm_telemetry
 746              	.LVL105:
 747 004a 11E0     		b	.L56
 748              	.L55:
  99:..\Slider.cydsn/main.c ****                 if (parse_and_execute_command(&(receive_string[1])) == FALSE)
 749              		.loc 1 99 0
 750 004c 0023     		mov	r3, #0
 751 004e 0370     		strb	r3, [r0]
 100:..\Slider.cydsn/main.c ****                 {
 752              		.loc 1 100 0
 753 0050 601C     		add	r0, r4, #1
 754 0052 FFF7FEFF 		bl	parse_and_execute_command
 755              	.LVL106:
 756 0056 0028     		cmp	r0, #0
 757 0058 05D1     		bne	.L57
 102:..\Slider.cydsn/main.c ****                 }// If we failed to execute the command
ARM GAS  C:\Users\MM1005~1\AppData\Local\Temp\ccMnmCJP.s 			page 22


 758              		.loc 1 102 0
 759 005a 0230     		add	r0, r0, #2
 760 005c 0021     		mov	r1, #0
 761 005e 114A     		ldr	r2, .L60+8
 762 0060 FFF7FEFF 		bl	send_alarm_telemetry
 763              	.LVL107:
 764 0064 04E0     		b	.L56
 765              	.L57:
 106:..\Slider.cydsn/main.c ****                 }
 766              		.loc 1 106 0
 767 0066 0020     		mov	r0, #0
 768 0068 0021     		mov	r1, #0
 769 006a 0F4A     		ldr	r2, .L60+12
 770 006c FFF7FEFF 		bl	send_alarm_telemetry
 771              	.LVL108:
 772              	.L56:
 110:..\Slider.cydsn/main.c ****         }
 773              		.loc 1 110 0
 774 0070 FFF7FEFF 		bl	CommsResetInputBuffer
 775              	.LVL109:
 776              	.L52:
 777              	.LBE2:
 113:..\Slider.cydsn/main.c ****         {
 778              		.loc 1 113 0
 779 0074 FFF7FEFF 		bl	get_is_anim_on_button_up_enable
 780              	.LVL110:
 781 0078 0028     		cmp	r0, #0
 782 007a 02D0     		beq	.L58
 115:..\Slider.cydsn/main.c ****         }
 783              		.loc 1 115 0
 784 007c 0120     		mov	r0, #1
 785 007e FFF7FEFF 		bl	run_current_animation
 786              	.LVL111:
 787              	.L58:
 118:..\Slider.cydsn/main.c ****         {
 788              		.loc 1 118 0
 789 0082 FFF7FEFF 		bl	CapSense_IsBusy
 790              	.LVL112:
 791 0086 0028     		cmp	r0, #0
 792 0088 C2D1     		bne	.L51
 124:..\Slider.cydsn/main.c ****         {
 793              		.loc 1 124 0
 794 008a FFF7FEFF 		bl	CapSense_ProcessAllWidgets
 795              	.LVL113:
 796 008e 1128     		cmp	r0, #17
 797 0090 BED0     		beq	.L51
 129:..\Slider.cydsn/main.c **** 
 798              		.loc 1 129 0
 799 0092 FFF7FEFF 		bl	push_button_scan
 800              	.LVL114:
 203:..\Slider.cydsn/main.c ****     }// for ever
 801              		.loc 1 203 0
 802 0096 FFF7FEFF 		bl	CapSense_ScanAllWidgets
 803              	.LVL115:
 804 009a B9E7     		b	.L51
 805              	.L61:
 806              		.align	2
ARM GAS  C:\Users\MM1005~1\AppData\Local\Temp\ccMnmCJP.s 			page 23


 807              	.L60:
 808 009c 00000000 		.word	.LC4
 809 00a0 04000000 		.word	.LC6
 810 00a4 24000000 		.word	.LC8
 811 00a8 44000000 		.word	.LC10
 812              		.cfi_endproc
 813              	.LFE35:
 814              		.size	main, .-main
 815              		.global	push_button_vec
 816              		.data
 817              		.align	2
 818              		.set	.LANCHOR1,. + 0
 819              		.type	push_button_vec, %object
 820              		.size	push_button_vec, 8
 821              	push_button_vec:
 822 0000 00       		.byte	0
 823 0001 00       		.byte	0
 824 0002 0000     		.space	2
 825 0004 50000000 		.word	.LC12
 826              		.section	.rodata.str1.4,"aMS",%progbits,1
 827              		.align	2
 828              	.LC4:
 829 0000 00       		.ascii	"\000"
 830 0001 000000   		.space	3
 831              	.LC6:
 832 0004 696E7661 		.ascii	"invalid start-end character(s)\000"
 832      6C696420 
 832      73746172 
 832      742D656E 
 832      64206368 
 833 0023 00       		.space	1
 834              	.LC8:
 835 0024 6661696C 		.ascii	"failed to execute the command\000"
 835      65642074 
 835      6F206578 
 835      65637574 
 835      65207468 
 836 0042 0000     		.space	2
 837              	.LC10:
 838 0044 65786563 		.ascii	"executed\000"
 838      75746564 
 838      00
 839 004d 000000   		.space	3
 840              	.LC12:
 841 0050 42543000 		.ascii	"BT0\000"
 842              		.bss
 843              		.align	1
 844              		.set	.LANCHOR0,. + 0
 845              		.type	button_pos.6211, %object
 846              		.size	button_pos.6211, 2
 847              	button_pos.6211:
 848 0000 0000     		.space	2
 849              		.text
 850              	.Letext0:
 851              		.file 2 "c:\\program files (x86)\\cypress\\psoc creator\\4.0\\psoc creator\\import\\gnu\\arm\\4.9.
 852              		.file 3 "Generated_Source\\PSoC4/cytypes.h"
 853              		.file 4 "c:\\program files (x86)\\cypress\\psoc creator\\4.0\\psoc creator\\import\\gnu\\arm\\4.9.
ARM GAS  C:\Users\MM1005~1\AppData\Local\Temp\ccMnmCJP.s 			page 24


 854              		.file 5 "Generated_Source\\PSoC4/CapSense_Configuration.h"
 855              		.file 6 "Generated_Source\\PSoC4/CapSense_SmartSense_LL.h"
 856              		.file 7 "Generated_Source\\PSoC4/CapSense_Structure.h"
 857              		.file 8 "..\\Slider.cydsn\\util.h"
 858              		.file 9 "..\\Slider.cydsn\\command_telemetry.h"
 859              		.file 10 "Generated_Source\\PSoC4/CyLib.h"
 860              		.file 11 "Generated_Source\\PSoC4/Timer_1.h"
 861              		.file 12 "..\\Slider.cydsn\\led.h"
 862              		.file 13 "..\\Slider.cydsn\\comms.h"
 863              		.file 14 "c:\\program files (x86)\\cypress\\psoc creator\\4.0\\psoc creator\\import\\gnu\\arm\\4.9
 864              		.file 15 "Generated_Source\\PSoC4/CapSense_Control.h"
 865              		.file 16 "..\\Slider.cydsn\\animation.h"
 866              		.file 17 "Generated_Source\\PSoC4/CapSense_Sensing.h"