ARM GAS  C:\Users\MM1005~1\AppData\Local\Temp\ccegshiY.s 			page 1


   1              		.cpu cortex-m0plus
   2              		.fpu softvfp
   3              		.eabi_attribute 20, 1
   4              		.eabi_attribute 21, 1
   5              		.eabi_attribute 23, 3
   6              		.eabi_attribute 24, 1
   7              		.eabi_attribute 25, 1
   8              		.eabi_attribute 26, 1
   9              		.eabi_attribute 30, 1
  10              		.eabi_attribute 34, 0
  11              		.eabi_attribute 18, 4
  12              		.code	16
  13              		.file	"util.c"
  14              		.text
  15              	.Ltext0:
  16              		.cfi_sections	.debug_frame
  17              		.section	.text.atoi,"ax",%progbits
  18              		.align	2
  19              		.global	atoi
  20              		.code	16
  21              		.thumb_func
  22              		.type	atoi, %function
  23              	atoi:
  24              	.LFB35:
  25              		.file 1 "..\\Slider.cydsn\\util.c"
   1:..\Slider.cydsn/util.c **** /* ========================================
   2:..\Slider.cydsn/util.c ****  *
   3:..\Slider.cydsn/util.c ****  * Copyright YOUR COMPANY, THE YEAR
   4:..\Slider.cydsn/util.c ****  * All Rights Reserved
   5:..\Slider.cydsn/util.c ****  * UNPUBLISHED, LICENSED SOFTWARE.
   6:..\Slider.cydsn/util.c ****  *
   7:..\Slider.cydsn/util.c ****  * CONFIDENTIAL AND PROPRIETARY INFORMATION
   8:..\Slider.cydsn/util.c ****  * WHICH IS THE PROPERTY OF your company.
   9:..\Slider.cydsn/util.c ****  *
  10:..\Slider.cydsn/util.c ****  * ========================================
  11:..\Slider.cydsn/util.c **** */
  12:..\Slider.cydsn/util.c **** #include "util.h"
  13:..\Slider.cydsn/util.c **** 
  14:..\Slider.cydsn/util.c **** //=============================================================================
  15:..\Slider.cydsn/util.c **** //=================================================================== constants
  16:..\Slider.cydsn/util.c **** //=============================================================================
  17:..\Slider.cydsn/util.c **** #define INT_DIGITS                20 // enough for 64 bits int
  18:..\Slider.cydsn/util.c **** #define DEFAULT_NUMBER_OF_BUTTONS 6  // [1..NUMBER_OF_WHITE_LEDS]
  19:..\Slider.cydsn/util.c **** 
  20:..\Slider.cydsn/util.c **** //=============================================================================
  21:..\Slider.cydsn/util.c **** //============================================================ static variables
  22:..\Slider.cydsn/util.c **** //=============================================================================
  23:..\Slider.cydsn/util.c **** static BOOL          is_tracker_enable      = TRUE; // when enable: the finger tracker lightbar ani
  24:..\Slider.cydsn/util.c **** static uint16        number_of_buttons      = DEFAULT_NUMBER_OF_BUTTONS;
  25:..\Slider.cydsn/util.c **** static uint_fast64_t timer_interrrupt_count = 0;
  26:..\Slider.cydsn/util.c **** static const char*   software_version       = "0.07";
  27:..\Slider.cydsn/util.c **** 
  28:..\Slider.cydsn/util.c **** //=============================================================================
  29:..\Slider.cydsn/util.c **** //======================================================================== atoi
  30:..\Slider.cydsn/util.c **** //=============================================================================
  31:..\Slider.cydsn/util.c **** int atoi(register char* string)
  32:..\Slider.cydsn/util.c **** {
ARM GAS  C:\Users\MM1005~1\AppData\Local\Temp\ccegshiY.s 			page 2


  26              		.loc 1 32 0
  27              		.cfi_startproc
  28              	.LVL0:
  29 0000 10B5     		push	{r4, lr}
  30              		.cfi_def_cfa_offset 8
  31              		.cfi_offset 4, -8
  32              		.cfi_offset 14, -4
  33              	.LVL1:
  33:..\Slider.cydsn/util.c ****     register int          result = 0;
  34:..\Slider.cydsn/util.c ****     register unsigned int digit  = 0;
  35:..\Slider.cydsn/util.c ****     int                   sign   = 0;
  36:..\Slider.cydsn/util.c **** 
  37:..\Slider.cydsn/util.c ****     while (*string == ' ') 
  34              		.loc 1 37 0
  35 0002 00E0     		b	.L2
  36              	.L3:
  38:..\Slider.cydsn/util.c ****     {
  39:..\Slider.cydsn/util.c ****         string++;
  37              		.loc 1 39 0
  38 0004 0130     		add	r0, r0, #1
  39              	.LVL2:
  40              	.L2:
  37:..\Slider.cydsn/util.c ****     {
  41              		.loc 1 37 0
  42 0006 0378     		ldrb	r3, [r0]
  43 0008 202B     		cmp	r3, #32
  44 000a FBD0     		beq	.L3
  40:..\Slider.cydsn/util.c ****     }// skip all white space on left
  41:..\Slider.cydsn/util.c **** 
  42:..\Slider.cydsn/util.c ****     if (*string == '-') 
  45              		.loc 1 42 0
  46 000c 2D2B     		cmp	r3, #45
  47 000e 02D1     		bne	.L4
  48              	.LVL3:
  43:..\Slider.cydsn/util.c ****     {
  44:..\Slider.cydsn/util.c ****     	sign = 1;
  45:..\Slider.cydsn/util.c ****     	string++;
  49              		.loc 1 45 0
  50 0010 0130     		add	r0, r0, #1
  51              	.LVL4:
  44:..\Slider.cydsn/util.c ****     	string++;
  52              		.loc 1 44 0
  53 0012 0124     		mov	r4, #1
  54 0014 05E0     		b	.L5
  55              	.LVL5:
  56              	.L4:
  46:..\Slider.cydsn/util.c ****     } 
  47:..\Slider.cydsn/util.c ****     else 
  48:..\Slider.cydsn/util.c ****     {
  49:..\Slider.cydsn/util.c ****     	sign = 0;
  50:..\Slider.cydsn/util.c ****     	if (*string == '+') 
  57              		.loc 1 50 0
  58 0016 2B2B     		cmp	r3, #43
  59 0018 02D1     		bne	.L10
  51:..\Slider.cydsn/util.c ****         {
  52:..\Slider.cydsn/util.c ****     	    string++;
  60              		.loc 1 52 0
ARM GAS  C:\Users\MM1005~1\AppData\Local\Temp\ccegshiY.s 			page 3


  61 001a 0130     		add	r0, r0, #1
  62              	.LVL6:
  49:..\Slider.cydsn/util.c ****     	if (*string == '+') 
  63              		.loc 1 49 0
  64 001c 0024     		mov	r4, #0
  65 001e 00E0     		b	.L5
  66              	.L10:
  67 0020 0024     		mov	r4, #0
  68              	.LVL7:
  69              	.L5:
  70 0022 0023     		mov	r3, #0
  71              	.LVL8:
  72              	.L7:
  53:..\Slider.cydsn/util.c ****     	}
  54:..\Slider.cydsn/util.c ****     }
  55:..\Slider.cydsn/util.c **** 
  56:..\Slider.cydsn/util.c ****     for ( ; ; string++) 
  57:..\Slider.cydsn/util.c ****     {
  58:..\Slider.cydsn/util.c ****     	digit = *string - '0';
  73              		.loc 1 58 0
  74 0024 0278     		ldrb	r2, [r0]
  75 0026 303A     		sub	r2, r2, #48
  76              	.LVL9:
  59:..\Slider.cydsn/util.c ****     	if (digit > 9) 
  77              		.loc 1 59 0
  78 0028 092A     		cmp	r2, #9
  79 002a 05D8     		bhi	.L6
  60:..\Slider.cydsn/util.c ****         {
  61:..\Slider.cydsn/util.c ****     	    break;
  62:..\Slider.cydsn/util.c ****     	}
  63:..\Slider.cydsn/util.c ****     	result = (10 * result) + digit;
  80              		.loc 1 63 0
  81 002c 9900     		lsl	r1, r3, #2
  82 002e CB18     		add	r3, r1, r3
  83              	.LVL10:
  84 0030 5B00     		lsl	r3, r3, #1
  85 0032 9B18     		add	r3, r3, r2
  86              	.LVL11:
  56:..\Slider.cydsn/util.c ****     {
  87              		.loc 1 56 0
  88 0034 0130     		add	r0, r0, #1
  89              	.LVL12:
  64:..\Slider.cydsn/util.c ****     }
  90              		.loc 1 64 0
  91 0036 F5E7     		b	.L7
  92              	.L6:
  65:..\Slider.cydsn/util.c **** 
  66:..\Slider.cydsn/util.c ****     return sign ? -result : result;
  93              		.loc 1 66 0
  94 0038 002C     		cmp	r4, #0
  95 003a 01D0     		beq	.L8
  96              		.loc 1 66 0 is_stmt 0 discriminator 1
  97 003c 5842     		neg	r0, r3
  98              	.LVL13:
  99 003e 00E0     		b	.L9
 100              	.LVL14:
 101              	.L8:
ARM GAS  C:\Users\MM1005~1\AppData\Local\Temp\ccegshiY.s 			page 4


 102              		.loc 1 66 0 discriminator 2
 103 0040 181C     		mov	r0, r3
 104              	.LVL15:
 105              	.L9:
  67:..\Slider.cydsn/util.c **** }// atoi
 106              		.loc 1 67 0 is_stmt 1 discriminator 4
 107              		@ sp needed
 108              	.LVL16:
 109 0042 10BD     		pop	{r4, pc}
 110              		.cfi_endproc
 111              	.LFE35:
 112              		.size	atoi, .-atoi
 113              		.global	__aeabi_ldivmod
 114              		.section	.text.itoa,"ax",%progbits
 115              		.align	2
 116              		.global	itoa
 117              		.code	16
 118              		.thumb_func
 119              		.type	itoa, %function
 120              	itoa:
 121              	.LFB36:
  68:..\Slider.cydsn/util.c **** 
  69:..\Slider.cydsn/util.c **** //=============================================================================
  70:..\Slider.cydsn/util.c **** //======================================================================== itoa
  71:..\Slider.cydsn/util.c **** //=============================================================================
  72:..\Slider.cydsn/util.c **** char* itoa(long long int i)
  73:..\Slider.cydsn/util.c **** {
 122              		.loc 1 73 0
 123              		.cfi_startproc
 124              	.LVL17:
 125 0000 F8B5     		push	{r3, r4, r5, r6, r7, lr}
 126              		.cfi_def_cfa_offset 24
 127              		.cfi_offset 3, -24
 128              		.cfi_offset 4, -20
 129              		.cfi_offset 5, -16
 130              		.cfi_offset 6, -12
 131              		.cfi_offset 7, -8
 132              		.cfi_offset 14, -4
 133 0002 0E1C     		mov	r6, r1
 134              	.LVL18:
 135              		.loc 1 73 0
 136 0004 041C     		mov	r4, r0
 137 0006 0D1C     		mov	r5, r1
  74:..\Slider.cydsn/util.c ****     static char buf[INT_DIGITS + 2];                    // room for INT_DIGITS digits, sign and '\0
  75:..\Slider.cydsn/util.c ****     char*       p              = buf + INT_DIGITS + 1;  // points to terminating '\0'
 138              		.loc 1 75 0
 139 0008 0E4F     		ldr	r7, .L15
 140 000a 1537     		add	r7, r7, #21
 141              	.LVL19:
 142              	.L12:
  76:..\Slider.cydsn/util.c ****     BOOL        negative_value = (i < 0) ? TRUE : FALSE;
  77:..\Slider.cydsn/util.c ****   
  78:..\Slider.cydsn/util.c ****     do 
  79:..\Slider.cydsn/util.c ****     {
  80:..\Slider.cydsn/util.c ****         *--p  = '0' + (i % 10);
 143              		.loc 1 80 0 discriminator 1
 144 000c 013F     		sub	r7, r7, #1
ARM GAS  C:\Users\MM1005~1\AppData\Local\Temp\ccegshiY.s 			page 5


 145              	.LVL20:
 146 000e 201C     		mov	r0, r4
 147 0010 291C     		mov	r1, r5
 148 0012 0A22     		mov	r2, #10
 149 0014 0023     		mov	r3, #0
 150 0016 FFF7FEFF 		bl	__aeabi_ldivmod
 151              	.LVL21:
 152 001a 3032     		add	r2, r2, #48
 153 001c 3A70     		strb	r2, [r7]
  81:..\Slider.cydsn/util.c ****         i    /= 10;
 154              		.loc 1 81 0 discriminator 1
 155 001e 201C     		mov	r0, r4
 156 0020 291C     		mov	r1, r5
 157 0022 0A22     		mov	r2, #10
 158 0024 0023     		mov	r3, #0
 159 0026 FFF7FEFF 		bl	__aeabi_ldivmod
 160              	.LVL22:
 161 002a 041C     		mov	r4, r0
 162              	.LVL23:
 163 002c 0D1C     		mov	r5, r1
 164              	.LVL24:
  82:..\Slider.cydsn/util.c ****     } while (i != 0);
 165              		.loc 1 82 0 discriminator 1
 166 002e 0B1C     		mov	r3, r1
 167 0030 0343     		orr	r3, r0
 168 0032 EBD1     		bne	.L12
  83:..\Slider.cydsn/util.c ****     
  84:..\Slider.cydsn/util.c ****     if (negative_value) {
 169              		.loc 1 84 0
 170 0034 002E     		cmp	r6, #0
 171 0036 02DA     		bge	.L13
  85:..\Slider.cydsn/util.c ****         *--p = '-';
 172              		.loc 1 85 0
 173 0038 013F     		sub	r7, r7, #1
 174              	.LVL25:
 175 003a 2D33     		add	r3, r3, #45
 176 003c 3B70     		strb	r3, [r7]
 177              	.L13:
  86:..\Slider.cydsn/util.c ****     }
  87:..\Slider.cydsn/util.c ****     
  88:..\Slider.cydsn/util.c ****     return p;
  89:..\Slider.cydsn/util.c **** }// itoa
 178              		.loc 1 89 0
 179 003e 381C     		mov	r0, r7
 180              	.LVL26:
 181              		@ sp needed
 182              	.LVL27:
 183              	.LVL28:
 184 0040 F8BD     		pop	{r3, r4, r5, r6, r7, pc}
 185              	.L16:
 186 0042 C046     		.align	2
 187              	.L15:
 188 0044 00000000 		.word	.LANCHOR0
 189              		.cfi_endproc
 190              	.LFE36:
 191              		.size	itoa, .-itoa
 192              		.section	.text.get_is_tracker_enable,"ax",%progbits
ARM GAS  C:\Users\MM1005~1\AppData\Local\Temp\ccegshiY.s 			page 6


 193              		.align	2
 194              		.global	get_is_tracker_enable
 195              		.code	16
 196              		.thumb_func
 197              		.type	get_is_tracker_enable, %function
 198              	get_is_tracker_enable:
 199              	.LFB37:
  90:..\Slider.cydsn/util.c **** 
  91:..\Slider.cydsn/util.c **** //=============================================================================
  92:..\Slider.cydsn/util.c **** //======================================================= get_is_tracker_enable
  93:..\Slider.cydsn/util.c **** //=============================================================================
  94:..\Slider.cydsn/util.c **** BOOL get_is_tracker_enable()
  95:..\Slider.cydsn/util.c **** {
 200              		.loc 1 95 0
 201              		.cfi_startproc
  96:..\Slider.cydsn/util.c ****     return is_tracker_enable;
 202              		.loc 1 96 0
 203 0000 014B     		ldr	r3, .L18
 204 0002 1878     		ldrb	r0, [r3]
  97:..\Slider.cydsn/util.c ****     
  98:..\Slider.cydsn/util.c **** }// get_is_tracker_enable
 205              		.loc 1 98 0
 206              		@ sp needed
 207 0004 7047     		bx	lr
 208              	.L19:
 209 0006 C046     		.align	2
 210              	.L18:
 211 0008 00000000 		.word	.LANCHOR1
 212              		.cfi_endproc
 213              	.LFE37:
 214              		.size	get_is_tracker_enable, .-get_is_tracker_enable
 215              		.section	.text.set_is_tracker_enable,"ax",%progbits
 216              		.align	2
 217              		.global	set_is_tracker_enable
 218              		.code	16
 219              		.thumb_func
 220              		.type	set_is_tracker_enable, %function
 221              	set_is_tracker_enable:
 222              	.LFB38:
  99:..\Slider.cydsn/util.c **** 
 100:..\Slider.cydsn/util.c **** //=============================================================================
 101:..\Slider.cydsn/util.c **** //======================================================= set_is_tracker_enable
 102:..\Slider.cydsn/util.c **** //=============================================================================
 103:..\Slider.cydsn/util.c **** void set_is_tracker_enable(BOOL the_is_tracker_enable)
 104:..\Slider.cydsn/util.c **** {
 223              		.loc 1 104 0
 224              		.cfi_startproc
 225              	.LVL29:
 105:..\Slider.cydsn/util.c ****     is_tracker_enable = the_is_tracker_enable;
 226              		.loc 1 105 0
 227 0000 014B     		ldr	r3, .L21
 228 0002 1870     		strb	r0, [r3]
 106:..\Slider.cydsn/util.c **** }// set_is_tracker_enable
 229              		.loc 1 106 0
 230              		@ sp needed
 231 0004 7047     		bx	lr
 232              	.L22:
ARM GAS  C:\Users\MM1005~1\AppData\Local\Temp\ccegshiY.s 			page 7


 233 0006 C046     		.align	2
 234              	.L21:
 235 0008 00000000 		.word	.LANCHOR1
 236              		.cfi_endproc
 237              	.LFE38:
 238              		.size	set_is_tracker_enable, .-set_is_tracker_enable
 239              		.section	.text.get_number_of_buttons,"ax",%progbits
 240              		.align	2
 241              		.global	get_number_of_buttons
 242              		.code	16
 243              		.thumb_func
 244              		.type	get_number_of_buttons, %function
 245              	get_number_of_buttons:
 246              	.LFB39:
 107:..\Slider.cydsn/util.c **** 
 108:..\Slider.cydsn/util.c **** //=============================================================================
 109:..\Slider.cydsn/util.c **** //======================================================= get_number_of_buttons
 110:..\Slider.cydsn/util.c **** //=============================================================================
 111:..\Slider.cydsn/util.c **** uint16 get_number_of_buttons()
 112:..\Slider.cydsn/util.c **** {
 247              		.loc 1 112 0
 248              		.cfi_startproc
 113:..\Slider.cydsn/util.c ****     return number_of_buttons;
 114:..\Slider.cydsn/util.c **** }// get_number_of_buttons
 249              		.loc 1 114 0
 250 0000 0620     		mov	r0, #6
 251              		@ sp needed
 252 0002 7047     		bx	lr
 253              		.cfi_endproc
 254              	.LFE39:
 255              		.size	get_number_of_buttons, .-get_number_of_buttons
 256              		.section	.text.set_number_of_buttons,"ax",%progbits
 257              		.align	2
 258              		.global	set_number_of_buttons
 259              		.code	16
 260              		.thumb_func
 261              		.type	set_number_of_buttons, %function
 262              	set_number_of_buttons:
 263              	.LFB40:
 115:..\Slider.cydsn/util.c **** 
 116:..\Slider.cydsn/util.c **** //=============================================================================
 117:..\Slider.cydsn/util.c **** //======================================================= set_number_of_buttons 
 118:..\Slider.cydsn/util.c **** //=============================================================================
 119:..\Slider.cydsn/util.c **** void set_number_of_buttons(uint16 the_number_of_buttons)
 120:..\Slider.cydsn/util.c **** {
 264              		.loc 1 120 0
 265              		.cfi_startproc
 266              	.LVL30:
 121:..\Slider.cydsn/util.c ****     the_number_of_buttons = number_of_buttons;
 122:..\Slider.cydsn/util.c **** }// set_number_of_buttons
 267              		.loc 1 122 0
 268              		@ sp needed
 269 0000 7047     		bx	lr
 270              		.cfi_endproc
 271              	.LFE40:
 272              		.size	set_number_of_buttons, .-set_number_of_buttons
 273 0002 C046     		.section	.text.get_timer_interrrupt_count,"ax",%progbits
ARM GAS  C:\Users\MM1005~1\AppData\Local\Temp\ccegshiY.s 			page 8


 274              		.align	2
 275              		.global	get_timer_interrrupt_count
 276              		.code	16
 277              		.thumb_func
 278              		.type	get_timer_interrrupt_count, %function
 279              	get_timer_interrrupt_count:
 280              	.LFB41:
 123:..\Slider.cydsn/util.c **** 
 124:..\Slider.cydsn/util.c **** //=============================================================================
 125:..\Slider.cydsn/util.c **** //================================================== get_timer_interrrupt_count
 126:..\Slider.cydsn/util.c **** //=============================================================================
 127:..\Slider.cydsn/util.c **** uint_fast64_t get_timer_interrrupt_count()
 128:..\Slider.cydsn/util.c **** {
 281              		.loc 1 128 0
 282              		.cfi_startproc
 129:..\Slider.cydsn/util.c ****     return timer_interrrupt_count;
 283              		.loc 1 129 0
 284 0000 014B     		ldr	r3, .L26
 285 0002 9869     		ldr	r0, [r3, #24]
 286 0004 D969     		ldr	r1, [r3, #28]
 130:..\Slider.cydsn/util.c **** }// get_timer_interrrupt_count
 287              		.loc 1 130 0
 288              		@ sp needed
 289 0006 7047     		bx	lr
 290              	.L27:
 291              		.align	2
 292              	.L26:
 293 0008 00000000 		.word	.LANCHOR0
 294              		.cfi_endproc
 295              	.LFE41:
 296              		.size	get_timer_interrrupt_count, .-get_timer_interrrupt_count
 297              		.section	.text.set_timer_interrrupt_count,"ax",%progbits
 298              		.align	2
 299              		.global	set_timer_interrrupt_count
 300              		.code	16
 301              		.thumb_func
 302              		.type	set_timer_interrrupt_count, %function
 303              	set_timer_interrrupt_count:
 304              	.LFB42:
 131:..\Slider.cydsn/util.c **** 
 132:..\Slider.cydsn/util.c **** //=============================================================================
 133:..\Slider.cydsn/util.c **** //================================================== set_timer_interrrupt_count
 134:..\Slider.cydsn/util.c **** //=============================================================================
 135:..\Slider.cydsn/util.c **** void set_timer_interrrupt_count(uint_fast64_t the_timer_interrrupt_count)
 136:..\Slider.cydsn/util.c **** {
 305              		.loc 1 136 0
 306              		.cfi_startproc
 307              	.LVL31:
 137:..\Slider.cydsn/util.c ****     timer_interrrupt_count = the_timer_interrrupt_count;
 308              		.loc 1 137 0
 309 0000 014B     		ldr	r3, .L29
 310 0002 9861     		str	r0, [r3, #24]
 311 0004 D961     		str	r1, [r3, #28]
 138:..\Slider.cydsn/util.c **** }// set_timer_interrrupt_count
 312              		.loc 1 138 0
 313              		@ sp needed
 314 0006 7047     		bx	lr
ARM GAS  C:\Users\MM1005~1\AppData\Local\Temp\ccegshiY.s 			page 9


 315              	.L30:
 316              		.align	2
 317              	.L29:
 318 0008 00000000 		.word	.LANCHOR0
 319              		.cfi_endproc
 320              	.LFE42:
 321              		.size	set_timer_interrrupt_count, .-set_timer_interrrupt_count
 322              		.section	.text.get_software_version,"ax",%progbits
 323              		.align	2
 324              		.global	get_software_version
 325              		.code	16
 326              		.thumb_func
 327              		.type	get_software_version, %function
 328              	get_software_version:
 329              	.LFB43:
 139:..\Slider.cydsn/util.c **** 
 140:..\Slider.cydsn/util.c **** //=============================================================================
 141:..\Slider.cydsn/util.c **** //======================================================== get_software_version
 142:..\Slider.cydsn/util.c **** //=============================================================================
 143:..\Slider.cydsn/util.c **** const char* get_software_version()
 144:..\Slider.cydsn/util.c **** {
 330              		.loc 1 144 0
 331              		.cfi_startproc
 145:..\Slider.cydsn/util.c ****     return software_version;    
 146:..\Slider.cydsn/util.c **** }// get_software_version
 332              		.loc 1 146 0
 333 0000 0048     		ldr	r0, .L32
 334              		@ sp needed
 335 0002 7047     		bx	lr
 336              	.L33:
 337              		.align	2
 338              	.L32:
 339 0004 00000000 		.word	.LC5
 340              		.cfi_endproc
 341              	.LFE43:
 342              		.size	get_software_version, .-get_software_version
 343              		.data
 344              		.set	.LANCHOR1,. + 0
 345              		.type	is_tracker_enable, %object
 346              		.size	is_tracker_enable, 1
 347              	is_tracker_enable:
 348 0000 01       		.byte	1
 349              		.section	.rodata.str1.4,"aMS",%progbits,1
 350              		.align	2
 351              	.LC5:
 352 0000 302E3037 		.ascii	"0.07\000"
 352      00
 353 0005 000000   		.bss
 354              		.align	3
 355              		.set	.LANCHOR0,. + 0
 356              		.type	buf.5937, %object
 357              		.size	buf.5937, 22
 358              	buf.5937:
 359 0000 00000000 		.space	22
 359      00000000 
 359      00000000 
 359      00000000 
ARM GAS  C:\Users\MM1005~1\AppData\Local\Temp\ccegshiY.s 			page 10


 359      00000000 
 360 0016 0000     		.space	2
 361              		.type	timer_interrrupt_count, %object
 362              		.size	timer_interrrupt_count, 8
 363              	timer_interrrupt_count:
 364 0018 00000000 		.space	8
 364      00000000 
 365              		.text
 366              	.Letext0:
 367              		.file 2 "c:\\program files (x86)\\cypress\\psoc creator\\4.0\\psoc creator\\import\\gnu\\arm\\4.9.
 368              		.file 3 "Generated_Source\\PSoC4/cytypes.h"