ARM GAS  C:\Users\MM1005~1\AppData\Local\Temp\ccdEWA4e.s 			page 1


   1              		.cpu cortex-m0plus
   2              		.fpu softvfp
   3              		.eabi_attribute 20, 1
   4              		.eabi_attribute 21, 1
   5              		.eabi_attribute 23, 3
   6              		.eabi_attribute 24, 1
   7              		.eabi_attribute 25, 1
   8              		.eabi_attribute 26, 1
   9              		.eabi_attribute 30, 1
  10              		.eabi_attribute 34, 0
  11              		.eabi_attribute 18, 4
  12              		.code	16
  13              		.file	"I2CS_I2C_BOOT.c"
  14              		.text
  15              	.Ltext0:
  16              		.cfi_sections	.debug_frame
  17              		.section	.text.I2CS_I2CResposeInsert,"ax",%progbits
  18              		.align	2
  19              		.code	16
  20              		.thumb_func
  21              		.type	I2CS_I2CResposeInsert, %function
  22              	I2CS_I2CResposeInsert:
  23              	.LFB6:
  24              		.file 1 "Generated_Source\\PSoC4\\I2CS_I2C_BOOT.c"
   1:Generated_Source\PSoC4/I2CS_I2C_BOOT.c **** /***************************************************************************//**
   2:Generated_Source\PSoC4/I2CS_I2C_BOOT.c **** * \file I2CS_I2C_BOOT.c
   3:Generated_Source\PSoC4/I2CS_I2C_BOOT.c **** * \version 3.20
   4:Generated_Source\PSoC4/I2CS_I2C_BOOT.c **** *
   5:Generated_Source\PSoC4/I2CS_I2C_BOOT.c **** * \brief
   6:Generated_Source\PSoC4/I2CS_I2C_BOOT.c **** *  This file provides the source code of the bootloader communication APIs
   7:Generated_Source\PSoC4/I2CS_I2C_BOOT.c **** *  for the SCB Component I2C mode.
   8:Generated_Source\PSoC4/I2CS_I2C_BOOT.c **** *
   9:Generated_Source\PSoC4/I2CS_I2C_BOOT.c **** * Note:
  10:Generated_Source\PSoC4/I2CS_I2C_BOOT.c **** *
  11:Generated_Source\PSoC4/I2CS_I2C_BOOT.c **** ********************************************************************************
  12:Generated_Source\PSoC4/I2CS_I2C_BOOT.c **** * \copyright
  13:Generated_Source\PSoC4/I2CS_I2C_BOOT.c **** * Copyright 2013-2016, Cypress Semiconductor Corporation.  All rights reserved.
  14:Generated_Source\PSoC4/I2CS_I2C_BOOT.c **** * You may use this file only in accordance with the license, terms, conditions,
  15:Generated_Source\PSoC4/I2CS_I2C_BOOT.c **** * disclaimers, and limitations in the end user license agreement accompanying
  16:Generated_Source\PSoC4/I2CS_I2C_BOOT.c **** * the software package with which this file was provided.
  17:Generated_Source\PSoC4/I2CS_I2C_BOOT.c **** *******************************************************************************/
  18:Generated_Source\PSoC4/I2CS_I2C_BOOT.c **** 
  19:Generated_Source\PSoC4/I2CS_I2C_BOOT.c **** #include "I2CS_BOOT.h"
  20:Generated_Source\PSoC4/I2CS_I2C_BOOT.c **** #include "I2CS_I2C_PVT.h"
  21:Generated_Source\PSoC4/I2CS_I2C_BOOT.c **** 
  22:Generated_Source\PSoC4/I2CS_I2C_BOOT.c **** #if defined(CYDEV_BOOTLOADER_IO_COMP) && (I2CS_I2C_BTLDR_COMM_ENABLED)
  23:Generated_Source\PSoC4/I2CS_I2C_BOOT.c **** 
  24:Generated_Source\PSoC4/I2CS_I2C_BOOT.c **** /***************************************
  25:Generated_Source\PSoC4/I2CS_I2C_BOOT.c **** *    Private I/O Component Vars
  26:Generated_Source\PSoC4/I2CS_I2C_BOOT.c **** ***************************************/
  27:Generated_Source\PSoC4/I2CS_I2C_BOOT.c **** 
  28:Generated_Source\PSoC4/I2CS_I2C_BOOT.c **** /* Writes to this buffer */
  29:Generated_Source\PSoC4/I2CS_I2C_BOOT.c **** static uint8 I2CS_slReadBuf[I2CS_I2C_BTLDR_SIZEOF_READ_BUFFER];
  30:Generated_Source\PSoC4/I2CS_I2C_BOOT.c **** 
  31:Generated_Source\PSoC4/I2CS_I2C_BOOT.c **** /* Reads from this buffer */
  32:Generated_Source\PSoC4/I2CS_I2C_BOOT.c **** static uint8 I2CS_slWriteBuf[I2CS_I2C_BTLDR_SIZEOF_WRITE_BUFFER];
  33:Generated_Source\PSoC4/I2CS_I2C_BOOT.c **** 
ARM GAS  C:\Users\MM1005~1\AppData\Local\Temp\ccdEWA4e.s 			page 2


  34:Generated_Source\PSoC4/I2CS_I2C_BOOT.c **** /* Flag to release buffer to be read */
  35:Generated_Source\PSoC4/I2CS_I2C_BOOT.c **** static uint32 I2CS_applyBuffer;
  36:Generated_Source\PSoC4/I2CS_I2C_BOOT.c **** 
  37:Generated_Source\PSoC4/I2CS_I2C_BOOT.c **** 
  38:Generated_Source\PSoC4/I2CS_I2C_BOOT.c **** /***************************************
  39:Generated_Source\PSoC4/I2CS_I2C_BOOT.c **** *    Private Function Prototypes
  40:Generated_Source\PSoC4/I2CS_I2C_BOOT.c **** ***************************************/
  41:Generated_Source\PSoC4/I2CS_I2C_BOOT.c **** 
  42:Generated_Source\PSoC4/I2CS_I2C_BOOT.c **** static void I2CS_I2CResposeInsert(void);
  43:Generated_Source\PSoC4/I2CS_I2C_BOOT.c **** 
  44:Generated_Source\PSoC4/I2CS_I2C_BOOT.c **** 
  45:Generated_Source\PSoC4/I2CS_I2C_BOOT.c **** /*******************************************************************************
  46:Generated_Source\PSoC4/I2CS_I2C_BOOT.c **** * Function Name: I2CS_I2CCyBtldrCommStart
  47:Generated_Source\PSoC4/I2CS_I2C_BOOT.c **** ****************************************************************************//**
  48:Generated_Source\PSoC4/I2CS_I2C_BOOT.c **** *
  49:Generated_Source\PSoC4/I2CS_I2C_BOOT.c **** *  Starts the I2C component and enables its interrupt.
  50:Generated_Source\PSoC4/I2CS_I2C_BOOT.c **** *  Every incoming I2C write transaction is treated as a command for the
  51:Generated_Source\PSoC4/I2CS_I2C_BOOT.c **** *  bootloader.
  52:Generated_Source\PSoC4/I2CS_I2C_BOOT.c **** *  Every incoming I2C read transaction returns 0xFF until the bootloader
  53:Generated_Source\PSoC4/I2CS_I2C_BOOT.c **** *  provides a response to the executed command.
  54:Generated_Source\PSoC4/I2CS_I2C_BOOT.c **** *
  55:Generated_Source\PSoC4/I2CS_I2C_BOOT.c **** * \globalvars
  56:Generated_Source\PSoC4/I2CS_I2C_BOOT.c **** *  I2CS_applyBuffer - the flag to release the buffer with a response
  57:Generated_Source\PSoC4/I2CS_I2C_BOOT.c **** *  to be read by the host.
  58:Generated_Source\PSoC4/I2CS_I2C_BOOT.c **** *
  59:Generated_Source\PSoC4/I2CS_I2C_BOOT.c **** *******************************************************************************/
  60:Generated_Source\PSoC4/I2CS_I2C_BOOT.c **** void I2CS_I2CCyBtldrCommStart(void)
  61:Generated_Source\PSoC4/I2CS_I2C_BOOT.c **** {
  62:Generated_Source\PSoC4/I2CS_I2C_BOOT.c ****     I2CS_I2CSlaveInitWriteBuf(I2CS_slWriteBuf, I2CS_I2C_BTLDR_SIZEOF_WRITE_BUFFER);
  63:Generated_Source\PSoC4/I2CS_I2C_BOOT.c ****     I2CS_I2CSlaveInitReadBuf (I2CS_slReadBuf, 0u);
  64:Generated_Source\PSoC4/I2CS_I2C_BOOT.c **** 
  65:Generated_Source\PSoC4/I2CS_I2C_BOOT.c ****     I2CS_SetCustomInterruptHandler(&I2CS_I2CResposeInsert);
  66:Generated_Source\PSoC4/I2CS_I2C_BOOT.c ****     I2CS_applyBuffer = 0u;
  67:Generated_Source\PSoC4/I2CS_I2C_BOOT.c **** 
  68:Generated_Source\PSoC4/I2CS_I2C_BOOT.c ****     I2CS_Start();
  69:Generated_Source\PSoC4/I2CS_I2C_BOOT.c **** }
  70:Generated_Source\PSoC4/I2CS_I2C_BOOT.c **** 
  71:Generated_Source\PSoC4/I2CS_I2C_BOOT.c **** 
  72:Generated_Source\PSoC4/I2CS_I2C_BOOT.c **** /*******************************************************************************
  73:Generated_Source\PSoC4/I2CS_I2C_BOOT.c **** * Function Name: I2CS_I2CCyBtldrCommStop
  74:Generated_Source\PSoC4/I2CS_I2C_BOOT.c **** ****************************************************************************//**
  75:Generated_Source\PSoC4/I2CS_I2C_BOOT.c **** *
  76:Generated_Source\PSoC4/I2CS_I2C_BOOT.c **** *  Disables the I2C component.
  77:Generated_Source\PSoC4/I2CS_I2C_BOOT.c **** *
  78:Generated_Source\PSoC4/I2CS_I2C_BOOT.c **** *******************************************************************************/
  79:Generated_Source\PSoC4/I2CS_I2C_BOOT.c **** void I2CS_I2CCyBtldrCommStop(void)
  80:Generated_Source\PSoC4/I2CS_I2C_BOOT.c **** {
  81:Generated_Source\PSoC4/I2CS_I2C_BOOT.c ****     I2CS_Stop();
  82:Generated_Source\PSoC4/I2CS_I2C_BOOT.c **** }
  83:Generated_Source\PSoC4/I2CS_I2C_BOOT.c **** 
  84:Generated_Source\PSoC4/I2CS_I2C_BOOT.c **** 
  85:Generated_Source\PSoC4/I2CS_I2C_BOOT.c **** /*******************************************************************************
  86:Generated_Source\PSoC4/I2CS_I2C_BOOT.c **** * Function Name: I2CS_I2CCyBtldrCommReset
  87:Generated_Source\PSoC4/I2CS_I2C_BOOT.c **** ****************************************************************************//**
  88:Generated_Source\PSoC4/I2CS_I2C_BOOT.c **** *
  89:Generated_Source\PSoC4/I2CS_I2C_BOOT.c **** *  Resets read and write I2C buffers to the initial state and resets the slave
  90:Generated_Source\PSoC4/I2CS_I2C_BOOT.c **** *  status.
ARM GAS  C:\Users\MM1005~1\AppData\Local\Temp\ccdEWA4e.s 			page 3


  91:Generated_Source\PSoC4/I2CS_I2C_BOOT.c **** *
  92:Generated_Source\PSoC4/I2CS_I2C_BOOT.c **** * \globalvars
  93:Generated_Source\PSoC4/I2CS_I2C_BOOT.c **** *  I2CS_slRdBufSize - used to store slave read buffer size.
  94:Generated_Source\PSoC4/I2CS_I2C_BOOT.c **** *  I2CS_slRdBufIndex - used to store the current index within the
  95:Generated_Source\PSoC4/I2CS_I2C_BOOT.c **** *  slave read buffer.
  96:Generated_Source\PSoC4/I2CS_I2C_BOOT.c **** *  I2CS_slWrBufIndex - used to store current index within slave
  97:Generated_Source\PSoC4/I2CS_I2C_BOOT.c **** *  write buffer.
  98:Generated_Source\PSoC4/I2CS_I2C_BOOT.c **** *  I2CS_slStatus  - used to store current status of I2C slave.
  99:Generated_Source\PSoC4/I2CS_I2C_BOOT.c **** *
 100:Generated_Source\PSoC4/I2CS_I2C_BOOT.c **** *******************************************************************************/
 101:Generated_Source\PSoC4/I2CS_I2C_BOOT.c **** void I2CS_I2CCyBtldrCommReset(void)
 102:Generated_Source\PSoC4/I2CS_I2C_BOOT.c **** {
 103:Generated_Source\PSoC4/I2CS_I2C_BOOT.c ****     /* Make read buffer full */
 104:Generated_Source\PSoC4/I2CS_I2C_BOOT.c ****     I2CS_slRdBufSize = 0u;
 105:Generated_Source\PSoC4/I2CS_I2C_BOOT.c **** 
 106:Generated_Source\PSoC4/I2CS_I2C_BOOT.c ****     /* Reset write buffer and Read buffer */
 107:Generated_Source\PSoC4/I2CS_I2C_BOOT.c ****     I2CS_slRdBufIndex = 0u;
 108:Generated_Source\PSoC4/I2CS_I2C_BOOT.c ****     I2CS_slWrBufIndex = 0u;
 109:Generated_Source\PSoC4/I2CS_I2C_BOOT.c **** 
 110:Generated_Source\PSoC4/I2CS_I2C_BOOT.c ****     /* Clear read and write status */
 111:Generated_Source\PSoC4/I2CS_I2C_BOOT.c ****     I2CS_slStatus = 0u;
 112:Generated_Source\PSoC4/I2CS_I2C_BOOT.c **** }
 113:Generated_Source\PSoC4/I2CS_I2C_BOOT.c **** 
 114:Generated_Source\PSoC4/I2CS_I2C_BOOT.c **** 
 115:Generated_Source\PSoC4/I2CS_I2C_BOOT.c **** /*******************************************************************************
 116:Generated_Source\PSoC4/I2CS_I2C_BOOT.c **** * Function Name: I2CS_I2CCyBtldrCommRead
 117:Generated_Source\PSoC4/I2CS_I2C_BOOT.c **** ****************************************************************************//**
 118:Generated_Source\PSoC4/I2CS_I2C_BOOT.c **** *
 119:Generated_Source\PSoC4/I2CS_I2C_BOOT.c **** *  Allows the caller to read data from the bootloader host (the host writes the
 120:Generated_Source\PSoC4/I2CS_I2C_BOOT.c **** *  data). The function handles polling to allow a block of data to be completely
 121:Generated_Source\PSoC4/I2CS_I2C_BOOT.c **** *  received from the host device.
 122:Generated_Source\PSoC4/I2CS_I2C_BOOT.c **** *
 123:Generated_Source\PSoC4/I2CS_I2C_BOOT.c **** *  \param pData: Pointer to storage for the block of data to be read from the
 124:Generated_Source\PSoC4/I2CS_I2C_BOOT.c **** *   bootloader host
 125:Generated_Source\PSoC4/I2CS_I2C_BOOT.c **** *  \param size: Number of bytes to be read.
 126:Generated_Source\PSoC4/I2CS_I2C_BOOT.c **** *  \param count: Pointer to the variable to write the number of bytes actually
 127:Generated_Source\PSoC4/I2CS_I2C_BOOT.c **** *   read.
 128:Generated_Source\PSoC4/I2CS_I2C_BOOT.c **** *  \param timeOut: Number of units in 10 ms to wait before returning
 129:Generated_Source\PSoC4/I2CS_I2C_BOOT.c **** *   because of a timeout.
 130:Generated_Source\PSoC4/I2CS_I2C_BOOT.c **** *
 131:Generated_Source\PSoC4/I2CS_I2C_BOOT.c **** *  \return
 132:Generated_Source\PSoC4/I2CS_I2C_BOOT.c **** *   Returns CYRET_SUCCESS if no problem was encountered or returns the value
 133:Generated_Source\PSoC4/I2CS_I2C_BOOT.c **** *   that best describes the problem. For more information refer to the
 134:Generated_Source\PSoC4/I2CS_I2C_BOOT.c **** *   "Return Codes" section of the System Reference Guide.
 135:Generated_Source\PSoC4/I2CS_I2C_BOOT.c **** *
 136:Generated_Source\PSoC4/I2CS_I2C_BOOT.c **** * \globalvars
 137:Generated_Source\PSoC4/I2CS_I2C_BOOT.c **** *  I2CS_slStatus  - used to store current status of I2C slave.
 138:Generated_Source\PSoC4/I2CS_I2C_BOOT.c **** *  I2CS_slWriteBuf - used to store received command.
 139:Generated_Source\PSoC4/I2CS_I2C_BOOT.c **** *  I2CS_slWrBufIndex - used to store current index within slave
 140:Generated_Source\PSoC4/I2CS_I2C_BOOT.c **** *  write buffer.
 141:Generated_Source\PSoC4/I2CS_I2C_BOOT.c **** *
 142:Generated_Source\PSoC4/I2CS_I2C_BOOT.c **** *******************************************************************************/
 143:Generated_Source\PSoC4/I2CS_I2C_BOOT.c **** cystatus I2CS_I2CCyBtldrCommRead(uint8 pData[], uint16 size, uint16 * count, uint8 timeOut)
 144:Generated_Source\PSoC4/I2CS_I2C_BOOT.c **** {
 145:Generated_Source\PSoC4/I2CS_I2C_BOOT.c ****     cystatus status;
 146:Generated_Source\PSoC4/I2CS_I2C_BOOT.c ****     uint32 timeoutMs;
 147:Generated_Source\PSoC4/I2CS_I2C_BOOT.c **** 
ARM GAS  C:\Users\MM1005~1\AppData\Local\Temp\ccdEWA4e.s 			page 4


 148:Generated_Source\PSoC4/I2CS_I2C_BOOT.c ****     status = CYRET_BAD_PARAM;
 149:Generated_Source\PSoC4/I2CS_I2C_BOOT.c **** 
 150:Generated_Source\PSoC4/I2CS_I2C_BOOT.c ****     if ((NULL != pData) && (size > 0u))
 151:Generated_Source\PSoC4/I2CS_I2C_BOOT.c ****     {
 152:Generated_Source\PSoC4/I2CS_I2C_BOOT.c ****         status = CYRET_TIMEOUT;
 153:Generated_Source\PSoC4/I2CS_I2C_BOOT.c ****         timeoutMs = ((uint32) 10u * timeOut); /* Convert from 10mS check to 1mS checks */
 154:Generated_Source\PSoC4/I2CS_I2C_BOOT.c **** 
 155:Generated_Source\PSoC4/I2CS_I2C_BOOT.c ****         while (0u != timeoutMs)
 156:Generated_Source\PSoC4/I2CS_I2C_BOOT.c ****         {
 157:Generated_Source\PSoC4/I2CS_I2C_BOOT.c ****             /* Check if host complete write */
 158:Generated_Source\PSoC4/I2CS_I2C_BOOT.c ****             if (0u != (I2CS_I2C_SSTAT_WR_CMPLT & I2CS_slStatus))
 159:Generated_Source\PSoC4/I2CS_I2C_BOOT.c ****             {
 160:Generated_Source\PSoC4/I2CS_I2C_BOOT.c ****                 /* Copy number of written bytes */
 161:Generated_Source\PSoC4/I2CS_I2C_BOOT.c ****                 *count = (uint16) I2CS_slWrBufIndex;
 162:Generated_Source\PSoC4/I2CS_I2C_BOOT.c **** 
 163:Generated_Source\PSoC4/I2CS_I2C_BOOT.c ****                 /* Clear slave status and write index */
 164:Generated_Source\PSoC4/I2CS_I2C_BOOT.c ****                 I2CS_slStatus = 0u;
 165:Generated_Source\PSoC4/I2CS_I2C_BOOT.c ****                 I2CS_slWrBufIndex = 0u;
 166:Generated_Source\PSoC4/I2CS_I2C_BOOT.c **** 
 167:Generated_Source\PSoC4/I2CS_I2C_BOOT.c ****                 /* Copy command into bootloader buffer */
 168:Generated_Source\PSoC4/I2CS_I2C_BOOT.c ****                 (void) memcpy((void *) pData, (const void *) I2CS_slWriteBuf,
 169:Generated_Source\PSoC4/I2CS_I2C_BOOT.c ****                                               I2CS_BYTES_TO_COPY(*count, size));
 170:Generated_Source\PSoC4/I2CS_I2C_BOOT.c **** 
 171:Generated_Source\PSoC4/I2CS_I2C_BOOT.c ****                 status = CYRET_SUCCESS;
 172:Generated_Source\PSoC4/I2CS_I2C_BOOT.c ****                 break;
 173:Generated_Source\PSoC4/I2CS_I2C_BOOT.c ****             }
 174:Generated_Source\PSoC4/I2CS_I2C_BOOT.c **** 
 175:Generated_Source\PSoC4/I2CS_I2C_BOOT.c ****             CyDelay(I2CS_WAIT_1_MS);
 176:Generated_Source\PSoC4/I2CS_I2C_BOOT.c ****             --timeoutMs;
 177:Generated_Source\PSoC4/I2CS_I2C_BOOT.c ****         }
 178:Generated_Source\PSoC4/I2CS_I2C_BOOT.c ****     }
 179:Generated_Source\PSoC4/I2CS_I2C_BOOT.c **** 
 180:Generated_Source\PSoC4/I2CS_I2C_BOOT.c ****     return(status);
 181:Generated_Source\PSoC4/I2CS_I2C_BOOT.c **** }
 182:Generated_Source\PSoC4/I2CS_I2C_BOOT.c **** 
 183:Generated_Source\PSoC4/I2CS_I2C_BOOT.c **** 
 184:Generated_Source\PSoC4/I2CS_I2C_BOOT.c **** /*******************************************************************************
 185:Generated_Source\PSoC4/I2CS_I2C_BOOT.c **** * Function Name: I2CS_I2CCyBtldrCommWrite
 186:Generated_Source\PSoC4/I2CS_I2C_BOOT.c **** ****************************************************************************//**
 187:Generated_Source\PSoC4/I2CS_I2C_BOOT.c **** *
 188:Generated_Source\PSoC4/I2CS_I2C_BOOT.c **** *  Allows the caller to write data to the bootloader host (the host reads the
 189:Generated_Source\PSoC4/I2CS_I2C_BOOT.c **** *  data). The function does not use timeout and returns after data has been
 190:Generated_Source\PSoC4/I2CS_I2C_BOOT.c **** *  copied into the slave read buffer. This data is available to be read by the
 191:Generated_Source\PSoC4/I2CS_I2C_BOOT.c **** *  bootloader host until following host data write.
 192:Generated_Source\PSoC4/I2CS_I2C_BOOT.c **** *
 193:Generated_Source\PSoC4/I2CS_I2C_BOOT.c **** *  \param pData: Pointer to the block of data to be written to the bootloader
 194:Generated_Source\PSoC4/I2CS_I2C_BOOT.c **** *   host.
 195:Generated_Source\PSoC4/I2CS_I2C_BOOT.c **** *  \param size: Number of bytes to be written.
 196:Generated_Source\PSoC4/I2CS_I2C_BOOT.c **** *  \param count: Pointer to the variable to write the number of bytes actually
 197:Generated_Source\PSoC4/I2CS_I2C_BOOT.c **** *   written.
 198:Generated_Source\PSoC4/I2CS_I2C_BOOT.c **** *  \param timeOut: Number of units in 10 ms to wait before returning
 199:Generated_Source\PSoC4/I2CS_I2C_BOOT.c **** *   because of a timeout.
 200:Generated_Source\PSoC4/I2CS_I2C_BOOT.c **** *
 201:Generated_Source\PSoC4/I2CS_I2C_BOOT.c **** *  \return
 202:Generated_Source\PSoC4/I2CS_I2C_BOOT.c **** *   Returns CYRET_SUCCESS if no problem was encountered or returns the value
 203:Generated_Source\PSoC4/I2CS_I2C_BOOT.c **** *   that best describes the problem. For more information refer to the
 204:Generated_Source\PSoC4/I2CS_I2C_BOOT.c **** *   "Return Codes" section of the System Reference Guide.
ARM GAS  C:\Users\MM1005~1\AppData\Local\Temp\ccdEWA4e.s 			page 5


 205:Generated_Source\PSoC4/I2CS_I2C_BOOT.c **** *
 206:Generated_Source\PSoC4/I2CS_I2C_BOOT.c **** * \globalvars
 207:Generated_Source\PSoC4/I2CS_I2C_BOOT.c **** *  I2CS_applyBuffer - the flag to release the buffer with
 208:Generated_Source\PSoC4/I2CS_I2C_BOOT.c **** *  to be read by the host.
 209:Generated_Source\PSoC4/I2CS_I2C_BOOT.c **** *
 210:Generated_Source\PSoC4/I2CS_I2C_BOOT.c **** *******************************************************************************/
 211:Generated_Source\PSoC4/I2CS_I2C_BOOT.c **** cystatus I2CS_I2CCyBtldrCommWrite(const uint8 pData[], uint16 size, uint16 * count, uint8 timeOut)
 212:Generated_Source\PSoC4/I2CS_I2C_BOOT.c **** {
 213:Generated_Source\PSoC4/I2CS_I2C_BOOT.c ****     cystatus status;
 214:Generated_Source\PSoC4/I2CS_I2C_BOOT.c **** 
 215:Generated_Source\PSoC4/I2CS_I2C_BOOT.c ****     status = CYRET_BAD_PARAM;
 216:Generated_Source\PSoC4/I2CS_I2C_BOOT.c **** 
 217:Generated_Source\PSoC4/I2CS_I2C_BOOT.c ****     if ((NULL != pData) && (size > 0u))
 218:Generated_Source\PSoC4/I2CS_I2C_BOOT.c ****     {
 219:Generated_Source\PSoC4/I2CS_I2C_BOOT.c ****         /* Copy response into read buffer */
 220:Generated_Source\PSoC4/I2CS_I2C_BOOT.c ****         *count = size;
 221:Generated_Source\PSoC4/I2CS_I2C_BOOT.c ****         (void) memcpy((void *) I2CS_slReadBuf, (const void *) pData, (uint32) size);
 222:Generated_Source\PSoC4/I2CS_I2C_BOOT.c **** 
 223:Generated_Source\PSoC4/I2CS_I2C_BOOT.c ****         /* Read buffer is ready to be released to host */
 224:Generated_Source\PSoC4/I2CS_I2C_BOOT.c ****         I2CS_applyBuffer = (uint32) size;
 225:Generated_Source\PSoC4/I2CS_I2C_BOOT.c **** 
 226:Generated_Source\PSoC4/I2CS_I2C_BOOT.c ****         if (0u != timeOut)
 227:Generated_Source\PSoC4/I2CS_I2C_BOOT.c ****         {
 228:Generated_Source\PSoC4/I2CS_I2C_BOOT.c ****             /* Suppress compiler warning */
 229:Generated_Source\PSoC4/I2CS_I2C_BOOT.c ****         }
 230:Generated_Source\PSoC4/I2CS_I2C_BOOT.c **** 
 231:Generated_Source\PSoC4/I2CS_I2C_BOOT.c ****         status = CYRET_SUCCESS;
 232:Generated_Source\PSoC4/I2CS_I2C_BOOT.c ****     }
 233:Generated_Source\PSoC4/I2CS_I2C_BOOT.c **** 
 234:Generated_Source\PSoC4/I2CS_I2C_BOOT.c ****     return(status);
 235:Generated_Source\PSoC4/I2CS_I2C_BOOT.c **** }
 236:Generated_Source\PSoC4/I2CS_I2C_BOOT.c **** 
 237:Generated_Source\PSoC4/I2CS_I2C_BOOT.c **** 
 238:Generated_Source\PSoC4/I2CS_I2C_BOOT.c **** /*******************************************************************************
 239:Generated_Source\PSoC4/I2CS_I2C_BOOT.c **** * Function Name: I2CS_I2CResposeInsert
 240:Generated_Source\PSoC4/I2CS_I2C_BOOT.c **** ****************************************************************************//**
 241:Generated_Source\PSoC4/I2CS_I2C_BOOT.c **** *
 242:Generated_Source\PSoC4/I2CS_I2C_BOOT.c **** *  Releases the read buffer to be read when a response is copied to the buffer
 243:Generated_Source\PSoC4/I2CS_I2C_BOOT.c **** *  and a new read transaction starts.
 244:Generated_Source\PSoC4/I2CS_I2C_BOOT.c **** *  Closes the read buffer when write transaction is started.
 245:Generated_Source\PSoC4/I2CS_I2C_BOOT.c **** *
 246:Generated_Source\PSoC4/I2CS_I2C_BOOT.c **** * \globalvars
 247:Generated_Source\PSoC4/I2CS_I2C_BOOT.c **** *  I2CS_applyBuffer - the flag to release the buffer with a response
 248:Generated_Source\PSoC4/I2CS_I2C_BOOT.c **** *  to be read by the host.
 249:Generated_Source\PSoC4/I2CS_I2C_BOOT.c **** *
 250:Generated_Source\PSoC4/I2CS_I2C_BOOT.c **** *******************************************************************************/
 251:Generated_Source\PSoC4/I2CS_I2C_BOOT.c **** static void I2CS_I2CResposeInsert(void)
 252:Generated_Source\PSoC4/I2CS_I2C_BOOT.c **** {
  25              		.loc 1 252 0
  26              		.cfi_startproc
 253:Generated_Source\PSoC4/I2CS_I2C_BOOT.c ****     if (I2CS_CHECK_INTR_SLAVE_MASKED(I2CS_INTR_SLAVE_I2C_ADDR_MATCH))
  27              		.loc 1 253 0
  28 0000 0F4B     		ldr	r3, .L4
  29 0002 1B68     		ldr	r3, [r3]
  30 0004 5B06     		lsl	r3, r3, #25
  31 0006 19D5     		bpl	.L1
 254:Generated_Source\PSoC4/I2CS_I2C_BOOT.c ****     {
ARM GAS  C:\Users\MM1005~1\AppData\Local\Temp\ccdEWA4e.s 			page 6


 255:Generated_Source\PSoC4/I2CS_I2C_BOOT.c ****         if (I2CS_CHECK_I2C_STATUS(I2CS_I2C_STATUS_S_READ))
  32              		.loc 1 255 0
  33 0008 0E4B     		ldr	r3, .L4+4
  34 000a 1B68     		ldr	r3, [r3]
  35 000c DB06     		lsl	r3, r3, #27
  36 000e 0BD5     		bpl	.L3
 256:Generated_Source\PSoC4/I2CS_I2C_BOOT.c ****         {
 257:Generated_Source\PSoC4/I2CS_I2C_BOOT.c ****             /* Address phase, host reads: release read buffer */
 258:Generated_Source\PSoC4/I2CS_I2C_BOOT.c ****             if (0u != I2CS_applyBuffer)
  37              		.loc 1 258 0
  38 0010 0D4B     		ldr	r3, .L4+8
  39 0012 1B68     		ldr	r3, [r3]
  40 0014 002B     		cmp	r3, #0
  41 0016 11D0     		beq	.L1
 259:Generated_Source\PSoC4/I2CS_I2C_BOOT.c ****             {
 260:Generated_Source\PSoC4/I2CS_I2C_BOOT.c ****                 I2CS_slRdBufSize  = I2CS_applyBuffer;
  42              		.loc 1 260 0
  43 0018 0C4A     		ldr	r2, .L4+12
  44 001a 1360     		str	r3, [r2]
 261:Generated_Source\PSoC4/I2CS_I2C_BOOT.c ****                 I2CS_slRdBufIndex = 0u;
  45              		.loc 1 261 0
  46 001c 0023     		mov	r3, #0
  47 001e 0C4A     		ldr	r2, .L4+16
  48 0020 1360     		str	r3, [r2]
 262:Generated_Source\PSoC4/I2CS_I2C_BOOT.c ****                 I2CS_applyBuffer  = 0u;
  49              		.loc 1 262 0
  50 0022 094A     		ldr	r2, .L4+8
  51 0024 1360     		str	r3, [r2]
  52 0026 09E0     		b	.L1
  53              	.L3:
 263:Generated_Source\PSoC4/I2CS_I2C_BOOT.c ****             }
 264:Generated_Source\PSoC4/I2CS_I2C_BOOT.c ****         }
 265:Generated_Source\PSoC4/I2CS_I2C_BOOT.c ****         else
 266:Generated_Source\PSoC4/I2CS_I2C_BOOT.c ****         {
 267:Generated_Source\PSoC4/I2CS_I2C_BOOT.c ****             /* Address phase, host writes: close read buffer */
 268:Generated_Source\PSoC4/I2CS_I2C_BOOT.c ****             if (I2CS_slRdBufIndex != I2CS_slRdBufSize)
  54              		.loc 1 268 0
  55 0028 094B     		ldr	r3, .L4+16
  56 002a 1A68     		ldr	r2, [r3]
  57 002c 074B     		ldr	r3, .L4+12
  58 002e 1B68     		ldr	r3, [r3]
  59 0030 9A42     		cmp	r2, r3
  60 0032 03D0     		beq	.L1
 269:Generated_Source\PSoC4/I2CS_I2C_BOOT.c ****             {
 270:Generated_Source\PSoC4/I2CS_I2C_BOOT.c ****                 I2CS_slRdBufIndex = I2CS_slRdBufSize;
  61              		.loc 1 270 0
  62 0034 054B     		ldr	r3, .L4+12
  63 0036 1A68     		ldr	r2, [r3]
  64 0038 054B     		ldr	r3, .L4+16
  65 003a 1A60     		str	r2, [r3]
  66              	.L1:
 271:Generated_Source\PSoC4/I2CS_I2C_BOOT.c ****             }
 272:Generated_Source\PSoC4/I2CS_I2C_BOOT.c ****         }
 273:Generated_Source\PSoC4/I2CS_I2C_BOOT.c ****     }
 274:Generated_Source\PSoC4/I2CS_I2C_BOOT.c **** }
  67              		.loc 1 274 0
  68              		@ sp needed
ARM GAS  C:\Users\MM1005~1\AppData\Local\Temp\ccdEWA4e.s 			page 7


  69 003c 7047     		bx	lr
  70              	.L5:
  71 003e C046     		.align	2
  72              	.L4:
  73 0040 4C0F0840 		.word	1074270028
  74 0044 64000840 		.word	1074266212
  75 0048 00000000 		.word	.LANCHOR0
  76 004c 00000000 		.word	I2CS_slRdBufSize
  77 0050 00000000 		.word	I2CS_slRdBufIndex
  78              		.cfi_endproc
  79              	.LFE6:
  80              		.size	I2CS_I2CResposeInsert, .-I2CS_I2CResposeInsert
  81              		.section	.text.I2CS_I2CCyBtldrCommStart,"ax",%progbits
  82              		.align	2
  83              		.global	I2CS_I2CCyBtldrCommStart
  84              		.code	16
  85              		.thumb_func
  86              		.type	I2CS_I2CCyBtldrCommStart, %function
  87              	I2CS_I2CCyBtldrCommStart:
  88              	.LFB1:
  61:Generated_Source\PSoC4/I2CS_I2C_BOOT.c ****     I2CS_I2CSlaveInitWriteBuf(I2CS_slWriteBuf, I2CS_I2C_BTLDR_SIZEOF_WRITE_BUFFER);
  89              		.loc 1 61 0
  90              		.cfi_startproc
  91 0000 10B5     		push	{r4, lr}
  92              		.cfi_def_cfa_offset 8
  93              		.cfi_offset 4, -8
  94              		.cfi_offset 14, -4
  62:Generated_Source\PSoC4/I2CS_I2C_BOOT.c ****     I2CS_I2CSlaveInitReadBuf (I2CS_slReadBuf, 0u);
  95              		.loc 1 62 0
  96 0002 094C     		ldr	r4, .L7
  97 0004 201D     		add	r0, r4, #4
  98 0006 4021     		mov	r1, #64
  99 0008 FFF7FEFF 		bl	I2CS_I2CSlaveInitWriteBuf
 100              	.LVL0:
  63:Generated_Source\PSoC4/I2CS_I2C_BOOT.c **** 
 101              		.loc 1 63 0
 102 000c 201C     		mov	r0, r4
 103 000e 4430     		add	r0, r0, #68
 104 0010 0021     		mov	r1, #0
 105 0012 FFF7FEFF 		bl	I2CS_I2CSlaveInitReadBuf
 106              	.LVL1:
  65:Generated_Source\PSoC4/I2CS_I2C_BOOT.c ****     I2CS_applyBuffer = 0u;
 107              		.loc 1 65 0
 108 0016 0548     		ldr	r0, .L7+4
 109 0018 FFF7FEFF 		bl	I2CS_SetCustomInterruptHandler
 110              	.LVL2:
  66:Generated_Source\PSoC4/I2CS_I2C_BOOT.c **** 
 111              		.loc 1 66 0
 112 001c 0023     		mov	r3, #0
 113 001e 2360     		str	r3, [r4]
  68:Generated_Source\PSoC4/I2CS_I2C_BOOT.c **** }
 114              		.loc 1 68 0
 115 0020 FFF7FEFF 		bl	I2CS_Start
 116              	.LVL3:
  69:Generated_Source\PSoC4/I2CS_I2C_BOOT.c **** 
 117              		.loc 1 69 0
 118              		@ sp needed
ARM GAS  C:\Users\MM1005~1\AppData\Local\Temp\ccdEWA4e.s 			page 8


 119 0024 10BD     		pop	{r4, pc}
 120              	.L8:
 121 0026 C046     		.align	2
 122              	.L7:
 123 0028 00000000 		.word	.LANCHOR0
 124 002c 00000000 		.word	I2CS_I2CResposeInsert
 125              		.cfi_endproc
 126              	.LFE1:
 127              		.size	I2CS_I2CCyBtldrCommStart, .-I2CS_I2CCyBtldrCommStart
 128              		.section	.text.I2CS_I2CCyBtldrCommStop,"ax",%progbits
 129              		.align	2
 130              		.global	I2CS_I2CCyBtldrCommStop
 131              		.code	16
 132              		.thumb_func
 133              		.type	I2CS_I2CCyBtldrCommStop, %function
 134              	I2CS_I2CCyBtldrCommStop:
 135              	.LFB2:
  80:Generated_Source\PSoC4/I2CS_I2C_BOOT.c ****     I2CS_Stop();
 136              		.loc 1 80 0
 137              		.cfi_startproc
 138 0000 08B5     		push	{r3, lr}
 139              		.cfi_def_cfa_offset 8
 140              		.cfi_offset 3, -8
 141              		.cfi_offset 14, -4
  81:Generated_Source\PSoC4/I2CS_I2C_BOOT.c **** }
 142              		.loc 1 81 0
 143 0002 FFF7FEFF 		bl	I2CS_Stop
 144              	.LVL4:
  82:Generated_Source\PSoC4/I2CS_I2C_BOOT.c **** 
 145              		.loc 1 82 0
 146              		@ sp needed
 147 0006 08BD     		pop	{r3, pc}
 148              		.cfi_endproc
 149              	.LFE2:
 150              		.size	I2CS_I2CCyBtldrCommStop, .-I2CS_I2CCyBtldrCommStop
 151              		.section	.text.I2CS_I2CCyBtldrCommReset,"ax",%progbits
 152              		.align	2
 153              		.global	I2CS_I2CCyBtldrCommReset
 154              		.code	16
 155              		.thumb_func
 156              		.type	I2CS_I2CCyBtldrCommReset, %function
 157              	I2CS_I2CCyBtldrCommReset:
 158              	.LFB3:
 102:Generated_Source\PSoC4/I2CS_I2C_BOOT.c ****     /* Make read buffer full */
 159              		.loc 1 102 0
 160              		.cfi_startproc
 104:Generated_Source\PSoC4/I2CS_I2C_BOOT.c **** 
 161              		.loc 1 104 0
 162 0000 0023     		mov	r3, #0
 163 0002 044A     		ldr	r2, .L11
 164 0004 1360     		str	r3, [r2]
 107:Generated_Source\PSoC4/I2CS_I2C_BOOT.c ****     I2CS_slWrBufIndex = 0u;
 165              		.loc 1 107 0
 166 0006 044A     		ldr	r2, .L11+4
 167 0008 1360     		str	r3, [r2]
 108:Generated_Source\PSoC4/I2CS_I2C_BOOT.c **** 
 168              		.loc 1 108 0
ARM GAS  C:\Users\MM1005~1\AppData\Local\Temp\ccdEWA4e.s 			page 9


 169 000a 044A     		ldr	r2, .L11+8
 170 000c 1360     		str	r3, [r2]
 111:Generated_Source\PSoC4/I2CS_I2C_BOOT.c **** }
 171              		.loc 1 111 0
 172 000e 044A     		ldr	r2, .L11+12
 173 0010 1370     		strb	r3, [r2]
 112:Generated_Source\PSoC4/I2CS_I2C_BOOT.c **** 
 174              		.loc 1 112 0
 175              		@ sp needed
 176 0012 7047     		bx	lr
 177              	.L12:
 178              		.align	2
 179              	.L11:
 180 0014 00000000 		.word	I2CS_slRdBufSize
 181 0018 00000000 		.word	I2CS_slRdBufIndex
 182 001c 00000000 		.word	I2CS_slWrBufIndex
 183 0020 00000000 		.word	I2CS_slStatus
 184              		.cfi_endproc
 185              	.LFE3:
 186              		.size	I2CS_I2CCyBtldrCommReset, .-I2CS_I2CCyBtldrCommReset
 187              		.section	.text.I2CS_I2CCyBtldrCommRead,"ax",%progbits
 188              		.align	2
 189              		.global	I2CS_I2CCyBtldrCommRead
 190              		.code	16
 191              		.thumb_func
 192              		.type	I2CS_I2CCyBtldrCommRead, %function
 193              	I2CS_I2CCyBtldrCommRead:
 194              	.LFB4:
 144:Generated_Source\PSoC4/I2CS_I2C_BOOT.c ****     cystatus status;
 195              		.loc 1 144 0
 196              		.cfi_startproc
 197              	.LVL5:
 198 0000 F8B5     		push	{r3, r4, r5, r6, r7, lr}
 199              		.cfi_def_cfa_offset 24
 200              		.cfi_offset 3, -24
 201              		.cfi_offset 4, -20
 202              		.cfi_offset 5, -16
 203              		.cfi_offset 6, -12
 204              		.cfi_offset 7, -8
 205              		.cfi_offset 14, -4
 206 0002 071C     		mov	r7, r0
 207 0004 0E1C     		mov	r6, r1
 208 0006 151C     		mov	r5, r2
 209              	.LVL6:
 150:Generated_Source\PSoC4/I2CS_I2C_BOOT.c ****     {
 210              		.loc 1 150 0
 211 0008 0028     		cmp	r0, #0
 212 000a 25D0     		beq	.L19
 150:Generated_Source\PSoC4/I2CS_I2C_BOOT.c ****     {
 213              		.loc 1 150 0 is_stmt 0 discriminator 1
 214 000c 0029     		cmp	r1, #0
 215 000e 25D0     		beq	.L20
 216              	.LVL7:
 153:Generated_Source\PSoC4/I2CS_I2C_BOOT.c **** 
 217              		.loc 1 153 0 is_stmt 1
 218 0010 9C00     		lsl	r4, r3, #2
 219 0012 E418     		add	r4, r4, r3
ARM GAS  C:\Users\MM1005~1\AppData\Local\Temp\ccdEWA4e.s 			page 10


 220 0014 6400     		lsl	r4, r4, #1
 221              	.LVL8:
 155:Generated_Source\PSoC4/I2CS_I2C_BOOT.c ****         {
 222              		.loc 1 155 0
 223 0016 1BE0     		b	.L15
 224              	.LVL9:
 225              	.L18:
 158:Generated_Source\PSoC4/I2CS_I2C_BOOT.c ****             {
 226              		.loc 1 158 0
 227 0018 114B     		ldr	r3, .L21
 228 001a 1B78     		ldrb	r3, [r3]
 229 001c DB06     		lsl	r3, r3, #27
 230 001e 13D5     		bpl	.L16
 161:Generated_Source\PSoC4/I2CS_I2C_BOOT.c **** 
 231              		.loc 1 161 0
 232 0020 104B     		ldr	r3, .L21+4
 233 0022 1A68     		ldr	r2, [r3]
 234 0024 2A80     		strh	r2, [r5]
 164:Generated_Source\PSoC4/I2CS_I2C_BOOT.c ****                 I2CS_slWrBufIndex = 0u;
 235              		.loc 1 164 0
 236 0026 0022     		mov	r2, #0
 237 0028 0D49     		ldr	r1, .L21
 238 002a 0A70     		strb	r2, [r1]
 165:Generated_Source\PSoC4/I2CS_I2C_BOOT.c **** 
 239              		.loc 1 165 0
 240 002c 1A60     		str	r2, [r3]
 169:Generated_Source\PSoC4/I2CS_I2C_BOOT.c **** 
 241              		.loc 1 169 0
 242 002e 2B88     		ldrh	r3, [r5]
 243 0030 1A1C     		add	r2, r3, #0
 244 0032 B342     		cmp	r3, r6
 245 0034 00D9     		bls	.L17
 246 0036 321C     		add	r2, r6, #0
 247              	.L17:
 248 0038 92B2     		uxth	r2, r2
 168:Generated_Source\PSoC4/I2CS_I2C_BOOT.c ****                                               I2CS_BYTES_TO_COPY(*count, size));
 249              		.loc 1 168 0
 250 003a 381C     		mov	r0, r7
 251 003c 0A49     		ldr	r1, .L21+8
 252 003e 0431     		add	r1, r1, #4
 253 0040 FFF7FEFF 		bl	memcpy
 254              	.LVL10:
 171:Generated_Source\PSoC4/I2CS_I2C_BOOT.c ****                 break;
 255              		.loc 1 171 0
 256 0044 0020     		mov	r0, #0
 172:Generated_Source\PSoC4/I2CS_I2C_BOOT.c ****             }
 257              		.loc 1 172 0
 258 0046 0AE0     		b	.L14
 259              	.LVL11:
 260              	.L16:
 175:Generated_Source\PSoC4/I2CS_I2C_BOOT.c ****             --timeoutMs;
 261              		.loc 1 175 0
 262 0048 0120     		mov	r0, #1
 263 004a FFF7FEFF 		bl	CyDelay
 264              	.LVL12:
 176:Generated_Source\PSoC4/I2CS_I2C_BOOT.c ****         }
 265              		.loc 1 176 0
ARM GAS  C:\Users\MM1005~1\AppData\Local\Temp\ccdEWA4e.s 			page 11


 266 004e 013C     		sub	r4, r4, #1
 267              	.LVL13:
 268              	.L15:
 155:Generated_Source\PSoC4/I2CS_I2C_BOOT.c ****         {
 269              		.loc 1 155 0
 270 0050 002C     		cmp	r4, #0
 271 0052 E1D1     		bne	.L18
 152:Generated_Source\PSoC4/I2CS_I2C_BOOT.c ****         timeoutMs = ((uint32) 10u * timeOut); /* Convert from 10mS check to 1mS checks */
 272              		.loc 1 152 0
 273 0054 1020     		mov	r0, #16
 274 0056 02E0     		b	.L14
 275              	.LVL14:
 276              	.L19:
 148:Generated_Source\PSoC4/I2CS_I2C_BOOT.c **** 
 277              		.loc 1 148 0
 278 0058 0120     		mov	r0, #1
 279              	.LVL15:
 280 005a 00E0     		b	.L14
 281              	.LVL16:
 282              	.L20:
 283 005c 0120     		mov	r0, #1
 284              	.LVL17:
 285              	.L14:
 181:Generated_Source\PSoC4/I2CS_I2C_BOOT.c **** 
 286              		.loc 1 181 0
 287              		@ sp needed
 288              	.LVL18:
 289              	.LVL19:
 290 005e F8BD     		pop	{r3, r4, r5, r6, r7, pc}
 291              	.L22:
 292              		.align	2
 293              	.L21:
 294 0060 00000000 		.word	I2CS_slStatus
 295 0064 00000000 		.word	I2CS_slWrBufIndex
 296 0068 00000000 		.word	.LANCHOR0
 297              		.cfi_endproc
 298              	.LFE4:
 299              		.size	I2CS_I2CCyBtldrCommRead, .-I2CS_I2CCyBtldrCommRead
 300              		.section	.text.I2CS_I2CCyBtldrCommWrite,"ax",%progbits
 301              		.align	2
 302              		.global	I2CS_I2CCyBtldrCommWrite
 303              		.code	16
 304              		.thumb_func
 305              		.type	I2CS_I2CCyBtldrCommWrite, %function
 306              	I2CS_I2CCyBtldrCommWrite:
 307              	.LFB5:
 212:Generated_Source\PSoC4/I2CS_I2C_BOOT.c ****     cystatus status;
 308              		.loc 1 212 0
 309              		.cfi_startproc
 310              	.LVL20:
 311 0000 38B5     		push	{r3, r4, r5, lr}
 312              		.cfi_def_cfa_offset 16
 313              		.cfi_offset 3, -16
 314              		.cfi_offset 4, -12
 315              		.cfi_offset 5, -8
 316              		.cfi_offset 14, -4
 317 0002 031C     		mov	r3, r0
ARM GAS  C:\Users\MM1005~1\AppData\Local\Temp\ccdEWA4e.s 			page 12


 318              	.LVL21:
 319 0004 0C1C     		mov	r4, r1
 320              	.LVL22:
 217:Generated_Source\PSoC4/I2CS_I2C_BOOT.c ****     {
 321              		.loc 1 217 0
 322 0006 0028     		cmp	r0, #0
 323 0008 0CD0     		beq	.L25
 217:Generated_Source\PSoC4/I2CS_I2C_BOOT.c ****     {
 324              		.loc 1 217 0 is_stmt 0 discriminator 1
 325 000a 0029     		cmp	r1, #0
 326 000c 0CD0     		beq	.L26
 220:Generated_Source\PSoC4/I2CS_I2C_BOOT.c ****         (void) memcpy((void *) I2CS_slReadBuf, (const void *) pData, (uint32) size);
 327              		.loc 1 220 0 is_stmt 1
 328 000e 1180     		strh	r1, [r2]
 221:Generated_Source\PSoC4/I2CS_I2C_BOOT.c **** 
 329              		.loc 1 221 0
 330 0010 064D     		ldr	r5, .L27
 331 0012 281C     		mov	r0, r5
 332              	.LVL23:
 333 0014 4430     		add	r0, r0, #68
 334 0016 191C     		mov	r1, r3
 335              	.LVL24:
 336 0018 221C     		mov	r2, r4
 337              	.LVL25:
 338 001a FFF7FEFF 		bl	memcpy
 339              	.LVL26:
 224:Generated_Source\PSoC4/I2CS_I2C_BOOT.c **** 
 340              		.loc 1 224 0
 341 001e 2C60     		str	r4, [r5]
 342              	.LVL27:
 231:Generated_Source\PSoC4/I2CS_I2C_BOOT.c ****     }
 343              		.loc 1 231 0
 344 0020 0020     		mov	r0, #0
 345 0022 02E0     		b	.L24
 346              	.LVL28:
 347              	.L25:
 215:Generated_Source\PSoC4/I2CS_I2C_BOOT.c **** 
 348              		.loc 1 215 0
 349 0024 0120     		mov	r0, #1
 350              	.LVL29:
 351 0026 00E0     		b	.L24
 352              	.LVL30:
 353              	.L26:
 354 0028 0120     		mov	r0, #1
 355              	.LVL31:
 356              	.L24:
 235:Generated_Source\PSoC4/I2CS_I2C_BOOT.c **** 
 357              		.loc 1 235 0
 358              		@ sp needed
 359 002a 38BD     		pop	{r3, r4, r5, pc}
 360              	.L28:
 361              		.align	2
 362              	.L27:
 363 002c 00000000 		.word	.LANCHOR0
 364              		.cfi_endproc
 365              	.LFE5:
 366              		.size	I2CS_I2CCyBtldrCommWrite, .-I2CS_I2CCyBtldrCommWrite
ARM GAS  C:\Users\MM1005~1\AppData\Local\Temp\ccdEWA4e.s 			page 13


 367              		.bss
 368              		.align	2
 369              		.set	.LANCHOR0,. + 0
 370              		.type	I2CS_applyBuffer, %object
 371              		.size	I2CS_applyBuffer, 4
 372              	I2CS_applyBuffer:
 373 0000 00000000 		.space	4
 374              		.type	I2CS_slWriteBuf, %object
 375              		.size	I2CS_slWriteBuf, 64
 376              	I2CS_slWriteBuf:
 377 0004 00000000 		.space	64
 377      00000000 
 377      00000000 
 377      00000000 
 377      00000000 
 378              		.type	I2CS_slReadBuf, %object
 379              		.size	I2CS_slReadBuf, 64
 380              	I2CS_slReadBuf:
 381 0044 00000000 		.space	64
 381      00000000 
 381      00000000 
 381      00000000 
 381      00000000 
 382              		.text
 383              	.Letext0:
 384              		.file 2 "Generated_Source\\PSoC4/cytypes.h"
 385              		.file 3 "Generated_Source\\PSoC4\\I2CS_I2C_PVT.h"
 386              		.file 4 "Generated_Source\\PSoC4\\I2CS_I2C.h"
 387              		.file 5 "Generated_Source\\PSoC4\\I2CS.h"
 388              		.file 6 "Generated_Source\\PSoC4/CyLib.h"