Certificate:
    Data:
        Version: 3 (0x2)
        Serial Number: 4 (0x4)
    Signature Algorithm: ecdsa-with-SHA256
        Issuer: C=US, O=Bose Corporation, OU=Bose Product Root CA - PSE0, CN=Bose Product Root CA - PSE0
        Validity
            Not Before: Jan 23 02:30:53 2018 GMT
            Not After : Jan 22 23:59:59 2028 GMT
        Subject: C=US, O=Bose Corporation, OU=Consumer Electronics Product Division, CN=Bose CEPD Device CA - PSE2
        Subject Public Key Info:
            Public Key Algorithm: id-ecPublicKey
                Public-Key: (384 bit)
                pub: 
                    04:74:dd:e9:3c:a2:6f:69:38:75:e3:30:85:f3:61:
                    77:f0:ad:0a:03:f2:48:3a:b8:61:60:ae:18:05:ff:
                    e2:95:e7:16:47:45:17:4a:0f:86:10:42:15:11:7e:
                    dd:4a:ff:81:5c:6d:ad:71:bd:d2:ec:d4:09:03:d7:
                    81:cb:62:6c:ab:9d:df:3b:cc:ce:01:ae:53:0c:be:
                    80:ae:50:a2:1b:12:a7:71:cd:d4:68:19:2c:b6:dd:
                    be:ef:73:5f:79:59:91
                ASN1 OID: secp384r1
                NIST CURVE: P-384
        X509v3 extensions:
            X509v3 Key Usage: critical
                Certificate Sign, CRL Sign
            X509v3 Basic Constraints: critical
                CA:TRUE, pathlen:0
            X509v3 Subject Key Identifier: 
                D8:EB:50:C3:83:4C:4C:90:F1:9B:DD:F7:08:EB:8C:10:32:13:11:7C
            X509v3 Authority Key Identifier: 
                keyid:4A:FE:F2:74:9C:E9:33:BD:EC:62:74:E6:62:9A:EF:4D:07:A1:C5:27

            Authority Information Access: 
                CA Issuers - URI:http://pki.bose.io/root-ca-ecc.cer

            X509v3 CRL Distribution Points: 

                Full Name:
                  URI:http://pki.bose.io/root-ca-ecc.crl

            X509v3 Certificate Policies: 
                Policy: Bose Product Assurance
                Policy: Bose Product Software Assurance

    Signature Algorithm: ecdsa-with-SHA256
         30:66:02:31:00:92:23:c2:92:02:94:b5:3b:4f:9f:e5:eb:6d:
         f2:d5:ce:71:50:9f:b4:d3:55:20:5a:cb:8c:d7:05:02:26:48:
         ee:d5:6a:71:bf:88:f9:4d:ab:1d:5b:b4:bd:db:eb:d9:64:02:
         31:00:8f:70:70:a2:97:3c:0b:3a:e6:93:9b:5c:53:9b:1b:21:
         6e:b0:9b:d5:02:b4:a1:a2:7c:5e:6e:ce:df:cb:ff:0d:31:2d:
         66:79:81:b5:85:1b:39:70:14:8c:84:16:71:ea
-----BEGIN CERTIFICATE-----
MIIDKDCCAq2gAwIBAgIBBDAKBggqhkjOPQQDAjB0MQswCQYDVQQGEwJVUzEZMBcG
A1UECgwQQm9zZSBDb3Jwb3JhdGlvbjEkMCIGA1UECwwbQm9zZSBQcm9kdWN0IFJv
b3QgQ0EgLSBQU0UwMSQwIgYDVQQDDBtCb3NlIFByb2R1Y3QgUm9vdCBDQSAtIFBT
RTAwIBcNMTgwMTIzMDIzMDUzWhgPMjAyODAxMjIyMzU5NTlaMH0xCzAJBgNVBAYT
AlVTMRkwFwYDVQQKDBBCb3NlIENvcnBvcmF0aW9uMS4wLAYDVQQLDCVDb25zdW1l
ciBFbGVjdHJvbmljcyBQcm9kdWN0IERpdmlzaW9uMSMwIQYDVQQDDBpCb3NlIENF
UEQgRGV2aWNlIENBIC0gUFNFMjB2MBAGByqGSM49AgEGBSuBBAAiA2IABHTd6Tyi
b2k4deMwhfNhd/CtCgPySDq4YWCuGAX/4pXnFkdFF0oPhhBCFRF+3Ur/gVxtrXG9
0uzUCQPXgctibKud3zvMzgGuUwy+gK5QohsSp3HN1GgZLLbdvu9zX3lZkaOCAQYw
ggECMA4GA1UdDwEB/wQEAwIBBjASBgNVHRMBAf8ECDAGAQH/AgEAMB0GA1UdDgQW
BBTY61DDg0xMkPGb3fcI64wQMhMRfDAfBgNVHSMEGDAWgBRK/vJ0nOkzvexidOZi
mu9NB6HFJzA+BggrBgEFBQcBAQQyMDAwLgYIKwYBBQUHMAKGImh0dHA6Ly9wa2ku
Ym9zZS5pby9yb290LWNhLWVjYy5jZXIwMwYDVR0fBCwwKjAooCagJIYiaHR0cDov
L3BraS5ib3NlLmlvL3Jvb3QtY2EtZWNjLmNybDAnBgNVHSAEIDAeMA0GCysGAQQB
rxSPYgABMA0GCysGAQQBrxSPYgADMAoGCCqGSM49BAMCA2kAMGYCMQCSI8KSApS1
O0+f5ett8tXOcVCftNNVIFrLjNcFAiZI7tVqcb+I+U2rHVu0vdvr2WQCMQCPcHCi
lzwLOuaTm1xTmxshbrCb1QK0oaJ8Xm7O38v/DTEtZnmBtYUbOXAUjIQWceo=
-----END CERTIFICATE-----
Certificate:
    Data:
        Version: 3 (0x2)
        Serial Number: 2 (0x2)
    Signature Algorithm: ecdsa-with-SHA256
        Issuer: C=US, O=Bose Corporation, OU=Bose Product Root CA - PSE0, CN=Bose Product Root CA - PSE0
        Validity
            Not Before: Jan 22 15:07:25 2018 GMT
            Not After : Dec 31 23:59:59 2038 GMT
        Subject: C=US, O=Bose Corporation, OU=Bose Device Intermediate CA - PSE1, CN=Bose Device Intermediate CA - PSE1
        Subject Public Key Info:
            Public Key Algorithm: id-ecPublicKey
                Public-Key: (384 bit)
                pub: 
                    04:23:28:bd:23:1c:19:54:02:14:13:8d:9a:47:a9:
                    1c:9e:7b:3a:d8:47:2c:4a:f2:7a:5c:a3:2e:b6:3e:
                    75:29:08:1b:35:6e:81:69:bf:ef:36:67:0b:0e:7d:
                    6c:53:dc:a2:c1:3f:67:1e:53:77:1e:7a:80:68:5b:
                    de:a1:03:a9:68:6a:72:36:8e:11:b7:4e:cd:3a:c4:
                    eb:09:e9:e8:be:26:55:bc:fc:69:dd:91:c1:19:f7:
                    93:76:1d:8b:b3:e1:d1
                Field Type: prime-field
                Prime:
                    00:ff:ff:ff:ff:ff:ff:ff:ff:ff:ff:ff:ff:ff:ff:
                    ff:ff:ff:ff:ff:ff:ff:ff:ff:ff:ff:ff:ff:ff:ff:
                    ff:ff:fe:ff:ff:ff:ff:00:00:00:00:00:00:00:00:
                    ff:ff:ff:ff
                A:   
                    00:ff:ff:ff:ff:ff:ff:ff:ff:ff:ff:ff:ff:ff:ff:
                    ff:ff:ff:ff:ff:ff:ff:ff:ff:ff:ff:ff:ff:ff:ff:
                    ff:ff:fe:ff:ff:ff:ff:00:00:00:00:00:00:00:00:
                    ff:ff:ff:fc
                B:   
                    00:b3:31:2f:a7:e2:3e:e7:e4:98:8e:05:6b:e3:f8:
                    2d:19:18:1d:9c:6e:fe:81:41:12:03:14:08:8f:50:
                    13:87:5a:c6:56:39:8d:8a:2e:d1:9d:2a:85:c8:ed:
                    d3:ec:2a:ef
                Generator (uncompressed):
                    04:aa:87:ca:22:be:8b:05:37:8e:b1:c7:1e:f3:20:
                    ad:74:6e:1d:3b:62:8b:a7:9b:98:59:f7:41:e0:82:
                    54:2a:38:55:02:f2:5d:bf:55:29:6c:3a:54:5e:38:
                    72:76:0a:b7:36:17:de:4a:96:26:2c:6f:5d:9e:98:
                    bf:92:92:dc:29:f8:f4:1d:bd:28:9a:14:7c:e9:da:
                    31:13:b5:f0:b8:c0:0a:60:b1:ce:1d:7e:81:9d:7a:
                    43:1d:7c:90:ea:0e:5f
                Order: 
                    00:ff:ff:ff:ff:ff:ff:ff:ff:ff:ff:ff:ff:ff:ff:
                    ff:ff:ff:ff:ff:ff:ff:ff:ff:ff:c7:63:4d:81:f4:
                    37:2d:df:58:1a:0d:b2:48:b0:a7:7a:ec:ec:19:6a:
                    cc:c5:29:73
                Cofactor:  1 (0x1)
                Seed:
                    a3:35:92:6a:a3:19:a2:7a:1d:00:89:6a:67:73:a4:
                    82:7a:cd:ac:73
        X509v3 extensions:
            X509v3 Key Usage: critical
                Certificate Sign, CRL Sign
            X509v3 Basic Constraints: critical
                CA:TRUE
            X509v3 Subject Key Identifier: 
                20:58:4F:86:56:F7:C8:E2:15:C0:DB:D5:6D:03:C6:C9:18:8C:99:B2
            X509v3 Authority Key Identifier: 
                keyid:4A:FE:F2:74:9C:E9:33:BD:EC:62:74:E6:62:9A:EF:4D:07:A1:C5:27

            Authority Information Access: 
                CA Issuers - URI:http://pki.bose.io/root-ca-ecc.cer

            X509v3 CRL Distribution Points: 

                Full Name:
                  URI:http://pki.bose.io/root-ca-ecc.crl

            X509v3 Certificate Policies: 
                Policy: Bose Product Assurance
                Policy: Bose Product Device Assurance

    Signature Algorithm: ecdsa-with-SHA256
         30:65:02:31:00:ff:9a:ee:57:54:19:f0:0a:fc:7a:28:6c:c3:
         09:81:44:ac:49:81:3a:77:55:2c:8a:7f:89:f2:ff:b4:b0:a0:
         a4:95:74:65:34:49:ac:73:d8:7d:1b:1e:cb:bf:01:1a:00:02:
         30:5d:e2:fc:43:02:cc:af:48:c1:e9:d1:42:8e:a4:65:4b:22:
         e1:ba:8f:3f:b5:16:25:c8:2a:a9:5e:86:f9:99:2c:78:a7:63:
         15:e0:e6:ff:05:5a:cd:8d:d1:ed:62:79:69
-----BEGIN CERTIFICATE-----
MIIEgTCCBAegAwIBAgIBAjAKBggqhkjOPQQDAjB0MQswCQYDVQQGEwJVUzEZMBcG
A1UECgwQQm9zZSBDb3Jwb3JhdGlvbjEkMCIGA1UECwwbQm9zZSBQcm9kdWN0IFJv
b3QgQ0EgLSBQU0UwMSQwIgYDVQQDDBtCb3NlIFByb2R1Y3QgUm9vdCBDQSAtIFBT
RTAwIBcNMTgwMTIyMTUwNzI1WhgPMjAzODEyMzEyMzU5NTlaMIGCMQswCQYDVQQG
EwJVUzEZMBcGA1UECgwQQm9zZSBDb3Jwb3JhdGlvbjErMCkGA1UECwwiQm9zZSBE
ZXZpY2UgSW50ZXJtZWRpYXRlIENBIC0gUFNFMTErMCkGA1UEAwwiQm9zZSBEZXZp
Y2UgSW50ZXJtZWRpYXRlIENBIC0gUFNFMTCCAcwwggFkBgcqhkjOPQIBMIIBVwIB
ATA8BgcqhkjOPQEBAjEA//////////////////////////////////////////7/
////AAAAAAAAAAD/////MHsEMP//////////////////////////////////////
///+/////wAAAAAAAAAA/////AQwszEvp+I+5+SYjgVr4/gtGRgdnG7+gUESAxQI
j1ATh1rGVjmNii7RnSqFyO3T7CrvAxUAozWSaqMZonodAIlqZ3OkgnrNrHMEYQSq
h8oivosFN46xxx7zIK10bh07Younm5hZ90HgglQqOFUC8l2/VSlsOlReOHJ2Crc2
F95KliYsb12emL+Sktwp+PQdvSiaFHzp2jETtfC4wApgsc4dfoGdekMdfJDqDl8C
MQD////////////////////////////////HY02B9Dct31gaDbJIsKd67OwZaszF
KXMCAQEDYgAEIyi9IxwZVAIUE42aR6kcnns62EcsSvJ6XKMutj51KQgbNW6Bab/v
NmcLDn1sU9yiwT9nHlN3HnqAaFveoQOpaGpyNo4Rt07NOsTrCenoviZVvPxp3ZHB
GfeTdh2Ls+HRo4IBAjCB/zAOBgNVHQ8BAf8EBAMCAQYwDwYDVR0TAQH/BAUwAwEB
/zAdBgNVHQ4EFgQUIFhPhlb3yOIVwNvVbQPGyRiMmbIwHwYDVR0jBBgwFoAUSv7y
dJzpM73sYnTmYprvTQehxScwPgYIKwYBBQUHAQEEMjAwMC4GCCsGAQUFBzAChiJo
dHRwOi8vcGtpLmJvc2UuaW8vcm9vdC1jYS1lY2MuY2VyMDMGA1UdHwQsMCowKKAm
oCSGImh0dHA6Ly9wa2kuYm9zZS5pby9yb290LWNhLWVjYy5jcmwwJwYDVR0gBCAw
HjANBgsrBgEEAa8Uj2IAATANBgsrBgEEAa8Uj2IAAjAKBggqhkjOPQQDAgNoADBl
AjEA/5ruV1QZ8Ar8eihswwmBRKxJgTp3VSyKf4ny/7SwoKSVdGU0Saxz2H0bHsu/
ARoAAjBd4vxDAsyvSMHp0UKOpGVLIuG6jz+1FiXIKqlehvmZLHinYxXg5v8FWs2N
0e1ieWk=
-----END CERTIFICATE-----
Certificate:
    Data:
        Version: 3 (0x2)
        Serial Number: 1 (0x1)
    Signature Algorithm: ecdsa-with-SHA256
        Issuer: C=US, O=Bose Corporation, OU=Bose Product Root CA - PSE0, CN=Bose Product Root CA - PSE0
        Validity
            Not Before: Jan 22 15:01:30 2018 GMT
            Not After : Dec 31 23:59:59 2038 GMT
        Subject: C=US, O=Bose Corporation, OU=Bose Product Root CA - PSE0, CN=Bose Product Root CA - PSE0
        Subject Public Key Info:
            Public Key Algorithm: id-ecPublicKey
                Public-Key: (384 bit)
                pub: 
                    04:35:90:70:5d:08:16:91:07:23:b4:04:c7:bb:e0:
                    2e:72:7d:fd:3c:61:75:f0:8b:7d:9a:48:e8:d3:0e:
                    b4:ae:fe:a0:ac:72:10:54:b6:4f:ff:56:2d:32:2d:
                    de:c0:43:4b:c0:9b:98:6f:d5:fd:69:d3:2b:38:49:
                    b9:5d:26:5d:32:36:24:71:32:b0:1c:9e:af:5b:5a:
                    eb:3a:57:59:8b:bb:78:0a:ce:b8:38:72:10:3c:e1:
                    08:8f:c9:1a:7d:67:63
                Field Type: prime-field
                Prime:
                    00:ff:ff:ff:ff:ff:ff:ff:ff:ff:ff:ff:ff:ff:ff:
                    ff:ff:ff:ff:ff:ff:ff:ff:ff:ff:ff:ff:ff:ff:ff:
                    ff:ff:fe:ff:ff:ff:ff:00:00:00:00:00:00:00:00:
                    ff:ff:ff:ff
                A:   
                    00:ff:ff:ff:ff:ff:ff:ff:ff:ff:ff:ff:ff:ff:ff:
                    ff:ff:ff:ff:ff:ff:ff:ff:ff:ff:ff:ff:ff:ff:ff:
                    ff:ff:fe:ff:ff:ff:ff:00:00:00:00:00:00:00:00:
                    ff:ff:ff:fc
                B:   
                    00:b3:31:2f:a7:e2:3e:e7:e4:98:8e:05:6b:e3:f8:
                    2d:19:18:1d:9c:6e:fe:81:41:12:03:14:08:8f:50:
                    13:87:5a:c6:56:39:8d:8a:2e:d1:9d:2a:85:c8:ed:
                    d3:ec:2a:ef
                Generator (uncompressed):
                    04:aa:87:ca:22:be:8b:05:37:8e:b1:c7:1e:f3:20:
                    ad:74:6e:1d:3b:62:8b:a7:9b:98:59:f7:41:e0:82:
                    54:2a:38:55:02:f2:5d:bf:55:29:6c:3a:54:5e:38:
                    72:76:0a:b7:36:17:de:4a:96:26:2c:6f:5d:9e:98:
                    bf:92:92:dc:29:f8:f4:1d:bd:28:9a:14:7c:e9:da:
                    31:13:b5:f0:b8:c0:0a:60:b1:ce:1d:7e:81:9d:7a:
                    43:1d:7c:90:ea:0e:5f
                Order: 
                    00:ff:ff:ff:ff:ff:ff:ff:ff:ff:ff:ff:ff:ff:ff:
                    ff:ff:ff:ff:ff:ff:ff:ff:ff:ff:c7:63:4d:81:f4:
                    37:2d:df:58:1a:0d:b2:48:b0:a7:7a:ec:ec:19:6a:
                    cc:c5:29:73
                Cofactor:  1 (0x1)
                Seed:
                    a3:35:92:6a:a3:19:a2:7a:1d:00:89:6a:67:73:a4:
                    82:7a:cd:ac:73
        X509v3 extensions:
            X509v3 Key Usage: critical
                Certificate Sign, CRL Sign
            X509v3 Basic Constraints: critical
                CA:TRUE
            X509v3 Subject Key Identifier: 
                4A:FE:F2:74:9C:E9:33:BD:EC:62:74:E6:62:9A:EF:4D:07:A1:C5:27
            X509v3 Authority Key Identifier: 
                keyid:4A:FE:F2:74:9C:E9:33:BD:EC:62:74:E6:62:9A:EF:4D:07:A1:C5:27

    Signature Algorithm: ecdsa-with-SHA256
         30:65:02:30:47:fb:87:62:f9:a9:0a:0c:c7:02:da:07:ad:c8:
         ef:41:78:3d:52:20:cf:1f:7e:2e:cc:ec:fa:28:1d:09:5c:cd:
         1c:ae:9a:00:2c:33:48:43:6f:54:3c:04:83:b4:06:c9:02:31:
         00:cd:80:de:72:fd:62:ab:6d:64:ff:e0:36:cf:fc:96:d3:dc:
         6d:7f:4d:03:8f:5a:1e:fb:fd:cd:8f:91:8e:d9:33:c7:95:fa:
         3f:51:1d:49:95:07:1d:91:9b:f9:47:9c:bf
-----BEGIN CERTIFICATE-----
MIID0TCCA1egAwIBAgIBATAKBggqhkjOPQQDAjB0MQswCQYDVQQGEwJVUzEZMBcG
A1UECgwQQm9zZSBDb3Jwb3JhdGlvbjEkMCIGA1UECwwbQm9zZSBQcm9kdWN0IFJv
b3QgQ0EgLSBQU0UwMSQwIgYDVQQDDBtCb3NlIFByb2R1Y3QgUm9vdCBDQSAtIFBT
RTAwIBcNMTgwMTIyMTUwMTMwWhgPMjAzODEyMzEyMzU5NTlaMHQxCzAJBgNVBAYT
AlVTMRkwFwYDVQQKDBBCb3NlIENvcnBvcmF0aW9uMSQwIgYDVQQLDBtCb3NlIFBy
b2R1Y3QgUm9vdCBDQSAtIFBTRTAxJDAiBgNVBAMMG0Jvc2UgUHJvZHVjdCBSb290
IENBIC0gUFNFMDCCAcwwggFkBgcqhkjOPQIBMIIBVwIBATA8BgcqhkjOPQEBAjEA
//////////////////////////////////////////7/////AAAAAAAAAAD/////
MHsEMP/////////////////////////////////////////+/////wAAAAAAAAAA
/////AQwszEvp+I+5+SYjgVr4/gtGRgdnG7+gUESAxQIj1ATh1rGVjmNii7RnSqF
yO3T7CrvAxUAozWSaqMZonodAIlqZ3OkgnrNrHMEYQSqh8oivosFN46xxx7zIK10
bh07Younm5hZ90HgglQqOFUC8l2/VSlsOlReOHJ2Crc2F95KliYsb12emL+Sktwp
+PQdvSiaFHzp2jETtfC4wApgsc4dfoGdekMdfJDqDl8CMQD/////////////////
///////////////HY02B9Dct31gaDbJIsKd67OwZaszFKXMCAQEDYgAENZBwXQgW
kQcjtATHu+Aucn39PGF18It9mkjo0w60rv6grHIQVLZP/1YtMi3ewENLwJuYb9X9
adMrOEm5XSZdMjYkcTKwHJ6vW1rrOldZi7t4Cs64OHIQPOEIj8kafWdjo2MwYTAO
BgNVHQ8BAf8EBAMCAQYwDwYDVR0TAQH/BAUwAwEB/zAdBgNVHQ4EFgQUSv7ydJzp
M73sYnTmYprvTQehxScwHwYDVR0jBBgwFoAUSv7ydJzpM73sYnTmYprvTQehxScw
CgYIKoZIzj0EAwIDaAAwZQIwR/uHYvmpCgzHAtoHrcjvQXg9UiDPH34uzOz6KB0J
XM0crpoALDNIQ29UPASDtAbJAjEAzYDecv1iq21k/+A2z/yW09xtf00Dj1oe+/3N
j5GO2TPHlfo/UR1JlQcdkZv5R5y/
-----END CERTIFICATE-----
