ARM GAS  /tmp/ccSLubY4.s 			page 1


   1              		.cpu cortex-m0plus
   2              		.fpu softvfp
   3              		.eabi_attribute 20, 1
   4              		.eabi_attribute 21, 1
   5              		.eabi_attribute 23, 3
   6              		.eabi_attribute 24, 1
   7              		.eabi_attribute 25, 1
   8              		.eabi_attribute 26, 1
   9              		.eabi_attribute 30, 1
  10              		.eabi_attribute 34, 0
  11              		.eabi_attribute 18, 4
  12              		.code	16
  13              		.file	"CapSense_Centroid_LL.c"
  14              		.text
  15              	.Ltext0:
  16              		.cfi_sections	.debug_frame
  17              		.section	.text.CapSense_DpFindLocalMaxSd,"ax",%progbits
  18              		.align	2
  19              		.global	CapSense_DpFindLocalMaxSd
  20              		.code	16
  21              		.thumb_func
  22              		.type	CapSense_DpFindLocalMaxSd, %function
  23              	CapSense_DpFindLocalMaxSd:
  24              	.LFB1:
  25              		.file 1 "Generated_Source/PSoC4/CapSense_Centroid_LL.c"
   1:Generated_Source/PSoC4/CapSense_Centroid_LL.c **** /***************************************************************************//**
   2:Generated_Source/PSoC4/CapSense_Centroid_LL.c **** * \file CapSense_Centroid_LL.c
   3:Generated_Source/PSoC4/CapSense_Centroid_LL.c **** * \version 3.10
   4:Generated_Source/PSoC4/CapSense_Centroid_LL.c **** *
   5:Generated_Source/PSoC4/CapSense_Centroid_LL.c **** * \brief
   6:Generated_Source/PSoC4/CapSense_Centroid_LL.c **** * This file provides the source code for the centroid calculation methods
   7:Generated_Source/PSoC4/CapSense_Centroid_LL.c **** * of the Component.
   8:Generated_Source/PSoC4/CapSense_Centroid_LL.c **** *
   9:Generated_Source/PSoC4/CapSense_Centroid_LL.c **** * \see CapSense P4 v3.10 Datasheet
  10:Generated_Source/PSoC4/CapSense_Centroid_LL.c **** * 
  11:Generated_Source/PSoC4/CapSense_Centroid_LL.c **** *//*****************************************************************************
  12:Generated_Source/PSoC4/CapSense_Centroid_LL.c **** * Copyright (2016), Cypress Semiconductor Corporation.
  13:Generated_Source/PSoC4/CapSense_Centroid_LL.c **** ********************************************************************************
  14:Generated_Source/PSoC4/CapSense_Centroid_LL.c **** * This software is owned by Cypress Semiconductor Corporation (Cypress) and is
  15:Generated_Source/PSoC4/CapSense_Centroid_LL.c **** * protected by and subject to worldwide patent protection (United States and
  16:Generated_Source/PSoC4/CapSense_Centroid_LL.c **** * foreign), United States copyright laws and international treaty provisions.
  17:Generated_Source/PSoC4/CapSense_Centroid_LL.c **** * Cypress hereby grants to licensee a personal, non-exclusive, non-transferable
  18:Generated_Source/PSoC4/CapSense_Centroid_LL.c **** * license to copy, use, modify, create derivative works of, and compile the
  19:Generated_Source/PSoC4/CapSense_Centroid_LL.c **** * Cypress Source Code and derivative works for the sole purpose of creating
  20:Generated_Source/PSoC4/CapSense_Centroid_LL.c **** * custom software in support of licensee product to be used only in conjunction
  21:Generated_Source/PSoC4/CapSense_Centroid_LL.c **** * with a Cypress integrated circuit as specified in the applicable agreement.
  22:Generated_Source/PSoC4/CapSense_Centroid_LL.c **** * Any reproduction, modification, translation, compilation, or representation of
  23:Generated_Source/PSoC4/CapSense_Centroid_LL.c **** * this software except as specified above is prohibited without the express
  24:Generated_Source/PSoC4/CapSense_Centroid_LL.c **** * written permission of Cypress.
  25:Generated_Source/PSoC4/CapSense_Centroid_LL.c **** *
  26:Generated_Source/PSoC4/CapSense_Centroid_LL.c **** * Disclaimer: CYPRESS MAKES NO WARRANTY OF ANY KIND, EXPRESS OR IMPLIED, WITH
  27:Generated_Source/PSoC4/CapSense_Centroid_LL.c **** * REGARD TO THIS MATERIAL, INCLUDING, BUT NOT LIMITED TO, THE IMPLIED
  28:Generated_Source/PSoC4/CapSense_Centroid_LL.c **** * WARRANTIES OF MERCHANTABILITY AND FITNESS FOR A PARTICULAR PURPOSE.
  29:Generated_Source/PSoC4/CapSense_Centroid_LL.c **** * Cypress reserves the right to make changes without further notice to the
  30:Generated_Source/PSoC4/CapSense_Centroid_LL.c **** * materials described herein. Cypress does not assume any liability arising out
  31:Generated_Source/PSoC4/CapSense_Centroid_LL.c **** * of the application or use of any product or circuit described herein. Cypress
  32:Generated_Source/PSoC4/CapSense_Centroid_LL.c **** * does not authorize its products for use as critical components in life-support
ARM GAS  /tmp/ccSLubY4.s 			page 2


  33:Generated_Source/PSoC4/CapSense_Centroid_LL.c **** * systems where a malfunction or failure may reasonably be expected to result in
  34:Generated_Source/PSoC4/CapSense_Centroid_LL.c **** * significant injury to the user. The inclusion of Cypress' product in a life-
  35:Generated_Source/PSoC4/CapSense_Centroid_LL.c **** * support systems application implies that the manufacturer assumes all risk of
  36:Generated_Source/PSoC4/CapSense_Centroid_LL.c **** * such use and in doing so indemnifies Cypress against all charges. Use may be
  37:Generated_Source/PSoC4/CapSense_Centroid_LL.c **** * limited by and subject to the applicable Cypress software license agreement.
  38:Generated_Source/PSoC4/CapSense_Centroid_LL.c **** *******************************************************************************/
  39:Generated_Source/PSoC4/CapSense_Centroid_LL.c **** 
  40:Generated_Source/PSoC4/CapSense_Centroid_LL.c **** #include "cytypes.h"
  41:Generated_Source/PSoC4/CapSense_Centroid_LL.c **** #include "CyLib.h"
  42:Generated_Source/PSoC4/CapSense_Centroid_LL.c **** #include "CapSense_Centroid_LL.h"
  43:Generated_Source/PSoC4/CapSense_Centroid_LL.c **** #include "CapSense_Configuration.h"
  44:Generated_Source/PSoC4/CapSense_Centroid_LL.c **** #include "CapSense_Structure.h"
  45:Generated_Source/PSoC4/CapSense_Centroid_LL.c **** #include "CapSense_Filter.h"
  46:Generated_Source/PSoC4/CapSense_Centroid_LL.c **** 
  47:Generated_Source/PSoC4/CapSense_Centroid_LL.c **** /*******************************************************************************
  48:Generated_Source/PSoC4/CapSense_Centroid_LL.c **** * Local definition
  49:Generated_Source/PSoC4/CapSense_Centroid_LL.c **** *******************************************************************************/
  50:Generated_Source/PSoC4/CapSense_Centroid_LL.c **** #define CapSense_CENTROID_LEGACY_MODE                (0x01u)
  51:Generated_Source/PSoC4/CapSense_Centroid_LL.c **** #define CapSense_CENTROID_MULTI_TOUCH_MODE           (0x02u)
  52:Generated_Source/PSoC4/CapSense_Centroid_LL.c **** 
  53:Generated_Source/PSoC4/CapSense_Centroid_LL.c **** #if (CapSense_NUM_CENTROIDS == 0x01u)
  54:Generated_Source/PSoC4/CapSense_Centroid_LL.c ****     #define CapSense_CENTROID_MODE  CapSense_CENTROID_LEGACY_MODE
  55:Generated_Source/PSoC4/CapSense_Centroid_LL.c **** #else   
  56:Generated_Source/PSoC4/CapSense_Centroid_LL.c ****     #define CapSense_CENTROID_MODE  CapSense_CENTROID_MULTI_TOUCH_MODE
  57:Generated_Source/PSoC4/CapSense_Centroid_LL.c **** #endif /* #if CapSense_NUM_CENTROIDS == 0x01u */
  58:Generated_Source/PSoC4/CapSense_Centroid_LL.c **** 
  59:Generated_Source/PSoC4/CapSense_Centroid_LL.c **** #if CapSense_CSX_TOUCHPAD_WIDGET_EN
  60:Generated_Source/PSoC4/CapSense_Centroid_LL.c ****     #define CapSense_CSX_TOUCHPAD_BUFFER_SIZE \
  61:Generated_Source/PSoC4/CapSense_Centroid_LL.c ****             (((CapSense_CSX_MAX_LOCAL_PEAKS + 3u) * sizeof(int8)) +                                
  62:Generated_Source/PSoC4/CapSense_Centroid_LL.c ****             (CapSense_CSX_MAX_LOCAL_PEAKS * CapSense_CSX_MAX_LOCAL_PEAKS * sizeof(int32)) + /* dist
  63:Generated_Source/PSoC4/CapSense_Centroid_LL.c ****             (CapSense_CSX_MAX_LOCAL_PEAKS * sizeof(int32)) +                                       
  64:Generated_Source/PSoC4/CapSense_Centroid_LL.c ****             (CapSense_CSX_MAX_LOCAL_PEAKS * sizeof(int8)) +                                        
  65:Generated_Source/PSoC4/CapSense_Centroid_LL.c ****             (CapSense_CSX_MAX_LOCAL_PEAKS * sizeof(int8)) +                                        
  66:Generated_Source/PSoC4/CapSense_Centroid_LL.c ****             (CapSense_CSX_MAX_LOCAL_PEAKS * sizeof(int8)))                                         
  67:Generated_Source/PSoC4/CapSense_Centroid_LL.c **** 
  68:Generated_Source/PSoC4/CapSense_Centroid_LL.c ****     #define CapSense_CSX_TOUCHPAD_FT_ON_FAIL                (0x81u)
  69:Generated_Source/PSoC4/CapSense_Centroid_LL.c ****     #define CapSense_CSX_TOUCHPAD_TOUCH_ABSENT_ID           (0x82u)
  70:Generated_Source/PSoC4/CapSense_Centroid_LL.c ****     #define CapSense_CSX_TOUCHPAD_DEBOUNCE_ENABLE           (0u)
  71:Generated_Source/PSoC4/CapSense_Centroid_LL.c ****     #define CapSense_CSX_TOUCHPAD_TOUCH_MIN_ID              (0u)
  72:Generated_Source/PSoC4/CapSense_Centroid_LL.c ****     #define CapSense_CSX_TOUCHPAD_TOUCH_MAX_ID              (CapSense_CSX_MAX_LOCAL_PEAKS - 1u)
  73:Generated_Source/PSoC4/CapSense_Centroid_LL.c ****     #define CapSense_CSX_TOUCHPAD_INT32                     (0x7FFFFFFFu)
  74:Generated_Source/PSoC4/CapSense_Centroid_LL.c ****     #define CapSense_CSX_TOUCHPAD_TOUCH_DOWN                (0x80u)
  75:Generated_Source/PSoC4/CapSense_Centroid_LL.c ****     #define CapSense_CSX_TOUCHPAD_LIFT_OFF                  (0x40u)
  76:Generated_Source/PSoC4/CapSense_Centroid_LL.c ****     #define CapSense_CSX_TOUCHPAD_DEBOUNCE_MASK             (0x3Fu)
  77:Generated_Source/PSoC4/CapSense_Centroid_LL.c ****     #define CapSense_CSX_TOUCHPAD_POSITION_FILTER_EN        \
  78:Generated_Source/PSoC4/CapSense_Centroid_LL.c ****                 (CapSense_POS_IIR_FILTER_EN                     || \
  79:Generated_Source/PSoC4/CapSense_Centroid_LL.c ****                  CapSense_CSX_TOUCHPAD_POS_MEDIAN_FILTER_EN     || \
  80:Generated_Source/PSoC4/CapSense_Centroid_LL.c ****                  CapSense_POS_AVERAGE_FILTER_EN                 || \
  81:Generated_Source/PSoC4/CapSense_Centroid_LL.c ****                  CapSense_POS_JITTER_FILTER_EN)
  82:Generated_Source/PSoC4/CapSense_Centroid_LL.c ****     #define CapSense_CSX_TOUCHPAD_POSITION_NONE             (0xFFFFu)
  83:Generated_Source/PSoC4/CapSense_Centroid_LL.c ****     #define CapSense_CSX_TOUCHPAD_Z_SHIFT                   (0x04u)
  84:Generated_Source/PSoC4/CapSense_Centroid_LL.c ****     #define CapSense_CSX_TOUCHPAD_PADDING                   (3Lu)
  85:Generated_Source/PSoC4/CapSense_Centroid_LL.c ****     #define CapSense_CSX_TOUCHPAD_CENTROID_LENGTH           (3u)
  86:Generated_Source/PSoC4/CapSense_Centroid_LL.c ****     #define CapSense_CSX_TOUCHPAD_CENTROID_PREVIOUS         (0u)
  87:Generated_Source/PSoC4/CapSense_Centroid_LL.c ****     #define CapSense_CSX_TOUCHPAD_CENTROID_CENTER           (1u)
  88:Generated_Source/PSoC4/CapSense_Centroid_LL.c ****     #define CapSense_CSX_TOUCHPAD_CENTROID_NEXT             (2u)
  89:Generated_Source/PSoC4/CapSense_Centroid_LL.c **** 
ARM GAS  /tmp/ccSLubY4.s 			page 3


  90:Generated_Source/PSoC4/CapSense_Centroid_LL.c **** #endif /* CapSense_CSX_TOUCHPAD_WIDGET_EN */
  91:Generated_Source/PSoC4/CapSense_Centroid_LL.c **** 
  92:Generated_Source/PSoC4/CapSense_Centroid_LL.c **** /*******************************************************************************
  93:Generated_Source/PSoC4/CapSense_Centroid_LL.c **** * Static variables definition
  94:Generated_Source/PSoC4/CapSense_Centroid_LL.c **** *******************************************************************************/
  95:Generated_Source/PSoC4/CapSense_Centroid_LL.c **** static uint8 localMax[CapSense_NUM_CENTROIDS];
  96:Generated_Source/PSoC4/CapSense_Centroid_LL.c **** static CapSense_THRESHOLD_TYPE localDiffArray[CapSense_NUM_CENTROIDS][3u];
  97:Generated_Source/PSoC4/CapSense_Centroid_LL.c **** static uint8 localMaxIndex;
  98:Generated_Source/PSoC4/CapSense_Centroid_LL.c **** 
  99:Generated_Source/PSoC4/CapSense_Centroid_LL.c **** #if ( 0u !=CapSense_CSX_TOUCHPAD_WIDGET_EN)    
 100:Generated_Source/PSoC4/CapSense_Centroid_LL.c ****     static CapSense_CSX_TOUCHPAD_DATA_STRUCT newTouches;
 101:Generated_Source/PSoC4/CapSense_Centroid_LL.c ****     static CapSense_CSX_TOUCHPAD_DATA_STRUCT *ptrNewTouches = &newTouches;
 102:Generated_Source/PSoC4/CapSense_Centroid_LL.c ****     static uint8 newActiveIDs = 0u;
 103:Generated_Source/PSoC4/CapSense_Centroid_LL.c ****     static uint8 oldActiveIDs = 0u;
 104:Generated_Source/PSoC4/CapSense_Centroid_LL.c **** 
 105:Generated_Source/PSoC4/CapSense_Centroid_LL.c ****     typedef int32 CapSense_CSX_TOUCHPAD_DISTANCE_MAP[CapSense_CSX_MAX_LOCAL_PEAKS];
 106:Generated_Source/PSoC4/CapSense_Centroid_LL.c **** #endif /* ( 0u !=CapSense_CSX_TOUCHPAD_WIDGET_EN) */
 107:Generated_Source/PSoC4/CapSense_Centroid_LL.c **** 
 108:Generated_Source/PSoC4/CapSense_Centroid_LL.c **** /*******************************************************************************
 109:Generated_Source/PSoC4/CapSense_Centroid_LL.c **** * API Prototypes
 110:Generated_Source/PSoC4/CapSense_Centroid_LL.c **** *******************************************************************************/
 111:Generated_Source/PSoC4/CapSense_Centroid_LL.c **** #if (0u !=CapSense_CSX_TOUCHPAD_WIDGET_EN)
 112:Generated_Source/PSoC4/CapSense_Centroid_LL.c ****     CY_INLINE static void CapSense_TransferTouch(uint32 newIndex, uint32 oldIndex, CapSense_CSX_TOU
 113:Generated_Source/PSoC4/CapSense_Centroid_LL.c ****     static void CapSense_NewTouch(uint32 newIndex, uint8 onDebounce, uint16 fingerOnThreshold);
 114:Generated_Source/PSoC4/CapSense_Centroid_LL.c ****     CY_INLINE static uint8 CapSense_GetLowestId(uint16 idMask);
 115:Generated_Source/PSoC4/CapSense_Centroid_LL.c ****     CY_INLINE static uint32 CapSense_CalcDistance(uint32 newIndex, uint32 oldIndex, CapSense_CSX_TO
 116:Generated_Source/PSoC4/CapSense_Centroid_LL.c ****     static void CapSense_Hungarian(uint8 rowCount, uint8 colCount, int8 *fingerPosIndex,
 117:Generated_Source/PSoC4/CapSense_Centroid_LL.c ****                                            CapSense_CSX_TOUCHPAD_DISTANCE_MAP *distanceMap);
 118:Generated_Source/PSoC4/CapSense_Centroid_LL.c ****     static void CapSense_FillDistanceMap(CapSense_CSX_TOUCHPAD_DISTANCE_MAP *distanceMap, 
 119:Generated_Source/PSoC4/CapSense_Centroid_LL.c ****                                                  CapSense_CSX_TOUCHPAD_DATA_STRUCT *ptrOldTouches);
 120:Generated_Source/PSoC4/CapSense_Centroid_LL.c ****     CY_INLINE static void CapSense_TouchDownDebounce(void);
 121:Generated_Source/PSoC4/CapSense_Centroid_LL.c ****     CY_INLINE static void CapSense_SortByAge(void);
 122:Generated_Source/PSoC4/CapSense_Centroid_LL.c ****     CY_INLINE static void CapSense_CopyTouchRecord(CapSense_CSX_TOUCHPAD_PEAK_STRUCT *destination, 
 123:Generated_Source/PSoC4/CapSense_Centroid_LL.c ****                                                            CapSense_CSX_TOUCHPAD_PEAK_STRUCT *sourc
 124:Generated_Source/PSoC4/CapSense_Centroid_LL.c ****     #if (0u != CapSense_OFF_DEBOUNCE_EN)
 125:Generated_Source/PSoC4/CapSense_Centroid_LL.c ****     CY_INLINE static void CapSense_LiftOffDebounce(uint8 offDebounce, 
 126:Generated_Source/PSoC4/CapSense_Centroid_LL.c ****                                                            CapSense_CSX_TOUCHPAD_DATA_STRUCT *ptrOl
 127:Generated_Source/PSoC4/CapSense_Centroid_LL.c ****     #endif /* (0u != CapSense_OFF_DEBOUNCE_EN) */     
 128:Generated_Source/PSoC4/CapSense_Centroid_LL.c **** #endif /* (0u !=CapSense_CSX_TOUCHPAD_WIDGET_EN) */
 129:Generated_Source/PSoC4/CapSense_Centroid_LL.c **** 
 130:Generated_Source/PSoC4/CapSense_Centroid_LL.c **** 
 131:Generated_Source/PSoC4/CapSense_Centroid_LL.c **** /*******************************************************************************
 132:Generated_Source/PSoC4/CapSense_Centroid_LL.c **** * Function Name: CapSense_DpFindLocalMaxSd
 133:Generated_Source/PSoC4/CapSense_Centroid_LL.c **** ****************************************************************************//**
 134:Generated_Source/PSoC4/CapSense_Centroid_LL.c **** *
 135:Generated_Source/PSoC4/CapSense_Centroid_LL.c **** * \brief
 136:Generated_Source/PSoC4/CapSense_Centroid_LL.c **** *   Finds the maximum in the widget differences and prepares array with maximum difference 
 137:Generated_Source/PSoC4/CapSense_Centroid_LL.c **** *   and it's neighbour differences in Legacy mode (only one touch can be found).
 138:Generated_Source/PSoC4/CapSense_Centroid_LL.c **** *   Finds the maxima in the widget differences and prepares arrays with maxima difference 
 139:Generated_Source/PSoC4/CapSense_Centroid_LL.c **** *   and theirs neighbour differences in Multi-Touch mode (maximum three touches can be found).
 140:Generated_Source/PSoC4/CapSense_Centroid_LL.c **** *   This API is used in conjunction with CapSense_DpCalcLinearCentroid or 
 141:Generated_Source/PSoC4/CapSense_Centroid_LL.c **** *   CapSense__DpCalcRadialCentroid, because they use shared static data: localMax[], 
 142:Generated_Source/PSoC4/CapSense_Centroid_LL.c **** *   localDiffArray[][3u], localMaxIndex.
 143:Generated_Source/PSoC4/CapSense_Centroid_LL.c **** *
 144:Generated_Source/PSoC4/CapSense_Centroid_LL.c **** * \details
 145:Generated_Source/PSoC4/CapSense_Centroid_LL.c **** *   The localMax[] is used to store the index of the maximum/maxima.
 146:Generated_Source/PSoC4/CapSense_Centroid_LL.c **** *   The localDiffArray[][] is used to store values of the maximum/maxima and neighbour differences.
ARM GAS  /tmp/ccSLubY4.s 			page 4


 147:Generated_Source/PSoC4/CapSense_Centroid_LL.c **** *   The localMaxIndex is used to store the number of maxima have been actually found.
 148:Generated_Source/PSoC4/CapSense_Centroid_LL.c **** *
 149:Generated_Source/PSoC4/CapSense_Centroid_LL.c **** * \param ptrSns The pointer to the first sensor.
 150:Generated_Source/PSoC4/CapSense_Centroid_LL.c **** * \param snsCount The total sensor number in the widget.
 151:Generated_Source/PSoC4/CapSense_Centroid_LL.c **** * \param fingerThreshold The finger threshold in the widget.
 152:Generated_Source/PSoC4/CapSense_Centroid_LL.c **** *
 153:Generated_Source/PSoC4/CapSense_Centroid_LL.c **** * \return Returns the number of maxima found.
 154:Generated_Source/PSoC4/CapSense_Centroid_LL.c **** *
 155:Generated_Source/PSoC4/CapSense_Centroid_LL.c **** *******************************************************************************/    
 156:Generated_Source/PSoC4/CapSense_Centroid_LL.c **** #if (CapSense_NUM_CENTROIDS == 0x01u)
 157:Generated_Source/PSoC4/CapSense_Centroid_LL.c **** 
 158:Generated_Source/PSoC4/CapSense_Centroid_LL.c **** uint32 CapSense_DpFindLocalMaxSd(
 159:Generated_Source/PSoC4/CapSense_Centroid_LL.c ****                         CapSense_RAM_SNS_STRUCT ptrSns[],
 160:Generated_Source/PSoC4/CapSense_Centroid_LL.c ****                         uint32 snsCount, 
 161:Generated_Source/PSoC4/CapSense_Centroid_LL.c ****                         uint32 fingerThreshold)
 162:Generated_Source/PSoC4/CapSense_Centroid_LL.c **** {
  26              		.loc 1 162 0
  27              		.cfi_startproc
  28              	.LVL0:
  29 0000 F0B5     		push	{r4, r5, r6, r7, lr}
  30              		.cfi_def_cfa_offset 20
  31              		.cfi_offset 4, -20
  32              		.cfi_offset 5, -16
  33              		.cfi_offset 6, -12
  34              		.cfi_offset 7, -8
  35              		.cfi_offset 14, -4
  36              	.LVL1:
 163:Generated_Source/PSoC4/CapSense_Centroid_LL.c ****     uint32 sensorId;        
 164:Generated_Source/PSoC4/CapSense_Centroid_LL.c ****     CapSense_RAM_SNS_STRUCT *localPtrSns = ptrSns;   
 165:Generated_Source/PSoC4/CapSense_Centroid_LL.c ****     CapSense_THRESHOLD_TYPE temp = 0u;
 166:Generated_Source/PSoC4/CapSense_Centroid_LL.c ****     localMaxIndex = 0u;
  37              		.loc 1 166 0
  38 0002 0024     		mov	r4, #0
  39 0004 244B     		ldr	r3, .L8
  40 0006 1C70     		strb	r4, [r3]
  41              	.LVL2:
 164:Generated_Source/PSoC4/CapSense_Centroid_LL.c ****     CapSense_THRESHOLD_TYPE temp = 0u;
  42              		.loc 1 164 0
  43 0008 041C     		mov	r4, r0
 165:Generated_Source/PSoC4/CapSense_Centroid_LL.c ****     localMaxIndex = 0u;
  44              		.loc 1 165 0
  45 000a 0026     		mov	r6, #0
 167:Generated_Source/PSoC4/CapSense_Centroid_LL.c ****     
 168:Generated_Source/PSoC4/CapSense_Centroid_LL.c ****     for (sensorId = 0u; sensorId < snsCount; sensorId++)
  46              		.loc 1 168 0
  47 000c 0023     		mov	r3, #0
  48 000e 0BE0     		b	.L2
  49              	.LVL3:
  50              	.L4:
 169:Generated_Source/PSoC4/CapSense_Centroid_LL.c ****     {                      
 170:Generated_Source/PSoC4/CapSense_Centroid_LL.c ****         if ((localPtrSns->diff > fingerThreshold) && (localPtrSns->diff > temp))
  51              		.loc 1 170 0
  52 0010 E588     		ldrh	r5, [r4, #6]
  53 0012 9542     		cmp	r5, r2
  54 0014 06D9     		bls	.L3
  55              		.loc 1 170 0 is_stmt 0 discriminator 1
  56 0016 AE42     		cmp	r6, r5
ARM GAS  /tmp/ccSLubY4.s 			page 5


  57 0018 04D2     		bcs	.L3
 171:Generated_Source/PSoC4/CapSense_Centroid_LL.c ****         {
 172:Generated_Source/PSoC4/CapSense_Centroid_LL.c ****             localMax[0u] = LO8(sensorId);
  58              		.loc 1 172 0 is_stmt 1
  59 001a 1F4E     		ldr	r6, .L8
  60              	.LVL4:
  61 001c 3371     		strb	r3, [r6, #4]
  62              	.LVL5:
 173:Generated_Source/PSoC4/CapSense_Centroid_LL.c ****             temp = localPtrSns->diff;
 174:Generated_Source/PSoC4/CapSense_Centroid_LL.c ****             localMaxIndex = 1u;
  63              		.loc 1 174 0
  64 001e 0127     		mov	r7, #1
  65 0020 3770     		strb	r7, [r6]
 173:Generated_Source/PSoC4/CapSense_Centroid_LL.c ****             temp = localPtrSns->diff;
  66              		.loc 1 173 0
  67 0022 2E1C     		mov	r6, r5
  68              	.LVL6:
  69              	.L3:
 175:Generated_Source/PSoC4/CapSense_Centroid_LL.c ****         }
 176:Generated_Source/PSoC4/CapSense_Centroid_LL.c ****         localPtrSns++;
  70              		.loc 1 176 0 discriminator 2
  71 0024 0E34     		add	r4, r4, #14
  72              	.LVL7:
 168:Generated_Source/PSoC4/CapSense_Centroid_LL.c ****     {                      
  73              		.loc 1 168 0 discriminator 2
  74 0026 0133     		add	r3, r3, #1
  75              	.LVL8:
  76              	.L2:
 168:Generated_Source/PSoC4/CapSense_Centroid_LL.c ****     {                      
  77              		.loc 1 168 0 is_stmt 0 discriminator 1
  78 0028 8B42     		cmp	r3, r1
  79 002a F1D3     		bcc	.L4
 177:Generated_Source/PSoC4/CapSense_Centroid_LL.c ****     }
 178:Generated_Source/PSoC4/CapSense_Centroid_LL.c **** 
 179:Generated_Source/PSoC4/CapSense_Centroid_LL.c ****     /* Prepare single-dimension centroid calculation array */
 180:Generated_Source/PSoC4/CapSense_Centroid_LL.c ****     if (localMaxIndex != 0u)
  80              		.loc 1 180 0 is_stmt 1
  81 002c 1A4B     		ldr	r3, .L8
  82              	.LVL9:
  83 002e 1C78     		ldrb	r4, [r3]
  84              	.LVL10:
  85 0030 002C     		cmp	r4, #0
  86 0032 2FD0     		beq	.L5
 181:Generated_Source/PSoC4/CapSense_Centroid_LL.c ****     {
 182:Generated_Source/PSoC4/CapSense_Centroid_LL.c ****         localDiffArray[0u][CapSense_CENTROID_POS] = ptrSns[localMax[0u]].diff;
  87              		.loc 1 182 0
  88 0034 1D1C     		mov	r5, r3
  89 0036 1A79     		ldrb	r2, [r3, #4]
  90              	.LVL11:
  91 0038 D300     		lsl	r3, r2, #3
  92 003a 9B1A     		sub	r3, r3, r2
  93 003c 5B00     		lsl	r3, r3, #1
  94 003e C618     		add	r6, r0, r3
  95              	.LVL12:
  96 0040 F688     		ldrh	r6, [r6, #6]
  97 0042 6E81     		strh	r6, [r5, #10]
 183:Generated_Source/PSoC4/CapSense_Centroid_LL.c **** 
ARM GAS  /tmp/ccSLubY4.s 			page 6


 184:Generated_Source/PSoC4/CapSense_Centroid_LL.c ****         if (localMax[0u] == 0u)
  98              		.loc 1 184 0
  99 0044 002A     		cmp	r2, #0
 100 0046 0ED1     		bne	.L6
 185:Generated_Source/PSoC4/CapSense_Centroid_LL.c ****         {
 186:Generated_Source/PSoC4/CapSense_Centroid_LL.c ****             localDiffArray[0u][CapSense_CENTROID_POS_PREV] = ptrSns[snsCount - 1u].diff;
 101              		.loc 1 186 0
 102 0048 CB00     		lsl	r3, r1, #3
 103 004a 591A     		sub	r1, r3, r1
 104              	.LVL13:
 105 004c 4900     		lsl	r1, r1, #1
 106 004e 0E39     		sub	r1, r1, #14
 107 0050 4118     		add	r1, r0, r1
 108 0052 CB88     		ldrh	r3, [r1, #6]
 109 0054 2B81     		strh	r3, [r5, #8]
 187:Generated_Source/PSoC4/CapSense_Centroid_LL.c ****             localDiffArray[0u][CapSense_CENTROID_POS_NEXT] = ptrSns[localMax[0u] + 1u].diff;
 110              		.loc 1 187 0
 111 0056 0132     		add	r2, r2, #1
 112 0058 D300     		lsl	r3, r2, #3
 113 005a 9A1A     		sub	r2, r3, r2
 114 005c 5200     		lsl	r2, r2, #1
 115 005e 8018     		add	r0, r0, r2
 116              	.LVL14:
 117 0060 C388     		ldrh	r3, [r0, #6]
 118 0062 AB81     		strh	r3, [r5, #12]
 119 0064 16E0     		b	.L5
 120              	.LVL15:
 121              	.L6:
 188:Generated_Source/PSoC4/CapSense_Centroid_LL.c ****         }    
 189:Generated_Source/PSoC4/CapSense_Centroid_LL.c ****         else if (localMax[0u] == (snsCount - 1u))
 122              		.loc 1 189 0
 123 0066 0139     		sub	r1, r1, #1
 124              	.LVL16:
 125 0068 8A42     		cmp	r2, r1
 126 006a 07D1     		bne	.L7
 190:Generated_Source/PSoC4/CapSense_Centroid_LL.c ****         {
 191:Generated_Source/PSoC4/CapSense_Centroid_LL.c ****             localDiffArray[0u][CapSense_CENTROID_POS_PREV] = ptrSns[localMax[0u] - 1u].diff;
 127              		.loc 1 191 0
 128 006c 0E3B     		sub	r3, r3, #14
 129 006e C318     		add	r3, r0, r3
 130 0070 DA88     		ldrh	r2, [r3, #6]
 131 0072 094B     		ldr	r3, .L8
 132 0074 1A81     		strh	r2, [r3, #8]
 192:Generated_Source/PSoC4/CapSense_Centroid_LL.c ****             localDiffArray[0u][CapSense_CENTROID_POS_NEXT] = ptrSns[0u].diff;
 133              		.loc 1 192 0
 134 0076 C288     		ldrh	r2, [r0, #6]
 135 0078 9A81     		strh	r2, [r3, #12]
 136 007a 0BE0     		b	.L5
 137              	.L7:
 193:Generated_Source/PSoC4/CapSense_Centroid_LL.c ****         }
 194:Generated_Source/PSoC4/CapSense_Centroid_LL.c ****         else 
 195:Generated_Source/PSoC4/CapSense_Centroid_LL.c ****         {
 196:Generated_Source/PSoC4/CapSense_Centroid_LL.c ****             localDiffArray[0u][CapSense_CENTROID_POS_PREV] = ptrSns[localMax[0u] - 1u].diff;
 138              		.loc 1 196 0
 139 007c 0E3B     		sub	r3, r3, #14
 140 007e C318     		add	r3, r0, r3
 141 0080 DB88     		ldrh	r3, [r3, #6]
ARM GAS  /tmp/ccSLubY4.s 			page 7


 142 0082 0549     		ldr	r1, .L8
 143              	.LVL17:
 144 0084 0B81     		strh	r3, [r1, #8]
 197:Generated_Source/PSoC4/CapSense_Centroid_LL.c ****             localDiffArray[0u][CapSense_CENTROID_POS_NEXT] = ptrSns[localMax[0u] + 1u].diff;
 145              		.loc 1 197 0
 146 0086 0132     		add	r2, r2, #1
 147 0088 D300     		lsl	r3, r2, #3
 148 008a 9A1A     		sub	r2, r3, r2
 149 008c 5200     		lsl	r2, r2, #1
 150 008e 8218     		add	r2, r0, r2
 151 0090 D388     		ldrh	r3, [r2, #6]
 152 0092 8B81     		strh	r3, [r1, #12]
 153              	.LVL18:
 154              	.L5:
 198:Generated_Source/PSoC4/CapSense_Centroid_LL.c ****         }
 199:Generated_Source/PSoC4/CapSense_Centroid_LL.c ****     }    
 200:Generated_Source/PSoC4/CapSense_Centroid_LL.c ****     /* Return status to check if at least one maximum has been found */
 201:Generated_Source/PSoC4/CapSense_Centroid_LL.c ****     return (uint32)(localMaxIndex);
 202:Generated_Source/PSoC4/CapSense_Centroid_LL.c **** }
 155              		.loc 1 202 0
 156 0094 201C     		mov	r0, r4
 157              		@ sp needed
 158 0096 F0BD     		pop	{r4, r5, r6, r7, pc}
 159              	.L9:
 160              		.align	2
 161              	.L8:
 162 0098 00000000 		.word	.LANCHOR0
 163              		.cfi_endproc
 164              	.LFE1:
 165              		.size	CapSense_DpFindLocalMaxSd, .-CapSense_DpFindLocalMaxSd
 166              		.global	__aeabi_idiv
 167              		.section	.text.CapSense_DpCalcLinearCentroid,"ax",%progbits
 168              		.align	2
 169              		.global	CapSense_DpCalcLinearCentroid
 170              		.code	16
 171              		.thumb_func
 172              		.type	CapSense_DpCalcLinearCentroid, %function
 173              	CapSense_DpCalcLinearCentroid:
 174              	.LFB2:
 203:Generated_Source/PSoC4/CapSense_Centroid_LL.c **** 
 204:Generated_Source/PSoC4/CapSense_Centroid_LL.c **** #else /* (CapSense_NUM_CENTROIDS == 0x01u) */
 205:Generated_Source/PSoC4/CapSense_Centroid_LL.c ****     
 206:Generated_Source/PSoC4/CapSense_Centroid_LL.c **** uint32 CapSense_DpFindLocalMaxSd(
 207:Generated_Source/PSoC4/CapSense_Centroid_LL.c ****                         CapSense_RAM_SNS_STRUCT ptrSns[],
 208:Generated_Source/PSoC4/CapSense_Centroid_LL.c ****                         uint32 snsCount, 
 209:Generated_Source/PSoC4/CapSense_Centroid_LL.c ****                         uint32 fingerThreshold)
 210:Generated_Source/PSoC4/CapSense_Centroid_LL.c **** {
 211:Generated_Source/PSoC4/CapSense_Centroid_LL.c ****     uint32 sensorId;
 212:Generated_Source/PSoC4/CapSense_Centroid_LL.c ****     uint32 i;
 213:Generated_Source/PSoC4/CapSense_Centroid_LL.c ****     uint32 proceed = 0u;
 214:Generated_Source/PSoC4/CapSense_Centroid_LL.c ****     localMaxIndex = 0u;
 215:Generated_Source/PSoC4/CapSense_Centroid_LL.c **** 
 216:Generated_Source/PSoC4/CapSense_Centroid_LL.c ****     /* Check if local max is located on the first sensor */
 217:Generated_Source/PSoC4/CapSense_Centroid_LL.c ****     if ((ptrSns[0u].diff > fingerThreshold) && (ptrSns[0u].diff >= ptrSns[1u].diff))
 218:Generated_Source/PSoC4/CapSense_Centroid_LL.c ****     {
 219:Generated_Source/PSoC4/CapSense_Centroid_LL.c ****         localMax[localMaxIndex] = 0u;
 220:Generated_Source/PSoC4/CapSense_Centroid_LL.c ****         localMaxIndex++;
ARM GAS  /tmp/ccSLubY4.s 			page 8


 221:Generated_Source/PSoC4/CapSense_Centroid_LL.c ****     }
 222:Generated_Source/PSoC4/CapSense_Centroid_LL.c **** 
 223:Generated_Source/PSoC4/CapSense_Centroid_LL.c ****     /* Check if local max is located on the last sensor */
 224:Generated_Source/PSoC4/CapSense_Centroid_LL.c ****     if ((ptrSns[snsCount - 1u].diff > fingerThreshold) && (ptrSns[snsCount - 1u].diff > ptrSns[snsC
 225:Generated_Source/PSoC4/CapSense_Centroid_LL.c ****     {
 226:Generated_Source/PSoC4/CapSense_Centroid_LL.c ****         localMax[localMaxIndex] = (uint8)snsCount - 1u;
 227:Generated_Source/PSoC4/CapSense_Centroid_LL.c ****         localMaxIndex++;
 228:Generated_Source/PSoC4/CapSense_Centroid_LL.c ****         
 229:Generated_Source/PSoC4/CapSense_Centroid_LL.c ****         #if (CapSense_NUM_CENTROIDS == 0x02u)
 230:Generated_Source/PSoC4/CapSense_Centroid_LL.c ****             if (localMaxIndex >= CapSense_NUM_CENTROIDS)
 231:Generated_Source/PSoC4/CapSense_Centroid_LL.c ****             {
 232:Generated_Source/PSoC4/CapSense_Centroid_LL.c ****                 proceed = 1u;
 233:Generated_Source/PSoC4/CapSense_Centroid_LL.c ****             }
 234:Generated_Source/PSoC4/CapSense_Centroid_LL.c ****         #endif /* (CapSense_NUM_CENTROIDS == 0x02u) */
 235:Generated_Source/PSoC4/CapSense_Centroid_LL.c ****     }
 236:Generated_Source/PSoC4/CapSense_Centroid_LL.c **** 
 237:Generated_Source/PSoC4/CapSense_Centroid_LL.c ****     /* Check all rest sensors for local max */
 238:Generated_Source/PSoC4/CapSense_Centroid_LL.c ****     for (sensorId = 1u; sensorId < (snsCount - 1u); sensorId++)
 239:Generated_Source/PSoC4/CapSense_Centroid_LL.c ****     {                      
 240:Generated_Source/PSoC4/CapSense_Centroid_LL.c ****         if ((proceed == 0u) && (ptrSns[sensorId].diff > fingerThreshold) && (ptrSns[sensorId].diff 
 241:Generated_Source/PSoC4/CapSense_Centroid_LL.c ****         {
 242:Generated_Source/PSoC4/CapSense_Centroid_LL.c ****             if (ptrSns[sensorId].diff > ptrSns[sensorId - 1u].diff)
 243:Generated_Source/PSoC4/CapSense_Centroid_LL.c ****             {   
 244:Generated_Source/PSoC4/CapSense_Centroid_LL.c ****                 localMax[localMaxIndex] = (uint8)sensorId;
 245:Generated_Source/PSoC4/CapSense_Centroid_LL.c ****                 localMaxIndex++;
 246:Generated_Source/PSoC4/CapSense_Centroid_LL.c **** 
 247:Generated_Source/PSoC4/CapSense_Centroid_LL.c ****                 if (localMaxIndex >= CapSense_NUM_CENTROIDS)
 248:Generated_Source/PSoC4/CapSense_Centroid_LL.c ****                 {
 249:Generated_Source/PSoC4/CapSense_Centroid_LL.c ****                     proceed = 1u;
 250:Generated_Source/PSoC4/CapSense_Centroid_LL.c ****                 }
 251:Generated_Source/PSoC4/CapSense_Centroid_LL.c ****             }
 252:Generated_Source/PSoC4/CapSense_Centroid_LL.c ****         }
 253:Generated_Source/PSoC4/CapSense_Centroid_LL.c ****     }   
 254:Generated_Source/PSoC4/CapSense_Centroid_LL.c ****     
 255:Generated_Source/PSoC4/CapSense_Centroid_LL.c ****     /* Save found local max signal for the further processing */
 256:Generated_Source/PSoC4/CapSense_Centroid_LL.c ****     for (i = 0u; i < localMaxIndex; i++)
 257:Generated_Source/PSoC4/CapSense_Centroid_LL.c ****     {
 258:Generated_Source/PSoC4/CapSense_Centroid_LL.c ****         localDiffArray[i][CapSense_CENTROID_POS] = ptrSns[localMax[i]].diff;
 259:Generated_Source/PSoC4/CapSense_Centroid_LL.c **** 
 260:Generated_Source/PSoC4/CapSense_Centroid_LL.c ****         if (localMax[i] == 0u)
 261:Generated_Source/PSoC4/CapSense_Centroid_LL.c ****         {
 262:Generated_Source/PSoC4/CapSense_Centroid_LL.c ****             localDiffArray[i][CapSense_CENTROID_POS_PREV] = ptrSns[snsCount - 1u].diff;
 263:Generated_Source/PSoC4/CapSense_Centroid_LL.c ****             localDiffArray[i][CapSense_CENTROID_POS_NEXT] = ptrSns[localMax[i] + 1u].diff;
 264:Generated_Source/PSoC4/CapSense_Centroid_LL.c ****         }
 265:Generated_Source/PSoC4/CapSense_Centroid_LL.c ****         else if (localMax[i] == (snsCount - 1u))
 266:Generated_Source/PSoC4/CapSense_Centroid_LL.c ****         {
 267:Generated_Source/PSoC4/CapSense_Centroid_LL.c ****             localDiffArray[i][CapSense_CENTROID_POS_PREV] = ptrSns[localMax[i] - 1u].diff;
 268:Generated_Source/PSoC4/CapSense_Centroid_LL.c ****             localDiffArray[i][CapSense_CENTROID_POS_NEXT] = ptrSns[0u].diff;
 269:Generated_Source/PSoC4/CapSense_Centroid_LL.c ****         }
 270:Generated_Source/PSoC4/CapSense_Centroid_LL.c ****         else
 271:Generated_Source/PSoC4/CapSense_Centroid_LL.c ****         {
 272:Generated_Source/PSoC4/CapSense_Centroid_LL.c ****             localDiffArray[i][CapSense_CENTROID_POS_PREV] = ptrSns[localMax[i] - 1u].diff;
 273:Generated_Source/PSoC4/CapSense_Centroid_LL.c ****             localDiffArray[i][CapSense_CENTROID_POS_NEXT] = ptrSns[localMax[i] + 1u].diff;
 274:Generated_Source/PSoC4/CapSense_Centroid_LL.c ****         }
 275:Generated_Source/PSoC4/CapSense_Centroid_LL.c ****     }
 276:Generated_Source/PSoC4/CapSense_Centroid_LL.c ****    
 277:Generated_Source/PSoC4/CapSense_Centroid_LL.c ****     return (uint32)(localMaxIndex);
ARM GAS  /tmp/ccSLubY4.s 			page 9


 278:Generated_Source/PSoC4/CapSense_Centroid_LL.c **** }
 279:Generated_Source/PSoC4/CapSense_Centroid_LL.c **** #endif /* #if (CapSense_NUM_CENTROIDS == 0x01u) */
 280:Generated_Source/PSoC4/CapSense_Centroid_LL.c **** 
 281:Generated_Source/PSoC4/CapSense_Centroid_LL.c **** 
 282:Generated_Source/PSoC4/CapSense_Centroid_LL.c **** #if CapSense_TOTAL_DIPLEXED_SLIDERS
 283:Generated_Source/PSoC4/CapSense_Centroid_LL.c **** /*******************************************************************************
 284:Generated_Source/PSoC4/CapSense_Centroid_LL.c **** * Function Name: CapSense_DpFindLocalMaxDiplex
 285:Generated_Source/PSoC4/CapSense_Centroid_LL.c **** ****************************************************************************//**
 286:Generated_Source/PSoC4/CapSense_Centroid_LL.c **** *
 287:Generated_Source/PSoC4/CapSense_Centroid_LL.c **** * \brief
 288:Generated_Source/PSoC4/CapSense_Centroid_LL.c **** *   Finds the maximum in the widget differences. Used only for diplexed linear slider. 
 289:Generated_Source/PSoC4/CapSense_Centroid_LL.c **** *
 290:Generated_Source/PSoC4/CapSense_Centroid_LL.c **** * \details
 291:Generated_Source/PSoC4/CapSense_Centroid_LL.c **** *   The localMax[] is used to store the index of the maximum/maxima.
 292:Generated_Source/PSoC4/CapSense_Centroid_LL.c **** *   The localDiffArray[][] is used to store values of the maximum/maxima and neighbour differences.
 293:Generated_Source/PSoC4/CapSense_Centroid_LL.c **** *   The localMaxIndex is used to store the number of maxima have been actually found.
 294:Generated_Source/PSoC4/CapSense_Centroid_LL.c **** *
 295:Generated_Source/PSoC4/CapSense_Centroid_LL.c **** * \param ptrSns The pointer to the first sensor.
 296:Generated_Source/PSoC4/CapSense_Centroid_LL.c **** * \param snsCount The total sensor number in the widget.
 297:Generated_Source/PSoC4/CapSense_Centroid_LL.c **** * \param diplexTable The pointer to the diplex table.
 298:Generated_Source/PSoC4/CapSense_Centroid_LL.c **** * \param fingerThreshold The finger threshold in the widget.
 299:Generated_Source/PSoC4/CapSense_Centroid_LL.c **** *
 300:Generated_Source/PSoC4/CapSense_Centroid_LL.c **** * \return Returns the number of maxima found.
 301:Generated_Source/PSoC4/CapSense_Centroid_LL.c **** *
 302:Generated_Source/PSoC4/CapSense_Centroid_LL.c **** *******************************************************************************/
 303:Generated_Source/PSoC4/CapSense_Centroid_LL.c **** uint32 CapSense_DpFindLocalMaxDiplex(
 304:Generated_Source/PSoC4/CapSense_Centroid_LL.c ****                         CapSense_RAM_SNS_STRUCT ptrSns[],
 305:Generated_Source/PSoC4/CapSense_Centroid_LL.c ****                         uint32 snsCount,
 306:Generated_Source/PSoC4/CapSense_Centroid_LL.c ****                         uint8 const diplexTable[],
 307:Generated_Source/PSoC4/CapSense_Centroid_LL.c ****                         uint32 fingerThreshold)
 308:Generated_Source/PSoC4/CapSense_Centroid_LL.c **** {
 309:Generated_Source/PSoC4/CapSense_Centroid_LL.c ****     uint32 sensorId;
 310:Generated_Source/PSoC4/CapSense_Centroid_LL.c ****     uint32 diplexSensorId;
 311:Generated_Source/PSoC4/CapSense_Centroid_LL.c **** 
 312:Generated_Source/PSoC4/CapSense_Centroid_LL.c ****     uint32 biggestStartPos = 0u;
 313:Generated_Source/PSoC4/CapSense_Centroid_LL.c ****     uint32 biggestSize = 0u;
 314:Generated_Source/PSoC4/CapSense_Centroid_LL.c ****     uint32 curStartPos = 0u;
 315:Generated_Source/PSoC4/CapSense_Centroid_LL.c ****     uint32 curSize = 0u;
 316:Generated_Source/PSoC4/CapSense_Centroid_LL.c ****     CapSense_THRESHOLD_TYPE temp = 0u;
 317:Generated_Source/PSoC4/CapSense_Centroid_LL.c ****     
 318:Generated_Source/PSoC4/CapSense_Centroid_LL.c ****     localMaxIndex = 0u;
 319:Generated_Source/PSoC4/CapSense_Centroid_LL.c ****     
 320:Generated_Source/PSoC4/CapSense_Centroid_LL.c ****     for (sensorId = 0u; sensorId < (snsCount << 1u); sensorId++)
 321:Generated_Source/PSoC4/CapSense_Centroid_LL.c ****     {                      
 322:Generated_Source/PSoC4/CapSense_Centroid_LL.c ****         diplexSensorId = diplexTable[sensorId];
 323:Generated_Source/PSoC4/CapSense_Centroid_LL.c ****         
 324:Generated_Source/PSoC4/CapSense_Centroid_LL.c ****         if (ptrSns[diplexSensorId].diff > fingerThreshold) 
 325:Generated_Source/PSoC4/CapSense_Centroid_LL.c ****         {
 326:Generated_Source/PSoC4/CapSense_Centroid_LL.c ****             if (0u == curSize)
 327:Generated_Source/PSoC4/CapSense_Centroid_LL.c ****             {
 328:Generated_Source/PSoC4/CapSense_Centroid_LL.c ****                 curStartPos = sensorId;
 329:Generated_Source/PSoC4/CapSense_Centroid_LL.c ****             }
 330:Generated_Source/PSoC4/CapSense_Centroid_LL.c **** 
 331:Generated_Source/PSoC4/CapSense_Centroid_LL.c ****             curSize++;
 332:Generated_Source/PSoC4/CapSense_Centroid_LL.c ****         }
 333:Generated_Source/PSoC4/CapSense_Centroid_LL.c ****         else
 334:Generated_Source/PSoC4/CapSense_Centroid_LL.c ****         {
ARM GAS  /tmp/ccSLubY4.s 			page 10


 335:Generated_Source/PSoC4/CapSense_Centroid_LL.c ****             if (curSize > biggestSize)
 336:Generated_Source/PSoC4/CapSense_Centroid_LL.c ****             {
 337:Generated_Source/PSoC4/CapSense_Centroid_LL.c ****                 biggestSize = curSize;
 338:Generated_Source/PSoC4/CapSense_Centroid_LL.c ****                 biggestStartPos = curStartPos;
 339:Generated_Source/PSoC4/CapSense_Centroid_LL.c ****             }
 340:Generated_Source/PSoC4/CapSense_Centroid_LL.c ****             curSize = 0u;
 341:Generated_Source/PSoC4/CapSense_Centroid_LL.c ****         }
 342:Generated_Source/PSoC4/CapSense_Centroid_LL.c ****     }
 343:Generated_Source/PSoC4/CapSense_Centroid_LL.c ****     
 344:Generated_Source/PSoC4/CapSense_Centroid_LL.c ****     if (curSize > biggestSize)
 345:Generated_Source/PSoC4/CapSense_Centroid_LL.c ****     {
 346:Generated_Source/PSoC4/CapSense_Centroid_LL.c ****         biggestSize = curSize;
 347:Generated_Source/PSoC4/CapSense_Centroid_LL.c ****         biggestStartPos = curStartPos;
 348:Generated_Source/PSoC4/CapSense_Centroid_LL.c ****     }
 349:Generated_Source/PSoC4/CapSense_Centroid_LL.c **** 
 350:Generated_Source/PSoC4/CapSense_Centroid_LL.c ****     if (biggestSize >= CapSense_CENTROID_DIPLEX_SECTION_LENGTH)
 351:Generated_Source/PSoC4/CapSense_Centroid_LL.c ****     {
 352:Generated_Source/PSoC4/CapSense_Centroid_LL.c ****         for (sensorId = biggestStartPos; sensorId < (biggestStartPos + biggestSize); sensorId++)
 353:Generated_Source/PSoC4/CapSense_Centroid_LL.c ****         {
 354:Generated_Source/PSoC4/CapSense_Centroid_LL.c ****             diplexSensorId = diplexTable[sensorId];
 355:Generated_Source/PSoC4/CapSense_Centroid_LL.c **** 
 356:Generated_Source/PSoC4/CapSense_Centroid_LL.c ****             if (ptrSns[diplexSensorId].diff > temp)
 357:Generated_Source/PSoC4/CapSense_Centroid_LL.c ****             {
 358:Generated_Source/PSoC4/CapSense_Centroid_LL.c ****                 localMax[0u] = LO8(sensorId);
 359:Generated_Source/PSoC4/CapSense_Centroid_LL.c ****                 temp = ptrSns[diplexSensorId].diff;
 360:Generated_Source/PSoC4/CapSense_Centroid_LL.c ****                 localMaxIndex = 1u;
 361:Generated_Source/PSoC4/CapSense_Centroid_LL.c ****             }
 362:Generated_Source/PSoC4/CapSense_Centroid_LL.c ****         }
 363:Generated_Source/PSoC4/CapSense_Centroid_LL.c **** 
 364:Generated_Source/PSoC4/CapSense_Centroid_LL.c ****         /* Prepare single-dimension centroid calculation array */
 365:Generated_Source/PSoC4/CapSense_Centroid_LL.c ****         if (localMax[0u] == 0u)
 366:Generated_Source/PSoC4/CapSense_Centroid_LL.c ****         {
 367:Generated_Source/PSoC4/CapSense_Centroid_LL.c ****             localDiffArray[0u][CapSense_CENTROID_POS_PREV] = 0u;
 368:Generated_Source/PSoC4/CapSense_Centroid_LL.c ****             localDiffArray[0u][CapSense_CENTROID_POS] = ptrSns[localMax[0u]].diff;
 369:Generated_Source/PSoC4/CapSense_Centroid_LL.c ****             localDiffArray[0u][CapSense_CENTROID_POS_NEXT] = ptrSns[localMax[0u] + 1u].diff;
 370:Generated_Source/PSoC4/CapSense_Centroid_LL.c ****             
 371:Generated_Source/PSoC4/CapSense_Centroid_LL.c ****         }    
 372:Generated_Source/PSoC4/CapSense_Centroid_LL.c ****         else if (localMax[0u] == ((snsCount << 1u) - 1u))
 373:Generated_Source/PSoC4/CapSense_Centroid_LL.c ****         {
 374:Generated_Source/PSoC4/CapSense_Centroid_LL.c ****             diplexSensorId = diplexTable[localMax[0u] - 1u];
 375:Generated_Source/PSoC4/CapSense_Centroid_LL.c ****             localDiffArray[0u][CapSense_CENTROID_POS_PREV] = ptrSns[diplexSensorId].diff;
 376:Generated_Source/PSoC4/CapSense_Centroid_LL.c ****             diplexSensorId = diplexTable[localMax[0u]];
 377:Generated_Source/PSoC4/CapSense_Centroid_LL.c ****             localDiffArray[0u][CapSense_CENTROID_POS] = ptrSns[diplexSensorId].diff;
 378:Generated_Source/PSoC4/CapSense_Centroid_LL.c ****             localDiffArray[0u][CapSense_CENTROID_POS_NEXT] = 0u;
 379:Generated_Source/PSoC4/CapSense_Centroid_LL.c ****         }
 380:Generated_Source/PSoC4/CapSense_Centroid_LL.c ****         else
 381:Generated_Source/PSoC4/CapSense_Centroid_LL.c ****         {
 382:Generated_Source/PSoC4/CapSense_Centroid_LL.c ****             diplexSensorId = diplexTable[localMax[0u] - 1u];
 383:Generated_Source/PSoC4/CapSense_Centroid_LL.c ****             localDiffArray[0u][CapSense_CENTROID_POS_PREV] = ptrSns[diplexSensorId].diff;
 384:Generated_Source/PSoC4/CapSense_Centroid_LL.c ****             diplexSensorId = diplexTable[localMax[0u]];
 385:Generated_Source/PSoC4/CapSense_Centroid_LL.c ****             localDiffArray[0u][CapSense_CENTROID_POS] = ptrSns[diplexSensorId].diff;
 386:Generated_Source/PSoC4/CapSense_Centroid_LL.c ****             diplexSensorId = diplexTable[localMax[0u] + 1u];
 387:Generated_Source/PSoC4/CapSense_Centroid_LL.c ****             localDiffArray[0u][CapSense_CENTROID_POS_NEXT] = ptrSns[diplexSensorId].diff;
 388:Generated_Source/PSoC4/CapSense_Centroid_LL.c ****         }
 389:Generated_Source/PSoC4/CapSense_Centroid_LL.c ****     } 
 390:Generated_Source/PSoC4/CapSense_Centroid_LL.c **** 
 391:Generated_Source/PSoC4/CapSense_Centroid_LL.c ****     return (uint32)(localMaxIndex);
ARM GAS  /tmp/ccSLubY4.s 			page 11


 392:Generated_Source/PSoC4/CapSense_Centroid_LL.c **** }
 393:Generated_Source/PSoC4/CapSense_Centroid_LL.c **** #endif /* #if CapSense_TOTAL_DIPLEXED_SLIDERS */
 394:Generated_Source/PSoC4/CapSense_Centroid_LL.c **** 
 395:Generated_Source/PSoC4/CapSense_Centroid_LL.c **** 
 396:Generated_Source/PSoC4/CapSense_Centroid_LL.c **** /*******************************************************************************
 397:Generated_Source/PSoC4/CapSense_Centroid_LL.c **** * Function Name: CapSense_DpCalcLinearCentroid
 398:Generated_Source/PSoC4/CapSense_Centroid_LL.c **** ****************************************************************************//**
 399:Generated_Source/PSoC4/CapSense_Centroid_LL.c **** *
 400:Generated_Source/PSoC4/CapSense_Centroid_LL.c **** * \brief
 401:Generated_Source/PSoC4/CapSense_Centroid_LL.c **** *   Calculates the position of the linear slider. 
 402:Generated_Source/PSoC4/CapSense_Centroid_LL.c **** *
 403:Generated_Source/PSoC4/CapSense_Centroid_LL.c **** * \details
 404:Generated_Source/PSoC4/CapSense_Centroid_LL.c **** *   The localMax[] is used to store the index of the maximum/maxima.
 405:Generated_Source/PSoC4/CapSense_Centroid_LL.c **** *   The localDiffArray[][] is used to store values of the maximum/maxima and neighbour differences.
 406:Generated_Source/PSoC4/CapSense_Centroid_LL.c **** *   The localMaxIndex is used to store the number of maxima have been actually found.
 407:Generated_Source/PSoC4/CapSense_Centroid_LL.c **** *
 408:Generated_Source/PSoC4/CapSense_Centroid_LL.c **** * \param  *position The pointer to the position array for temporal position storage.
 409:Generated_Source/PSoC4/CapSense_Centroid_LL.c **** * \param multiplier The multiplier used for position calculation. 
 410:Generated_Source/PSoC4/CapSense_Centroid_LL.c **** *                       Contains the widget resolution and total sensor information. It is generate
 411:Generated_Source/PSoC4/CapSense_Centroid_LL.c **** * \param snsCount The number of sensors in the linear slider. The doubled snsCount has to be passed
 412:Generated_Source/PSoC4/CapSense_Centroid_LL.c **** *                       if this API is called for diplexed slider.                       
 413:Generated_Source/PSoC4/CapSense_Centroid_LL.c **** *
 414:Generated_Source/PSoC4/CapSense_Centroid_LL.c **** * \return Returns the number of positions calculated.
 415:Generated_Source/PSoC4/CapSense_Centroid_LL.c **** *
 416:Generated_Source/PSoC4/CapSense_Centroid_LL.c **** *******************************************************************************/
 417:Generated_Source/PSoC4/CapSense_Centroid_LL.c **** uint32 CapSense_DpCalcLinearCentroid(uint16 position[], uint32 multiplier, uint32 snsCount)
 418:Generated_Source/PSoC4/CapSense_Centroid_LL.c **** {    
 175              		.loc 1 418 0
 176              		.cfi_startproc
 177              	.LVL19:
 178 0000 F0B5     		push	{r4, r5, r6, r7, lr}
 179              		.cfi_def_cfa_offset 20
 180              		.cfi_offset 4, -20
 181              		.cfi_offset 5, -16
 182              		.cfi_offset 6, -12
 183              		.cfi_offset 7, -8
 184              		.cfi_offset 14, -4
 185 0002 4746     		mov	r7, r8
 186 0004 80B4     		push	{r7}
 187              		.cfi_def_cfa_offset 24
 188              		.cfi_offset 8, -24
 189 0006 82B0     		sub	sp, sp, #8
 190              		.cfi_def_cfa_offset 32
 191 0008 8046     		mov	r8, r0
 192 000a 0F1C     		mov	r7, r1
 193 000c 0192     		str	r2, [sp, #4]
 194              	.LVL20:
 419:Generated_Source/PSoC4/CapSense_Centroid_LL.c ****     int32 numerator;
 420:Generated_Source/PSoC4/CapSense_Centroid_LL.c ****     int32 denominator;
 421:Generated_Source/PSoC4/CapSense_Centroid_LL.c ****     uint32 i;
 422:Generated_Source/PSoC4/CapSense_Centroid_LL.c **** 
 423:Generated_Source/PSoC4/CapSense_Centroid_LL.c ****     for (i = 0u; i < localMaxIndex; i++)
 195              		.loc 1 423 0
 196 000e 0026     		mov	r6, #0
 197 0010 2CE0     		b	.L11
 198              	.LVL21:
 199              	.L14:
ARM GAS  /tmp/ccSLubY4.s 			page 12


 424:Generated_Source/PSoC4/CapSense_Centroid_LL.c ****     {
 425:Generated_Source/PSoC4/CapSense_Centroid_LL.c ****         /* 
 426:Generated_Source/PSoC4/CapSense_Centroid_LL.c ****          * The CapSense_DpFindLocalMaxSd API prepares the unified localDiffArray[][] for linear and
 427:Generated_Source/PSoC4/CapSense_Centroid_LL.c ****          *  Therefore, the difference of the first and the last elements of linear slider are clear
 428:Generated_Source/PSoC4/CapSense_Centroid_LL.c ****          */
 429:Generated_Source/PSoC4/CapSense_Centroid_LL.c ****         
 430:Generated_Source/PSoC4/CapSense_Centroid_LL.c ****         if (localMax[i] == 0u)
 200              		.loc 1 430 0
 201 0012 1A4B     		ldr	r3, .L15
 202 0014 9B19     		add	r3, r3, r6
 203 0016 1C79     		ldrb	r4, [r3, #4]
 204 0018 002C     		cmp	r4, #0
 205 001a 07D1     		bne	.L12
 431:Generated_Source/PSoC4/CapSense_Centroid_LL.c ****         {
 432:Generated_Source/PSoC4/CapSense_Centroid_LL.c ****             localDiffArray[i][CapSense_CENTROID_POS_PREV] = 0u;
 206              		.loc 1 432 0
 207 001c 7300     		lsl	r3, r6, #1
 208 001e 9B19     		add	r3, r3, r6
 209 0020 5B00     		lsl	r3, r3, #1
 210 0022 164A     		ldr	r2, .L15
 211 0024 D318     		add	r3, r2, r3
 212 0026 0022     		mov	r2, #0
 213 0028 1A81     		strh	r2, [r3, #8]
 214 002a 0AE0     		b	.L13
 215              	.L12:
 433:Generated_Source/PSoC4/CapSense_Centroid_LL.c ****         }
 434:Generated_Source/PSoC4/CapSense_Centroid_LL.c ****         else
 435:Generated_Source/PSoC4/CapSense_Centroid_LL.c ****         {
 436:Generated_Source/PSoC4/CapSense_Centroid_LL.c ****             if (localMax[i] == (snsCount - 1u))
 216              		.loc 1 436 0
 217 002c 019B     		ldr	r3, [sp, #4]
 218 002e 013B     		sub	r3, r3, #1
 219 0030 9C42     		cmp	r4, r3
 220 0032 06D1     		bne	.L13
 437:Generated_Source/PSoC4/CapSense_Centroid_LL.c ****             {
 438:Generated_Source/PSoC4/CapSense_Centroid_LL.c ****                 localDiffArray[i][CapSense_CENTROID_POS_NEXT] = 0u;
 221              		.loc 1 438 0
 222 0034 7300     		lsl	r3, r6, #1
 223 0036 9B19     		add	r3, r3, r6
 224 0038 5B00     		lsl	r3, r3, #1
 225 003a 104A     		ldr	r2, .L15
 226 003c D318     		add	r3, r2, r3
 227 003e 0022     		mov	r2, #0
 228 0040 9A81     		strh	r2, [r3, #12]
 229              	.L13:
 439:Generated_Source/PSoC4/CapSense_Centroid_LL.c ****             }
 440:Generated_Source/PSoC4/CapSense_Centroid_LL.c ****         }
 441:Generated_Source/PSoC4/CapSense_Centroid_LL.c ****         
 442:Generated_Source/PSoC4/CapSense_Centroid_LL.c ****         /* Si+1 - Si-1 */
 443:Generated_Source/PSoC4/CapSense_Centroid_LL.c ****         numerator = (int32) localDiffArray[i][CapSense_CENTROID_POS_NEXT] -
 230              		.loc 1 443 0 discriminator 2
 231 0042 7500     		lsl	r5, r6, #1
 232 0044 AB19     		add	r3, r5, r6
 233 0046 5B00     		lsl	r3, r3, #1
 234 0048 0C4A     		ldr	r2, .L15
 235 004a D318     		add	r3, r2, r3
 236 004c 9A89     		ldrh	r2, [r3, #12]
ARM GAS  /tmp/ccSLubY4.s 			page 13


 444:Generated_Source/PSoC4/CapSense_Centroid_LL.c ****                     (int32) localDiffArray[i][CapSense_CENTROID_POS_PREV];
 237              		.loc 1 444 0 discriminator 2
 238 004e 1989     		ldrh	r1, [r3, #8]
 443:Generated_Source/PSoC4/CapSense_Centroid_LL.c ****                     (int32) localDiffArray[i][CapSense_CENTROID_POS_PREV];
 239              		.loc 1 443 0 discriminator 2
 240 0050 501A     		sub	r0, r2, r1
 241              	.LVL22:
 445:Generated_Source/PSoC4/CapSense_Centroid_LL.c **** 
 446:Generated_Source/PSoC4/CapSense_Centroid_LL.c ****         /* Si+1 + Si + Si-1 */
 447:Generated_Source/PSoC4/CapSense_Centroid_LL.c ****         denominator = (int32) localDiffArray[i][CapSense_CENTROID_POS_PREV] + 
 448:Generated_Source/PSoC4/CapSense_Centroid_LL.c ****                       (int32) localDiffArray[i][CapSense_CENTROID_POS] + 
 242              		.loc 1 448 0 discriminator 2
 243 0052 5B89     		ldrh	r3, [r3, #10]
 447:Generated_Source/PSoC4/CapSense_Centroid_LL.c ****                       (int32) localDiffArray[i][CapSense_CENTROID_POS] + 
 244              		.loc 1 447 0 discriminator 2
 245 0054 C918     		add	r1, r1, r3
 246 0056 5118     		add	r1, r2, r1
 247              	.LVL23:
 449:Generated_Source/PSoC4/CapSense_Centroid_LL.c ****                       (int32) localDiffArray[i][CapSense_CENTROID_POS_NEXT];    
 450:Generated_Source/PSoC4/CapSense_Centroid_LL.c ****         
 451:Generated_Source/PSoC4/CapSense_Centroid_LL.c ****         denominator = ((numerator * (int32)multiplier) / denominator) + 
 248              		.loc 1 451 0 discriminator 2
 249 0058 7843     		mul	r0, r7
 250              	.LVL24:
 251 005a FFF7FEFF 		bl	__aeabi_idiv
 252              	.LVL25:
 452:Generated_Source/PSoC4/CapSense_Centroid_LL.c ****                       ((int32)localMax[i] * (int32)multiplier);
 253              		.loc 1 452 0 discriminator 2
 254 005e 7C43     		mul	r4, r7
 451:Generated_Source/PSoC4/CapSense_Centroid_LL.c ****                       ((int32)localMax[i] * (int32)multiplier);
 255              		.loc 1 451 0 discriminator 2
 256 0060 0019     		add	r0, r0, r4
 257              	.LVL26:
 453:Generated_Source/PSoC4/CapSense_Centroid_LL.c ****         
 454:Generated_Source/PSoC4/CapSense_Centroid_LL.c ****         /* Round result and shift 8bits left */
 455:Generated_Source/PSoC4/CapSense_Centroid_LL.c ****         position[i] = LO16(((uint32)denominator + CapSense_CENTROID_ROUND_VALUE) >> 8u);
 258              		.loc 1 455 0 discriminator 2
 259 0062 7F30     		add	r0, r0, #127
 260              	.LVL27:
 261 0064 000A     		lsr	r0, r0, #8
 262              	.LVL28:
 263 0066 4346     		mov	r3, r8
 264 0068 5853     		strh	r0, [r3, r5]
 423:Generated_Source/PSoC4/CapSense_Centroid_LL.c ****     {
 265              		.loc 1 423 0 discriminator 2
 266 006a 0136     		add	r6, r6, #1
 267              	.LVL29:
 268              	.L11:
 423:Generated_Source/PSoC4/CapSense_Centroid_LL.c ****     {
 269              		.loc 1 423 0 is_stmt 0 discriminator 1
 270 006c 034B     		ldr	r3, .L15
 271 006e 1878     		ldrb	r0, [r3]
 272 0070 B042     		cmp	r0, r6
 273 0072 CED8     		bhi	.L14
 456:Generated_Source/PSoC4/CapSense_Centroid_LL.c ****     }
 457:Generated_Source/PSoC4/CapSense_Centroid_LL.c ****     return (uint32)(localMaxIndex);
 458:Generated_Source/PSoC4/CapSense_Centroid_LL.c **** }
ARM GAS  /tmp/ccSLubY4.s 			page 14


 274              		.loc 1 458 0 is_stmt 1
 275 0074 02B0     		add	sp, sp, #8
 276              		@ sp needed
 277              	.LVL30:
 278              	.LVL31:
 279              	.LVL32:
 280 0076 04BC     		pop	{r2}
 281 0078 9046     		mov	r8, r2
 282 007a F0BD     		pop	{r4, r5, r6, r7, pc}
 283              	.L16:
 284              		.align	2
 285              	.L15:
 286 007c 00000000 		.word	.LANCHOR0
 287              		.cfi_endproc
 288              	.LFE2:
 289              		.size	CapSense_DpCalcLinearCentroid, .-CapSense_DpCalcLinearCentroid
 290              		.bss
 291              		.align	2
 292              		.set	.LANCHOR0,. + 0
 293              		.type	localMaxIndex, %object
 294              		.size	localMaxIndex, 1
 295              	localMaxIndex:
 296 0000 00       		.space	1
 297 0001 000000   		.space	3
 298              		.type	localMax, %object
 299              		.size	localMax, 1
 300              	localMax:
 301 0004 00       		.space	1
 302 0005 000000   		.space	3
 303              		.type	localDiffArray, %object
 304              		.size	localDiffArray, 6
 305              	localDiffArray:
 306 0008 00000000 		.space	6
 306      0000
 307              		.text
 308              	.Letext0:
 309              		.file 2 "Generated_Source/PSoC4/cytypes.h"
 310              		.file 3 "Generated_Source/PSoC4/CapSense_Configuration.h"
 311              		.file 4 "Generated_Source/PSoC4/CapSense_Structure.h"