ARM GAS  /tmp/ccNuozho.s 			page 1


   1              		.cpu cortex-m0plus
   2              		.fpu softvfp
   3              		.eabi_attribute 20, 1
   4              		.eabi_attribute 21, 1
   5              		.eabi_attribute 23, 3
   6              		.eabi_attribute 24, 1
   7              		.eabi_attribute 25, 1
   8              		.eabi_attribute 26, 1
   9              		.eabi_attribute 30, 1
  10              		.eabi_attribute 34, 0
  11              		.eabi_attribute 18, 4
  12              		.code	16
  13              		.file	"cyfitter_cfg.c"
  14              		.text
  15              	.Ltext0:
  16              		.cfi_sections	.debug_frame
  17              		.section	.psocinit,"ax",%progbits
  18              		.align	2
  19              		.code	16
  20              		.thumb_func
  21              		.type	ClockSetup, %function
  22              	ClockSetup:
  23              	.LFB4:
  24              		.file 1 "Generated_Source/PSoC4/cyfitter_cfg.c"
   1:Generated_Source/PSoC4/cyfitter_cfg.c **** /*******************************************************************************
   2:Generated_Source/PSoC4/cyfitter_cfg.c **** * File Name: cyfitter_cfg.c
   3:Generated_Source/PSoC4/cyfitter_cfg.c **** * 
   4:Generated_Source/PSoC4/cyfitter_cfg.c **** * PSoC Creator  4.0 Update 1
   5:Generated_Source/PSoC4/cyfitter_cfg.c **** *
   6:Generated_Source/PSoC4/cyfitter_cfg.c **** * Description:
   7:Generated_Source/PSoC4/cyfitter_cfg.c **** * This file contains device initialization code.
   8:Generated_Source/PSoC4/cyfitter_cfg.c **** * Except for the user defined sections in CyClockStartupError(), this file should not be modified.
   9:Generated_Source/PSoC4/cyfitter_cfg.c **** * This file is automatically generated by PSoC Creator.
  10:Generated_Source/PSoC4/cyfitter_cfg.c **** *
  11:Generated_Source/PSoC4/cyfitter_cfg.c **** ********************************************************************************
  12:Generated_Source/PSoC4/cyfitter_cfg.c **** * Copyright (c) 2007-2016 Cypress Semiconductor.  All rights reserved.
  13:Generated_Source/PSoC4/cyfitter_cfg.c **** * You may use this file only in accordance with the license, terms, conditions, 
  14:Generated_Source/PSoC4/cyfitter_cfg.c **** * disclaimers, and limitations in the end user license agreement accompanying 
  15:Generated_Source/PSoC4/cyfitter_cfg.c **** * the software package with which this file was provided.
  16:Generated_Source/PSoC4/cyfitter_cfg.c **** ********************************************************************************/
  17:Generated_Source/PSoC4/cyfitter_cfg.c **** 
  18:Generated_Source/PSoC4/cyfitter_cfg.c **** #include <string.h>
  19:Generated_Source/PSoC4/cyfitter_cfg.c **** #include "cytypes.h"
  20:Generated_Source/PSoC4/cyfitter_cfg.c **** #include "cydevice_trm.h"
  21:Generated_Source/PSoC4/cyfitter_cfg.c **** #include "cyfitter.h"
  22:Generated_Source/PSoC4/cyfitter_cfg.c **** #include "CyLib.h"
  23:Generated_Source/PSoC4/cyfitter_cfg.c **** #include "cyfitter_cfg.h"
  24:Generated_Source/PSoC4/cyfitter_cfg.c **** 
  25:Generated_Source/PSoC4/cyfitter_cfg.c **** 
  26:Generated_Source/PSoC4/cyfitter_cfg.c **** #if defined(__GNUC__) || defined(__ARMCC_VERSION)
  27:Generated_Source/PSoC4/cyfitter_cfg.c ****     #define CYPACKED 
  28:Generated_Source/PSoC4/cyfitter_cfg.c ****     #define CYPACKED_ATTR __attribute__ ((packed))
  29:Generated_Source/PSoC4/cyfitter_cfg.c ****     #define CYALIGNED __attribute__ ((aligned))
  30:Generated_Source/PSoC4/cyfitter_cfg.c ****     #define CY_CFG_UNUSED __attribute__ ((unused))
  31:Generated_Source/PSoC4/cyfitter_cfg.c ****     #ifndef CY_CFG_SECTION
  32:Generated_Source/PSoC4/cyfitter_cfg.c ****         #define CY_CFG_SECTION __attribute__ ((section(".psocinit")))
  33:Generated_Source/PSoC4/cyfitter_cfg.c ****     #endif
ARM GAS  /tmp/ccNuozho.s 			page 2


  34:Generated_Source/PSoC4/cyfitter_cfg.c ****     
  35:Generated_Source/PSoC4/cyfitter_cfg.c ****     #if defined(__ARMCC_VERSION)
  36:Generated_Source/PSoC4/cyfitter_cfg.c ****         #define CY_CFG_MEMORY_BARRIER() __memory_changed()
  37:Generated_Source/PSoC4/cyfitter_cfg.c ****     #else
  38:Generated_Source/PSoC4/cyfitter_cfg.c ****         #define CY_CFG_MEMORY_BARRIER() __sync_synchronize()
  39:Generated_Source/PSoC4/cyfitter_cfg.c ****     #endif
  40:Generated_Source/PSoC4/cyfitter_cfg.c ****     
  41:Generated_Source/PSoC4/cyfitter_cfg.c **** #elif defined(__ICCARM__)
  42:Generated_Source/PSoC4/cyfitter_cfg.c ****     #include <intrinsics.h>
  43:Generated_Source/PSoC4/cyfitter_cfg.c **** 
  44:Generated_Source/PSoC4/cyfitter_cfg.c ****     #define CYPACKED __packed
  45:Generated_Source/PSoC4/cyfitter_cfg.c ****     #define CYPACKED_ATTR 
  46:Generated_Source/PSoC4/cyfitter_cfg.c ****     #define CYALIGNED _Pragma("data_alignment=4")
  47:Generated_Source/PSoC4/cyfitter_cfg.c ****     #define CY_CFG_UNUSED _Pragma("diag_suppress=Pe177")
  48:Generated_Source/PSoC4/cyfitter_cfg.c ****     #define CY_CFG_SECTION _Pragma("location=\".psocinit\"")
  49:Generated_Source/PSoC4/cyfitter_cfg.c ****     
  50:Generated_Source/PSoC4/cyfitter_cfg.c ****     #define CY_CFG_MEMORY_BARRIER() __DMB()
  51:Generated_Source/PSoC4/cyfitter_cfg.c ****     
  52:Generated_Source/PSoC4/cyfitter_cfg.c **** #else
  53:Generated_Source/PSoC4/cyfitter_cfg.c ****     #error Unsupported toolchain
  54:Generated_Source/PSoC4/cyfitter_cfg.c **** #endif
  55:Generated_Source/PSoC4/cyfitter_cfg.c **** 
  56:Generated_Source/PSoC4/cyfitter_cfg.c **** 
  57:Generated_Source/PSoC4/cyfitter_cfg.c **** CY_CFG_UNUSED
  58:Generated_Source/PSoC4/cyfitter_cfg.c **** static void CYMEMZERO(void *s, size_t n);
  59:Generated_Source/PSoC4/cyfitter_cfg.c **** CY_CFG_UNUSED
  60:Generated_Source/PSoC4/cyfitter_cfg.c **** static void CYMEMZERO(void *s, size_t n)
  61:Generated_Source/PSoC4/cyfitter_cfg.c **** {
  62:Generated_Source/PSoC4/cyfitter_cfg.c **** 	(void)memset(s, 0, n);
  63:Generated_Source/PSoC4/cyfitter_cfg.c **** }
  64:Generated_Source/PSoC4/cyfitter_cfg.c **** CY_CFG_UNUSED
  65:Generated_Source/PSoC4/cyfitter_cfg.c **** static void CYCONFIGCPY(void *dest, const void *src, size_t n);
  66:Generated_Source/PSoC4/cyfitter_cfg.c **** CY_CFG_UNUSED
  67:Generated_Source/PSoC4/cyfitter_cfg.c **** static void CYCONFIGCPY(void *dest, const void *src, size_t n)
  68:Generated_Source/PSoC4/cyfitter_cfg.c **** {
  69:Generated_Source/PSoC4/cyfitter_cfg.c **** 	(void)memcpy(dest, src, n);
  70:Generated_Source/PSoC4/cyfitter_cfg.c **** }
  71:Generated_Source/PSoC4/cyfitter_cfg.c **** CY_CFG_UNUSED
  72:Generated_Source/PSoC4/cyfitter_cfg.c **** static void CYCONFIGCPYCODE(void *dest, const void *src, size_t n);
  73:Generated_Source/PSoC4/cyfitter_cfg.c **** CY_CFG_UNUSED
  74:Generated_Source/PSoC4/cyfitter_cfg.c **** static void CYCONFIGCPYCODE(void *dest, const void *src, size_t n)
  75:Generated_Source/PSoC4/cyfitter_cfg.c **** {
  76:Generated_Source/PSoC4/cyfitter_cfg.c **** 	(void)memcpy(dest, src, n);
  77:Generated_Source/PSoC4/cyfitter_cfg.c **** }
  78:Generated_Source/PSoC4/cyfitter_cfg.c **** 
  79:Generated_Source/PSoC4/cyfitter_cfg.c **** 
  80:Generated_Source/PSoC4/cyfitter_cfg.c **** 
  81:Generated_Source/PSoC4/cyfitter_cfg.c **** 
  82:Generated_Source/PSoC4/cyfitter_cfg.c **** /* Clock startup error codes                                                   */
  83:Generated_Source/PSoC4/cyfitter_cfg.c **** #define CYCLOCKSTART_NO_ERROR    0u
  84:Generated_Source/PSoC4/cyfitter_cfg.c **** #define CYCLOCKSTART_XTAL_ERROR  1u
  85:Generated_Source/PSoC4/cyfitter_cfg.c **** #define CYCLOCKSTART_32KHZ_ERROR 2u
  86:Generated_Source/PSoC4/cyfitter_cfg.c **** #define CYCLOCKSTART_PLL_ERROR   3u
  87:Generated_Source/PSoC4/cyfitter_cfg.c **** 
  88:Generated_Source/PSoC4/cyfitter_cfg.c **** 
  89:Generated_Source/PSoC4/cyfitter_cfg.c **** #ifdef CY_NEED_CYCLOCKSTARTUPERROR
  90:Generated_Source/PSoC4/cyfitter_cfg.c **** /*******************************************************************************
ARM GAS  /tmp/ccNuozho.s 			page 3


  91:Generated_Source/PSoC4/cyfitter_cfg.c **** * Function Name: CyClockStartupError
  92:Generated_Source/PSoC4/cyfitter_cfg.c **** ********************************************************************************
  93:Generated_Source/PSoC4/cyfitter_cfg.c **** * Summary:
  94:Generated_Source/PSoC4/cyfitter_cfg.c **** *  If an error is encountered during clock configuration (crystal startup error,
  95:Generated_Source/PSoC4/cyfitter_cfg.c **** *  PLL lock error, etc.), the system will end up here.  Unless reimplemented by
  96:Generated_Source/PSoC4/cyfitter_cfg.c **** *  the customer, this function will stop in an infinite loop.
  97:Generated_Source/PSoC4/cyfitter_cfg.c **** *
  98:Generated_Source/PSoC4/cyfitter_cfg.c **** * Parameters:
  99:Generated_Source/PSoC4/cyfitter_cfg.c **** *   void
 100:Generated_Source/PSoC4/cyfitter_cfg.c **** *
 101:Generated_Source/PSoC4/cyfitter_cfg.c **** * Return:
 102:Generated_Source/PSoC4/cyfitter_cfg.c **** *   void
 103:Generated_Source/PSoC4/cyfitter_cfg.c **** *
 104:Generated_Source/PSoC4/cyfitter_cfg.c **** *******************************************************************************/
 105:Generated_Source/PSoC4/cyfitter_cfg.c **** CY_CFG_UNUSED
 106:Generated_Source/PSoC4/cyfitter_cfg.c **** static void CyClockStartupError(uint8 errorCode);
 107:Generated_Source/PSoC4/cyfitter_cfg.c **** CY_CFG_UNUSED
 108:Generated_Source/PSoC4/cyfitter_cfg.c **** static void CyClockStartupError(uint8 errorCode)
 109:Generated_Source/PSoC4/cyfitter_cfg.c **** {
 110:Generated_Source/PSoC4/cyfitter_cfg.c ****     /* To remove the compiler warning if errorCode not used.                */
 111:Generated_Source/PSoC4/cyfitter_cfg.c ****     errorCode = errorCode;
 112:Generated_Source/PSoC4/cyfitter_cfg.c **** 
 113:Generated_Source/PSoC4/cyfitter_cfg.c ****     /* If we have a clock startup error (bad MHz crystal, PLL lock, etc.),  */
 114:Generated_Source/PSoC4/cyfitter_cfg.c ****     /* we will end up here to allow the customer to implement something to  */
 115:Generated_Source/PSoC4/cyfitter_cfg.c ****     /* deal with the clock condition.                                       */
 116:Generated_Source/PSoC4/cyfitter_cfg.c **** 
 117:Generated_Source/PSoC4/cyfitter_cfg.c **** #ifdef CY_CFG_CLOCK_STARTUP_ERROR_CALLBACK
 118:Generated_Source/PSoC4/cyfitter_cfg.c **** 	CY_CFG_Clock_Startup_ErrorCallback();
 119:Generated_Source/PSoC4/cyfitter_cfg.c **** #else
 120:Generated_Source/PSoC4/cyfitter_cfg.c **** 	/*  If not using CY_CFG_CLOCK_STARTUP_ERROR_CALLBACK, place your clock startup code here. */
 121:Generated_Source/PSoC4/cyfitter_cfg.c ****     /* `#START CyClockStartupError` */
 122:Generated_Source/PSoC4/cyfitter_cfg.c **** 
 123:Generated_Source/PSoC4/cyfitter_cfg.c ****     /* If we have a clock startup error (bad MHz crystal, PLL lock, etc.),  */
 124:Generated_Source/PSoC4/cyfitter_cfg.c ****     /* we will end up here to allow the customer to implement something to  */
 125:Generated_Source/PSoC4/cyfitter_cfg.c ****     /* deal with the clock condition.                                       */
 126:Generated_Source/PSoC4/cyfitter_cfg.c **** 
 127:Generated_Source/PSoC4/cyfitter_cfg.c ****     /* `#END` */
 128:Generated_Source/PSoC4/cyfitter_cfg.c **** 
 129:Generated_Source/PSoC4/cyfitter_cfg.c ****     /* If nothing else, stop here since the clocks have not started         */
 130:Generated_Source/PSoC4/cyfitter_cfg.c ****     /* correctly.                                                           */
 131:Generated_Source/PSoC4/cyfitter_cfg.c ****     while(1) {}
 132:Generated_Source/PSoC4/cyfitter_cfg.c **** #endif /* CY_CFG_CLOCK_STARTUP_ERROR_CALLBACK */ 
 133:Generated_Source/PSoC4/cyfitter_cfg.c **** }
 134:Generated_Source/PSoC4/cyfitter_cfg.c **** #endif
 135:Generated_Source/PSoC4/cyfitter_cfg.c **** 
 136:Generated_Source/PSoC4/cyfitter_cfg.c **** 
 137:Generated_Source/PSoC4/cyfitter_cfg.c **** 
 138:Generated_Source/PSoC4/cyfitter_cfg.c **** /*******************************************************************************
 139:Generated_Source/PSoC4/cyfitter_cfg.c **** * Function Name: ClockSetup
 140:Generated_Source/PSoC4/cyfitter_cfg.c **** ********************************************************************************
 141:Generated_Source/PSoC4/cyfitter_cfg.c **** *
 142:Generated_Source/PSoC4/cyfitter_cfg.c **** * Summary:
 143:Generated_Source/PSoC4/cyfitter_cfg.c **** *   Performs the initialization of all of the clocks in the device based on the
 144:Generated_Source/PSoC4/cyfitter_cfg.c **** *   settings in the Clock tab of the DWR.  This includes enabling the requested
 145:Generated_Source/PSoC4/cyfitter_cfg.c **** *   clocks and setting the necessary dividers to produce the desired frequency. 
 146:Generated_Source/PSoC4/cyfitter_cfg.c **** *
 147:Generated_Source/PSoC4/cyfitter_cfg.c **** * Parameters:
ARM GAS  /tmp/ccNuozho.s 			page 4


 148:Generated_Source/PSoC4/cyfitter_cfg.c **** *   void
 149:Generated_Source/PSoC4/cyfitter_cfg.c **** *
 150:Generated_Source/PSoC4/cyfitter_cfg.c **** * Return:
 151:Generated_Source/PSoC4/cyfitter_cfg.c **** *   void
 152:Generated_Source/PSoC4/cyfitter_cfg.c **** *
 153:Generated_Source/PSoC4/cyfitter_cfg.c **** *******************************************************************************/
 154:Generated_Source/PSoC4/cyfitter_cfg.c **** static void ClockSetup(void);
 155:Generated_Source/PSoC4/cyfitter_cfg.c **** CY_CFG_SECTION
 156:Generated_Source/PSoC4/cyfitter_cfg.c **** static void ClockSetup(void)
 157:Generated_Source/PSoC4/cyfitter_cfg.c **** {
  25              		.loc 1 157 0
  26              		.cfi_startproc
  27 0000 10B5     		push	{r4, lr}
  28              		.cfi_def_cfa_offset 8
  29              		.cfi_offset 4, -8
  30              		.cfi_offset 14, -4
 158:Generated_Source/PSoC4/cyfitter_cfg.c **** 
 159:Generated_Source/PSoC4/cyfitter_cfg.c **** 	/* Set Flash Cycles based on max possible frequency in case a glitch occurs during ClockSetup(). *
 160:Generated_Source/PSoC4/cyfitter_cfg.c **** 	CY_SET_REG32((void CYXDATA *)(CYREG_CPUSS_FLASH_CTL), (0x0012u));
  31              		.loc 1 160 0
  32 0002 134C     		ldr	r4, .L2
  33 0004 1223     		mov	r3, #18
  34 0006 2360     		str	r3, [r4]
 161:Generated_Source/PSoC4/cyfitter_cfg.c **** 	/* Update IMO to new clock speed. */
 162:Generated_Source/PSoC4/cyfitter_cfg.c **** 	CySysClkWriteImoFreq(24u);
  35              		.loc 1 162 0
  36 0008 1820     		mov	r0, #24
  37 000a FFF7FEFF 		bl	CySysClkWriteImoFreq
  38              	.LVL0:
 163:Generated_Source/PSoC4/cyfitter_cfg.c **** 
 164:Generated_Source/PSoC4/cyfitter_cfg.c **** 	/* Setup phase aligned clocks */
 165:Generated_Source/PSoC4/cyfitter_cfg.c **** 	CY_SET_REG32((void *)CYREG_PERI_DIV_16_CTL0, 0x0000FE00u);
  39              		.loc 1 165 0
  40 000e FE22     		mov	r2, #254
  41 0010 1202     		lsl	r2, r2, #8
  42 0012 104B     		ldr	r3, .L2+4
  43 0014 1A60     		str	r2, [r3]
 166:Generated_Source/PSoC4/cyfitter_cfg.c **** 	CY_SET_REG32((void *)CYREG_PERI_DIV_CMD, 0x8000FF40u);
  44              		.loc 1 166 0
  45 0016 104B     		ldr	r3, .L2+8
  46 0018 104A     		ldr	r2, .L2+12
  47 001a 1A60     		str	r2, [r3]
 167:Generated_Source/PSoC4/cyfitter_cfg.c **** 	CY_SET_REG32((void *)CYREG_PERI_DIV_16_CTL1, 0x00000000u);
  48              		.loc 1 167 0
  49 001c 0022     		mov	r2, #0
  50 001e 1049     		ldr	r1, .L2+16
  51 0020 0A60     		str	r2, [r1]
 168:Generated_Source/PSoC4/cyfitter_cfg.c **** 	CY_SET_REG32((void *)CYREG_PERI_DIV_CMD, 0x8000FF41u);
  52              		.loc 1 168 0
  53 0022 1049     		ldr	r1, .L2+20
  54 0024 1960     		str	r1, [r3]
 169:Generated_Source/PSoC4/cyfitter_cfg.c **** 	CY_SET_REG32((void *)CYREG_PERI_DIV_16_CTL2, 0x00001900u);
  55              		.loc 1 169 0
  56 0026 C820     		mov	r0, #200
  57 0028 4001     		lsl	r0, r0, #5
  58 002a 0F49     		ldr	r1, .L2+24
  59 002c 0860     		str	r0, [r1]
ARM GAS  /tmp/ccNuozho.s 			page 5


 170:Generated_Source/PSoC4/cyfitter_cfg.c **** 	CY_SET_REG32((void *)CYREG_PERI_DIV_CMD, 0x8000FF42u);
  60              		.loc 1 170 0
  61 002e 0F49     		ldr	r1, .L2+28
  62 0030 1960     		str	r1, [r3]
 171:Generated_Source/PSoC4/cyfitter_cfg.c **** 
 172:Generated_Source/PSoC4/cyfitter_cfg.c **** 	/* CYDEV_CLK_SELECT Starting address: CYDEV_CLK_SELECT */
 173:Generated_Source/PSoC4/cyfitter_cfg.c **** 	CY_SET_XTND_REG32((void CYFAR *)(CYREG_CLK_SELECT), 0x00000000u);
  63              		.loc 1 173 0
  64 0032 0F4B     		ldr	r3, .L2+32
  65 0034 1A60     		str	r2, [r3]
 174:Generated_Source/PSoC4/cyfitter_cfg.c **** 
 175:Generated_Source/PSoC4/cyfitter_cfg.c **** 	/* CYDEV_PERI_PCLK_CTL2 Starting address: CYDEV_PERI_PCLK_CTL2 */
 176:Generated_Source/PSoC4/cyfitter_cfg.c **** 	CY_SET_XTND_REG32((void CYFAR *)(CYREG_PERI_PCLK_CTL2), 0x00000040u);
  66              		.loc 1 176 0
  67 0036 4032     		add	r2, r2, #64
  68 0038 0E4B     		ldr	r3, .L2+36
  69 003a 1A60     		str	r2, [r3]
 177:Generated_Source/PSoC4/cyfitter_cfg.c **** 
 178:Generated_Source/PSoC4/cyfitter_cfg.c **** 	/* CYDEV_PERI_PCLK_CTL1 Starting address: CYDEV_PERI_PCLK_CTL1 */
 179:Generated_Source/PSoC4/cyfitter_cfg.c **** 	CY_SET_XTND_REG32((void CYFAR *)(CYREG_PERI_PCLK_CTL1), 0x00000041u);
  70              		.loc 1 179 0
  71 003c 0132     		add	r2, r2, #1
  72 003e 0E4B     		ldr	r3, .L2+40
  73 0040 1A60     		str	r2, [r3]
 180:Generated_Source/PSoC4/cyfitter_cfg.c **** 
 181:Generated_Source/PSoC4/cyfitter_cfg.c **** 	/* CYDEV_PERI_PCLK_CTL0 Starting address: CYDEV_PERI_PCLK_CTL0 */
 182:Generated_Source/PSoC4/cyfitter_cfg.c **** 	CY_SET_XTND_REG32((void CYFAR *)(CYREG_PERI_PCLK_CTL0), 0x00000042u);
  74              		.loc 1 182 0
  75 0042 0132     		add	r2, r2, #1
  76 0044 0D4B     		ldr	r3, .L2+44
  77 0046 1A60     		str	r2, [r3]
 183:Generated_Source/PSoC4/cyfitter_cfg.c **** 
 184:Generated_Source/PSoC4/cyfitter_cfg.c **** 	/* Set Flash Cycles based on newly configured 24.00MHz HFCLK. */
 185:Generated_Source/PSoC4/cyfitter_cfg.c **** 	CY_SET_REG32((void CYXDATA *)(CYREG_CPUSS_FLASH_CTL), (0x0011u));
  78              		.loc 1 185 0
  79 0048 1123     		mov	r3, #17
  80 004a 2360     		str	r3, [r4]
 186:Generated_Source/PSoC4/cyfitter_cfg.c **** }
  81              		.loc 1 186 0
  82              		@ sp needed
  83 004c 10BD     		pop	{r4, pc}
  84              	.L3:
  85 004e C046     		.align	2
  86              	.L2:
  87 0050 30001040 		.word	1074790448
  88 0054 00030140 		.word	1073808128
  89 0058 00000140 		.word	1073807360
  90 005c 40FF0080 		.word	-2147418304
  91 0060 04030140 		.word	1073808132
  92 0064 41FF0080 		.word	-2147418303
  93 0068 08030140 		.word	1073808136
  94 006c 42FF0080 		.word	-2147418302
  95 0070 28000340 		.word	1073938472
  96 0074 08010140 		.word	1073807624
  97 0078 04010140 		.word	1073807620
  98 007c 00010140 		.word	1073807616
  99              		.cfi_endproc
ARM GAS  /tmp/ccNuozho.s 			page 6


 100              	.LFE4:
 101              		.size	ClockSetup, .-ClockSetup
 102              		.section	.text.SetAnalogRoutingPumps,"ax",%progbits
 103              		.align	2
 104              		.global	SetAnalogRoutingPumps
 105              		.code	16
 106              		.thumb_func
 107              		.type	SetAnalogRoutingPumps, %function
 108              	SetAnalogRoutingPumps:
 109              	.LFB6:
 187:Generated_Source/PSoC4/cyfitter_cfg.c **** 
 188:Generated_Source/PSoC4/cyfitter_cfg.c **** 
 189:Generated_Source/PSoC4/cyfitter_cfg.c **** /* Analog API Functions */
 190:Generated_Source/PSoC4/cyfitter_cfg.c **** 
 191:Generated_Source/PSoC4/cyfitter_cfg.c **** 
 192:Generated_Source/PSoC4/cyfitter_cfg.c **** /*******************************************************************************
 193:Generated_Source/PSoC4/cyfitter_cfg.c **** * Function Name: AnalogSetDefault
 194:Generated_Source/PSoC4/cyfitter_cfg.c **** ********************************************************************************
 195:Generated_Source/PSoC4/cyfitter_cfg.c **** *
 196:Generated_Source/PSoC4/cyfitter_cfg.c **** * Summary:
 197:Generated_Source/PSoC4/cyfitter_cfg.c **** *  Sets up the analog portions of the chip to default values based on chip
 198:Generated_Source/PSoC4/cyfitter_cfg.c **** *  configuration options from the project.
 199:Generated_Source/PSoC4/cyfitter_cfg.c **** *
 200:Generated_Source/PSoC4/cyfitter_cfg.c **** * Parameters:
 201:Generated_Source/PSoC4/cyfitter_cfg.c **** *  void
 202:Generated_Source/PSoC4/cyfitter_cfg.c **** *
 203:Generated_Source/PSoC4/cyfitter_cfg.c **** * Return:
 204:Generated_Source/PSoC4/cyfitter_cfg.c **** *  void
 205:Generated_Source/PSoC4/cyfitter_cfg.c **** *
 206:Generated_Source/PSoC4/cyfitter_cfg.c **** *******************************************************************************/
 207:Generated_Source/PSoC4/cyfitter_cfg.c **** static void AnalogSetDefault(void);
 208:Generated_Source/PSoC4/cyfitter_cfg.c **** static void AnalogSetDefault(void)
 209:Generated_Source/PSoC4/cyfitter_cfg.c **** {
 210:Generated_Source/PSoC4/cyfitter_cfg.c **** 	CY_SET_XTND_REG32((void CYFAR *)CYREG_CSD_SW_DSI_SEL, 0x00000011u);
 211:Generated_Source/PSoC4/cyfitter_cfg.c **** 	SetAnalogRoutingPumps(1);
 212:Generated_Source/PSoC4/cyfitter_cfg.c **** }
 213:Generated_Source/PSoC4/cyfitter_cfg.c **** 
 214:Generated_Source/PSoC4/cyfitter_cfg.c **** 
 215:Generated_Source/PSoC4/cyfitter_cfg.c **** /*******************************************************************************
 216:Generated_Source/PSoC4/cyfitter_cfg.c **** * Function Name: SetAnalogRoutingPumps
 217:Generated_Source/PSoC4/cyfitter_cfg.c **** ********************************************************************************
 218:Generated_Source/PSoC4/cyfitter_cfg.c **** *
 219:Generated_Source/PSoC4/cyfitter_cfg.c **** * Summary:
 220:Generated_Source/PSoC4/cyfitter_cfg.c **** * Enables or disables the analog pumps feeding analog routing switches.
 221:Generated_Source/PSoC4/cyfitter_cfg.c **** * Intended to be called at startup, based on the Vdda system configuration;
 222:Generated_Source/PSoC4/cyfitter_cfg.c **** * may be called during operation when the user informs us that the Vdda voltage crossed the pump th
 223:Generated_Source/PSoC4/cyfitter_cfg.c **** *
 224:Generated_Source/PSoC4/cyfitter_cfg.c **** * Parameters:
 225:Generated_Source/PSoC4/cyfitter_cfg.c **** *  enabled - 1 to enable the pumps, 0 to disable the pumps
 226:Generated_Source/PSoC4/cyfitter_cfg.c **** *
 227:Generated_Source/PSoC4/cyfitter_cfg.c **** * Return:
 228:Generated_Source/PSoC4/cyfitter_cfg.c **** *  void
 229:Generated_Source/PSoC4/cyfitter_cfg.c **** *
 230:Generated_Source/PSoC4/cyfitter_cfg.c **** *******************************************************************************/
 231:Generated_Source/PSoC4/cyfitter_cfg.c **** void SetAnalogRoutingPumps(uint8 enabled)
 232:Generated_Source/PSoC4/cyfitter_cfg.c **** {
 110              		.loc 1 232 0
ARM GAS  /tmp/ccNuozho.s 			page 7


 111              		.cfi_startproc
 112              	.LVL1:
 233:Generated_Source/PSoC4/cyfitter_cfg.c **** 	uint32 regValue = CY_GET_XTND_REG32((void *)(CYREG_HSIOM_PUMP_CTL));
 113              		.loc 1 233 0
 114 0000 0B4B     		ldr	r3, .L9
 115 0002 1B68     		ldr	r3, [r3]
 116              	.LVL2:
 234:Generated_Source/PSoC4/cyfitter_cfg.c **** 	if (enabled != 0u)
 117              		.loc 1 234 0
 118 0004 0028     		cmp	r0, #0
 119 0006 03D0     		beq	.L5
 235:Generated_Source/PSoC4/cyfitter_cfg.c **** 	{
 236:Generated_Source/PSoC4/cyfitter_cfg.c **** 		regValue |= 0x80000000u;
 120              		.loc 1 236 0
 121 0008 8022     		mov	r2, #128
 122 000a 1206     		lsl	r2, r2, #24
 123 000c 1343     		orr	r3, r2
 124              	.LVL3:
 125 000e 01E0     		b	.L6
 126              	.L5:
 237:Generated_Source/PSoC4/cyfitter_cfg.c **** 	}
 238:Generated_Source/PSoC4/cyfitter_cfg.c **** 	else
 239:Generated_Source/PSoC4/cyfitter_cfg.c **** 	{
 240:Generated_Source/PSoC4/cyfitter_cfg.c **** 		regValue &= ~0x80000000u;
 127              		.loc 1 240 0
 128 0010 5B00     		lsl	r3, r3, #1
 129              	.LVL4:
 130 0012 5B08     		lsr	r3, r3, #1
 131              	.LVL5:
 132              	.L6:
 241:Generated_Source/PSoC4/cyfitter_cfg.c **** 	}
 242:Generated_Source/PSoC4/cyfitter_cfg.c **** 	CY_SET_XTND_REG32((void *)(CYREG_HSIOM_PUMP_CTL), regValue);
 133              		.loc 1 242 0
 134 0014 064A     		ldr	r2, .L9
 135 0016 1360     		str	r3, [r2]
 243:Generated_Source/PSoC4/cyfitter_cfg.c **** 	regValue = CY_GET_XTND_REG32((void *)(CYREG_CLK_SELECT));
 136              		.loc 1 243 0
 137 0018 064B     		ldr	r3, .L9+4
 138              	.LVL6:
 139 001a 1B68     		ldr	r3, [r3]
 140              	.LVL7:
 244:Generated_Source/PSoC4/cyfitter_cfg.c **** 	if (enabled != 0u)
 141              		.loc 1 244 0
 142 001c 0028     		cmp	r0, #0
 143 001e 02D0     		beq	.L7
 245:Generated_Source/PSoC4/cyfitter_cfg.c **** 	{
 246:Generated_Source/PSoC4/cyfitter_cfg.c **** 		regValue |= 0x00000020u;
 144              		.loc 1 246 0
 145 0020 2022     		mov	r2, #32
 146 0022 1343     		orr	r3, r2
 147              	.LVL8:
 148 0024 01E0     		b	.L8
 149              	.L7:
 247:Generated_Source/PSoC4/cyfitter_cfg.c **** 	}
 248:Generated_Source/PSoC4/cyfitter_cfg.c **** 	else
 249:Generated_Source/PSoC4/cyfitter_cfg.c **** 	{
 250:Generated_Source/PSoC4/cyfitter_cfg.c **** 		regValue &= ~0x00000020u;
ARM GAS  /tmp/ccNuozho.s 			page 8


 150              		.loc 1 250 0
 151 0026 2022     		mov	r2, #32
 152 0028 9343     		bic	r3, r2
 153              	.LVL9:
 154              	.L8:
 251:Generated_Source/PSoC4/cyfitter_cfg.c **** 	}
 252:Generated_Source/PSoC4/cyfitter_cfg.c **** 	CY_SET_XTND_REG32((void *)(CYREG_CLK_SELECT), regValue);
 155              		.loc 1 252 0
 156 002a 024A     		ldr	r2, .L9+4
 157 002c 1360     		str	r3, [r2]
 253:Generated_Source/PSoC4/cyfitter_cfg.c **** }
 158              		.loc 1 253 0
 159              		@ sp needed
 160 002e 7047     		bx	lr
 161              	.L10:
 162              		.align	2
 163              	.L9:
 164 0030 00200240 		.word	1073881088
 165 0034 28000340 		.word	1073938472
 166              		.cfi_endproc
 167              	.LFE6:
 168              		.size	SetAnalogRoutingPumps, .-SetAnalogRoutingPumps
 169              		.section	.text.AnalogSetDefault,"ax",%progbits
 170              		.align	2
 171              		.code	16
 172              		.thumb_func
 173              		.type	AnalogSetDefault, %function
 174              	AnalogSetDefault:
 175              	.LFB5:
 209:Generated_Source/PSoC4/cyfitter_cfg.c **** 	CY_SET_XTND_REG32((void CYFAR *)CYREG_CSD_SW_DSI_SEL, 0x00000011u);
 176              		.loc 1 209 0
 177              		.cfi_startproc
 178 0000 08B5     		push	{r3, lr}
 179              		.cfi_def_cfa_offset 8
 180              		.cfi_offset 3, -8
 181              		.cfi_offset 14, -4
 210:Generated_Source/PSoC4/cyfitter_cfg.c **** 	SetAnalogRoutingPumps(1);
 182              		.loc 1 210 0
 183 0002 1122     		mov	r2, #17
 184 0004 024B     		ldr	r3, .L12
 185 0006 1A60     		str	r2, [r3]
 211:Generated_Source/PSoC4/cyfitter_cfg.c **** }
 186              		.loc 1 211 0
 187 0008 0120     		mov	r0, #1
 188 000a FFF7FEFF 		bl	SetAnalogRoutingPumps
 189              	.LVL10:
 212:Generated_Source/PSoC4/cyfitter_cfg.c **** 
 190              		.loc 1 212 0
 191              		@ sp needed
 192 000e 08BD     		pop	{r3, pc}
 193              	.L13:
 194              		.align	2
 195              	.L12:
 196 0010 C0020B40 		.word	1074463424
 197              		.cfi_endproc
 198              	.LFE5:
 199              		.size	AnalogSetDefault, .-AnalogSetDefault
ARM GAS  /tmp/ccNuozho.s 			page 9


 200              		.section	.psocinit
 201              		.align	2
 202              		.global	cyfitter_cfg
 203              		.code	16
 204              		.thumb_func
 205              		.type	cyfitter_cfg, %function
 206              	cyfitter_cfg:
 207              	.LFB7:
 254:Generated_Source/PSoC4/cyfitter_cfg.c **** 
 255:Generated_Source/PSoC4/cyfitter_cfg.c **** #define CY_AMUX_UNUSED CYREG_CM0P_ROM_DWT
 256:Generated_Source/PSoC4/cyfitter_cfg.c **** 
 257:Generated_Source/PSoC4/cyfitter_cfg.c **** 
 258:Generated_Source/PSoC4/cyfitter_cfg.c **** /*******************************************************************************
 259:Generated_Source/PSoC4/cyfitter_cfg.c **** * Function Name: cyfitter_cfg
 260:Generated_Source/PSoC4/cyfitter_cfg.c **** ********************************************************************************
 261:Generated_Source/PSoC4/cyfitter_cfg.c **** * Summary:
 262:Generated_Source/PSoC4/cyfitter_cfg.c **** *  This function is called by the start-up code for the selected device. It
 263:Generated_Source/PSoC4/cyfitter_cfg.c **** *  performs all of the necessary device configuration based on the design
 264:Generated_Source/PSoC4/cyfitter_cfg.c **** *  settings.  This includes settings from the Design Wide Resources (DWR) such
 265:Generated_Source/PSoC4/cyfitter_cfg.c **** *  as Clocks and Pins as well as any component configuration that is necessary.
 266:Generated_Source/PSoC4/cyfitter_cfg.c **** *
 267:Generated_Source/PSoC4/cyfitter_cfg.c **** * Parameters:  
 268:Generated_Source/PSoC4/cyfitter_cfg.c **** *   void
 269:Generated_Source/PSoC4/cyfitter_cfg.c **** *
 270:Generated_Source/PSoC4/cyfitter_cfg.c **** * Return:
 271:Generated_Source/PSoC4/cyfitter_cfg.c **** *   void
 272:Generated_Source/PSoC4/cyfitter_cfg.c **** *
 273:Generated_Source/PSoC4/cyfitter_cfg.c **** *******************************************************************************/
 274:Generated_Source/PSoC4/cyfitter_cfg.c **** CY_CFG_SECTION
 275:Generated_Source/PSoC4/cyfitter_cfg.c **** void cyfitter_cfg(void)
 276:Generated_Source/PSoC4/cyfitter_cfg.c **** {
 208              		.loc 1 276 0
 209              		.cfi_startproc
 210 0080 08B5     		push	{r3, lr}
 211              		.cfi_def_cfa_offset 8
 212              		.cfi_offset 3, -8
 213              		.cfi_offset 14, -4
 277:Generated_Source/PSoC4/cyfitter_cfg.c **** 	/* Disable interrupts by default. Let user enable if/when they want. */
 278:Generated_Source/PSoC4/cyfitter_cfg.c **** 	CyGlobalIntDisable;
 214              		.loc 1 278 0
 215              	@ 278 "Generated_Source/PSoC4/cyfitter_cfg.c" 1
 216 0082 72B6     		CPSID   i
 217              	@ 0 "" 2
 279:Generated_Source/PSoC4/cyfitter_cfg.c **** 
 280:Generated_Source/PSoC4/cyfitter_cfg.c **** 	{
 281:Generated_Source/PSoC4/cyfitter_cfg.c **** 		/* HSIOM Starting address: CYDEV_HSIOM_BASE */
 282:Generated_Source/PSoC4/cyfitter_cfg.c **** 		CY_SET_XTND_REG32((void CYFAR *)(CYDEV_HSIOM_BASE), 0x0F000000u);
 218              		.loc 1 282 0
 219              		.code	16
 220 0084 F022     		mov	r2, #240
 221 0086 1205     		lsl	r2, r2, #20
 222 0088 1A4B     		ldr	r3, .L15
 223 008a 1A60     		str	r2, [r3]
 283:Generated_Source/PSoC4/cyfitter_cfg.c **** 		CY_SET_XTND_REG32((void CYFAR *)(CYREG_HSIOM_PORT_SEL3), 0x0000EE0Fu);
 224              		.loc 1 283 0
 225 008c 1A4A     		ldr	r2, .L15+4
 226 008e 1B4B     		ldr	r3, .L15+8
ARM GAS  /tmp/ccNuozho.s 			page 10


 227 0090 1A60     		str	r2, [r3]
 284:Generated_Source/PSoC4/cyfitter_cfg.c **** 		CY_SET_XTND_REG32((void CYFAR *)(CYREG_HSIOM_PORT_SEL4), 0x00000099u);
 228              		.loc 1 284 0
 229 0092 9922     		mov	r2, #153
 230 0094 1A4B     		ldr	r3, .L15+12
 231 0096 1A60     		str	r2, [r3]
 285:Generated_Source/PSoC4/cyfitter_cfg.c **** 
 286:Generated_Source/PSoC4/cyfitter_cfg.c **** 	}
 287:Generated_Source/PSoC4/cyfitter_cfg.c **** 
 288:Generated_Source/PSoC4/cyfitter_cfg.c **** 	/* Perform second pass device configuration. These items must be configured in specific order afte
 289:Generated_Source/PSoC4/cyfitter_cfg.c **** 	/* IOPINS0_0 Starting address: CYDEV_GPIO_PRT0_BASE */
 290:Generated_Source/PSoC4/cyfitter_cfg.c **** 	CY_SET_XTND_REG32((void CYFAR *)(CYDEV_GPIO_PRT0_BASE), 0x00000073u);
 232              		.loc 1 290 0
 233 0098 7323     		mov	r3, #115
 234 009a 1A4A     		ldr	r2, .L15+16
 235 009c 1360     		str	r3, [r2]
 291:Generated_Source/PSoC4/cyfitter_cfg.c **** 	CY_SET_XTND_REG32((void CYFAR *)(CYREG_GPIO_PRT0_PC), 0x00180000u);
 236              		.loc 1 291 0
 237 009e C021     		mov	r1, #192
 238 00a0 4903     		lsl	r1, r1, #13
 239 00a2 194A     		ldr	r2, .L15+20
 240 00a4 1160     		str	r1, [r2]
 292:Generated_Source/PSoC4/cyfitter_cfg.c **** 	CY_SET_XTND_REG32((void CYFAR *)(CYREG_GPIO_PRT0_PC2), 0x00000073u);
 241              		.loc 1 292 0
 242 00a6 194A     		ldr	r2, .L15+24
 243 00a8 1360     		str	r3, [r2]
 293:Generated_Source/PSoC4/cyfitter_cfg.c **** 
 294:Generated_Source/PSoC4/cyfitter_cfg.c **** 	/* IOPINS0_1 Starting address: CYDEV_GPIO_PRT1_BASE */
 295:Generated_Source/PSoC4/cyfitter_cfg.c **** 	CY_SET_XTND_REG32((void CYFAR *)(CYDEV_GPIO_PRT1_BASE), 0x0000008Cu);
 244              		.loc 1 295 0
 245 00aa 1933     		add	r3, r3, #25
 246 00ac 184A     		ldr	r2, .L15+28
 247 00ae 1360     		str	r3, [r2]
 296:Generated_Source/PSoC4/cyfitter_cfg.c **** 	CY_SET_XTND_REG32((void CYFAR *)(CYREG_GPIO_PRT1_PC2), 0x0000008Cu);
 248              		.loc 1 296 0
 249 00b0 184A     		ldr	r2, .L15+32
 250 00b2 1360     		str	r3, [r2]
 297:Generated_Source/PSoC4/cyfitter_cfg.c **** 
 298:Generated_Source/PSoC4/cyfitter_cfg.c **** 	/* IOPINS0_2 Starting address: CYDEV_GPIO_PRT2_BASE */
 299:Generated_Source/PSoC4/cyfitter_cfg.c **** 	CY_SET_XTND_REG32((void CYFAR *)(CYDEV_GPIO_PRT2_BASE), 0x00000003u);
 251              		.loc 1 299 0
 252 00b4 893B     		sub	r3, r3, #137
 253 00b6 184A     		ldr	r2, .L15+36
 254 00b8 1360     		str	r3, [r2]
 300:Generated_Source/PSoC4/cyfitter_cfg.c **** 	CY_SET_XTND_REG32((void CYFAR *)(CYREG_GPIO_PRT2_PC), 0x00D80000u);
 255              		.loc 1 300 0
 256 00ba D821     		mov	r1, #216
 257 00bc 0904     		lsl	r1, r1, #16
 258 00be 174A     		ldr	r2, .L15+40
 259 00c0 1160     		str	r1, [r2]
 301:Generated_Source/PSoC4/cyfitter_cfg.c **** 	CY_SET_XTND_REG32((void CYFAR *)(CYREG_GPIO_PRT2_PC2), 0x00000003u);
 260              		.loc 1 301 0
 261 00c2 174A     		ldr	r2, .L15+44
 262 00c4 1360     		str	r3, [r2]
 302:Generated_Source/PSoC4/cyfitter_cfg.c **** 
 303:Generated_Source/PSoC4/cyfitter_cfg.c **** 	/* IOPINS0_3 Starting address: CYDEV_GPIO_PRT3_BASE */
 304:Generated_Source/PSoC4/cyfitter_cfg.c **** 	CY_SET_XTND_REG32((void CYFAR *)(CYDEV_GPIO_PRT3_BASE), 0x00000001u);
ARM GAS  /tmp/ccNuozho.s 			page 11


 263              		.loc 1 304 0
 264 00c6 023B     		sub	r3, r3, #2
 265 00c8 164A     		ldr	r2, .L15+48
 266 00ca 1360     		str	r3, [r2]
 305:Generated_Source/PSoC4/cyfitter_cfg.c **** 	CY_SET_XTND_REG32((void CYFAR *)(CYREG_GPIO_PRT3_PC), 0x00000D86u);
 267              		.loc 1 305 0
 268 00cc 1649     		ldr	r1, .L15+52
 269 00ce 174A     		ldr	r2, .L15+56
 270 00d0 1160     		str	r1, [r2]
 306:Generated_Source/PSoC4/cyfitter_cfg.c **** 	CY_SET_XTND_REG32((void CYFAR *)(CYREG_GPIO_PRT3_PC2), 0x00000001u);
 271              		.loc 1 306 0
 272 00d2 174A     		ldr	r2, .L15+60
 273 00d4 1360     		str	r3, [r2]
 307:Generated_Source/PSoC4/cyfitter_cfg.c **** 
 308:Generated_Source/PSoC4/cyfitter_cfg.c **** 	/* IOPINS0_4 Starting address: CYDEV_GPIO_PRT4_BASE */
 309:Generated_Source/PSoC4/cyfitter_cfg.c **** 	CY_SET_XTND_REG32((void CYFAR *)(CYDEV_GPIO_PRT4_BASE), 0x00000002u);
 274              		.loc 1 309 0
 275 00d6 0222     		mov	r2, #2
 276 00d8 164B     		ldr	r3, .L15+64
 277 00da 1A60     		str	r2, [r3]
 310:Generated_Source/PSoC4/cyfitter_cfg.c **** 	CY_SET_XTND_REG32((void CYFAR *)(CYREG_GPIO_PRT4_PC), 0x00000031u);
 278              		.loc 1 310 0
 279 00dc 2F32     		add	r2, r2, #47
 280 00de 164B     		ldr	r3, .L15+68
 281 00e0 1A60     		str	r2, [r3]
 311:Generated_Source/PSoC4/cyfitter_cfg.c **** 	CY_SET_XTND_REG32((void CYFAR *)(CYREG_GPIO_PRT4_PC2), 0x0000000Eu);
 282              		.loc 1 311 0
 283 00e2 233A     		sub	r2, r2, #35
 284 00e4 154B     		ldr	r3, .L15+72
 285 00e6 1A60     		str	r2, [r3]
 312:Generated_Source/PSoC4/cyfitter_cfg.c **** 
 313:Generated_Source/PSoC4/cyfitter_cfg.c **** 
 314:Generated_Source/PSoC4/cyfitter_cfg.c **** 	/* Setup clocks based on selections from Clock DWR */
 315:Generated_Source/PSoC4/cyfitter_cfg.c **** 	ClockSetup();
 286              		.loc 1 315 0
 287 00e8 FFF78AFF 		bl	ClockSetup
 288              	.LVL11:
 316:Generated_Source/PSoC4/cyfitter_cfg.c **** 
 317:Generated_Source/PSoC4/cyfitter_cfg.c **** 	/* Perform basic analog initialization to defaults */
 318:Generated_Source/PSoC4/cyfitter_cfg.c **** 	AnalogSetDefault();
 289              		.loc 1 318 0
 290 00ec FFF7FEFF 		bl	AnalogSetDefault
 291              	.LVL12:
 319:Generated_Source/PSoC4/cyfitter_cfg.c **** 
 320:Generated_Source/PSoC4/cyfitter_cfg.c **** }
 292              		.loc 1 320 0
 293              		@ sp needed
 294 00f0 08BD     		pop	{r3, pc}
 295              	.L16:
 296 00f2 C046     		.align	2
 297              	.L15:
 298 00f4 00000240 		.word	1073872896
 299 00f8 0FEE0000 		.word	60943
 300 00fc 00030240 		.word	1073873664
 301 0100 00040240 		.word	1073873920
 302 0104 00000440 		.word	1074003968
 303 0108 08000440 		.word	1074003976
ARM GAS  /tmp/ccNuozho.s 			page 12


 304 010c 18000440 		.word	1074003992
 305 0110 00010440 		.word	1074004224
 306 0114 18010440 		.word	1074004248
 307 0118 00020440 		.word	1074004480
 308 011c 08020440 		.word	1074004488
 309 0120 18020440 		.word	1074004504
 310 0124 00030440 		.word	1074004736
 311 0128 860D0000 		.word	3462
 312 012c 08030440 		.word	1074004744
 313 0130 18030440 		.word	1074004760
 314 0134 00040440 		.word	1074004992
 315 0138 08040440 		.word	1074005000
 316 013c 18040440 		.word	1074005016
 317              		.cfi_endproc
 318              	.LFE7:
 319              		.size	cyfitter_cfg, .-cyfitter_cfg
 320              		.text
 321              	.Letext0:
 322              		.file 2 "Generated_Source/PSoC4/cytypes.h"
 323              		.file 3 "Generated_Source/PSoC4/CyLib.h"