ARM GAS  C:\Users\BG1026~1\AppData\Local\Temp\cc2n2B4u.s 			page 1


   1              		.cpu cortex-m0plus
   2              		.fpu softvfp
   3              		.eabi_attribute 20, 1
   4              		.eabi_attribute 21, 1
   5              		.eabi_attribute 23, 3
   6              		.eabi_attribute 24, 1
   7              		.eabi_attribute 25, 1
   8              		.eabi_attribute 26, 1
   9              		.eabi_attribute 30, 1
  10              		.eabi_attribute 34, 0
  11              		.eabi_attribute 18, 4
  12              		.code	16
  13              		.file	"main.c"
  14              		.text
  15              	.Ltext0:
  16              		.cfi_sections	.debug_frame
  17              		.global	__aeabi_idivmod
  18              		.global	__aeabi_idiv
  19              		.section	.text.itoa,"ax",%progbits
  20              		.align	2
  21              		.global	itoa
  22              		.code	16
  23              		.thumb_func
  24              		.type	itoa, %function
  25              	itoa:
  26              	.LFB35:
  27              		.file 1 "main.c"
   1:main.c        **** ﻿#include <project.h>
   2:main.c        **** 
   3:main.c        **** #define FOR_COLIN
   4:main.c        **** #define VERSION                   "0.02"
   5:main.c        **** #define MAX_LEDS                  24 
   6:main.c        **** #define NUMBER_OF_SEGMENTS        10
   7:main.c        **** #define NUMBER_OF_WHITE_LEDS      15
   8:main.c        **** #define NUMBER_OF_COLORED_LEDS    6
   9:main.c        **** #define SLIDER_RESOLUTION         100
  10:main.c        **** #define TOTAL_NUMBER_OF_LEDS      (NUMBER_OF_WHITE_LEDS + NUMBER_OF_WHITE_LEDS)
  11:main.c        **** #define SLIDER_BUCKETS            (SLIDER_RESOLUTION/NUMBER_OF_SEGMENTS)
  12:main.c        **** #define DEFAULT_NUMBER_OF_BUTTONS 6      // [1..NUMBER_OF_WHITE_LEDS]
  13:main.c        **** #define INVALID_CAP_POS           0xFFFF
  14:main.c        **** #define MAX_INTENSITY             0x0FFF //0x00FF // FIXME! 0x0FFF to save the battery
  15:main.c        **** #define MAX_COLOR                 0x0FFF
  16:main.c        **** #define START_OF_CMD              '{'
  17:main.c        **** #define END_OF_CMD                '}'
  18:main.c        **** #define USE_UART                  1
  19:main.c        **** #define USE_TUNER                 0
  20:main.c        **** #define INVALID_LED_POS           ((uint16)UINT_MAX)
  21:main.c        **** #define INT_DIGITS                11 // enough for 32 bits int
  22:main.c        **** 
  23:main.c        **** #ifndef BOOL
  24:main.c        **** #define BOOL uint8
  25:main.c        **** #endif // BOOL
  26:main.c        **** 
  27:main.c        **** #ifndef TRUE
  28:main.c        **** #define TRUE  1
  29:main.c        **** #define FALSE 0
  30:main.c        **** #endif // TRUE
ARM GAS  C:\Users\BG1026~1\AppData\Local\Temp\cc2n2B4u.s 			page 2


  31:main.c        **** 
  32:main.c        **** #ifndef min
  33:main.c        **** #define min(a,b) ((a)<(b)?(a):(b))
  34:main.c        **** #define max(a,b) ((a)>(b)?(a):(b))    
  35:main.c        **** #endif // min
  36:main.c        **** 
  37:main.c        **** typedef struct struct_rgb_color {
  38:main.c        ****     char8 red  ;
  39:main.c        ****     char8 green;
  40:main.c        ****     char8 blue ;
  41:main.c        **** }t_struct_rgb_color;
  42:main.c        **** 
  43:main.c        **** typedef enum enum_primaty_color
  44:main.c        **** {
  45:main.c        ****     E_RED = 0,    
  46:main.c        ****     E_GREEN  ,
  47:main.c        ****     E_BLUE
  48:main.c        **** }t_enum_primary_color;
  49:main.c        **** 
  50:main.c        **** typedef enum enum_color_led_pos
  51:main.c        **** {
  52:main.c        ****     E_LED_RIGHT_RED = 18, 
  53:main.c        ****     E_LED_RIGHT_GREEN   ,   
  54:main.c        ****     E_LED_RIGHT_BLUE    ,
  55:main.c        ****     E_LED_LEFT_RED      ,
  56:main.c        ****     E_LED_LEFT_GREEN    ,
  57:main.c        ****     E_LED_LEFT_BLUE
  58:main.c        **** }t_enum_color_led_pos;
  59:main.c        **** 
  60:main.c        **** typedef enum enum_alarm_type
  61:main.c        **** {
  62:main.c        ****     ALARM_LOG = 0,
  63:main.c        ****     ALARM_INFO   ,
  64:main.c        ****     ALARM_WARNING,
  65:main.c        ****     ALARM_ERROR  ,
  66:main.c        ****     ALARM_FATAL  ,
  67:main.c        ****     ALARM_UNKNOWN// keep it last, not an alarm type
  68:main.c        **** }t_enum_alarm_type;
  69:main.c        **** 
  70:main.c        **** typedef enum enum_command
  71:main.c        **** {
  72:main.c        ****     CMD_ANIMATION,
  73:main.c        ****     CMD_CAPSENSE ,
  74:main.c        ****     CMD_LED      ,
  75:main.c        ****     CMD_HELP     ,
  76:main.c        ****     CMD_TRACKER  ,
  77:main.c        ****     CMD_VERSION  ,
  78:main.c        ****     CMD_UNKNOWN  // keep it last, not a command
  79:main.c        **** }t_enum_command;
  80:main.c        **** 
  81:main.c        **** typedef enum enum_anim_command
  82:main.c        **** {
  83:main.c        ****     CMD_ANIM_AUTO = 0,
  84:main.c        ****     CMD_ANIM_MANUAL  ,
  85:main.c        ****     CMD_ANIM_STOP    ,
  86:main.c        ****     CMD_ANIM_RESUME  , 
  87:main.c        ****     CMD_ANIM_UNKNOWN  // keep it last
ARM GAS  C:\Users\BG1026~1\AppData\Local\Temp\cc2n2B4u.s 			page 3


  88:main.c        **** }t_enum_anim_command;
  89:main.c        **** 
  90:main.c        **** typedef enum enum_tracker_command
  91:main.c        **** {
  92:main.c        ****     CMD_TRACKER_ENABLE = 0,
  93:main.c        ****     CMD_TRACKER_DISABLE   ,
  94:main.c        ****     CMD_TRACKER_SET_BUTTON,
  95:main.c        ****     CMD_TRACKER_UNKNOWN   // keep it last
  96:main.c        **** }t_enum_tracker_command;
  97:main.c        **** 
  98:main.c        **** typedef enum enum_led_command
  99:main.c        **** {
 100:main.c        ****     CMD_LED_CLEAR = 0      ,   
 101:main.c        ****     CMD_LED_SET_COLOR_LEFT ,
 102:main.c        ****     CMD_LED_SET_COLOR_RIGHT,
 103:main.c        ****     CMD_LED_SET_WHITE      ,
 104:main.c        ****     CMD_LED_SET_STRIP      ,
 105:main.c        ****     CMD_LED_UNKNOWN
 106:main.c        **** }t_enum_led_command;
 107:main.c        **** 
 108:main.c        **** typedef enum enum_animation
 109:main.c        **** {
 110:main.c        ****     ANIM_LEFT_RIGHT = 0  ,
 111:main.c        ****     ANIM_INTENSITY       ,
 112:main.c        ****     ANIM_2_LEDS          ,
 113:main.c        ****     ANIM_RED_INTENSITY   ,
 114:main.c        ****     ANIM_GREEN_INTENSITY ,
 115:main.c        ****     ANIM_BLUE_INTENSITY  ,
 116:main.c        ****     ANIM_COLORS_INTENSITY,
 117:main.c        ****     ANIM_RAINBOW_COLORS  ,
 118:main.c        ****     ANIM_FIX_WHITE       , 
 119:main.c        ****     ANIM_UNKNOWN         // keep it last, not an animation
 120:main.c        **** }t_enum_animation;
 121:main.c        **** 
 122:main.c        **** typedef struct struct_command
 123:main.c        **** {
 124:main.c        ****     uint16      id  ; 
 125:main.c        ****     const char* name;
 126:main.c        ****     const char* description;
 127:main.c        **** }t_struct_command;
 128:main.c        **** 
 129:main.c        **** typedef void (*t_callback_anim) (void);
 130:main.c        **** 
 131:main.c        **** typedef struct struct_animation
 132:main.c        **** {
 133:main.c        ****     t_enum_animation id         ;
 134:main.c        ****     t_callback_anim  callback   ;
 135:main.c        ****     const char*      description;    
 136:main.c        **** }struct_animation_t;
 137:main.c        **** 
 138:main.c        **** typedef struct tlc_5947_led_driver 
 139:main.c        **** {
 140:main.c        ****     uint16 led0 :12;
 141:main.c        ****     uint16 led1 :12;
 142:main.c        ****     uint16 led2 :12;
 143:main.c        ****     uint16 led3 :12;
 144:main.c        ****     uint16 led4 :12;
ARM GAS  C:\Users\BG1026~1\AppData\Local\Temp\cc2n2B4u.s 			page 4


 145:main.c        ****     uint16 led5 :12;
 146:main.c        ****     uint16 led6 :12;
 147:main.c        ****     uint16 led7 :12;
 148:main.c        ****     uint16 led8 :12;
 149:main.c        ****     uint16 led9 :12;
 150:main.c        ****     uint16 led10:12;
 151:main.c        ****     uint16 led11:12;
 152:main.c        ****     uint16 led12:12;
 153:main.c        ****     uint16 led13:12;
 154:main.c        ****     uint16 led14:12;
 155:main.c        ****     uint16 led15:12;
 156:main.c        ****     uint16 led16:12;
 157:main.c        ****     uint16 led17:12;
 158:main.c        ****     uint16 led18:12;
 159:main.c        ****     uint16 led19:12;
 160:main.c        ****     uint16 led20:12;
 161:main.c        ****     uint16 led21:12;
 162:main.c        ****     uint16 led22:12;
 163:main.c        ****     uint16 led23:12;
 164:main.c        **** }t_tlc_5947_led_driver;
 165:main.c        ****     
 166:main.c        **** void                   display_state                     (void);
 167:main.c        **** void                   animate_left_right                (void);
 168:main.c        **** void                   animate_intensity                 (void);
 169:main.c        **** void                   animate_2_leds                    (void);
 170:main.c        **** void                   animate_random                    (void);
 171:main.c        **** void                   animate_red_intensity             (void);
 172:main.c        **** void                   animate_green_intensity           (void);
 173:main.c        **** void                   animate_blue_intensity            (void);
 174:main.c        **** void                   animate_all_colors                (void);
 175:main.c        **** void                   animate_rainbow_colors            (void);
 176:main.c        **** void                   animate_fix_white                 (void);
 177:main.c        **** void                   animate_color_intensity           (t_enum_primary_color color);
 178:main.c        **** void                   set_led                           (char led, uint16 intensity);
 179:main.c        **** void                   set_all_leds_intensity            (uint16 intensity);
 180:main.c        **** void                   set_led_strip                     (uint16 led_vec[MAX_LEDS]);
 181:main.c        **** void                   clear_all_leds                    (void);
 182:main.c        **** void                   send_telemetry                    (const char* telemetry);
 183:main.c        **** void                   send_animation_telemetry          (int animation_index, const char* action);
 184:main.c        **** void                   send_button_telemetry             (int button         , const char* action);
 185:main.c        **** void                   send_alarm_telemetry              (t_enum_alarm_type alarm_type, const char*
 186:main.c        **** BOOL                   parse_and_execute_command         (char* command_str);
 187:main.c        **** t_enum_command         get_cmd_id_from_cmd_string        (const char* command_str);
 188:main.c        **** t_enum_anim_command    get_anim_cmd_id_from_cmd_string   (const char* cmd_str);
 189:main.c        **** t_enum_animation       get_anim_id_from_cmd_string       (const char* cmd_str);
 190:main.c        **** t_enum_tracker_command get_tracker_cmd_id_from_cmd_string(const char* cmd_str);
 191:main.c        **** t_enum_led_command     get_led_cmd_id_from_cmd_string    (const char* cmd_str);
 192:main.c        **** 
 193:main.c        **** static t_tlc_5947_led_driver led_buffer;
 194:main.c        **** static BOOL                  stop_anim             = FALSE;
 195:main.c        **** static BOOL                  auto_anim             = TRUE ;
 196:main.c        **** static BOOL                  tracker_enable        = TRUE;
 197:main.c        **** static int                   current_callback_anim = ANIM_LEFT_RIGHT;
 198:main.c        **** static uint16                cap_cur_pos           = INVALID_CAP_POS;
 199:main.c        **** static uint16                cap_old_pos           = INVALID_CAP_POS;
 200:main.c        **** static uint16                led_pos               = INVALID_LED_POS;
 201:main.c        **** static uint16                number_of_buttons     = DEFAULT_NUMBER_OF_BUTTONS;
ARM GAS  C:\Users\BG1026~1\AppData\Local\Temp\cc2n2B4u.s 			page 5


 202:main.c        **** 
 203:main.c        **** static struct_animation_t    vec_call_back_anim  [ANIM_UNKNOWN]       ={{ANIM_LEFT_RIGHT        , a
 204:main.c        ****                                                                         {ANIM_INTENSITY         , a
 205:main.c        ****                                                                         {ANIM_2_LEDS            , a
 206:main.c        ****                                                                         {ANIM_RED_INTENSITY     , a
 207:main.c        ****                                                                         {ANIM_GREEN_INTENSITY   , a
 208:main.c        ****                                                                         {ANIM_BLUE_INTENSITY    , a
 209:main.c        ****                                                                         {ANIM_COLORS_INTENSITY  , a
 210:main.c        ****                                                                         {ANIM_RAINBOW_COLORS    , a
 211:main.c        ****                                                                         {ANIM_FIX_WHITE         , a
 212:main.c        **** static t_struct_command      vec_anim_commands   [CMD_ANIM_UNKNOWN]   ={{CMD_ANIM_AUTO          , "
 213:main.c        ****                                                                         {CMD_ANIM_MANUAL        , "
 214:main.c        ****                                                                         {CMD_ANIM_STOP          , "
 215:main.c        ****                                                                         {CMD_ANIM_RESUME        , "
 216:main.c        **** static t_struct_command      vec_tracker_commands[CMD_TRACKER_UNKNOWN]={{CMD_TRACKER_DISABLE    , "
 217:main.c        ****                                                                         {CMD_TRACKER_ENABLE     , "
 218:main.c        ****                                                                         {CMD_TRACKER_SET_BUTTON , "
 219:main.c        **** static t_struct_command      vec_led_commands    [CMD_LED_UNKNOWN]    ={{CMD_LED_CLEAR          , "
 220:main.c        ****                                                                         {CMD_LED_SET_COLOR_LEFT , "
 221:main.c        ****                                                                         {CMD_LED_SET_COLOR_RIGHT, "
 222:main.c        ****                                                                         {CMD_LED_SET_WHITE      , "
 223:main.c        ****                                                                         {CMD_LED_SET_STRIP      , "
 224:main.c        **** static t_struct_command      vec_commands        [CMD_UNKNOWN]        ={{CMD_ANIMATION          , "
 225:main.c        ****                                                                         {CMD_CAPSENSE           , "
 226:main.c        ****                                                                         {CMD_HELP               , "
 227:main.c        ****                                                                         {CMD_LED                , "
 228:main.c        ****                                                                         {CMD_TRACKER            , "
 229:main.c        ****                                                                         {CMD_VERSION            , "
 230:main.c        **** 
 231:main.c        **** char* itoa(int i)
 232:main.c        **** {
  28              		.loc 1 232 0
  29              		.cfi_startproc
  30              	.LVL0:
  31 0000 38B5     		push	{r3, r4, r5, lr}
  32              		.cfi_def_cfa_offset 16
  33              		.cfi_offset 3, -16
  34              		.cfi_offset 4, -12
  35              		.cfi_offset 5, -8
  36              		.cfi_offset 14, -4
  37 0002 041E     		sub	r4, r0, #0
  38              	.LVL1:
 233:main.c        ****     static char buf[INT_DIGITS + 2]; // Room for INT_DIGITS digits, - and '\0'
 234:main.c        ****     char* p = buf + INT_DIGITS + 1;  // points to terminating '\0'
 235:main.c        ****   
 236:main.c        ****     if (i >= 0) {
  39              		.loc 1 236 0
  40 0004 10DB     		blt	.L5
  41 0006 134D     		ldr	r5, .L6
  42 0008 0C35     		add	r5, r5, #12
  43              	.LVL2:
  44              	.L3:
 237:main.c        ****         do 
 238:main.c        ****         {
 239:main.c        ****             *--p  = '0' + (i % 10);
  45              		.loc 1 239 0 discriminator 1
  46 000a 013D     		sub	r5, r5, #1
ARM GAS  C:\Users\BG1026~1\AppData\Local\Temp\cc2n2B4u.s 			page 6


  47              	.LVL3:
  48 000c 201C     		mov	r0, r4
  49 000e 0A21     		mov	r1, #10
  50 0010 FFF7FEFF 		bl	__aeabi_idivmod
  51              	.LVL4:
  52 0014 3031     		add	r1, r1, #48
  53 0016 2970     		strb	r1, [r5]
 240:main.c        ****             i    /= 10;
  54              		.loc 1 240 0 discriminator 1
  55 0018 201C     		mov	r0, r4
  56 001a 0A21     		mov	r1, #10
  57 001c FFF7FEFF 		bl	__aeabi_idiv
  58              	.LVL5:
  59 0020 041E     		sub	r4, r0, #0
  60              	.LVL6:
 241:main.c        ****         } while (i != 0);
  61              		.loc 1 241 0 discriminator 1
  62 0022 F2D1     		bne	.L3
 242:main.c        ****         return p;
  63              		.loc 1 242 0
  64 0024 281C     		mov	r0, r5
  65              	.LVL7:
  66 0026 13E0     		b	.L4
  67              	.LVL8:
  68              	.L5:
  69 0028 0A4D     		ldr	r5, .L6
  70 002a 0C35     		add	r5, r5, #12
  71              	.LVL9:
  72              	.L2:
 243:main.c        ****     }
 244:main.c        ****     else 
 245:main.c        ****     {			/* i < 0 */
 246:main.c        ****         do {
 247:main.c        ****             *--p  = '0' - (i % 10);
  73              		.loc 1 247 0 discriminator 1
  74 002c 013D     		sub	r5, r5, #1
  75              	.LVL10:
  76 002e 201C     		mov	r0, r4
  77 0030 0A21     		mov	r1, #10
  78 0032 FFF7FEFF 		bl	__aeabi_idivmod
  79              	.LVL11:
  80 0036 3023     		mov	r3, #48
  81 0038 591A     		sub	r1, r3, r1
  82 003a 2970     		strb	r1, [r5]
 248:main.c        ****             i    /= 10;
  83              		.loc 1 248 0 discriminator 1
  84 003c 201C     		mov	r0, r4
  85 003e 0A21     		mov	r1, #10
  86 0040 FFF7FEFF 		bl	__aeabi_idiv
  87              	.LVL12:
  88 0044 041E     		sub	r4, r0, #0
  89              	.LVL13:
 249:main.c        ****         } while (i != 0);
  90              		.loc 1 249 0 discriminator 1
  91 0046 F1D1     		bne	.L2
 250:main.c        ****         *--p = '-';
  92              		.loc 1 250 0
ARM GAS  C:\Users\BG1026~1\AppData\Local\Temp\cc2n2B4u.s 			page 7


  93 0048 013D     		sub	r5, r5, #1
  94              	.LVL14:
  95 004a 2D23     		mov	r3, #45
  96 004c 2B70     		strb	r3, [r5]
 251:main.c        ****     }
 252:main.c        ****     return p;
  97              		.loc 1 252 0
  98 004e 281C     		mov	r0, r5
  99              	.LVL15:
 100              	.L4:
 253:main.c        **** }// itoa
 101              		.loc 1 253 0
 102              		@ sp needed
 103              	.LVL16:
 104 0050 38BD     		pop	{r3, r4, r5, pc}
 105              	.L7:
 106 0052 C046     		.align	2
 107              	.L6:
 108 0054 00000000 		.word	.LANCHOR0
 109              		.cfi_endproc
 110              	.LFE35:
 111              		.size	itoa, .-itoa
 112              		.section	.text.atoi,"ax",%progbits
 113              		.align	2
 114              		.global	atoi
 115              		.code	16
 116              		.thumb_func
 117              		.type	atoi, %function
 118              	atoi:
 119              	.LFB36:
 254:main.c        **** 
 255:main.c        **** int atoi(register char* string)
 256:main.c        **** {
 120              		.loc 1 256 0
 121              		.cfi_startproc
 122              	.LVL17:
 123 0000 10B5     		push	{r4, lr}
 124              		.cfi_def_cfa_offset 8
 125              		.cfi_offset 4, -8
 126              		.cfi_offset 14, -4
 127              	.LVL18:
 257:main.c        ****     register int          result = 0;
 258:main.c        ****     register unsigned int digit  = 0;
 259:main.c        ****     int                   sign   = 0;
 260:main.c        **** 
 261:main.c        ****     while (isspace(*string)) 
 128              		.loc 1 261 0
 129 0002 00E0     		b	.L9
 130              	.L10:
 262:main.c        ****     {
 263:main.c        **** 	    string += 1;
 131              		.loc 1 263 0
 132 0004 0130     		add	r0, r0, #1
 133              	.LVL19:
 134              	.L9:
 261:main.c        ****     {
 135              		.loc 1 261 0
ARM GAS  C:\Users\BG1026~1\AppData\Local\Temp\cc2n2B4u.s 			page 8


 136 0006 0278     		ldrb	r2, [r0]
 137 0008 104B     		ldr	r3, .L18
 138 000a 1B68     		ldr	r3, [r3]
 139 000c 9B18     		add	r3, r3, r2
 140 000e 5B78     		ldrb	r3, [r3, #1]
 141 0010 1B07     		lsl	r3, r3, #28
 142 0012 F7D4     		bmi	.L10
 264:main.c        ****     }
 265:main.c        **** 
 266:main.c        ****     if (*string == '-') 
 143              		.loc 1 266 0
 144 0014 2D2A     		cmp	r2, #45
 145 0016 02D1     		bne	.L11
 146              	.LVL20:
 267:main.c        ****     {
 268:main.c        ****     	sign    = 1;
 269:main.c        ****     	string += 1;
 147              		.loc 1 269 0
 148 0018 0130     		add	r0, r0, #1
 149              	.LVL21:
 268:main.c        ****     	string += 1;
 150              		.loc 1 268 0
 151 001a 0124     		mov	r4, #1
 152 001c 05E0     		b	.L12
 153              	.LVL22:
 154              	.L11:
 270:main.c        ****     } 
 271:main.c        ****     else 
 272:main.c        ****     {
 273:main.c        ****     	sign = 0;
 274:main.c        ****     	if (*string == '+') 
 155              		.loc 1 274 0
 156 001e 2B2A     		cmp	r2, #43
 157 0020 02D1     		bne	.L17
 275:main.c        ****         {
 276:main.c        ****     	    string += 1;
 158              		.loc 1 276 0
 159 0022 0130     		add	r0, r0, #1
 160              	.LVL23:
 273:main.c        ****     	if (*string == '+') 
 161              		.loc 1 273 0
 162 0024 0024     		mov	r4, #0
 163 0026 00E0     		b	.L12
 164              	.L17:
 165 0028 0024     		mov	r4, #0
 166              	.LVL24:
 167              	.L12:
 168 002a 0023     		mov	r3, #0
 169              	.LVL25:
 170              	.L14:
 277:main.c        ****     	}
 278:main.c        ****     }
 279:main.c        **** 
 280:main.c        ****     for ( ; ; string += 1) 
 281:main.c        ****     {
 282:main.c        ****     	digit = *string - '0';
 171              		.loc 1 282 0
ARM GAS  C:\Users\BG1026~1\AppData\Local\Temp\cc2n2B4u.s 			page 9


 172 002c 0278     		ldrb	r2, [r0]
 173 002e 303A     		sub	r2, r2, #48
 174              	.LVL26:
 283:main.c        ****     	if (digit > 9) 
 175              		.loc 1 283 0
 176 0030 092A     		cmp	r2, #9
 177 0032 05D8     		bhi	.L13
 284:main.c        ****         {
 285:main.c        ****     	    break;
 286:main.c        ****     	}
 287:main.c        ****     	result = (10*result) + digit;
 178              		.loc 1 287 0
 179 0034 9900     		lsl	r1, r3, #2
 180 0036 CB18     		add	r3, r1, r3
 181              	.LVL27:
 182 0038 5B00     		lsl	r3, r3, #1
 183 003a 9B18     		add	r3, r3, r2
 184              	.LVL28:
 280:main.c        ****     {
 185              		.loc 1 280 0
 186 003c 0130     		add	r0, r0, #1
 187              	.LVL29:
 288:main.c        ****     }
 188              		.loc 1 288 0
 189 003e F5E7     		b	.L14
 190              	.L13:
 289:main.c        **** 
 290:main.c        ****     if (sign) 
 191              		.loc 1 290 0
 192 0040 002C     		cmp	r4, #0
 193 0042 01D0     		beq	.L15
 291:main.c        ****     {
 292:main.c        **** 	    return -result;
 194              		.loc 1 292 0
 195 0044 5842     		neg	r0, r3
 196              	.LVL30:
 197 0046 00E0     		b	.L16
 198              	.LVL31:
 199              	.L15:
 293:main.c        ****     }
 294:main.c        ****     
 295:main.c        ****     return result;
 200              		.loc 1 295 0
 201 0048 181C     		mov	r0, r3
 202              	.LVL32:
 203              	.L16:
 296:main.c        **** }// atoi
 204              		.loc 1 296 0
 205              		@ sp needed
 206              	.LVL33:
 207 004a 10BD     		pop	{r4, pc}
 208              	.L19:
 209              		.align	2
 210              	.L18:
 211 004c 00000000 		.word	__ctype_ptr__
 212              		.cfi_endproc
 213              	.LFE36:
ARM GAS  C:\Users\BG1026~1\AppData\Local\Temp\cc2n2B4u.s 			page 10


 214              		.size	atoi, .-atoi
 215              		.section	.text.get_cmd_id_from_cmd_string,"ax",%progbits
 216              		.align	2
 217              		.global	get_cmd_id_from_cmd_string
 218              		.code	16
 219              		.thumb_func
 220              		.type	get_cmd_id_from_cmd_string, %function
 221              	get_cmd_id_from_cmd_string:
 222              	.LFB38:
 297:main.c        **** 
 298:main.c        **** int main()
 299:main.c        **** {
 300:main.c        ****     BOOL  cap_sense_is_untouched  = TRUE;
 301:main.c        ****     BOOL  cap_sense_was_untouched = TRUE;    
 302:main.c        ****     char  uart_char_in            = 0;
 303:main.c        ****     int   receive_pos             = 0;
 304:main.c        ****     char* command                 = NULL;
 305:main.c        ****     char  receive_string[512];
 306:main.c        **** 
 307:main.c        ****     SPIM_Start ( );
 308:main.c        ****     Blank_Write(0);
 309:main.c        ****     Latch_Write(0);
 310:main.c        ****     CyDelayUs  (1);
 311:main.c        **** 
 312:main.c        ****     CyGlobalIntEnable; // enable global interrupts before starting capsense and I2C blocks
 313:main.c        **** 
 314:main.c        ****     clear_all_leds();
 315:main.c        **** 
 316:main.c        **** #if USE_UART
 317:main.c        ****     UART_1_Start();
 318:main.c        **** #else
 319:main.c        ****     EZI2C_Start();
 320:main.c        ****     EZI2C_EzI2CSetBuffer1(sizeof(CapSense_dsRam), sizeof(CapSense_dsRam), (uint8 *)&CapSense_dsRam)
 321:main.c        **** #endif // USE_UART
 322:main.c        **** 
 323:main.c        ****     CapSense_Start         ();
 324:main.c        ****     CapSense_ScanAllWidgets();
 325:main.c        **** 
 326:main.c        ****     memset(receive_string, '\0', sizeof(receive_string));
 327:main.c        **** 
 328:main.c        ****     for(;;)
 329:main.c        ****     {
 330:main.c        ****         // process data for previous scan and initiate new scan only when the capsense hardware is 
 331:main.c        ****         if(CapSense_NOT_BUSY == CapSense_IsBusy())
 332:main.c        ****         {
 333:main.c        ****             CapSense_ProcessAllWidgets();// Process data for all widgets
 334:main.c        **** 
 335:main.c        ****             cap_cur_pos            = CapSense_GetCentroidPos(0);
 336:main.c        ****             cap_sense_is_untouched = ((cap_cur_pos == INVALID_CAP_POS) && (cap_old_pos == INVALID_C
 337:main.c        **** 
 338:main.c        ****             if (cap_sense_is_untouched)
 339:main.c        ****             {
 340:main.c        ****                 if (! cap_sense_was_untouched)
 341:main.c        ****                 {
 342:main.c        ****                     if (auto_anim)
 343:main.c        ****                     {
 344:main.c        ****                         send_button_telemetry(led_pos, "up");
ARM GAS  C:\Users\BG1026~1\AppData\Local\Temp\cc2n2B4u.s 			page 11


 345:main.c        ****                         current_callback_anim++;
 346:main.c        ****                         current_callback_anim %= ANIM_UNKNOWN;
 347:main.c        ****                         clear_all_leds();
 348:main.c        ****                         send_animation_telemetry(current_callback_anim, "starting");
 349:main.c        ****                     }
 350:main.c        ****                 }
 351:main.c        ****                 if (! stop_anim)
 352:main.c        ****                 {
 353:main.c        ****                     vec_call_back_anim[current_callback_anim].callback();
 354:main.c        ****                 }
 355:main.c        ****             }// if capsense is untouched
 356:main.c        ****             else
 357:main.c        ****             {
 358:main.c        ****                 if (cap_sense_was_untouched)
 359:main.c        ****                 {
 360:main.c        ****                     clear_all_leds();
 361:main.c        ****                     send_button_telemetry(led_pos, "up");
 362:main.c        ****                     if (! stop_anim)
 363:main.c        ****                     {
 364:main.c        ****                         send_animation_telemetry(current_callback_anim, "stopping");
 365:main.c        ****                     }
 366:main.c        ****                 }
 367:main.c        **** 
 368:main.c        ****                 display_state ();
 369:main.c        ****             }// else, capsense is touched
 370:main.c        ****             cap_sense_was_untouched = cap_sense_is_untouched;
 371:main.c        **** 
 372:main.c        **** #if USE_UART
 373:main.c        ****             // get, parse and execute the commands
 374:main.c        ****             uart_char_in = UART_1_UartGetChar();
 375:main.c        ****             if((uart_char_in >= 0x20) && (uart_char_in <= 0x7F))
 376:main.c        ****             {
 377:main.c        ****                 receive_string[receive_pos++] = uart_char_in;
 378:main.c        ****                 if ((uart_char_in == END_OF_CMD) || (receive_pos == sizeof(receive_string)))
 379:main.c        ****                 {
 380:main.c        ****                     if ((receive_string[0] != START_OF_CMD) || (receive_string[strlen(receive_strin
 381:main.c        ****                     {
 382:main.c        ****                         send_alarm_telemetry(ALARM_WARNING, receive_string, "invalid start-end char
 383:main.c        ****                     }// if the command is not well formed
 384:main.c        ****                     else
 385:main.c        ****                     {
 386:main.c        ****                         receive_string[strlen(receive_string) - 1] = '\0';
 387:main.c        ****                         if (parse_and_execute_command(&(receive_string[1])) == FALSE)
 388:main.c        ****                         {
 389:main.c        ****                             send_alarm_telemetry(ALARM_WARNING, command, "failed to execute the com
 390:main.c        ****                         }// If we failed to execute the command
 391:main.c        ****                         else
 392:main.c        ****                         {
 393:main.c        ****                             send_alarm_telemetry(ALARM_LOG, command, "executed");
 394:main.c        ****                         }
 395:main.c        ****                     }// else, the command seems well formed
 396:main.c        ****                     
 397:main.c        ****                     memset (receive_string, '\0', sizeof(receive_string));
 398:main.c        ****                     receive_pos = 0;
 399:main.c        ****                 }// If we detect the end of the command
 400:main.c        ****             }// If we got a character
 401:main.c        **** #else
ARM GAS  C:\Users\BG1026~1\AppData\Local\Temp\cc2n2B4u.s 			page 12


 402:main.c        ****             // FIXME: use I2C
 403:main.c        **** #endif // USE_UART
 404:main.c        **** 
 405:main.c        **** #if USE_TUNER
 406:main.c        ****             CapSense_RunTuner(); // sync capsense parameters via tuner before the beginning of new 
 407:main.c        **** #endif // USE_TUNER
 408:main.c        **** 
 409:main.c        ****             CapSense_ScanAllWidgets();
 410:main.c        ****         }// cap sense not busy
 411:main.c        ****     }// for ever
 412:main.c        **** }// main
 413:main.c        **** 
 414:main.c        **** t_enum_command get_cmd_id_from_cmd_string(const char* cmd_str)
 415:main.c        **** {
 223              		.loc 1 415 0
 224              		.cfi_startproc
 225              	.LVL34:
 226 0000 38B5     		push	{r3, r4, r5, lr}
 227              		.cfi_def_cfa_offset 16
 228              		.cfi_offset 3, -16
 229              		.cfi_offset 4, -12
 230              		.cfi_offset 5, -8
 231              		.cfi_offset 14, -4
 232 0002 041C     		mov	r4, r0
 233              	.LVL35:
 416:main.c        ****     int i;
 417:main.c        ****     
 418:main.c        ****     for (i = 0; i < CMD_UNKNOWN; i++)
 234              		.loc 1 418 0
 235 0004 0025     		mov	r5, #0
 236 0006 11E0     		b	.L21
 237              	.LVL36:
 238              	.L24:
 419:main.c        ****     {
 420:main.c        ****         if (strstr(cmd_str, vec_commands[i].name))
 239              		.loc 1 420 0
 240 0008 6B00     		lsl	r3, r5, #1
 241 000a 5B19     		add	r3, r3, r5
 242 000c 9B00     		lsl	r3, r3, #2
 243 000e 094A     		ldr	r2, .L25
 244 0010 D318     		add	r3, r2, r3
 245 0012 5968     		ldr	r1, [r3, #4]
 246 0014 201C     		mov	r0, r4
 247 0016 FFF7FEFF 		bl	strstr
 248              	.LVL37:
 249 001a 0028     		cmp	r0, #0
 250 001c 05D0     		beq	.L22
 421:main.c        ****         {
 422:main.c        ****             return vec_commands[i].id;
 251              		.loc 1 422 0
 252 001e 6B00     		lsl	r3, r5, #1
 253 0020 5D19     		add	r5, r3, r5
 254              	.LVL38:
 255 0022 AD00     		lsl	r5, r5, #2
 256 0024 034B     		ldr	r3, .L25
 257 0026 585D     		ldrb	r0, [r3, r5]
 258 0028 03E0     		b	.L23
ARM GAS  C:\Users\BG1026~1\AppData\Local\Temp\cc2n2B4u.s 			page 13


 259              	.LVL39:
 260              	.L22:
 418:main.c        ****     {
 261              		.loc 1 418 0 discriminator 2
 262 002a 0135     		add	r5, r5, #1
 263              	.LVL40:
 264              	.L21:
 418:main.c        ****     {
 265              		.loc 1 418 0 is_stmt 0 discriminator 1
 266 002c 052D     		cmp	r5, #5
 267 002e EBDD     		ble	.L24
 423:main.c        ****         }
 424:main.c        ****     }// for all the commands
 425:main.c        ****     
 426:main.c        ****     return CMD_UNKNOWN;
 268              		.loc 1 426 0 is_stmt 1
 269 0030 0620     		mov	r0, #6
 270              	.LVL41:
 271              	.L23:
 427:main.c        **** }// get_cmd_id_from_cmd_string
 272              		.loc 1 427 0
 273              		@ sp needed
 274              	.LVL42:
 275 0032 38BD     		pop	{r3, r4, r5, pc}
 276              	.L26:
 277              		.align	2
 278              	.L25:
 279 0034 8C000000 		.word	.LANCHOR1
 280              		.cfi_endproc
 281              	.LFE38:
 282              		.size	get_cmd_id_from_cmd_string, .-get_cmd_id_from_cmd_string
 283              		.section	.text.get_tracker_cmd_id_from_cmd_string,"ax",%progbits
 284              		.align	2
 285              		.global	get_tracker_cmd_id_from_cmd_string
 286              		.code	16
 287              		.thumb_func
 288              		.type	get_tracker_cmd_id_from_cmd_string, %function
 289              	get_tracker_cmd_id_from_cmd_string:
 290              	.LFB39:
 428:main.c        **** 
 429:main.c        **** t_enum_tracker_command get_tracker_cmd_id_from_cmd_string(const char* cmd_str)
 430:main.c        **** {
 291              		.loc 1 430 0
 292              		.cfi_startproc
 293              	.LVL43:
 294 0000 38B5     		push	{r3, r4, r5, lr}
 295              		.cfi_def_cfa_offset 16
 296              		.cfi_offset 3, -16
 297              		.cfi_offset 4, -12
 298              		.cfi_offset 5, -8
 299              		.cfi_offset 14, -4
 300 0002 041C     		mov	r4, r0
 301              	.LVL44:
 431:main.c        ****     int i;
 432:main.c        ****     
 433:main.c        ****     for (i = 0; i < CMD_TRACKER_UNKNOWN; i++)
 302              		.loc 1 433 0
ARM GAS  C:\Users\BG1026~1\AppData\Local\Temp\cc2n2B4u.s 			page 14


 303 0004 0025     		mov	r5, #0
 304 0006 13E0     		b	.L28
 305              	.LVL45:
 306              	.L31:
 434:main.c        ****     {
 435:main.c        ****         if (strstr(cmd_str, vec_tracker_commands[i].name))
 307              		.loc 1 435 0
 308 0008 6B00     		lsl	r3, r5, #1
 309 000a 5B19     		add	r3, r3, r5
 310 000c 9B00     		lsl	r3, r3, #2
 311 000e 0A4A     		ldr	r2, .L32
 312 0010 D318     		add	r3, r2, r3
 313 0012 D96C     		ldr	r1, [r3, #76]
 314 0014 201C     		mov	r0, r4
 315 0016 FFF7FEFF 		bl	strstr
 316              	.LVL46:
 317 001a 0028     		cmp	r0, #0
 318 001c 07D0     		beq	.L29
 436:main.c        ****         {
 437:main.c        ****             return vec_tracker_commands[i].id;
 319              		.loc 1 437 0
 320 001e 6B00     		lsl	r3, r5, #1
 321 0020 5D19     		add	r5, r3, r5
 322              	.LVL47:
 323 0022 AD00     		lsl	r5, r5, #2
 324 0024 044B     		ldr	r3, .L32
 325 0026 5D19     		add	r5, r3, r5
 326 0028 4823     		mov	r3, #72
 327 002a E85C     		ldrb	r0, [r5, r3]
 328 002c 03E0     		b	.L30
 329              	.LVL48:
 330              	.L29:
 433:main.c        ****     {
 331              		.loc 1 433 0 discriminator 2
 332 002e 0135     		add	r5, r5, #1
 333              	.LVL49:
 334              	.L28:
 433:main.c        ****     {
 335              		.loc 1 433 0 is_stmt 0 discriminator 1
 336 0030 022D     		cmp	r5, #2
 337 0032 E9DD     		ble	.L31
 438:main.c        ****         }
 439:main.c        ****     }// for all the commands
 440:main.c        ****     
 441:main.c        ****     return CMD_TRACKER_UNKNOWN;
 338              		.loc 1 441 0 is_stmt 1
 339 0034 0320     		mov	r0, #3
 340              	.LVL50:
 341              	.L30:
 442:main.c        **** }// get_anim_cmd_id_from_cmd_string
 342              		.loc 1 442 0
 343              		@ sp needed
 344              	.LVL51:
 345 0036 38BD     		pop	{r3, r4, r5, pc}
 346              	.L33:
 347              		.align	2
 348              	.L32:
ARM GAS  C:\Users\BG1026~1\AppData\Local\Temp\cc2n2B4u.s 			page 15


 349 0038 8C000000 		.word	.LANCHOR1
 350              		.cfi_endproc
 351              	.LFE39:
 352              		.size	get_tracker_cmd_id_from_cmd_string, .-get_tracker_cmd_id_from_cmd_string
 353              		.section	.text.get_anim_cmd_id_from_cmd_string,"ax",%progbits
 354              		.align	2
 355              		.global	get_anim_cmd_id_from_cmd_string
 356              		.code	16
 357              		.thumb_func
 358              		.type	get_anim_cmd_id_from_cmd_string, %function
 359              	get_anim_cmd_id_from_cmd_string:
 360              	.LFB40:
 443:main.c        **** 
 444:main.c        **** t_enum_anim_command get_anim_cmd_id_from_cmd_string(const char* cmd_str)
 445:main.c        **** {
 361              		.loc 1 445 0
 362              		.cfi_startproc
 363              	.LVL52:
 364 0000 38B5     		push	{r3, r4, r5, lr}
 365              		.cfi_def_cfa_offset 16
 366              		.cfi_offset 3, -16
 367              		.cfi_offset 4, -12
 368              		.cfi_offset 5, -8
 369              		.cfi_offset 14, -4
 370 0002 041C     		mov	r4, r0
 371              	.LVL53:
 446:main.c        ****     int i;
 447:main.c        ****     
 448:main.c        ****     for (i = 0; i < CMD_ANIM_UNKNOWN; i++)
 372              		.loc 1 448 0
 373 0004 0025     		mov	r5, #0
 374 0006 13E0     		b	.L35
 375              	.LVL54:
 376              	.L38:
 449:main.c        ****     {
 450:main.c        ****         if (strstr(cmd_str, vec_anim_commands[i].name))
 377              		.loc 1 450 0
 378 0008 6B00     		lsl	r3, r5, #1
 379 000a 5B19     		add	r3, r3, r5
 380 000c 9B00     		lsl	r3, r3, #2
 381 000e 0A4A     		ldr	r2, .L39
 382 0010 D318     		add	r3, r2, r3
 383 0012 196F     		ldr	r1, [r3, #112]
 384 0014 201C     		mov	r0, r4
 385 0016 FFF7FEFF 		bl	strstr
 386              	.LVL55:
 387 001a 0028     		cmp	r0, #0
 388 001c 07D0     		beq	.L36
 451:main.c        ****         {
 452:main.c        ****             return vec_anim_commands[i].id;
 389              		.loc 1 452 0
 390 001e 6B00     		lsl	r3, r5, #1
 391 0020 5D19     		add	r5, r3, r5
 392              	.LVL56:
 393 0022 AD00     		lsl	r5, r5, #2
 394 0024 044B     		ldr	r3, .L39
 395 0026 5D19     		add	r5, r3, r5
ARM GAS  C:\Users\BG1026~1\AppData\Local\Temp\cc2n2B4u.s 			page 16


 396 0028 6C23     		mov	r3, #108
 397 002a E85C     		ldrb	r0, [r5, r3]
 398 002c 03E0     		b	.L37
 399              	.LVL57:
 400              	.L36:
 448:main.c        ****     {
 401              		.loc 1 448 0 discriminator 2
 402 002e 0135     		add	r5, r5, #1
 403              	.LVL58:
 404              	.L35:
 448:main.c        ****     {
 405              		.loc 1 448 0 is_stmt 0 discriminator 1
 406 0030 032D     		cmp	r5, #3
 407 0032 E9DD     		ble	.L38
 453:main.c        ****         }
 454:main.c        ****     }// for all the commands
 455:main.c        ****     
 456:main.c        ****     return CMD_ANIM_UNKNOWN;
 408              		.loc 1 456 0 is_stmt 1
 409 0034 0420     		mov	r0, #4
 410              	.LVL59:
 411              	.L37:
 457:main.c        **** }// get_anim_cmd_id_from_cmd_string
 412              		.loc 1 457 0
 413              		@ sp needed
 414              	.LVL60:
 415 0036 38BD     		pop	{r3, r4, r5, pc}
 416              	.L40:
 417              		.align	2
 418              	.L39:
 419 0038 8C000000 		.word	.LANCHOR1
 420              		.cfi_endproc
 421              	.LFE40:
 422              		.size	get_anim_cmd_id_from_cmd_string, .-get_anim_cmd_id_from_cmd_string
 423              		.section	.text.get_anim_id_from_cmd_string,"ax",%progbits
 424              		.align	2
 425              		.global	get_anim_id_from_cmd_string
 426              		.code	16
 427              		.thumb_func
 428              		.type	get_anim_id_from_cmd_string, %function
 429              	get_anim_id_from_cmd_string:
 430              	.LFB41:
 458:main.c        **** 
 459:main.c        **** t_enum_animation get_anim_id_from_cmd_string(const char* cmd_str)
 460:main.c        **** {
 431              		.loc 1 460 0
 432              		.cfi_startproc
 433              	.LVL61:
 434 0000 38B5     		push	{r3, r4, r5, lr}
 435              		.cfi_def_cfa_offset 16
 436              		.cfi_offset 3, -16
 437              		.cfi_offset 4, -12
 438              		.cfi_offset 5, -8
 439              		.cfi_offset 14, -4
 440 0002 041C     		mov	r4, r0
 441              	.LVL62:
 461:main.c        ****     int i;
ARM GAS  C:\Users\BG1026~1\AppData\Local\Temp\cc2n2B4u.s 			page 17


 462:main.c        ****     
 463:main.c        ****     for (i = 0; i < ANIM_UNKNOWN; i++)
 442              		.loc 1 463 0
 443 0004 0025     		mov	r5, #0
 444 0006 12E0     		b	.L42
 445              	.LVL63:
 446              	.L45:
 464:main.c        ****     {
 465:main.c        ****         if (strstr(cmd_str, vec_call_back_anim[i].description))
 447              		.loc 1 465 0
 448 0008 6B00     		lsl	r3, r5, #1
 449 000a 5B19     		add	r3, r3, r5
 450 000c 9B00     		lsl	r3, r3, #2
 451 000e 0A4A     		ldr	r2, .L46
 452 0010 D318     		add	r3, r2, r3
 453 0012 596A     		ldr	r1, [r3, #36]
 454 0014 201C     		mov	r0, r4
 455 0016 FFF7FEFF 		bl	strstr
 456              	.LVL64:
 457 001a 0028     		cmp	r0, #0
 458 001c 06D0     		beq	.L43
 466:main.c        ****         {
 467:main.c        ****             return vec_call_back_anim[i].id;
 459              		.loc 1 467 0
 460 001e 6B00     		lsl	r3, r5, #1
 461 0020 5D19     		add	r5, r3, r5
 462              	.LVL65:
 463 0022 AD00     		lsl	r5, r5, #2
 464 0024 044B     		ldr	r3, .L46
 465 0026 5D19     		add	r5, r3, r5
 466 0028 287F     		ldrb	r0, [r5, #28]
 467 002a 03E0     		b	.L44
 468              	.LVL66:
 469              	.L43:
 463:main.c        ****     {
 470              		.loc 1 463 0 discriminator 2
 471 002c 0135     		add	r5, r5, #1
 472              	.LVL67:
 473              	.L42:
 463:main.c        ****     {
 474              		.loc 1 463 0 is_stmt 0 discriminator 1
 475 002e 082D     		cmp	r5, #8
 476 0030 EADD     		ble	.L45
 468:main.c        ****         }
 469:main.c        ****     }// for all the commands
 470:main.c        ****     
 471:main.c        ****     return ANIM_UNKNOWN;
 477              		.loc 1 471 0 is_stmt 1
 478 0032 0920     		mov	r0, #9
 479              	.LVL68:
 480              	.L44:
 472:main.c        **** }// get_anim_cmd_id_from_cmd_string
 481              		.loc 1 472 0
 482              		@ sp needed
 483              	.LVL69:
 484 0034 38BD     		pop	{r3, r4, r5, pc}
 485              	.L47:
ARM GAS  C:\Users\BG1026~1\AppData\Local\Temp\cc2n2B4u.s 			page 18


 486 0036 C046     		.align	2
 487              	.L46:
 488 0038 0C010000 		.word	.LANCHOR2
 489              		.cfi_endproc
 490              	.LFE41:
 491              		.size	get_anim_id_from_cmd_string, .-get_anim_id_from_cmd_string
 492              		.section	.text.get_led_cmd_id_from_cmd_string,"ax",%progbits
 493              		.align	2
 494              		.global	get_led_cmd_id_from_cmd_string
 495              		.code	16
 496              		.thumb_func
 497              		.type	get_led_cmd_id_from_cmd_string, %function
 498              	get_led_cmd_id_from_cmd_string:
 499              	.LFB42:
 473:main.c        **** 
 474:main.c        **** t_enum_led_command get_led_cmd_id_from_cmd_string(const char* cmd_str)
 475:main.c        **** {
 500              		.loc 1 475 0
 501              		.cfi_startproc
 502              	.LVL70:
 503 0000 38B5     		push	{r3, r4, r5, lr}
 504              		.cfi_def_cfa_offset 16
 505              		.cfi_offset 3, -16
 506              		.cfi_offset 4, -12
 507              		.cfi_offset 5, -8
 508              		.cfi_offset 14, -4
 509 0002 041C     		mov	r4, r0
 510              	.LVL71:
 476:main.c        ****     int i;
 477:main.c        ****     
 478:main.c        ****     for (i = 0; i < CMD_LED_UNKNOWN; i++)
 511              		.loc 1 478 0
 512 0004 0025     		mov	r5, #0
 513 0006 12E0     		b	.L49
 514              	.LVL72:
 515              	.L52:
 479:main.c        ****     {
 480:main.c        ****         if (strstr(cmd_str, vec_led_commands[i].name))
 516              		.loc 1 480 0
 517 0008 6B00     		lsl	r3, r5, #1
 518 000a 5B19     		add	r3, r3, r5
 519 000c 9B00     		lsl	r3, r3, #2
 520 000e 0A4A     		ldr	r2, .L53
 521 0010 D318     		add	r3, r2, r3
 522 0012 D968     		ldr	r1, [r3, #12]
 523 0014 201C     		mov	r0, r4
 524 0016 FFF7FEFF 		bl	strstr
 525              	.LVL73:
 526 001a 0028     		cmp	r0, #0
 527 001c 06D0     		beq	.L50
 481:main.c        ****         {
 482:main.c        ****             return vec_led_commands[i].id;
 528              		.loc 1 482 0
 529 001e 6B00     		lsl	r3, r5, #1
 530 0020 5D19     		add	r5, r3, r5
 531              	.LVL74:
 532 0022 AD00     		lsl	r5, r5, #2
ARM GAS  C:\Users\BG1026~1\AppData\Local\Temp\cc2n2B4u.s 			page 19


 533 0024 044B     		ldr	r3, .L53
 534 0026 5D19     		add	r5, r3, r5
 535 0028 287A     		ldrb	r0, [r5, #8]
 536 002a 03E0     		b	.L51
 537              	.LVL75:
 538              	.L50:
 478:main.c        ****     {
 539              		.loc 1 478 0 discriminator 2
 540 002c 0135     		add	r5, r5, #1
 541              	.LVL76:
 542              	.L49:
 478:main.c        ****     {
 543              		.loc 1 478 0 is_stmt 0 discriminator 1
 544 002e 042D     		cmp	r5, #4
 545 0030 EADD     		ble	.L52
 483:main.c        ****         }
 484:main.c        ****     }// for all the commands
 485:main.c        ****     
 486:main.c        ****     return CMD_LED_UNKNOWN;
 546              		.loc 1 486 0 is_stmt 1
 547 0032 0520     		mov	r0, #5
 548              	.LVL77:
 549              	.L51:
 487:main.c        **** }// get_led_cmd_id_from_cmd_string
 550              		.loc 1 487 0
 551              		@ sp needed
 552              	.LVL78:
 553 0034 38BD     		pop	{r3, r4, r5, pc}
 554              	.L54:
 555 0036 C046     		.align	2
 556              	.L53:
 557 0038 8C010000 		.word	.LANCHOR3
 558              		.cfi_endproc
 559              	.LFE42:
 560              		.size	get_led_cmd_id_from_cmd_string, .-get_led_cmd_id_from_cmd_string
 561              		.section	.text.send_telemetry,"ax",%progbits
 562              		.align	2
 563              		.global	send_telemetry
 564              		.code	16
 565              		.thumb_func
 566              		.type	send_telemetry, %function
 567              	send_telemetry:
 568              	.LFB47:
 488:main.c        **** 
 489:main.c        **** BOOL parse_and_execute_command(char* cmd_str_and_param)
 490:main.c        **** {
 491:main.c        ****     t_enum_command          cmd_id         = CMD_UNKNOWN;
 492:main.c        ****     t_enum_anim_command     anim_cmd_id    = CMD_ANIM_UNKNOWN;
 493:main.c        ****     t_enum_animation        anim_id        = ANIM_UNKNOWN;
 494:main.c        ****     t_enum_led_command      led_cmd_id     = CMD_LED_UNKNOWN;
 495:main.c        ****     t_enum_tracker_command  tracker_cmd_id = CMD_TRACKER_UNKNOWN;
 496:main.c        ****     char*                   param_str      = strchr(cmd_str_and_param, ',');
 497:main.c        ****     char*                   next_param_str = NULL; 
 498:main.c        ****     int                     red            = 0;
 499:main.c        ****     int                     green          = 0;
 500:main.c        ****     int                     blue           = 0;
 501:main.c        ****     int                     led_index      = 0;
ARM GAS  C:\Users\BG1026~1\AppData\Local\Temp\cc2n2B4u.s 			page 20


 502:main.c        ****     int                     led_intensity  = 0;
 503:main.c        ****     uint16                  led_vec[MAX_LEDS]; 
 504:main.c        ****     int                     i;
 505:main.c        ****     
 506:main.c        ****     if (param_str == NULL)
 507:main.c        ****     {
 508:main.c        ****         send_alarm_telemetry(ALARM_WARNING, cmd_str_and_param, "can't find comma in command");
 509:main.c        ****         return FALSE;    
 510:main.c        ****     }// If we can't a comma inside the command
 511:main.c        ****    
 512:main.c        ****     cmd_id = get_cmd_id_from_cmd_string(param_str++);
 513:main.c        ****     
 514:main.c        ****     switch (cmd_id)
 515:main.c        ****     {
 516:main.c        ****         case CMD_CAPSENSE:
 517:main.c        ****         {
 518:main.c        ****             send_alarm_telemetry(ALARM_WARNING, cmd_str_and_param, "FIXME!");
 519:main.c        ****             return FALSE;    
 520:main.c        ****         }// CMD_CAPSENSE
 521:main.c        ****         
 522:main.c        ****         case CMD_HELP:
 523:main.c        ****         {
 524:main.c        ****             for (i = 0; i < CMD_UNKNOWN; i++)
 525:main.c        ****             {
 526:main.c        ****                 send_alarm_telemetry(ALARM_LOG, vec_commands[i].name, vec_commands[i].description);
 527:main.c        ****             }// for all the commands
 528:main.c        ****             
 529:main.c        ****             for (i = 0; i < ANIM_UNKNOWN; i++)
 530:main.c        ****             {
 531:main.c        ****                 send_alarm_telemetry(ALARM_LOG, "animation", vec_call_back_anim[i].description);
 532:main.c        ****             }// for all the commands
 533:main.c        ****             
 534:main.c        ****             break;      
 535:main.c        ****         }// CMD_HELP
 536:main.c        ****         
 537:main.c        ****         case CMD_ANIMATION:
 538:main.c        ****         {
 539:main.c        ****             if ((param_str = strchr(param_str, ',')) == NULL)
 540:main.c        ****             {
 541:main.c        ****                 send_alarm_telemetry(ALARM_WARNING, cmd_str_and_param, "unsupported animation actio
 542:main.c        ****                 return FALSE;
 543:main.c        ****             }// If we can't find the next ',' character
 544:main.c        ****             
 545:main.c        ****             if ((param_str = strchr(++param_str, ':')) == NULL)
 546:main.c        ****             {
 547:main.c        ****                 send_alarm_telemetry(ALARM_WARNING, cmd_str_and_param, "unsupported animation actio
 548:main.c        ****                 return FALSE;
 549:main.c        ****             }// If we can't find the next ':' character
 550:main.c        ****             param_str++;
 551:main.c        ****             
 552:main.c        ****             switch (anim_cmd_id = get_anim_cmd_id_from_cmd_string(param_str))
 553:main.c        ****             {
 554:main.c        ****                 case CMD_ANIM_AUTO:
 555:main.c        ****                 {
 556:main.c        ****                     auto_anim = TRUE;
 557:main.c        ****                     break;
 558:main.c        ****                 }// CMD_ANIM_AUTO
ARM GAS  C:\Users\BG1026~1\AppData\Local\Temp\cc2n2B4u.s 			page 21


 559:main.c        ****                 
 560:main.c        ****                 case CMD_ANIM_MANUAL:
 561:main.c        ****                 {
 562:main.c        ****                      auto_anim = FALSE;
 563:main.c        ****                     break;
 564:main.c        ****                 }// CMD_ANIM_MANUAL
 565:main.c        ****                 
 566:main.c        ****                 case CMD_ANIM_STOP:
 567:main.c        ****                 {
 568:main.c        ****                     stop_anim = TRUE;
 569:main.c        ****                     break;
 570:main.c        ****                 }// CMD_ANIM_STOP
 571:main.c        ****                 
 572:main.c        ****                 case CMD_ANIM_RESUME:
 573:main.c        ****                 {
 574:main.c        ****                     stop_anim = FALSE;
 575:main.c        ****                     break;
 576:main.c        ****                 }// CMD_ANIM_RESUME
 577:main.c        ****                 
 578:main.c        ****                 case CMD_ANIM_UNKNOWN:
 579:main.c        ****                 default              :
 580:main.c        ****                 {
 581:main.c        ****                     if ((anim_id = get_anim_id_from_cmd_string(param_str)) != ANIM_UNKNOWN)
 582:main.c        ****                     {
 583:main.c        ****                         current_callback_anim = anim_id;
 584:main.c        ****                     }// if we found a valid animation description in the command
 585:main.c        ****                     else
 586:main.c        ****                     {
 587:main.c        ****                         send_alarm_telemetry(ALARM_WARNING, cmd_str_and_param, "unsupported animati
 588:main.c        ****                         return FALSE;
 589:main.c        ****                     }// else, we couldn't find a valid animation 
 590:main.c        ****                     break;
 591:main.c        ****                 }// CMD_ANIM_UNKOWN, default
 592:main.c        ****             }// switch on the animation command
 593:main.c        ****             break;  
 594:main.c        ****         }// CMD_SET_ANIMATION
 595:main.c        ****               
 596:main.c        ****         case CMD_LED:
 597:main.c        ****         {
 598:main.c        ****             switch (led_cmd_id = get_led_cmd_id_from_cmd_string(param_str))
 599:main.c        ****             {
 600:main.c        ****                 case CMD_LED_CLEAR:
 601:main.c        ****                 {
 602:main.c        ****                     clear_all_leds();
 603:main.c        ****                     break;
 604:main.c        ****                 }// CMD_LED_CLEAR
 605:main.c        ****                 
 606:main.c        ****                 case CMD_LED_SET_COLOR_LEFT:
 607:main.c        ****                 case CMD_LED_SET_COLOR_RIGHT:
 608:main.c        ****                 {
 609:main.c        ****                     if ((param_str = strchr(param_str, ',')) == NULL)
 610:main.c        ****                     {
 611:main.c        ****                         send_alarm_telemetry(ALARM_WARNING, cmd_str_and_param, "unsupported animati
 612:main.c        ****                         return FALSE;
 613:main.c        ****                     }// If we can't find the next ',' character
 614:main.c        ****                     
 615:main.c        ****                     if ((param_str = strchr(++param_str, ':')) == NULL)
ARM GAS  C:\Users\BG1026~1\AppData\Local\Temp\cc2n2B4u.s 			page 22


 616:main.c        ****                     {
 617:main.c        ****                         send_alarm_telemetry(ALARM_WARNING, cmd_str_and_param, "can't parse red fro
 618:main.c        ****                         return FALSE;
 619:main.c        ****                     }// If we can't find the next ':' character
 620:main.c        **** 
 621:main.c        ****                     // ========================================================
 622:main.c        ****                     // parse red
 623:main.c        ****                     // ========================================================
 624:main.c        ****                     if ((param_str = strchr(++param_str, ':')) == NULL)
 625:main.c        ****                     {
 626:main.c        ****                         send_alarm_telemetry(ALARM_WARNING, cmd_str_and_param, "can't parse red fro
 627:main.c        ****                         return FALSE;
 628:main.c        ****                     }// If we can't find the next ':' character
 629:main.c        **** 
 630:main.c        ****                     if ((next_param_str = strchr(++param_str, ',')) == NULL)
 631:main.c        ****                     {
 632:main.c        ****                         send_alarm_telemetry(ALARM_WARNING, cmd_str_and_param, "can't parse red fro
 633:main.c        ****                         return FALSE;
 634:main.c        ****                     }// If we can't find the next ',' character
 635:main.c        ****                     *next_param_str = '\0';
 636:main.c        ****                     next_param_str++;
 637:main.c        ****                     
 638:main.c        ****                     red = atoi(param_str);
 639:main.c        ****                     
 640:main.c        ****                     // ========================================================
 641:main.c        ****                     // parse green
 642:main.c        ****                     // ========================================================
 643:main.c        ****                     if ((param_str = strchr(next_param_str, ':')) == NULL)
 644:main.c        ****                     {
 645:main.c        ****                         send_alarm_telemetry(ALARM_WARNING, cmd_str_and_param, "can't parse green f
 646:main.c        ****                         return FALSE;
 647:main.c        ****                     }// If we can't find the next ':' character
 648:main.c        **** 
 649:main.c        ****                     if ((next_param_str = strchr(++param_str, ',')) == NULL)
 650:main.c        ****                     {
 651:main.c        ****                         send_alarm_telemetry(ALARM_WARNING, cmd_str_and_param, "can't parsed green 
 652:main.c        ****                         return FALSE;
 653:main.c        ****                     }// If we can't find the next ',' character
 654:main.c        ****                     *next_param_str = '\0';
 655:main.c        ****                     next_param_str++;
 656:main.c        ****                     
 657:main.c        ****                     green = atoi(param_str);
 658:main.c        ****                     
 659:main.c        ****                     // ========================================================
 660:main.c        ****                     // parse blue
 661:main.c        ****                     // ========================================================
 662:main.c        ****                     if ((param_str = strchr(next_param_str, ':')) == NULL)
 663:main.c        ****                     {
 664:main.c        ****                         send_alarm_telemetry(ALARM_WARNING, cmd_str_and_param, "can't parse green f
 665:main.c        ****                         return FALSE;
 666:main.c        ****                     }// If we can't find the next ':' character
 667:main.c        ****                     
 668:main.c        ****                     blue = atoi(++param_str);                    
 669:main.c        ****                     // ========================================================
 670:main.c        ****                     // execute the command
 671:main.c        ****                     // ========================================================
 672:main.c        ****                     if (led_cmd_id == CMD_LED_SET_COLOR_LEFT)
ARM GAS  C:\Users\BG1026~1\AppData\Local\Temp\cc2n2B4u.s 			page 23


 673:main.c        ****                     {
 674:main.c        ****                         set_led(E_LED_LEFT_RED  ,  red  );
 675:main.c        ****                         set_led(E_LED_LEFT_GREEN,  green);
 676:main.c        ****                         set_led(E_LED_LEFT_BLUE ,  blue );
 677:main.c        ****                     }// if it's the left colored LED
 678:main.c        ****                     else
 679:main.c        ****                     {
 680:main.c        ****                         set_led(E_LED_RIGHT_RED  ,  red  );
 681:main.c        ****                         set_led(E_LED_RIGHT_GREEN,  green);
 682:main.c        ****                         set_led(E_LED_RIGHT_BLUE ,  blue );
 683:main.c        ****                     }// if it's the right colored LED
 684:main.c        ****                     
 685:main.c        ****                     break;
 686:main.c        ****                 }// CMD_LED_SET_COLOR_LEFT
 687:main.c        ****                 
 688:main.c        ****                 case CMD_LED_SET_WHITE:
 689:main.c        ****                 {
 690:main.c        ****                     if ((param_str = strchr(param_str, ',')) == NULL)
 691:main.c        ****                     {
 692:main.c        ****                         send_alarm_telemetry(ALARM_WARNING, cmd_str_and_param, "unsupported animati
 693:main.c        ****                         return FALSE;
 694:main.c        ****                     }// If we can't find the next ',' character
 695:main.c        ****                     
 696:main.c        ****                     if ((param_str = strchr(++param_str, ':')) == NULL)
 697:main.c        ****                     {
 698:main.c        ****                         send_alarm_telemetry(ALARM_WARNING, cmd_str_and_param, "can't parse LED ind
 699:main.c        ****                         return FALSE;
 700:main.c        ****                     }// If we can't find the next ':' character
 701:main.c        **** 
 702:main.c        ****                     // ========================================================
 703:main.c        ****                     // parse index
 704:main.c        ****                     // ========================================================
 705:main.c        ****                     if ((param_str = strchr(++param_str, ':')) == NULL)
 706:main.c        ****                     {
 707:main.c        ****                         send_alarm_telemetry(ALARM_WARNING, cmd_str_and_param, "can't parse LED ind
 708:main.c        ****                         return FALSE;
 709:main.c        ****                     }// If we can't find the next ':' character
 710:main.c        **** 
 711:main.c        ****                     if ((next_param_str = strchr(++param_str, ',')) == NULL)
 712:main.c        ****                     {
 713:main.c        ****                         send_alarm_telemetry(ALARM_WARNING, cmd_str_and_param, "can't parse LED ind
 714:main.c        ****                         return FALSE;
 715:main.c        ****                     }// If we can't find the next ',' character
 716:main.c        ****                     *next_param_str = '\0';
 717:main.c        ****                     next_param_str++;
 718:main.c        ****                     
 719:main.c        ****                     led_index = atoi(param_str);
 720:main.c        ****                     
 721:main.c        ****                     if ((led_index < 0) || (led_index >= NUMBER_OF_WHITE_LEDS))
 722:main.c        ****                     {
 723:main.c        ****                         send_alarm_telemetry(ALARM_WARNING, cmd_str_and_param, "invalid led index")
 724:main.c        ****                         return FALSE;
 725:main.c        ****                     }
 726:main.c        ****                     
 727:main.c        ****                     // ========================================================
 728:main.c        ****                     // parse led intensity
 729:main.c        ****                     // ========================================================
ARM GAS  C:\Users\BG1026~1\AppData\Local\Temp\cc2n2B4u.s 			page 24


 730:main.c        ****                     if ((param_str = strchr(next_param_str, ':')) == NULL)
 731:main.c        ****                     {
 732:main.c        ****                         send_alarm_telemetry(ALARM_WARNING, cmd_str_and_param, "can't parse green f
 733:main.c        ****                         return FALSE;
 734:main.c        ****                     }// If we can't find the next ':' character
 735:main.c        ****                     
 736:main.c        ****                     led_intensity = atoi(++param_str);     
 737:main.c        ****                     
 738:main.c        ****                     // ========================================================
 739:main.c        ****                     // execute the command
 740:main.c        ****                     // ========================================================
 741:main.c        ****                     set_led(led_index, led_intensity);
 742:main.c        ****                     break;
 743:main.c        ****                 }// CMD_LED_SET_WHITE
 744:main.c        ****                 
 745:main.c        ****                 case CMD_LED_SET_STRIP:
 746:main.c        ****                 {
 747:main.c        ****                     if ((param_str = strchr(param_str, ',')) == NULL)
 748:main.c        ****                     {
 749:main.c        ****                         send_alarm_telemetry(ALARM_WARNING, cmd_str_and_param, "can't parse LED str
 750:main.c        ****                         return FALSE;
 751:main.c        ****                     }// If we can't find the next ',' character
 752:main.c        ****                     
 753:main.c        ****                     if ((param_str = strchr(++param_str, ',')) == NULL)
 754:main.c        ****                     {
 755:main.c        ****                         send_alarm_telemetry(ALARM_WARNING, cmd_str_and_param, "can't parse LED str
 756:main.c        ****                         return FALSE;
 757:main.c        ****                     }// If we can't find the next ',' character 
 758:main.c        ****                     
 759:main.c        ****                     if ((param_str = strchr(++param_str, ':')) == NULL)
 760:main.c        ****                     {
 761:main.c        ****                         send_alarm_telemetry(ALARM_WARNING, cmd_str_and_param, "can't parse LED str
 762:main.c        ****                         return FALSE;
 763:main.c        ****                     }// If we can't find the next ':' character
 764:main.c        ****                     
 765:main.c        ****                     memset(led_vec, 0, sizeof(led_vec));
 766:main.c        ****                     
 767:main.c        ****                     //=========================================================
 768:main.c        ****                     // left red
 769:main.c        ****                     //=========================================================
 770:main.c        ****                     if ((param_str = strchr(++param_str, '\"')) == NULL)
 771:main.c        ****                     {
 772:main.c        ****                         send_alarm_telemetry(ALARM_WARNING, cmd_str_and_param, "can't parse LED str
 773:main.c        ****                         return FALSE;
 774:main.c        ****                     }// If we can't find the next '"' character
 775:main.c        ****                     param_str++;  
 776:main.c        ****                     led_vec[E_LED_LEFT_RED] = atoi(param_str);
 777:main.c        ****                  
 778:main.c        ****                     //=========================================================
 779:main.c        ****                     // left green
 780:main.c        ****                     //=========================================================
 781:main.c        ****                     if ((param_str = strchr(param_str, '-')) == NULL)
 782:main.c        ****                     {
 783:main.c        ****                         send_alarm_telemetry(ALARM_WARNING, cmd_str_and_param, "can't parse LED str
 784:main.c        ****                         return FALSE;
 785:main.c        ****                     }// If we can't find the next '-' character
 786:main.c        ****                     param_str++;
ARM GAS  C:\Users\BG1026~1\AppData\Local\Temp\cc2n2B4u.s 			page 25


 787:main.c        ****                     led_vec[E_LED_LEFT_GREEN] = atoi(param_str);
 788:main.c        ****                     
 789:main.c        ****                     //=========================================================
 790:main.c        ****                     // left blue
 791:main.c        ****                     //=========================================================
 792:main.c        ****                     if ((param_str = strchr(param_str, '-')) == NULL)
 793:main.c        ****                     {
 794:main.c        ****                         send_alarm_telemetry(ALARM_WARNING, cmd_str_and_param, "can't parse LED str
 795:main.c        ****                         return FALSE;
 796:main.c        ****                     }// If we can't find the next '-' character
 797:main.c        ****                     param_str++;
 798:main.c        ****                     led_vec[E_LED_LEFT_BLUE] = atoi(param_str);
 799:main.c        ****                     
 800:main.c        ****                     //=========================================================
 801:main.c        ****                     // All whites
 802:main.c        ****                     //=========================================================                    
 803:main.c        ****                     for(i = 0; i < NUMBER_OF_WHITE_LEDS; i++)
 804:main.c        ****                     {
 805:main.c        ****                         if ((param_str = strchr(param_str, '-')) == NULL)
 806:main.c        ****                         {
 807:main.c        ****                             send_alarm_telemetry(ALARM_WARNING, cmd_str_and_param, "can't parse LED
 808:main.c        ****                             return FALSE;
 809:main.c        ****                         }// If we can't find the next '-' character
 810:main.c        ****                         param_str++;
 811:main.c        ****                         led_vec[i] = atoi(param_str);
 812:main.c        ****                     }// for all the white LEDS
 813:main.c        ****                     
 814:main.c        ****                     //=========================================================
 815:main.c        ****                     // right red
 816:main.c        ****                     //=========================================================
 817:main.c        ****                     if ((param_str = strchr(param_str, '-')) == NULL)
 818:main.c        ****                     {
 819:main.c        ****                         send_alarm_telemetry(ALARM_WARNING, cmd_str_and_param, "can't parse LED str
 820:main.c        ****                         return FALSE;
 821:main.c        ****                     }// If we can't find the next '-' character
 822:main.c        ****                     param_str++;
 823:main.c        ****                     led_vec[E_LED_RIGHT_RED] = atoi(param_str);
 824:main.c        ****                     
 825:main.c        ****                     //=========================================================
 826:main.c        ****                     // right green
 827:main.c        ****                     //=========================================================
 828:main.c        ****                     if ((param_str = strchr(param_str, '-')) == NULL)
 829:main.c        ****                     {
 830:main.c        ****                         send_alarm_telemetry(ALARM_WARNING, cmd_str_and_param, "can't parse LED str
 831:main.c        ****                         return FALSE;
 832:main.c        ****                     }// If we can't find the next '-' character
 833:main.c        ****                     param_str++;
 834:main.c        ****                     led_vec[E_LED_RIGHT_GREEN] = atoi(param_str);
 835:main.c        ****                     
 836:main.c        ****                     //=========================================================
 837:main.c        ****                     // right blue
 838:main.c        ****                     //=========================================================
 839:main.c        ****                     if ((param_str = strchr(param_str, '-')) == NULL)
 840:main.c        ****                     {
 841:main.c        ****                         send_alarm_telemetry(ALARM_WARNING, cmd_str_and_param, "can't parse LED str
 842:main.c        ****                         return FALSE;
 843:main.c        ****                     }// If we can't find the next '-' character
ARM GAS  C:\Users\BG1026~1\AppData\Local\Temp\cc2n2B4u.s 			page 26


 844:main.c        ****                     param_str++;
 845:main.c        ****                     led_vec[E_LED_RIGHT_BLUE] = atoi(param_str);
 846:main.c        ****                     
 847:main.c        ****                     set_led_strip(led_vec);
 848:main.c        ****                     break;
 849:main.c        ****                 }// CMD_LED_SET_STRIP
 850:main.c        ****                 
 851:main.c        ****                 case CMD_LED_UNKNOWN:
 852:main.c        ****                 default             :
 853:main.c        ****                 {
 854:main.c        ****                     send_alarm_telemetry(ALARM_WARNING, cmd_str_and_param, "unsupported led action"
 855:main.c        ****                     return FALSE;
 856:main.c        ****                 }// CMD_LED_UNKNOWN, default
 857:main.c        ****             }// switch on the led command
 858:main.c        ****             
 859:main.c        ****             break;
 860:main.c        ****         }// CMD_LED
 861:main.c        ****         
 862:main.c        ****         case CMD_TRACKER:
 863:main.c        ****         {
 864:main.c        ****             if ((param_str = strchr(param_str, ',')) == NULL)
 865:main.c        ****             {
 866:main.c        ****                 send_alarm_telemetry(ALARM_WARNING, cmd_str_and_param, "unsupported tracker action"
 867:main.c        ****                 return FALSE;
 868:main.c        ****             }// If we can't find the next ',' character
 869:main.c        ****             
 870:main.c        ****             if ((param_str = strchr(++param_str, ':')) == NULL)
 871:main.c        ****             {
 872:main.c        ****                 send_alarm_telemetry(ALARM_WARNING, cmd_str_and_param, "unsupported tracker action"
 873:main.c        ****                 return FALSE;
 874:main.c        ****             }// If we can't find the next ':' character
 875:main.c        ****             param_str++;
 876:main.c        ****             
 877:main.c        ****             switch (tracker_cmd_id = get_tracker_cmd_id_from_cmd_string(param_str))
 878:main.c        ****             {
 879:main.c        ****                 case CMD_TRACKER_DISABLE:
 880:main.c        ****                 {
 881:main.c        ****                     tracker_enable = FALSE;
 882:main.c        ****                     break;
 883:main.c        ****                 }// CMD_TRACKER_DISABLE      
 884:main.c        ****                 
 885:main.c        ****                 case CMD_TRACKER_ENABLE:
 886:main.c        ****                 {
 887:main.c        ****                     tracker_enable = TRUE;
 888:main.c        ****                     break;
 889:main.c        ****                 }// CMD_TRACKER_ENABLE
 890:main.c        ****                 
 891:main.c        ****                 case CMD_TRACKER_SET_BUTTON:
 892:main.c        ****                 {
 893:main.c        ****                     if ((param_str = strchr(param_str, ',')) == NULL)
 894:main.c        ****                     {
 895:main.c        ****                         send_alarm_telemetry(ALARM_WARNING, cmd_str_and_param, "unsupported tracker
 896:main.c        ****                         return FALSE;
 897:main.c        ****                     }// If we can't find the next ',' character
 898:main.c        ****             
 899:main.c        ****                     if ((param_str = strchr(++param_str, ':')) == NULL)
 900:main.c        ****                     {
ARM GAS  C:\Users\BG1026~1\AppData\Local\Temp\cc2n2B4u.s 			page 27


 901:main.c        ****                         send_alarm_telemetry(ALARM_WARNING, cmd_str_and_param, "unsupported tracker
 902:main.c        ****                         return FALSE;
 903:main.c        ****                     }// If we can't find the next ':' character
 904:main.c        ****                     param_str++;
 905:main.c        ****                     number_of_buttons = atoi(param_str);
 906:main.c        ****                     break;
 907:main.c        ****                 }// CMD_TRACKER_SET_BUTTON
 908:main.c        ****                 
 909:main.c        ****                 case CMD_TRACKER_UNKNOWN:
 910:main.c        ****                 default                 :
 911:main.c        ****                 {
 912:main.c        ****                     send_alarm_telemetry(ALARM_WARNING, cmd_str_and_param, "unsupported tracker act
 913:main.c        ****                     return FALSE;
 914:main.c        ****                 }// CMD_TRACKER_UNKNOWN, default
 915:main.c        ****             }// switch in the tracker action
 916:main.c        ****             break;
 917:main.c        ****         }// CMD_SET_TRACKER
 918:main.c        ****         
 919:main.c        ****         case CMD_VERSION:
 920:main.c        ****         {
 921:main.c        ****             send_alarm_telemetry(ALARM_INFO, "version", VERSION);
 922:main.c        ****             break;
 923:main.c        ****         }// CMD_VERSION
 924:main.c        ****         
 925:main.c        ****         case CMD_UNKNOWN:
 926:main.c        ****         default         :
 927:main.c        ****         {
 928:main.c        ****             send_alarm_telemetry(ALARM_WARNING, cmd_str_and_param, "unsupported command");
 929:main.c        ****             return FALSE;
 930:main.c        ****         }// default
 931:main.c        ****     }// switch cmd id
 932:main.c        ****     
 933:main.c        ****     return TRUE; // the command succeed 
 934:main.c        **** }// parse_and_execute_command
 935:main.c        **** 
 936:main.c        **** void send_alarm_telemetry(t_enum_alarm_type alarm_type, const char* source, const char* description
 937:main.c        **** {
 938:main.c        ****     char        telemetry[256];
 939:main.c        ****     const char* alarm_string[ALARM_UNKNOWN] = {"log", "info", "warning", "error", "fatal"};
 940:main.c        ****  
 941:main.c        ****     memset(telemetry, '\0', sizeof(telemetry));
 942:main.c        ****     
 943:main.c        ****     strcpy(telemetry, "{\"event\":\"alarm\", \"type\":\"");
 944:main.c        ****     strcat(telemetry, alarm_string[alarm_type]);
 945:main.c        ****     strcat(telemetry, "\", \"source\":\"");
 946:main.c        ****     strcat(telemetry, source);
 947:main.c        ****     strcat(telemetry, "\", \"description\":\"");
 948:main.c        ****     strcat(telemetry, description);
 949:main.c        ****     strcat(telemetry, "\"}");
 950:main.c        ****     
 951:main.c        ****     send_telemetry(telemetry);
 952:main.c        ****     
 953:main.c        **** }// send_alarm_telemetry
 954:main.c        **** 
 955:main.c        **** void send_animation_telemetry(int animation_index, const char* action)
 956:main.c        **** {
 957:main.c        ****     char telemetry[256];
ARM GAS  C:\Users\BG1026~1\AppData\Local\Temp\cc2n2B4u.s 			page 28


 958:main.c        ****  
 959:main.c        ****     memset(telemetry, '\0', sizeof(telemetry));
 960:main.c        ****     
 961:main.c        ****     strcpy(telemetry, "{\"event\":\"animation\", \"name\":\"");
 962:main.c        ****     strcat(telemetry, vec_call_back_anim[animation_index].description);
 963:main.c        ****     strcat(telemetry, "\", \"action\":\"");
 964:main.c        ****     strcat(telemetry, action);
 965:main.c        ****     strcat(telemetry, "\"}");
 966:main.c        ****     
 967:main.c        ****     send_telemetry(telemetry);
 968:main.c        **** }// send_animation_telemetry
 969:main.c        **** 
 970:main.c        **** void send_button_telemetry(int button, const char* action)
 971:main.c        **** {
 972:main.c        ****     char telemetry[256];
 973:main.c        ****  
 974:main.c        ****     memset(telemetry, '\0', sizeof(telemetry));
 975:main.c        ****     
 976:main.c        ****     strcpy(telemetry, "{\"event\":\"button\", \"id\":");
 977:main.c        ****     strcat(telemetry, itoa(button));
 978:main.c        ****     strcat(telemetry, ", \"action\":\"");
 979:main.c        ****     strcat(telemetry, action);
 980:main.c        ****     strcat(telemetry, "\"}");
 981:main.c        ****     
 982:main.c        ****     send_telemetry(telemetry);
 983:main.c        **** }// send_button_telemetry
 984:main.c        **** 
 985:main.c        **** void send_telemetry(const char *telemetry)
 986:main.c        **** {
 569              		.loc 1 986 0
 570              		.cfi_startproc
 571              	.LVL79:
 572 0000 08B5     		push	{r3, lr}
 573              		.cfi_def_cfa_offset 8
 574              		.cfi_offset 3, -8
 575              		.cfi_offset 14, -4
 987:main.c        **** #ifdef USE_UART
 988:main.c        ****     UART_1_UartPutString(telemetry);
 576              		.loc 1 988 0
 577 0002 FFF7FEFF 		bl	UART_1_UartPutString
 578              	.LVL80:
 989:main.c        **** #else
 990:main.c        ****     // FIXME: use I2C
 991:main.c        **** #endif //USE_UART
 992:main.c        **** }// send_button_telemetry
 579              		.loc 1 992 0
 580              		@ sp needed
 581 0006 08BD     		pop	{r3, pc}
 582              		.cfi_endproc
 583              	.LFE47:
 584              		.size	send_telemetry, .-send_telemetry
 585              		.section	.text.send_alarm_telemetry,"ax",%progbits
 586              		.align	2
 587              		.global	send_alarm_telemetry
 588              		.code	16
 589              		.thumb_func
 590              		.type	send_alarm_telemetry, %function
ARM GAS  C:\Users\BG1026~1\AppData\Local\Temp\cc2n2B4u.s 			page 29


 591              	send_alarm_telemetry:
 592              	.LFB44:
 937:main.c        ****     char        telemetry[256];
 593              		.loc 1 937 0
 594              		.cfi_startproc
 595              	.LVL81:
 596 0000 F0B5     		push	{r4, r5, r6, r7, lr}
 597              		.cfi_def_cfa_offset 20
 598              		.cfi_offset 4, -20
 599              		.cfi_offset 5, -16
 600              		.cfi_offset 6, -12
 601              		.cfi_offset 7, -8
 602              		.cfi_offset 14, -4
 603 0002 4746     		mov	r7, r8
 604 0004 80B4     		push	{r7}
 605              		.cfi_def_cfa_offset 24
 606              		.cfi_offset 8, -24
 607 0006 C8B0     		sub	sp, sp, #288
 608              		.cfi_def_cfa_offset 312
 609 0008 8046     		mov	r8, r0
 610 000a 0E1C     		mov	r6, r1
 611 000c 0192     		str	r2, [sp, #4]
 939:main.c        ****  
 612              		.loc 1 939 0
 613 000e 03AF     		add	r7, sp, #12
 614 0010 3A1C     		mov	r2, r7
 615              	.LVL82:
 616 0012 224B     		ldr	r3, .L57
 617 0014 4433     		add	r3, r3, #68
 618 0016 13CB     		ldmia	r3!, {r0, r1, r4}
 619 0018 13C2     		stmia	r2!, {r0, r1, r4}
 620              	.LVL83:
 621 001a 11CB     		ldmia	r3!, {r0, r4}
 622 001c 11C2     		stmia	r2!, {r0, r4}
 941:main.c        ****     
 623              		.loc 1 941 0
 624 001e 08AC     		add	r4, sp, #32
 625 0020 201C     		mov	r0, r4
 626 0022 0021     		mov	r1, #0
 627 0024 8022     		mov	r2, #128
 628 0026 5200     		lsl	r2, r2, #1
 629 0028 FFF7FEFF 		bl	memset
 630              	.LVL84:
 943:main.c        ****     strcat(telemetry, alarm_string[alarm_type]);
 631              		.loc 1 943 0
 632 002c 1C49     		ldr	r1, .L57+4
 633 002e 231C     		mov	r3, r4
 634 0030 0A1C     		mov	r2, r1
 635 0032 23CA     		ldmia	r2!, {r0, r1, r5}
 636 0034 23C3     		stmia	r3!, {r0, r1, r5}
 637 0036 23CA     		ldmia	r2!, {r0, r1, r5}
 638 0038 23C3     		stmia	r3!, {r0, r1, r5}
 639 003a 1188     		ldrh	r1, [r2]
 640 003c 1980     		strh	r1, [r3]
 641 003e 9278     		ldrb	r2, [r2, #2]
 642 0040 9A70     		strb	r2, [r3, #2]
 944:main.c        ****     strcat(telemetry, "\", \"source\":\"");
ARM GAS  C:\Users\BG1026~1\AppData\Local\Temp\cc2n2B4u.s 			page 30


 643              		.loc 1 944 0
 644 0042 4346     		mov	r3, r8
 645 0044 9B00     		lsl	r3, r3, #2
 646 0046 D959     		ldr	r1, [r3, r7]
 647 0048 201C     		mov	r0, r4
 648 004a FFF7FEFF 		bl	strcat
 649              	.LVL85:
 945:main.c        ****     strcat(telemetry, source);
 650              		.loc 1 945 0
 651 004e 201C     		mov	r0, r4
 652 0050 FFF7FEFF 		bl	strlen
 653              	.LVL86:
 654 0054 2018     		add	r0, r4, r0
 655 0056 1349     		ldr	r1, .L57+8
 656 0058 0E22     		mov	r2, #14
 657 005a FFF7FEFF 		bl	memcpy
 658              	.LVL87:
 946:main.c        ****     strcat(telemetry, "\", \"description\":\"");
 659              		.loc 1 946 0
 660 005e 201C     		mov	r0, r4
 661 0060 311C     		mov	r1, r6
 662 0062 FFF7FEFF 		bl	strcat
 663              	.LVL88:
 947:main.c        ****     strcat(telemetry, description);
 664              		.loc 1 947 0
 665 0066 201C     		mov	r0, r4
 666 0068 FFF7FEFF 		bl	strlen
 667              	.LVL89:
 668 006c 2018     		add	r0, r4, r0
 669 006e 0E49     		ldr	r1, .L57+12
 670 0070 1322     		mov	r2, #19
 671 0072 FFF7FEFF 		bl	memcpy
 672              	.LVL90:
 948:main.c        ****     strcat(telemetry, "\"}");
 673              		.loc 1 948 0
 674 0076 201C     		mov	r0, r4
 675 0078 0199     		ldr	r1, [sp, #4]
 676 007a FFF7FEFF 		bl	strcat
 677              	.LVL91:
 949:main.c        ****     
 678              		.loc 1 949 0
 679 007e 201C     		mov	r0, r4
 680 0080 FFF7FEFF 		bl	strlen
 681              	.LVL92:
 682 0084 2018     		add	r0, r4, r0
 683 0086 0949     		ldr	r1, .L57+16
 684 0088 0322     		mov	r2, #3
 685 008a FFF7FEFF 		bl	memcpy
 686              	.LVL93:
 951:main.c        ****     
 687              		.loc 1 951 0
 688 008e 201C     		mov	r0, r4
 689 0090 FFF7FEFF 		bl	send_telemetry
 690              	.LVL94:
 953:main.c        **** 
 691              		.loc 1 953 0
 692 0094 48B0     		add	sp, sp, #288
ARM GAS  C:\Users\BG1026~1\AppData\Local\Temp\cc2n2B4u.s 			page 31


 693              		@ sp needed
 694              	.LVL95:
 695 0096 04BC     		pop	{r2}
 696 0098 9046     		mov	r8, r2
 697 009a F0BD     		pop	{r4, r5, r6, r7, pc}
 698              	.L58:
 699              		.align	2
 700              	.L57:
 701 009c 8C010000 		.word	.LANCHOR3
 702 00a0 00000000 		.word	.LC15
 703 00a4 1C000000 		.word	.LC17
 704 00a8 2C000000 		.word	.LC19
 705 00ac 40000000 		.word	.LC21
 706              		.cfi_endproc
 707              	.LFE44:
 708              		.size	send_alarm_telemetry, .-send_alarm_telemetry
 709              		.section	.text.send_animation_telemetry,"ax",%progbits
 710              		.align	2
 711              		.global	send_animation_telemetry
 712              		.code	16
 713              		.thumb_func
 714              		.type	send_animation_telemetry, %function
 715              	send_animation_telemetry:
 716              	.LFB45:
 956:main.c        ****     char telemetry[256];
 717              		.loc 1 956 0
 718              		.cfi_startproc
 719              	.LVL96:
 720 0000 F0B5     		push	{r4, r5, r6, r7, lr}
 721              		.cfi_def_cfa_offset 20
 722              		.cfi_offset 4, -20
 723              		.cfi_offset 5, -16
 724              		.cfi_offset 6, -12
 725              		.cfi_offset 7, -8
 726              		.cfi_offset 14, -4
 727 0002 C1B0     		sub	sp, sp, #260
 728              		.cfi_def_cfa_offset 280
 729 0004 061C     		mov	r6, r0
 730 0006 0D1C     		mov	r5, r1
 959:main.c        ****     
 731              		.loc 1 959 0
 732 0008 6C46     		mov	r4, sp
 733 000a 6846     		mov	r0, sp
 734              	.LVL97:
 735 000c 0021     		mov	r1, #0
 736              	.LVL98:
 737 000e 8022     		mov	r2, #128
 738 0010 5200     		lsl	r2, r2, #1
 739 0012 FFF7FEFF 		bl	memset
 740              	.LVL99:
 961:main.c        ****     strcat(telemetry, vec_call_back_anim[animation_index].description);
 741              		.loc 1 961 0
 742 0016 1749     		ldr	r1, .L60
 743 0018 6B46     		mov	r3, sp
 744 001a 0A1C     		mov	r2, r1
 745 001c 83CA     		ldmia	r2!, {r0, r1, r7}
 746 001e 83C3     		stmia	r3!, {r0, r1, r7}
ARM GAS  C:\Users\BG1026~1\AppData\Local\Temp\cc2n2B4u.s 			page 32


 747 0020 83CA     		ldmia	r2!, {r0, r1, r7}
 748 0022 83C3     		stmia	r3!, {r0, r1, r7}
 749 0024 1168     		ldr	r1, [r2]
 750 0026 1960     		str	r1, [r3]
 751 0028 9188     		ldrh	r1, [r2, #4]
 752 002a 9980     		strh	r1, [r3, #4]
 753 002c 9279     		ldrb	r2, [r2, #6]
 754 002e 9A71     		strb	r2, [r3, #6]
 962:main.c        ****     strcat(telemetry, "\", \"action\":\"");
 755              		.loc 1 962 0
 756 0030 7000     		lsl	r0, r6, #1
 757 0032 8019     		add	r0, r0, r6
 758 0034 8000     		lsl	r0, r0, #2
 759 0036 104B     		ldr	r3, .L60+4
 760 0038 1818     		add	r0, r3, r0
 761 003a 416A     		ldr	r1, [r0, #36]
 762 003c 6846     		mov	r0, sp
 763 003e FFF7FEFF 		bl	strcat
 764              	.LVL100:
 963:main.c        ****     strcat(telemetry, action);
 765              		.loc 1 963 0
 766 0042 6846     		mov	r0, sp
 767 0044 FFF7FEFF 		bl	strlen
 768              	.LVL101:
 769 0048 2018     		add	r0, r4, r0
 770 004a 0C49     		ldr	r1, .L60+8
 771 004c 0E22     		mov	r2, #14
 772 004e FFF7FEFF 		bl	memcpy
 773              	.LVL102:
 964:main.c        ****     strcat(telemetry, "\"}");
 774              		.loc 1 964 0
 775 0052 6846     		mov	r0, sp
 776 0054 291C     		mov	r1, r5
 777 0056 FFF7FEFF 		bl	strcat
 778              	.LVL103:
 965:main.c        ****     
 779              		.loc 1 965 0
 780 005a 6846     		mov	r0, sp
 781 005c FFF7FEFF 		bl	strlen
 782              	.LVL104:
 783 0060 2018     		add	r0, r4, r0
 784 0062 0749     		ldr	r1, .L60+12
 785 0064 0322     		mov	r2, #3
 786 0066 FFF7FEFF 		bl	memcpy
 787              	.LVL105:
 967:main.c        **** }// send_animation_telemetry
 788              		.loc 1 967 0
 789 006a 6846     		mov	r0, sp
 790 006c FFF7FEFF 		bl	send_telemetry
 791              	.LVL106:
 968:main.c        **** 
 792              		.loc 1 968 0
 793 0070 41B0     		add	sp, sp, #260
 794              		@ sp needed
 795              	.LVL107:
 796              	.LVL108:
 797 0072 F0BD     		pop	{r4, r5, r6, r7, pc}
ARM GAS  C:\Users\BG1026~1\AppData\Local\Temp\cc2n2B4u.s 			page 33


 798              	.L61:
 799              		.align	2
 800              	.L60:
 801 0074 44000000 		.word	.LC23
 802 0078 0C010000 		.word	.LANCHOR2
 803 007c 64000000 		.word	.LC26
 804 0080 40000000 		.word	.LC21
 805              		.cfi_endproc
 806              	.LFE45:
 807              		.size	send_animation_telemetry, .-send_animation_telemetry
 808              		.section	.text.send_button_telemetry,"ax",%progbits
 809              		.align	2
 810              		.global	send_button_telemetry
 811              		.code	16
 812              		.thumb_func
 813              		.type	send_button_telemetry, %function
 814              	send_button_telemetry:
 815              	.LFB46:
 971:main.c        ****     char telemetry[256];
 816              		.loc 1 971 0
 817              		.cfi_startproc
 818              	.LVL109:
 819 0000 F0B5     		push	{r4, r5, r6, r7, lr}
 820              		.cfi_def_cfa_offset 20
 821              		.cfi_offset 4, -20
 822              		.cfi_offset 5, -16
 823              		.cfi_offset 6, -12
 824              		.cfi_offset 7, -8
 825              		.cfi_offset 14, -4
 826 0002 C1B0     		sub	sp, sp, #260
 827              		.cfi_def_cfa_offset 280
 828 0004 061C     		mov	r6, r0
 829 0006 0D1C     		mov	r5, r1
 974:main.c        ****     
 830              		.loc 1 974 0
 831 0008 6C46     		mov	r4, sp
 832 000a 6846     		mov	r0, sp
 833              	.LVL110:
 834 000c 0021     		mov	r1, #0
 835              	.LVL111:
 836 000e 8022     		mov	r2, #128
 837 0010 5200     		lsl	r2, r2, #1
 838 0012 FFF7FEFF 		bl	memset
 839              	.LVL112:
 976:main.c        ****     strcat(telemetry, itoa(button));
 840              		.loc 1 976 0
 841 0016 1449     		ldr	r1, .L63
 842 0018 6B46     		mov	r3, sp
 843 001a 0A1C     		mov	r2, r1
 844 001c 83CA     		ldmia	r2!, {r0, r1, r7}
 845 001e 83C3     		stmia	r3!, {r0, r1, r7}
 846 0020 83CA     		ldmia	r2!, {r0, r1, r7}
 847 0022 83C3     		stmia	r3!, {r0, r1, r7}
 848 0024 1278     		ldrb	r2, [r2]
 849 0026 1A70     		strb	r2, [r3]
 977:main.c        ****     strcat(telemetry, ", \"action\":\"");
 850              		.loc 1 977 0
ARM GAS  C:\Users\BG1026~1\AppData\Local\Temp\cc2n2B4u.s 			page 34


 851 0028 301C     		mov	r0, r6
 852 002a FFF7FEFF 		bl	itoa
 853              	.LVL113:
 854 002e 011C     		mov	r1, r0
 855 0030 6846     		mov	r0, sp
 856 0032 FFF7FEFF 		bl	strcat
 857              	.LVL114:
 978:main.c        ****     strcat(telemetry, action);
 858              		.loc 1 978 0
 859 0036 6846     		mov	r0, sp
 860 0038 FFF7FEFF 		bl	strlen
 861              	.LVL115:
 862 003c 2018     		add	r0, r4, r0
 863 003e 0B49     		ldr	r1, .L63+4
 864 0040 0D22     		mov	r2, #13
 865 0042 FFF7FEFF 		bl	memcpy
 866              	.LVL116:
 979:main.c        ****     strcat(telemetry, "\"}");
 867              		.loc 1 979 0
 868 0046 6846     		mov	r0, sp
 869 0048 291C     		mov	r1, r5
 870 004a FFF7FEFF 		bl	strcat
 871              	.LVL117:
 980:main.c        ****     
 872              		.loc 1 980 0
 873 004e 6846     		mov	r0, sp
 874 0050 FFF7FEFF 		bl	strlen
 875              	.LVL118:
 876 0054 2018     		add	r0, r4, r0
 877 0056 0649     		ldr	r1, .L63+8
 878 0058 0322     		mov	r2, #3
 879 005a FFF7FEFF 		bl	memcpy
 880              	.LVL119:
 982:main.c        **** }// send_button_telemetry
 881              		.loc 1 982 0
 882 005e 6846     		mov	r0, sp
 883 0060 FFF7FEFF 		bl	send_telemetry
 884              	.LVL120:
 983:main.c        **** 
 885              		.loc 1 983 0
 886 0064 41B0     		add	sp, sp, #260
 887              		@ sp needed
 888              	.LVL121:
 889              	.LVL122:
 890 0066 F0BD     		pop	{r4, r5, r6, r7, pc}
 891              	.L64:
 892              		.align	2
 893              	.L63:
 894 0068 74000000 		.word	.LC29
 895 006c 90000000 		.word	.LC31
 896 0070 40000000 		.word	.LC21
 897              		.cfi_endproc
 898              	.LFE46:
 899              		.size	send_button_telemetry, .-send_button_telemetry
 900              		.section	.text.set_led_strip,"ax",%progbits
 901              		.align	2
 902              		.global	set_led_strip
ARM GAS  C:\Users\BG1026~1\AppData\Local\Temp\cc2n2B4u.s 			page 35


 903              		.code	16
 904              		.thumb_func
 905              		.type	set_led_strip, %function
 906              	set_led_strip:
 907              	.LFB61:
 993:main.c        **** 
 994:main.c        **** void display_button(uint16 button, uint16 intensity, uint16 button_width)
 995:main.c        **** {
 996:main.c        **** #if 1    
 997:main.c        ****     uint16 led_start = (button * button_width) + 1;
 998:main.c        ****     uint16 led_stop  = led_start + button_width;
 999:main.c        ****     uint16 i;
1000:main.c        ****     
1001:main.c        ****     set_led(led_start, intensity / 2);
1002:main.c        ****     set_led(led_stop , intensity / 2);
1003:main.c        ****     
1004:main.c        ****     for (i = led_start + 1; i < led_stop; i++)
1005:main.c        ****     {
1006:main.c        ****         set_led(i, intensity);
1007:main.c        ****     }
1008:main.c        ****       
1009:main.c        **** #else
1010:main.c        ****     switch (button)
1011:main.c        ****     {
1012:main.c        ****         case 0: set_led(1, intensity / 2);
1013:main.c        ****                 set_led(2, intensity    );
1014:main.c        ****                 set_led(3, intensity / 2);
1015:main.c        ****                 break;
1016:main.c        ****         case 1: set_led(3, intensity / 2);
1017:main.c        ****                 set_led(4, intensity    );
1018:main.c        ****                 set_led(5, intensity / 2);
1019:main.c        ****                 break;
1020:main.c        ****         case 2: set_led(5, intensity / 2);
1021:main.c        ****                 set_led(6, intensity    );
1022:main.c        ****                 set_led(7, intensity / 2);
1023:main.c        ****                 break;
1024:main.c        ****         case 3: set_led(7, intensity / 2);
1025:main.c        ****                 set_led(8, intensity    );
1026:main.c        ****                 set_led(9, intensity / 2);
1027:main.c        ****                 break;
1028:main.c        ****         case 4: set_led(9 , intensity / 2);
1029:main.c        ****                 set_led(10, intensity    );
1030:main.c        ****                 set_led(11, intensity / 2);
1031:main.c        ****                 break;
1032:main.c        ****         case 5 : 
1033:main.c        ****         default:
1034:main.c        ****                 set_led(12, intensity / 2);
1035:main.c        ****                 set_led(13, intensity    );
1036:main.c        ****                 set_led(14, intensity / 2);
1037:main.c        ****                 break; 
1038:main.c        ****     }
1039:main.c        ****     
1040:main.c        ****     
1041:main.c        ****     
1042:main.c        **** #endif // 0    
1043:main.c        **** }// display_button
1044:main.c        **** 
ARM GAS  C:\Users\BG1026~1\AppData\Local\Temp\cc2n2B4u.s 			page 36


1045:main.c        **** void display_state(void)
1046:main.c        **** {
1047:main.c        ****     int    new_led_pos  = 0;
1048:main.c        ****     uint16 led_buckets  = SLIDER_RESOLUTION    / number_of_buttons;
1049:main.c        ****     uint16 button_width = NUMBER_OF_WHITE_LEDS / number_of_buttons;
1050:main.c        **** 
1051:main.c        ****     if (cap_cur_pos != cap_old_pos)
1052:main.c        ****     {
1053:main.c        ****         cap_old_pos = cap_cur_pos;
1054:main.c        ****         new_led_pos = cap_cur_pos / led_buckets;
1055:main.c        ****         if ((cap_cur_pos != 0u) && (new_led_pos != led_pos) && (new_led_pos >= 0) && (new_led_pos <
1056:main.c        ****         {
1057:main.c        ****             if (tracker_enable)
1058:main.c        ****             {
1059:main.c        ****                 if (button_width > 1)
1060:main.c        ****                 {
1061:main.c        ****                     display_button(led_pos    , 0x00         , button_width);
1062:main.c        ****                     display_button(new_led_pos, MAX_INTENSITY, button_width);
1063:main.c        ****                 }
1064:main.c        ****                 else
1065:main.c        ****                 {
1066:main.c        ****                     set_led(led_pos    , 0x00         );
1067:main.c        ****                     set_led(new_led_pos, MAX_INTENSITY);
1068:main.c        ****                 }
1069:main.c        ****             }
1070:main.c        ****             
1071:main.c        ****             led_pos = new_led_pos;
1072:main.c        ****             send_button_telemetry(led_pos, "position");
1073:main.c        ****          }
1074:main.c        ****     }
1075:main.c        **** }// display_state
1076:main.c        **** 
1077:main.c        **** void animate_all_colors(void)
1078:main.c        **** {
1079:main.c        ****     static uint16 red             = 0;
1080:main.c        ****     static uint16 green           = 0;
1081:main.c        ****     static uint16 blue            = 0;
1082:main.c        ****     static BOOL   intensity_up    = TRUE;
1083:main.c        ****            uint16 blue_increment  = 64 ;
1084:main.c        ****            uint16 green_increment = 128;
1085:main.c        ****            uint16 red_increment   = 256;
1086:main.c        ****            
1087:main.c        ****     set_led(E_LED_LEFT_RED   ,  red  );
1088:main.c        ****     set_led(E_LED_LEFT_GREEN ,  green);
1089:main.c        ****     set_led(E_LED_LEFT_BLUE  ,  blue );
1090:main.c        ****     set_led(E_LED_RIGHT_RED  , ~red  );
1091:main.c        ****     set_led(E_LED_RIGHT_GREEN, ~green);
1092:main.c        ****     set_led(E_LED_RIGHT_BLUE , ~blue );
1093:main.c        ****    
1094:main.c        ****     if (intensity_up)
1095:main.c        ****     {   
1096:main.c        ****         if (red >= MAX_COLOR)
1097:main.c        ****         {
1098:main.c        ****             intensity_up = FALSE;
1099:main.c        ****         }
1100:main.c        ****         else if (green >= MAX_COLOR) 
1101:main.c        ****         {
ARM GAS  C:\Users\BG1026~1\AppData\Local\Temp\cc2n2B4u.s 			page 37


1102:main.c        ****            red   += red_increment;
1103:main.c        ****            green  = 0;
1104:main.c        ****            blue   = 0;
1105:main.c        ****         } 
1106:main.c        ****         else if (blue >= MAX_COLOR)
1107:main.c        ****         {
1108:main.c        ****             green += green_increment;
1109:main.c        ****             blue   = 0;
1110:main.c        ****         }
1111:main.c        ****         else
1112:main.c        ****         {
1113:main.c        ****             blue += blue_increment;    
1114:main.c        ****         }
1115:main.c        ****     }// if the intensity is going up
1116:main.c        ****     else
1117:main.c        ****     {
1118:main.c        ****         if (red == 0)
1119:main.c        ****         {
1120:main.c        ****             intensity_up = TRUE;
1121:main.c        ****         }
1122:main.c        ****         else if (green == 0)
1123:main.c        ****         {
1124:main.c        ****            red   -= red_increment;
1125:main.c        ****            green  = MAX_COLOR;
1126:main.c        ****            blue   = MAX_COLOR;
1127:main.c        ****         } 
1128:main.c        ****         else if (blue == 0)
1129:main.c        ****         {
1130:main.c        ****             green -= green_increment;
1131:main.c        ****             blue   = MAX_COLOR;
1132:main.c        ****         }
1133:main.c        ****         else
1134:main.c        ****         {
1135:main.c        ****             blue -= blue_increment;    
1136:main.c        ****         }
1137:main.c        ****     }// // else, the intensity is going down
1138:main.c        **** }// animate_all_colors
1139:main.c        **** 
1140:main.c        **** void animate_fix_white(void)
1141:main.c        **** {
1142:main.c        ****     set_led(6, MAX_INTENSITY);
1143:main.c        ****     set_led(7, MAX_INTENSITY);
1144:main.c        ****     set_led(8, MAX_INTENSITY);
1145:main.c        ****     set_led(9, MAX_INTENSITY);
1146:main.c        **** }// animate_fix_led_0
1147:main.c        **** 
1148:main.c        **** void animate_fix_led_14(void)
1149:main.c        **** {
1150:main.c        ****     set_led(14, MAX_INTENSITY);
1151:main.c        **** }// animate_fix_led_0
1152:main.c        **** 
1153:main.c        **** void animate_red_intensity  (void)
1154:main.c        **** {
1155:main.c        **** #ifndef FOR_COLIN    
1156:main.c        ****     animate_color_intensity(E_RED);
1157:main.c        **** #else
1158:main.c        ****     set_led(E_LED_LEFT_RED   , MAX_COLOR   );
ARM GAS  C:\Users\BG1026~1\AppData\Local\Temp\cc2n2B4u.s 			page 38


1159:main.c        ****     set_led(E_LED_LEFT_GREEN , 0x00     );
1160:main.c        ****     set_led(E_LED_LEFT_BLUE  , 0x00);
1161:main.c        ****     set_led(E_LED_RIGHT_RED  , MAX_COLOR);
1162:main.c        ****     set_led(E_LED_RIGHT_GREEN, 0x00     );
1163:main.c        ****     set_led(E_LED_RIGHT_BLUE , 0x00     );
1164:main.c        **** #endif        
1165:main.c        **** }// animate_red_intensity
1166:main.c        **** 
1167:main.c        **** void animate_green_intensity(void)
1168:main.c        **** {
1169:main.c        **** #ifndef FOR_COLIN    
1170:main.c        ****     animate_color_intensity(E_GREEN);
1171:main.c        **** #else
1172:main.c        ****     set_led(E_LED_LEFT_RED   ,  0x00     );
1173:main.c        ****     set_led(E_LED_LEFT_GREEN ,  MAX_COLOR);
1174:main.c        ****     set_led(E_LED_LEFT_BLUE  ,  0x00     );
1175:main.c        ****     set_led(E_LED_RIGHT_RED  ,  0x00     );
1176:main.c        ****     set_led(E_LED_RIGHT_GREEN,  MAX_COLOR);
1177:main.c        ****     set_led(E_LED_RIGHT_BLUE , 0x00 );
1178:main.c        **** #endif    
1179:main.c        **** }// animate_green_intensity
1180:main.c        **** 
1181:main.c        **** void animate_blue_intensity (void)
1182:main.c        **** {
1183:main.c        **** #ifndef FOR_COLIN    
1184:main.c        ****     animate_color_intensity(E_BLUE);
1185:main.c        **** #else
1186:main.c        ****     set_led(E_LED_LEFT_RED   , 0x00     );
1187:main.c        ****     set_led(E_LED_LEFT_GREEN , 0x00     );
1188:main.c        ****     set_led(E_LED_LEFT_BLUE  , MAX_COLOR);
1189:main.c        ****     set_led(E_LED_RIGHT_RED  , 0x00     );
1190:main.c        ****     set_led(E_LED_RIGHT_GREEN, 0x00     );
1191:main.c        ****     set_led(E_LED_RIGHT_BLUE , MAX_COLOR);
1192:main.c        **** #endif        
1193:main.c        **** }// animate_blue_intensity
1194:main.c        **** 
1195:main.c        **** void animate_color_intensity(t_enum_primary_color color)
1196:main.c        **** {
1197:main.c        ****     static uint16 intensity    = 0   ;
1198:main.c        ****     static BOOL   intensity_up = TRUE;
1199:main.c        ****            uint16 increment    = 5   ;
1200:main.c        **** 
1201:main.c        ****     switch (color)
1202:main.c        ****     {
1203:main.c        ****         case E_RED  : set_led(E_LED_LEFT_RED   , intensity);
1204:main.c        ****                       set_led(E_LED_RIGHT_RED  , intensity);
1205:main.c        ****                       break;
1206:main.c        ****         case E_GREEN: set_led(E_LED_LEFT_GREEN , intensity);
1207:main.c        ****                       set_led(E_LED_RIGHT_GREEN, intensity);
1208:main.c        ****                       break;
1209:main.c        ****         case E_BLUE : set_led(E_LED_LEFT_BLUE  , intensity);
1210:main.c        ****                       set_led(E_LED_RIGHT_BLUE , intensity);
1211:main.c        ****                       break;
1212:main.c        ****     }// switch color
1213:main.c        ****                    
1214:main.c        ****     if (intensity_up)
1215:main.c        ****     {
ARM GAS  C:\Users\BG1026~1\AppData\Local\Temp\cc2n2B4u.s 			page 39


1216:main.c        ****         intensity += increment;
1217:main.c        ****         if (intensity >= MAX_COLOR)
1218:main.c        ****         {
1219:main.c        ****             intensity_up = FALSE;
1220:main.c        ****         }
1221:main.c        ****     }// if the intensity is going up
1222:main.c        ****     else
1223:main.c        ****     {
1224:main.c        ****         intensity -= increment;
1225:main.c        ****         if (intensity == 0)
1226:main.c        ****         {
1227:main.c        ****             intensity_up = TRUE;
1228:main.c        ****         }
1229:main.c        ****     }  
1230:main.c        **** }// animate_color_intensity
1231:main.c        **** 
1232:main.c        **** void animate_rainbow_colors()
1233:main.c        **** {
1234:main.c        ****     static uint16             cycle         = 0;
1235:main.c        ****     static uint16             color_index   = 0;
1236:main.c        ****     static t_struct_rgb_color vec_rainbow[] = {{148,   0, 211}, // violet
1237:main.c        ****                                                { 75,   0, 130}, // indigo
1238:main.c        ****                                                {  0,   0, 255}, // blue
1239:main.c        ****                                                {  0, 255,   0}, // green
1240:main.c        ****                                                {255, 255,   0}, // yellow
1241:main.c        ****                                                {255, 127,   0}, // orange
1242:main.c        ****                                                {255,   0,   0}, // red
1243:main.c        ****                                                {  0,   0,   0}};
1244:main.c        ****            BOOL               skip_cycle    = cycle % 64;
1245:main.c        **** 
1246:main.c        ****     cycle++;
1247:main.c        **** 
1248:main.c        ****     if (skip_cycle)
1249:main.c        ****     {
1250:main.c        ****         return;
1251:main.c        ****     }
1252:main.c        ****     
1253:main.c        ****     if ((vec_rainbow[color_index].red + vec_rainbow[color_index].green + vec_rainbow[color_index].b
1254:main.c        ****     {
1255:main.c        ****         color_index = 0;      
1256:main.c        ****     }
1257:main.c        ****     
1258:main.c        ****     set_led(E_LED_LEFT_RED   , vec_rainbow[color_index].red  );
1259:main.c        ****     set_led(E_LED_RIGHT_RED  , vec_rainbow[color_index].red  );
1260:main.c        ****     set_led(E_LED_LEFT_GREEN , vec_rainbow[color_index].green);
1261:main.c        ****     set_led(E_LED_RIGHT_GREEN, vec_rainbow[color_index].green);  
1262:main.c        ****     set_led(E_LED_LEFT_BLUE  , vec_rainbow[color_index].blue );
1263:main.c        ****     set_led(E_LED_RIGHT_BLUE , vec_rainbow[color_index].blue );
1264:main.c        ****     color_index++;    
1265:main.c        **** }// animate_rainbow_colors
1266:main.c        **** 
1267:main.c        **** void animate_left_right()
1268:main.c        **** {
1269:main.c        ****     static uint16 cycle      = 0;
1270:main.c        ****            BOOL   skip_cycle = cycle % 10;
1271:main.c        **** 
1272:main.c        ****     cycle++;
ARM GAS  C:\Users\BG1026~1\AppData\Local\Temp\cc2n2B4u.s 			page 40


1273:main.c        **** 
1274:main.c        ****     if (skip_cycle)
1275:main.c        ****     {
1276:main.c        ****         return;
1277:main.c        ****     }
1278:main.c        **** 
1279:main.c        ****     set_led(led_pos, 0x00);
1280:main.c        **** 
1281:main.c        ****     led_pos++;
1282:main.c        ****     led_pos %= NUMBER_OF_WHITE_LEDS;
1283:main.c        **** 
1284:main.c        ****     set_led(led_pos, MAX_INTENSITY);
1285:main.c        **** }// animate_left_right
1286:main.c        **** 
1287:main.c        **** void animate_intensity()
1288:main.c        **** {
1289:main.c        ****     static uint16 intensity    = 0   ;
1290:main.c        ****     static BOOL   intensity_up = TRUE;
1291:main.c        ****            uint16 increment    = 1   ;
1292:main.c        ****            int    i                  ;
1293:main.c        ****     
1294:main.c        ****     for (i = 0; i < NUMBER_OF_WHITE_LEDS; i++)
1295:main.c        ****     {
1296:main.c        ****         set_led(i, intensity);  
1297:main.c        ****     }
1298:main.c        ****     
1299:main.c        ****     if (intensity_up)
1300:main.c        ****     {
1301:main.c        ****         intensity += increment;
1302:main.c        ****         if (intensity >= 0x0FF)
1303:main.c        ****         {
1304:main.c        ****             intensity_up = FALSE;
1305:main.c        ****         }
1306:main.c        ****     }// if the intensiry is going up
1307:main.c        ****     else
1308:main.c        ****     {
1309:main.c        ****         intensity -= increment;
1310:main.c        ****         if (intensity == 0)
1311:main.c        ****         {
1312:main.c        ****             intensity_up = TRUE;
1313:main.c        ****         }
1314:main.c        ****     }
1315:main.c        **** }// animate_intensity
1316:main.c        **** 
1317:main.c        **** void animate_2_leds()
1318:main.c        **** {
1319:main.c        ****     static uint16 cycle      = 0;
1320:main.c        ****     static uint16 right_led  = (NUMBER_OF_WHITE_LEDS / 2);
1321:main.c        ****     static uint16 left_led   = (NUMBER_OF_WHITE_LEDS / 2) - 1;
1322:main.c        ****     static BOOL   outward    = TRUE;
1323:main.c        ****            BOOL   skip_cycle = cycle % 5;
1324:main.c        **** 
1325:main.c        ****     cycle++;
1326:main.c        **** 
1327:main.c        ****     if (skip_cycle)
1328:main.c        ****     {
1329:main.c        ****         return;
ARM GAS  C:\Users\BG1026~1\AppData\Local\Temp\cc2n2B4u.s 			page 41


1330:main.c        ****     }
1331:main.c        **** 
1332:main.c        ****     clear_all_leds();
1333:main.c        **** 
1334:main.c        ****     set_led(left_led , MAX_INTENSITY);
1335:main.c        ****     set_led(right_led, MAX_INTENSITY);
1336:main.c        **** 
1337:main.c        ****     if (outward)
1338:main.c        ****     {
1339:main.c        ****         left_led --;
1340:main.c        ****         right_led++;
1341:main.c        ****         outward = left_led; // if left_led == 0, we go inward
1342:main.c        ****     }// if we go outward
1343:main.c        ****     else
1344:main.c        ****     {
1345:main.c        ****         left_led ++;
1346:main.c        ****         right_led--;
1347:main.c        ****         outward = (right_led == (NUMBER_OF_WHITE_LEDS / 2));
1348:main.c        ****     }// we go inward
1349:main.c        **** }// animate_2_leds
1350:main.c        **** 
1351:main.c        **** void set_led_strip (uint16 led_vec[MAX_LEDS])
1352:main.c        **** {
 908              		.loc 1 1352 0
 909              		.cfi_startproc
 910              	.LVL123:
 911 0000 08B5     		push	{r3, lr}
 912              		.cfi_def_cfa_offset 8
 913              		.cfi_offset 3, -8
 914              		.cfi_offset 14, -4
1353:main.c        ****     led_buffer.led0  = led_vec[23];
 915              		.loc 1 1353 0
 916 0002 C28D     		ldrh	r2, [r0, #46]
 917 0004 674B     		ldr	r3, .L66
 918 0006 1205     		lsl	r2, r2, #20
 919 0008 110D     		lsr	r1, r2, #20
 920 000a 1A8A     		ldrh	r2, [r3, #16]
 921 000c 120B     		lsr	r2, r2, #12
 922 000e 1203     		lsl	r2, r2, #12
 923 0010 0A43     		orr	r2, r1
 924 0012 1A82     		strh	r2, [r3, #16]
1354:main.c        ****     led_buffer.led1  = led_vec[22];
 925              		.loc 1 1354 0
 926 0014 828D     		ldrh	r2, [r0, #44]
 927 0016 1205     		lsl	r2, r2, #20
 928 0018 110D     		lsr	r1, r2, #20
 929 001a 5A8A     		ldrh	r2, [r3, #18]
 930 001c 120B     		lsr	r2, r2, #12
 931 001e 1203     		lsl	r2, r2, #12
 932 0020 0A43     		orr	r2, r1
 933 0022 5A82     		strh	r2, [r3, #18]
1355:main.c        ****     led_buffer.led2  = led_vec[21];
 934              		.loc 1 1355 0
 935 0024 428D     		ldrh	r2, [r0, #42]
 936 0026 1205     		lsl	r2, r2, #20
 937 0028 110D     		lsr	r1, r2, #20
 938 002a 9A8A     		ldrh	r2, [r3, #20]
ARM GAS  C:\Users\BG1026~1\AppData\Local\Temp\cc2n2B4u.s 			page 42


 939 002c 120B     		lsr	r2, r2, #12
 940 002e 1203     		lsl	r2, r2, #12
 941 0030 0A43     		orr	r2, r1
 942 0032 9A82     		strh	r2, [r3, #20]
1356:main.c        ****     led_buffer.led3  = led_vec[20];
 943              		.loc 1 1356 0
 944 0034 028D     		ldrh	r2, [r0, #40]
 945 0036 1205     		lsl	r2, r2, #20
 946 0038 110D     		lsr	r1, r2, #20
 947 003a DA8A     		ldrh	r2, [r3, #22]
 948 003c 120B     		lsr	r2, r2, #12
 949 003e 1203     		lsl	r2, r2, #12
 950 0040 0A43     		orr	r2, r1
 951 0042 DA82     		strh	r2, [r3, #22]
1357:main.c        ****     led_buffer.led4  = led_vec[19];
 952              		.loc 1 1357 0
 953 0044 C28C     		ldrh	r2, [r0, #38]
 954 0046 1205     		lsl	r2, r2, #20
 955 0048 110D     		lsr	r1, r2, #20
 956 004a 1A8B     		ldrh	r2, [r3, #24]
 957 004c 120B     		lsr	r2, r2, #12
 958 004e 1203     		lsl	r2, r2, #12
 959 0050 0A43     		orr	r2, r1
 960 0052 1A83     		strh	r2, [r3, #24]
1358:main.c        ****     led_buffer.led5  = led_vec[18];
 961              		.loc 1 1358 0
 962 0054 828C     		ldrh	r2, [r0, #36]
 963 0056 1205     		lsl	r2, r2, #20
 964 0058 110D     		lsr	r1, r2, #20
 965 005a 5A8B     		ldrh	r2, [r3, #26]
 966 005c 120B     		lsr	r2, r2, #12
 967 005e 1203     		lsl	r2, r2, #12
 968 0060 0A43     		orr	r2, r1
 969 0062 5A83     		strh	r2, [r3, #26]
1359:main.c        ****     led_buffer.led6  = led_vec[17];
 970              		.loc 1 1359 0
 971 0064 428C     		ldrh	r2, [r0, #34]
 972 0066 1205     		lsl	r2, r2, #20
 973 0068 110D     		lsr	r1, r2, #20
 974 006a 9A8B     		ldrh	r2, [r3, #28]
 975 006c 120B     		lsr	r2, r2, #12
 976 006e 1203     		lsl	r2, r2, #12
 977 0070 0A43     		orr	r2, r1
 978 0072 9A83     		strh	r2, [r3, #28]
1360:main.c        ****     led_buffer.led7  = led_vec[16];
 979              		.loc 1 1360 0
 980 0074 028C     		ldrh	r2, [r0, #32]
 981 0076 1205     		lsl	r2, r2, #20
 982 0078 110D     		lsr	r1, r2, #20
 983 007a DA8B     		ldrh	r2, [r3, #30]
 984 007c 120B     		lsr	r2, r2, #12
 985 007e 1203     		lsl	r2, r2, #12
 986 0080 0A43     		orr	r2, r1
 987 0082 DA83     		strh	r2, [r3, #30]
1361:main.c        ****     led_buffer.led8  = led_vec[15];
 988              		.loc 1 1361 0
 989 0084 C28B     		ldrh	r2, [r0, #30]
ARM GAS  C:\Users\BG1026~1\AppData\Local\Temp\cc2n2B4u.s 			page 43


 990 0086 1205     		lsl	r2, r2, #20
 991 0088 110D     		lsr	r1, r2, #20
 992 008a 1A8C     		ldrh	r2, [r3, #32]
 993 008c 120B     		lsr	r2, r2, #12
 994 008e 1203     		lsl	r2, r2, #12
 995 0090 0A43     		orr	r2, r1
 996 0092 1A84     		strh	r2, [r3, #32]
1362:main.c        ****     led_buffer.led9  = led_vec[14];
 997              		.loc 1 1362 0
 998 0094 828B     		ldrh	r2, [r0, #28]
 999 0096 1205     		lsl	r2, r2, #20
 1000 0098 110D     		lsr	r1, r2, #20
 1001 009a 5A8C     		ldrh	r2, [r3, #34]
 1002 009c 120B     		lsr	r2, r2, #12
 1003 009e 1203     		lsl	r2, r2, #12
 1004 00a0 0A43     		orr	r2, r1
 1005 00a2 5A84     		strh	r2, [r3, #34]
1363:main.c        ****     led_buffer.led10 = led_vec[13];
 1006              		.loc 1 1363 0
 1007 00a4 428B     		ldrh	r2, [r0, #26]
 1008 00a6 1205     		lsl	r2, r2, #20
 1009 00a8 110D     		lsr	r1, r2, #20
 1010 00aa 9A8C     		ldrh	r2, [r3, #36]
 1011 00ac 120B     		lsr	r2, r2, #12
 1012 00ae 1203     		lsl	r2, r2, #12
 1013 00b0 0A43     		orr	r2, r1
 1014 00b2 9A84     		strh	r2, [r3, #36]
1364:main.c        ****     led_buffer.led11 = led_vec[12];
 1015              		.loc 1 1364 0
 1016 00b4 028B     		ldrh	r2, [r0, #24]
 1017 00b6 1205     		lsl	r2, r2, #20
 1018 00b8 110D     		lsr	r1, r2, #20
 1019 00ba DA8C     		ldrh	r2, [r3, #38]
 1020 00bc 120B     		lsr	r2, r2, #12
 1021 00be 1203     		lsl	r2, r2, #12
 1022 00c0 0A43     		orr	r2, r1
 1023 00c2 DA84     		strh	r2, [r3, #38]
1365:main.c        ****     led_buffer.led12 = led_vec[11];
 1024              		.loc 1 1365 0
 1025 00c4 C28A     		ldrh	r2, [r0, #22]
 1026 00c6 1205     		lsl	r2, r2, #20
 1027 00c8 110D     		lsr	r1, r2, #20
 1028 00ca 1A8D     		ldrh	r2, [r3, #40]
 1029 00cc 120B     		lsr	r2, r2, #12
 1030 00ce 1203     		lsl	r2, r2, #12
 1031 00d0 0A43     		orr	r2, r1
 1032 00d2 1A85     		strh	r2, [r3, #40]
1366:main.c        ****     led_buffer.led13 = led_vec[10];
 1033              		.loc 1 1366 0
 1034 00d4 828A     		ldrh	r2, [r0, #20]
 1035 00d6 1205     		lsl	r2, r2, #20
 1036 00d8 110D     		lsr	r1, r2, #20
 1037 00da 5A8D     		ldrh	r2, [r3, #42]
 1038 00dc 120B     		lsr	r2, r2, #12
 1039 00de 1203     		lsl	r2, r2, #12
 1040 00e0 0A43     		orr	r2, r1
 1041 00e2 5A85     		strh	r2, [r3, #42]
ARM GAS  C:\Users\BG1026~1\AppData\Local\Temp\cc2n2B4u.s 			page 44


1367:main.c        ****     led_buffer.led14 = led_vec[ 9];
 1042              		.loc 1 1367 0
 1043 00e4 428A     		ldrh	r2, [r0, #18]
 1044 00e6 1205     		lsl	r2, r2, #20
 1045 00e8 110D     		lsr	r1, r2, #20
 1046 00ea 9A8D     		ldrh	r2, [r3, #44]
 1047 00ec 120B     		lsr	r2, r2, #12
 1048 00ee 1203     		lsl	r2, r2, #12
 1049 00f0 0A43     		orr	r2, r1
 1050 00f2 9A85     		strh	r2, [r3, #44]
1368:main.c        ****     led_buffer.led15 = led_vec[ 8];
 1051              		.loc 1 1368 0
 1052 00f4 028A     		ldrh	r2, [r0, #16]
 1053 00f6 1205     		lsl	r2, r2, #20
 1054 00f8 110D     		lsr	r1, r2, #20
 1055 00fa DA8D     		ldrh	r2, [r3, #46]
 1056 00fc 120B     		lsr	r2, r2, #12
 1057 00fe 1203     		lsl	r2, r2, #12
 1058 0100 0A43     		orr	r2, r1
 1059 0102 DA85     		strh	r2, [r3, #46]
1369:main.c        ****     led_buffer.led16 = led_vec[ 7];
 1060              		.loc 1 1369 0
 1061 0104 C289     		ldrh	r2, [r0, #14]
 1062 0106 1205     		lsl	r2, r2, #20
 1063 0108 110D     		lsr	r1, r2, #20
 1064 010a 1A8E     		ldrh	r2, [r3, #48]
 1065 010c 120B     		lsr	r2, r2, #12
 1066 010e 1203     		lsl	r2, r2, #12
 1067 0110 0A43     		orr	r2, r1
 1068 0112 1A86     		strh	r2, [r3, #48]
1370:main.c        ****     led_buffer.led17 = led_vec[ 6];
 1069              		.loc 1 1370 0
 1070 0114 8289     		ldrh	r2, [r0, #12]
 1071 0116 1205     		lsl	r2, r2, #20
 1072 0118 110D     		lsr	r1, r2, #20
 1073 011a 5A8E     		ldrh	r2, [r3, #50]
 1074 011c 120B     		lsr	r2, r2, #12
 1075 011e 1203     		lsl	r2, r2, #12
 1076 0120 0A43     		orr	r2, r1
 1077 0122 5A86     		strh	r2, [r3, #50]
1371:main.c        ****     led_buffer.led18 = led_vec[ 5];
 1078              		.loc 1 1371 0
 1079 0124 4289     		ldrh	r2, [r0, #10]
 1080 0126 1205     		lsl	r2, r2, #20
 1081 0128 110D     		lsr	r1, r2, #20
 1082 012a 9A8E     		ldrh	r2, [r3, #52]
 1083 012c 120B     		lsr	r2, r2, #12
 1084 012e 1203     		lsl	r2, r2, #12
 1085 0130 0A43     		orr	r2, r1
 1086 0132 9A86     		strh	r2, [r3, #52]
1372:main.c        ****     led_buffer.led19 = led_vec[ 4];
 1087              		.loc 1 1372 0
 1088 0134 0289     		ldrh	r2, [r0, #8]
 1089 0136 1205     		lsl	r2, r2, #20
 1090 0138 110D     		lsr	r1, r2, #20
 1091 013a DA8E     		ldrh	r2, [r3, #54]
 1092 013c 120B     		lsr	r2, r2, #12
ARM GAS  C:\Users\BG1026~1\AppData\Local\Temp\cc2n2B4u.s 			page 45


 1093 013e 1203     		lsl	r2, r2, #12
 1094 0140 0A43     		orr	r2, r1
 1095 0142 DA86     		strh	r2, [r3, #54]
1373:main.c        ****     led_buffer.led20 = led_vec[ 3];
 1096              		.loc 1 1373 0
 1097 0144 C288     		ldrh	r2, [r0, #6]
 1098 0146 1205     		lsl	r2, r2, #20
 1099 0148 110D     		lsr	r1, r2, #20
 1100 014a 1A8F     		ldrh	r2, [r3, #56]
 1101 014c 120B     		lsr	r2, r2, #12
 1102 014e 1203     		lsl	r2, r2, #12
 1103 0150 0A43     		orr	r2, r1
 1104 0152 1A87     		strh	r2, [r3, #56]
1374:main.c        ****     led_buffer.led21 = led_vec[ 2];
 1105              		.loc 1 1374 0
 1106 0154 8288     		ldrh	r2, [r0, #4]
 1107 0156 1205     		lsl	r2, r2, #20
 1108 0158 110D     		lsr	r1, r2, #20
 1109 015a 5A8F     		ldrh	r2, [r3, #58]
 1110 015c 120B     		lsr	r2, r2, #12
 1111 015e 1203     		lsl	r2, r2, #12
 1112 0160 0A43     		orr	r2, r1
 1113 0162 5A87     		strh	r2, [r3, #58]
1375:main.c        ****     led_buffer.led22 = led_vec[ 1];
 1114              		.loc 1 1375 0
 1115 0164 4288     		ldrh	r2, [r0, #2]
 1116 0166 1205     		lsl	r2, r2, #20
 1117 0168 110D     		lsr	r1, r2, #20
 1118 016a 9A8F     		ldrh	r2, [r3, #60]
 1119 016c 120B     		lsr	r2, r2, #12
 1120 016e 1203     		lsl	r2, r2, #12
 1121 0170 0A43     		orr	r2, r1
 1122 0172 9A87     		strh	r2, [r3, #60]
1376:main.c        ****     led_buffer.led23 = led_vec[ 0];
 1123              		.loc 1 1376 0
 1124 0174 0288     		ldrh	r2, [r0]
 1125 0176 1205     		lsl	r2, r2, #20
 1126 0178 110D     		lsr	r1, r2, #20
 1127 017a DA8F     		ldrh	r2, [r3, #62]
 1128 017c 120B     		lsr	r2, r2, #12
 1129 017e 1203     		lsl	r2, r2, #12
 1130 0180 0A43     		orr	r2, r1
 1131 0182 DA87     		strh	r2, [r3, #62]
1377:main.c        **** 
1378:main.c        ****     SPIM_SpiUartPutArray((const uint16*)&led_buffer, sizeof(led_buffer) / sizeof(uint16));
 1132              		.loc 1 1378 0
 1133 0184 1033     		add	r3, r3, #16
 1134 0186 181C     		mov	r0, r3
 1135              	.LVL124:
 1136 0188 1821     		mov	r1, #24
 1137 018a FFF7FEFF 		bl	SPIM_SpiUartPutArray
 1138              	.LVL125:
1379:main.c        ****     Latch_Write(1);
 1139              		.loc 1 1379 0
 1140 018e 0120     		mov	r0, #1
 1141 0190 FFF7FEFF 		bl	Latch_Write
 1142              	.LVL126:
ARM GAS  C:\Users\BG1026~1\AppData\Local\Temp\cc2n2B4u.s 			page 46


1380:main.c        ****     CyDelayUs  (1);
 1143              		.loc 1 1380 0
 1144 0194 0120     		mov	r0, #1
 1145 0196 FFF7FEFF 		bl	CyDelayUs
 1146              	.LVL127:
1381:main.c        ****     Latch_Write(0);
 1147              		.loc 1 1381 0
 1148 019a 0020     		mov	r0, #0
 1149 019c FFF7FEFF 		bl	Latch_Write
 1150              	.LVL128:
1382:main.c        **** }// set_led
 1151              		.loc 1 1382 0
 1152              		@ sp needed
 1153 01a0 08BD     		pop	{r3, pc}
 1154              	.L67:
 1155 01a2 C046     		.align	2
 1156              	.L66:
 1157 01a4 00000000 		.word	.LANCHOR0
 1158              		.cfi_endproc
 1159              	.LFE61:
 1160              		.size	set_led_strip, .-set_led_strip
 1161              		.section	.text.set_led,"ax",%progbits
 1162              		.align	2
 1163              		.global	set_led
 1164              		.code	16
 1165              		.thumb_func
 1166              		.type	set_led, %function
 1167              	set_led:
 1168              	.LFB62:
1383:main.c        **** 
1384:main.c        **** void set_led (char led, uint16 intensity)
1385:main.c        **** {
 1169              		.loc 1 1385 0
 1170              		.cfi_startproc
 1171              	.LVL129:
 1172 0000 08B5     		push	{r3, lr}
 1173              		.cfi_def_cfa_offset 8
 1174              		.cfi_offset 3, -8
 1175              		.cfi_offset 14, -4
 1176              	.LVL130:
1386:main.c        ****     uint16  set_value = intensity; // min(intensity, MAX_INTENSITY);
1387:main.c        ****     uint16  led_min   = min(led, MAX_LEDS - 1);
 1177              		.loc 1 1387 0
 1178 0002 1628     		cmp	r0, #22
 1179 0004 01D8     		bhi	.L97
 1180              		.loc 1 1387 0 is_stmt 0 discriminator 1
 1181 0006 80B2     		uxth	r0, r0
 1182              	.LVL131:
 1183 0008 00E0     		b	.L69
 1184              	.LVL132:
 1185              	.L97:
 1186              		.loc 1 1387 0
 1187 000a 1720     		mov	r0, #23
 1188              	.LVL133:
 1189              	.L69:
1388:main.c        **** 
1389:main.c        ****     switch (led_min)
ARM GAS  C:\Users\BG1026~1\AppData\Local\Temp\cc2n2B4u.s 			page 47


 1190              		.loc 1 1389 0 is_stmt 1 discriminator 4
 1191 000c 1728     		cmp	r0, #23
 1192 000e 00D9     		bls	.LCB1177
 1193 0010 E8E0     		b	.L68	@long jump
 1194              	.LCB1177:
 1195 0012 8000     		lsl	r0, r0, #2
 1196              	.LVL134:
 1197 0014 744B     		ldr	r3, .L98
 1198 0016 1B58     		ldr	r3, [r3, r0]
 1199 0018 9F46     		mov	pc, r3
 1200              		.section	.rodata
 1201              		.align	2
 1202              	.L72:
 1203 0000 B8010000 		.word	.L71
 1204 0004 A6010000 		.word	.L73
 1205 0008 94010000 		.word	.L74
 1206 000c 82010000 		.word	.L75
 1207 0010 70010000 		.word	.L76
 1208 0014 5E010000 		.word	.L77
 1209 0018 4C010000 		.word	.L78
 1210 001c 3A010000 		.word	.L79
 1211 0020 28010000 		.word	.L80
 1212 0024 16010000 		.word	.L81
 1213 0028 04010000 		.word	.L82
 1214 002c F2000000 		.word	.L83
 1215 0030 E0000000 		.word	.L84
 1216 0034 CE000000 		.word	.L85
 1217 0038 BC000000 		.word	.L86
 1218 003c AA000000 		.word	.L87
 1219 0040 98000000 		.word	.L88
 1220 0044 86000000 		.word	.L89
 1221 0048 74000000 		.word	.L90
 1222 004c 62000000 		.word	.L91
 1223 0050 50000000 		.word	.L92
 1224 0054 3E000000 		.word	.L93
 1225 0058 2C000000 		.word	.L94
 1226 005c 1A000000 		.word	.L95
 1227              		.section	.text.set_led
 1228              	.L95:
1390:main.c        ****     {
1391:main.c        ****         case 23: led_buffer.led0  = set_value;   
 1229              		.loc 1 1391 0
 1230 001a 744A     		ldr	r2, .L98+4
 1231 001c 0905     		lsl	r1, r1, #20
 1232              	.LVL135:
 1233 001e 0B0D     		lsr	r3, r1, #20
 1234 0020 118A     		ldrh	r1, [r2, #16]
 1235 0022 090B     		lsr	r1, r1, #12
 1236 0024 0903     		lsl	r1, r1, #12
 1237 0026 1943     		orr	r1, r3
 1238 0028 1182     		strh	r1, [r2, #16]
1392:main.c        ****                  break;
 1239              		.loc 1 1392 0
 1240 002a CDE0     		b	.L96
 1241              	.LVL136:
 1242              	.L94:
1393:main.c        ****         case 22: led_buffer.led1  = set_value;   
ARM GAS  C:\Users\BG1026~1\AppData\Local\Temp\cc2n2B4u.s 			page 48


 1243              		.loc 1 1393 0
 1244 002c 6F4A     		ldr	r2, .L98+4
 1245 002e 0905     		lsl	r1, r1, #20
 1246              	.LVL137:
 1247 0030 0B0D     		lsr	r3, r1, #20
 1248 0032 518A     		ldrh	r1, [r2, #18]
 1249 0034 090B     		lsr	r1, r1, #12
 1250 0036 0903     		lsl	r1, r1, #12
 1251 0038 1943     		orr	r1, r3
 1252 003a 5182     		strh	r1, [r2, #18]
1394:main.c        ****                  break;
 1253              		.loc 1 1394 0
 1254 003c C4E0     		b	.L96
 1255              	.LVL138:
 1256              	.L93:
1395:main.c        ****         case 21: led_buffer.led2  = set_value;   
 1257              		.loc 1 1395 0
 1258 003e 6B4A     		ldr	r2, .L98+4
 1259 0040 0905     		lsl	r1, r1, #20
 1260              	.LVL139:
 1261 0042 0B0D     		lsr	r3, r1, #20
 1262 0044 918A     		ldrh	r1, [r2, #20]
 1263 0046 090B     		lsr	r1, r1, #12
 1264 0048 0903     		lsl	r1, r1, #12
 1265 004a 1943     		orr	r1, r3
 1266 004c 9182     		strh	r1, [r2, #20]
1396:main.c        ****                  break;
 1267              		.loc 1 1396 0
 1268 004e BBE0     		b	.L96
 1269              	.LVL140:
 1270              	.L92:
1397:main.c        ****         case 20: led_buffer.led3  = set_value;   
 1271              		.loc 1 1397 0
 1272 0050 664A     		ldr	r2, .L98+4
 1273 0052 0905     		lsl	r1, r1, #20
 1274              	.LVL141:
 1275 0054 0B0D     		lsr	r3, r1, #20
 1276 0056 D18A     		ldrh	r1, [r2, #22]
 1277 0058 090B     		lsr	r1, r1, #12
 1278 005a 0903     		lsl	r1, r1, #12
 1279 005c 1943     		orr	r1, r3
 1280 005e D182     		strh	r1, [r2, #22]
1398:main.c        ****                  break;
 1281              		.loc 1 1398 0
 1282 0060 B2E0     		b	.L96
 1283              	.LVL142:
 1284              	.L91:
1399:main.c        ****         case 19: led_buffer.led4  = set_value;   
 1285              		.loc 1 1399 0
 1286 0062 624A     		ldr	r2, .L98+4
 1287 0064 0905     		lsl	r1, r1, #20
 1288              	.LVL143:
 1289 0066 0B0D     		lsr	r3, r1, #20
 1290 0068 118B     		ldrh	r1, [r2, #24]
 1291 006a 090B     		lsr	r1, r1, #12
 1292 006c 0903     		lsl	r1, r1, #12
 1293 006e 1943     		orr	r1, r3
ARM GAS  C:\Users\BG1026~1\AppData\Local\Temp\cc2n2B4u.s 			page 49


 1294 0070 1183     		strh	r1, [r2, #24]
1400:main.c        ****                  break;
 1295              		.loc 1 1400 0
 1296 0072 A9E0     		b	.L96
 1297              	.LVL144:
 1298              	.L90:
1401:main.c        ****         case 18: led_buffer.led5  = set_value;   
 1299              		.loc 1 1401 0
 1300 0074 5D4A     		ldr	r2, .L98+4
 1301 0076 0905     		lsl	r1, r1, #20
 1302              	.LVL145:
 1303 0078 0B0D     		lsr	r3, r1, #20
 1304 007a 518B     		ldrh	r1, [r2, #26]
 1305 007c 090B     		lsr	r1, r1, #12
 1306 007e 0903     		lsl	r1, r1, #12
 1307 0080 1943     		orr	r1, r3
 1308 0082 5183     		strh	r1, [r2, #26]
1402:main.c        ****                  break;
 1309              		.loc 1 1402 0
 1310 0084 A0E0     		b	.L96
 1311              	.LVL146:
 1312              	.L89:
1403:main.c        ****         case 17: led_buffer.led6  = set_value;   
 1313              		.loc 1 1403 0
 1314 0086 594A     		ldr	r2, .L98+4
 1315 0088 0905     		lsl	r1, r1, #20
 1316              	.LVL147:
 1317 008a 0B0D     		lsr	r3, r1, #20
 1318 008c 918B     		ldrh	r1, [r2, #28]
 1319 008e 090B     		lsr	r1, r1, #12
 1320 0090 0903     		lsl	r1, r1, #12
 1321 0092 1943     		orr	r1, r3
 1322 0094 9183     		strh	r1, [r2, #28]
1404:main.c        ****                  break;
 1323              		.loc 1 1404 0
 1324 0096 97E0     		b	.L96
 1325              	.LVL148:
 1326              	.L88:
1405:main.c        ****         case 16: led_buffer.led7  = set_value;   
 1327              		.loc 1 1405 0
 1328 0098 544A     		ldr	r2, .L98+4
 1329 009a 0905     		lsl	r1, r1, #20
 1330              	.LVL149:
 1331 009c 0B0D     		lsr	r3, r1, #20
 1332 009e D18B     		ldrh	r1, [r2, #30]
 1333 00a0 090B     		lsr	r1, r1, #12
 1334 00a2 0903     		lsl	r1, r1, #12
 1335 00a4 1943     		orr	r1, r3
 1336 00a6 D183     		strh	r1, [r2, #30]
1406:main.c        ****                  break;
 1337              		.loc 1 1406 0
 1338 00a8 8EE0     		b	.L96
 1339              	.LVL150:
 1340              	.L87:
1407:main.c        ****         case 15: led_buffer.led8  = set_value;   
 1341              		.loc 1 1407 0
 1342 00aa 504A     		ldr	r2, .L98+4
ARM GAS  C:\Users\BG1026~1\AppData\Local\Temp\cc2n2B4u.s 			page 50


 1343 00ac 0905     		lsl	r1, r1, #20
 1344              	.LVL151:
 1345 00ae 0B0D     		lsr	r3, r1, #20
 1346 00b0 118C     		ldrh	r1, [r2, #32]
 1347 00b2 090B     		lsr	r1, r1, #12
 1348 00b4 0903     		lsl	r1, r1, #12
 1349 00b6 1943     		orr	r1, r3
 1350 00b8 1184     		strh	r1, [r2, #32]
1408:main.c        ****                  break;
 1351              		.loc 1 1408 0
 1352 00ba 85E0     		b	.L96
 1353              	.LVL152:
 1354              	.L86:
1409:main.c        ****         case 14: led_buffer.led9  = set_value;   
 1355              		.loc 1 1409 0
 1356 00bc 4B4A     		ldr	r2, .L98+4
 1357 00be 0905     		lsl	r1, r1, #20
 1358              	.LVL153:
 1359 00c0 0B0D     		lsr	r3, r1, #20
 1360 00c2 518C     		ldrh	r1, [r2, #34]
 1361 00c4 090B     		lsr	r1, r1, #12
 1362 00c6 0903     		lsl	r1, r1, #12
 1363 00c8 1943     		orr	r1, r3
 1364 00ca 5184     		strh	r1, [r2, #34]
1410:main.c        ****                  break;
 1365              		.loc 1 1410 0
 1366 00cc 7CE0     		b	.L96
 1367              	.LVL154:
 1368              	.L85:
1411:main.c        ****         case 13: led_buffer.led10 = set_value;   
 1369              		.loc 1 1411 0
 1370 00ce 474A     		ldr	r2, .L98+4
 1371 00d0 0905     		lsl	r1, r1, #20
 1372              	.LVL155:
 1373 00d2 0B0D     		lsr	r3, r1, #20
 1374 00d4 918C     		ldrh	r1, [r2, #36]
 1375 00d6 090B     		lsr	r1, r1, #12
 1376 00d8 0903     		lsl	r1, r1, #12
 1377 00da 1943     		orr	r1, r3
 1378 00dc 9184     		strh	r1, [r2, #36]
1412:main.c        ****                  break;
 1379              		.loc 1 1412 0
 1380 00de 73E0     		b	.L96
 1381              	.LVL156:
 1382              	.L84:
1413:main.c        ****         case 12: led_buffer.led11 = set_value;   
 1383              		.loc 1 1413 0
 1384 00e0 424A     		ldr	r2, .L98+4
 1385 00e2 0905     		lsl	r1, r1, #20
 1386              	.LVL157:
 1387 00e4 0B0D     		lsr	r3, r1, #20
 1388 00e6 D18C     		ldrh	r1, [r2, #38]
 1389 00e8 090B     		lsr	r1, r1, #12
 1390 00ea 0903     		lsl	r1, r1, #12
 1391 00ec 1943     		orr	r1, r3
 1392 00ee D184     		strh	r1, [r2, #38]
1414:main.c        ****                  break;
ARM GAS  C:\Users\BG1026~1\AppData\Local\Temp\cc2n2B4u.s 			page 51


 1393              		.loc 1 1414 0
 1394 00f0 6AE0     		b	.L96
 1395              	.LVL158:
 1396              	.L83:
1415:main.c        ****         case 11: led_buffer.led12 = set_value;   
 1397              		.loc 1 1415 0
 1398 00f2 3E4A     		ldr	r2, .L98+4
 1399 00f4 0905     		lsl	r1, r1, #20
 1400              	.LVL159:
 1401 00f6 0B0D     		lsr	r3, r1, #20
 1402 00f8 118D     		ldrh	r1, [r2, #40]
 1403 00fa 090B     		lsr	r1, r1, #12
 1404 00fc 0903     		lsl	r1, r1, #12
 1405 00fe 1943     		orr	r1, r3
 1406 0100 1185     		strh	r1, [r2, #40]
1416:main.c        ****                  break;
 1407              		.loc 1 1416 0
 1408 0102 61E0     		b	.L96
 1409              	.LVL160:
 1410              	.L82:
1417:main.c        ****         case 10: led_buffer.led13 = set_value;   
 1411              		.loc 1 1417 0
 1412 0104 394A     		ldr	r2, .L98+4
 1413 0106 0905     		lsl	r1, r1, #20
 1414              	.LVL161:
 1415 0108 0B0D     		lsr	r3, r1, #20
 1416 010a 518D     		ldrh	r1, [r2, #42]
 1417 010c 090B     		lsr	r1, r1, #12
 1418 010e 0903     		lsl	r1, r1, #12
 1419 0110 1943     		orr	r1, r3
 1420 0112 5185     		strh	r1, [r2, #42]
1418:main.c        ****                  break;
 1421              		.loc 1 1418 0
 1422 0114 58E0     		b	.L96
 1423              	.LVL162:
 1424              	.L81:
1419:main.c        ****         case  9: led_buffer.led14 = set_value;   
 1425              		.loc 1 1419 0
 1426 0116 354A     		ldr	r2, .L98+4
 1427 0118 0905     		lsl	r1, r1, #20
 1428              	.LVL163:
 1429 011a 0B0D     		lsr	r3, r1, #20
 1430 011c 918D     		ldrh	r1, [r2, #44]
 1431 011e 090B     		lsr	r1, r1, #12
 1432 0120 0903     		lsl	r1, r1, #12
 1433 0122 1943     		orr	r1, r3
 1434 0124 9185     		strh	r1, [r2, #44]
1420:main.c        ****                  break;
 1435              		.loc 1 1420 0
 1436 0126 4FE0     		b	.L96
 1437              	.LVL164:
 1438              	.L80:
1421:main.c        ****         case  8: led_buffer.led15 = set_value;   
 1439              		.loc 1 1421 0
 1440 0128 304A     		ldr	r2, .L98+4
 1441 012a 0905     		lsl	r1, r1, #20
 1442              	.LVL165:
ARM GAS  C:\Users\BG1026~1\AppData\Local\Temp\cc2n2B4u.s 			page 52


 1443 012c 0B0D     		lsr	r3, r1, #20
 1444 012e D18D     		ldrh	r1, [r2, #46]
 1445 0130 090B     		lsr	r1, r1, #12
 1446 0132 0903     		lsl	r1, r1, #12
 1447 0134 1943     		orr	r1, r3
 1448 0136 D185     		strh	r1, [r2, #46]
1422:main.c        ****                  break;
 1449              		.loc 1 1422 0
 1450 0138 46E0     		b	.L96
 1451              	.LVL166:
 1452              	.L79:
1423:main.c        ****         case  7: led_buffer.led16 = set_value;   
 1453              		.loc 1 1423 0
 1454 013a 2C4A     		ldr	r2, .L98+4
 1455 013c 0905     		lsl	r1, r1, #20
 1456              	.LVL167:
 1457 013e 0B0D     		lsr	r3, r1, #20
 1458 0140 118E     		ldrh	r1, [r2, #48]
 1459 0142 090B     		lsr	r1, r1, #12
 1460 0144 0903     		lsl	r1, r1, #12
 1461 0146 1943     		orr	r1, r3
 1462 0148 1186     		strh	r1, [r2, #48]
1424:main.c        ****                  break;
 1463              		.loc 1 1424 0
 1464 014a 3DE0     		b	.L96
 1465              	.LVL168:
 1466              	.L78:
1425:main.c        ****         case  6: led_buffer.led17 = set_value;   
 1467              		.loc 1 1425 0
 1468 014c 274A     		ldr	r2, .L98+4
 1469 014e 0905     		lsl	r1, r1, #20
 1470              	.LVL169:
 1471 0150 0B0D     		lsr	r3, r1, #20
 1472 0152 518E     		ldrh	r1, [r2, #50]
 1473 0154 090B     		lsr	r1, r1, #12
 1474 0156 0903     		lsl	r1, r1, #12
 1475 0158 1943     		orr	r1, r3
 1476 015a 5186     		strh	r1, [r2, #50]
1426:main.c        ****                  break;
 1477              		.loc 1 1426 0
 1478 015c 34E0     		b	.L96
 1479              	.LVL170:
 1480              	.L77:
1427:main.c        ****         case  5: led_buffer.led18 = set_value;   
 1481              		.loc 1 1427 0
 1482 015e 234A     		ldr	r2, .L98+4
 1483 0160 0905     		lsl	r1, r1, #20
 1484              	.LVL171:
 1485 0162 0B0D     		lsr	r3, r1, #20
 1486 0164 918E     		ldrh	r1, [r2, #52]
 1487 0166 090B     		lsr	r1, r1, #12
 1488 0168 0903     		lsl	r1, r1, #12
 1489 016a 1943     		orr	r1, r3
 1490 016c 9186     		strh	r1, [r2, #52]
1428:main.c        ****                  break;
 1491              		.loc 1 1428 0
 1492 016e 2BE0     		b	.L96
ARM GAS  C:\Users\BG1026~1\AppData\Local\Temp\cc2n2B4u.s 			page 53


 1493              	.LVL172:
 1494              	.L76:
1429:main.c        ****         case  4: led_buffer.led19 = set_value;   
 1495              		.loc 1 1429 0
 1496 0170 1E4A     		ldr	r2, .L98+4
 1497 0172 0905     		lsl	r1, r1, #20
 1498              	.LVL173:
 1499 0174 0B0D     		lsr	r3, r1, #20
 1500 0176 D18E     		ldrh	r1, [r2, #54]
 1501 0178 090B     		lsr	r1, r1, #12
 1502 017a 0903     		lsl	r1, r1, #12
 1503 017c 1943     		orr	r1, r3
 1504 017e D186     		strh	r1, [r2, #54]
1430:main.c        ****                  break;
 1505              		.loc 1 1430 0
 1506 0180 22E0     		b	.L96
 1507              	.LVL174:
 1508              	.L75:
1431:main.c        ****         case  3: led_buffer.led20 = set_value;   
 1509              		.loc 1 1431 0
 1510 0182 1A4A     		ldr	r2, .L98+4
 1511 0184 0905     		lsl	r1, r1, #20
 1512              	.LVL175:
 1513 0186 0B0D     		lsr	r3, r1, #20
 1514 0188 118F     		ldrh	r1, [r2, #56]
 1515 018a 090B     		lsr	r1, r1, #12
 1516 018c 0903     		lsl	r1, r1, #12
 1517 018e 1943     		orr	r1, r3
 1518 0190 1187     		strh	r1, [r2, #56]
1432:main.c        ****                  break;
 1519              		.loc 1 1432 0
 1520 0192 19E0     		b	.L96
 1521              	.LVL176:
 1522              	.L74:
1433:main.c        ****         case  2: led_buffer.led21 = set_value; 
 1523              		.loc 1 1433 0
 1524 0194 154A     		ldr	r2, .L98+4
 1525 0196 0905     		lsl	r1, r1, #20
 1526              	.LVL177:
 1527 0198 0B0D     		lsr	r3, r1, #20
 1528 019a 518F     		ldrh	r1, [r2, #58]
 1529 019c 090B     		lsr	r1, r1, #12
 1530 019e 0903     		lsl	r1, r1, #12
 1531 01a0 1943     		orr	r1, r3
 1532 01a2 5187     		strh	r1, [r2, #58]
1434:main.c        ****                  break;
 1533              		.loc 1 1434 0
 1534 01a4 10E0     		b	.L96
 1535              	.LVL178:
 1536              	.L73:
1435:main.c        ****         case  1: led_buffer.led22 = set_value;   
 1537              		.loc 1 1435 0
 1538 01a6 114A     		ldr	r2, .L98+4
 1539 01a8 0905     		lsl	r1, r1, #20
 1540              	.LVL179:
 1541 01aa 0B0D     		lsr	r3, r1, #20
 1542 01ac 918F     		ldrh	r1, [r2, #60]
ARM GAS  C:\Users\BG1026~1\AppData\Local\Temp\cc2n2B4u.s 			page 54


 1543 01ae 090B     		lsr	r1, r1, #12
 1544 01b0 0903     		lsl	r1, r1, #12
 1545 01b2 1943     		orr	r1, r3
 1546 01b4 9187     		strh	r1, [r2, #60]
1436:main.c        ****                  break;
 1547              		.loc 1 1436 0
 1548 01b6 07E0     		b	.L96
 1549              	.LVL180:
 1550              	.L71:
1437:main.c        ****         case  0: led_buffer.led23 = set_value; 
 1551              		.loc 1 1437 0
 1552 01b8 0C4A     		ldr	r2, .L98+4
 1553 01ba 0905     		lsl	r1, r1, #20
 1554              	.LVL181:
 1555 01bc 0B0D     		lsr	r3, r1, #20
 1556 01be D18F     		ldrh	r1, [r2, #62]
 1557 01c0 090B     		lsr	r1, r1, #12
 1558 01c2 0903     		lsl	r1, r1, #12
 1559 01c4 1943     		orr	r1, r3
 1560 01c6 D187     		strh	r1, [r2, #62]
 1561              	.L96:
1438:main.c        ****                  break;
1439:main.c        ****         default: return;
1440:main.c        ****     }
1441:main.c        ****     
1442:main.c        ****     SPIM_SpiUartPutArray((const uint16*)&led_buffer, sizeof(led_buffer) / sizeof(uint16));
 1562              		.loc 1 1442 0
 1563 01c8 0848     		ldr	r0, .L98+4
 1564 01ca 1030     		add	r0, r0, #16
 1565 01cc 1821     		mov	r1, #24
 1566 01ce FFF7FEFF 		bl	SPIM_SpiUartPutArray
 1567              	.LVL182:
1443:main.c        ****     Latch_Write(1);
 1568              		.loc 1 1443 0
 1569 01d2 0120     		mov	r0, #1
 1570 01d4 FFF7FEFF 		bl	Latch_Write
 1571              	.LVL183:
1444:main.c        ****     CyDelayUs  (1);
 1572              		.loc 1 1444 0
 1573 01d8 0120     		mov	r0, #1
 1574 01da FFF7FEFF 		bl	CyDelayUs
 1575              	.LVL184:
1445:main.c        ****     Latch_Write(0);
 1576              		.loc 1 1445 0
 1577 01de 0020     		mov	r0, #0
 1578 01e0 FFF7FEFF 		bl	Latch_Write
 1579              	.LVL185:
 1580              	.L68:
1446:main.c        **** }// set_led
 1581              		.loc 1 1446 0
 1582              		@ sp needed
 1583 01e4 08BD     		pop	{r3, pc}
 1584              	.L99:
 1585 01e6 C046     		.align	2
 1586              	.L98:
 1587 01e8 00000000 		.word	.L72
 1588 01ec 00000000 		.word	.LANCHOR0
ARM GAS  C:\Users\BG1026~1\AppData\Local\Temp\cc2n2B4u.s 			page 55


 1589              		.cfi_endproc
 1590              	.LFE62:
 1591              		.size	set_led, .-set_led
 1592              		.section	.text.display_button,"ax",%progbits
 1593              		.align	2
 1594              		.global	display_button
 1595              		.code	16
 1596              		.thumb_func
 1597              		.type	display_button, %function
 1598              	display_button:
 1599              	.LFB48:
 995:main.c        **** #if 1    
 1600              		.loc 1 995 0
 1601              		.cfi_startproc
 1602              	.LVL186:
 1603 0000 F8B5     		push	{r3, r4, r5, r6, r7, lr}
 1604              		.cfi_def_cfa_offset 24
 1605              		.cfi_offset 3, -24
 1606              		.cfi_offset 4, -20
 1607              		.cfi_offset 5, -16
 1608              		.cfi_offset 6, -12
 1609              		.cfi_offset 7, -8
 1610              		.cfi_offset 14, -4
 1611 0002 0D1C     		mov	r5, r1
 997:main.c        ****     uint16 led_stop  = led_start + button_width;
 1612              		.loc 1 997 0
 1613 0004 5043     		mul	r0, r2
 1614              	.LVL187:
 1615 0006 84B2     		uxth	r4, r0
 1616 0008 601C     		add	r0, r4, #1
 1617 000a 80B2     		uxth	r0, r0
 1618              	.LVL188:
 998:main.c        ****     uint16 i;
 1619              		.loc 1 998 0
 1620 000c 8218     		add	r2, r0, r2
 1621              	.LVL189:
 1622 000e 96B2     		uxth	r6, r2
 1623              	.LVL190:
1001:main.c        ****     set_led(led_stop , intensity / 2);
 1624              		.loc 1 1001 0
 1625 0010 4F08     		lsr	r7, r1, #1
 1626 0012 C0B2     		uxtb	r0, r0
 1627              	.LVL191:
 1628 0014 391C     		mov	r1, r7
 1629              	.LVL192:
 1630 0016 FFF7FEFF 		bl	set_led
 1631              	.LVL193:
1002:main.c        ****     
 1632              		.loc 1 1002 0
 1633 001a F0B2     		uxtb	r0, r6
 1634 001c 391C     		mov	r1, r7
 1635 001e FFF7FEFF 		bl	set_led
 1636              	.LVL194:
1004:main.c        ****     {
 1637              		.loc 1 1004 0
 1638 0022 0234     		add	r4, r4, #2
 1639              	.LVL195:
ARM GAS  C:\Users\BG1026~1\AppData\Local\Temp\cc2n2B4u.s 			page 56


 1640 0024 A4B2     		uxth	r4, r4
 1641              	.LVL196:
 1642 0026 05E0     		b	.L101
 1643              	.L102:
1006:main.c        ****     }
 1644              		.loc 1 1006 0 discriminator 3
 1645 0028 E0B2     		uxtb	r0, r4
 1646 002a 291C     		mov	r1, r5
 1647 002c FFF7FEFF 		bl	set_led
 1648              	.LVL197:
1004:main.c        ****     {
 1649              		.loc 1 1004 0 discriminator 3
 1650 0030 0134     		add	r4, r4, #1
 1651              	.LVL198:
 1652 0032 A4B2     		uxth	r4, r4
 1653              	.LVL199:
 1654              	.L101:
1004:main.c        ****     {
 1655              		.loc 1 1004 0 is_stmt 0 discriminator 1
 1656 0034 B442     		cmp	r4, r6
 1657 0036 F7D3     		bcc	.L102
1043:main.c        **** 
 1658              		.loc 1 1043 0 is_stmt 1
 1659              		@ sp needed
 1660              	.LVL200:
 1661              	.LVL201:
 1662 0038 F8BD     		pop	{r3, r4, r5, r6, r7, pc}
 1663              		.cfi_endproc
 1664              	.LFE48:
 1665              		.size	display_button, .-display_button
 1666              		.global	__aeabi_uidiv
 1667 003a C046     		.section	.text.display_state,"ax",%progbits
 1668              		.align	2
 1669              		.global	display_state
 1670              		.code	16
 1671              		.thumb_func
 1672              		.type	display_state, %function
 1673              	display_state:
 1674              	.LFB49:
1046:main.c        ****     int    new_led_pos  = 0;
 1675              		.loc 1 1046 0
 1676              		.cfi_startproc
 1677 0000 F8B5     		push	{r3, r4, r5, r6, r7, lr}
 1678              		.cfi_def_cfa_offset 24
 1679              		.cfi_offset 3, -24
 1680              		.cfi_offset 4, -20
 1681              		.cfi_offset 5, -16
 1682              		.cfi_offset 6, -12
 1683              		.cfi_offset 7, -8
 1684              		.cfi_offset 14, -4
 1685              	.LVL202:
1048:main.c        ****     uint16 button_width = NUMBER_OF_WHITE_LEDS / number_of_buttons;
 1686              		.loc 1 1048 0
 1687 0002 1E4D     		ldr	r5, .L107
 1688 0004 2C88     		ldrh	r4, [r5]
 1689 0006 6420     		mov	r0, #100
 1690 0008 211C     		mov	r1, r4
ARM GAS  C:\Users\BG1026~1\AppData\Local\Temp\cc2n2B4u.s 			page 57


 1691 000a FFF7FEFF 		bl	__aeabi_idiv
 1692              	.LVL203:
 1693 000e 86B2     		uxth	r6, r0
 1694              	.LVL204:
1049:main.c        **** 
 1695              		.loc 1 1049 0
 1696 0010 0F20     		mov	r0, #15
 1697 0012 211C     		mov	r1, r4
 1698 0014 FFF7FEFF 		bl	__aeabi_idiv
 1699              	.LVL205:
 1700 0018 87B2     		uxth	r7, r0
 1701              	.LVL206:
1051:main.c        ****     {
 1702              		.loc 1 1051 0
 1703 001a 6C88     		ldrh	r4, [r5, #2]
 1704 001c AB88     		ldrh	r3, [r5, #4]
 1705 001e 9C42     		cmp	r4, r3
 1706 0020 2AD0     		beq	.L103
1053:main.c        ****         new_led_pos = cap_cur_pos / led_buckets;
 1707              		.loc 1 1053 0
 1708 0022 AC80     		strh	r4, [r5, #4]
1054:main.c        ****         if ((cap_cur_pos != 0u) && (new_led_pos != led_pos) && (new_led_pos >= 0) && (new_led_pos <
 1709              		.loc 1 1054 0
 1710 0024 201C     		mov	r0, r4
 1711 0026 311C     		mov	r1, r6
 1712 0028 FFF7FEFF 		bl	__aeabi_uidiv
 1713              	.LVL207:
 1714 002c 85B2     		uxth	r5, r0
 1715              	.LVL208:
1055:main.c        ****         {
 1716              		.loc 1 1055 0
 1717 002e 002C     		cmp	r4, #0
 1718 0030 22D0     		beq	.L103
1055:main.c        ****         {
 1719              		.loc 1 1055 0 is_stmt 0 discriminator 1
 1720 0032 124A     		ldr	r2, .L107
 1721 0034 D088     		ldrh	r0, [r2, #6]
 1722 0036 A842     		cmp	r0, r5
 1723 0038 1ED0     		beq	.L103
1055:main.c        ****         {
 1724              		.loc 1 1055 0 discriminator 3
 1725 003a 0E2D     		cmp	r5, #14
 1726 003c 1CDC     		bgt	.L103
1057:main.c        ****             {
 1727              		.loc 1 1057 0 is_stmt 1
 1728 003e 137A     		ldrb	r3, [r2, #8]
 1729 0040 002B     		cmp	r3, #0
 1730 0042 13D0     		beq	.L105
1059:main.c        ****                 {
 1731              		.loc 1 1059 0
 1732 0044 012F     		cmp	r7, #1
 1733 0046 09D9     		bls	.L106
1061:main.c        ****                     display_button(new_led_pos, MAX_INTENSITY, button_width);
 1734              		.loc 1 1061 0
 1735 0048 0021     		mov	r1, #0
 1736 004a 3A1C     		mov	r2, r7
 1737 004c FFF7FEFF 		bl	display_button
ARM GAS  C:\Users\BG1026~1\AppData\Local\Temp\cc2n2B4u.s 			page 58


 1738              	.LVL209:
1062:main.c        ****                 }
 1739              		.loc 1 1062 0
 1740 0050 281C     		mov	r0, r5
 1741 0052 0B49     		ldr	r1, .L107+4
 1742 0054 3A1C     		mov	r2, r7
 1743 0056 FFF7FEFF 		bl	display_button
 1744              	.LVL210:
 1745 005a 07E0     		b	.L105
 1746              	.L106:
1066:main.c        ****                     set_led(new_led_pos, MAX_INTENSITY);
 1747              		.loc 1 1066 0
 1748 005c C0B2     		uxtb	r0, r0
 1749 005e 0021     		mov	r1, #0
 1750 0060 FFF7FEFF 		bl	set_led
 1751              	.LVL211:
1067:main.c        ****                 }
 1752              		.loc 1 1067 0
 1753 0064 E8B2     		uxtb	r0, r5
 1754 0066 0649     		ldr	r1, .L107+4
 1755 0068 FFF7FEFF 		bl	set_led
 1756              	.LVL212:
 1757              	.L105:
1071:main.c        ****             send_button_telemetry(led_pos, "position");
 1758              		.loc 1 1071 0
 1759 006c 034B     		ldr	r3, .L107
 1760 006e DD80     		strh	r5, [r3, #6]
1072:main.c        ****          }
 1761              		.loc 1 1072 0
 1762 0070 281C     		mov	r0, r5
 1763 0072 0449     		ldr	r1, .L107+8
 1764 0074 FFF7FEFF 		bl	send_button_telemetry
 1765              	.LVL213:
 1766              	.L103:
1075:main.c        **** 
 1767              		.loc 1 1075 0
 1768              		@ sp needed
 1769              	.LVL214:
 1770              	.LVL215:
 1771 0078 F8BD     		pop	{r3, r4, r5, r6, r7, pc}
 1772              	.L108:
 1773 007a C046     		.align	2
 1774              	.L107:
 1775 007c 00000000 		.word	.LANCHOR4
 1776 0080 FF0F0000 		.word	4095
 1777 0084 A0000000 		.word	.LC39
 1778              		.cfi_endproc
 1779              	.LFE49:
 1780              		.size	display_state, .-display_state
 1781              		.section	.text.animate_all_colors,"ax",%progbits
 1782              		.align	2
 1783              		.global	animate_all_colors
 1784              		.code	16
 1785              		.thumb_func
 1786              		.type	animate_all_colors, %function
 1787              	animate_all_colors:
 1788              	.LFB50:
ARM GAS  C:\Users\BG1026~1\AppData\Local\Temp\cc2n2B4u.s 			page 59


1078:main.c        ****     static uint16 red             = 0;
 1789              		.loc 1 1078 0
 1790              		.cfi_startproc
 1791 0000 F8B5     		push	{r3, r4, r5, r6, r7, lr}
 1792              		.cfi_def_cfa_offset 24
 1793              		.cfi_offset 3, -24
 1794              		.cfi_offset 4, -20
 1795              		.cfi_offset 5, -16
 1796              		.cfi_offset 6, -12
 1797              		.cfi_offset 7, -8
 1798              		.cfi_offset 14, -4
 1799              	.LVL216:
1087:main.c        ****     set_led(E_LED_LEFT_GREEN ,  green);
 1800              		.loc 1 1087 0
 1801 0002 3F4C     		ldr	r4, .L118
 1802 0004 4027     		mov	r7, #64
 1803 0006 E15B     		ldrh	r1, [r4, r7]
 1804 0008 1520     		mov	r0, #21
 1805 000a FFF7FEFF 		bl	set_led
 1806              	.LVL217:
1088:main.c        ****     set_led(E_LED_LEFT_BLUE  ,  blue );
 1807              		.loc 1 1088 0
 1808 000e 4226     		mov	r6, #66
 1809 0010 A15B     		ldrh	r1, [r4, r6]
 1810 0012 1620     		mov	r0, #22
 1811 0014 FFF7FEFF 		bl	set_led
 1812              	.LVL218:
1089:main.c        ****     set_led(E_LED_RIGHT_RED  , ~red  );
 1813              		.loc 1 1089 0
 1814 0018 4425     		mov	r5, #68
 1815 001a 615B     		ldrh	r1, [r4, r5]
 1816 001c 1720     		mov	r0, #23
 1817 001e FFF7FEFF 		bl	set_led
 1818              	.LVL219:
1090:main.c        ****     set_led(E_LED_RIGHT_GREEN, ~green);
 1819              		.loc 1 1090 0
 1820 0022 E15B     		ldrh	r1, [r4, r7]
 1821 0024 C943     		mvn	r1, r1
 1822 0026 89B2     		uxth	r1, r1
 1823 0028 1220     		mov	r0, #18
 1824 002a FFF7FEFF 		bl	set_led
 1825              	.LVL220:
1091:main.c        ****     set_led(E_LED_RIGHT_BLUE , ~blue );
 1826              		.loc 1 1091 0
 1827 002e A15B     		ldrh	r1, [r4, r6]
 1828 0030 C943     		mvn	r1, r1
 1829 0032 89B2     		uxth	r1, r1
 1830 0034 1320     		mov	r0, #19
 1831 0036 FFF7FEFF 		bl	set_led
 1832              	.LVL221:
1092:main.c        ****    
 1833              		.loc 1 1092 0
 1834 003a 615B     		ldrh	r1, [r4, r5]
 1835 003c C943     		mvn	r1, r1
 1836 003e 89B2     		uxth	r1, r1
 1837 0040 1420     		mov	r0, #20
 1838 0042 FFF7FEFF 		bl	set_led
ARM GAS  C:\Users\BG1026~1\AppData\Local\Temp\cc2n2B4u.s 			page 60


 1839              	.LVL222:
1094:main.c        ****     {   
 1840              		.loc 1 1094 0
 1841 0046 2F4B     		ldr	r3, .L118+4
 1842 0048 5B7A     		ldrb	r3, [r3, #9]
 1843 004a 002B     		cmp	r3, #0
 1844 004c 2DD0     		beq	.L110
1096:main.c        ****         {
 1845              		.loc 1 1096 0
 1846 004e 4023     		mov	r3, #64
 1847 0050 2B4A     		ldr	r2, .L118
 1848 0052 D35A     		ldrh	r3, [r2, r3]
 1849 0054 2C4A     		ldr	r2, .L118+8
 1850 0056 9342     		cmp	r3, r2
 1851 0058 03D9     		bls	.L111
1098:main.c        ****         }
 1852              		.loc 1 1098 0
 1853 005a 0022     		mov	r2, #0
 1854 005c 294B     		ldr	r3, .L118+4
 1855 005e 5A72     		strb	r2, [r3, #9]
 1856 0060 4DE0     		b	.L109
 1857              	.L111:
1100:main.c        ****         {
 1858              		.loc 1 1100 0
 1859 0062 4222     		mov	r2, #66
 1860 0064 2649     		ldr	r1, .L118
 1861 0066 8A5A     		ldrh	r2, [r1, r2]
 1862 0068 2749     		ldr	r1, .L118+8
 1863 006a 8A42     		cmp	r2, r1
 1864 006c 0AD9     		bls	.L113
1102:main.c        ****            green  = 0;
 1865              		.loc 1 1102 0
 1866 006e 244A     		ldr	r2, .L118
 1867 0070 0133     		add	r3, r3, #1
 1868 0072 FF33     		add	r3, r3, #255
 1869 0074 4021     		mov	r1, #64
 1870 0076 5352     		strh	r3, [r2, r1]
1103:main.c        ****            blue   = 0;
 1871              		.loc 1 1103 0
 1872 0078 0023     		mov	r3, #0
 1873 007a 0231     		add	r1, r1, #2
 1874 007c 5352     		strh	r3, [r2, r1]
1104:main.c        ****         } 
 1875              		.loc 1 1104 0
 1876 007e 0231     		add	r1, r1, #2
 1877 0080 5352     		strh	r3, [r2, r1]
 1878 0082 3CE0     		b	.L109
 1879              	.L113:
1106:main.c        ****         {
 1880              		.loc 1 1106 0
 1881 0084 4423     		mov	r3, #68
 1882 0086 1E49     		ldr	r1, .L118
 1883 0088 CB5A     		ldrh	r3, [r1, r3]
 1884 008a 1F49     		ldr	r1, .L118+8
 1885 008c 8B42     		cmp	r3, r1
 1886 008e 07D9     		bls	.L114
1108:main.c        ****             blue   = 0;
ARM GAS  C:\Users\BG1026~1\AppData\Local\Temp\cc2n2B4u.s 			page 61


 1887              		.loc 1 1108 0
 1888 0090 1B4B     		ldr	r3, .L118
 1889 0092 8032     		add	r2, r2, #128
 1890 0094 4221     		mov	r1, #66
 1891 0096 5A52     		strh	r2, [r3, r1]
1109:main.c        ****         }
 1892              		.loc 1 1109 0
 1893 0098 0021     		mov	r1, #0
 1894 009a 4422     		mov	r2, #68
 1895 009c 9952     		strh	r1, [r3, r2]
 1896 009e 2EE0     		b	.L109
 1897              	.L114:
1113:main.c        ****         }
 1898              		.loc 1 1113 0
 1899 00a0 4033     		add	r3, r3, #64
 1900 00a2 4422     		mov	r2, #68
 1901 00a4 1649     		ldr	r1, .L118
 1902 00a6 8B52     		strh	r3, [r1, r2]
 1903 00a8 29E0     		b	.L109
 1904              	.L110:
1118:main.c        ****         {
 1905              		.loc 1 1118 0
 1906 00aa 4023     		mov	r3, #64
 1907 00ac 144A     		ldr	r2, .L118
 1908 00ae D35A     		ldrh	r3, [r2, r3]
 1909 00b0 002B     		cmp	r3, #0
 1910 00b2 03D1     		bne	.L115
1120:main.c        ****         }
 1911              		.loc 1 1120 0
 1912 00b4 0122     		mov	r2, #1
 1913 00b6 134B     		ldr	r3, .L118+4
 1914 00b8 5A72     		strb	r2, [r3, #9]
 1915 00ba 20E0     		b	.L109
 1916              	.L115:
1122:main.c        ****         {
 1917              		.loc 1 1122 0
 1918 00bc 4222     		mov	r2, #66
 1919 00be 1049     		ldr	r1, .L118
 1920 00c0 8A5A     		ldrh	r2, [r1, r2]
 1921 00c2 002A     		cmp	r2, #0
 1922 00c4 0AD1     		bne	.L116
1124:main.c        ****            green  = MAX_COLOR;
 1923              		.loc 1 1124 0
 1924 00c6 0A1C     		mov	r2, r1
 1925 00c8 013B     		sub	r3, r3, #1
 1926 00ca FF3B     		sub	r3, r3, #255
 1927 00cc 4021     		mov	r1, #64
 1928 00ce 5352     		strh	r3, [r2, r1]
1125:main.c        ****            blue   = MAX_COLOR;
 1929              		.loc 1 1125 0
 1930 00d0 0E4B     		ldr	r3, .L118+12
 1931 00d2 0231     		add	r1, r1, #2
 1932 00d4 5352     		strh	r3, [r2, r1]
1126:main.c        ****         } 
 1933              		.loc 1 1126 0
 1934 00d6 0231     		add	r1, r1, #2
 1935 00d8 5352     		strh	r3, [r2, r1]
ARM GAS  C:\Users\BG1026~1\AppData\Local\Temp\cc2n2B4u.s 			page 62


 1936 00da 10E0     		b	.L109
 1937              	.L116:
1128:main.c        ****         {
 1938              		.loc 1 1128 0
 1939 00dc 4423     		mov	r3, #68
 1940 00de 0849     		ldr	r1, .L118
 1941 00e0 CB5A     		ldrh	r3, [r1, r3]
 1942 00e2 002B     		cmp	r3, #0
 1943 00e4 07D1     		bne	.L117
1130:main.c        ****             blue   = MAX_COLOR;
 1944              		.loc 1 1130 0
 1945 00e6 0B1C     		mov	r3, r1
 1946 00e8 803A     		sub	r2, r2, #128
 1947 00ea 4221     		mov	r1, #66
 1948 00ec 5A52     		strh	r2, [r3, r1]
1131:main.c        ****         }
 1949              		.loc 1 1131 0
 1950 00ee 0749     		ldr	r1, .L118+12
 1951 00f0 4422     		mov	r2, #68
 1952 00f2 9952     		strh	r1, [r3, r2]
 1953 00f4 03E0     		b	.L109
 1954              	.L117:
1135:main.c        ****         }
 1955              		.loc 1 1135 0
 1956 00f6 403B     		sub	r3, r3, #64
 1957 00f8 4422     		mov	r2, #68
 1958 00fa 0149     		ldr	r1, .L118
 1959 00fc 8B52     		strh	r3, [r1, r2]
 1960              	.L109:
1138:main.c        **** 
 1961              		.loc 1 1138 0
 1962              		@ sp needed
 1963 00fe F8BD     		pop	{r3, r4, r5, r6, r7, pc}
 1964              	.L119:
 1965              		.align	2
 1966              	.L118:
 1967 0100 00000000 		.word	.LANCHOR0
 1968 0104 00000000 		.word	.LANCHOR4
 1969 0108 FE0F0000 		.word	4094
 1970 010c FF0F0000 		.word	4095
 1971              		.cfi_endproc
 1972              	.LFE50:
 1973              		.size	animate_all_colors, .-animate_all_colors
 1974              		.section	.text.animate_fix_white,"ax",%progbits
 1975              		.align	2
 1976              		.global	animate_fix_white
 1977              		.code	16
 1978              		.thumb_func
 1979              		.type	animate_fix_white, %function
 1980              	animate_fix_white:
 1981              	.LFB51:
1141:main.c        ****     set_led(6, MAX_INTENSITY);
 1982              		.loc 1 1141 0
 1983              		.cfi_startproc
 1984 0000 10B5     		push	{r4, lr}
 1985              		.cfi_def_cfa_offset 8
 1986              		.cfi_offset 4, -8
ARM GAS  C:\Users\BG1026~1\AppData\Local\Temp\cc2n2B4u.s 			page 63


 1987              		.cfi_offset 14, -4
1142:main.c        ****     set_led(7, MAX_INTENSITY);
 1988              		.loc 1 1142 0
 1989 0002 094C     		ldr	r4, .L121
 1990 0004 0620     		mov	r0, #6
 1991 0006 211C     		mov	r1, r4
 1992 0008 FFF7FEFF 		bl	set_led
 1993              	.LVL223:
1143:main.c        ****     set_led(8, MAX_INTENSITY);
 1994              		.loc 1 1143 0
 1995 000c 0720     		mov	r0, #7
 1996 000e 211C     		mov	r1, r4
 1997 0010 FFF7FEFF 		bl	set_led
 1998              	.LVL224:
1144:main.c        ****     set_led(9, MAX_INTENSITY);
 1999              		.loc 1 1144 0
 2000 0014 0820     		mov	r0, #8
 2001 0016 211C     		mov	r1, r4
 2002 0018 FFF7FEFF 		bl	set_led
 2003              	.LVL225:
1145:main.c        **** }// animate_fix_led_0
 2004              		.loc 1 1145 0
 2005 001c 0920     		mov	r0, #9
 2006 001e 211C     		mov	r1, r4
 2007 0020 FFF7FEFF 		bl	set_led
 2008              	.LVL226:
1146:main.c        **** 
 2009              		.loc 1 1146 0
 2010              		@ sp needed
 2011 0024 10BD     		pop	{r4, pc}
 2012              	.L122:
 2013 0026 C046     		.align	2
 2014              	.L121:
 2015 0028 FF0F0000 		.word	4095
 2016              		.cfi_endproc
 2017              	.LFE51:
 2018              		.size	animate_fix_white, .-animate_fix_white
 2019              		.section	.text.animate_fix_led_14,"ax",%progbits
 2020              		.align	2
 2021              		.global	animate_fix_led_14
 2022              		.code	16
 2023              		.thumb_func
 2024              		.type	animate_fix_led_14, %function
 2025              	animate_fix_led_14:
 2026              	.LFB52:
1149:main.c        ****     set_led(14, MAX_INTENSITY);
 2027              		.loc 1 1149 0
 2028              		.cfi_startproc
 2029 0000 08B5     		push	{r3, lr}
 2030              		.cfi_def_cfa_offset 8
 2031              		.cfi_offset 3, -8
 2032              		.cfi_offset 14, -4
1150:main.c        **** }// animate_fix_led_0
 2033              		.loc 1 1150 0
 2034 0002 0E20     		mov	r0, #14
 2035 0004 0149     		ldr	r1, .L124
 2036 0006 FFF7FEFF 		bl	set_led
ARM GAS  C:\Users\BG1026~1\AppData\Local\Temp\cc2n2B4u.s 			page 64


 2037              	.LVL227:
1151:main.c        **** 
 2038              		.loc 1 1151 0
 2039              		@ sp needed
 2040 000a 08BD     		pop	{r3, pc}
 2041              	.L125:
 2042              		.align	2
 2043              	.L124:
 2044 000c FF0F0000 		.word	4095
 2045              		.cfi_endproc
 2046              	.LFE52:
 2047              		.size	animate_fix_led_14, .-animate_fix_led_14
 2048              		.section	.text.animate_red_intensity,"ax",%progbits
 2049              		.align	2
 2050              		.global	animate_red_intensity
 2051              		.code	16
 2052              		.thumb_func
 2053              		.type	animate_red_intensity, %function
 2054              	animate_red_intensity:
 2055              	.LFB53:
1154:main.c        **** #ifndef FOR_COLIN    
 2056              		.loc 1 1154 0
 2057              		.cfi_startproc
 2058 0000 10B5     		push	{r4, lr}
 2059              		.cfi_def_cfa_offset 8
 2060              		.cfi_offset 4, -8
 2061              		.cfi_offset 14, -4
1158:main.c        ****     set_led(E_LED_LEFT_GREEN , 0x00     );
 2062              		.loc 1 1158 0
 2063 0002 0D4C     		ldr	r4, .L127
 2064 0004 1520     		mov	r0, #21
 2065 0006 211C     		mov	r1, r4
 2066 0008 FFF7FEFF 		bl	set_led
 2067              	.LVL228:
1159:main.c        ****     set_led(E_LED_LEFT_BLUE  , 0x00);
 2068              		.loc 1 1159 0
 2069 000c 1620     		mov	r0, #22
 2070 000e 0021     		mov	r1, #0
 2071 0010 FFF7FEFF 		bl	set_led
 2072              	.LVL229:
1160:main.c        ****     set_led(E_LED_RIGHT_RED  , MAX_COLOR);
 2073              		.loc 1 1160 0
 2074 0014 1720     		mov	r0, #23
 2075 0016 0021     		mov	r1, #0
 2076 0018 FFF7FEFF 		bl	set_led
 2077              	.LVL230:
1161:main.c        ****     set_led(E_LED_RIGHT_GREEN, 0x00     );
 2078              		.loc 1 1161 0
 2079 001c 1220     		mov	r0, #18
 2080 001e 211C     		mov	r1, r4
 2081 0020 FFF7FEFF 		bl	set_led
 2082              	.LVL231:
1162:main.c        ****     set_led(E_LED_RIGHT_BLUE , 0x00     );
 2083              		.loc 1 1162 0
 2084 0024 1320     		mov	r0, #19
 2085 0026 0021     		mov	r1, #0
 2086 0028 FFF7FEFF 		bl	set_led
ARM GAS  C:\Users\BG1026~1\AppData\Local\Temp\cc2n2B4u.s 			page 65


 2087              	.LVL232:
1163:main.c        **** #endif        
 2088              		.loc 1 1163 0
 2089 002c 1420     		mov	r0, #20
 2090 002e 0021     		mov	r1, #0
 2091 0030 FFF7FEFF 		bl	set_led
 2092              	.LVL233:
1165:main.c        **** 
 2093              		.loc 1 1165 0
 2094              		@ sp needed
 2095 0034 10BD     		pop	{r4, pc}
 2096              	.L128:
 2097 0036 C046     		.align	2
 2098              	.L127:
 2099 0038 FF0F0000 		.word	4095
 2100              		.cfi_endproc
 2101              	.LFE53:
 2102              		.size	animate_red_intensity, .-animate_red_intensity
 2103              		.section	.text.animate_green_intensity,"ax",%progbits
 2104              		.align	2
 2105              		.global	animate_green_intensity
 2106              		.code	16
 2107              		.thumb_func
 2108              		.type	animate_green_intensity, %function
 2109              	animate_green_intensity:
 2110              	.LFB54:
1168:main.c        **** #ifndef FOR_COLIN    
 2111              		.loc 1 1168 0
 2112              		.cfi_startproc
 2113 0000 10B5     		push	{r4, lr}
 2114              		.cfi_def_cfa_offset 8
 2115              		.cfi_offset 4, -8
 2116              		.cfi_offset 14, -4
1172:main.c        ****     set_led(E_LED_LEFT_GREEN ,  MAX_COLOR);
 2117              		.loc 1 1172 0
 2118 0002 1520     		mov	r0, #21
 2119 0004 0021     		mov	r1, #0
 2120 0006 FFF7FEFF 		bl	set_led
 2121              	.LVL234:
1173:main.c        ****     set_led(E_LED_LEFT_BLUE  ,  0x00     );
 2122              		.loc 1 1173 0
 2123 000a 0B4C     		ldr	r4, .L130
 2124 000c 1620     		mov	r0, #22
 2125 000e 211C     		mov	r1, r4
 2126 0010 FFF7FEFF 		bl	set_led
 2127              	.LVL235:
1174:main.c        ****     set_led(E_LED_RIGHT_RED  ,  0x00     );
 2128              		.loc 1 1174 0
 2129 0014 1720     		mov	r0, #23
 2130 0016 0021     		mov	r1, #0
 2131 0018 FFF7FEFF 		bl	set_led
 2132              	.LVL236:
1175:main.c        ****     set_led(E_LED_RIGHT_GREEN,  MAX_COLOR);
 2133              		.loc 1 1175 0
 2134 001c 1220     		mov	r0, #18
 2135 001e 0021     		mov	r1, #0
 2136 0020 FFF7FEFF 		bl	set_led
ARM GAS  C:\Users\BG1026~1\AppData\Local\Temp\cc2n2B4u.s 			page 66


 2137              	.LVL237:
1176:main.c        ****     set_led(E_LED_RIGHT_BLUE , 0x00 );
 2138              		.loc 1 1176 0
 2139 0024 1320     		mov	r0, #19
 2140 0026 211C     		mov	r1, r4
 2141 0028 FFF7FEFF 		bl	set_led
 2142              	.LVL238:
1177:main.c        **** #endif    
 2143              		.loc 1 1177 0
 2144 002c 1420     		mov	r0, #20
 2145 002e 0021     		mov	r1, #0
 2146 0030 FFF7FEFF 		bl	set_led
 2147              	.LVL239:
1179:main.c        **** 
 2148              		.loc 1 1179 0
 2149              		@ sp needed
 2150 0034 10BD     		pop	{r4, pc}
 2151              	.L131:
 2152 0036 C046     		.align	2
 2153              	.L130:
 2154 0038 FF0F0000 		.word	4095
 2155              		.cfi_endproc
 2156              	.LFE54:
 2157              		.size	animate_green_intensity, .-animate_green_intensity
 2158              		.section	.text.animate_blue_intensity,"ax",%progbits
 2159              		.align	2
 2160              		.global	animate_blue_intensity
 2161              		.code	16
 2162              		.thumb_func
 2163              		.type	animate_blue_intensity, %function
 2164              	animate_blue_intensity:
 2165              	.LFB55:
1182:main.c        **** #ifndef FOR_COLIN    
 2166              		.loc 1 1182 0
 2167              		.cfi_startproc
 2168 0000 10B5     		push	{r4, lr}
 2169              		.cfi_def_cfa_offset 8
 2170              		.cfi_offset 4, -8
 2171              		.cfi_offset 14, -4
1186:main.c        ****     set_led(E_LED_LEFT_GREEN , 0x00     );
 2172              		.loc 1 1186 0
 2173 0002 1520     		mov	r0, #21
 2174 0004 0021     		mov	r1, #0
 2175 0006 FFF7FEFF 		bl	set_led
 2176              	.LVL240:
1187:main.c        ****     set_led(E_LED_LEFT_BLUE  , MAX_COLOR);
 2177              		.loc 1 1187 0
 2178 000a 1620     		mov	r0, #22
 2179 000c 0021     		mov	r1, #0
 2180 000e FFF7FEFF 		bl	set_led
 2181              	.LVL241:
1188:main.c        ****     set_led(E_LED_RIGHT_RED  , 0x00     );
 2182              		.loc 1 1188 0
 2183 0012 094C     		ldr	r4, .L133
 2184 0014 1720     		mov	r0, #23
 2185 0016 211C     		mov	r1, r4
 2186 0018 FFF7FEFF 		bl	set_led
ARM GAS  C:\Users\BG1026~1\AppData\Local\Temp\cc2n2B4u.s 			page 67


 2187              	.LVL242:
1189:main.c        ****     set_led(E_LED_RIGHT_GREEN, 0x00     );
 2188              		.loc 1 1189 0
 2189 001c 1220     		mov	r0, #18
 2190 001e 0021     		mov	r1, #0
 2191 0020 FFF7FEFF 		bl	set_led
 2192              	.LVL243:
1190:main.c        ****     set_led(E_LED_RIGHT_BLUE , MAX_COLOR);
 2193              		.loc 1 1190 0
 2194 0024 1320     		mov	r0, #19
 2195 0026 0021     		mov	r1, #0
 2196 0028 FFF7FEFF 		bl	set_led
 2197              	.LVL244:
1191:main.c        **** #endif        
 2198              		.loc 1 1191 0
 2199 002c 1420     		mov	r0, #20
 2200 002e 211C     		mov	r1, r4
 2201 0030 FFF7FEFF 		bl	set_led
 2202              	.LVL245:
1193:main.c        **** 
 2203              		.loc 1 1193 0
 2204              		@ sp needed
 2205 0034 10BD     		pop	{r4, pc}
 2206              	.L134:
 2207 0036 C046     		.align	2
 2208              	.L133:
 2209 0038 FF0F0000 		.word	4095
 2210              		.cfi_endproc
 2211              	.LFE55:
 2212              		.size	animate_blue_intensity, .-animate_blue_intensity
 2213              		.section	.text.animate_color_intensity,"ax",%progbits
 2214              		.align	2
 2215              		.global	animate_color_intensity
 2216              		.code	16
 2217              		.thumb_func
 2218              		.type	animate_color_intensity, %function
 2219              	animate_color_intensity:
 2220              	.LFB56:
1196:main.c        ****     static uint16 intensity    = 0   ;
 2221              		.loc 1 1196 0
 2222              		.cfi_startproc
 2223              	.LVL246:
 2224 0000 38B5     		push	{r3, r4, r5, lr}
 2225              		.cfi_def_cfa_offset 16
 2226              		.cfi_offset 3, -16
 2227              		.cfi_offset 4, -12
 2228              		.cfi_offset 5, -8
 2229              		.cfi_offset 14, -4
 2230              	.LVL247:
1201:main.c        ****     {
 2231              		.loc 1 1201 0
 2232 0002 0128     		cmp	r0, #1
 2233 0004 0FD0     		beq	.L137
 2234 0006 0028     		cmp	r0, #0
 2235 0008 02D0     		beq	.L138
 2236 000a 0228     		cmp	r0, #2
 2237 000c 16D0     		beq	.L139
ARM GAS  C:\Users\BG1026~1\AppData\Local\Temp\cc2n2B4u.s 			page 68


 2238 000e 1FE0     		b	.L136
 2239              	.L138:
1203:main.c        ****                       set_led(E_LED_RIGHT_RED  , intensity);
 2240              		.loc 1 1203 0
 2241 0010 1E4D     		ldr	r5, .L142
 2242 0012 4624     		mov	r4, #70
 2243 0014 295B     		ldrh	r1, [r5, r4]
 2244 0016 1520     		mov	r0, #21
 2245              	.LVL248:
 2246 0018 FFF7FEFF 		bl	set_led
 2247              	.LVL249:
1204:main.c        ****                       break;
 2248              		.loc 1 1204 0
 2249 001c 295B     		ldrh	r1, [r5, r4]
 2250 001e 1220     		mov	r0, #18
 2251 0020 FFF7FEFF 		bl	set_led
 2252              	.LVL250:
1205:main.c        ****         case E_GREEN: set_led(E_LED_LEFT_GREEN , intensity);
 2253              		.loc 1 1205 0
 2254 0024 14E0     		b	.L136
 2255              	.LVL251:
 2256              	.L137:
1206:main.c        ****                       set_led(E_LED_RIGHT_GREEN, intensity);
 2257              		.loc 1 1206 0
 2258 0026 194D     		ldr	r5, .L142
 2259 0028 4624     		mov	r4, #70
 2260 002a 295B     		ldrh	r1, [r5, r4]
 2261 002c 1620     		mov	r0, #22
 2262              	.LVL252:
 2263 002e FFF7FEFF 		bl	set_led
 2264              	.LVL253:
1207:main.c        ****                       break;
 2265              		.loc 1 1207 0
 2266 0032 295B     		ldrh	r1, [r5, r4]
 2267 0034 1320     		mov	r0, #19
 2268 0036 FFF7FEFF 		bl	set_led
 2269              	.LVL254:
1208:main.c        ****         case E_BLUE : set_led(E_LED_LEFT_BLUE  , intensity);
 2270              		.loc 1 1208 0
 2271 003a 09E0     		b	.L136
 2272              	.LVL255:
 2273              	.L139:
1209:main.c        ****                       set_led(E_LED_RIGHT_BLUE , intensity);
 2274              		.loc 1 1209 0
 2275 003c 134D     		ldr	r5, .L142
 2276 003e 4624     		mov	r4, #70
 2277 0040 295B     		ldrh	r1, [r5, r4]
 2278 0042 1720     		mov	r0, #23
 2279              	.LVL256:
 2280 0044 FFF7FEFF 		bl	set_led
 2281              	.LVL257:
1210:main.c        ****                       break;
 2282              		.loc 1 1210 0
 2283 0048 295B     		ldrh	r1, [r5, r4]
 2284 004a 1420     		mov	r0, #20
 2285 004c FFF7FEFF 		bl	set_led
 2286              	.LVL258:
ARM GAS  C:\Users\BG1026~1\AppData\Local\Temp\cc2n2B4u.s 			page 69


 2287              	.L136:
1214:main.c        ****     {
 2288              		.loc 1 1214 0
 2289 0050 0F4B     		ldr	r3, .L142+4
 2290 0052 9B7A     		ldrb	r3, [r3, #10]
 2291 0054 002B     		cmp	r3, #0
 2292 0056 0CD0     		beq	.L140
1216:main.c        ****         if (intensity >= MAX_COLOR)
 2293              		.loc 1 1216 0
 2294 0058 0C49     		ldr	r1, .L142
 2295 005a 4622     		mov	r2, #70
 2296 005c 8B5A     		ldrh	r3, [r1, r2]
 2297 005e 0533     		add	r3, r3, #5
 2298 0060 9BB2     		uxth	r3, r3
 2299 0062 8B52     		strh	r3, [r1, r2]
1217:main.c        ****         {
 2300              		.loc 1 1217 0
 2301 0064 0B4A     		ldr	r2, .L142+8
 2302 0066 9342     		cmp	r3, r2
 2303 0068 0ED9     		bls	.L135
1219:main.c        ****         }
 2304              		.loc 1 1219 0
 2305 006a 0022     		mov	r2, #0
 2306 006c 084B     		ldr	r3, .L142+4
 2307 006e 9A72     		strb	r2, [r3, #10]
 2308 0070 0AE0     		b	.L135
 2309              	.L140:
1224:main.c        ****         if (intensity == 0)
 2310              		.loc 1 1224 0
 2311 0072 0649     		ldr	r1, .L142
 2312 0074 4622     		mov	r2, #70
 2313 0076 8B5A     		ldrh	r3, [r1, r2]
 2314 0078 053B     		sub	r3, r3, #5
 2315 007a 9BB2     		uxth	r3, r3
 2316 007c 8B52     		strh	r3, [r1, r2]
1225:main.c        ****         {
 2317              		.loc 1 1225 0
 2318 007e 002B     		cmp	r3, #0
 2319 0080 02D1     		bne	.L135
1227:main.c        ****         }
 2320              		.loc 1 1227 0
 2321 0082 453A     		sub	r2, r2, #69
 2322 0084 024B     		ldr	r3, .L142+4
 2323 0086 9A72     		strb	r2, [r3, #10]
 2324              	.L135:
1230:main.c        **** 
 2325              		.loc 1 1230 0
 2326              		@ sp needed
 2327 0088 38BD     		pop	{r3, r4, r5, pc}
 2328              	.L143:
 2329 008a C046     		.align	2
 2330              	.L142:
 2331 008c 00000000 		.word	.LANCHOR0
 2332 0090 00000000 		.word	.LANCHOR4
 2333 0094 FE0F0000 		.word	4094
 2334              		.cfi_endproc
 2335              	.LFE56:
ARM GAS  C:\Users\BG1026~1\AppData\Local\Temp\cc2n2B4u.s 			page 70


 2336              		.size	animate_color_intensity, .-animate_color_intensity
 2337              		.section	.text.animate_rainbow_colors,"ax",%progbits
 2338              		.align	2
 2339              		.global	animate_rainbow_colors
 2340              		.code	16
 2341              		.thumb_func
 2342              		.type	animate_rainbow_colors, %function
 2343              	animate_rainbow_colors:
 2344              	.LFB57:
1233:main.c        ****     static uint16             cycle         = 0;
 2345              		.loc 1 1233 0
 2346              		.cfi_startproc
 2347 0000 70B5     		push	{r4, r5, r6, lr}
 2348              		.cfi_def_cfa_offset 16
 2349              		.cfi_offset 4, -16
 2350              		.cfi_offset 5, -12
 2351              		.cfi_offset 6, -8
 2352              		.cfi_offset 14, -4
1244:main.c        **** 
 2353              		.loc 1 1244 0
 2354 0002 2649     		ldr	r1, .L147
 2355 0004 4822     		mov	r2, #72
 2356 0006 8B5A     		ldrh	r3, [r1, r2]
 2357              	.LVL259:
1246:main.c        **** 
 2358              		.loc 1 1246 0
 2359 0008 581C     		add	r0, r3, #1
 2360 000a 8852     		strh	r0, [r1, r2]
1248:main.c        ****     {
 2361              		.loc 1 1248 0
 2362 000c 9B06     		lsl	r3, r3, #26
 2363 000e 44D1     		bne	.L144
 2364              	.LVL260:
1253:main.c        ****     {
 2365              		.loc 1 1253 0
 2366 0010 4A23     		mov	r3, #74
 2367 0012 CA5A     		ldrh	r2, [r1, r3]
 2368 0014 2248     		ldr	r0, .L147+4
 2369              	.LVL261:
 2370 0016 5300     		lsl	r3, r2, #1
 2371 0018 9B18     		add	r3, r3, r2
 2372 001a 195C     		ldrb	r1, [r3, r0]
 2373 001c C318     		add	r3, r0, r3
 2374 001e 5A78     		ldrb	r2, [r3, #1]
 2375 0020 8918     		add	r1, r1, r2
 2376 0022 9A78     		ldrb	r2, [r3, #2]
 2377 0024 8B18     		add	r3, r1, r2
 2378 0026 002B     		cmp	r3, #0
 2379 0028 03D1     		bne	.L146
1255:main.c        ****     }
 2380              		.loc 1 1255 0
 2381 002a 0021     		mov	r1, #0
 2382 002c 4A33     		add	r3, r3, #74
 2383 002e 1B4A     		ldr	r2, .L147
 2384 0030 D152     		strh	r1, [r2, r3]
 2385              	.L146:
1258:main.c        ****     set_led(E_LED_RIGHT_RED  , vec_rainbow[color_index].red  );
ARM GAS  C:\Users\BG1026~1\AppData\Local\Temp\cc2n2B4u.s 			page 71


 2386              		.loc 1 1258 0
 2387 0032 1B4E     		ldr	r6, .L147+4
 2388 0034 194D     		ldr	r5, .L147
 2389 0036 4A24     		mov	r4, #74
 2390 0038 2B5B     		ldrh	r3, [r5, r4]
 2391 003a 5A00     		lsl	r2, r3, #1
 2392 003c D318     		add	r3, r2, r3
 2393 003e F15C     		ldrb	r1, [r6, r3]
 2394 0040 1520     		mov	r0, #21
 2395 0042 FFF7FEFF 		bl	set_led
 2396              	.LVL262:
1259:main.c        ****     set_led(E_LED_LEFT_GREEN , vec_rainbow[color_index].green);
 2397              		.loc 1 1259 0
 2398 0046 2B5B     		ldrh	r3, [r5, r4]
 2399 0048 5A00     		lsl	r2, r3, #1
 2400 004a D318     		add	r3, r2, r3
 2401 004c F15C     		ldrb	r1, [r6, r3]
 2402 004e 1220     		mov	r0, #18
 2403 0050 FFF7FEFF 		bl	set_led
 2404              	.LVL263:
1260:main.c        ****     set_led(E_LED_RIGHT_GREEN, vec_rainbow[color_index].green);  
 2405              		.loc 1 1260 0
 2406 0054 2B5B     		ldrh	r3, [r5, r4]
 2407 0056 5A00     		lsl	r2, r3, #1
 2408 0058 D318     		add	r3, r2, r3
 2409 005a F318     		add	r3, r6, r3
 2410 005c 5978     		ldrb	r1, [r3, #1]
 2411 005e 1620     		mov	r0, #22
 2412 0060 FFF7FEFF 		bl	set_led
 2413              	.LVL264:
1261:main.c        ****     set_led(E_LED_LEFT_BLUE  , vec_rainbow[color_index].blue );
 2414              		.loc 1 1261 0
 2415 0064 2B5B     		ldrh	r3, [r5, r4]
 2416 0066 5A00     		lsl	r2, r3, #1
 2417 0068 D318     		add	r3, r2, r3
 2418 006a F318     		add	r3, r6, r3
 2419 006c 5978     		ldrb	r1, [r3, #1]
 2420 006e 1320     		mov	r0, #19
 2421 0070 FFF7FEFF 		bl	set_led
 2422              	.LVL265:
1262:main.c        ****     set_led(E_LED_RIGHT_BLUE , vec_rainbow[color_index].blue );
 2423              		.loc 1 1262 0
 2424 0074 2B5B     		ldrh	r3, [r5, r4]
 2425 0076 5A00     		lsl	r2, r3, #1
 2426 0078 D318     		add	r3, r2, r3
 2427 007a F318     		add	r3, r6, r3
 2428 007c 9978     		ldrb	r1, [r3, #2]
 2429 007e 1720     		mov	r0, #23
 2430 0080 FFF7FEFF 		bl	set_led
 2431              	.LVL266:
1263:main.c        ****     color_index++;    
 2432              		.loc 1 1263 0
 2433 0084 2B5B     		ldrh	r3, [r5, r4]
 2434 0086 5A00     		lsl	r2, r3, #1
 2435 0088 D318     		add	r3, r2, r3
 2436 008a F318     		add	r3, r6, r3
 2437 008c 9978     		ldrb	r1, [r3, #2]
ARM GAS  C:\Users\BG1026~1\AppData\Local\Temp\cc2n2B4u.s 			page 72


 2438 008e 1420     		mov	r0, #20
 2439 0090 FFF7FEFF 		bl	set_led
 2440              	.LVL267:
1264:main.c        **** }// animate_rainbow_colors
 2441              		.loc 1 1264 0
 2442 0094 2B5B     		ldrh	r3, [r5, r4]
 2443 0096 0133     		add	r3, r3, #1
 2444 0098 2B53     		strh	r3, [r5, r4]
 2445              	.L144:
1265:main.c        **** 
 2446              		.loc 1 1265 0
 2447              		@ sp needed
 2448 009a 70BD     		pop	{r4, r5, r6, pc}
 2449              	.L148:
 2450              		.align	2
 2451              	.L147:
 2452 009c 00000000 		.word	.LANCHOR0
 2453 00a0 E4010000 		.word	.LANCHOR5
 2454              		.cfi_endproc
 2455              	.LFE57:
 2456              		.size	animate_rainbow_colors, .-animate_rainbow_colors
 2457              		.global	__aeabi_uidivmod
 2458              		.section	.text.animate_left_right,"ax",%progbits
 2459              		.align	2
 2460              		.global	animate_left_right
 2461              		.code	16
 2462              		.thumb_func
 2463              		.type	animate_left_right, %function
 2464              	animate_left_right:
 2465              	.LFB58:
1268:main.c        ****     static uint16 cycle      = 0;
 2466              		.loc 1 1268 0
 2467              		.cfi_startproc
 2468 0000 70B5     		push	{r4, r5, r6, lr}
 2469              		.cfi_def_cfa_offset 16
 2470              		.cfi_offset 4, -16
 2471              		.cfi_offset 5, -12
 2472              		.cfi_offset 6, -8
 2473              		.cfi_offset 14, -4
1270:main.c        **** 
 2474              		.loc 1 1270 0
 2475 0002 0E4E     		ldr	r6, .L151
 2476 0004 4C25     		mov	r5, #76
 2477 0006 745B     		ldrh	r4, [r6, r5]
 2478 0008 201C     		mov	r0, r4
 2479 000a 0A21     		mov	r1, #10
 2480 000c FFF7FEFF 		bl	__aeabi_uidivmod
 2481              	.LVL268:
 2482 0010 C9B2     		uxtb	r1, r1
 2483              	.LVL269:
1272:main.c        **** 
 2484              		.loc 1 1272 0
 2485 0012 0134     		add	r4, r4, #1
 2486 0014 7453     		strh	r4, [r6, r5]
1274:main.c        ****     {
 2487              		.loc 1 1274 0
 2488 0016 0029     		cmp	r1, #0
ARM GAS  C:\Users\BG1026~1\AppData\Local\Temp\cc2n2B4u.s 			page 73


 2489 0018 0FD1     		bne	.L149
1279:main.c        **** 
 2490              		.loc 1 1279 0
 2491 001a 094C     		ldr	r4, .L151+4
 2492 001c A079     		ldrb	r0, [r4, #6]
 2493 001e FFF7FEFF 		bl	set_led
 2494              	.LVL270:
1281:main.c        ****     led_pos %= NUMBER_OF_WHITE_LEDS;
 2495              		.loc 1 1281 0
 2496 0022 E088     		ldrh	r0, [r4, #6]
 2497 0024 0130     		add	r0, r0, #1
 2498 0026 80B2     		uxth	r0, r0
1282:main.c        **** 
 2499              		.loc 1 1282 0
 2500 0028 0F21     		mov	r1, #15
 2501 002a FFF7FEFF 		bl	__aeabi_uidivmod
 2502              	.LVL271:
 2503 002e 88B2     		uxth	r0, r1
 2504 0030 E080     		strh	r0, [r4, #6]
1284:main.c        **** }// animate_left_right
 2505              		.loc 1 1284 0
 2506 0032 C0B2     		uxtb	r0, r0
 2507 0034 0349     		ldr	r1, .L151+8
 2508 0036 FFF7FEFF 		bl	set_led
 2509              	.LVL272:
 2510              	.L149:
1285:main.c        **** 
 2511              		.loc 1 1285 0
 2512              		@ sp needed
 2513 003a 70BD     		pop	{r4, r5, r6, pc}
 2514              	.L152:
 2515              		.align	2
 2516              	.L151:
 2517 003c 00000000 		.word	.LANCHOR0
 2518 0040 00000000 		.word	.LANCHOR4
 2519 0044 FF0F0000 		.word	4095
 2520              		.cfi_endproc
 2521              	.LFE58:
 2522              		.size	animate_left_right, .-animate_left_right
 2523              		.section	.text.animate_intensity,"ax",%progbits
 2524              		.align	2
 2525              		.global	animate_intensity
 2526              		.code	16
 2527              		.thumb_func
 2528              		.type	animate_intensity, %function
 2529              	animate_intensity:
 2530              	.LFB59:
1288:main.c        ****     static uint16 intensity    = 0   ;
 2531              		.loc 1 1288 0
 2532              		.cfi_startproc
 2533 0000 10B5     		push	{r4, lr}
 2534              		.cfi_def_cfa_offset 8
 2535              		.cfi_offset 4, -8
 2536              		.cfi_offset 14, -4
 2537              	.LVL273:
1294:main.c        ****     {
 2538              		.loc 1 1294 0
ARM GAS  C:\Users\BG1026~1\AppData\Local\Temp\cc2n2B4u.s 			page 74


 2539 0002 0024     		mov	r4, #0
 2540 0004 06E0     		b	.L154
 2541              	.LVL274:
 2542              	.L155:
1296:main.c        ****     }
 2543              		.loc 1 1296 0 discriminator 3
 2544 0006 E0B2     		uxtb	r0, r4
 2545 0008 4E23     		mov	r3, #78
 2546 000a 114A     		ldr	r2, .L158
 2547 000c D15A     		ldrh	r1, [r2, r3]
 2548 000e FFF7FEFF 		bl	set_led
 2549              	.LVL275:
1294:main.c        ****     {
 2550              		.loc 1 1294 0 discriminator 3
 2551 0012 0134     		add	r4, r4, #1
 2552              	.LVL276:
 2553              	.L154:
1294:main.c        ****     {
 2554              		.loc 1 1294 0 is_stmt 0 discriminator 1
 2555 0014 0E2C     		cmp	r4, #14
 2556 0016 F6DD     		ble	.L155
1299:main.c        ****     {
 2557              		.loc 1 1299 0 is_stmt 1
 2558 0018 0E4B     		ldr	r3, .L158+4
 2559 001a DB7A     		ldrb	r3, [r3, #11]
 2560 001c 002B     		cmp	r3, #0
 2561 001e 0BD0     		beq	.L156
1301:main.c        ****         if (intensity >= 0x0FF)
 2562              		.loc 1 1301 0
 2563 0020 0B49     		ldr	r1, .L158
 2564 0022 4E22     		mov	r2, #78
 2565 0024 8B5A     		ldrh	r3, [r1, r2]
 2566 0026 0133     		add	r3, r3, #1
 2567 0028 9BB2     		uxth	r3, r3
 2568 002a 8B52     		strh	r3, [r1, r2]
1302:main.c        ****         {
 2569              		.loc 1 1302 0
 2570 002c FE2B     		cmp	r3, #254
 2571 002e 0ED9     		bls	.L153
1304:main.c        ****         }
 2572              		.loc 1 1304 0
 2573 0030 0022     		mov	r2, #0
 2574 0032 084B     		ldr	r3, .L158+4
 2575 0034 DA72     		strb	r2, [r3, #11]
 2576 0036 0AE0     		b	.L153
 2577              	.L156:
1309:main.c        ****         if (intensity == 0)
 2578              		.loc 1 1309 0
 2579 0038 0549     		ldr	r1, .L158
 2580 003a 4E22     		mov	r2, #78
 2581 003c 8B5A     		ldrh	r3, [r1, r2]
 2582 003e 013B     		sub	r3, r3, #1
 2583 0040 9BB2     		uxth	r3, r3
 2584 0042 8B52     		strh	r3, [r1, r2]
1310:main.c        ****         {
 2585              		.loc 1 1310 0
 2586 0044 002B     		cmp	r3, #0
ARM GAS  C:\Users\BG1026~1\AppData\Local\Temp\cc2n2B4u.s 			page 75


 2587 0046 02D1     		bne	.L153
1312:main.c        ****         }
 2588              		.loc 1 1312 0
 2589 0048 4D3A     		sub	r2, r2, #77
 2590 004a 024B     		ldr	r3, .L158+4
 2591 004c DA72     		strb	r2, [r3, #11]
 2592              	.L153:
1315:main.c        **** 
 2593              		.loc 1 1315 0
 2594              		@ sp needed
 2595              	.LVL277:
 2596 004e 10BD     		pop	{r4, pc}
 2597              	.L159:
 2598              		.align	2
 2599              	.L158:
 2600 0050 00000000 		.word	.LANCHOR0
 2601 0054 00000000 		.word	.LANCHOR4
 2602              		.cfi_endproc
 2603              	.LFE59:
 2604              		.size	animate_intensity, .-animate_intensity
 2605              		.section	.text.clear_all_leds,"ax",%progbits
 2606              		.align	2
 2607              		.global	clear_all_leds
 2608              		.code	16
 2609              		.thumb_func
 2610              		.type	clear_all_leds, %function
 2611              	clear_all_leds:
 2612              	.LFB64:
1447:main.c        **** 
1448:main.c        **** void set_all_leds_intensity (uint16 intensity)
1449:main.c        **** {
1450:main.c        ****     uint16  set_value = intensity; // min(intensity, MAX_INTENSITY);
1451:main.c        **** 
1452:main.c        ****     clear_all_leds();
1453:main.c        ****     led_buffer.led0  = set_value;   
1454:main.c        ****     led_buffer.led1  = set_value;   
1455:main.c        ****     led_buffer.led2  = set_value;   
1456:main.c        ****     led_buffer.led3  = set_value;   
1457:main.c        ****     led_buffer.led4  = set_value;   
1458:main.c        ****     led_buffer.led5  = set_value;   
1459:main.c        ****     led_buffer.led6  = set_value;   
1460:main.c        ****     led_buffer.led7  = set_value;   
1461:main.c        ****     led_buffer.led8  = set_value;   
1462:main.c        ****     led_buffer.led9  = set_value;   
1463:main.c        ****     led_buffer.led10 = set_value;   
1464:main.c        ****     led_buffer.led11 = set_value;   
1465:main.c        ****     led_buffer.led12 = set_value;   
1466:main.c        ****     led_buffer.led13 = set_value;   
1467:main.c        ****     led_buffer.led14 = set_value;   
1468:main.c        ****     led_buffer.led15 = set_value;   
1469:main.c        ****     led_buffer.led16 = set_value;   
1470:main.c        ****     led_buffer.led17 = set_value;   
1471:main.c        ****     led_buffer.led18 = set_value;   
1472:main.c        ****     led_buffer.led19 = set_value;   
1473:main.c        ****     led_buffer.led20 = set_value; 
1474:main.c        ****     led_buffer.led21 = set_value;   
1475:main.c        ****     led_buffer.led22 = set_value; 
ARM GAS  C:\Users\BG1026~1\AppData\Local\Temp\cc2n2B4u.s 			page 76


1476:main.c        ****     led_buffer.led23 = set_value;
1477:main.c        **** 
1478:main.c        ****     SPIM_SpiUartPutArray((const uint16*)&led_buffer, sizeof(led_buffer) / sizeof(uint16));
1479:main.c        ****     Latch_Write(1);
1480:main.c        ****     CyDelayUs  (1);
1481:main.c        ****     Latch_Write(0);
1482:main.c        **** }// set_led
1483:main.c        **** 
1484:main.c        **** void clear_all_leds(void)
1485:main.c        **** {  
 2613              		.loc 1 1485 0
 2614              		.cfi_startproc
 2615 0000 08B5     		push	{r3, lr}
 2616              		.cfi_def_cfa_offset 8
 2617              		.cfi_offset 3, -8
 2618              		.cfi_offset 14, -4
1486:main.c        ****     memset(&led_buffer, 0x00, sizeof(led_buffer));
 2619              		.loc 1 1486 0
 2620 0002 0E4A     		ldr	r2, .L161
 2621 0004 101C     		mov	r0, r2
 2622 0006 1030     		add	r0, r0, #16
 2623 0008 0023     		mov	r3, #0
 2624 000a 1361     		str	r3, [r2, #16]
 2625 000c 4360     		str	r3, [r0, #4]
 2626 000e 8360     		str	r3, [r0, #8]
 2627 0010 C360     		str	r3, [r0, #12]
 2628 0012 0361     		str	r3, [r0, #16]
 2629 0014 4361     		str	r3, [r0, #20]
 2630 0016 8361     		str	r3, [r0, #24]
 2631 0018 C361     		str	r3, [r0, #28]
 2632 001a 0362     		str	r3, [r0, #32]
 2633 001c 4362     		str	r3, [r0, #36]
 2634 001e 8362     		str	r3, [r0, #40]
 2635 0020 C362     		str	r3, [r0, #44]
1487:main.c        **** 
1488:main.c        ****     SPIM_SpiUartPutArray((const uint16*)&led_buffer, sizeof(led_buffer) / sizeof(uint16));
 2636              		.loc 1 1488 0
 2637 0022 1821     		mov	r1, #24
 2638 0024 FFF7FEFF 		bl	SPIM_SpiUartPutArray
 2639              	.LVL278:
1489:main.c        ****     Latch_Write(1);
 2640              		.loc 1 1489 0
 2641 0028 0120     		mov	r0, #1
 2642 002a FFF7FEFF 		bl	Latch_Write
 2643              	.LVL279:
1490:main.c        ****     CyDelayUs  (1);
 2644              		.loc 1 1490 0
 2645 002e 0120     		mov	r0, #1
 2646 0030 FFF7FEFF 		bl	CyDelayUs
 2647              	.LVL280:
1491:main.c        ****     Latch_Write(0);
 2648              		.loc 1 1491 0
 2649 0034 0020     		mov	r0, #0
 2650 0036 FFF7FEFF 		bl	Latch_Write
 2651              	.LVL281:
1492:main.c        **** }// clear_all_leds
 2652              		.loc 1 1492 0
ARM GAS  C:\Users\BG1026~1\AppData\Local\Temp\cc2n2B4u.s 			page 77


 2653              		@ sp needed
 2654 003a 08BD     		pop	{r3, pc}
 2655              	.L162:
 2656              		.align	2
 2657              	.L161:
 2658 003c 00000000 		.word	.LANCHOR0
 2659              		.cfi_endproc
 2660              	.LFE64:
 2661              		.size	clear_all_leds, .-clear_all_leds
 2662              		.section	.text.parse_and_execute_command,"ax",%progbits
 2663              		.align	2
 2664              		.global	parse_and_execute_command
 2665              		.code	16
 2666              		.thumb_func
 2667              		.type	parse_and_execute_command, %function
 2668              	parse_and_execute_command:
 2669              	.LFB43:
 490:main.c        ****     t_enum_command          cmd_id         = CMD_UNKNOWN;
 2670              		.loc 1 490 0
 2671              		.cfi_startproc
 2672              	.LVL282:
 2673 0000 F0B5     		push	{r4, r5, r6, r7, lr}
 2674              		.cfi_def_cfa_offset 20
 2675              		.cfi_offset 4, -20
 2676              		.cfi_offset 5, -16
 2677              		.cfi_offset 6, -12
 2678              		.cfi_offset 7, -8
 2679              		.cfi_offset 14, -4
 2680 0002 8FB0     		sub	sp, sp, #60
 2681              		.cfi_def_cfa_offset 80
 2682 0004 041C     		mov	r4, r0
 2683              	.LVL283:
 496:main.c        ****     char*                   next_param_str = NULL; 
 2684              		.loc 1 496 0
 2685 0006 2C21     		mov	r1, #44
 2686 0008 FFF7FEFF 		bl	strchr
 2687              	.LVL284:
 506:main.c        ****     {
 2688              		.loc 1 506 0
 2689 000c 0028     		cmp	r0, #0
 2690 000e 06D1     		bne	.L164
 508:main.c        ****         return FALSE;    
 2691              		.loc 1 508 0
 2692 0010 0230     		add	r0, r0, #2
 2693              	.LVL285:
 2694 0012 211C     		mov	r1, r4
 2695 0014 CB4A     		ldr	r2, .L228
 2696 0016 FFF7FEFF 		bl	send_alarm_telemetry
 2697              	.LVL286:
 509:main.c        ****     }// If we can't a comma inside the command
 2698              		.loc 1 509 0
 2699 001a 0020     		mov	r0, #0
 2700 001c C8E2     		b	.L165
 2701              	.LVL287:
 2702              	.L164:
 512:main.c        ****     
 2703              		.loc 1 512 0
ARM GAS  C:\Users\BG1026~1\AppData\Local\Temp\cc2n2B4u.s 			page 78


 2704 001e 451C     		add	r5, r0, #1
 2705              	.LVL288:
 2706 0020 FFF7FEFF 		bl	get_cmd_id_from_cmd_string
 2707              	.LVL289:
 514:main.c        ****     {
 2708              		.loc 1 514 0
 2709 0024 0528     		cmp	r0, #5
 2710 0026 00D9     		bls	.LCB2620
 2711 0028 BCE2     		b	.L166	@long jump
 2712              	.LCB2620:
 2713 002a 8000     		lsl	r0, r0, #2
 2714              	.LVL290:
 2715 002c C64B     		ldr	r3, .L228+4
 2716 002e 1B58     		ldr	r3, [r3, r0]
 2717 0030 9F46     		mov	pc, r3
 2718              		.section	.rodata
 2719              		.align	2
 2720              	.L168:
 2721 0060 80000000 		.word	.L167
 2722 0064 32000000 		.word	.L169
 2723 0068 1A010000 		.word	.L170
 2724 006c 58000000 		.word	.L225
 2725 0070 E8040000 		.word	.L172
 2726 0074 96050000 		.word	.L173
 2727              		.section	.text.parse_and_execute_command
 2728              	.L169:
 518:main.c        ****             return FALSE;    
 2729              		.loc 1 518 0
 2730 0032 0220     		mov	r0, #2
 2731 0034 211C     		mov	r1, r4
 2732 0036 C54A     		ldr	r2, .L228+8
 2733 0038 FFF7FEFF 		bl	send_alarm_telemetry
 2734              	.LVL291:
 519:main.c        ****         }// CMD_CAPSENSE
 2735              		.loc 1 519 0
 2736 003c 0020     		mov	r0, #0
 2737 003e B7E2     		b	.L165
 2738              	.LVL292:
 2739              	.L174:
 526:main.c        ****             }// for all the commands
 2740              		.loc 1 526 0 discriminator 3
 2741 0040 6300     		lsl	r3, r4, #1
 2742 0042 1B19     		add	r3, r3, r4
 2743 0044 9B00     		lsl	r3, r3, #2
 2744 0046 C24A     		ldr	r2, .L228+12
 2745 0048 D318     		add	r3, r2, r3
 2746 004a 5968     		ldr	r1, [r3, #4]
 2747 004c 9A68     		ldr	r2, [r3, #8]
 2748 004e 0020     		mov	r0, #0
 2749 0050 FFF7FEFF 		bl	send_alarm_telemetry
 2750              	.LVL293:
 524:main.c        ****             {
 2751              		.loc 1 524 0 discriminator 3
 2752 0054 0134     		add	r4, r4, #1
 2753              	.LVL294:
 2754 0056 00E0     		b	.L171
 2755              	.LVL295:
ARM GAS  C:\Users\BG1026~1\AppData\Local\Temp\cc2n2B4u.s 			page 79


 2756              	.L225:
 514:main.c        ****     {
 2757              		.loc 1 514 0
 2758 0058 0024     		mov	r4, #0
 2759              	.LVL296:
 2760              	.L171:
 524:main.c        ****             {
 2761              		.loc 1 524 0 discriminator 1
 2762 005a 052C     		cmp	r4, #5
 2763 005c F0DD     		ble	.L174
 2764 005e 0024     		mov	r4, #0
 2765              	.LVL297:
 2766 0060 0AE0     		b	.L175
 2767              	.LVL298:
 2768              	.L176:
 531:main.c        ****             }// for all the commands
 2769              		.loc 1 531 0 discriminator 3
 2770 0062 6300     		lsl	r3, r4, #1
 2771 0064 1B19     		add	r3, r3, r4
 2772 0066 9B00     		lsl	r3, r3, #2
 2773 0068 BA4A     		ldr	r2, .L228+16
 2774 006a D318     		add	r3, r2, r3
 2775 006c 5A6A     		ldr	r2, [r3, #36]
 2776 006e 0020     		mov	r0, #0
 2777 0070 B949     		ldr	r1, .L228+20
 2778 0072 FFF7FEFF 		bl	send_alarm_telemetry
 2779              	.LVL299:
 529:main.c        ****             {
 2780              		.loc 1 529 0 discriminator 3
 2781 0076 0134     		add	r4, r4, #1
 2782              	.LVL300:
 2783              	.L175:
 529:main.c        ****             {
 2784              		.loc 1 529 0 is_stmt 0 discriminator 1
 2785 0078 082C     		cmp	r4, #8
 2786 007a F2DD     		ble	.L176
 933:main.c        **** }// parse_and_execute_command
 2787              		.loc 1 933 0 is_stmt 1
 2788 007c 0120     		mov	r0, #1
 2789 007e 97E2     		b	.L165
 2790              	.LVL301:
 2791              	.L167:
 539:main.c        ****             {
 2792              		.loc 1 539 0
 2793 0080 281C     		mov	r0, r5
 2794 0082 2C21     		mov	r1, #44
 2795 0084 FFF7FEFF 		bl	strchr
 2796              	.LVL302:
 2797 0088 0028     		cmp	r0, #0
 2798 008a 06D1     		bne	.L177
 541:main.c        ****                 return FALSE;
 2799              		.loc 1 541 0
 2800 008c 0230     		add	r0, r0, #2
 2801              	.LVL303:
 2802 008e 211C     		mov	r1, r4
 2803 0090 B24A     		ldr	r2, .L228+24
 2804 0092 FFF7FEFF 		bl	send_alarm_telemetry
ARM GAS  C:\Users\BG1026~1\AppData\Local\Temp\cc2n2B4u.s 			page 80


 2805              	.LVL304:
 542:main.c        ****             }// If we can't find the next ',' character
 2806              		.loc 1 542 0
 2807 0096 0020     		mov	r0, #0
 2808 0098 8AE2     		b	.L165
 2809              	.LVL305:
 2810              	.L177:
 545:main.c        ****             {
 2811              		.loc 1 545 0
 2812 009a 0130     		add	r0, r0, #1
 2813              	.LVL306:
 2814 009c 3A21     		mov	r1, #58
 2815 009e FFF7FEFF 		bl	strchr
 2816              	.LVL307:
 2817 00a2 0028     		cmp	r0, #0
 2818 00a4 06D1     		bne	.L178
 547:main.c        ****                 return FALSE;
 2819              		.loc 1 547 0
 2820 00a6 0230     		add	r0, r0, #2
 2821              	.LVL308:
 2822 00a8 211C     		mov	r1, r4
 2823 00aa AC4A     		ldr	r2, .L228+24
 2824 00ac FFF7FEFF 		bl	send_alarm_telemetry
 2825              	.LVL309:
 548:main.c        ****             }// If we can't find the next ':' character
 2826              		.loc 1 548 0
 2827 00b0 0020     		mov	r0, #0
 2828 00b2 7DE2     		b	.L165
 2829              	.LVL310:
 2830              	.L178:
 550:main.c        ****             
 2831              		.loc 1 550 0
 2832 00b4 451C     		add	r5, r0, #1
 2833              	.LVL311:
 552:main.c        ****             {
 2834              		.loc 1 552 0
 2835 00b6 281C     		mov	r0, r5
 2836 00b8 FFF7FEFF 		bl	get_anim_cmd_id_from_cmd_string
 2837              	.LVL312:
 2838 00bc 0128     		cmp	r0, #1
 2839 00be 0BD0     		beq	.L180
 2840 00c0 0028     		cmp	r0, #0
 2841 00c2 04D0     		beq	.L181
 2842 00c4 0228     		cmp	r0, #2
 2843 00c6 0CD0     		beq	.L182
 2844 00c8 0328     		cmp	r0, #3
 2845 00ca 10D0     		beq	.L183
 2846 00cc 15E0     		b	.L226
 2847              	.L181:
 556:main.c        ****                     break;
 2848              		.loc 1 556 0
 2849 00ce 0122     		mov	r2, #1
 2850 00d0 A34B     		ldr	r3, .L228+28
 2851 00d2 1A73     		strb	r2, [r3, #12]
 933:main.c        **** }// parse_and_execute_command
 2852              		.loc 1 933 0
 2853 00d4 0120     		mov	r0, #1
ARM GAS  C:\Users\BG1026~1\AppData\Local\Temp\cc2n2B4u.s 			page 81


 2854              	.LVL313:
 557:main.c        ****                 }// CMD_ANIM_AUTO
 2855              		.loc 1 557 0
 2856 00d6 6BE2     		b	.L165
 2857              	.LVL314:
 2858              	.L180:
 562:main.c        ****                     break;
 2859              		.loc 1 562 0
 2860 00d8 0022     		mov	r2, #0
 2861 00da A14B     		ldr	r3, .L228+28
 2862 00dc 1A73     		strb	r2, [r3, #12]
 933:main.c        **** }// parse_and_execute_command
 2863              		.loc 1 933 0
 2864 00de 0120     		mov	r0, #1
 2865              	.LVL315:
 563:main.c        ****                 }// CMD_ANIM_MANUAL
 2866              		.loc 1 563 0
 2867 00e0 66E2     		b	.L165
 2868              	.LVL316:
 2869              	.L182:
 568:main.c        ****                     break;
 2870              		.loc 1 568 0
 2871 00e2 0121     		mov	r1, #1
 2872 00e4 5023     		mov	r3, #80
 2873 00e6 9F4A     		ldr	r2, .L228+32
 2874 00e8 D154     		strb	r1, [r2, r3]
 933:main.c        **** }// parse_and_execute_command
 2875              		.loc 1 933 0
 2876 00ea 0120     		mov	r0, #1
 2877              	.LVL317:
 569:main.c        ****                 }// CMD_ANIM_STOP
 2878              		.loc 1 569 0
 2879 00ec 60E2     		b	.L165
 2880              	.LVL318:
 2881              	.L183:
 574:main.c        ****                     break;
 2882              		.loc 1 574 0
 2883 00ee 0021     		mov	r1, #0
 2884 00f0 5023     		mov	r3, #80
 2885 00f2 9C4A     		ldr	r2, .L228+32
 2886 00f4 D154     		strb	r1, [r2, r3]
 933:main.c        **** }// parse_and_execute_command
 2887              		.loc 1 933 0
 2888 00f6 0120     		mov	r0, #1
 2889              	.LVL319:
 575:main.c        ****                 }// CMD_ANIM_RESUME
 2890              		.loc 1 575 0
 2891 00f8 5AE2     		b	.L165
 2892              	.LVL320:
 2893              	.L226:
 581:main.c        ****                     {
 2894              		.loc 1 581 0
 2895 00fa 281C     		mov	r0, r5
 2896              	.LVL321:
 2897 00fc FFF7FEFF 		bl	get_anim_id_from_cmd_string
 2898              	.LVL322:
 2899 0100 0928     		cmp	r0, #9
ARM GAS  C:\Users\BG1026~1\AppData\Local\Temp\cc2n2B4u.s 			page 82


 2900 0102 03D0     		beq	.L184
 583:main.c        ****                     }// if we found a valid animation description in the command
 2901              		.loc 1 583 0
 2902 0104 974B     		ldr	r3, .L228+32
 2903 0106 5865     		str	r0, [r3, #84]
 933:main.c        **** }// parse_and_execute_command
 2904              		.loc 1 933 0
 2905 0108 0120     		mov	r0, #1
 2906              	.LVL323:
 590:main.c        ****                 }// CMD_ANIM_UNKOWN, default
 2907              		.loc 1 590 0
 2908 010a 51E2     		b	.L165
 2909              	.LVL324:
 2910              	.L184:
 587:main.c        ****                         return FALSE;
 2911              		.loc 1 587 0
 2912 010c 0220     		mov	r0, #2
 2913              	.LVL325:
 2914 010e 211C     		mov	r1, r4
 2915 0110 924A     		ldr	r2, .L228+24
 2916 0112 FFF7FEFF 		bl	send_alarm_telemetry
 2917              	.LVL326:
 588:main.c        ****                     }// else, we couldn't find a valid animation 
 2918              		.loc 1 588 0
 2919 0116 0020     		mov	r0, #0
 2920 0118 4AE2     		b	.L165
 2921              	.LVL327:
 2922              	.L170:
 598:main.c        ****             {
 2923              		.loc 1 598 0
 2924 011a 281C     		mov	r0, r5
 2925 011c FFF7FEFF 		bl	get_led_cmd_id_from_cmd_string
 2926              	.LVL328:
 2927 0120 061E     		sub	r6, r0, #0
 2928              	.LVL329:
 2929 0122 042E     		cmp	r6, #4
 2930 0124 00D9     		bls	.LCB2850
 2931 0126 D8E1     		b	.L185	@long jump
 2932              	.LCB2850:
 2933 0128 8000     		lsl	r0, r0, #2
 2934              	.LVL330:
 2935 012a 8F4B     		ldr	r3, .L228+36
 2936 012c 1B58     		ldr	r3, [r3, r0]
 2937 012e 9F46     		mov	pc, r3
 2938              		.section	.rodata
 2939              		.align	2
 2940              	.L187:
 2941 0078 30010000 		.word	.L186
 2942 007c 38010000 		.word	.L188
 2943 0080 38010000 		.word	.L188
 2944 0084 56020000 		.word	.L189
 2945 0088 0E030000 		.word	.L190
 2946              		.section	.text.parse_and_execute_command
 2947              	.L186:
 602:main.c        ****                     break;
 2948              		.loc 1 602 0
 2949 0130 FFF7FEFF 		bl	clear_all_leds
ARM GAS  C:\Users\BG1026~1\AppData\Local\Temp\cc2n2B4u.s 			page 83


 2950              	.LVL331:
 933:main.c        **** }// parse_and_execute_command
 2951              		.loc 1 933 0
 2952 0134 0120     		mov	r0, #1
 603:main.c        ****                 }// CMD_LED_CLEAR
 2953              		.loc 1 603 0
 2954 0136 3BE2     		b	.L165
 2955              	.L188:
 609:main.c        ****                     {
 2956              		.loc 1 609 0
 2957 0138 281C     		mov	r0, r5
 2958 013a 2C21     		mov	r1, #44
 2959 013c FFF7FEFF 		bl	strchr
 2960              	.LVL332:
 2961 0140 0028     		cmp	r0, #0
 2962 0142 06D1     		bne	.L191
 611:main.c        ****                         return FALSE;
 2963              		.loc 1 611 0
 2964 0144 0230     		add	r0, r0, #2
 2965              	.LVL333:
 2966 0146 211C     		mov	r1, r4
 2967 0148 844A     		ldr	r2, .L228+24
 2968 014a FFF7FEFF 		bl	send_alarm_telemetry
 2969              	.LVL334:
 612:main.c        ****                     }// If we can't find the next ',' character
 2970              		.loc 1 612 0
 2971 014e 0020     		mov	r0, #0
 2972 0150 2EE2     		b	.L165
 2973              	.LVL335:
 2974              	.L191:
 615:main.c        ****                     {
 2975              		.loc 1 615 0
 2976 0152 0130     		add	r0, r0, #1
 2977              	.LVL336:
 2978 0154 3A21     		mov	r1, #58
 2979 0156 FFF7FEFF 		bl	strchr
 2980              	.LVL337:
 2981 015a 0028     		cmp	r0, #0
 2982 015c 06D1     		bne	.L192
 617:main.c        ****                         return FALSE;
 2983              		.loc 1 617 0
 2984 015e 0230     		add	r0, r0, #2
 2985              	.LVL338:
 2986 0160 211C     		mov	r1, r4
 2987 0162 824A     		ldr	r2, .L228+40
 2988 0164 FFF7FEFF 		bl	send_alarm_telemetry
 2989              	.LVL339:
 618:main.c        ****                     }// If we can't find the next ':' character
 2990              		.loc 1 618 0
 2991 0168 0020     		mov	r0, #0
 2992 016a 21E2     		b	.L165
 2993              	.LVL340:
 2994              	.L192:
 624:main.c        ****                     {
 2995              		.loc 1 624 0
 2996 016c 0130     		add	r0, r0, #1
 2997              	.LVL341:
ARM GAS  C:\Users\BG1026~1\AppData\Local\Temp\cc2n2B4u.s 			page 84


 2998 016e 3A21     		mov	r1, #58
 2999 0170 FFF7FEFF 		bl	strchr
 3000              	.LVL342:
 3001 0174 0028     		cmp	r0, #0
 3002 0176 06D1     		bne	.L193
 626:main.c        ****                         return FALSE;
 3003              		.loc 1 626 0
 3004 0178 0230     		add	r0, r0, #2
 3005              	.LVL343:
 3006 017a 211C     		mov	r1, r4
 3007 017c 7B4A     		ldr	r2, .L228+40
 3008 017e FFF7FEFF 		bl	send_alarm_telemetry
 3009              	.LVL344:
 627:main.c        ****                     }// If we can't find the next ':' character
 3010              		.loc 1 627 0
 3011 0182 0020     		mov	r0, #0
 3012 0184 14E2     		b	.L165
 3013              	.LVL345:
 3014              	.L193:
 630:main.c        ****                     {
 3015              		.loc 1 630 0
 3016 0186 451C     		add	r5, r0, #1
 3017              	.LVL346:
 3018 0188 281C     		mov	r0, r5
 3019 018a 2C21     		mov	r1, #44
 3020 018c FFF7FEFF 		bl	strchr
 3021              	.LVL347:
 3022 0190 0028     		cmp	r0, #0
 3023 0192 06D1     		bne	.L194
 632:main.c        ****                         return FALSE;
 3024              		.loc 1 632 0
 3025 0194 0230     		add	r0, r0, #2
 3026              	.LVL348:
 3027 0196 211C     		mov	r1, r4
 3028 0198 744A     		ldr	r2, .L228+40
 3029 019a FFF7FEFF 		bl	send_alarm_telemetry
 3030              	.LVL349:
 633:main.c        ****                     }// If we can't find the next ',' character
 3031              		.loc 1 633 0
 3032 019e 0020     		mov	r0, #0
 3033 01a0 06E2     		b	.L165
 3034              	.LVL350:
 3035              	.L194:
 635:main.c        ****                     next_param_str++;
 3036              		.loc 1 635 0
 3037 01a2 0023     		mov	r3, #0
 3038 01a4 0370     		strb	r3, [r0]
 636:main.c        ****                     
 3039              		.loc 1 636 0
 3040 01a6 471C     		add	r7, r0, #1
 3041              	.LVL351:
 638:main.c        ****                     
 3042              		.loc 1 638 0
 3043 01a8 281C     		mov	r0, r5
 3044 01aa FFF7FEFF 		bl	atoi
 3045              	.LVL352:
 3046 01ae 0190     		str	r0, [sp, #4]
ARM GAS  C:\Users\BG1026~1\AppData\Local\Temp\cc2n2B4u.s 			page 85


 3047              	.LVL353:
 643:main.c        ****                     {
 3048              		.loc 1 643 0
 3049 01b0 381C     		mov	r0, r7
 3050              	.LVL354:
 3051 01b2 3A21     		mov	r1, #58
 3052 01b4 FFF7FEFF 		bl	strchr
 3053              	.LVL355:
 3054 01b8 0028     		cmp	r0, #0
 3055 01ba 06D1     		bne	.L195
 645:main.c        ****                         return FALSE;
 3056              		.loc 1 645 0
 3057 01bc 0230     		add	r0, r0, #2
 3058              	.LVL356:
 3059 01be 211C     		mov	r1, r4
 3060 01c0 6B4A     		ldr	r2, .L228+44
 3061 01c2 FFF7FEFF 		bl	send_alarm_telemetry
 3062              	.LVL357:
 646:main.c        ****                     }// If we can't find the next ':' character
 3063              		.loc 1 646 0
 3064 01c6 0020     		mov	r0, #0
 3065 01c8 F2E1     		b	.L165
 3066              	.LVL358:
 3067              	.L195:
 649:main.c        ****                     {
 3068              		.loc 1 649 0
 3069 01ca 471C     		add	r7, r0, #1
 3070              	.LVL359:
 3071 01cc 381C     		mov	r0, r7
 3072 01ce 2C21     		mov	r1, #44
 3073 01d0 FFF7FEFF 		bl	strchr
 3074              	.LVL360:
 3075 01d4 0028     		cmp	r0, #0
 3076 01d6 06D1     		bne	.L196
 651:main.c        ****                         return FALSE;
 3077              		.loc 1 651 0
 3078 01d8 0230     		add	r0, r0, #2
 3079              	.LVL361:
 3080 01da 211C     		mov	r1, r4
 3081 01dc 654A     		ldr	r2, .L228+48
 3082 01de FFF7FEFF 		bl	send_alarm_telemetry
 3083              	.LVL362:
 652:main.c        ****                     }// If we can't find the next ',' character
 3084              		.loc 1 652 0
 3085 01e2 0020     		mov	r0, #0
 3086 01e4 E4E1     		b	.L165
 3087              	.LVL363:
 3088              	.L196:
 654:main.c        ****                     next_param_str++;
 3089              		.loc 1 654 0
 3090 01e6 0023     		mov	r3, #0
 3091 01e8 0370     		strb	r3, [r0]
 655:main.c        ****                     
 3092              		.loc 1 655 0
 3093 01ea 451C     		add	r5, r0, #1
 3094              	.LVL364:
 657:main.c        ****                     
ARM GAS  C:\Users\BG1026~1\AppData\Local\Temp\cc2n2B4u.s 			page 86


 3095              		.loc 1 657 0
 3096 01ec 381C     		mov	r0, r7
 3097 01ee FFF7FEFF 		bl	atoi
 3098              	.LVL365:
 3099 01f2 071C     		mov	r7, r0
 3100              	.LVL366:
 662:main.c        ****                     {
 3101              		.loc 1 662 0
 3102 01f4 281C     		mov	r0, r5
 3103              	.LVL367:
 3104 01f6 3A21     		mov	r1, #58
 3105 01f8 FFF7FEFF 		bl	strchr
 3106              	.LVL368:
 3107 01fc 0028     		cmp	r0, #0
 3108 01fe 06D1     		bne	.L197
 664:main.c        ****                         return FALSE;
 3109              		.loc 1 664 0
 3110 0200 0230     		add	r0, r0, #2
 3111              	.LVL369:
 3112 0202 211C     		mov	r1, r4
 3113 0204 5A4A     		ldr	r2, .L228+44
 3114 0206 FFF7FEFF 		bl	send_alarm_telemetry
 3115              	.LVL370:
 665:main.c        ****                     }// If we can't find the next ':' character
 3116              		.loc 1 665 0
 3117 020a 0020     		mov	r0, #0
 3118 020c D0E1     		b	.L165
 3119              	.LVL371:
 3120              	.L197:
 668:main.c        ****                     // ========================================================
 3121              		.loc 1 668 0
 3122 020e 0130     		add	r0, r0, #1
 3123              	.LVL372:
 3124 0210 FFF7FEFF 		bl	atoi
 3125              	.LVL373:
 3126 0214 041C     		mov	r4, r0
 3127              	.LVL374:
 672:main.c        ****                     {
 3128              		.loc 1 672 0
 3129 0216 012E     		cmp	r6, #1
 3130 0218 0ED1     		bne	.L198
 674:main.c        ****                         set_led(E_LED_LEFT_GREEN,  green);
 3131              		.loc 1 674 0
 3132 021a 6B46     		mov	r3, sp
 3133 021c 9988     		ldrh	r1, [r3, #4]
 3134 021e 1520     		mov	r0, #21
 3135              	.LVL375:
 3136 0220 FFF7FEFF 		bl	set_led
 3137              	.LVL376:
 675:main.c        ****                         set_led(E_LED_LEFT_BLUE ,  blue );
 3138              		.loc 1 675 0
 3139 0224 B9B2     		uxth	r1, r7
 3140 0226 1620     		mov	r0, #22
 3141 0228 FFF7FEFF 		bl	set_led
 3142              	.LVL377:
 676:main.c        ****                     }// if it's the left colored LED
 3143              		.loc 1 676 0
ARM GAS  C:\Users\BG1026~1\AppData\Local\Temp\cc2n2B4u.s 			page 87


 3144 022c A1B2     		uxth	r1, r4
 3145 022e 1720     		mov	r0, #23
 3146 0230 FFF7FEFF 		bl	set_led
 3147              	.LVL378:
 933:main.c        **** }// parse_and_execute_command
 3148              		.loc 1 933 0
 3149 0234 0120     		mov	r0, #1
 3150 0236 BBE1     		b	.L165
 3151              	.LVL379:
 3152              	.L198:
 680:main.c        ****                         set_led(E_LED_RIGHT_GREEN,  green);
 3153              		.loc 1 680 0
 3154 0238 6B46     		mov	r3, sp
 3155 023a 9988     		ldrh	r1, [r3, #4]
 3156 023c 1220     		mov	r0, #18
 3157              	.LVL380:
 3158 023e FFF7FEFF 		bl	set_led
 3159              	.LVL381:
 681:main.c        ****                         set_led(E_LED_RIGHT_BLUE ,  blue );
 3160              		.loc 1 681 0
 3161 0242 B9B2     		uxth	r1, r7
 3162 0244 1320     		mov	r0, #19
 3163 0246 FFF7FEFF 		bl	set_led
 3164              	.LVL382:
 682:main.c        ****                     }// if it's the right colored LED
 3165              		.loc 1 682 0
 3166 024a A1B2     		uxth	r1, r4
 3167 024c 1420     		mov	r0, #20
 3168 024e FFF7FEFF 		bl	set_led
 3169              	.LVL383:
 933:main.c        **** }// parse_and_execute_command
 3170              		.loc 1 933 0
 3171 0252 0120     		mov	r0, #1
 3172 0254 ACE1     		b	.L165
 3173              	.LVL384:
 3174              	.L189:
 690:main.c        ****                     {
 3175              		.loc 1 690 0
 3176 0256 281C     		mov	r0, r5
 3177 0258 2C21     		mov	r1, #44
 3178 025a FFF7FEFF 		bl	strchr
 3179              	.LVL385:
 3180 025e 0028     		cmp	r0, #0
 3181 0260 06D1     		bne	.L199
 692:main.c        ****                         return FALSE;
 3182              		.loc 1 692 0
 3183 0262 0230     		add	r0, r0, #2
 3184              	.LVL386:
 3185 0264 211C     		mov	r1, r4
 3186 0266 3D4A     		ldr	r2, .L228+24
 3187 0268 FFF7FEFF 		bl	send_alarm_telemetry
 3188              	.LVL387:
 693:main.c        ****                     }// If we can't find the next ',' character
 3189              		.loc 1 693 0
 3190 026c 0020     		mov	r0, #0
 3191 026e 9FE1     		b	.L165
 3192              	.LVL388:
ARM GAS  C:\Users\BG1026~1\AppData\Local\Temp\cc2n2B4u.s 			page 88


 3193              	.L199:
 696:main.c        ****                     {
 3194              		.loc 1 696 0
 3195 0270 0130     		add	r0, r0, #1
 3196              	.LVL389:
 3197 0272 3A21     		mov	r1, #58
 3198 0274 FFF7FEFF 		bl	strchr
 3199              	.LVL390:
 3200 0278 0028     		cmp	r0, #0
 3201 027a 06D1     		bne	.L200
 698:main.c        ****                         return FALSE;
 3202              		.loc 1 698 0
 3203 027c 0230     		add	r0, r0, #2
 3204              	.LVL391:
 3205 027e 211C     		mov	r1, r4
 3206 0280 3D4A     		ldr	r2, .L228+52
 3207 0282 FFF7FEFF 		bl	send_alarm_telemetry
 3208              	.LVL392:
 699:main.c        ****                     }// If we can't find the next ':' character
 3209              		.loc 1 699 0
 3210 0286 0020     		mov	r0, #0
 3211 0288 92E1     		b	.L165
 3212              	.LVL393:
 3213              	.L200:
 705:main.c        ****                     {
 3214              		.loc 1 705 0
 3215 028a 0130     		add	r0, r0, #1
 3216              	.LVL394:
 3217 028c 3A21     		mov	r1, #58
 3218 028e FFF7FEFF 		bl	strchr
 3219              	.LVL395:
 3220 0292 0028     		cmp	r0, #0
 3221 0294 06D1     		bne	.L201
 707:main.c        ****                         return FALSE;
 3222              		.loc 1 707 0
 3223 0296 0230     		add	r0, r0, #2
 3224              	.LVL396:
 3225 0298 211C     		mov	r1, r4
 3226 029a 384A     		ldr	r2, .L228+56
 3227 029c FFF7FEFF 		bl	send_alarm_telemetry
 3228              	.LVL397:
 708:main.c        ****                     }// If we can't find the next ':' character
 3229              		.loc 1 708 0
 3230 02a0 0020     		mov	r0, #0
 3231 02a2 85E1     		b	.L165
 3232              	.LVL398:
 3233              	.L201:
 711:main.c        ****                     {
 3234              		.loc 1 711 0
 3235 02a4 461C     		add	r6, r0, #1
 3236              	.LVL399:
 3237 02a6 301C     		mov	r0, r6
 3238 02a8 2C21     		mov	r1, #44
 3239 02aa FFF7FEFF 		bl	strchr
 3240              	.LVL400:
 3241 02ae 0028     		cmp	r0, #0
 3242 02b0 06D1     		bne	.L202
ARM GAS  C:\Users\BG1026~1\AppData\Local\Temp\cc2n2B4u.s 			page 89


 713:main.c        ****                         return FALSE;
 3243              		.loc 1 713 0
 3244 02b2 0230     		add	r0, r0, #2
 3245              	.LVL401:
 3246 02b4 211C     		mov	r1, r4
 3247 02b6 314A     		ldr	r2, .L228+56
 3248 02b8 FFF7FEFF 		bl	send_alarm_telemetry
 3249              	.LVL402:
 714:main.c        ****                     }// If we can't find the next ',' character
 3250              		.loc 1 714 0
 3251 02bc 0020     		mov	r0, #0
 3252 02be 77E1     		b	.L165
 3253              	.LVL403:
 3254              	.L202:
 716:main.c        ****                     next_param_str++;
 3255              		.loc 1 716 0
 3256 02c0 0023     		mov	r3, #0
 3257 02c2 0370     		strb	r3, [r0]
 717:main.c        ****                     
 3258              		.loc 1 717 0
 3259 02c4 451C     		add	r5, r0, #1
 3260              	.LVL404:
 719:main.c        ****                     
 3261              		.loc 1 719 0
 3262 02c6 301C     		mov	r0, r6
 3263 02c8 FFF7FEFF 		bl	atoi
 3264              	.LVL405:
 3265 02cc 061E     		sub	r6, r0, #0
 3266              	.LVL406:
 721:main.c        ****                     {
 3267              		.loc 1 721 0
 3268 02ce 0E2E     		cmp	r6, #14
 3269 02d0 06D9     		bls	.L203
 723:main.c        ****                         return FALSE;
 3270              		.loc 1 723 0
 3271 02d2 0220     		mov	r0, #2
 3272              	.LVL407:
 3273 02d4 211C     		mov	r1, r4
 3274 02d6 2A4A     		ldr	r2, .L228+60
 3275 02d8 FFF7FEFF 		bl	send_alarm_telemetry
 3276              	.LVL408:
 724:main.c        ****                     }
 3277              		.loc 1 724 0
 3278 02dc 0020     		mov	r0, #0
 3279 02de 67E1     		b	.L165
 3280              	.LVL409:
 3281              	.L203:
 730:main.c        ****                     {
 3282              		.loc 1 730 0
 3283 02e0 281C     		mov	r0, r5
 3284              	.LVL410:
 3285 02e2 3A21     		mov	r1, #58
 3286 02e4 FFF7FEFF 		bl	strchr
 3287              	.LVL411:
 3288 02e8 0028     		cmp	r0, #0
 3289 02ea 06D1     		bne	.L204
 732:main.c        ****                         return FALSE;
ARM GAS  C:\Users\BG1026~1\AppData\Local\Temp\cc2n2B4u.s 			page 90


 3290              		.loc 1 732 0
 3291 02ec 0230     		add	r0, r0, #2
 3292              	.LVL412:
 3293 02ee 211C     		mov	r1, r4
 3294 02f0 1F4A     		ldr	r2, .L228+44
 3295 02f2 FFF7FEFF 		bl	send_alarm_telemetry
 3296              	.LVL413:
 733:main.c        ****                     }// If we can't find the next ':' character
 3297              		.loc 1 733 0
 3298 02f6 0020     		mov	r0, #0
 3299 02f8 5AE1     		b	.L165
 3300              	.LVL414:
 3301              	.L204:
 736:main.c        ****                     
 3302              		.loc 1 736 0
 3303 02fa 0130     		add	r0, r0, #1
 3304              	.LVL415:
 3305 02fc FFF7FEFF 		bl	atoi
 3306              	.LVL416:
 3307 0300 011C     		mov	r1, r0
 3308              	.LVL417:
 741:main.c        ****                     break;
 3309              		.loc 1 741 0
 3310 0302 F0B2     		uxtb	r0, r6
 3311              	.LVL418:
 3312 0304 89B2     		uxth	r1, r1
 3313              	.LVL419:
 3314 0306 FFF7FEFF 		bl	set_led
 3315              	.LVL420:
 933:main.c        **** }// parse_and_execute_command
 3316              		.loc 1 933 0
 3317 030a 0120     		mov	r0, #1
 742:main.c        ****                 }// CMD_LED_SET_WHITE
 3318              		.loc 1 742 0
 3319 030c 50E1     		b	.L165
 3320              	.LVL421:
 3321              	.L190:
 747:main.c        ****                     {
 3322              		.loc 1 747 0
 3323 030e 281C     		mov	r0, r5
 3324 0310 2C21     		mov	r1, #44
 3325 0312 FFF7FEFF 		bl	strchr
 3326              	.LVL422:
 3327 0316 0028     		cmp	r0, #0
 3328 0318 06D1     		bne	.L205
 749:main.c        ****                         return FALSE;
 3329              		.loc 1 749 0
 3330 031a 0230     		add	r0, r0, #2
 3331              	.LVL423:
 3332 031c 211C     		mov	r1, r4
 3333 031e 194A     		ldr	r2, .L228+64
 3334 0320 FFF7FEFF 		bl	send_alarm_telemetry
 3335              	.LVL424:
 750:main.c        ****                     }// If we can't find the next ',' character
 3336              		.loc 1 750 0
 3337 0324 0020     		mov	r0, #0
 3338 0326 43E1     		b	.L165
ARM GAS  C:\Users\BG1026~1\AppData\Local\Temp\cc2n2B4u.s 			page 91


 3339              	.LVL425:
 3340              	.L205:
 753:main.c        ****                     {
 3341              		.loc 1 753 0
 3342 0328 0130     		add	r0, r0, #1
 3343              	.LVL426:
 3344 032a 2C21     		mov	r1, #44
 3345 032c FFF7FEFF 		bl	strchr
 3346              	.LVL427:
 3347 0330 0028     		cmp	r0, #0
 3348 0332 29D1     		bne	.L206
 755:main.c        ****                         return FALSE;
 3349              		.loc 1 755 0
 3350 0334 0230     		add	r0, r0, #2
 3351              	.LVL428:
 3352 0336 211C     		mov	r1, r4
 3353 0338 124A     		ldr	r2, .L228+64
 3354 033a FFF7FEFF 		bl	send_alarm_telemetry
 3355              	.LVL429:
 756:main.c        ****                     }// If we can't find the next ',' character 
 3356              		.loc 1 756 0
 3357 033e 0020     		mov	r0, #0
 3358 0340 36E1     		b	.L165
 3359              	.L229:
 3360 0342 C046     		.align	2
 3361              	.L228:
 3362 0344 AC000000 		.word	.LC53
 3363 0348 60000000 		.word	.L168
 3364 034c C8000000 		.word	.LC56
 3365 0350 8C000000 		.word	.LANCHOR1
 3366 0354 0C010000 		.word	.LANCHOR2
 3367 0358 D0000000 		.word	.LC59
 3368 035c DC000000 		.word	.LC62
 3369 0360 00000000 		.word	.LANCHOR4
 3370 0364 00000000 		.word	.LANCHOR0
 3371 0368 78000000 		.word	.L187
 3372 036c FC000000 		.word	.LC67
 3373 0370 1C010000 		.word	.LC69
 3374 0374 40010000 		.word	.LC71
 3375 0378 64010000 		.word	.LC73
 3376 037c 80010000 		.word	.LC75
 3377 0380 98010000 		.word	.LC77
 3378 0384 AC010000 		.word	.LC79
 3379              	.LVL430:
 3380              	.L206:
 759:main.c        ****                     {
 3381              		.loc 1 759 0
 3382 0388 0130     		add	r0, r0, #1
 3383              	.LVL431:
 3384 038a 3A21     		mov	r1, #58
 3385 038c FFF7FEFF 		bl	strchr
 3386              	.LVL432:
 3387 0390 0028     		cmp	r0, #0
 3388 0392 06D1     		bne	.L207
 761:main.c        ****                         return FALSE;
 3389              		.loc 1 761 0
 3390 0394 0230     		add	r0, r0, #2
ARM GAS  C:\Users\BG1026~1\AppData\Local\Temp\cc2n2B4u.s 			page 92


 3391              	.LVL433:
 3392 0396 211C     		mov	r1, r4
 3393 0398 864A     		ldr	r2, .L230
 3394 039a FFF7FEFF 		bl	send_alarm_telemetry
 3395              	.LVL434:
 762:main.c        ****                     }// If we can't find the next ':' character
 3396              		.loc 1 762 0
 3397 039e 0020     		mov	r0, #0
 3398 03a0 06E1     		b	.L165
 3399              	.LVL435:
 3400              	.L207:
 765:main.c        ****                     
 3401              		.loc 1 765 0
 3402 03a2 0023     		mov	r3, #0
 3403 03a4 0293     		str	r3, [sp, #8]
 3404 03a6 0393     		str	r3, [sp, #12]
 3405 03a8 0493     		str	r3, [sp, #16]
 3406 03aa 0593     		str	r3, [sp, #20]
 3407 03ac 0693     		str	r3, [sp, #24]
 3408 03ae 0793     		str	r3, [sp, #28]
 3409 03b0 0893     		str	r3, [sp, #32]
 3410 03b2 0993     		str	r3, [sp, #36]
 3411 03b4 0A93     		str	r3, [sp, #40]
 3412 03b6 0B93     		str	r3, [sp, #44]
 3413 03b8 0C93     		str	r3, [sp, #48]
 3414 03ba 0D93     		str	r3, [sp, #52]
 770:main.c        ****                     {
 3415              		.loc 1 770 0
 3416 03bc 0130     		add	r0, r0, #1
 3417              	.LVL436:
 3418 03be 2221     		mov	r1, #34
 3419 03c0 FFF7FEFF 		bl	strchr
 3420              	.LVL437:
 3421 03c4 0028     		cmp	r0, #0
 3422 03c6 06D1     		bne	.L208
 772:main.c        ****                         return FALSE;
 3423              		.loc 1 772 0
 3424 03c8 0230     		add	r0, r0, #2
 3425              	.LVL438:
 3426 03ca 211C     		mov	r1, r4
 3427 03cc 794A     		ldr	r2, .L230
 3428 03ce FFF7FEFF 		bl	send_alarm_telemetry
 3429              	.LVL439:
 773:main.c        ****                     }// If we can't find the next '"' character
 3430              		.loc 1 773 0
 3431 03d2 0020     		mov	r0, #0
 3432 03d4 ECE0     		b	.L165
 3433              	.LVL440:
 3434              	.L208:
 775:main.c        ****                     led_vec[E_LED_LEFT_RED] = atoi(param_str);
 3435              		.loc 1 775 0
 3436 03d6 451C     		add	r5, r0, #1
 3437              	.LVL441:
 776:main.c        ****                  
 3438              		.loc 1 776 0
 3439 03d8 281C     		mov	r0, r5
 3440 03da FFF7FEFF 		bl	atoi
ARM GAS  C:\Users\BG1026~1\AppData\Local\Temp\cc2n2B4u.s 			page 93


 3441              	.LVL442:
 3442 03de 02AB     		add	r3, sp, #8
 3443 03e0 5885     		strh	r0, [r3, #42]
 781:main.c        ****                     {
 3444              		.loc 1 781 0
 3445 03e2 281C     		mov	r0, r5
 3446 03e4 2D21     		mov	r1, #45
 3447 03e6 FFF7FEFF 		bl	strchr
 3448              	.LVL443:
 3449 03ea 0028     		cmp	r0, #0
 3450 03ec 06D1     		bne	.L209
 783:main.c        ****                         return FALSE;
 3451              		.loc 1 783 0
 3452 03ee 0230     		add	r0, r0, #2
 3453              	.LVL444:
 3454 03f0 211C     		mov	r1, r4
 3455 03f2 704A     		ldr	r2, .L230
 3456 03f4 FFF7FEFF 		bl	send_alarm_telemetry
 3457              	.LVL445:
 784:main.c        ****                     }// If we can't find the next '-' character
 3458              		.loc 1 784 0
 3459 03f8 0020     		mov	r0, #0
 3460 03fa D9E0     		b	.L165
 3461              	.LVL446:
 3462              	.L209:
 786:main.c        ****                     led_vec[E_LED_LEFT_GREEN] = atoi(param_str);
 3463              		.loc 1 786 0
 3464 03fc 451C     		add	r5, r0, #1
 3465              	.LVL447:
 787:main.c        ****                     
 3466              		.loc 1 787 0
 3467 03fe 281C     		mov	r0, r5
 3468 0400 FFF7FEFF 		bl	atoi
 3469              	.LVL448:
 3470 0404 02AB     		add	r3, sp, #8
 3471 0406 9885     		strh	r0, [r3, #44]
 792:main.c        ****                     {
 3472              		.loc 1 792 0
 3473 0408 281C     		mov	r0, r5
 3474 040a 2D21     		mov	r1, #45
 3475 040c FFF7FEFF 		bl	strchr
 3476              	.LVL449:
 3477 0410 0028     		cmp	r0, #0
 3478 0412 06D1     		bne	.L210
 794:main.c        ****                         return FALSE;
 3479              		.loc 1 794 0
 3480 0414 0230     		add	r0, r0, #2
 3481              	.LVL450:
 3482 0416 211C     		mov	r1, r4
 3483 0418 664A     		ldr	r2, .L230
 3484 041a FFF7FEFF 		bl	send_alarm_telemetry
 3485              	.LVL451:
 795:main.c        ****                     }// If we can't find the next '-' character
 3486              		.loc 1 795 0
 3487 041e 0020     		mov	r0, #0
 3488 0420 C6E0     		b	.L165
 3489              	.LVL452:
ARM GAS  C:\Users\BG1026~1\AppData\Local\Temp\cc2n2B4u.s 			page 94


 3490              	.L210:
 797:main.c        ****                     led_vec[E_LED_LEFT_BLUE] = atoi(param_str);
 3491              		.loc 1 797 0
 3492 0422 451C     		add	r5, r0, #1
 3493              	.LVL453:
 798:main.c        ****                     
 3494              		.loc 1 798 0
 3495 0424 281C     		mov	r0, r5
 3496 0426 FFF7FEFF 		bl	atoi
 3497              	.LVL454:
 3498 042a 02AB     		add	r3, sp, #8
 3499 042c D885     		strh	r0, [r3, #46]
 3500              	.LVL455:
 803:main.c        ****                     {
 3501              		.loc 1 803 0
 3502 042e 0026     		mov	r6, #0
 3503 0430 14E0     		b	.L211
 3504              	.LVL456:
 3505              	.L213:
 805:main.c        ****                         {
 3506              		.loc 1 805 0
 3507 0432 281C     		mov	r0, r5
 3508 0434 2D21     		mov	r1, #45
 3509 0436 FFF7FEFF 		bl	strchr
 3510              	.LVL457:
 3511 043a 0028     		cmp	r0, #0
 3512 043c 06D1     		bne	.L212
 807:main.c        ****                             return FALSE;
 3513              		.loc 1 807 0
 3514 043e 0230     		add	r0, r0, #2
 3515              	.LVL458:
 3516 0440 211C     		mov	r1, r4
 3517 0442 5C4A     		ldr	r2, .L230
 3518 0444 FFF7FEFF 		bl	send_alarm_telemetry
 3519              	.LVL459:
 808:main.c        ****                         }// If we can't find the next '-' character
 3520              		.loc 1 808 0
 3521 0448 0020     		mov	r0, #0
 3522 044a B1E0     		b	.L165
 3523              	.LVL460:
 3524              	.L212:
 810:main.c        ****                         led_vec[i] = atoi(param_str);
 3525              		.loc 1 810 0 discriminator 2
 3526 044c 451C     		add	r5, r0, #1
 3527              	.LVL461:
 811:main.c        ****                     }// for all the white LEDS
 3528              		.loc 1 811 0 discriminator 2
 3529 044e 281C     		mov	r0, r5
 3530 0450 FFF7FEFF 		bl	atoi
 3531              	.LVL462:
 3532 0454 7300     		lsl	r3, r6, #1
 3533 0456 02AA     		add	r2, sp, #8
 3534 0458 9852     		strh	r0, [r3, r2]
 803:main.c        ****                     {
 3535              		.loc 1 803 0 discriminator 2
 3536 045a 0136     		add	r6, r6, #1
 3537              	.LVL463:
ARM GAS  C:\Users\BG1026~1\AppData\Local\Temp\cc2n2B4u.s 			page 95


 3538              	.L211:
 803:main.c        ****                     {
 3539              		.loc 1 803 0 is_stmt 0 discriminator 1
 3540 045c 0E2E     		cmp	r6, #14
 3541 045e E8DD     		ble	.L213
 817:main.c        ****                     {
 3542              		.loc 1 817 0 is_stmt 1
 3543 0460 281C     		mov	r0, r5
 3544 0462 2D21     		mov	r1, #45
 3545 0464 FFF7FEFF 		bl	strchr
 3546              	.LVL464:
 3547 0468 0028     		cmp	r0, #0
 3548 046a 06D1     		bne	.L214
 819:main.c        ****                         return FALSE;
 3549              		.loc 1 819 0
 3550 046c 0230     		add	r0, r0, #2
 3551              	.LVL465:
 3552 046e 211C     		mov	r1, r4
 3553 0470 504A     		ldr	r2, .L230
 3554 0472 FFF7FEFF 		bl	send_alarm_telemetry
 3555              	.LVL466:
 820:main.c        ****                     }// If we can't find the next '-' character
 3556              		.loc 1 820 0
 3557 0476 0020     		mov	r0, #0
 3558 0478 9AE0     		b	.L165
 3559              	.LVL467:
 3560              	.L214:
 822:main.c        ****                     led_vec[E_LED_RIGHT_RED] = atoi(param_str);
 3561              		.loc 1 822 0
 3562 047a 451C     		add	r5, r0, #1
 3563              	.LVL468:
 823:main.c        ****                     
 3564              		.loc 1 823 0
 3565 047c 281C     		mov	r0, r5
 3566 047e FFF7FEFF 		bl	atoi
 3567              	.LVL469:
 3568 0482 02AB     		add	r3, sp, #8
 3569 0484 9884     		strh	r0, [r3, #36]
 828:main.c        ****                     {
 3570              		.loc 1 828 0
 3571 0486 281C     		mov	r0, r5
 3572 0488 2D21     		mov	r1, #45
 3573 048a FFF7FEFF 		bl	strchr
 3574              	.LVL470:
 3575 048e 0028     		cmp	r0, #0
 3576 0490 06D1     		bne	.L215
 830:main.c        ****                         return FALSE;
 3577              		.loc 1 830 0
 3578 0492 0230     		add	r0, r0, #2
 3579              	.LVL471:
 3580 0494 211C     		mov	r1, r4
 3581 0496 474A     		ldr	r2, .L230
 3582 0498 FFF7FEFF 		bl	send_alarm_telemetry
 3583              	.LVL472:
 831:main.c        ****                     }// If we can't find the next '-' character
 3584              		.loc 1 831 0
 3585 049c 0020     		mov	r0, #0
ARM GAS  C:\Users\BG1026~1\AppData\Local\Temp\cc2n2B4u.s 			page 96


 3586 049e 87E0     		b	.L165
 3587              	.LVL473:
 3588              	.L215:
 833:main.c        ****                     led_vec[E_LED_RIGHT_GREEN] = atoi(param_str);
 3589              		.loc 1 833 0
 3590 04a0 451C     		add	r5, r0, #1
 3591              	.LVL474:
 834:main.c        ****                     
 3592              		.loc 1 834 0
 3593 04a2 281C     		mov	r0, r5
 3594 04a4 FFF7FEFF 		bl	atoi
 3595              	.LVL475:
 3596 04a8 02AB     		add	r3, sp, #8
 3597 04aa D884     		strh	r0, [r3, #38]
 839:main.c        ****                     {
 3598              		.loc 1 839 0
 3599 04ac 281C     		mov	r0, r5
 3600 04ae 2D21     		mov	r1, #45
 3601 04b0 FFF7FEFF 		bl	strchr
 3602              	.LVL476:
 3603 04b4 0028     		cmp	r0, #0
 3604 04b6 06D1     		bne	.L216
 841:main.c        ****                         return FALSE;
 3605              		.loc 1 841 0
 3606 04b8 0230     		add	r0, r0, #2
 3607              	.LVL477:
 3608 04ba 211C     		mov	r1, r4
 3609 04bc 3D4A     		ldr	r2, .L230
 3610 04be FFF7FEFF 		bl	send_alarm_telemetry
 3611              	.LVL478:
 842:main.c        ****                     }// If we can't find the next '-' character
 3612              		.loc 1 842 0
 3613 04c2 0020     		mov	r0, #0
 3614 04c4 74E0     		b	.L165
 3615              	.LVL479:
 3616              	.L216:
 844:main.c        ****                     led_vec[E_LED_RIGHT_BLUE] = atoi(param_str);
 3617              		.loc 1 844 0
 3618 04c6 0130     		add	r0, r0, #1
 3619              	.LVL480:
 845:main.c        ****                     
 3620              		.loc 1 845 0
 3621 04c8 FFF7FEFF 		bl	atoi
 3622              	.LVL481:
 3623 04cc 02AB     		add	r3, sp, #8
 3624 04ce 1885     		strh	r0, [r3, #40]
 847:main.c        ****                     break;
 3625              		.loc 1 847 0
 3626 04d0 181C     		mov	r0, r3
 3627 04d2 FFF7FEFF 		bl	set_led_strip
 3628              	.LVL482:
 933:main.c        **** }// parse_and_execute_command
 3629              		.loc 1 933 0
 3630 04d6 0120     		mov	r0, #1
 848:main.c        ****                 }// CMD_LED_SET_STRIP
 3631              		.loc 1 848 0
 3632 04d8 6AE0     		b	.L165
ARM GAS  C:\Users\BG1026~1\AppData\Local\Temp\cc2n2B4u.s 			page 97


 3633              	.LVL483:
 3634              	.L185:
 854:main.c        ****                     return FALSE;
 3635              		.loc 1 854 0
 3636 04da 0220     		mov	r0, #2
 3637              	.LVL484:
 3638 04dc 211C     		mov	r1, r4
 3639 04de 364A     		ldr	r2, .L230+4
 3640 04e0 FFF7FEFF 		bl	send_alarm_telemetry
 3641              	.LVL485:
 855:main.c        ****                 }// CMD_LED_UNKNOWN, default
 3642              		.loc 1 855 0
 3643 04e4 0020     		mov	r0, #0
 3644 04e6 63E0     		b	.L165
 3645              	.LVL486:
 3646              	.L172:
 864:main.c        ****             {
 3647              		.loc 1 864 0
 3648 04e8 281C     		mov	r0, r5
 3649 04ea 2C21     		mov	r1, #44
 3650 04ec FFF7FEFF 		bl	strchr
 3651              	.LVL487:
 3652 04f0 0028     		cmp	r0, #0
 3653 04f2 06D1     		bne	.L217
 866:main.c        ****                 return FALSE;
 3654              		.loc 1 866 0
 3655 04f4 0230     		add	r0, r0, #2
 3656              	.LVL488:
 3657 04f6 211C     		mov	r1, r4
 3658 04f8 304A     		ldr	r2, .L230+8
 3659 04fa FFF7FEFF 		bl	send_alarm_telemetry
 3660              	.LVL489:
 867:main.c        ****             }// If we can't find the next ',' character
 3661              		.loc 1 867 0
 3662 04fe 0020     		mov	r0, #0
 3663 0500 56E0     		b	.L165
 3664              	.LVL490:
 3665              	.L217:
 870:main.c        ****             {
 3666              		.loc 1 870 0
 3667 0502 0130     		add	r0, r0, #1
 3668              	.LVL491:
 3669 0504 3A21     		mov	r1, #58
 3670 0506 FFF7FEFF 		bl	strchr
 3671              	.LVL492:
 3672 050a 0028     		cmp	r0, #0
 3673 050c 06D1     		bne	.L218
 872:main.c        ****                 return FALSE;
 3674              		.loc 1 872 0
 3675 050e 0230     		add	r0, r0, #2
 3676              	.LVL493:
 3677 0510 211C     		mov	r1, r4
 3678 0512 2A4A     		ldr	r2, .L230+8
 3679 0514 FFF7FEFF 		bl	send_alarm_telemetry
 3680              	.LVL494:
 873:main.c        ****             }// If we can't find the next ':' character
 3681              		.loc 1 873 0
ARM GAS  C:\Users\BG1026~1\AppData\Local\Temp\cc2n2B4u.s 			page 98


 3682 0518 0020     		mov	r0, #0
 3683 051a 49E0     		b	.L165
 3684              	.LVL495:
 3685              	.L218:
 875:main.c        ****             
 3686              		.loc 1 875 0
 3687 051c 451C     		add	r5, r0, #1
 3688              	.LVL496:
 877:main.c        ****             {
 3689              		.loc 1 877 0
 3690 051e 281C     		mov	r0, r5
 3691 0520 FFF7FEFF 		bl	get_tracker_cmd_id_from_cmd_string
 3692              	.LVL497:
 3693 0524 0128     		cmp	r0, #1
 3694 0526 04D0     		beq	.L220
 3695 0528 0028     		cmp	r0, #0
 3696 052a 07D0     		beq	.L221
 3697 052c 0228     		cmp	r0, #2
 3698 052e 0AD0     		beq	.L222
 3699 0530 2AE0     		b	.L227
 3700              	.L220:
 881:main.c        ****                     break;
 3701              		.loc 1 881 0
 3702 0532 0022     		mov	r2, #0
 3703 0534 224B     		ldr	r3, .L230+12
 3704 0536 1A72     		strb	r2, [r3, #8]
 933:main.c        **** }// parse_and_execute_command
 3705              		.loc 1 933 0
 3706 0538 0120     		mov	r0, #1
 3707              	.LVL498:
 882:main.c        ****                 }// CMD_TRACKER_DISABLE      
 3708              		.loc 1 882 0
 3709 053a 39E0     		b	.L165
 3710              	.LVL499:
 3711              	.L221:
 887:main.c        ****                     break;
 3712              		.loc 1 887 0
 3713 053c 0122     		mov	r2, #1
 3714 053e 204B     		ldr	r3, .L230+12
 3715 0540 1A72     		strb	r2, [r3, #8]
 933:main.c        **** }// parse_and_execute_command
 3716              		.loc 1 933 0
 3717 0542 0120     		mov	r0, #1
 3718              	.LVL500:
