ARM GAS  C:\Users\BG1026~1\AppData\Local\Temp\cc2n2B4u.s 			page 1


   1              		.cpu cortex-m0plus
   2              		.fpu softvfp
   3              		.eabi_attribute 20, 1
   4              		.eabi_attribute 21, 1
   5              		.eabi_attribute 23, 3
   6              		.eabi_attribute 24, 1
   7              		.eabi_attribute 25, 1
   8              		.eabi_attribute 26, 1
   9              		.eabi_attribute 30, 1
  10              		.eabi_attribute 34, 0
  11              		.eabi_attribute 18, 4
  12              		.code	16
  13              		.file	"main.c"
  14              		.text
  15              	.Ltext0:
  16              		.cfi_sections	.debug_frame
  17              		.global	__aeabi_idivmod
  18              		.global	__aeabi_idiv
  19              		.section	.text.itoa,"ax",%progbits
  20              		.align	2
  21              		.global	itoa
  22              		.code	16
  23              		.thumb_func
  24              		.type	itoa, %function
  25              	itoa:
  26              	.LFB35:
  27              		.file 1 "main.c"
   1:main.c        **** ﻿#include <project.h>
   2:main.c        **** 
   3:main.c        **** #define FOR_COLIN
   4:main.c        **** #define VERSION                   "0.02"
   5:main.c        **** #define MAX_LEDS                  24 
   6:main.c        **** #define NUMBER_OF_SEGMENTS        10
   7:main.c        **** #define NUMBER_OF_WHITE_LEDS      15
   8:main.c        **** #define NUMBER_OF_COLORED_LEDS    6
   9:main.c        **** #define SLIDER_RESOLUTION         100
  10:main.c        **** #define TOTAL_NUMBER_OF_LEDS      (NUMBER_OF_WHITE_LEDS + NUMBER_OF_WHITE_LEDS)
  11:main.c        **** #define SLIDER_BUCKETS            (SLIDER_RESOLUTION/NUMBER_OF_SEGMENTS)
  12:main.c        **** #define DEFAULT_NUMBER_OF_BUTTONS 6      // [1..NUMBER_OF_WHITE_LEDS]
  13:main.c        **** #define INVALID_CAP_POS           0xFFFF
  14:main.c        **** #define MAX_INTENSITY             0x0FFF //0x00FF // FIXME! 0x0FFF to save the battery
  15:main.c        **** #define MAX_COLOR                 0x0FFF
  16:main.c        **** #define START_OF_CMD              '{'
  17:main.c        **** #define END_OF_CMD                '}'
  18:main.c        **** #define USE_UART                  1
  19:main.c        **** #define USE_TUNER                 0
  20:main.c        **** #define INVALID_LED_POS           ((uint16)UINT_MAX)
  21:main.c        **** #define INT_DIGITS                11 // enough for 32 bits int
  22:main.c        **** 
  23:main.c        **** #ifndef BOOL
  24:main.c        **** #define BOOL uint8
  25:main.c        **** #endif // BOOL
  26:main.c        **** 
  27:main.c        **** #ifndef TRUE
  28:main.c        **** #define TRUE  1
  29:main.c        **** #define FALSE 0
  30:main.c        **** #endif // TRUE
ARM GAS  C:\Users\BG1026~1\AppData\Local\Temp\cc2n2B4u.s 			page 2


  31:main.c        **** 
  32:main.c        **** #ifndef min
  33:main.c        **** #define min(a,b) ((a)<(b)?(a):(b))
  34:main.c        **** #define max(a,b) ((a)>(b)?(a):(b))    
  35:main.c        **** #endif // min
  36:main.c        **** 
  37:main.c        **** typedef struct struct_rgb_color {
  38:main.c        ****     char8 red  ;
  39:main.c        ****     char8 green;
  40:main.c        ****     char8 blue ;
  41:main.c        **** }t_struct_rgb_color;
  42:main.c        **** 
  43:main.c        **** typedef enum enum_primaty_color
  44:main.c        **** {
  45:main.c        ****     E_RED = 0,    
  46:main.c        ****     E_GREEN  ,
  47:main.c        ****     E_BLUE
  48:main.c        **** }t_enum_primary_color;
  49:main.c        **** 
  50:main.c        **** typedef enum enum_color_led_pos
  51:main.c        **** {
  52:main.c        ****     E_LED_RIGHT_RED = 18, 
  53:main.c        ****     E_LED_RIGHT_GREEN   ,   
  54:main.c        ****     E_LED_RIGHT_BLUE    ,
  55:main.c        ****     E_LED_LEFT_RED      ,
  56:main.c        ****     E_LED_LEFT_GREEN    ,
  57:main.c        ****     E_LED_LEFT_BLUE
  58:main.c        **** }t_enum_color_led_pos;
  59:main.c        **** 
  60:main.c        **** typedef enum enum_alarm_type
  61:main.c        **** {
  62:main.c        ****     ALARM_LOG = 0,
  63:main.c        ****     ALARM_INFO   ,
  64:main.c        ****     ALARM_WARNING,
  65:main.c        ****     ALARM_ERROR  ,
  66:main.c        ****     ALARM_FATAL  ,
  67:main.c        ****     ALARM_UNKNOWN// keep it last, not an alarm type
  68:main.c        **** }t_enum_alarm_type;
  69:main.c        **** 
  70:main.c        **** typedef enum enum_command
  71:main.c        **** {
  72:main.c        ****     CMD_ANIMATION,
  73:main.c        ****     CMD_CAPSENSE ,
  74:main.c        ****     CMD_LED      ,
  75:main.c        ****     CMD_HELP     ,
  76:main.c        ****     CMD_TRACKER  ,
  77:main.c        ****     CMD_VERSION  ,
  78:main.c        ****     CMD_UNKNOWN  // keep it last, not a command
  79:main.c        **** }t_enum_command;
  80:main.c        **** 
  81:main.c        **** typedef enum enum_anim_command
  82:main.c        **** {
  83:main.c        ****     CMD_ANIM_AUTO = 0,
  84:main.c        ****     CMD_ANIM_MANUAL  ,
  85:main.c        ****     CMD_ANIM_STOP    ,
  86:main.c        ****     CMD_ANIM_RESUME  , 
  87:main.c        ****     CMD_ANIM_UNKNOWN  // keep it last
ARM GAS  C:\Users\BG1026~1\AppData\Local\Temp\cc2n2B4u.s 			page 3


  88:main.c        **** }t_enum_anim_command;
  89:main.c        **** 
  90:main.c        **** typedef enum enum_tracker_command
  91:main.c        **** {
  92:main.c        ****     CMD_TRACKER_ENABLE = 0,
  93:main.c        ****     CMD_TRACKER_DISABLE   ,
  94:main.c        ****     CMD_TRACKER_SET_BUTTON,
  95:main.c        ****     CMD_TRACKER_UNKNOWN   // keep it last
  96:main.c        **** }t_enum_tracker_command;
  97:main.c        **** 
  98:main.c        **** typedef enum enum_led_command
  99:main.c        **** {
 100:main.c        ****     CMD_LED_CLEAR = 0      ,   
 101:main.c        ****     CMD_LED_SET_COLOR_LEFT ,
 102:main.c        ****     CMD_LED_SET_COLOR_RIGHT,
 103:main.c        ****     CMD_LED_SET_WHITE      ,
 104:main.c        ****     CMD_LED_SET_STRIP      ,
 105:main.c        ****     CMD_LED_UNKNOWN
 106:main.c        **** }t_enum_led_command;
 107:main.c        **** 
 108:main.c        **** typedef enum enum_animation
 109:main.c        **** {
 110:main.c        ****     ANIM_LEFT_RIGHT = 0  ,
 111:main.c        ****     ANIM_INTENSITY       ,
 112:main.c        ****     ANIM_2_LEDS          ,
 113:main.c        ****     ANIM_RED_INTENSITY   ,
 114:main.c        ****     ANIM_GREEN_INTENSITY ,
 115:main.c        ****     ANIM_BLUE_INTENSITY  ,
 116:main.c        ****     ANIM_COLORS_INTENSITY,
 117:main.c        ****     ANIM_RAINBOW_COLORS  ,
 118:main.c        ****     ANIM_FIX_WHITE       , 
 119:main.c        ****     ANIM_UNKNOWN         // keep it last, not an animation
 120:main.c        **** }t_enum_animation;
 121:main.c        **** 
 122:main.c        **** typedef struct struct_command
 123:main.c        **** {
 124:main.c        ****     uint16      id  ; 
 125:main.c        ****     const char* name;
 126:main.c        ****     const char* description;
 127:main.c        **** }t_struct_command;
 128:main.c        **** 
 129:main.c        **** typedef void (*t_callback_anim) (void);
 130:main.c        **** 
 131:main.c        **** typedef struct struct_animation
 132:main.c        **** {
 133:main.c        ****     t_enum_animation id         ;
 134:main.c        ****     t_callback_anim  callback   ;
 135:main.c        ****     const char*      description;    
 136:main.c        **** }struct_animation_t;
 137:main.c        **** 
 138:main.c        **** typedef struct tlc_5947_led_driver 
 139:main.c        **** {
 140:main.c        ****     uint16 led0 :12;
 141:main.c        ****     uint16 led1 :12;
 142:main.c        ****     uint16 led2 :12;
 143:main.c        ****     uint16 led3 :12;
 144:main.c        ****     uint16 led4 :12;
ARM GAS  C:\Users\BG1026~1\AppData\Local\Temp\cc2n2B4u.s 			page 4


 145:main.c        ****     uint16 led5 :12;
 146:main.c        ****     uint16 led6 :12;
 147:main.c        ****     uint16 led7 :12;
 148:main.c        ****     uint16 led8 :12;
 149:main.c        ****     uint16 led9 :12;
 150:main.c        ****     uint16 led10:12;
 151:main.c        ****     uint16 led11:12;
 152:main.c        ****     uint16 led12:12;
 153:main.c        ****     uint16 led13:12;
 154:main.c        ****     uint16 led14:12;
 155:main.c        ****     uint16 led15:12;
 156:main.c        ****     uint16 led16:12;
 157:main.c        ****     uint16 led17:12;
 158:main.c        ****     uint16 led18:12;
 159:main.c        ****     uint16 led19:12;
 160:main.c        ****     uint16 led20:12;
 161:main.c        ****     uint16 led21:12;
 162:main.c        ****     uint16 led22:12;
 163:main.c        ****     uint16 led23:12;
 164:main.c        **** }t_tlc_5947_led_driver;
 165:main.c        ****     
 166:main.c        **** void                   display_state                     (void);
 167:main.c        **** void                   animate_left_right                (void);
 168:main.c        **** void                   animate_intensity                 (void);
 169:main.c        **** void                   animate_2_leds                    (void);
 170:main.c        **** void                   animate_random                    (void);
 171:main.c        **** void                   animate_red_intensity             (void);
 172:main.c        **** void                   animate_green_intensity           (void);
 173:main.c        **** void                   animate_blue_intensity            (void);
 174:main.c        **** void                   animate_all_colors                (void);
 175:main.c        **** void                   animate_rainbow_colors            (void);
 176:main.c        **** void                   animate_fix_white                 (void);
 177:main.c        **** void                   animate_color_intensity           (t_enum_primary_color color);
 178:main.c        **** void                   set_led                           (char led, uint16 intensity);
 179:main.c        **** void                   set_all_leds_intensity            (uint16 intensity);
 180:main.c        **** void                   set_led_strip                     (uint16 led_vec[MAX_LEDS]);
 181:main.c        **** void                   clear_all_leds                    (void);
 182:main.c        **** void                   send_telemetry                    (const char* telemetry);
 183:main.c        **** void                   send_animation_telemetry          (int animation_index, const char* action);
 184:main.c        **** void                   send_button_telemetry             (int button         , const char* action);
 185:main.c        **** void                   send_alarm_telemetry              (t_enum_alarm_type alarm_type, const char*
 186:main.c        **** BOOL                   parse_and_execute_command         (char* command_str);
 187:main.c        **** t_enum_command         get_cmd_id_from_cmd_string        (const char* command_str);
 188:main.c        **** t_enum_anim_command    get_anim_cmd_id_from_cmd_string   (const char* cmd_str);
 189:main.c        **** t_enum_animation       get_anim_id_from_cmd_string       (const char* cmd_str);
 190:main.c        **** t_enum_tracker_command get_tracker_cmd_id_from_cmd_string(const char* cmd_str);
 191:main.c        **** t_enum_led_command     get_led_cmd_id_from_cmd_string    (const char* cmd_str);
 192:main.c        **** 
 193:main.c        **** static t_tlc_5947_led_driver led_buffer;
 194:main.c        **** static BOOL                  stop_anim             = FALSE;
 195:main.c        **** static BOOL                  auto_anim             = TRUE ;
 196:main.c        **** static BOOL                  tracker_enable        = TRUE;
 197:main.c        **** static int                   current_callback_anim = ANIM_LEFT_RIGHT;
 198:main.c        **** static uint16                cap_cur_pos           = INVALID_CAP_POS;
 199:main.c        **** static uint16                cap_old_pos           = INVALID_CAP_POS;
 200:main.c        **** static uint16                led_pos               = INVALID_LED_POS;
 201:main.c        **** static uint16                number_of_buttons     = DEFAULT_NUMBER_OF_BUTTONS;
ARM GAS  C:\Users\BG1026~1\AppData\Local\Temp\cc2n2B4u.s 			page 5


 202:main.c        **** 
 203:main.c        **** static struct_animation_t    vec_call_back_anim  [ANIM_UNKNOWN]       ={{ANIM_LEFT_RIGHT        , a
 204:main.c        ****                                                                         {ANIM_INTENSITY         , a
 205:main.c        ****                                                                         {ANIM_2_LEDS            , a
 206:main.c        ****                                                                         {ANIM_RED_INTENSITY     , a
 207:main.c        ****                                                                         {ANIM_GREEN_INTENSITY   , a
 208:main.c        ****                                                                         {ANIM_BLUE_INTENSITY    , a
 209:main.c        ****                                                                         {ANIM_COLORS_INTENSITY  , a
 210:main.c        ****                                                                         {ANIM_RAINBOW_COLORS    , a
 211:main.c        ****                                                                         {ANIM_FIX_WHITE         , a
 212:main.c        **** static t_struct_command      vec_anim_commands   [CMD_ANIM_UNKNOWN]   ={{CMD_ANIM_AUTO          , "
 213:main.c        ****                                                                         {CMD_ANIM_MANUAL        , "
 214:main.c        ****                                                                         {CMD_ANIM_STOP          , "
 215:main.c        ****                                                                         {CMD_ANIM_RESUME        , "
 216:main.c        **** static t_struct_command      vec_tracker_commands[CMD_TRACKER_UNKNOWN]={{CMD_TRACKER_DISABLE    , "
 217:main.c        ****                                                                         {CMD_TRACKER_ENABLE     , "
 218:main.c        ****                                                                         {CMD_TRACKER_SET_BUTTON , "
 219:main.c        **** static t_struct_command      vec_led_commands    [CMD_LED_UNKNOWN]    ={{CMD_LED_CLEAR          , "
 220:main.c        ****                                                                         {CMD_LED_SET_COLOR_LEFT , "
 221:main.c        ****                                                                         {CMD_LED_SET_COLOR_RIGHT, "
 222:main.c        ****                                                                         {CMD_LED_SET_WHITE      , "
 223:main.c        ****                                                                         {CMD_LED_SET_STRIP      , "
 224:main.c        **** static t_struct_command      vec_commands        [CMD_UNKNOWN]        ={{CMD_ANIMATION          , "
 225:main.c        ****                                                                         {CMD_CAPSENSE           , "
 226:main.c        ****                                                                         {CMD_HELP               , "
 227:main.c        ****                                                                         {CMD_LED                , "
 228:main.c        ****                                                                         {CMD_TRACKER            , "
 229:main.c        ****                                                                         {CMD_VERSION            , "
 230:main.c        **** 
 231:main.c        **** char* itoa(int i)
 232:main.c        **** {
  28              		.loc 1 232 0
  29              		.cfi_startproc
  30              	.LVL0:
  31 0000 38B5     		push	{r3, r4, r5, lr}
  32              		.cfi_def_cfa_offset 16
  33              		.cfi_offset 3, -16
  34              		.cfi_offset 4, -12
  35              		.cfi_offset 5, -8
  36              		.cfi_offset 14, -4
  37 0002 041E     		sub	r4, r0, #0
  38              	.LVL1:
 233:main.c        ****     static char buf[INT_DIGITS + 2]; // Room for INT_DIGITS digits, - and '\0'
 234:main.c        ****     char* p = buf + INT_DIGITS + 1;  // points to terminating '\0'
 235:main.c        ****   
 236:main.c        ****     if (i >= 0) {
  39              		.loc 1 236 0
  40 0004 10DB     		blt	.L5
  41 0006 134D     		ldr	r5, .L6
  42 0008 0C35     		add	r5, r5, #12
  43              	.LVL2:
  44              	.L3:
 237:main.c        ****         do 
 238:main.c        ****         {
 239:main.c        ****             *--p  = '0' + (i % 10);
  45              		.loc 1 239 0 discriminator 1
  46 000a 013D     		sub	r5, r5, #1
ARM GAS  C:\Users\BG1026~1\AppData\Local\Temp\cc2n2B4u.s 			page 6


  47              	.LVL3:
  48 000c 201C     		mov	r0, r4
  49 000e 0A21     		mov	r1, #10
  50 0010 FFF7FEFF 		bl	__aeabi_idivmod
  51              	.LVL4:
  52 0014 3031     		add	r1, r1, #48
  53 0016 2970     		strb	r1, [r5]
 240:main.c        ****             i    /= 10;
  54              		.loc 1 240 0 discriminator 1
  55 0018 201C     		mov	r0, r4
  56 001a 0A21     		mov	r1, #10
  57 001c FFF7FEFF 		bl	__aeabi_idiv
  58              	.LVL5:
  59 0020 041E     		sub	r4, r0, #0
  60              	.LVL6:
 241:main.c        ****         } while (i != 0);
  61              		.loc 1 241 0 discriminator 1
  62 0022 F2D1     		bne	.L3
 242:main.c        ****         return p;
  63              		.loc 1 242 0
  64 0024 281C     		mov	r0, r5
  65              	.LVL7:
  66 0026 13E0     		b	.L4
  67              	.LVL8:
  68              	.L5:
  69 0028 0A4D     		ldr	r5, .L6
  70 002a 0C35     		add	r5, r5, #12
  71              	.LVL9:
  72              	.L2:
 243:main.c        ****     }
 244:main.c        ****     else 
 245:main.c        ****     {			/* i < 0 */
 246:main.c        ****         do {
 247:main.c        ****             *--p  = '0' - (i % 10);
  73              		.loc 1 247 0 discriminator 1
  74 002c 013D     		sub	r5, r5, #1
  75              	.LVL10:
  76 002e 201C     		mov	r0, r4
  77 0030 0A21     		mov	r1, #10
  78 0032 FFF7FEFF 		bl	__aeabi_idivmod
  79              	.LVL11:
  80 0036 3023     		mov	r3, #48
  81 0038 591A     		sub	r1, r3, r1
  82 003a 2970     		strb	r1, [r5]
 248:main.c        ****             i    /= 10;
  83              		.loc 1 248 0 discriminator 1
  84 003c 201C     		mov	r0, r4
  85 003e 0A21     		mov	r1, #10
  86 0040 FFF7FEFF 		bl	__aeabi_idiv
  87              	.LVL12:
  88 0044 041E     		sub	r4, r0, #0
  89              	.LVL13:
 249:main.c        ****         } while (i != 0);
  90              		.loc 1 249 0 discriminator 1
  91 0046 F1D1     		bne	.L2
 250:main.c        ****         *--p = '-';
  92              		.loc 1 250 0
ARM GAS  C:\Users\BG1026~1\AppData\Local\Temp\cc2n2B4u.s 			page 7


  93 0048 013D     		sub	r5, r5, #1
  94              	.LVL14:
  95 004a 2D23     		mov	r3, #45
  96 004c 2B70     		strb	r3, [r5]
 251:main.c        ****     }
 252:main.c        ****     return p;
  97              		.loc 1 252 0
  98 004e 281C     		mov	r0, r5
  99              	.LVL15:
 100              	.L4:
 253:main.c        **** }// itoa
 101              		.loc 1 253 0
 102              		@ sp needed
 103              	.LVL16:
 104 0050 38BD     		pop	{r3, r4, r5, pc}
 105              	.L7:
 106 0052 C046     		.align	2
 107              	.L6:
 108 0054 00000000 		.word	.LANCHOR0
 109              		.cfi_endproc
 110              	.LFE35:
 111              		.size	itoa, .-itoa
 112              		.section	.text.atoi,"ax",%progbits
 113              		.align	2
 114              		.global	atoi
 115              		.code	16
 116              		.thumb_func
 117              		.type	atoi, %function
 118              	atoi:
 119              	.LFB36:
 254:main.c        **** 
 255:main.c        **** int atoi(register char* string)
 256:main.c        **** {
 120              		.loc 1 256 0
 121              		.cfi_startproc
 122              	.LVL17:
 123 0000 10B5     		push	{r4, lr}
 124              		.cfi_def_cfa_offset 8
 125              		.cfi_offset 4, -8
 126              		.cfi_offset 14, -4
 127              	.LVL18:
 257:main.c        ****     register int          result = 0;
 258:main.c        ****     register unsigned int digit  = 0;
 259:main.c        ****     int                   sign   = 0;
 260:main.c        **** 
 261:main.c        ****     while (isspace(*string)) 
 128              		.loc 1 261 0
 129 0002 00E0     		b	.L9
 130              	.L10:
 262:main.c        ****     {
 263:main.c        **** 	    string += 1;
 131              		.loc 1 263 0
 132 0004 0130     		add	r0, r0, #1
 133              	.LVL19:
 134              	.L9:
 261:main.c        ****     {
 135              		.loc 1 261 0
ARM GAS  C:\Users\BG1026~1\AppData\Local\Temp\cc2n2B4u.s 			page 8


 136 0006 0278     		ldrb	r2, [r0]
 137 0008 104B     		ldr	r3, .L18
 138 000a 1B68     		ldr	r3, [r3]
 139 000c 9B18     		add	r3, r3, r2
 140 000e 5B78     		ldrb	r3, [r3, #1]
 141 0010 1B07     		lsl	r3, r3, #28
 142 0012 F7D4     		bmi	.L10
 264:main.c        ****     }
 265:main.c        **** 
 266:main.c        ****     if (*string == '-') 
 143              		.loc 1 266 0
 144 0014 2D2A     		cmp	r2, #45
 145 0016 02D1     		bne	.L11
 146              	.LVL20:
 267:main.c        ****     {
 268:main.c        ****     	sign    = 1;
 269:main.c        ****     	string += 1;
 147              		.loc 1 269 0
 148 0018 0130     		add	r0, r0, #1
 149              	.LVL21:
 268:main.c        ****     	string += 1;
 150              		.loc 1 268 0
 151 001a 0124     		mov	r4, #1
 152 001c 05E0     		b	.L12
 153              	.LVL22:
 154              	.L11:
 270:main.c        ****     } 
 271:main.c        ****     else 
 272:main.c        ****     {
 273:main.c        ****     	sign = 0;
 274:main.c        ****     	if (*string == '+') 
 155              		.loc 1 274 0
 156 001e 2B2A     		cmp	r2, #43
 157 0020 02D1     		bne	.L17
 275:main.c        ****         {
 276:main.c        ****     	    string += 1;
 158              		.loc 1 276 0
 159 0022 0130     		add	r0, r0, #1
 160              	.LVL23:
 273:main.c        ****     	if (*string == '+') 
 161              		.loc 1 273 0
 162 0024 0024     		mov	r4, #0
 163 0026 00E0     		b	.L12
 164              	.L17:
 165 0028 0024     		mov	r4, #0
 166              	.LVL24:
 167              	.L12:
 168 002a 0023     		mov	r3, #0
 169              	.LVL25:
 170              	.L14:
 277:main.c        ****     	}
 278:main.c        ****     }
 279:main.c        **** 
 280:main.c        ****     for ( ; ; string += 1) 
 281:main.c        ****     {
 282:main.c        ****     	digit = *string - '0';
 171              		.loc 1 282 0
ARM GAS  C:\Users\BG1026~1\AppData\Local\Temp\cc2n2B4u.s 			page 9


 172 002c 0278     		ldrb	r2, [r0]
 173 002e 303A     		sub	r2, r2, #48
 174              	.LVL26:
 283:main.c        ****     	if (digit > 9) 
 175              		.loc 1 283 0
 176 0030 092A     		cmp	r2, #9
 177 0032 05D8     		bhi	.L13
 284:main.c        ****         {
 285:main.c        ****     	    break;
 286:main.c        ****     	}
 287:main.c        ****     	result = (10*result) + digit;
 178              		.loc 1 287 0
 179 0034 9900     		lsl	r1, r3, #2
 180 0036 CB18     		add	r3, r1, r3
 181              	.LVL27:
 182 0038 5B00     		lsl	r3, r3, #1
 183 003a 9B18     		add	r3, r3, r2
 184              	.LVL28:
 280:main.c        ****     {
 185              		.loc 1 280 0
 186 003c 0130     		add	r0, r0, #1
 187              	.LVL29:
 288:main.c        ****     }
 188              		.loc 1 288 0
 189 003e F5E7     		b	.L14
 190              	.L13:
 289:main.c        **** 
 290:main.c        ****     if (sign) 
 191              		.loc 1 290 0
 192 0040 002C     		cmp	r4, #0
 193 0042 01D0     		beq	.L15
 291:main.c        ****     {
 292:main.c        **** 	    return -result;
 194              		.loc 1 292 0
 195 0044 5842     		neg	r0, r3
 196              	.LVL30:
 197 0046 00E0     		b	.L16
 198              	.LVL31:
 199              	.L15:
 293:main.c        ****     }
 294:main.c        ****     
 295:main.c        ****     return result;
 200              		.loc 1 295 0
 201 0048 181C     		mov	r0, r3
 202              	.LVL32:
 203              	.L16:
 296:main.c        **** }// atoi
 204              		.loc 1 296 0
 205              		@ sp needed
 206              	.LVL33:
 207 004a 10BD     		pop	{r4, pc}
 208              	.L19:
 209              		.align	2
 210              	.L18:
 211 004c 00000000 		.word	__ctype_ptr__
 212              		.cfi_endproc
 213              	.LFE36:
ARM GAS  C:\Users\BG1026~1\AppData\Local\Temp\cc2n2B4u.s 			page 10


 214              		.size	atoi, .-atoi
 215              		.section	.text.get_cmd_id_from_cmd_string,"ax",%progbits
 216              		.align	2
 217              		.global	get_cmd_id_from_cmd_string
 218              		.code	16
 219              		.thumb_func
 220              		.type	get_cmd_id_from_cmd_string, %function
 221              	get_cmd_id_from_cmd_string:
 222              	.LFB38:
 297:main.c        **** 
 298:main.c        **** int main()
 299:main.c        **** {
 300:main.c        ****     BOOL  cap_sense_is_untouched  = TRUE;
 301:main.c        ****     BOOL  cap_sense_was_untouched = TRUE;    
 302:main.c        ****     char  uart_char_in            = 0;
 303:main.c        ****     int   receive_pos             = 0;
 304:main.c        ****     char* command                 = NULL;
 305:main.c        ****     char  receive_string[512];
 306:main.c        **** 
 307:main.c        ****     SPIM_Start ( );
 308:main.c        ****     Blank_Write(0);
 309:main.c        ****     Latch_Write(0);
 310:main.c        ****     CyDelayUs  (1);
 311:main.c        **** 
 312:main.c        ****     CyGlobalIntEnable; // enable global interrupts before starting capsense and I2C blocks
 313:main.c        **** 
 314:main.c        ****     clear_all_leds();
 315:main.c        **** 
 316:main.c        **** #if USE_UART
 317:main.c        ****     UART_1_Start();
 318:main.c        **** #else
 319:main.c        ****     EZI2C_Start();
 320:main.c        ****     EZI2C_EzI2CSetBuffer1(sizeof(CapSense_dsRam), sizeof(CapSense_dsRam), (uint8 *)&CapSense_dsRam)
 321:main.c        **** #endif // USE_UART
 322:main.c        **** 
 323:main.c        ****     CapSense_Start         ();
 324:main.c        ****     CapSense_ScanAllWidgets();
 325:main.c        **** 
 326:main.c        ****     memset(receive_string, '\0', sizeof(receive_string));
 327:main.c        **** 
 328:main.c        ****     for(;;)
 329:main.c        ****     {
 330:main.c        ****         // process data for previous scan and initiate new scan only when the capsense hardware is 
 331:main.c        ****         if(CapSense_NOT_BUSY == CapSense_IsBusy())
 332:main.c        ****         {
 333:main.c        ****             CapSense_ProcessAllWidgets();// Process data for all widgets
 334:main.c        **** 
 335:main.c        ****             cap_cur_pos            = CapSense_GetCentroidPos(0);
 336:main.c        ****             cap_sense_is_untouched = ((cap_cur_pos == INVALID_CAP_POS) && (cap_old_pos == INVALID_C
 337:main.c        **** 
 338:main.c        ****             if (cap_sense_is_untouched)
 339:main.c        ****             {
 340:main.c        ****                 if (! cap_sense_was_untouched)
 341:main.c        ****                 {
 342:main.c        ****                     if (auto_anim)
 343:main.c        ****                     {
 344:main.c        ****                         send_button_telemetry(led_pos, "up");
ARM GAS  C:\Users\BG1026~1\AppData\Local\Temp\cc2n2B4u.s 			page 11


 345:main.c        ****                         current_callback_anim++;
 346:main.c        ****                         current_callback_anim %= ANIM_UNKNOWN;
 347:main.c        ****                         clear_all_leds();
 348:main.c        ****                         send_animation_telemetry(current_callback_anim, "starting");
 349:main.c        ****                     }
 350:main.c        ****                 }
 351:main.c        ****                 if (! stop_anim)
 352:main.c        ****                 {
 353:main.c        ****                     vec_call_back_anim[current_callback_anim].callback();
 354:main.c        ****                 }
 355:main.c        ****             }// if capsense is untouched
 356:main.c        ****             else
 357:main.c        ****             {
 358:main.c        ****                 if (cap_sense_was_untouched)
 359:main.c        ****                 {
 360:main.c        ****                     clear_all_leds();
 361:main.c        ****                     send_button_telemetry(led_pos, "up");
 362:main.c        ****                     if (! stop_anim)
 363:main.c        ****                     {
 364:main.c        ****                         send_animation_telemetry(current_callback_anim, "stopping");
 365:main.c        ****                     }
 366:main.c        ****                 }
 367:main.c        **** 
 368:main.c        ****                 display_state ();
 369:main.c        ****             }// else, capsense is touched
 370:main.c        ****             cap_sense_was_untouched = cap_sense_is_untouched;
 371:main.c        **** 
 372:main.c        **** #if USE_UART
 373:main.c        ****             // get, parse and execute the commands
 374:main.c        ****             uart_char_in = UART_1_UartGetChar();
 375:main.c        ****             if((uart_char_in >= 0x20) && (uart_char_in <= 0x7F))
 376:main.c        ****             {
 377:main.c        ****                 receive_string[receive_pos++] = uart_char_in;
 378:main.c        ****                 if ((uart_char_in == END_OF_CMD) || (receive_pos == sizeof(receive_string)))
 379:main.c        ****                 {
 380:main.c        ****                     if ((receive_string[0] != START_OF_CMD) || (receive_string[strlen(receive_strin
 381:main.c        ****                     {
 382:main.c        ****                         send_alarm_telemetry(ALARM_WARNING, receive_string, "invalid start-end char
 383:main.c        ****                     }// if the command is not well formed
 384:main.c        ****                     else
 385:main.c        ****                     {
 386:main.c        ****                         receive_string[strlen(receive_string) - 1] = '\0';
 387:main.c        ****                         if (parse_and_execute_command(&(receive_string[1])) == FALSE)
 388:main.c        ****                         {
 389:main.c        ****                             send_alarm_telemetry(ALARM_WARNING, command, "failed to execute the com
 390:main.c        ****                         }// If we failed to execute the command
 391:main.c        ****                         else
 392:main.c        ****                         {
 393:main.c        ****                             send_alarm_telemetry(ALARM_LOG, command, "executed");
 394:main.c        ****                         }
 395:main.c        ****                     }// else, the command seems well formed
 396:main.c        ****                     
 397:main.c        ****                     memset (receive_string, '\0', sizeof(receive_string));
 398:main.c        ****                     receive_pos = 0;
 399:main.c        ****                 }// If we detect the end of the command
 400:main.c        ****             }// If we got a character
 401:main.c        **** #else
ARM GAS  C:\Users\BG1026~1\AppData\Local\Temp\cc2n2B4u.s 			page 12


 402:main.c        ****             // FIXME: use I2C
 403:main.c        **** #endif // USE_UART
 404:main.c        **** 
 405:main.c        **** #if USE_TUNER
 406:main.c        ****             CapSense_RunTuner(); // sync capsense parameters via tuner before the beginning of new 
 407:main.c        **** #endif // USE_TUNER
 408:main.c        **** 
 409:main.c        ****             CapSense_ScanAllWidgets();
 410:main.c        ****         }// cap sense not busy
 411:main.c        ****     }// for ever
 412:main.c        **** }// main
 413:main.c        **** 
 414:main.c        **** t_enum_command get_cmd_id_from_cmd_string(const char* cmd_str)
 415:main.c        **** {
 223              		.loc 1 415 0
 224              		.cfi_startproc
 225              	.LVL34:
 226 0000 38B5     		push	{r3, r4, r5, lr}
 227              		.cfi_def_cfa_offset 16
 228              		.cfi_offset 3, -16
 229              		.cfi_offset 4, -12
 230              		.cfi_offset 5, -8
 231              		.cfi_offset 14, -4
 232 0002 041C     		mov	r4, r0
 233              	.LVL35:
 416:main.c        ****     int i;
 417:main.c        ****     
 418:main.c        ****     for (i = 0; i < CMD_UNKNOWN; i++)
 234              		.loc 1 418 0
 235 0004 0025     		mov	r5, #0
 236 0006 11E0     		b	.L21
 237              	.LVL36:
 238              	.L24:
 419:main.c        ****     {
 420:main.c        ****         if (strstr(cmd_str, vec_commands[i].name))
 239              		.loc 1 420 0
 240 0008 6B00     		lsl	r3, r5, #1
 241 000a 5B19     		add	r3, r3, r5
 242 000c 9B00     		lsl	r3, r3, #2
 243 000e 094A     		ldr	r2, .L25
 244 0010 D318     		add	r3, r2, r3
 245 0012 5968     		ldr	r1, [r3, #4]
 246 0014 201C     		mov	r0, r4
 247 0016 FFF7FEFF 		bl	strstr
 248              	.LVL37:
 249 001a 0028     		cmp	r0, #0
 250 001c 05D0     		beq	.L22
 421:main.c        ****         {
 422:main.c        ****             return vec_commands[i].id;
 251              		.loc 1 422 0
 252 001e 6B00     		lsl	r3, r5, #1
 253 0020 5D19     		add	r5, r3, r5
 254              	.LVL38:
 255 0022 AD00     		lsl	r5, r5, #2
 256 0024 034B     		ldr	r3, .L25
 257 0026 585D     		ldrb	r0, [r3, r5]
 258 0028 03E0     		b	.L23
ARM GAS  C:\Users\BG1026~1\AppData\Local\Temp\cc2n2B4u.s 			page 13


 259              	.LVL39:
 260              	.L22:
 418:main.c        ****     {
 261              		.loc 1 418 0 discriminator 2
 262 002a 0135     		add	r5, r5, #1
 263              	.LVL40:
 264              	.L21:
 418:main.c        ****     {
 265              		.loc 1 418 0 is_stmt 0 discriminator 1
 266 002c 052D     		cmp	r5, #5
 267 002e EBDD     		ble	.L24
 423:main.c        ****         }
 424:main.c        ****     }// for all the commands
 425:main.c        ****     
 426:main.c        ****     return CMD_UNKNOWN;
 268              		.loc 1 426 0 is_stmt 1
 269 0030 0620     		mov	r0, #6
 270              	.LVL41:
 271              	.L23:
 427:main.c        **** }// get_cmd_id_from_cmd_string
 272              		.loc 1 427 0
 273              		@ sp needed
 274              	.LVL42:
 275 0032 38BD     		pop	{r3, r4, r5, pc}
 276              	.L26:
 277              		.align	2
 278              	.L25:
 279 0034 8C000000 		.word	.LANCHOR1
 280              		.cfi_endproc
 281              	.LFE38:
 282              		.size	get_cmd_id_from_cmd_string, .-get_cmd_id_from_cmd_string
 283              		.section	.text.get_tracker_cmd_id_from_cmd_string,"ax",%progbits
 284              		.align	2
 285              		.global	get_tracker_cmd_id_from_cmd_string
 286              		.code	16
 287              		.thumb_func
 288              		.type	get_tracker_cmd_id_from_cmd_string, %function
 289              	get_tracker_cmd_id_from_cmd_string:
 290              	.LFB39:
 428:main.c        **** 
 429:main.c        **** t_enum_tracker_command get_tracker_cmd_id_from_cmd_string(const char* cmd_str)
 430:main.c        **** {
 291              		.loc 1 430 0
 292              		.cfi_startproc
 293              	.LVL43:
 294 0000 38B5     		push	{r3, r4, r5, lr}
 295              		.cfi_def_cfa_offset 16
 296              		.cfi_offset 3, -16
 297              		.cfi_offset 4, -12
 298              		.cfi_offset 5, -8
 299              		.cfi_offset 14, -4
 300 0002 041C     		mov	r4, r0
 301              	.LVL44:
 431:main.c        ****     int i;
 432:main.c        ****     
 433:main.c        ****     for (i = 0; i < CMD_TRACKER_UNKNOWN; i++)
 302              		.loc 1 433 0
ARM GAS  C:\Users\BG1026~1\AppData\Local\Temp\cc2n2B4u.s 			page 14


 303 0004 0025     		mov	r5, #0
 304 0006 13E0     		b	.L28
 305              	.LVL45:
 306              	.L31:
 434:main.c        ****     {
 435:main.c        ****         if (strstr(cmd_str, vec_tracker_commands[i].name))
 307              		.loc 1 435 0
 308 0008 6B00     		lsl	r3, r5, #1
 309 000a 5B19     		add	r3, r3, r5
 310 000c 9B00     		lsl	r3, r3, #2
 311 000e 0A4A     		ldr	r2, .L32
 312 0010 D318     		add	r3, r2, r3
 313 0012 D96C     		ldr	r1, [r3, #76]
 314 0014 201C     		mov	r0, r4
 315 0016 FFF7FEFF 		bl	strstr
 316              	.LVL46:
 317 001a 0028     		cmp	r0, #0
 318 001c 07D0     		beq	.L29
 436:main.c        ****         {
 437:main.c        ****             return vec_tracker_commands[i].id;
 319              		.loc 1 437 0
 320 001e 6B00     		lsl	r3, r5, #1
 321 0020 5D19     		add	r5, r3, r5
 322              	.LVL47:
 323 0022 AD00     		lsl	r5, r5, #2
 324 0024 044B     		ldr	r3, .L32
 325 0026 5D19     		add	r5, r3, r5
 326 0028 4823     		mov	r3, #72
 327 002a E85C     		ldrb	r0, [r5, r3]
 328 002c 03E0     		b	.L30
 329              	.LVL48:
 330              	.L29:
 433:main.c        ****     {
 331              		.loc 1 433 0 discriminator 2
 332 002e 0135     		add	r5, r5, #1
 333              	.LVL49:
 334              	.L28:
 433:main.c        ****     {
 335              		.loc 1 433 0 is_stmt 0 discriminator 1
 336 0030 022D     		cmp	r5, #2
 337 0032 E9DD     		ble	.L31
 438:main.c        ****         }
 439:main.c        ****     }// for all the commands
 440:main.c        ****     
 441:main.c        ****     return CMD_TRACKER_UNKNOWN;
 338              		.loc 1 441 0 is_stmt 1
 339 0034 0320     		mov	r0, #3
 340              	.LVL50:
 341              	.L30:
 442:main.c        **** }// get_anim_cmd_id_from_cmd_string
 342              		.loc 1 442 0
 343              		@ sp needed
 344              	.LVL51:
 345 0036 38BD     		pop	{r3, r4, r5, pc}
 346              	.L33:
 347              		.align	2
 348              	.L32:
ARM GAS  C:\Users\BG1026~1\AppData\Local\Temp\cc2n2B4u.s 			page 15


 349 0038 8C000000 		.word	.LANCHOR1
 350              		.cfi_endproc
 351              	.LFE39:
 352              		.size	get_tracker_cmd_id_from_cmd_string, .-get_tracker_cmd_id_from_cmd_string
 353              		.section	.text.get_anim_cmd_id_from_cmd_string,"ax",%progbits
 354              		.align	2
 355              		.global	get_anim_cmd_id_from_cmd_string
 356              		.code	16
 357              		.thumb_func
 358              		.type	get_anim_cmd_id_from_cmd_string, %function
 359              	get_anim_cmd_id_from_cmd_string:
 360              	.LFB40:
 443:main.c        **** 
 444:main.c        **** t_enum_anim_command get_anim_cmd_id_from_cmd_string(const char* cmd_str)
 445:main.c        **** {
 361              		.loc 1 445 0
 362              		.cfi_startproc
 363              	.LVL52:
 364 0000 38B5     		push	{r3, r4, r5, lr}
 365              		.cfi_def_cfa_offset 16
 366              		.cfi_offset 3, -16
 367              		.cfi_offset 4, -12
 368              		.cfi_offset 5, -8
 369              		.cfi_offset 14, -4
 370 0002 041C     		mov	r4, r0
 371              	.LVL53:
 446:main.c        ****     int i;
 447:main.c        ****     
 448:main.c        ****     for (i = 0; i < CMD_ANIM_UNKNOWN; i++)
 372              		.loc 1 448 0
 373 0004 0025     		mov	r5, #0
 374 0006 13E0     		b	.L35
 375              	.LVL54:
 376              	.L38:
 449:main.c        ****     {
 450:main.c        ****         if (strstr(cmd_str, vec_anim_commands[i].name))
 377              		.loc 1 450 0
 378 0008 6B00     		lsl	r3, r5, #1
 379 000a 5B19     		add	r3, r3, r5
 380 000c 9B00     		lsl	r3, r3, #2
 381 000e 0A4A     		ldr	r2, .L39
 382 0010 D318     		add	r3, r2, r3
 383 0012 196F     		ldr	r1, [r3, #112]
 384 0014 201C     		mov	r0, r4
 385 0016 FFF7FEFF 		bl	strstr
 386              	.LVL55:
 387 001a 0028     		cmp	r0, #0
 388 001c 07D0     		beq	.L36
 451:main.c        ****         {
 452:main.c        ****             return vec_anim_commands[i].id;
 389              		.loc 1 452 0
 390 001e 6B00     		lsl	r3, r5, #1
 391 0020 5D19     		add	r5, r3, r5
 392              	.LVL56:
 393 0022 AD00     		lsl	r5, r5, #2
 394 0024 044B     		ldr	r3, .L39
 395 0026 5D19     		add	r5, r3, r5
ARM GAS  C:\Users\BG1026~1\AppData\Local\Temp\cc2n2B4u.s 			page 16


 396 0028 6C23     		mov	r3, #108
 397 002a E85C     		ldrb	r0, [r5, r3]
 398 002c 03E0     		b	.L37
 399              	.LVL57:
 400              	.L36:
 448:main.c        ****     {
 401              		.loc 1 448 0 discriminator 2
 402 002e 0135     		add	r5, r5, #1
 403              	.LVL58:
 404              	.L35:
 448:main.c        ****     {
 405              		.loc 1 448 0 is_stmt 0 discriminator 1
 406 0030 032D     		cmp	r5, #3
 407 0032 E9DD     		ble	.L38
 453:main.c        ****         }
 454:main.c        ****     }// for all the commands
 455:main.c        ****     
 456:main.c        ****     return CMD_ANIM_UNKNOWN;
 408              		.loc 1 456 0 is_stmt 1
 409 0034 0420     		mov	r0, #4
 410              	.LVL59:
 411              	.L37:
 457:main.c        **** }// get_anim_cmd_id_from_cmd_string
 412              		.loc 1 457 0
 413              		@ sp needed
 414              	.LVL60:
 415 0036 38BD     		pop	{r3, r4, r5, pc}
 416              	.L40:
 417              		.align	2
 418              	.L39:
 419 0038 8C000000 		.word	.LANCHOR1
 420              		.cfi_endproc
 421              	.LFE40:
 422              		.size	get_anim_cmd_id_from_cmd_string, .-get_anim_cmd_id_from_cmd_string
 423              		.section	.text.get_anim_id_from_cmd_string,"ax",%progbits
 424              		.align	2
 425              		.global	get_anim_id_from_cmd_string
 426              		.code	16
 427              		.thumb_func
 428              		.type	get_anim_id_from_cmd_string, %function
 429              	get_anim_id_from_cmd_string:
 430              	.LFB41:
 458:main.c        **** 
 459:main.c        **** t_enum_animation get_anim_id_from_cmd_string(const char* cmd_str)
 460:main.c        **** {
 431              		.loc 1 460 0
 432              		.cfi_startproc
 433              	.LVL61:
 434 0000 38B5     		push	{r3, r4, r5, lr}
 435              		.cfi_def_cfa_offset 16
 436              		.cfi_offset 3, -16
 437              		.cfi_offset 4, -12
 438              		.cfi_offset 5, -8
 439              		.cfi_offset 14, -4
 440 0002 041C     		mov	r4, r0
 441              	.LVL62:
 461:main.c        ****     int i;
ARM GAS  C:\Users\BG1026~1\AppData\Local\Temp\cc2n2B4u.s 			page 17


 462:main.c        ****     
 463:main.c        ****     for (i = 0; i < ANIM_UNKNOWN; i++)
 442              		.loc 1 463 0
 443 0004 0025     		mov	r5, #0
 444 0006 12E0     		b	.L42
 445              	.LVL63:
 446              	.L45:
 464:main.c        ****     {
 465:main.c        ****         if (strstr(cmd_str, vec_call_back_anim[i].description))
 447              		.loc 1 465 0
 448 0008 6B00     		lsl	r3, r5, #1
 449 000a 5B19     		add	r3, r3, r5
 450 000c 9B00     		lsl	r3, r3, #2
 451 000e 0A4A     		ldr	r2, .L46
 452 0010 D318     		add	r3, r2, r3
 453 0012 596A     		ldr	r1, [r3, #36]
 454 0014 201C     		mov	r0, r4
 455 0016 FFF7FEFF 		bl	strstr
 456              	.LVL64:
 457 001a 0028     		cmp	r0, #0
 458 001c 06D0     		beq	.L43
 466:main.c        ****         {
 467:main.c        ****             return vec_call_back_anim[i].id;
 459              		.loc 1 467 0
 460 001e 6B00     		lsl	r3, r5, #1
 461 0020 5D19     		add	r5, r3, r5
 462              	.LVL65:
 463 0022 AD00     		lsl	r5, r5, #2
 464 0024 044B     		ldr	r3, .L46
 465 0026 5D19     		add	r5, r3, r5
 466 0028 287F     		ldrb	r0, [r5, #28]
 467 002a 03E0     		b	.L44
 468              	.LVL66:
 469              	.L43:
 463:main.c        ****     {
 470              		.loc 1 463 0 discriminator 2
 471 002c 0135     		add	r5, r5, #1
 472              	.LVL67:
 473              	.L42:
 463:main.c        ****     {
 474              		.loc 1 463 0 is_stmt 0 discriminator 1
 475 002e 082D     		cmp	r5, #8
 476 0030 EADD     		ble	.L45
 468:main.c        ****         }
 469:main.c        ****     }// for all the commands
 470:main.c        ****     
 471:main.c        ****     return ANIM_UNKNOWN;
 477              		.loc 1 471 0 is_stmt 1
 478 0032 0920     		mov	r0, #9
 479              	.LVL68:
 480              	.L44:
 472:main.c        **** }// get_anim_cmd_id_from_cmd_string
 481              		.loc 1 472 0
 482              		@ sp needed
 483              	.LVL69:
 484 0034 38BD     		pop	{r3, r4, r5, pc}
 485              	.L47:
ARM GAS  C:\Users\BG1026~1\AppData\Local\Temp\cc2n2B4u.s 			page 18


 486 0036 C046     		.align	2
 487              	.L46:
 488 0038 0C010000 		.word	.LANCHOR2
 489              		.cfi_endproc
 490              	.LFE41:
 491              		.size	get_anim_id_from_cmd_string, .-get_anim_id_from_cmd_string
 492              		.section	.text.get_led_cmd_id_from_cmd_string,"ax",%progbits
 493              		.align	2
 494              		.global	get_led_cmd_id_from_cmd_string
 495              		.code	16
 496              		.thumb_func
 497              		.type	get_led_cmd_id_from_cmd_string, %function
 498              	get_led_cmd_id_from_cmd_string:
 499              	.LFB42:
 473:main.c        **** 
 474:main.c        **** t_enum_led_command get_led_cmd_id_from_cmd_string(const char* cmd_str)
 475:main.c        **** {
 500              		.loc 1 475 0
 501              		.cfi_startproc
 502              	.LVL70:
 503 0000 38B5     		push	{r3, r4, r5, lr}
 504              		.cfi_def_cfa_offset 16
 505              		.cfi_offset 3, -16
 506              		.cfi_offset 4, -12
 507              		.cfi_offset 5, -8
 508              		.cfi_offset 14, -4
 509 0002 041C     		mov	r4, r0
 510              	.LVL71:
 476:main.c        ****     int i;
 477:main.c        ****     
 478:main.c        ****     for (i = 0; i < CMD_LED_UNKNOWN; i++)
 511              		.loc 1 478 0
 512 0004 0025     		mov	r5, #0
 513 0006 12E0     		b	.L49
 514              	.LVL72:
 515              	.L52:
 479:main.c        ****     {
 480:main.c        ****         if (strstr(cmd_str, vec_led_commands[i].name))
 516              		.loc 1 480 0
 517 0008 6B00     		lsl	r3, r5, #1
 518 000a 5B19     		add	r3, r3, r5
 519 000c 9B00     		lsl	r3, r3, #2
 520 000e 0A4A     		ldr	r2, .L53
 521 0010 D318     		add	r3, r2, r3
 522 0012 D968     		ldr	r1, [r3, #12]
 523 0014 201C     		mov	r0, r4
 524 0016 FFF7FEFF 		bl	strstr
 525              	.LVL73:
 526 001a 0028     		cmp	r0, #0
 527 001c 06D0     		beq	.L50
 481:main.c        ****         {
 482:main.c        ****             return vec_led_commands[i].id;
 528              		.loc 1 482 0
 529 001e 6B00     		lsl	r3, r5, #1
 530 0020 5D19     		add	r5, r3, r5
 531              	.LVL74:
 532 0022 AD00     		lsl	r5, r5, #2
ARM GAS  C:\Users\BG1026~1\AppData\Local\Temp\cc2n2B4u.s 			page 19


 533 0024 044B     		ldr	r3, .L53
 534 0026 5D19     		add	r5, r3, r5
 535 0028 287A     		ldrb	r0, [r5, #8]
 536 002a 03E0     		b	.L51
 537              	.LVL75:
 538              	.L50:
 478:main.c        ****     {
 539              		.loc 1 478 0 discriminator 2
 540 002c 0135     		add	r5, r5, #1
 541              	.LVL76:
 542              	.L49:
 478:main.c        ****     {
 543              		.loc 1 478 0 is_stmt 0 discriminator 1
 544 002e 042D     		cmp	r5, #4
 545 0030 EADD     		ble	.L52
 483:main.c        ****         }
 484:main.c        ****     }// for all the commands
 485:main.c        ****     
 486:main.c        ****     return CMD_LED_UNKNOWN;
 546              		.loc 1 486 0 is_stmt 1
 547 0032 0520     		mov	r0, #5
 548              	.LVL77:
 549              	.L51:
 487:main.c        **** }// get_led_cmd_id_from_cmd_string
 550              		.loc 1 487 0
 551              		@ sp needed
 552              	.LVL78:
 553 0034 38BD     		pop	{r3, r4, r5, pc}
 554              	.L54:
 555 0036 C046     		.align	2
 556              	.L53:
 557 0038 8C010000 		.word	.LANCHOR3
 558              		.cfi_endproc
 559              	.LFE42:
 560              		.size	get_led_cmd_id_from_cmd_string, .-get_led_cmd_id_from_cmd_string
 561              		.section	.text.send_telemetry,"ax",%progbits
 562              		.align	2
 563              		.global	send_telemetry
 564              		.code	16
 565              		.thumb_func
 566              		.type	send_telemetry, %function
 567              	send_telemetry:
 568              	.LFB47:
 488:main.c        **** 
 489:main.c        **** BOOL parse_and_execute_command(char* cmd_str_and_param)
 490:main.c        **** {
 491:main.c        ****     t_enum_command          cmd_id         = CMD_UNKNOWN;
 492:main.c        ****     t_enum_anim_command     anim_cmd_id    = CMD_ANIM_UNKNOWN;
 493:main.c        ****     t_enum_animation        anim_id        = ANIM_UNKNOWN;
 494:main.c        ****     t_enum_led_command      led_cmd_id     = CMD_LED_UNKNOWN;
 495:main.c        ****     t_enum_tracker_command  tracker_cmd_id = CMD_TRACKER_UNKNOWN;
 496:main.c        ****     char*                   param_str      = strchr(cmd_str_and_param, ',');
 497:main.c        ****     char*                   next_param_str = NULL; 
 498:main.c        ****     int                     red            = 0;
 499:main.c        ****     int                     green          = 0;
 500:main.c        ****     int                     blue           = 0;
 501:main.c        ****     int                     led_index      = 0;
ARM GAS  C:\Users\BG1026~1\AppData\Local\Temp\cc2n2B4u.s 			page 20


 502:main.c        ****     int                     led_intensity  = 0;
 503:main.c        ****     uint16                  led_vec[MAX_LEDS]; 
 504:main.c        ****     int                     i;
 505:main.c        ****     
 506:main.c        ****     if (param_str == NULL)
 507:main.c        ****     {
 508:main.c        ****         send_alarm_telemetry(ALARM_WARNING, cmd_str_and_param, "can't find comma in command");
 509:main.c        ****         return FALSE;    
 510:main.c        ****     }// If we can't a comma inside the command
 511:main.c        ****    
 512:main.c        ****     cmd_id = get_cmd_id_from_cmd_string(param_str++);
 513:main.c        ****     
 514:main.c        ****     switch (cmd_id)
 515:main.c        ****     {
 516:main.c        ****         case CMD_CAPSENSE:
 517:main.c        ****         {
 518:main.c        ****             send_alarm_telemetry(ALARM_WARNING, cmd_str_and_param, "FIXME!");
 519:main.c        ****             return FALSE;    
 520:main.c        ****         }// CMD_CAPSENSE
 521:main.c        ****         
 522:main.c        ****         case CMD_HELP:
 523:main.c        ****         {
 524:main.c        ****             for (i = 0; i < CMD_UNKNOWN; i++)
 525:main.c        ****             {
 526:main.c        ****                 send_alarm_telemetry(ALARM_LOG, vec_commands[i].name, vec_commands[i].description);
 527:main.c        ****             }// for all the commands
 528:main.c        ****             
 529:main.c        ****             for (i = 0; i < ANIM_UNKNOWN; i++)
 530:main.c        ****             {
 531:main.c        ****                 send_alarm_telemetry(ALARM_LOG, "animation", vec_call_back_anim[i].description);
 532:main.c        ****             }// for all the commands
 533:main.c        ****             
 534:main.c        ****             break;      
 535:main.c        ****         }// CMD_HELP
 536:main.c        ****         
 537:main.c        ****         case CMD_ANIMATION:
 538:main.c        ****         {
 539:main.c        ****             if ((param_str = strchr(param_str, ',')) == NULL)
 540:main.c        ****             {
 541:main.c        ****                 send_alarm_telemetry(ALARM_WARNING, cmd_str_and_param, "unsupported animation actio
 542:main.c        ****                 return FALSE;
 543:main.c        ****             }// If we can't find the next ',' character
 544:main.c        ****             
 545:main.c        ****             if ((param_str = strchr(++param_str, ':')) == NULL)
 546:main.c        ****             {
 547:main.c        ****                 send_alarm_telemetry(ALARM_WARNING, cmd_str_and_param, "unsupported animation actio
 548:main.c        ****                 return FALSE;
 549:main.c        ****             }// If we can't find the next ':' character
 550:main.c        ****             param_str++;
 551:main.c        ****             
 552:main.c        ****             switch (anim_cmd_id = get_anim_cmd_id_from_cmd_string(param_str))
 553:main.c        ****             {
 554:main.c        ****                 case CMD_ANIM_AUTO:
 555:main.c        ****                 {
 556:main.c        ****                     auto_anim = TRUE;
 557:main.c        ****                     break;
 558:main.c        ****                 }// CMD_ANIM_AUTO
ARM GAS  C:\Users\BG1026~1\AppData\Local\Temp\cc2n2B4u.s 			page 21


 559:main.c        ****                 
 560:main.c        ****                 case CMD_ANIM_MANUAL:
 561:main.c        ****                 {
 562:main.c        ****                      auto_anim = FALSE;
 563:main.c        ****                     break;
 564:main.c        ****                 }// CMD_ANIM_MANUAL
 565:main.c        ****                 
 566:main.c        ****                 case CMD_ANIM_STOP:
 567:main.c        ****                 {
 568:main.c        ****                     stop_anim = TRUE;
 569:main.c        ****                     break;
 570:main.c        ****                 }// CMD_ANIM_STOP
 571:main.c        ****                 
 572:main.c        ****                 case CMD_ANIM_RESUME:
 573:main.c        ****                 {
 574:main.c        ****                     stop_anim = FALSE;
 575:main.c        ****                     break;
 576:main.c        ****                 }// CMD_ANIM_RESUME
 577:main.c        ****                 
 578:main.c        ****                 case CMD_ANIM_UNKNOWN:
 579:main.c        ****                 default              :
 580:main.c        ****                 {
 581:main.c        ****                     if ((anim_id = get_anim_id_from_cmd_string(param_str)) != ANIM_UNKNOWN)
 582:main.c        ****                     {
 583:main.c        ****                         current_callback_anim = anim_id;
 584:main.c        ****                     }// if we found a valid animation description in the command
 585:main.c        ****                     else
 586:main.c        ****                     {
 587:main.c        ****                         send_alarm_telemetry(ALARM_WARNING, cmd_str_and_param, "unsupported animati
 588:main.c        ****                         return FALSE;
 589:main.c        ****                     }// else, we couldn't find a valid animation 
 590:main.c        ****                     break;
 591:main.c        ****                 }// CMD_ANIM_UNKOWN, default
 592:main.c        ****             }// switch on the animation command
 593:main.c        ****             break;  
 594:main.c        ****         }// CMD_SET_ANIMATION
 595:main.c        ****               
 596:main.c        ****         case CMD_LED:
 597:main.c        ****         {
 598:main.c        ****             switch (led_cmd_id = get_led_cmd_id_from_cmd_string(param_str))
 599:main.c        ****             {
 600:main.c        ****                 case CMD_LED_CLEAR:
 601:main.c        ****                 {
 602:main.c        ****                     clear_all_leds();
 603:main.c        ****                     break;
 604:main.c        ****                 }// CMD_LED_CLEAR
 605:main.c        ****                 
 606:main.c        ****                 case CMD_LED_SET_COLOR_LEFT:
 607:main.c        ****                 case CMD_LED_SET_COLOR_RIGHT:
 608:main.c        ****                 {
 609:main.c        ****                     if ((param_str = strchr(param_str, ',')) == NULL)
 610:main.c        ****                     {
 611:main.c        ****                         send_alarm_telemetry(ALARM_WARNING, cmd_str_and_param, "unsupported animati
 612:main.c        ****                         return FALSE;
 613:main.c        ****                     }// If we can't find the next ',' character
 614:main.c        ****                     
 615:main.c        ****                     if ((param_str = strchr(++param_str, ':')) == NULL)
ARM GAS  C:\Users\BG1026~1\AppData\Local\Temp\cc2n2B4u.s 			page 22


 616:main.c        ****                     {
 617:main.c        ****                         send_alarm_telemetry(ALARM_WARNING, cmd_str_and_param, "can't parse red fro
 618:main.c        ****                         return FALSE;
 619:main.c        ****                     }// If we can't find the next ':' character
 620:main.c        **** 
 621:main.c        ****                     // ========================================================
 622:main.c        ****                     // parse red
 623:main.c        ****                     // ========================================================
 624:main.c        ****                     if ((param_str = strchr(++param_str, ':')) == NULL)
 625:main.c        ****                     {
 626:main.c        ****                         send_alarm_telemetry(ALARM_WARNING, cmd_str_and_param, "can't parse red fro
 627:main.c        ****                         return FALSE;
 628:main.c        ****                     }// If we can't find the next ':' character
 629:main.c        **** 
 630:main.c        ****                     if ((next_param_str = strchr(++param_str, ',')) == NULL)
 631:main.c        ****                     {
 632:main.c        ****                         send_alarm_telemetry(ALARM_WARNING, cmd_str_and_param, "can't parse red fro
 633:main.c        ****                         return FALSE;
 634:main.c        ****                     }// If we can't find the next ',' character
 635:main.c        ****                     *next_param_str = '\0';
 636:main.c        ****                     next_param_str++;
 637:main.c        ****                     
 638:main.c        ****                     red = atoi(param_str);
 639:main.c        ****                     
 640:main.c        ****                     // ========================================================
 641:main.c        ****                     // parse green
 642:main.c        ****                     // ========================================================
 643:main.c        ****                     if ((param_str = strchr(next_param_str, ':')) == NULL)
 644:main.c        ****                     {
 645:main.c        ****                         send_alarm_telemetry(ALARM_WARNING, cmd_str_and_param, "can't parse green f
 646:main.c        ****                         return FALSE;
 647:main.c        ****                     }// If we can't find the next ':' character
 648:main.c        **** 
 649:main.c        ****                     if ((next_param_str = strchr(++param_str, ',')) == NULL)
 650:main.c        ****                     {
 651:main.c        ****                         send_alarm_telemetry(ALARM_WARNING, cmd_str_and_param, "can't parsed green 
 652:main.c        ****                         return FALSE;
 653:main.c        ****                     }// If we can't find the next ',' character
 654:main.c        ****                     *next_param_str = '\0';
 655:main.c        ****                     next_param_str++;
 656:main.c        ****                     
 657:main.c        ****                     green = atoi(param_str);
 658:main.c        ****                     
 659:main.c        ****                     // ========================================================
 660:main.c        ****                     // parse blue
 661:main.c        ****                     // ========================================================
 662:main.c        ****                     if ((param_str = strchr(next_param_str, ':')) == NULL)
 663:main.c        ****                     {
 664:main.c        ****                         send_alarm_telemetry(ALARM_WARNING, cmd_str_and_param, "can't parse green f
 665:main.c        ****                         return FALSE;
 666:main.c        ****                     }// If we can't find the next ':' character
 667:main.c        ****                     
 668:main.c        ****                     blue = atoi(++param_str);                    
 669:main.c        ****                     // ========================================================
 670:main.c        ****                     // execute the command
 671:main.c        ****                     // ========================================================
 672:main.c        ****                     if (led_cmd_id == CMD_LED_SET_COLOR_LEFT)
ARM GAS  C:\Users\BG1026~1\AppData\Local\Temp\cc2n2B4u.s 			page 23


 673:main.c        ****                     {
 674:main.c        ****                         set_led(E_LED_LEFT_RED  ,  red  );
 675:main.c        ****                         set_led(E_LED_LEFT_GREEN,  green);
 676:main.c        ****                         set_led(E_LED_LEFT_BLUE ,  blue );
 677:main.c        ****                     }// if it's the left colored LED
 678:main.c        ****                     else
 679:main.c        ****                     {
 680:main.c        ****                         set_led(E_LED_RIGHT_RED  ,  red  );
 681:main.c        ****                         set_led(E_LED_RIGHT_GREEN,  green);
 682:main.c        ****                         set_led(E_LED_RIGHT_BLUE ,  blue );
 683:main.c        ****                     }// if it's the right colored LED
 684:main.c        ****                     
 685:main.c        ****                     break;
 686:main.c        ****                 }// CMD_LED_SET_COLOR_LEFT
 687:main.c        ****                 
 688:main.c        ****                 case CMD_LED_SET_WHITE:
 689:main.c        ****                 {
 690:main.c        ****                     if ((param_str = strchr(param_str, ',')) == NULL)
 691:main.c        ****                     {
 692:main.c        ****                         send_alarm_telemetry(ALARM_WARNING, cmd_str_and_param, "unsupported animati
 693:main.c        ****                         return FALSE;
 694:main.c        ****                     }// If we can't find the next ',' character
 695:main.c        ****                     
 696:main.c        ****                     if ((param_str = strchr(++param_str, ':')) == NULL)
 697:main.c        ****                     {
 698:main.c        ****                         send_alarm_telemetry(ALARM_WARNING, cmd_str_and_param, "can't parse LED ind
 699:main.c        ****                         return FALSE;
 700:main.c        ****                     }// If we can't find the next ':' character
 701:main.c        **** 
 702:main.c        ****                     // ========================================================
 703:main.c        ****                     // parse index
 704:main.c        ****                     // ========================================================
 705:main.c        ****                     if ((param_str = strchr(++param_str, ':')) == NULL)
 706:main.c        ****                     {
 707:main.c        ****                         send_alarm_telemetry(ALARM_WARNING, cmd_str_and_param, "can't parse LED ind
 708:main.c        ****                         return FALSE;
 709:main.c        ****                     }// If we can't find the next ':' character
 710:main.c        **** 
 711:main.c        ****                     if ((next_param_str = strchr(++param_str, ',')) == NULL)
 712:main.c        ****                     {
 713:main.c        ****                         send_alarm_telemetry(ALARM_WARNING, cmd_str_and_param, "can't parse LED ind
 714:main.c        ****                         return FALSE;
 715:main.c        ****                     }// If we can't find the next ',' character
 716:main.c        ****                     *next_param_str = '\0';
 717:main.c        ****                     next_param_str++;
 718:main.c        ****                     
 719:main.c        ****                     led_index = atoi(param_str);
 720:main.c        ****                     
 721:main.c        ****                     if ((led_index < 0) || (led_index >= NUMBER_OF_WHITE_LEDS))
 722:main.c        ****                     {
 723:main.c        ****                         send_alarm_telemetry(ALARM_WARNING, cmd_str_and_param, "invalid led index")
 724:main.c        ****                         return FALSE;
 725:main.c        ****                     }
 726:main.c        ****                     
 727:main.c        ****                     // ========================================================
 728:main.c        ****                     // parse led intensity
 729:main.c        ****                     // ========================================================
ARM GAS  C:\Users\BG1026~1\AppData\Local\Temp\cc2n2B4u.s 			page 24


 730:main.c        ****                     if ((param_str = strchr(next_param_str, ':')) == NULL)
 731:main.c        ****                     {
 732:main.c        ****                         send_alarm_telemetry(ALARM_WARNING, cmd_str_and_param, "can't parse green f
 733:main.c        ****                         return FALSE;
 734:main.c        ****                     }// If we can't find the next ':' character
 735:main.c        ****                     
 736:main.c        ****                     led_intensity = atoi(++param_str);     
 737:main.c        ****                     
 738:main.c        ****                     // ========================================================
 739:main.c        ****                     // execute the command
 740:main.c        ****                     // ========================================================
 741:main.c        ****                     set_led(led_index, led_intensity);
 742:main.c        ****                     break;
 743:main.c        ****                 }// CMD_LED_SET_WHITE
 744:main.c        ****                 
 745:main.c        ****                 case CMD_LED_SET_STRIP:
 746:main.c        ****                 {
 747:main.c        ****                     if ((param_str = strchr(param_str, ',')) == NULL)
 748:main.c        ****                     {
 749:main.c        ****                         send_alarm_telemetry(ALARM_WARNING, cmd_str_and_param, "can't parse LED str
 750:main.c        ****                         return FALSE;
 751:main.c        ****                     }// If we can't find the next ',' character
 752:main.c        ****                     
 753:main.c        ****                     if ((param_str = strchr(++param_str, ',')) == NULL)
 754:main.c        ****                     {
 755:main.c        ****                         send_alarm_telemetry(ALARM_WARNING, cmd_str_and_param, "can't parse LED str
 756:main.c        ****                         return FALSE;
 757:main.c        ****                     }// If we can't find the next ',' character 
 758:main.c        ****                     
 759:main.c        ****                     if ((param_str = strchr(++param_str, ':')) == NULL)
 760:main.c        ****                     {
 761:main.c        ****                         send_alarm_telemetry(ALARM_WARNING, cmd_str_and_param, "can't parse LED str
 762:main.c        ****                         return FALSE;
 763:main.c        ****                     }// If we can't find the next ':' character
 764:main.c        ****                     
 765:main.c        ****                     memset(led_vec, 0, sizeof(led_vec));
 766:main.c        ****                     
 767:main.c        ****                     //=========================================================
 768:main.c        ****                     // left red
 769:main.c        ****                     //=========================================================
 770:main.c        ****                     if ((param_str = strchr(++param_str, '\"')) == NULL)
 771:main.c        ****                     {
 772:main.c        ****                         send_alarm_telemetry(ALARM_WARNING, cmd_str_and_param, "can't parse LED str
 773:main.c        ****                         return FALSE;
 774:main.c        ****                     }// If we can't find the next '"' character
 775:main.c        ****                     param_str++;  
 776:main.c        ****                     led_vec[E_LED_LEFT_RED] = atoi(param_str);
 777:main.c        ****                  
 778:main.c        ****                     //=========================================================
 779:main.c        ****                     // left green
 780:main.c        ****                     //=========================================================
 781:main.c        ****                     if ((param_str = strchr(param_str, '-')) == NULL)
 782:main.c        ****                     {
 783:main.c        ****                         send_alarm_telemetry(ALARM_WARNING, cmd_str_and_param, "can't parse LED str
 784:main.c        ****                         return FALSE;
 785:main.c        ****                     }// If we can't find the next '-' character
 786:main.c        ****                     param_str++;
ARM GAS  C:\Users\BG1026~1\AppData\Local\Temp\cc2n2B4u.s 			page 25


 787:main.c        ****                     led_vec[E_LED_LEFT_GREEN] = atoi(param_str);
 788:main.c        ****                     
 789:main.c        ****                     //=========================================================
 790:main.c        ****                     // left blue
 791:main.c        ****                     //=========================================================
 792:main.c        ****                     if ((param_str = strchr(param_str, '-')) == NULL)
 793:main.c        ****                     {
 794:main.c        ****                         send_alarm_telemetry(ALARM_WARNING, cmd_str_and_param, "can't parse LED str
 795:main.c        ****                         return FALSE;
 796:main.c        ****                     }// If we can't find the next '-' character
 797:main.c        ****                     param_str++;
 798:main.c        ****                     led_vec[E_LED_LEFT_BLUE] = atoi(param_str);
 799:main.c        ****                     
 800:main.c        ****                     //=========================================================
 801:main.c        ****                     // All whites
 802:main.c        ****                     //=========================================================                    
 803:main.c        ****                     for(i = 0; i < NUMBER_OF_WHITE_LEDS; i++)
 804:main.c        ****                     {
 805:main.c        ****                         if ((param_str = strchr(param_str, '-')) == NULL)
 806:main.c        ****                         {
 807:main.c        ****                             send_alarm_telemetry(ALARM_WARNING, cmd_str_and_param, "can't parse LED
 808:main.c        ****                             return FALSE;
 809:main.c        ****                         }// If we can't find the next '-' character
 810:main.c        ****                         param_str++;
 811:main.c        ****                         led_vec[i] = atoi(param_str);
 812:main.c        ****                     }// for all the white LEDS
 813:main.c        ****                     
 814:main.c        ****                     //=========================================================
 815:main.c        ****                     // right red
 816:main.c        ****                     //=========================================================
 817:main.c        ****                     if ((param_str = strchr(param_str, '-')) == NULL)
 818:main.c        ****                     {
 819:main.c        ****                         send_alarm_telemetry(ALARM_WARNING, cmd_str_and_param, "can't parse LED str
 820:main.c        ****                         return FALSE;
 821:main.c        ****                     }// If we can't find the next '-' character
 822:main.c        ****                     param_str++;
 823:main.c        ****                     led_vec[E_LED_RIGHT_RED] = atoi(param_str);
 824:main.c        ****                     
 825:main.c        ****                     //=========================================================
 826:main.c        ****                     // right green
 827:main.c        ****                     //=========================================================
 828:main.c        ****                     if ((param_str = strchr(param_str, '-')) == NULL)
 829:main.c        ****                     {
 830:main.c        ****                         send_alarm_telemetry(ALARM_WARNING, cmd_str_and_param, "can't parse LED str
 831:main.c        ****                         return FALSE;
 832:main.c        ****                     }// If we can't find the next '-' character
 833:main.c        ****                     param_str++;
 834:main.c        ****                     led_vec[E_LED_RIGHT_GREEN] = atoi(param_str);
 835:main.c        ****                     
 836:main.c        ****                     //=========================================================
 837:main.c        ****                     // right blue
 838:main.c        ****                     //=========================================================
 839:main.c        ****                     if ((param_str = strchr(param_str, '-')) == NULL)
 840:main.c        ****                     {
 841:main.c        ****                         send_alarm_telemetry(ALARM_WARNING, cmd_str_and_param, "can't parse LED str
 842:main.c        ****                         return FALSE;
 843:main.c        ****                     }// If we can't find the next '-' character
ARM GAS  C:\Users\BG1026~1\AppData\Local\Temp\cc2n2B4u.s 			page 26


 844:main.c        ****                     param_str++;
 845:main.c        ****                     led_vec[E_LED_RIGHT_BLUE] = atoi(param_str);
 846:main.c        ****                     
 847:main.c        ****                     set_led_strip(led_vec);
 848:main.c        ****                     break;
 849:main.c        ****                 }// CMD_LED_SET_STRIP
 850:main.c        ****                 
 851:main.c        ****                 case CMD_LED_UNKNOWN:
 852:main.c        ****                 default             :
 853:main.c        ****                 {
 854:main.c        ****                     send_alarm_telemetry(ALARM_WARNING, cmd_str_and_param, "unsupported led action"
 855:main.c        ****                     return FALSE;
 856:main.c        ****                 }// CMD_LED_UNKNOWN, default
 857:main.c        ****             }// switch on the led command
 858:main.c        ****             
 859:main.c        ****             break;
 860:main.c        ****         }// CMD_LED
 861:main.c        ****         
 862:main.c        ****         case CMD_TRACKER:
 863:main.c        ****         {
 864:main.c        ****             if ((param_str = strchr(param_str, ',')) == NULL)
 865:main.c        ****             {
 866:main.c        ****                 send_alarm_telemetry(ALARM_WARNING, cmd_str_and_param, "unsupported tracker action"
 867:main.c        ****                 return FALSE;
 868:main.c        ****             }// If we can't find the next ',' character
 869:main.c        ****             
 870:main.c        ****             if ((param_str = strchr(++param_str, ':')) == NULL)
 871:main.c        ****             {
 872:main.c        ****                 send_alarm_telemetry(ALARM_WARNING, cmd_str_and_param, "unsupported tracker action"
 873:main.c        ****                 return FALSE;
 874:main.c        ****             }// If we can't find the next ':' character
 875:main.c        ****             param_str++;
 876:main.c        ****             
 877:main.c        ****             switch (tracker_cmd_id = get_tracker_cmd_id_from_cmd_string(param_str))
 878:main.c        ****             {
 879:main.c        ****                 case CMD_TRACKER_DISABLE:
 880:main.c        ****                 {
 881:main.c        ****                     tracker_enable = FALSE;
 882:main.c        ****                     break;
 883:main.c        ****                 }// CMD_TRACKER_DISABLE      
 884:main.c        ****                 
 885:main.c        ****                 case CMD_TRACKER_ENABLE:
 886:main.c        ****                 {
 887:main.c        ****                     tracker_enable = TRUE;
 888:main.c        ****                     break;
 889:main.c        ****                 }// CMD_TRACKER_ENABLE
 890:main.c        ****                 
 891:main.c        ****                 case CMD_TRACKER_SET_BUTTON:
 892:main.c        ****                 {
 893:main.c        ****                     if ((param_str = strchr(param_str, ',')) == NULL)
 894:main.c        ****                     {
 895:main.c        ****                         send_alarm_telemetry(ALARM_WARNING, cmd_str_and_param, "unsupported tracker
 896:main.c        ****                         return FALSE;
 897:main.c        ****                     }// If we can't find the next ',' character
 898:main.c        ****             
 899:main.c        ****                     if ((param_str = strchr(++param_str, ':')) == NULL)
 900:main.c        ****                     {
ARM GAS  C:\Users\BG1026~1\AppData\Local\Temp\cc2n2B4u.s 			page 27


 901:main.c        ****                         send_alarm_telemetry(ALARM_WARNING, cmd_str_and_param, "unsupported tracker
 902:main.c        ****                         return FALSE;
 903:main.c        ****                     }// If we can't find the next ':' character
 904:main.c        ****                     param_str++;
 905:main.c        ****                     number_of_buttons = atoi(param_str);
 906:main.c        ****                     break;
 907:main.c        ****                 }// CMD_TRACKER_SET_BUTTON
 908:main.c        ****                 
 909:main.c        ****                 case CMD_TRACKER_UNKNOWN:
 910:main.c        ****                 default                 :
 911:main.c        ****                 {
 912:main.c        ****                     send_alarm_telemetry(ALARM_WARNING, cmd_str_and_param, "unsupported tracker act
 913:main.c        ****                     return FALSE;
 914:main.c        ****                 }// CMD_TRACKER_UNKNOWN, default
 915:main.c        ****             }// switch in the tracker action
 916:main.c        ****             break;
 917:main.c        ****         }// CMD_SET_TRACKER
 918:main.c        ****         
 919:main.c        ****         case CMD_VERSION:
 920:main.c        ****         {
 921:main.c        ****             send_alarm_telemetry(ALARM_INFO, "version", VERSION);
 922:main.c        ****             break;
 923:main.c        ****         }// CMD_VERSION
 924:main.c        ****         
 925:main.c        ****         case CMD_UNKNOWN:
 926:main.c        ****         default         :
 927:main.c        ****         {
 928:main.c        ****             send_alarm_telemetry(ALARM_WARNING, cmd_str_and_param, "unsupported command");
 929:main.c        ****             return FALSE;
 930:main.c        ****         }// default
 931:main.c        ****     }// switch cmd id
 932:main.c        ****     
 933:main.c        ****     return TRUE; // the command succeed 
 934:main.c        **** }// parse_and_execute_command
 935:main.c        **** 
 936:main.c        **** void send_alarm_telemetry(t_enum_alarm_type alarm_type, const char* source, const char* description
 937:main.c        **** {
 938:main.c        ****     char        telemetry[256];
 939:main.c        ****     const char* alarm_string[ALARM_UNKNOWN] = {"log", "info", "warning", "error", "fatal"};
 940:main.c        ****  
 941:main.c        ****     memset(telemetry, '\0', sizeof(telemetry));
 942:main.c        ****     
 943:main.c        ****     strcpy(telemetry, "{\"event\":\"alarm\", \"type\":\"");
 944:main.c        ****     strcat(telemetry, alarm_string[alarm_type]);
 945:main.c        ****     strcat(telemetry, "\", \"source\":\"");
 946:main.c        ****     strcat(telemetry, source);
 947:main.c        ****     strcat(telemetry, "\", \"description\":\"");
 948:main.c        ****     strcat(telemetry, description);
 949:main.c        ****     strcat(telemetry, "\"}");
 950:main.c        ****     
 951:main.c        ****     send_telemetry(telemetry);
 952:main.c        ****     
 953:main.c        **** }// send_alarm_telemetry
 954:main.c        **** 
 955:main.c        **** void send_animation_telemetry(int animation_index, const char* action)
 956:main.c        **** {
 957:main.c        ****     char telemetry[256];
ARM GAS  C:\Users\BG1026~1\AppData\Local\Temp\cc2n2B4u.s 			page 28


 958:main.c        ****  
 959:main.c        ****     memset(telemetry, '\0', sizeof(telemetry));
 960:main.c        ****     
 961:main.c        ****     strcpy(telemetry, "{\"event\":\"animation\", \"name\":\"");
 962:main.c        ****     strcat(telemetry, vec_call_back_anim[animation_index].description);
 963:main.c        ****     strcat(telemetry, "\", \"action\":\"");
 964:main.c        ****     strcat(telemetry, action);
 965:main.c        ****     strcat(telemetry, "\"}");
 966:main.c        ****     
 967:main.c        ****     send_telemetry(telemetry);
 968:main.c        **** }// send_animation_telemetry
 969:main.c        **** 
 970:main.c        **** void send_button_telemetry(int button, const char* action)
 971:main.c        **** {
 972:main.c        ****     char telemetry[256];
 973:main.c        ****  
 974:main.c        ****     memset(telemetry, '\0', sizeof(telemetry));
 975:main.c        ****     
 976:main.c        ****     strcpy(telemetry, "{\"event\":\"button\", \"id\":");
 977:main.c        ****     strcat(telemetry, itoa(button));
 978:main.c        ****     strcat(telemetry, ", \"action\":\"");
 979:main.c        ****     strcat(telemetry, action);
 980:main.c        ****     strcat(telemetry, "\"}");
 981:main.c        ****     
 982:main.c        ****     send_telemetry(telemetry);
 983:main.c        **** }// send_button_telemetry
 984:main.c        **** 
 985:main.c        **** void send_telemetry(const char *telemetry)
 986:main.c        **** {
 569              		.loc 1 986 0
 570              		.cfi_startproc
 571              	.LVL79:
 572 0000 08B5     		push	{r3, lr}
 573              		.cfi_def_cfa_offset 8
 574              		.cfi_offset 3, -8
 575              		.cfi_offset 14, -4
 987:main.c        **** #ifdef USE_UART
 988:main.c        ****     UART_1_UartPutString(telemetry);
 576              		.loc 1 988 0
 577 0002 FFF7FEFF 		bl	UART_1_UartPutString
 578              	.LVL80:
 989:main.c        **** #else
 990:main.c        ****     // FIXME: use I2C
 991:main.c        **** #endif //USE_UART
 992:main.c        **** }// send_button_telemetry
 579              		.loc 1 992 0
 580              		@ sp needed
 581 0006 08BD     		pop	{r3, pc}
 582              		.cfi_endproc
 583              	.LFE47:
 584              		.size	send_telemetry, .-send_telemetry
 585              		.section	.text.send_alarm_telemetry,"ax",%progbits
 586              		.align	2
 587              		.global	send_alarm_telemetry
 588              		.code	16
 589              		.thumb_func
 590              		.type	send_alarm_telemetry, %function
ARM GAS  C:\Users\BG1026~1\AppData\Local\Temp\cc2n2B4u.s 			page 29


 591              	send_alarm_telemetry:
 592              	.LFB44:
 937:main.c        ****     char        telemetry[256];
 593              		.loc 1 937 0
 594              		.cfi_startproc
 595              	.LVL81:
 596 0000 F0B5     		push	{r4, r5, r6, r7, lr}
 597              		.cfi_def_cfa_offset 20
 598              		.cfi_offset 4, -20
 599              		.cfi_offset 5, -16
 600              		.cfi_offset 6, -12
 601              		.cfi_offset 7, -8
 602              		.cfi_offset 14, -4
 603 0002 4746     		mov	r7, r8
 604 0004 80B4     		push	{r7}
 605              		.cfi_def_cfa_offset 24
 606              		.cfi_offset 8, -24
 607 0006 C8B0     		sub	sp, sp, #288
 608              		.cfi_def_cfa_offset 312
 609 0008 8046     		mov	r8, r0
 610 000a 0E1C     		mov	r6, r1
 611 000c 0192     		str	r2, [sp, #4]
 939:main.c        ****  
 612              		.loc 1 939 0
 613 000e 03AF     		add	r7, sp, #12
 614 0010 3A1C     		mov	r2, r7
 615              	.LVL82:
 616 0012 224B     		ldr	r3, .L57
 617 0014 4433     		add	r3, r3, #68
 618 0016 13CB     		ldmia	r3!, {r0, r1, r4}
 619 0018 13C2     		stmia	r2!, {r0, r1, r4}
 620              	.LVL83:
 621 001a 11CB     		ldmia	r3!, {r0, r4}
 622 001c 11C2     		stmia	r2!, {r0, r4}
 941:main.c        ****     
 623              		.loc 1 941 0
 624 001e 08AC     		add	r4, sp, #32
 625 0020 201C     		mov	r0, r4
 626 0022 0021     		mov	r1, #0
 627 0024 8022     		mov	r2, #128
 628 0026 5200     		lsl	r2, r2, #1
 629 0028 FFF7FEFF 		bl	memset
 630              	.LVL84:
 943:main.c        ****     strcat(telemetry, alarm_string[alarm_type]);
 631              		.loc 1 943 0
 632 002c 1C49     		ldr	r1, .L57+4
 633 002e 231C     		mov	r3, r4
 634 0030 0A1C     		mov	r2, r1
 635 0032 23CA     		ldmia	r2!, {r0, r1, r5}
 636 0034 23C3     		stmia	r3!, {r0, r1, r5}
 637 0036 23CA     		ldmia	r2!, {r0, r1, r5}
 638 0038 23C3     		stmia	r3!, {r0, r1, r5}
 639 003a 1188     		ldrh	r1, [r2]
 640 003c 1980     		strh	r1, [r3]
 641 003e 9278     		ldrb	r2, [r2, #2]
 642 0040 9A70     		strb	r2, [r3, #2]
 944:main.c        ****     strcat(telemetry, "\", \"source\":\"");
ARM GAS  C:\Users\BG1026~1\AppData\Local\Temp\cc2n2B4u.s 			page 30


 643              		.loc 1 944 0
 644 0042 4346     		mov	r3, r8
 645 0044 9B00     		lsl	r3, r3, #2
 646 0046 D959     		ldr	r1, [r3, r7]
 647 0048 201C     		mov	r0, r4
 648 004a FFF7FEFF 		bl	strcat
 649              	.LVL85:
 945:main.c        ****     strcat(telemetry, source);
 650              		.loc 1 945 0
 651 004e 201C     		mov	r0, r4
 652 0050 FFF7FEFF 		bl	strlen
 653              	.LVL86:
 654 0054 2018     		add	r0, r4, r0
 655 0056 1349     		ldr	r1, .L57+8
 656 0058 0E22     		mov	r2, #14
 657 005a FFF7FEFF 		bl	memcpy
 658              	.LVL87:
 946:main.c        ****     strcat(telemetry, "\", \"description\":\"");
 659              		.loc 1 946 0
 660 005e 201C     		mov	r0, r4
 661 0060 311C     		mov	r1, r6
 662 0062 FFF7FEFF 		bl	strcat
 663              	.LVL88:
 947:main.c        ****     strcat(telemetry, description);
 664              		.loc 1 947 0
 665 0066 201C     		mov	r0, r4
 666 0068 FFF7FEFF 		bl	strlen
 667              	.LVL89:
 668 006c 2018     		add	r0, r4, r0
 669 006e 0E49     		ldr	r1, .L57+12
 670 0070 1322     		mov	r2, #19
 671 0072 FFF7FEFF 		bl	memcpy
 672              	.LVL90:
 948:main.c        ****     strcat(telemetry, "\"}");
 673              		.loc 1 948 0
 674 0076 201C     		mov	r0, r4
 675 0078 0199     		ldr	r1, [sp, #4]
 676 007a FFF7FEFF 		bl	strcat
 677              	.LVL91:
 949:main.c        ****     
 678              		.loc 1 949 0
 679 007e 201C     		mov	r0, r4
 680 0080 FFF7FEFF 		bl	strlen
 681              	.LVL92:
 682 0084 2018     		add	r0, r4, r0
 683 0086 0949     		ldr	r1, .L57+16
 684 0088 0322     		mov	r2, #3
 685 008a FFF7FEFF 		bl	memcpy
 686              	.LVL93:
 951:main.c        ****     
 687              		.loc 1 951 0
 688 008e 201C     		mov	r0, r4
 689 0090 FFF7FEFF 		bl	send_telemetry
 690              	.LVL94:
 953:main.c        **** 
 691              		.loc 1 953 0
 692 0094 48B0     		add	sp, sp, #288
ARM GAS  C:\Users\BG1026~1\AppData\Local\Temp\cc2n2B4u.s 			page 31


 693              		@ sp needed
 694              	.LVL95:
 695 0096 04BC     		pop	{r2}
 696 0098 9046     		mov	r8, r2
 697 009a F0BD     		pop	{r4, r5, r6, r7, pc}
 698              	.L58:
 699              		.align	2
 700              	.L57:
 701 009c 8C010000 		.word	.LANCHOR3
 702 00a0 00000000 		.word	.LC15
 703 00a4 1C000000 		.word	.LC17
 704 00a8 2C000000 		.word	.LC19
 705 00ac 40000000 		.word	.LC21
 706              		.cfi_endproc
 707              	.LFE44:
 708              		.size	send_alarm_telemetry, .-send_alarm_telemetry
 709              		.section	.text.send_animation_telemetry,"ax",%progbits
 710              		.align	2
 711              		.global	send_animation_telemetry
 712              		.code	16
 713              		.thumb_func
 714              		.type	send_animation_telemetry, %function
 715              	send_animation_telemetry:
 716              	.LFB45:
 956:main.c        ****     char telemetry[256];
 717              		.loc 1 956 0
 718              		.cfi_startproc
 719              	.LVL96:
 720 0000 F0B5     		push	{r4, r5, r6, r7, lr}
 721              		.cfi_def_cfa_offset 20
 722              		.cfi_offset 4, -20
 723              		.cfi_offset 5, -16
 724              		.cfi_offset 6, -12
 725              		.cfi_offset 7, -8
 726              		.cfi_offset 14, -4
 727 0002 C1B0     		sub	sp, sp, #260
 728              		.cfi_def_cfa_offset 280
 729 0004 061C     		mov	r6, r0
 730 0006 0D1C     		mov	r5, r1
 959:main.c        ****     
 731              		.loc 1 959 0
 732 0008 6C46     		mov	r4, sp
 733 000a 6846     		mov	r0, sp
 734              	.LVL97:
 735 000c 0021     		mov	r1, #0
 736              	.LVL98:
 737 000e 8022     		mov	r2, #128
 738 0010 5200     		lsl	r2, r2, #1
 739 0012 FFF7FEFF 		bl	memset
 740              	.LVL99:
 961:main.c        ****     strcat(telemetry, vec_call_back_anim[animation_index].description);
 741              		.loc 1 961 0
 742 0016 1749     		ldr	r1, .L60
 743 0018 6B46     		mov	r3, sp
 744 001a 0A1C     		mov	r2, r1
 745 001c 83CA     		ldmia	r2!, {r0, r1, r7}
 746 001e 83C3     		stmia	r3!, {r0, r1, r7}
ARM GAS  C:\Users\BG1026~1\AppData\Local\Temp\cc2n2B4u.s 			page 32


 747 0020 83CA     		ldmia	r2!, {r0, r1, r7}
 748 0022 83C3     		stmia	r3!, {r0, r1, r7}
 749 0024 1168     		ldr	r1, [r2]
 750 0026 1960     		str	r1, [r3]
 751 0028 9188     		ldrh	r1, [r2, #4]
 752 002a 9980     		strh	r1, [r3, #4]
 753 002c 9279     		ldrb	r2, [r2, #6]
 754 002e 9A71     		strb	r2, [r3, #6]
 962:main.c        ****     strcat(telemetry, "\", \"action\":\"");
 755              		.loc 1 962 0
 756 0030 7000     		lsl	r0, r6, #1
 757 0032 8019     		add	r0, r0, r6
 758 0034 8000     		lsl	r0, r0, #2
 759 0036 104B     		ldr	r3, .L60+4
 760 0038 1818     		add	r0, r3, r0
 761 003a 416A     		ldr	r1, [r0, #36]
 762 003c 6846     		mov	r0, sp
 763 003e FFF7FEFF 		bl	strcat
 764              	.LVL100:
 963:main.c        ****     strcat(telemetry, action);
 765              		.loc 1 963 0
 766 0042 6846     		mov	r0, sp
 767 0044 FFF7FEFF 		bl	strlen
 768              	.LVL101:
 769 0048 2018     		add	r0, r4, r0
 770 004a 0C49     		ldr	r1, .L60+8
 771 004c 0E22     		mov	r2, #14
 772 004e FFF7FEFF 		bl	memcpy
 773              	.LVL102:
 964:main.c        ****     strcat(telemetry, "\"}");
 774              		.loc 1 964 0
 775 0052 6846     		mov	r0, sp
 776 0054 291C     		mov	r1, r5
 777 0056 FFF7FEFF 		bl	strcat
 778              	.LVL103:
 965:main.c        ****     
 779              		.loc 1 965 0
 780 005a 6846     		mov	r0, sp
 781 005c FFF7FEFF 		bl	strlen
 782              	.LVL104:
 783 0060 2018     		add	r0, r4, r0
 784 0062 0749     		ldr	r1, .L60+12
 785 0064 0322     		mov	r2, #3
 786 0066 FFF7FEFF 		bl	memcpy
 787              	.LVL105:
 967:main.c        **** }// send_animation_telemetry
 788              		.loc 1 967 0
 789 006a 6846     		mov	r0, sp
 790 006c FFF7FEFF 		bl	send_telemetry
 791              	.LVL106:
 968:main.c        **** 
 792              		.loc 1 968 0
 793 0070 41B0     		add	sp, sp, #260
 794              		@ sp needed
 795              	.LVL107:
 796              	.LVL108:
 797 0072 F0BD     		pop	{r4, r5, r6, r7, pc}
ARM GAS  C:\Users\BG1026~1\AppData\Local\Temp\cc2n2B4u.s 			page 33


 798              	.L61:
 799              		.align	2
 800              	.L60:
 801 0074 44000000 		.word	.LC23
 802 0078 0C010000 		.word	.LANCHOR2
 803 007c 64000000 		.word	.LC26
 804 0080 40000000 		.word	.LC21
 805              		.cfi_endproc
 806              	.LFE45:
 807              		.size	send_animation_telemetry, .-send_animation_telemetry
 808              		.section	.text.send_button_telemetry,"ax",%progbits
 809              		.align	2
 810              		.global	send_button_telemetry
 811              		.code	16
 812              		.thumb_func
 813              		.type	send_button_telemetry, %function
 814              	send_button_telemetry:
 815              	.LFB46:
 971:main.c        ****     char telemetry[256];
 816              		.loc 1 971 0
 817              		.cfi_startproc
 818              	.LVL109:
 819 0000 F0B5     		push	{r4, r5, r6, r7, lr}
 820              		.cfi_def_cfa_offset 20
 821              		.cfi_offset 4, -20
 822              		.cfi_offset 5, -16
 823              		.cfi_offset 6, -12
 824              		.cfi_offset 7, -8
 825              		.cfi_offset 14, -4
 826 0002 C1B0     		sub	sp, sp, #260
 827              		.cfi_def_cfa_offset 280
 828 0004 061C     		mov	r6, r0
 829 0006 0D1C     		mov	r5, r1
 974:main.c        ****     
 830              		.loc 1 974 0
 831 0008 6C46     		mov	r4, sp
 832 000a 6846     		mov	r0, sp
 833              	.LVL110:
 834 000c 0021     		mov	r1, #0
 835              	.LVL111:
 836 000e 8022     		mov	r2, #128
 837 0010 5200     		lsl	r2, r2, #1
 838 0012 FFF7FEFF 		bl	memset
 839              	.LVL112:
 976:main.c        ****     strcat(telemetry, itoa(button));
 840              		.loc 1 976 0
 841 0016 1449     		ldr	r1, .L63
 842 0018 6B46     		mov	r3, sp
 843 001a 0A1C     		mov	r2, r1
 844 001c 83CA     		ldmia	r2!, {r0, r1, r7}
 845 001e 83C3     		stmia	r3!, {r0, r1, r7}
 846 0020 83CA     		ldmia	r2!, {r0, r1, r7}
 847 0022 83C3     		stmia	r3!, {r0, r1, r7}
 848 0024 1278     		ldrb	r2, [r2]
 849 0026 1A70     		strb	r2, [r3]
 977:main.c        ****     strcat(telemetry, ", \"action\":\"");
 850              		.loc 1 977 0
ARM GAS  C:\Users\BG1026~1\AppData\Local\Temp\cc2n2B4u.s 			page 34


 851 0028 301C     		mov	r0, r6
 852 002a FFF7FEFF 		bl	itoa
 853              	.LVL113:
 854 002e 011C     		mov	r1, r0
 855 0030 6846     		mov	r0, sp
 856 0032 FFF7FEFF 		bl	strcat
 857              	.LVL114:
 978:main.c        ****     strcat(telemetry, action);
 858              		.loc 1 978 0
 859 0036 6846     		mov	r0, sp
 860 0038 FFF7FEFF 		bl	strlen
 861              	.LVL115:
 862 003c 2018     		add	r0, r4, r0
 863 003e 0B49     		ldr	r1, .L63+4
 864 0040 0D22     		mov	r2, #13
 865 0042 FFF7FEFF 		bl	memcpy
 866              	.LVL116:
 979:main.c        ****     strcat(telemetry, "\"}");
 867              		.loc 1 979 0
 868 0046 6846     		mov	r0, sp
 869 0048 291C     		mov	r1, r5
 870 004a FFF7FEFF 		bl	strcat
 871              	.LVL117:
 980:main.c        ****     
 872              		.loc 1 980 0
 873 004e 6846     		mov	r0, sp
 874 0050 FFF7FEFF 		bl	strlen
 875              	.LVL118:
 876 0054 2018     		add	r0, r4, r0
 877 0056 0649     		ldr	r1, .L63+8
 878 0058 0322     		mov	r2, #3
 879 005a FFF7FEFF 		bl	memcpy
 880              	.LVL119:
 982:main.c        **** }// send_button_telemetry
 881              		.loc 1 982 0
 882 005e 6846     		mov	r0, sp
 883 0060 FFF7FEFF 		bl	send_telemetry
 884              	.LVL120:
 983:main.c        **** 
 885              		.loc 1 983 0
 886 0064 41B0     		add	sp, sp, #260
 887              		@ sp needed
 888              	.LVL121:
 889              	.LVL122:
 890 0066 F0BD     		pop	{r4, r5, r6, r7, pc}
 891              	.L64:
 892              		.align	2
 893              	.L63:
 894 0068 74000000 		.word	.LC29
 895 006c 90000000 		.word	.LC31
 896 0070 40000000 		.word	.LC21
 897              		.cfi_endproc
 898              	.LFE46:
 899              		.size	send_button_telemetry, .-send_button_telemetry
 900              		.section	.text.set_led_strip,"ax",%progbits
 901              		.align	2
 902              		.global	set_led_strip
ARM GAS  C:\Users\BG1026~1\AppData\Local\Temp\cc2n2B4u.s 			page 35


 903              		.code	16
 904              		.thumb_func
 905              		.type	set_led_strip, %function
 906              	set_led_strip:
 907              	.LFB61:
 993:main.c        **** 
 994:main.c        **** void display_button(uint16 button, uint16 intensity, uint16 button_width)
 995:main.c        **** {
 996:main.c        **** #if 1    
 997:main.c        ****     uint16 led_start = (button * button_width) + 1;
 998:main.c        ****     uint16 led_stop  = led_start + button_width;
 999:main.c        ****     uint16 i;
1000:main.c        ****     
1001:main.c        ****     set_led(led_start, intensity / 2);
1002:main.c        ****     set_led(led_stop , intensity / 2);
1003:main.c        ****     
1004:main.c        ****     for (i = led_start + 1; i < led_stop; i++)
1005:main.c        ****     {
1006:main.c        ****         set_led(i, intensity);
1007:main.c        ****     }
1008:main.c        ****       
1009:main.c        **** #else
1010:main.c        ****     switch (button)
1011:main.c        ****     {
1012:main.c        ****         case 0: set_led(1, intensity / 2);
1013:main.c        ****                 set_led(2, intensity    );
1014:main.c        ****                 set_led(3, intensity / 2);
1015:main.c        ****                 break;
1016:main.c        ****         case 1: set_led(3, intensity / 2);
1017:main.c        ****                 set_led(4, intensity    );
1018:main.c        ****                 set_led(5, intensity / 2);
1019:main.c        ****                 break;
1020:main.c        ****         case 2: set_led(5, intensity / 2);
1021:main.c        ****                 set_led(6, intensity    );
1022:main.c        ****                 set_led(7, intensity / 2);
1023:main.c        ****                 break;
1024:main.c        ****         case 3: set_led(7, intensity / 2);
1025:main.c        ****                 set_led(8, intensity    );
1026:main.c        ****                 set_led(9, intensity / 2);
1027:main.c        ****                 break;
1028:main.c        ****         case 4: set_led(9 , intensity / 2);
1029:main.c        ****                 set_led(10, intensity    );
1030:main.c        ****                 set_led(11, intensity / 2);
1031:main.c        ****                 break;
1032:main.c        ****         case 5 : 
1033:main.c        ****         default:
1034:main.c        ****                 set_led(12, intensity / 2);
1035:main.c        ****                 set_led(13, intensity    );
1036:main.c        ****                 set_led(14, intensity / 2);
1037:main.c        ****                 break; 
1038:main.c        ****     }
1039:main.c        ****     
1040:main.c        ****     
1041:main.c        ****     
1042:main.c        **** #endif // 0    
1043:main.c        **** }// display_button
1044:main.c        **** 
ARM GAS  C:\Users\BG1026~1\AppData\Local\Temp\cc2n2B4u.s 			page 36


1045:main.c        **** void display_state(void)
1046:main.c        **** {
1047:main.c        ****     int    new_led_pos  = 0;
1048:main.c        ****     uint16 led_buckets  = SLIDER_RESOLUTION    / number_of_buttons;
1049:main.c        ****     uint16 button_width = NUMBER_OF_WHITE_LEDS / number_of_buttons;
1050:main.c        **** 
1051:main.c        ****     if (cap_cur_pos != cap_old_pos)
1052:main.c        ****     {
1053:main.c        ****         cap_old_pos = cap_cur_pos;
1054:main.c        ****         new_led_pos = cap_cur_pos / led_buckets;
1055:main.c        ****         if ((cap_cur_pos != 0u) && (new_led_pos != led_pos) && (new_led_pos >= 0) && (new_led_pos <
1056:main.c        ****         {
1057:main.c        ****             if (tracker_enable)
1058:main.c        ****             {
1059:main.c        ****                 if (button_width > 1)
1060:main.c        ****                 {
1061:main.c        ****                     display_button(led_pos    , 0x00         , button_width);
1062:main.c        ****                     display_button(new_led_pos, MAX_INTENSITY, button_width);
1063:main.c        ****                 }
1064:main.c        ****                 else
1065:main.c        ****                 {
1066:main.c        ****                     set_led(led_pos    , 0x00         );
1067:main.c        ****                     set_led(new_led_pos, MAX_INTENSITY);
1068:main.c        ****                 }
1069:main.c        ****             }
1070:main.c        ****             
1071:main.c        ****             led_pos = new_led_pos;
1072:main.c        ****             send_button_telemetry(led_pos, "position");
1073:main.c        ****          }
1074:main.c        ****     }
1075:main.c        **** }// display_state
1076:main.c        **** 
1077:main.c        **** void animate_all_colors(void)
1078:main.c        **** {
1079:main.c        ****     static uint16 red             = 0;
1080:main.c        ****     static uint16 green           = 0;
1081:main.c        ****     static uint16 blue            = 0;
1082:main.c        ****     static BOOL   intensity_up    = TRUE;
1083:main.c        ****            uint16 blue_increment  = 64 ;
1084:main.c        ****            uint16 green_increment = 128;
1085:main.c        ****            uint16 red_increment   = 256;
1086:main.c        ****            
1087:main.c        ****     set_led(E_LED_LEFT_RED   ,  red  );
1088:main.c        ****     set_led(E_LED_LEFT_GREEN ,  green);
1089:main.c        ****     set_led(E_LED_LEFT_BLUE  ,  blue );
1090:main.c        ****     set_led(E_LED_RIGHT_RED  , ~red  );
1091:main.c        ****     set_led(E_LED_RIGHT_GREEN, ~green);
1092:main.c        ****     set_led(E_LED_RIGHT_BLUE , ~blue );
1093:main.c        ****    
1094:main.c        ****     if (intensity_up)
1095:main.c        ****     {   
1096:main.c        ****         if (red >= MAX_COLOR)
1097:main.c        ****         {
1098:main.c        ****             intensity_up = FALSE;
1099:main.c        ****         }
1100:main.c        ****         else if (green >= MAX_COLOR) 
1101:main.c        ****         {
ARM GAS  C:\Users\BG1026~1\AppData\Local\Temp\cc2n2B4u.s 			page 37


1102:main.c        ****            red   += red_increment;
1103:main.c        ****            green  = 0;
1104:main.c        ****            blue   = 0;
1105:main.c        ****         } 
1106:main.c        ****         else if (blue >= MAX_COLOR)
1107:main.c        ****         {
1108:main.c        ****             green += green_increment;
1109:main.c        ****             blue   = 0;
1110:main.c        ****         }
1111:main.c        ****         else
1112:main.c        ****         {
1113:main.c        ****             blue += blue_increment;    
1114:main.c        ****         }
1115:main.c        ****     }// if the intensity is going up
1116:main.c        ****     else
1117:main.c        ****     {
1118:main.c        ****         if (red == 0)
1119:main.c        ****         {
1120:main.c        ****             intensity_up = TRUE;
1121:main.c        ****         }
1122:main.c        ****         else if (green == 0)
1123:main.c        ****         {
1124:main.c        ****            red   -= red_increment;
1125:main.c        ****            green  = MAX_COLOR;
1126:main.c        ****            blue   = MAX_COLOR;
1127:main.c        ****         } 
1128:main.c        ****         else if (blue == 0)
1129:main.c        ****         {
1130:main.c        ****             green -= green_increment;
1131:main.c        ****             blue   = MAX_COLOR;
1132:main.c        ****         }
1133:main.c        ****         else
1134:main.c        ****         {
1135:main.c        ****             blue -= blue_increment;    
1136:main.c        ****         }
1137:main.c        ****     }// // else, the intensity is going down
1138:main.c        **** }// animate_all_colors
1139:main.c        **** 
1140:main.c        **** void animate_fix_white(void)
1141:main.c        **** {
1142:main.c        ****     set_led(6, MAX_INTENSITY);
1143:main.c        ****     set_led(7, MAX_INTENSITY);
1144:main.c        ****     set_led(8, MAX_INTENSITY);
1145:main.c        ****     set_led(9, MAX_INTENSITY);
1146:main.c        **** }// animate_fix_led_0
1147:main.c        **** 
1148:main.c        **** void animate_fix_led_14(void)
1149:main.c        **** {
1150:main.c        ****     set_led(14, MAX_INTENSITY);
1151:main.c        **** }// animate_fix_led_0
1152:main.c        **** 
1153:main.c        **** void animate_red_intensity  (void)
1154:main.c        **** {
1155:main.c        **** #ifndef FOR_COLIN    
1156:main.c        ****     animate_color_intensity(E_RED);
1157:main.c        **** #else
1158:main.c        ****     set_led(E_LED_LEFT_RED   , MAX_COLOR   );
ARM GAS  C:\Users\BG1026~1\AppData\Local\Temp\cc2n2B4u.s 			page 38


1159:main.c        ****     set_led(E_LED_LEFT_GREEN , 0x00     );
1160:main.c        ****     set_led(E_LED_LEFT_BLUE  , 0x00);
1161:main.c        ****     set_led(E_LED_RIGHT_RED  , MAX_COLOR);
1162:main.c        ****     set_led(E_LED_RIGHT_GREEN, 0x00     );
1163:main.c        ****     set_led(E_LED_RIGHT_BLUE , 0x00     );
1164:main.c        **** #endif        
1165:main.c        **** }// animate_red_intensity
1166:main.c        **** 
1167:main.c        **** void animate_green_intensity(void)
1168:main.c        **** {
1169:main.c        **** #ifndef FOR_COLIN    
1170:main.c        ****     animate_color_intensity(E_GREEN);
1171:main.c        **** #else
1172:main.c        ****     set_led(E_LED_LEFT_RED   ,  0x00     );
1173:main.c        ****     set_led(E_LED_LEFT_GREEN ,  MAX_COLOR);
1174:main.c        ****     set_led(E_LED_LEFT_BLUE  ,  0x00     );
1175:main.c        ****     set_led(E_LED_RIGHT_RED  ,  0x00     );
1176:main.c        ****     set_led(E_LED_RIGHT_GREEN,  MAX_COLOR);
1177:main.c        ****     set_led(E_LED_RIGHT_BLUE , 0x00 );
1178:main.c        **** #endif    
1179:main.c        **** }// animate_green_intensity
1180:main.c        **** 
1181:main.c        **** void animate_blue_intensity (void)
1182:main.c        **** {
1183:main.c        **** #ifndef FOR_COLIN    
1184:main.c        ****     animate_color_intensity(E_BLUE);
1185:main.c        **** #else
1186:main.c        ****     set_led(E_LED_LEFT_RED   , 0x00     );
1187:main.c        ****     set_led(E_LED_LEFT_GREEN , 0x00     );
1188:main.c        ****     set_led(E_LED_LEFT_BLUE  , MAX_COLOR);
1189:main.c        ****     set_led(E_LED_RIGHT_RED  , 0x00     );
1190:main.c        ****     set_led(E_LED_RIGHT_GREEN, 0x00     );
1191:main.c        ****     set_led(E_LED_RIGHT_BLUE , MAX_COLOR);
1192:main.c        **** #endif        
1193:main.c        **** }// animate_blue_intensity
1194:main.c        **** 
1195:main.c        **** void animate_color_intensity(t_enum_primary_color color)
1196:main.c        **** {
1197:main.c        ****     static uint16 intensity    = 0   ;
1198:main.c        ****     static BOOL   intensity_up = TRUE;
1199:main.c        ****            uint16 increment    = 5   ;
1200:main.c        **** 
1201:main.c        ****     switch (color)
1202:main.c        ****     {
1203:main.c        ****         case E_RED  : set_led(E_LED_LEFT_RED   , intensity);
1204:main.c        ****                       set_led(E_LED_RIGHT_RED  , intensity);
1205:main.c        ****                       break;
1206:main.c        ****         case E_GREEN: set_led(E_LED_LEFT_GREEN , intensity);
1207:main.c        ****                       set_led(E_LED_RIGHT_GREEN, intensity);
1208:main.c        ****                       break;
1209:main.c        ****         case E_BLUE : set_led(E_LED_LEFT_BLUE  , intensity);
1210:main.c        ****                       set_led(E_LED_RIGHT_BLUE , intensity);
1211:main.c        ****                       break;
1212:main.c        ****     }// switch color
1213:main.c        ****                    
1214:main.c        ****     if (intensity_up)
1215:main.c        ****     {
ARM GAS  C:\Users\BG1026~1\AppData\Local\Temp\cc2n2B4u.s 			page 39


1216:main.c        ****         intensity += increment;
1217:main.c        ****         if (intensity >= MAX_COLOR)
1218:main.c        ****         {
1219:main.c        ****             intensity_up = FALSE;
1220:main.c        ****         }
1221:main.c        ****     }// if the intensity is going up
1222:main.c        ****     else
1223:main.c        ****     {
1224:main.c        ****         intensity -= increment;
1225:main.c        ****         if (intensity == 0)
1226:main.c        ****         {
1227:main.c        ****             intensity_up = TRUE;
1228:main.c        ****         }
1229:main.c        ****     }  
1230:main.c        **** }// animate_color_intensity
1231:main.c        **** 
1232:main.c        **** void animate_rainbow_colors()
1233:main.c        **** {
1234:main.c        ****     static uint16             cycle         = 0;
1235:main.c        ****     static uint16             color_index   = 0;
1236:main.c        ****     static t_struct_rgb_color vec_rainbow[] = {{148,   0, 211}, // violet
1237:main.c        ****                                                { 75,   0, 130}, // indigo
1238:main.c        ****                                                {  0,   0, 255}, // blue
1239:main.c        ****                                                {  0, 255,   0}, // green
1240:main.c        ****                                                {255, 255,   0}, // yellow
1241:main.c        ****                                                {255, 127,   0}, // orange
1242:main.c        ****                                                {255,   0,   0}, // red
1243:main.c        ****                                                {  0,   0,   0}};
1244:main.c        ****            BOOL               skip_cycle    = cycle % 64;
1245:main.c        **** 
1246:main.c        ****     cycle++;
1247:main.c        **** 
1248:main.c        ****     if (skip_cycle)
1249:main.c        ****     {
1250:main.c        ****         return;
1251:main.c        ****     }
1252:main.c        ****     
1253:main.c        ****     if ((vec_rainbow[color_index].red + vec_rainbow[color_index].green + vec_rainbow[color_index].b
1254:main.c        ****     {
1255:main.c        ****         color_index = 0;      
1256:main.c        ****     }
1257:main.c        ****     
1258:main.c        ****     set_led(E_LED_LEFT_RED   , vec_rainbow[color_index].red  );
1259:main.c        ****     set_led(E_LED_RIGHT_RED  , vec_rainbow[color_index].red  );
1260:main.c        ****     set_led(E_LED_LEFT_GREEN , vec_rainbow[color_index].green);
1261:main.c        ****     set_led(E_LED_RIGHT_GREEN, vec_rainbow[color_index].green);  
1262:main.c        ****     set_led(E_LED_LEFT_BLUE  , vec_rainbow[color_index].blue );
1263:main.c        ****     set_led(E_LED_RIGHT_BLUE , vec_rainbow[color_index].blue );
1264:main.c        ****     color_index++;    
1265:main.c        **** }// animate_rainbow_colors
1266:main.c        **** 
1267:main.c        **** void animate_left_right()
1268:main.c        **** {
1269:main.c        ****     static uint16 cycle      = 0;
1270:main.c        ****            BOOL   skip_cycle = cycle % 10;
1271:main.c        **** 
1272:main.c        ****     cycle++;
ARM GAS  C:\Users\BG1026~1\AppData\Local\Temp\cc2n2B4u.s 			page 40


1273:main.c        **** 
1274:main.c        ****     if (skip_cycle)
1275:main.c        ****     {
1276:main.c        ****         return;
1277:main.c        ****     }
1278:main.c        **** 
1279:main.c        ****     set_led(led_pos, 0x00);
1280:main.c        **** 
1281:main.c        ****     led_pos++;
1282:main.c        ****     led_pos %= NUMBER_OF_WHITE_LEDS;
1283:main.c        **** 
1284:main.c        ****     set_led(led_pos, MAX_INTENSITY);
1285:main.c        **** }// animate_left_right
1286:main.c        **** 
1287:main.c        **** void animate_intensity()
1288:main.c        **** {
1289:main.c        ****     static uint16 intensity    = 0   ;
1290:main.c        ****     static BOOL   intensity_up = TRUE;
1291:main.c        ****            uint16 increment    = 1   ;
1292:main.c        ****            int    i                  ;
1293:main.c        ****     
1294:main.c        ****     for (i = 0; i < NUMBER_OF_WHITE_LEDS; i++)
1295:main.c        ****     {
1296:main.c        ****         set_led(i, intensity);  
1297:main.c        ****     }
1298:main.c        ****     
1299:main.c        ****     if (intensity_up)
1300:main.c        ****     {
1301:main.c        ****         intensity += increment;
1302:main.c        ****         if (intensity >= 0x0FF)
1303:main.c        ****         {
1304:main.c        ****             intensity_up = FALSE;
1305:main.c        ****         }
1306:main.c        ****     }// if the intensiry is going up
1307:main.c        ****     else
1308:main.c        ****     {
1309:main.c        ****         intensity -= increment;
1310:main.c        ****         if (intensity == 0)
1311:main.c        ****         {
1312:main.c        ****             intensity_up = TRUE;
1313:main.c        ****         }
1314:main.c        ****     }
1315:main.c        **** }// animate_intensity
1316:main.c        **** 
1317:main.c        **** void animate_2_leds()
1318:main.c        **** {
1319:main.c        ****     static uint16 cycle      = 0;
1320:main.c        ****     static uint16 right_led  = (NUMBER_OF_WHITE_LEDS / 2);
1321:main.c        ****     static uint16 left_led   = (NUMBER_OF_WHITE_LEDS / 2) - 1;
1322:main.c        ****     static BOOL   outward    = TRUE;
1323:main.c        ****            BOOL   skip_cycle = cycle % 5;
1324:main.c        **** 
1325:main.c        ****     cycle++;
1326:main.c        **** 
1327:main.c        ****     if (skip_cycle)
1328:main.c        ****     {
1329:main.c        ****         return;
ARM GAS  C:\Users\BG1026~1\AppData\Local\Temp\cc2n2B4u.s 			page 41


1330:main.c        ****     }
1331:main.c        **** 
1332:main.c        ****     clear_all_leds();
1333:main.c        **** 
1334:main.c        ****     set_led(left_led , MAX_INTENSITY);
1335:main.c        ****     set_led(right_led, MAX_INTENSITY);
1336:main.c        **** 
1337:main.c        ****     if (outward)
1338:main.c        ****     {
1339:main.c        ****         left_led --;
1340:main.c        ****         right_led++;
1341:main.c        ****         outward = left_led; // if left_led == 0, we go inward
1342:main.c        ****     }// if we go outward
1343:main.c        ****     else
1344:main.c        ****     {
1345:main.c        ****         left_led ++;
1346:main.c        ****         right_led--;
1347:main.c        ****         outward = (right_led == (NUMBER_OF_WHITE_LEDS / 2));
1348:main.c        ****     }// we go inward
1349:main.c        **** }// animate_2_leds
1350:main.c        **** 
1351:main.c        **** void set_led_strip (uint16 led_vec[MAX_LEDS])
1352:main.c        **** {
 908              		.loc 1 1352 0
 909              		.cfi_startproc
 910              	.LVL123:
 911 0000 08B5     		push	{r3, lr}
 912              		.cfi_def_cfa_offset 8
 913              		.cfi_offset 3, -8
 914              		.cfi_offset 14, -4
1353:main.c        ****     led_buffer.led0  = led_vec[23];
 915              		.loc 1 1353 0
 916 0002 C28D     		ldrh	r2, [r0, #46]
 917 0004 674B     		ldr	r3, .L66
 918 0006 1205     		lsl	r2, r2, #20
 919 0008 110D     		lsr	r1, r2, #20
 920 000a 1A8A     		ldrh	r2, [r3, #16]
 921 000c 120B     		lsr	r2, r2, #12
 922 000e 1203     		lsl	r2, r2, #12
 923 0010 0A43     		orr	r2, r1
 924 0012 1A82     		strh	r2, [r3, #16]
1354:main.c        ****     led_buffer.led1  = led_vec[22];
 925              		.loc 1 1354 0
 926 0014 828D     		ldrh	r2, [r0, #44]
 927 0016 1205     		lsl	r2, r2, #20
 928 0018 110D     		lsr	r1, r2, #20
 929 001a 5A8A     		ldrh	r2, [r3, #18]
 930 001c 120B     		lsr	r2, r2, #12
 931 001e 1203     		lsl	r2, r2, #12
 932 0020 0A43     		orr	r2, r1
 933 0022 5A82     		strh	r2, [r3, #18]
1355:main.c        ****     led_buffer.led2  = led_vec[21];
 934              		.loc 1 1355 0
 935 0024 428D     		ldrh	r2, [r0, #42]
 936 0026 1205     		lsl	r2, r2, #20
 937 0028 110D     		lsr	r1, r2, #20
 938 002a 9A8A     		ldrh	r2, [r3, #20]
ARM GAS  C:\Users\BG1026~1\AppData\Local\Temp\cc2n2B4u.s 			page 42


 939 002c 120B     		lsr	r2, r2, #12
 940 002e 1203     		lsl	r2, r2, #12
 941 0030 0A43     		orr	r2, r1
 942 0032 9A82     		strh	r2, [r3, #20]
1356:main.c        ****     led_buffer.led3  = led_vec[20];
 943              		.loc 1 1356 0
 944 0034 028D     		ldrh	r2, [r0, #40]
 945 0036 1205     		lsl	r2, r2, #20
 946 0038 110D     		lsr	r1, r2, #20
 947 003a DA8A     		ldrh	r2, [r3, #22]
 948 003c 120B     		lsr	r2, r2, #12
 949 003e 1203     		lsl	r2, r2, #12
 950 0040 0A43     		orr	r2, r1
 951 0042 DA82     		strh	r2, [r3, #22]
1357:main.c        ****     led_buffer.led4  = led_vec[19];
 952              		.loc 1 1357 0
 953 0044 C28C     		ldrh	r2, [r0, #38]
 954 0046 1205     		lsl	r2, r2, #20
 955 0048 110D     		lsr	r1, r2, #20
 956 004a 1A8B     		ldrh	r2, [r3, #24]
 957 004c 120B     		lsr	r2, r2, #12
 958 004e 1203     		lsl	r2, r2, #12
 959 0050 0A43     		orr	r2, r1
 960 0052 1A83     		strh	r2, [r3, #24]
1358:main.c        ****     led_buffer.led5  = led_vec[18];
 961              		.loc 1 1358 0
 962 0054 828C     		ldrh	r2, [r0, #36]
 963 0056 1205     		lsl	r2, r2, #20
 964 0058 110D     		lsr	r1, r2, #20
 965 005a 5A8B     		ldrh	r2, [r3, #26]
 966 005c 120B     		lsr	r2, r2, #12
 967 005e 1203     		lsl	r2, r2, #12
 968 0060 0A43     		orr	r2, r1
 969 0062 5A83     		strh	r2, [r3, #26]
1359:main.c        ****     led_buffer.led6  = led_vec[17];
 970              		.loc 1 1359 0
 971 0064 428C     		ldrh	r2, [r0, #34]
 972 0066 1205     		lsl	r2, r2, #20
 973 0068 110D     		lsr	r1, r2, #20
 974 006a 9A8B     		ldrh	r2, [r3, #28]
 975 006c 120B     		lsr	r2, r2, #12
 976 006e 1203     		lsl	r2, r2, #12
 977 0070 0A43     		orr	r2, r1
 978 0072 9A83     		strh	r2, [r3, #28]
1360:main.c        ****     led_buffer.led7  = led_vec[16];
 979              		.loc 1 1360 0
 980 0074 028C     		ldrh	r2, [r0, #32]
 981 0076 1205     		lsl	r2, r2, #20
 982 0078 110D     		lsr	r1, r2, #20
 983 007a DA8B     		ldrh	r2, [r3, #30]
 984 007c 120B     		lsr	r2, r2, #12
 985 007e 1203     		lsl	r2, r2, #12
 986 0080 0A43     		orr	r2, r1
 987 0082 DA83     		strh	r2, [r3, #30]
1361:main.c        ****     led_buffer.led8  = led_vec[15];
 988              		.loc 1 1361 0
 989 0084 C28B     		ldrh	r2, [r0, #30]
ARM GAS  C:\Users\BG1026~1\AppData\Local\Temp\cc2n2B4u.s 			page 43


 990 0086 1205     		lsl	r2, r2, #20
 991 0088 110D     		lsr	r1, r2, #20
 992 008a 1A8C     		ldrh	r2, [r3, #32]
 993 008c 120B     		lsr	r2, r2, #12
 994 008e 1203     		lsl	r2, r2, #12
 995 0090 0A43     		orr	r2, r1
 996 0092 1A84     		strh	r2, [r3, #32]
1362:main.c        ****     led_buffer.led9  = led_vec[14];
 997              		.loc 1 1362 0
 998 0094 828B     		ldrh	r2, [r0, #28]
 999 0096 1205     		lsl	r2, r2, #20
 1000 0098 110D     		lsr	r1, r2, #20
 1001 009a 5A8C     		ldrh	r2, [r3, #34]
 1002 009c 120B     		lsr	r2, r2, #12
 1003 009e 1203     		lsl	r2, r2, #12
 1004 00a0 0A43     		orr	r2, r1
 1005 00a2 5A84     		strh	r2, [r3, #34]
1363:main.c        ****     led_buffer.led10 = led_vec[13];
 1006              		.loc 1 1363 0
 1007 00a4 428B     		ldrh	r2, [r0, #26]
 1008 00a6 1205     		lsl	r2, r2, #20
 1009 00a8 110D     		lsr	r1, r2, #20
 1010 00aa 9A8C     		ldrh	r2, [r3, #36]
 1011 00ac 120B     		lsr	r2, r2, #12
 1012 00ae 1203     		lsl	r2, r2, #12
 1013 00b0 0A43     		orr	r2, r1
 1014 00b2 9A84     		strh	r2, [r3, #36]
1364:main.c        ****     led_buffer.led11 = led_vec[12];
 1015              		.loc 1 1364 0
 1016 00b4 028B     		ldrh	r2, [r0, #24]
 1017 00b6 1205     		lsl	r2, r2, #20
 1018 00b8 110D     		lsr	r1, r2, #20
 1019 00ba DA8C     		ldrh	r2, [r3, #38]
 1020 00bc 120B     		lsr	r2, r2, #12
 1021 00be 1203     		lsl	r2, r2, #12
 1022 00c0 0A43     		orr	r2, r1
 1023 00c2 DA84     		strh	r2, [r3, #38]
1365:main.c        ****     led_buffer.led12 = led_vec[11];
 1024              		.loc 1 1365 0
 1025 00c4 C28A     		ldrh	r2, [r0, #22]
 1026 00c6 1205     		lsl	r2, r2, #20
 1027 00c8 110D     		lsr	r1, r2, #20
 1028 00ca 1A8D     		ldrh	r2, [r3, #40]
 1029 00cc 120B     		lsr	r2, r2, #12
 1030 00ce 1203     		lsl	r2, r2, #12
 1031 00d0 0A43     		orr	r2, r1
 1032 00d2 1A85     		strh	r2, [r3, #40]
1366:main.c        ****     led_buffer.led13 = led_vec[10];
 1033              		.loc 1 1366 0
 1034 00d4 828A     		ldrh	r2, [r0, #20]
 1035 00d6 1205     		lsl	r2, r2, #20
 1036 00d8 110D     		lsr	r1, r2, #20
 1037 00da 5A8D     		ldrh	r2, [r3, #42]
 1038 00dc 120B     		lsr	r2, r2, #12
 1039 00de 1203     		lsl	r2, r2, #12
 1040 00e0 0A43     		orr	r2, r1
 1041 00e2 5A85     		strh	r2, [r3, #42]
ARM GAS  C:\Users\BG1026~1\AppData\Local\Temp\cc2n2B4u.s 			page 44


1367:main.c        ****     led_buffer.led14 = led_vec[ 9];
 1042              		.loc 1 1367 0
 1043 00e4 428A     		ldrh	r2, [r0, #18]
 1044 00e6 1205     		lsl	r2, r2, #20
 1045 00e8 110D     		lsr	r1, r2, #20
 1046 00ea 9A8D     		ldrh	r2, [r3, #44]
 1047 00ec 120B     		lsr	r2, r2, #12
 1048 00ee 1203     		lsl	r2, r2, #12
 1049 00f0 0A43     		orr	r2, r1
 1050 00f2 9A85     		strh	r2, [r3, #44]
1368:main.c        ****     led_buffer.led15 = led_vec[ 8];
 1051              		.loc 1 1368 0
 1052 00f4 028A     		ldrh	r2, [r0, #16]
 1053 00f6 1205     		lsl	r2, r2, #20
 1054 00f8 110D     		lsr	r1, r2, #20
 1055 00fa DA8D     		ldrh	r2, [r3, #46]
 1056 00fc 120B     		lsr	r2, r2, #12
 1057 00fe 1203     		lsl	r2, r2, #12
 1058 0100 0A43     		orr	r2, r1
 1059 0102 DA85     		strh	r2, [r3, #46]
1369:main.c        ****     led_buffer.led16 = led_vec[ 7];
 1060              		.loc 1 1369 0
 1061 0104 C289     		ldrh	r2, [r0, #14]
 1062 0106 1205     		lsl	r2, r2, #20
 1063 0108 110D     		lsr	r1, r2, #20
 1064 010a 1A8E     		ldrh	r2, [r3, #48]
 1065 010c 120B     		lsr	r2, r2, #12
 1066 010e 1203     		lsl	r2, r2, #12
 1067 0110 0A43     		orr	r2, r1
 1068 0112 1A86     		strh	r2, [r3, #48]
1370:main.c        ****     led_buffer.led17 = led_vec[ 6];
 1069              		.loc 1 1370 0
 1070 0114 8289     		ldrh	r2, [r0, #12]
 1071 0116 1205     		lsl	r2, r2, #20
 1072 0118 110D     		lsr	r1, r2, #20
 1073 011a 5A8E     		ldrh	r2, [r3, #50]
 1074 011c 120B     		lsr	r2, r2, #12
 1075 011e 1203     		lsl	r2, r2, #12
 1076 0120 0A43     		orr	r2, r1
 1077 0122 5A86     		strh	r2, [r3, #50]
1371:main.c        ****     led_buffer.led18 = led_vec[ 5];
 1078              		.loc 1 1371 0
 1079 0124 4289     		ldrh	r2, [r0, #10]
 1080 0126 1205     		lsl	r2, r2, #20
 1081 0128 110D     		lsr	r1, r2, #20
 1082 012a 9A8E     		ldrh	r2, [r3, #52]
 1083 012c 120B     		lsr	r2, r2, #12
 1084 012e 1203     		lsl	r2, r2, #12
 1085 0130 0A43     		orr	r2, r1
 1086 0132 9A86     		strh	r2, [r3, #52]
1372:main.c        ****     led_buffer.led19 = led_vec[ 4];
 1087              		.loc 1 1372 0
 1088 0134 0289     		ldrh	r2, [r0, #8]
 1089 0136 1205     		lsl	r2, r2, #20
 1090 0138 110D     		lsr	r1, r2, #20
 1091 013a DA8E     		ldrh	r2, [r3, #54]
 1092 013c 120B     		lsr	r2, r2, #12
ARM GAS  C:\Users\BG1026~1\AppData\Local\Temp\cc2n2B4u.s 			page 45


 1093 013e 1203     		lsl	r2, r2, #12
 1094 0140 0A43     		orr	r2, r1
 1095 0142 DA86     		strh	r2, [r3, #54]
1373:main.c        ****     led_buffer.led20 = led_vec[ 3];
 1096              		.loc 1 1373 0
 1097 0144 C288     		ldrh	r2, [r0, #6]
 1098 0146 1205     		lsl	r2, r2, #20
 1099 0148 110D     		lsr	r1, r2, #20
 1100 014a 1A8F     		ldrh	r2, [r3, #56]
 1101 014c 120B     		lsr	r2, r2, #12
 1102 014e 1203     		lsl	r2, r2, #12
 1103 0150 0A43     		orr	r2, r1
 1104 0152 1A87     		strh	r2, [r3, #56]
1374:main.c        ****     led_buffer.led21 = led_vec[ 2];
 1105              		.loc 1 1374 0
 1106 0154 8288     		ldrh	r2, [r0, #4]
 1107 0156 1205     		lsl	r2, r2, #20
 1108 0158 110D     		lsr	r1, r2, #20
 1109 015a 5A8F     		ldrh	r2, [r3, #58]
 1110 015c 120B     		lsr	r2, r2, #12
 1111 015e 1203     		lsl	r2, r2, #12
 1112 0160 0A43     		orr	r2, r1
 1113 0162 5A87     		strh	r2, [r3, #58]
1375:main.c        ****     led_buffer.led22 = led_vec[ 1];
 1114              		.loc 1 1375 0
 1115 0164 4288     		ldrh	r2, [r0, #2]
 1116 0166 1205     		lsl	r2, r2, #20
 1117 0168 110D     		lsr	r1, r2, #20
 1118 016a 9A8F     		ldrh	r2, [r3, #60]
 1119 016c 120B     		lsr	r2, r2, #12
 1120 016e 1203     		lsl	r2, r2, #12
 1121 0170 0A43     		orr	r2, r1
 1122 0172 9A87     		strh	r2, [r3, #60]
1376:main.c        ****     led_buffer.led23 = led_vec[ 0];
 1123              		.loc 1 1376 0
 1124 0174 0288     		ldrh	r2, [r0]
 1125 0176 1205     		lsl	r2, r2, #20
 1126 0178 110D     		lsr	r1, r2, #20
 1127 017a DA8F     		ldrh	r2, [r3, #62]
 1128 017c 120B     		lsr	r2, r2, #12
 1129 017e 1203     		lsl	r2, r2, #12
 1130 0180 0A43     		orr	r2, r1
 1131 0182 DA87     		strh	r2, [r3, #62]
1377:main.c        **** 
1378:main.c        ****     SPIM_SpiUartPutArray((const uint16*)&led_buffer, sizeof(led_buffer) / sizeof(uint16));
 1132              		.loc 1 1378 0
 1133 0184 1033     		add	r3, r3, #16
 1134 0186 181C     		mov	r0, r3
 1135              	.LVL124:
 1136 0188 1821     		mov	r1, #24
 1137 018a FFF7FEFF 		bl	SPIM_SpiUartPutArray
 1138              	.LVL125:
1379:main.c        ****     Latch_Write(1);
 1139              		.loc 1 1379 0
 1140 018e 0120     		mov	r0, #1
 1141 0190 FFF7FEFF 		bl	Latch_Write
 1142              	.LVL126:
ARM GAS  C:\Users\BG1026~1\AppData\Local\Temp\cc2n2B4u.s 			page 46


1380:main.c        ****     CyDelayUs  (1);
 1143              		.loc 1 1380 0
 1144 0194 0120     		mov	r0, #1
 1145 0196 FFF7FEFF 		bl	CyDelayUs
 1146              	.LVL127:
1381:main.c        ****     Latch_Write(0);
 1147              		.loc 1 1381 0
 1148 019a 0020     		mov	r0, #0
 1149 019c FFF7FEFF 		bl	Latch_Write
 1150              	.LVL128:
1382:main.c        **** }// set_led
 1151              		.loc 1 1382 0
 1152              		@ sp needed
 1153 01a0 08BD     		pop	{r3, pc}
 1154              	.L67:
 1155 01a2 C046     		.align	2
 1156              	.L66:
 1157 01a4 00000000 		.word	.LANCHOR0
 1158              		.cfi_endproc
 1159              	.LFE61:
 1160              		.size	set_led_strip, .-set_led_strip
 1161              		.section	.text.set_led,"ax",%progbits
 1162              		.align	2
 1163              		.global	set_led
 1164              		.code	16
 1165              		.thumb_func
 1166              		.type	set_led, %function
 1167              	set_led:
 1168              	.LFB62:
1383:main.c        **** 
1384:main.c        **** void set_led (char led, uint16 intensity)
1385:main.c        **** {
 1169              		.loc 1 1385 0
 1170              		.cfi_startproc
 1171              	.LVL129:
 1172 0000 08B5     		push	{r3, lr}
 1173              		.cfi_def_cfa_offset 8
 1174              		.cfi_offset 3, -8
 1175              		.cfi_offset 14, -4
 1176              	.LVL130:
1386:main.c        ****     uint16  set_value = intensity; // min(intensity, MAX_INTENSITY);
1387:main.c        ****     uint16  led_min   = min(led, MAX_LEDS - 1);
 1177              		.loc 1 1387 0
 1178 0002 1628     		cmp	r0, #22
 1179 0004 01D8     		bhi	.L97
 1180              		.loc 1 1387 0 is_stmt 0 discriminator 1
 1181 0006 80B2     		uxth	r0, r0
 1182              	.LVL131:
 1183 0008 00E0     		b	.L69
 1184              	.LVL132:
 1185              	.L97:
 1186              		.loc 1 1387 0
 1187 000a 1720     		mov	r0, #23
 1188              	.LVL133:
 1189              	.L69:
1388:main.c        **** 
1389:main.c        ****     switch (led_min)
ARM GAS  C:\Users\BG1026~1\AppData\Local\Temp\cc2n2B4u.s 			page 47


 1190              		.loc 1 1389 0 is_stmt 1 discriminator 4
 1191 000c 1728     		cmp	r0, #23
 1192 000e 00D9     		bls	.LCB1177
 1193 0010 E8E0     		b	.L68	@long jump
 1194              	.LCB1177:
 1195 0012 8000     		lsl	r0, r0, #2
 1196              	.LVL134:
 1197 0014 744B     		ldr	r3, .L98
 1198 0016 1B58     		ldr	r3, [r3, r0]
 1199 0018 9F46     		mov	pc, r3
 1200              		.section	.rodata
 1201              		.align	2
 1202              	.L72:
 1203 0000 B8010000 		.word	.L71
 1204 0004 A6010000 		.word	.L73
 1205 0008 94010000 		.word	.L74
 1206 000c 82010000 		.word	.L75
 1207 0010 70010000 		.word	.L76
 1208 0014 5E010000 		.word	.L77
 1209 0018 4C010000 		.word	.L78
 1210 001c 3A010000 		.word	.L79
 1211 0020 28010000 		.word	.L80
 1212 0024 16010000 		.word	.L81
 1213 0028 04010000 		.word	.L82
 1214 002c F2000000 		.word	.L83
 1215 0030 E0000000 		.word	.L84
 1216 0034 CE000000 		.word	.L85
 1217 0038 BC000000 		.word	.L86
 1218 003c AA000000 		.word	.L87
 1219 0040 98000000 		.word	.L88
 1220 0044 86000000 		.word	.L89
 1221 0048 74000000 		.word	.L90
 1222 004c 62000000 		.word	.L91
 1223 0050 50000000 		.word	.L92
 1224 0054 3E000000 		.word	.L93
 1225 0058 2C000000 		.word	.L94
 1226 005c 1A000000 		.word	.L95
 1227              		.section	.text.set_led
 1228              	.L95:
1390:main.c        ****     {
1391:main.c        ****         case 23: led_buffer.led0  = set_value;   
 1229              		.loc 1 1391 0
 1230 001a 744A     		ldr	r2, .L98+4
 1231 001c 0905     		lsl	r1, r1, #20
 1232              	.LVL135:
 1233 001e 0B0D     		lsr	r3, r1, #20
 1234 0020 118A     		ldrh	r1, [r2, #16]
 1235 0022 090B     		lsr	r1, r1, #12
 1236 0024 0903     		lsl	r1, r1, #12
 1237 0026 1943     		orr	r1, r3
 1238 0028 1182     		strh	r1, [r2, #16]
1392:main.c        ****                  break;
 1239              		.loc 1 1392 0
 1240 002a CDE0     		b	.L96
 1241              	.LVL136:
 1242              	.L94:
1393:main.c        ****         case 22: led_buffer.led1  = set_value;   
ARM GAS  C:\Users\BG1026~1\AppData\Local\Temp\cc2n2B4u.s 			page 48


 1243              		.loc 1 1393 0
 1244 002c 6F4A     		ldr	r2, .L98+4
 1245 002e 0905     		lsl	r1, r1, #20
 1246              	.LVL137:
 1247 0030 0B0D     		lsr	r3, r1, #20
 1248 0032 518A     		ldrh	r1, [r2, #18]
 1249 0034 090B     		lsr	r1, r1, #12
 1250 0036 0903     		lsl	r1, r1, #12
 1251 0038 1943     		orr	r1, r3
 1252 003a 5182     		strh	r1, [r2, #18]
1394:main.c        ****                  break;
 1253              		.loc 1 1394 0
 1254 003c C4E0     		b	.L96
 1255              	.LVL138:
 1256              	.L93:
1395:main.c        ****         case 21: led_buffer.led2  = set_value;   
 1257              		.loc 1 1395 0
 1258 003e 6B4A     		ldr	r2, .L98+4
 1259 0040 0905     		lsl	r1, r1, #20
 1260              	.LVL139:
 1261 0042 0B0D     		lsr	r3, r1, #20
 1262 0044 918A     		ldrh	r1, [r2, #20]
 1263 0046 090B     		lsr	r1, r1, #12
 1264 0048 0903     		lsl	r1, r1, #12
 1265 004a 1943     		orr	r1, r3
 1266 004c 9182     		strh	r1, [r2, #20]
1396:main.c        ****                  break;
 1267              		.loc 1 1396 0
 1268 004e BBE0     		b	.L96
 1269              	.LVL140:
 1270              	.L92:
1397:main.c        ****         case 20: led_buffer.led3  = set_value;   
 1271              		.loc 1 1397 0
 1272 0050 664A     		ldr	r2, .L98+4
 1273 0052 0905     		lsl	r1, r1, #20
 1274              	.LVL141:
 1275 0054 0B0D     		lsr	r3, r1, #20
 1276 0056 D18A     		ldrh	r1, [r2, #22]
 1277 0058 090B     		lsr	r1, r1, #12
 1278 005a 0903     		lsl	r1, r1, #12
 1279 005c 1943     		orr	r1, r3
 1280 005e D182     		strh	r1, [r2, #22]
1398:main.c        ****                  break;
 1281              		.loc 1 1398 0
 1282 0060 B2E0     		b	.L96
 1283              	.LVL142:
 1284              	.L91:
1399:main.c        ****         case 19: led_buffer.led4  = set_value;   
 1285              		.loc 1 1399 0
 1286 0062 624A     		ldr	r2, .L98+4
 1287 0064 0905     		lsl	r1, r1, #20
 1288              	.LVL143:
 1289 0066 0B0D     		lsr	r3, r1, #20
 1290 0068 118B     		ldrh	r1, [r2, #24]
 1291 006a 090B     		lsr	r1, r1, #12
 1292 006c 0903     		lsl	r1, r1, #12
 1293 006e 1943     		orr	r1, r3
ARM GAS  C:\Users\BG1026~1\AppData\Local\Temp\cc2n2B4u.s 			page 49


 1294 0070 1183     		strh	r1, [r2, #24]
1400:main.c        ****                  break;
 1295              		.loc 1 1400 0
 1296 0072 A9E0     		b	.L96
 1297              	.LVL144:
 1298              	.L90:
1401:main.c        ****         case 18: led_buffer.led5  = set_value;   
 1299              		.loc 1 1401 0
 1300 0074 5D4A     		ldr	r2, .L98+4
 1301 0076 0905     		lsl	r1, r1, #20
 1302              	.LVL145:
 1303 0078 0B0D     		lsr	r3, r1, #20
 1304 007a 518B     		ldrh	r1, [r2, #26]
 1305 007c 090B     		lsr	r1, r1, #12
 1306 007e 0903     		lsl	r1, r1, #12
 1307 0080 1943     		orr	r1, r3
 1308 0082 5183     		strh	r1, [r2, #26]
1402:main.c        ****                  break;
 1309              		.loc 1 1402 0
 1310 0084 A0E0     		b	.L96
 1311              	.LVL146:
 1312              	.L89:
1403:main.c        ****         case 17: led_buffer.led6  = set_value;   
 1313              		.loc 1 1403 0
 1314 0086 594A     		ldr	r2, .L98+4
 1315 0088 0905     		lsl	r1, r1, #20
 1316              	.LVL147:
 1317 008a 0B0D     		lsr	r3, r1, #20
 1318 008c 918B     		ldrh	r1, [r2, #28]
 1319 008e 090B     		lsr	r1, r1, #12
 1320 0090 0903     		lsl	r1, r1, #12
 1321 0092 1943     		orr	r1, r3
 1322 0094 9183     		strh	r1, [r2, #28]
1404:main.c        ****                  break;
 1323              		.loc 1 1404 0
 1324 0096 97E0     		b	.L96
 1325              	.LVL148:
 1326              	.L88:
1405:main.c        ****         case 16: led_buffer.led7  = set_value;   
 1327              		.loc 1 1405 0
 1328 0098 544A     		ldr	r2, .L98+4
 1329 009a 0905     		lsl	r1, r1, #20
 1330              	.LVL149:
 1331 009c 0B0D     		lsr	r3, r1, #20
 1332 009e D18B     		ldrh	r1, [r2, #30]
 1333 00a0 090B     		lsr	r1, r1, #12
 1334 00a2 0903     		lsl	r1, r1, #12
 1335 00a4 1943     		orr	r1, r3
 1336 00a6 D183     		strh	r1, [r2, #30]
1406:main.c        ****                  break;
 1337              		.loc 1 1406 0
 1338 00a8 8EE0     		b	.L96
 1339              	.LVL150:
 1340              	.L87:
1407:main.c        ****         case 15: led_buffer.led8  = set_value;   
 1341              		.loc 1 1407 0
 1342 00aa 504A     		ldr	r2, .L98+4
ARM GAS  C:\Users\BG1026~1\AppData\Local\Temp\cc2n2B4u.s 			page 50


 1343 00ac 0905     		lsl	r1, r1, #20
 1344              	.LVL151:
 1345 00ae 0B0D     		lsr	r3, r1, #20
 1346 00b0 118C     		ldrh	r1, [r2, #32]
 1347 00b2 090B     		lsr	r1, r1, #12
 1348 00b4 0903     		lsl	r1, r1, #12
 1349 00b6 1943     		orr	r1, r3
 1350 00b8 1184     		strh	r1, [r2, #32]
1408:main.c        ****                  break;
 1351              		.loc 1 1408 0
 1352 00ba 85E0     		b	.L96
 1353              	.LVL152:
 1354              	.L86:
1409:main.c        ****         case 14: led_buffer.led9  = set_value;   
 1355              		.loc 1 1409 0
 1356 00bc 4B4A     		ldr	r2, .L98+4
 1357 00be 0905     		lsl	r1, r1, #20
 1358              	.LVL153:
 1359 00c0 0B0D     		lsr	r3, r1, #20
 1360 00c2 518C     		ldrh	r1, [r2, #34]
 1361 00c4 090B     		lsr	r1, r1, #12
 1362 00c6 0903     		lsl	r1, r1, #12
 1363 00c8 1943     		orr	r1, r3
 1364 00ca 5184     		strh	r1, [r2, #34]
1410:main.c        ****                  break;
 1365              		.loc 1 1410 0
 1366 00cc 7CE0     		b	.L96
 1367              	.LVL154:
 1368              	.L85:
1411:main.c        ****         case 13: led_buffer.led10 = set_value;   
 1369              		.loc 1 1411 0
 1370 00ce 474A     		ldr	r2, .L98+4
 1371 00d0 0905     		lsl	r1, r1, #20
 1372              	.LVL155:
 1373 00d2 0B0D     		lsr	r3, r1, #20
 1374 00d4 918C     		ldrh	r1, [r2, #36]
 1375 00d6 090B     		lsr	r1, r1, #12
 1376 00d8 0903     		lsl	r1, r1, #12
 1377 00da 1943     		orr	r1, r3
 1378 00dc 9184     		strh	r1, [r2, #36]
1412:main.c        ****                  break;
 1379              		.loc 1 1412 0
 1380 00de 73E0     		b	.L96
 1381              	.LVL156:
 1382              	.L84:
1413:main.c        ****         case 12: led_buffer.led11 = set_value;   
 1383              		.loc 1 1413 0
 1384 00e0 424A     		ldr	r2, .L98+4
 1385 00e2 0905     		lsl	r1, r1, #20
 1386              	.LVL157:
 1387 00e4 0B0D     		lsr	r3, r1, #20
 1388 00e6 D18C     		ldrh	r1, [r2, #38]
 1389 00e8 090B     		lsr	r1, r1, #12
 1390 00ea 0903     		lsl	r1, r1, #12
 1391 00ec 1943     		orr	r1, r3
 1392 00ee D184     		strh	r1, [r2, #38]
1414:main.c        ****                  break;
ARM GAS  C:\Users\BG1026~1\AppData\Local\Temp\cc2n2B4u.s 			page 51


 1393              		.loc 1 1414 0
 1394 00f0 6AE0     		b	.L96
 1395              	.LVL158:
 1396              	.L83:
1415:main.c        ****         case 11: led_buffer.led12 = set_value;   
 1397              		.loc 1 1415 0
 1398 00f2 3E4A     		ldr	r2, .L98+4
 1399 00f4 0905     		lsl	r1, r1, #20
 1400              	.LVL159:
 1401 00f6 0B0D     		lsr	r3, r1, #20
 1402 00f8 118D     		ldrh	r1, [r2, #40]
 1403 00fa 090B     		lsr	r1, r1, #12
 1404 00fc 0903     		lsl	r1, r1, #12
 1405 00fe 1943     		orr	r1, r3
 1406 0100 1185     		strh	r1, [r2, #40]
1416:main.c        ****                  break;
 1407              		.loc 1 1416 0
 1408 0102 61E0     		b	.L96
 1409              	.LVL160:
 1410              	.L82:
1417:main.c        ****         case 10: led_buffer.led13 = set_value;   
 1411              		.loc 1 1417 0
 1412 0104 394A     		ldr	r2, .L98+4
 1413 0106 0905     		lsl	r1, r1, #20
 1414              	.LVL161:
 1415 0108 0B0D     		lsr	r3, r1, #20
 1416 010a 518D     		ldrh	r1, [r2, #42]
 1417 010c 090B     		lsr	r1, r1, #12
 1418 010e 0903     		lsl	r1, r1, #12
 1419 0110 1943     		orr	r1, r3
 1420 0112 5185     		strh	r1, [r2, #42]
1418:main.c        ****                  break;
 1421              		.loc 1 1418 0
 1422 0114 58E0     		b	.L96
 1423              	.LVL162:
 1424              	.L81:
1419:main.c        ****         case  9: led_buffer.led14 = set_value;   
 1425              		.loc 1 1419 0
 1426 0116 354A     		ldr	r2, .L98+4
 1427 0118 0905     		lsl	r1, r1, #20
 1428              	.LVL163:
 1429 011a 0B0D     		lsr	r3, r1, #20
 1430 011c 918D     		ldrh	r1, [r2, #44]
 1431 011e 090B     		lsr	r1, r1, #12
 1432 0120 0903     		lsl	r1, r1, #12
 1433 0122 1943     		orr	r1, r3
 1434 0124 9185     		strh	r1, [r2, #44]
1420:main.c        ****                  break;
 1435              		.loc 1 1420 0
 1436 0126 4FE0     		b	.L96
 1437              	.LVL164:
 1438              	.L80:
1421:main.c        ****         case  8: led_buffer.led15 = set_value;   
 1439              		.loc 1 1421 0
 1440 0128 304A     		ldr	r2, .L98+4
 1441 012a 0905     		lsl	r1, r1, #20
 1442              	.LVL165:
ARM GAS  C:\Users\BG1026~1\AppData\Local\Temp\cc2n2B4u.s 			page 52


 1443 012c 0B0D     		lsr	r3, r1, #20
 1444 012e D18D     		ldrh	r1, [r2, #46]
 1445 0130 090B     		lsr	r1, r1, #12
 1446 0132 0903     		lsl	r1, r1, #12
 1447 0134 1943     		orr	r1, r3
 1448 0136 D185     		strh	r1, [r2, #46]
1422:main.c        ****                  break;
 1449              		.loc 1 1422 0
 1450 0138 46E0     		b	.L96
 1451              	.LVL166:
 1452              	.L79:
1423:main.c        ****         case  7: led_buffer.led16 = set_value;   
 1453              		.loc 1 1423 0
 1454 013a 2C4A     		ldr	r2, .L98+4
 1455 013c 0905     		lsl	r1, r1, #20
 1456              	.LVL167:
 1457 013e 0B0D     		lsr	r3, r1, #20
 1458 0140 118E     		ldrh	r1, [r2, #48]
 1459 0142 090B     		lsr	r1, r1, #12
 1460 0144 0903     		lsl	r1, r1, #12
 1461 0146 1943     		orr	r1, r3
 1462 0148 1186     		strh	r1, [r2, #48]
1424:main.c        ****                  break;
 1463              		.loc 1 1424 0
 1464 014a 3DE0     		b	.L96
 1465              	.LVL168:
 1466              	.L78:
1425:main.c        ****         case  6: led_buffer.led17 = set_value;   
 1467              		.loc 1 1425 0
 1468 014c 274A     		ldr	r2, .L98+4
 1469 014e 0905     		lsl	r1, r1, #20
 1470              	.LVL169:
 1471 0150 0B0D     		lsr	r3, r1, #20
 1472 0152 518E     		ldrh	r1, [r2, #50]
 1473 0154 090B     		lsr	r1, r1, #12
 1474 0156 0903     		lsl	r1, r1, #12
 1475 0158 1943     		orr	r1, r3
 1476 015a 5186     		strh	r1, [r2, #50]
1426:main.c        ****                  break;
 1477              		.loc 1 1426 0
 1478 015c 34E0     		b	.L96
 1479              	.LVL170:
 1480              	.L77:
1427:main.c        ****         case  5: led_buffer.led18 = set_value;   
 1481              		.loc 1 1427 0
 1482 015e 234A     		ldr	r2, .L98+4
 1483 0160 0905     		lsl	r1, r1, #20
 1484              	.LVL171:
 1485 0162 0B0D     		lsr	r3, r1, #20
 1486 0164 918E     		ldrh	r1, [r2, #52]
 1487 0166 090B     		lsr	r1, r1, #12
 1488 0168 0903     		lsl	r1, r1, #12
 1489 016a 1943     		orr	r1, r3
 1490 016c 9186     		strh	r1, [r2, #52]
1428:main.c        ****                  break;
 1491              		.loc 1 1428 0
 1492 016e 2BE0     		b	.L96
ARM GAS  C:\Users\BG1026~1\AppData\Local\Temp\cc2n2B4u.s 			page 53


 1493              	.LVL172:
 1494              	.L76:
1429:main.c        ****         case  4: led_buffer.led19 = set_value;   
 1495              		.loc 1 1429 0
 1496 0170 1E4A     		ldr	r2, .L98+4
 1497 0172 0905     		lsl	r1, r1, #20
 1498              	.LVL173:
 1499 0174 0B0D     		lsr	r3, r1, #20
 1500 0176 D18E     		ldrh	r1, [r2, #54]
 1501 0178 090B     		lsr	r1, r1, #12
 1502 017a 0903     		lsl	r1, r1, #12
 1503 017c 1943     		orr	r1, r3
 1504 017e D186     		strh	r1, [r2, #54]
1430:main.c        ****                  break;
 1505              		.loc 1 1430 0
 1506 0180 22E0     		b	.L96
 1507              	.LVL174:
 1508              	.L75:
1431:main.c        ****         case  3: led_buffer.led20 = set_value;   
 1509              		.loc 1 1431 0
 1510 0182 1A4A     		ldr	r2, .L98+4
 1511 0184 0905     		lsl	r1, r1, #20
 1512              	.LVL175:
 1513 0186 0B0D     		lsr	r3, r1, #20
 1514 0188 118F     		ldrh	r1, [r2, #56]
 1515 018a 090B     		lsr	r1, r1, #12
 1516 018c 0903     		lsl	r1, r1, #12
 1517 018e 1943     		orr	r1, r3
 1518 0190 1187     		strh	r1, [r2, #56]
1432:main.c        ****                  break;
 1519              		.loc 1 1432 0
 1520 0192 19E0     		b	.L96
 1521              	.LVL176:
 1522              	.L74:
1433:main.c        ****         case  2: led_buffer.led21 = set_value; 
 1523              		.loc 1 1433 0
 1524 0194 154A     		ldr	r2, .L98+4
 1525 0196 0905     		lsl	r1, r1, #20
 1526              	.LVL177:
 1527 0198 0B0D     		lsr	r3, r1, #20
 1528 019a 518F     		ldrh	r1, [r2, #58]
 1529 019c 090B     		lsr	r1, r1, #12
 1530 019e 0903     		lsl	r1, r1, #12
 1531 01a0 1943     		orr	r1, r3
 1532 01a2 5187     		strh	r1, [r2, #58]
1434:main.c        ****                  break;
 1533              		.loc 1 1434 0
 1534 01a4 10E0     		b	.L96
 1535              	.LVL178:
 1536              	.L73:
1435:main.c        ****         case  1: led_buffer.led22 = set_value;   
 1537              		.loc 1 1435 0
 1538 01a6 114A     		ldr	r2, .L98+4
 1539 01a8 0905     		lsl	r1, r1, #20
 1540              	.LVL179:
 1541 01aa 0B0D     		lsr	r3, r1, #20
 1542 01ac 918F     		ldrh	r1, [r2, #60]
ARM GAS  C:\Users\BG1026~1\AppData\Local\Temp\cc2n2B4u.s 			page 54


 1543 01ae 090B     		lsr	r1, r1, #12
 1544 01b0 0903     		lsl	r1, r1, #12
 1545 01b2 1943     		orr	r1, r3
 1546 01b4 9187     		strh	r1, [r2, #60]
1436:main.c        ****                  break;
 1547              		.loc 1 1436 0
 1548 01b6 07E0     		b	.L96
 1549              	.LVL180:
 1550              	.L71:
1437:main.c        ****         case  0: led_buffer.led23 = set_value; 
 1551              		.loc 1 1437 0
 1552 01b8 0C4A     		ldr	r2, .L98+4
 1553 01ba 0905     		lsl	r1, r1, #20
 1554              	.LVL181:
 1555 01bc 0B0D     		lsr	r3, r1, #20
 1556 01be D18F     		ldrh	r1, [r2, #62]
 1557 01c0 090B     		lsr	r1, r1, #12
 1558 01c2 0903     		lsl	r1, r1, #12
 1559 01c4 1943     		orr	r1, r3
 1560 01c6 D187     		strh	r1, [r2, #62]
 1561              	.L96:
1438:main.c        ****                  break;
1439:main.c        ****         default: return;
1440:main.c        ****     }
1441:main.c        ****     
1442:main.c        ****     SPIM_SpiUartPutArray((const uint16*)&led_buffer, sizeof(led_buffer) / sizeof(uint16));
 1562              		.loc 1 1442 0
 1563 01c8 0848     		ldr	r0, .L98+4
 1564 01ca 1030     		add	r0, r0, #16
 1565 01cc 1821     		mov	r1, #24
 1566 01ce FFF7FEFF 		bl	SPIM_SpiUartPutArray
 1567              	.LVL182:
1443:main.c        ****     Latch_Write(1);
 1568              		.loc 1 1443 0
 1569 01d2 0120     		mov	r0, #1
 1570 01d4 FFF7FEFF 		bl	Latch_Write
 1571              	.LVL183:
1444:main.c        ****     CyDelayUs  (1);
 1572              		.loc 1 1444 0
 1573 01d8 0120     		mov	r0, #1
 1574 01da FFF7FEFF 		bl	CyDelayUs
 1575              	.LVL184:
1445:main.c        ****     Latch_Write(0);
 1576              		.loc 1 1445 0
 1577 01de 0020     		mov	r0, #0
 1578 01e0 FFF7FEFF 		bl	Latch_Write
 1579              	.LVL185:
 1580              	.L68:
1446:main.c        **** }// set_led
 1581              		.loc 1 1446 0
 1582              		@ sp needed
 1583 01e4 08BD     		pop	{r3, pc}
 1584              	.L99:
 1585 01e6 C046     		.align	2
 1586              	.L98:
 1587 01e8 00000000 		.word	.L72
 1588 01ec 00000000 		.word	.LANCHOR0
ARM GAS  C:\Users\BG1026~1\AppData\Local\Temp\cc2n2B4u.s 			page 55


 1589              		.cfi_endproc
 1590              	.LFE62:
 1591              		.size	set_led, .-set_led
 1592              		.section	.text.display_button,"ax",%progbits
 1593              		.align	2
 1594              		.global	display_button
 1595              		.code	16
 1596              		.thumb_func
 1597              		.type	display_button, %function
 1598              	display_button:
 1599              	.LFB48:
 995:main.c        **** #if 1    
 1600              		.loc 1 995 0
 1601              		.cfi_startproc
 1602              	.LVL186:
 1603 0000 F8B5     		push	{r3, r4, r5, r6, r7, lr}
 1604              		.cfi_def_cfa_offset 24
 1605              		.cfi_offset 3, -24
 1606              		.cfi_offset 4, -20
 1607              		.cfi_offset 5, -16
 1608              		.cfi_offset 6, -12
 1609              		.cfi_offset 7, -8
 1610              		.cfi_offset 14, -4
 1611 0002 0D1C     		mov	r5, r1
 997:main.c        ****     uint16 led_stop  = led_start + button_width;
 1612              		.loc 1 997 0
 1613 0004 5043     		mul	r0, r2
 1614              	.LVL187:
 1615 0006 84B2     		uxth	r4, r0
 1616 0008 601C     		add	r0, r4, #1
 1617 000a 80B2     		uxth	r0, r0
 1618              	.LVL188:
 998:main.c        ****     uint16 i;
 1619              		.loc 1 998 0
 1620 000c 8218     		add	r2, r0, r2
 1621              	.LVL189:
 1622 000e 96B2     		uxth	r6, r2
 1623              	.LVL190:
1001:main.c        ****     set_led(led_stop , intensity / 2);
 1624              		.loc 1 1001 0
 1625 0010 4F08     		lsr	r7, r1, #1
 1626 0012 C0B2     		uxtb	r0, r0
 1627              	.LVL191:
 1628 0014 391C     		mov	r1, r7
 1629              	.LVL192:
 1630 0016 FFF7FEFF 		bl	set_led
 1631              	.LVL193:
1002:main.c        ****     
 1632              		.loc 1 1002 0
 1633 001a F0B2     		uxtb	r0, r6
 1634 001c 391C     		mov	r1, r7
 1635 001e FFF7FEFF 		bl	set_led
 1636              	.LVL194:
1004:main.c        ****     {
 1637              		.loc 1 1004 0
 1638 0022 0234     		add	r4, r4, #2
 1639              	.LVL195:
ARM GAS  C:\Users\BG1026~1\AppData\Local\Temp\cc2n2B4u.s 			page 56


 1640 0024 A4B2     		uxth	r4, r4
 1641              	.LVL196:
 1642 0026 05E0     		b	.L101
 1643              	.L102:
1006:main.c        ****     }
 1644              		.loc 1 1006 0 discriminator 3
 1645 0028 E0B2     		uxtb	r0, r4
 1646 002a 291C     		mov	r1, r5
 1647 002c FFF7FEFF 		bl	set_led
 1648              	.LVL197:
1004:main.c        ****     {
 1649              		.loc 1 1004 0 discriminator 3
 1650 0030 0134     		add	r4, r4, #1
 1651              	.LVL198:
 1652 0032 A4B2     		uxth	r4, r4
 1653              	.LVL199:
 1654              	.L101:
1004:main.c        ****     {
 1655              		.loc 1 1004 0 is_stmt 0 discriminator 1
 1656 0034 B442     		cmp	r4, r6
 1657 0036 F7D3     		bcc	.L102
1043:main.c        **** 
 1658              		.loc 1 1043 0 is_stmt 1
 1659              		@ sp needed
 1660              	.LVL200:
 1661              	.LVL201:
 1662 0038 F8BD     		pop	{r3, r4, r5, r6, r7, pc}
 1663              		.cfi_endproc
 1664              	.LFE48:
 1665              		.size	display_button, .-display_button
 1666              		.global	__aeabi_uidiv
 1667 003a C046     		.section	.text.display_state,"ax",%progbits
 1668              		.align	2
 1669              		.global	display_state
 1670              		.code	16
 1671              		.thumb_func
 1672              		.type	display_state, %function
 1673              	display_state:
 1674              	.LFB49:
1046:main.c        ****     int    new_led_pos  = 0;
 1675              		.loc 1 1046 0
 1676              		.cfi_startproc
 1677 0000 F8B5     		push	{r3, r4, r5, r6, r7, lr}
 1678              		.cfi_def_cfa_offset 24
 1679              		.cfi_offset 3, -24
 1680              		.cfi_offset 4, -20
 1681              		.cfi_offset 5, -16
 1682              		.cfi_offset 6, -12
 1683              		.cfi_offset 7, -8
 1684              		.cfi_offset 14, -4
 1685              	.LVL202:
1048:main.c        ****     uint16 button_width = NUMBER_OF_WHITE_LEDS / number_of_buttons;
 1686              		.loc 1 1048 0
 1687 0002 1E4D     		ldr	r5, .L107
 1688 0004 2C88     		ldrh	r4, [r5]
 1689 0006 6420     		mov	r0, #100
 1690 0008 211C     		mov	r1, r4
ARM GAS  C:\Users\BG1026~1\AppData\Local\Temp\cc2n2B4u.s 			page 57


 1691 000a FFF7FEFF 		bl	__aeabi_idiv
 1692              	.LVL203:
 1693 000e 86B2     		uxth	r6, r0
 1694              	.LVL204:
1049:main.c        **** 
 1695              		.loc 1 1049 0
 1696 0010 0F20     		mov	r0, #15
 1697 0012 211C     		mov	r1, r4
 1698 0014 FFF7FEFF 		bl	__aeabi_idiv
 1699              	.LVL205:
 1700 0018 87B2     		uxth	r7, r0
 1701              	.LVL206:
1051:main.c        ****     {
 1702              		.loc 1 1051 0
 1703 001a 6C88     		ldrh	r4, [r5, #2]
 1704 001c AB88     		ldrh	r3, [r5, #4]
 1705 001e 9C42     		cmp	r4, r3
 1706 0020 2AD0     		beq	.L103
1053:main.c        ****         new_led_pos = cap_cur_pos / led_buckets;
 1707              		.loc 1 1053 0
 1708 0022 AC80     		strh	r4, [r5, #4]
1054:main.c        ****         if ((cap_cur_pos != 0u) && (new_led_pos != led_pos) && (new_led_pos >= 0) && (new_led_pos <
 1709              		.loc 1 1054 0
 1710 0024 201C     		mov	r0, r4
 1711 0026 311C     		mov	r1, r6
 1712 0028 FFF7FEFF 		bl	__aeabi_uidiv
 1713              	.LVL207:
 1714 002c 85B2     		uxth	r5, r0
 1715              	.LVL208:
1055:main.c        ****         {
 1716              		.loc 1 1055 0
 1717 002e 002C     		cmp	r4, #0
 1718 0030 22D0     		beq	.L103
1055:main.c        ****         {
 1719              		.loc 1 1055 0 is_stmt 0 discriminator 1
 1720 0032 124A     		ldr	r2, .L107
 1721 0034 D088     		ldrh	r0, [r2, #6]
 1722 0036 A842     		cmp	r0, r5
 1723 0038 1ED0     		beq	.L103
1055:main.c        ****         {
 1724              		.loc 1 1055 0 discriminator 3
 1725 003a 0E2D     		cmp	r5, #14
 1726 003c 1CDC     		bgt	.L103
1057:main.c        ****             {
 1727              		.loc 1 1057 0 is_stmt 1
 1728 003e 137A     		ldrb	r3, [r2, #8]
 1729 0040 002B     		cmp	r3, #0
 1730 0042 13D0     		beq	.L105
1059:main.c        ****                 {
 1731              		.loc 1 1059 0
 1732 0044 012F     		cmp	r7, #1
 1733 0046 09D9     		bls	.L106
1061:main.c        ****                     display_button(new_led_pos, MAX_INTENSITY, button_width);
 1734              		.loc 1 1061 0
 1735 0048 0021     		mov	r1, #0
 1736 004a 3A1C     		mov	r2, r7
 1737 004c FFF7FEFF 		bl	display_button
ARM GAS  C:\Users\BG1026~1\AppData\Local\Temp\cc2n2B4u.s 			page 58


 1738              	.LVL209:
1062:main.c        ****                 }
 1739              		.loc 1 1062 0
 1740 0050 281C     		mov	r0, r5
 1741 0052 0B49     		ldr	r1, .L107+4
 1742 0054 3A1C     		mov	r2, r7
 1743 0056 FFF7FEFF 		bl	display_button
 1744              	.LVL210:
 1745 005a 07E0     		b	.L105
 1746              	.L106:
1066:main.c        ****                     set_led(new_led_pos, MAX_INTENSITY);
 1747              		.loc 1 1066 0
 1748 005c C0B2     		uxtb	r0, r0
 1749 005e 0021     		mov	r1, #0
 1750 0060 FFF7FEFF 		bl	set_led
 1751              	.LVL211:
1067:main.c        ****                 }
 1752              		.loc 1 1067 0
 1753 0064 E8B2     		uxtb	r0, r5
 1754 0066 0649     		ldr	r1, .L107+4
 1755 0068 FFF7FEFF 		bl	set_led
 1756              	.LVL212:
 1757              	.L105:
1071:main.c        ****             send_button_telemetry(led_pos, "position");
 1758              		.loc 1 1071 0
 1759 006c 034B     		ldr	r3, .L107
 1760 006e DD80     		strh	r5, [r3, #6]
1072:main.c        ****          }
 1761              		.loc 1 1072 0
 1762 0070 281C     		mov	r0, r5
 1763 0072 0449     		ldr	r1, .L107+8
 1764 0074 FFF7FEFF 		bl	send_button_telemetry
 1765              	.LVL213:
 1766              	.L103:
1075:main.c        **** 
 1767              		.loc 1 1075 0
 1768              		@ sp needed
 1769              	.LVL214:
 1770              	.LVL215:
 1771 0078 F8BD     		pop	{r3, r4, r5, r6, r7, pc}
 1772              	.L108:
 1773 007a C046     		.align	2
 1774              	.L107:
 1775 007c 00000000 		.word	.LANCHOR4
 1776 0080 FF0F0000 		.word	4095
 1777 0084 A0000000 		.word	.LC39
 1778              		.cfi_endproc
 1779              	.LFE49:
 1780              		.size	display_state, .-display_state
 1781              		.section	.text.animate_all_colors,"ax",%progbits
 1782              		.align	2
 1783              		.global	animate_all_colors
 1784              		.code	16
 1785              		.thumb_func
 1786              		.type	animate_all_colors, %function
 1787              	animate_all_colors:
 1788              	.LFB50:
ARM GAS  C:\Users\BG1026~1\AppData\Local\Temp\cc2n2B4u.s 			page 59


1078:main.c        ****     static uint16 red             = 0;
 1789              		.loc 1 1078 0
 1790              		.cfi_startproc
 1791 0000 F8B5     		push	{r3, r4, r5, r6, r7, lr}
 1792              		.cfi_def_cfa_offset 24
 1793              		.cfi_offset 3, -24
 1794              		.cfi_offset 4, -20
 1795              		.cfi_offset 5, -16
 1796              		.cfi_offset 6, -12
 1797              		.cfi_offset 7, -8
 1798              		.cfi_offset 14, -4
 1799              	.LVL216:
1087:main.c        ****     set_led(E_LED_LEFT_GREEN ,  green);
 1800              		.loc 1 1087 0
 1801 0002 3F4C     		ldr	r4, .L118
 1802 0004 4027     		mov	r7, #64
 1803 0006 E15B     		ldrh	r1, [r4, r7]
 1804 0008 1520     		mov	r0, #21
 1805 000a FFF7FEFF 		bl	set_led
 1806              	.LVL217:
1088:main.c        ****     set_led(E_LED_LEFT_BLUE  ,  blue );
 1807              		.loc 1 1088 0
 1808 000e 4226     		mov	r6, #66
 1809 0010 A15B     		ldrh	r1, [r4, r6]
 1810 0012 1620     		mov	r0, #22
 1811 0014 FFF7FEFF 		bl	set_led
 1812              	.LVL218:
1089:main.c        ****     set_led(E_LED_RIGHT_RED  , ~red  );
 1813              		.loc 1 1089 0
 1814 0018 4425     		mov	r5, #68
 1815 001a 615B     		ldrh	r1, [r4, r5]
 1816 001c 1720     		mov	r0, #23
 1817 001e FFF7FEFF 		bl	set_led
 1818              	.LVL219:
1090:main.c        ****     set_led(E_LED_RIGHT_GREEN, ~green);
 1819              		.loc 1 1090 0
 1820 0022 E15B     		ldrh	r1, [r4, r7]
 1821 0024 C943     		mvn	r1, r1
 1822 0026 89B2     		uxth	r1, r1
 1823 0028 1220     		mov	r0, #18
 1824 002a FFF7FEFF 		bl	set_led
 1825              	.LVL220:
1091:main.c        ****     set_led(E_LED_RIGHT_BLUE , ~blue );
 1826              		.loc 1 1091 0
 1827 002e A15B     		ldrh	r1, [r4, r6]
 1828 0030 C943     		mvn	r1, r1
 1829 0032 89B2     		uxth	r1, r1
 1830 0034 1320     		mov	r0, #19
 1831 0036 FFF7FEFF 		bl	set_led
 1832              	.LVL221:
1092:main.c        ****    
 1833              		.loc 1 1092 0
 1834 003a 615B     		ldrh	r1, [r4, r5]
 1835 003c C943     		mvn	r1, r1
 1836 003e 89B2     		uxth	r1, r1
 1837 0040 1420     		mov	r0, #20
 1838 0042 FFF7FEFF 		bl	set_led
ARM GAS  C:\Users\BG1026~1\AppData\Local\Temp\cc2n2B4u.s 			page 60


 1839              	.LVL222:
1094:main.c        ****     {   
 1840              		.loc 1 1094 0
 1841 0046 2F4B     		ldr	r3, .L118+4
 1842 0048 5B7A     		ldrb	r3, [r3, #9]
 1843 004a 002B     		cmp	r3, #0
 1844 004c 2DD0     		beq	.L110
1096:main.c        ****         {
 1845              		.loc 1 1096 0
 1846 004e 4023     		mov	r3, #64
 1847 0050 2B4A     		ldr	r2, .L118
 1848 0052 D35A     		ldrh	r3, [r2, r3]
 1849 0054 2C4A     		ldr	r2, .L118+8
 1850 0056 9342     		cmp	r3, r2
 1851 0058 03D9     		bls	.L111
1098:main.c        ****         }
 1852              		.loc 1 1098 0
 1853 005a 0022     		mov	r2, #0
 1854 005c 294B     		ldr	r3, .L118+4
 1855 005e 5A72     		strb	r2, [r3, #9]
 1856 0060 4DE0     		b	.L109
 1857              	.L111:
1100:main.c        ****         {
 1858              		.loc 1 1100 0
 1859 0062 4222     		mov	r2, #66
 1860 0064 2649     		ldr	r1, .L118
 1861 0066 8A5A     		ldrh	r2, [r1, r2]
 1862 0068 2749     		ldr	r1, .L118+8
 1863 006a 8A42     		cmp	r2, r1
 1864 006c 0AD9     		bls	.L113
1102:main.c        ****            green  = 0;
 1865              		.loc 1 1102 0
 1866 006e 244A     		ldr	r2, .L118
 1867 0070 0133     		add	r3, r3, #1
 1868 0072 FF33     		add	r3, r3, #255
 1869 0074 4021     		mov	r1, #64
 1870 0076 5352     		strh	r3, [r2, r1]
1103:main.c        ****            blue   = 0;
 1871              		.loc 1 1103 0
 1872 0078 0023     		mov	r3, #0
 1873 007a 0231     		add	r1, r1, #2
 1874 007c 5352     		strh	r3, [r2, r1]
1104:main.c        ****         } 
 1875              		.loc 1 1104 0
 1876 007e 0231     		add	r1, r1, #2
 1877 0080 5352     		strh	r3, [r2, r1]
 1878 0082 3CE0     		b	.L109
 1879              	.L113:
1106:main.c        ****         {
 1880              		.loc 1 1106 0
 1881 0084 4423     		mov	r3, #68
 1882 0086 1E49     		ldr	r1, .L118
 1883 0088 CB5A     		ldrh	r3, [r1, r3]
 1884 008a 1F49     		ldr	r1, .L118+8
 1885 008c 8B42     		cmp	r3, r1
 1886 008e 07D9     		bls	.L114
1108:main.c        ****             blue   = 0;
ARM GAS  C:\Users\BG1026~1\AppData\Local\Temp\cc2n2B4u.s 			page 61


 1887              		.loc 1 1108 0
 1888 0090 1B4B     		ldr	r3, .L118
 1889 0092 8032     		add	r2, r2, #128
 1890 0094 4221     		mov	r1, #66
 1891 0096 5A52     		strh	r2, [r3, r1]
1109:main.c        ****         }
 1892              		.loc 1 1109 0
 1893 0098 0021     		mov	r1, #0
 1894 009a 4422     		mov	r2, #68
 1895 009c 9952     		strh	r1, [r3, r2]
 1896 009e 2EE0     		b	.L109
 1897              	.L114:
1113:main.c        ****         }
 1898              		.loc 1 1113 0
 1899 00a0 4033     		add	r3, r3, #64
 1900 00a2 4422     		mov	r2, #68
 1901 00a4 1649     		ldr	r1, .L118
 1902 00a6 8B52     		strh	r3, [r1, r2]
 1903 00a8 29E0     		b	.L109
 1904              	.L110:
1118:main.c        ****         {
 1905              		.loc 1 1118 0
 1906 00aa 4023     		mov	r3, #64
 1907 00ac 144A     		ldr	r2, .L118
 1908 00ae D35A     		ldrh	r3, [r2, r3]
 1909 00b0 002B     		cmp	r3, #0
 1910 00b2 03D1     		bne	.L115
1120:main.c        ****         }
 1911              		.loc 1 1120 0
 1912 00b4 0122     		mov	r2, #1
 1913 00b6 134B     		ldr	r3, .L118+4
 1914 00b8 5A72     		strb	r2, [r3, #9]
 1915 00ba 20E0     		b	.L109
 1916              	.L115:
1122:main.c        ****         {
 1917              		.loc 1 1122 0
 1918 00bc 4222     		mov	r2, #66
 1919 00be 1049     		ldr	r1, .L118
 1920 00c0 8A5A     		ldrh	r2, [r1, r2]
 1921 00c2 002A     		cmp	r2, #0
 1922 00c4 0AD1     		bne	.L116
1124:main.c        ****            green  = MAX_COLOR;
 1923              		.loc 1 1124 0
 1924 00c6 0A1C     		mov	r2, r1
 1925 00c8 013B     		sub	r3, r3, #1
 1926 00ca FF3B     		sub	r3, r3, #255
 1927 00cc 4021     		mov	r1, #64
 1928 00ce 5352     		strh	r3, [r2, r1]
1125:main.c        ****            blue   = MAX_COLOR;
 1929              		.loc 1 1125 0
 1930 00d0 0E4B     		ldr	r3, .L118+12
 1931 00d2 0231     		add	r1, r1, #2
 1932 00d4 5352     		strh	r3, [r2, r1]
1126:main.c        ****         } 
 1933              		.loc 1 1126 0
 1934 00d6 0231     		add	r1, r1, #2
 1935 00d8 5352     		strh	r3, [r2, r1]
ARM GAS  C:\Users\BG1026~1\AppData\Local\Temp\cc2n2B4u.s 			page 62


 1936 00da 10E0     		b	.L109
 1937              	.L116:
1128:main.c        ****         {
 1938              		.loc 1 1128 0
 1939 00dc 4423     		mov	r3, #68
 1940 00de 0849     		ldr	r1, .L118
 1941 00e0 CB5A     		ldrh	r3, [r1, r3]
 1942 00e2 002B     		cmp	r3, #0
 1943 00e4 07D1     		bne	.L117
1130:main.c        ****             blue   = MAX_COLOR;
 1944              		.loc 1 1130 0
 1945 00e6 0B1C     		mov	r3, r1
 1946 00e8 803A     		sub	r2, r2, #128
 1947 00ea 4221     		mov	r1, #66
 1948 00ec 5A52     		strh	r2, [r3, r1]
1131:main.c        ****         }
 1949              		.loc 1 1131 0
 1950 00ee 0749     		ldr	r1, .L118+12
 1951 00f0 4422     		mov	r2, #68
 1952 00f2 9952     		strh	r1, [r3, r2]
 1953 00f4 03E0     		b	.L109
 1954              	.L117:
1135:main.c        ****         }
 1955              		.loc 1 1135 0
 1956 00f6 403B     		sub	r3, r3, #64
 1957 00f8 4422     		mov	r2, #68
 1958 00fa 0149     		ldr	r1, .L118
 1959 00fc 8B52     		strh	r3, [r1, r2]
 1960              	.L109:
1138:main.c        **** 
 1961              		.loc 1 1138 0
 1962              		@ sp needed
 1963 00fe F8BD     		pop	{r3, r4, r5, r6, r7, pc}
 1964              	.L119:
 1965              		.align	2
 1966              	.L118:
 1967 0100 00000000 		.word	.LANCHOR0
 1968 0104 00000000 		.word	.LANCHOR4
 1969 0108 FE0F0000 		.word	4094
 1970 010c FF0F0000 		.word	4095
 1971              		.cfi_endproc
 1972              	.LFE50:
 1973              		.size	animate_all_colors, .-animate_all_colors
 1974              		.section	.text.animate_fix_white,"ax",%progbits
 1975              		.align	2
 1976              		.global	animate_fix_white
 1977              		.code	16
 1978              		.thumb_func
 1979              		.type	animate_fix_white, %function
 1980              	animate_fix_white:
 1981              	.LFB51:
1141:main.c        ****     set_led(6, MAX_INTENSITY);
 1982              		.loc 1 1141 0
 1983              		.cfi_startproc
 1984 0000 10B5     		push	{r4, lr}
 1985              		.cfi_def_cfa_offset 8
 1986              		.cfi_offset 4, -8
ARM GAS  C:\Users\BG1026~1\AppData\Local\Temp\cc2n2B4u.s 			page 63


 1987              		.cfi_offset 14, -4
1142:main.c        ****     set_led(7, MAX_INTENSITY);
 1988              		.loc 1 1142 0
 1989 0002 094C     		ldr	r4, .L121
 1990 0004 0620     		mov	r0, #6
 1991 0006 211C     		mov	r1, r4
 1992 0008 FFF7FEFF 		bl	set_led
 1993              	.LVL223:
1143:main.c        ****     set_led(8, MAX_INTENSITY);
 1994              		.loc 1 1143 0
 1995 000c 0720     		mov	r0, #7
 1996 000e 211C     		mov	r1, r4
 1997 0010 FFF7FEFF 		bl	set_led
 1998              	.LVL224:
1144:main.c        ****     set_led(9, MAX_INTENSITY);
 1999              		.loc 1 1144 0
 2000 0014 0820     		mov	r0, #8
 2001 0016 211C     		mov	r1, r4
 2002 0018 FFF7FEFF 		bl	set_led
 2003              	.LVL225:
1145:main.c        **** }// animate_fix_led_0
 2004              		.loc 1 1145 0
 2005 001c 0920     		mov	r0, #9
 2006 001e 211C     		mov	r1, r4
 2007 0020 FFF7FEFF 		bl	set_led
 2008              	.LVL226:
1146:main.c        **** 
 2009              		.loc 1 1146 0
 2010              		@ sp needed
 2011 0024 10BD     		pop	{r4, pc}
 2012              	.L122:
 2013 0026 C046     		.align	2
 2014              	.L121:
 2015 0028 FF0F0000 		.word	4095
 2016              		.cfi_endproc
 2017              	.LFE51:
 2018              		.size	animate_fix_white, .-animate_fix_white
 2019              		.section	.text.animate_fix_led_14,"ax",%progbits
 2020              		.align	2
 2021              		.global	animate_fix_led_14
 2022              		.code	16
 2023              		.thumb_func
 2024              		.type	animate_fix_led_14, %function
 2025              	animate_fix_led_14:
 2026              	.LFB52:
1149:main.c        ****     set_led(14, MAX_INTENSITY);
 2027              		.loc 1 1149 0
 2028              		.cfi_startproc
 2029 0000 08B5     		push	{r3, lr}
 2030              		.cfi_def_cfa_offset 8
 2031              		.cfi_offset 3, -8
 2032              		.cfi_offset 14, -4
1150:main.c        **** }// animate_fix_led_0
 2033              		.loc 1 1150 0
 2034 0002 0E20     		mov	r0, #14
 2035 0004 0149     		ldr	r1, .L124
 2036 0006 FFF7FEFF 		bl	set_led
ARM GAS  C:\Users\BG1026~1\AppData\Local\Temp\cc2n2B4u.s 			page 64


 2037              	.LVL227:
1151:main.c        **** 
 2038              		.loc 1 1151 0
 2039              		@ sp needed
 2040 000a 08BD     		pop	{r3, pc}
 2041              	.L125:
 2042              		.align	2
 2043              	.L124:
 2044 000c FF0F0000 		.word	4095
 2045              		.cfi_endproc
 2046              	.LFE52:
 2047              		.size	animate_fix_led_14, .-animate_fix_led_14
 2048              		.section	.text.animate_red_intensity,"ax",%progbits
 2049              		.align	2
 2050              		.global	animate_red_intensity
 2051              		.code	16
 2052              		.thumb_func
 2053              		.type	animate_red_intensity, %function
 2054              	animate_red_intensity:
 2055              	.LFB53:
1154:main.c        **** #ifndef FOR_COLIN    
 2056              		.loc 1 1154 0
 2057              		.cfi_startproc
 2058 0000 10B5     		push	{r4, lr}
 2059              		.cfi_def_cfa_offset 8
 2060              		.cfi_offset 4, -8
 2061              		.cfi_offset 14, -4
1158:main.c        ****     set_led(E_LED_LEFT_GREEN , 0x00     );
 2062              		.loc 1 1158 0
 2063 0002 0D4C     		ldr	r4, .L127
 2064 0004 1520     		mov	r0, #21
 2065 0006 211C     		mov	r1, r4
 2066 0008 FFF7FEFF 		bl	set_led
 2067              	.LVL228:
1159:main.c        ****     set_led(E_LED_LEFT_BLUE  , 0x00);
 2068              		.loc 1 1159 0
 2069 000c 1620     		mov	r0, #22
 2070 000e 0021     		mov	r1, #0
 2071 0010 FFF7FEFF 		bl	set_led
 2072              	.LVL229:
1160:main.c        ****     set_led(E_LED_RIGHT_RED  , MAX_COLOR);
 2073              		.loc 1 1160 0
 2074 0014 1720     		mov	r0, #23
 2075 0016 0021     		mov	r1, #0
 2076 0018 FFF7FEFF 		bl	set_led
 2077              	.LVL230:
1161:main.c        ****     set_led(E_LED_RIGHT_GREEN, 0x00     );
 2078              		.loc 1 1161 0
 2079 001c 1220     		mov	r0, #18
 2080 001e 211C     		mov	r1, r4
 2081 0020 FFF7FEFF 		bl	set_led
 2082              	.LVL231:
1162:main.c        ****     set_led(E_LED_RIGHT_BLUE , 0x00     );
 2083              		.loc 1 1162 0
 2084 0024 1320     		mov	r0, #19
 2085 0026 0021     		mov	r1, #0
 2086 0028 FFF7FEFF 		bl	set_led
ARM GAS  C:\Users\BG1026~1\AppData\Local\Temp\cc2n2B4u.s 			page 65


 2087              	.LVL232:
1163:main.c        **** #endif        
 2088              		.loc 1 1163 0
 2089 002c 1420     		mov	r0, #20
 2090 002e 0021     		mov	r1, #0
 2091 0030 FFF7FEFF 		bl	set_led
 2092              	.LVL233:
1165:main.c        **** 
 2093              		.loc 1 1165 0
 2094              		@ sp needed
 2095 0034 10BD     		pop	{r4, pc}
 2096              	.L128:
 2097 0036 C046     		.align	2
 2098              	.L127:
 2099 0038 FF0F0000 		.word	4095
 2100              		.cfi_endproc
 2101              	.LFE53:
 2102              		.size	animate_red_intensity, .-animate_red_intensity
 2103              		.section	.text.animate_green_intensity,"ax",%progbits
 2104              		.align	2
 2105              		.global	animate_green_intensity
 2106              		.code	16
 2107              		.thumb_func
 2108              		.type	animate_green_intensity, %function
 2109              	animate_green_intensity:
 2110              	.LFB54:
1168:main.c        **** #ifndef FOR_COLIN    
 2111              		.loc 1 1168 0
 2112              		.cfi_startproc
 2113 0000 10B5     		push	{r4, lr}
 2114              		.cfi_def_cfa_offset 8
 2115              		.cfi_offset 4, -8
 2116              		.cfi_offset 14, -4
1172:main.c        ****     set_led(E_LED_LEFT_GREEN ,  MAX_COLOR);
 2117              		.loc 1 1172 0
 2118 0002 1520     		mov	r0, #21
 2119 0004 0021     		mov	r1, #0
 2120 0006 FFF7FEFF 		bl	set_led
 2121              	.LVL234:
1173:main.c        ****     set_led(E_LED_LEFT_BLUE  ,  0x00     );
 2122              		.loc 1 1173 0
 2123 000a 0B4C     		ldr	r4, .L130
 2124 000c 1620     		mov	r0, #22
 2125 000e 211C     		mov	r1, r4
 2126 0010 FFF7FEFF 		bl	set_led
 2127              	.LVL235:
1174:main.c        ****     set_led(E_LED_RIGHT_RED  ,  0x00     );
 2128              		.loc 1 1174 0
 2129 0014 1720     		mov	r0, #23
 2130 0016 0021     		mov	r1, #0
 2131 0018 FFF7FEFF 		bl	set_led
 2132              	.LVL236:
1175:main.c        ****     set_led(E_LED_RIGHT_GREEN,  MAX_COLOR);
 2133              		.loc 1 1175 0
 2134 001c 1220     		mov	r0, #18
 2135 001e 0021     		mov	r1, #0
 2136 0020 FFF7FEFF 		bl	set_led
ARM GAS  C:\Users\BG1026~1\AppData\Local\Temp\cc2n2B4u.s 			page 66


 2137              	.LVL237:
1176:main.c        ****     set_led(E_LED_RIGHT_BLUE , 0x00 );
 2138              		.loc 1 1176 0
 2139 0024 1320     		mov	r0, #19
 2140 0026 211C     		mov	r1, r4
 2141 0028 FFF7FEFF 		bl	set_led
 2142              	.LVL238:
1177:main.c        **** #endif    
 2143              		.loc 1 1177 0
 2144 002c 1420     		mov	r0, #20
 2145 002e 0021     		mov	r1, #0
 2146 0030 FFF7FEFF 		bl	set_led
 2147              	.LVL239:
1179:main.c        **** 
 2148              		.loc 1 1179 0
 2149              		@ sp needed
 2150 0034 10BD     		pop	{r4, pc}
 2151              	.L131:
 2152 0036 C046     		.align	2
 2153              	.L130:
 2154 0038 FF0F0000 		.word	4095
 2155              		.cfi_endproc
 2156              	.LFE54:
 2157              		.size	animate_green_intensity, .-animate_green_intensity
 2158              		.section	.text.animate_blue_intensity,"ax",%progbits
 2159              		.align	2
 2160              		.global	animate_blue_intensity
 2161              		.code	16
 2162              		.thumb_func
 2163              		.type	animate_blue_intensity, %function
 2164              	animate_blue_intensity:
 2165              	.LFB55:
1182:main.c        **** #ifndef FOR_COLIN    
 2166              		.loc 1 1182 0
 2167              		.cfi_startproc
 2168 0000 10B5     		push	{r4, lr}
 2169              		.cfi_def_cfa_offset 8
 2170              		.cfi_offset 4, -8
 2171              		.cfi_offset 14, -4
1186:main.c        ****     set_led(E_LED_LEFT_GREEN , 0x00     );
 2172              		.loc 1 1186 0
 2173 0002 1520     		mov	r0, #21
 2174 0004 0021     		mov	r1, #0
 2175 0006 FFF7FEFF 		bl	set_led
 2176              	.LVL240:
1187:main.c        ****     set_led(E_LED_LEFT_BLUE  , MAX_COLOR);
 2177              		.loc 1 1187 0
 2178 000a 1620     		mov	r0, #22
 2179 000c 0021     		mov	r1, #0
 2180 000e FFF7FEFF 		bl	set_led
 2181              	.LVL241:
1188:main.c        ****     set_led(E_LED_RIGHT_RED  , 0x00     );
 2182              		.loc 1 1188 0
 2183 0012 094C     		ldr	r4, .L133
 2184 0014 1720     		mov	r0, #23
 2185 0016 211C     		mov	r1, r4
 2186 0018 FFF7FEFF 		bl	set_led
ARM GAS  C:\Users\BG1026~1\AppData\Local\Temp\cc2n2B4u.s 			page 67


 2187              	.LVL242:
1189:main.c        ****     set_led(E_LED_RIGHT_GREEN, 0x00     );
 2188              		.loc 1 1189 0
 2189 001c 1220     		mov	r0, #18
 2190 001e 0021     		mov	r1, #0
 2191 0020 FFF7FEFF 		bl	set_led
 2192              	.LVL243:
1190:main.c        ****     set_led(E_LED_RIGHT_BLUE , MAX_COLOR);
 2193              		.loc 1 1190 0
 2194 0024 1320     		mov	r0, #19
 2195 0026 0021     		mov	r1, #0
 2196 0028 FFF7FEFF 		bl	set_led
 2197              	.LVL244:
1191:main.c        **** #endif        
 2198              		.loc 1 1191 0
 2199 002c 1420     		mov	r0, #20
 2200 002e 211C     		mov	r1, r4
 2201 0030 FFF7FEFF 		bl	set_led
 2202              	.LVL245:
1193:main.c        **** 
 2203              		.loc 1 1193 0
 2204              		@ sp needed
 2205 0034 10BD     		pop	{r4, pc}
 2206              	.L134:
 2207 0036 C046     		.align	2
 2208              	.L133:
 2209 0038 FF0F0000 		.word	4095
 2210              		.cfi_endproc
 2211              	.LFE55:
 2212              		.size	animate_blue_intensity, .-animate_blue_intensity
 2213              		.section	.text.animate_color_intensity,"ax",%progbits
 2214              		.align	2
 2215              		.global	animate_color_intensity
 2216              		.code	16
 2217              		.thumb_func
 2218              		.type	animate_color_intensity, %function
 2219              	animate_color_intensity:
 2220              	.LFB56:
1196:main.c        ****     static uint16 intensity    = 0   ;
 2221              		.loc 1 1196 0
 2222              		.cfi_startproc
 2223              	.LVL246:
 2224 0000 38B5     		push	{r3, r4, r5, lr}
 2225              		.cfi_def_cfa_offset 16
 2226              		.cfi_offset 3, -16
 2227              		.cfi_offset 4, -12
 2228              		.cfi_offset 5, -8
 2229              		.cfi_offset 14, -4
 2230              	.LVL247:
1201:main.c        ****     {
 2231              		.loc 1 1201 0
 2232 0002 0128     		cmp	r0, #1
 2233 0004 0FD0     		beq	.L137
 2234 0006 0028     		cmp	r0, #0
 2235 0008 02D0     		beq	.L138
 2236 000a 0228     		cmp	r0, #2
 2237 000c 16D0     		beq	.L139
ARM GAS  C:\Users\BG1026~1\AppData\Local\Temp\cc2n2B4u.s 			page 68


 2238 000e 1FE0     		b	.L136
 2239              	.L138:
1203:main.c        ****                       set_led(E_LED_RIGHT_RED  , intensity);
 2240              		.loc 1 1203 0
 2241 0010 1E4D     		ldr	r5, .L142
 2242 0012 4624     		mov	r4, #70
 2243 0014 295B     		ldrh	r1, [r5, r4]
 2244 0016 1520     		mov	r0, #21
 2245              	.LVL248:
 2246 0018 FFF7FEFF 		bl	set_led
 2247              	.LVL249:
1204:main.c        ****                       break;
 2248              		.loc 1 1204 0
 2249 001c 295B     		ldrh	r1, [r5, r4]
 2250 001e 1220     		mov	r0, #18
 2251 0020 FFF7FEFF 		bl	set_led
 2252              	.LVL250:
1205:main.c        ****         case E_GREEN: set_led(E_LED_LEFT_GREEN , intensity);
 2253              		.loc 1 1205 0
 2254 0024 14E0     		b	.L136
 2255              	.LVL251:
 2256              	.L137:
1206:main.c        ****                       set_led(E_LED_RIGHT_GREEN, intensity);
 2257              		.loc 1 1206 0
 2258 0026 194D     		ldr	r5, .L142
 2259 0028 4624     		mov	r4, #70
 2260 002a 295B     		ldrh	r1, [r5, r4]
 2261 002c 1620     		mov	r0, #22
 2262              	.LVL252:
 2263 002e FFF7FEFF 		bl	set_led
 2264              	.LVL253:
1207:main.c        ****                       break;
 2265              		.loc 1 1207 0
 2266 0032 295B     		ldrh	r1, [r5, r4]
 2267 0034 1320     		mov	r0, #19
 2268 0036 FFF7FEFF 		bl	set_led
 2269              	.LVL254:
1208:main.c        ****         case E_BLUE : set_led(E_LED_LEFT_BLUE  , intensity);
 2270              		.loc 1 1208 0
 2271 003a 09E0     		b	.L136
 2272              	.LVL255:
 2273              	.L139:
1209:main.c        ****                       set_led(E_LED_RIGHT_BLUE , intensity);
 2274              		.loc 1 1209 0
 2275 003c 134D     		ldr	r5, .L142
 2276 003e 4624     		mov	r4, #70
 2277 0040 295B     		ldrh	r1, [r5, r4]
 2278 0042 1720     		mov	r0, #23
 2279              	.LVL256:
 2280 0044 FFF7FEFF 		bl	set_led
 2281              	.LVL257:
1210:main.c        ****                       break;
 2282              		.loc 1 1210 0
 2283 0048 295B     		ldrh	r1, [r5, r4]
 2284 004a 1420     		mov	r0, #20
 2285 004c FFF7FEFF 		bl	set_led
 2286              	.LVL258:
ARM GAS  C:\Users\BG1026~1\AppData\Local\Temp\cc2n2B4u.s 			page 69


 2287              	.L136:
1214:main.c        ****     {
 2288              		.loc 1 1214 0
 2289 0050 0F4B     		ldr	r3, .L142+4
 2290 0052 9B7A     		ldrb	r3, [r3, #10]
 2291 0054 002B     		cmp	r3, #0
 2292 0056 0CD0     		beq	.L140
1216:main.c        ****         if (intensity >= MAX_COLOR)
 2293              		.loc 1 1216 0
 2294 0058 0C49     		ldr	r1, .L142
 2295 005a 4622     		mov	r2, #70
 2296 005c 8B5A     		ldrh	r3, [r1, r2]
 2297 005e 0533     		add	r3, r3, #5
 2298 0060 9BB2     		uxth	r3, r3
 2299 0062 8B52     		strh	r3, [r1, r2]
1217:main.c        ****         {
 2300              		.loc 1 1217 0
 2301 0064 0B4A     		ldr	r2, .L142+8
 2302 0066 9342     		cmp	r3, r2
 2303 0068 0ED9     		bls	.L135
1219:main.c        ****         }
 2304              		.loc 1 1219 0
 2305 006a 0022     		mov	r2, #0
 2306 006c 084B     		ldr	r3, .L142+4
 2307 006e 9A72     		strb	r2, [r3, #10]
 2308 0070 0AE0     		b	.L135
 2309              	.L140:
1224:main.c        ****         if (intensity == 0)
 2310              		.loc 1 1224 0
 2311 0072 0649     		ldr	r1, .L142
 2312 0074 4622     		mov	r2, #70
 2313 0076 8B5A     		ldrh	r3, [r1, r2]
 2314 0078 053B     		sub	r3, r3, #5
 2315 007a 9BB2     		uxth	r3, r3
 2316 007c 8B52     		strh	r3, [r1, r2]
1225:main.c        ****         {
 2317              		.loc 1 1225 0
 2318 007e 002B     		cmp	r3, #0
 2319 0080 02D1     		bne	.L135
1227:main.c        ****         }
 2320              		.loc 1 1227 0
 2321 0082 453A     		sub	r2, r2, #69
 2322 0084 024B     		ldr	r3, .L142+4
 2323 0086 9A72     		strb	r2, [r3, #10]
 2324              	.L135:
1230:main.c        **** 
 2325              		.loc 1 1230 0
 2326              		@ sp needed
 2327 0088 38BD     		pop	{r3, r4, r5, pc}
 2328              	.L143:
 2329 008a C046     		.align	2
 2330              	.L142:
 2331 008c 00000000 		.word	.LANCHOR0
 2332 0090 00000000 		.word	.LANCHOR4
 2333 0094 FE0F0000 		.word	4094
 2334              		.cfi_endproc
 2335              	.LFE56:
ARM GAS  C:\Users\BG1026~1\AppData\Local\Temp\cc2n2B4u.s 			page 70


 2336              		.size	animate_color_intensity, .-animate_color_intensity
 2337              		.section	.text.animate_rainbow_colors,"ax",%progbits
 2338              		.align	2
 2339              		.global	animate_rainbow_colors
 2340              		.code	16
 2341              		.thumb_func
 2342              		.type	animate_rainbow_colors, %function
 2343              	animate_rainbow_colors:
 2344              	.LFB57:
1233:main.c        ****     static uint16             cycle         = 0;
 2345              		.loc 1 1233 0
 2346              		.cfi_startproc
 2347 0000 70B5     		push	{r4, r5, r6, lr}
 2348              		.cfi_def_cfa_offset 16
 2349              		.cfi_offset 4, -16
 2350              		.cfi_offset 5, -12
 2351              		.cfi_offset 6, -8
 2352              		.cfi_offset 14, -4
1244:main.c        **** 
 2353              		.loc 1 1244 0
 2354 0002 2649     		ldr	r1, .L147
 2355 0004 4822     		mov	r2, #72
 2356 0006 8B5A     		ldrh	r3, [r1, r2]
 2357              	.LVL259:
1246:main.c        **** 
 2358              		.loc 1 1246 0
 2359 0008 581C     		add	r0, r3, #1
 2360 000a 8852     		strh	r0, [r1, r2]
1248:main.c        ****     {
 2361              		.loc 1 1248 0
 2362 000c 9B06     		lsl	r3, r3, #26
 2363 000e 44D1     		bne	.L144
 2364              	.LVL260:
1253:main.c        ****     {
 2365              		.loc 1 1253 0
 2366 0010 4A23     		mov	r3, #74
 2367 0012 CA5A     		ldrh	r2, [r1, r3]
 2368 0014 2248     		ldr	r0, .L147+4
 2369              	.LVL261:
 2370 0016 5300     		lsl	r3, r2, #1
 2371 0018 9B18     		add	r3, r3, r2
 2372 001a 195C     		ldrb	r1, [r3, r0]
 2373 001c C318     		add	r3, r0, r3
 2374 001e 5A78     		ldrb	r2, [r3, #1]
 2375 0020 8918     		add	r1, r1, r2
 2376 0022 9A78     		ldrb	r2, [r3, #2]
 2377 0024 8B18     		add	r3, r1, r2
 2378 0026 002B     		cmp	r3, #0
 2379 0028 03D1     		bne	.L146
1255:main.c        ****     }
 2380              		.loc 1 1255 0
 2381 002a 0021     		mov	r1, #0
 2382 002c 4A33     		add	r3, r3, #74
 2383 002e 1B4A     		ldr	r2, .L147
 2384 0030 D152     		strh	r1, [r2, r3]
 2385              	.L146:
1258:main.c        ****     set_led(E_LED_RIGHT_RED  , vec_rainbow[color_index].red  );
ARM GAS  C:\Users\BG1026~1\AppData\Local\Temp\cc2n2B4u.s 			page 71


 2386              		.loc 1 1258 0
 2387 0032 1B4E     		ldr	r6, .L147+4
 2388 0034 194D     		ldr	r5, .L147
 2389 0036 4A24     		mov	r4, #74
 2390 0038 2B5B     		ldrh	r3, [r5, r4]
 2391 003a 5A00     		lsl	r2, r3, #1
 2392 003c D318     		add	r3, r2, r3
 2393 003e F15C     		ldrb	r1, [r6, r3]
 2394 0040 1520     		mov	r0, #21
 2395 0042 FFF7FEFF 		bl	set_led
 2396              	.LVL262:
1259:main.c        ****     set_led(E_LED_LEFT_GREEN , vec_rainbow[color_index].green);
 2397              		.loc 1 1259 0
 2398 0046 2B5B     		ldrh	r3, [r5, r4]
 2399 0048 5A00     		lsl	r2, r3, #1
 2400 004a D318     		add	r3, r2, r3
 2401 004c F15C     		ldrb	r1, [r6, r3]
 2402 004e 1220     		mov	r0, #18
 2403 0050 FFF7FEFF 		bl	set_led
 2404              	.LVL263:
1260:main.c        ****     set_led(E_LED_RIGHT_GREEN, vec_rainbow[color_index].green);  
 2405              		.loc 1 1260 0
 2406 0054 2B5B     		ldrh	r3, [r5, r4]
 2407 0056 5A00     		lsl	r2, r3, #1
 2408 0058 D318     		add	r3, r2, r3
 2409 005a F318     		add	r3, r6, r3
 2410 005c 5978     		ldrb	r1, [r3, #1]
 2411 005e 1620     		mov	r0, #22
 2412 0060 FFF7FEFF 		bl	set_led
 2413              	.LVL264:
1261:main.c        ****     set_led(E_LED_LEFT_BLUE  , vec_rainbow[color_index].blue );
 2414              		.loc 1 1261 0
 2415 0064 2B5B     		ldrh	r3, [r5, r4]
 2416 0066 5A00     		lsl	r2, r3, #1
 2417 0068 D318     		add	r3, r2, r3
 2418 006a F318     		add	r3, r6, r3
 2419 006c 5978     		ldrb	r1, [r3, #1]
 2420 006e 1320     		mov	r0, #19
 2421 0070 FFF7FEFF 		bl	set_led
 2422              	.LVL265:
1262:main.c        ****     set_led(E_LED_RIGHT_BLUE , vec_rainbow[color_index].blue );
 2423              		.loc 1 1262 0
 2424 0074 2B5B     		ldrh	r3, [r5, r4]
 2425 0076 5A00     		lsl	r2, r3, #1
 2426 0078 D318     		add	r3, r2, r3
 2427 007a F318     		add	r3, r6, r3
 2428 007c 9978     		ldrb	r1, [r3, #2]
 2429 007e 1720     		mov	r0, #23
 2430 0080 FFF7FEFF 		bl	set_led
 2431              	.LVL266:
1263:main.c        ****     color_index++;    
 2432              		.loc 1 1263 0
 2433 0084 2B5B     		ldrh	r3, [r5, r4]
 2434 0086 5A00     		lsl	r2, r3, #1
 2435 0088 D318     		add	r3, r2, r3
 2436 008a F318     		add	r3, r6, r3
 2437 008c 9978     		ldrb	r1, [r3, #2]
ARM GAS  C:\Users\BG1026~1\AppData\Local\Temp\cc2n2B4u.s 			page 72


 2438 008e 1420     		mov	r0, #20
 2439 0090 FFF7FEFF 		bl	set_led
 2440              	.LVL267:
1264:main.c        **** }// animate_rainbow_colors
 2441              		.loc 1 1264 0
 2442 0094 2B5B     		ldrh	r3, [r5, r4]
 2443 0096 0133     		add	r3, r3, #1
 2444 0098 2B53     		strh	r3, [r5, r4]
 2445              	.L144:
1265:main.c        **** 
 2446              		.loc 1 1265 0
 2447              		@ sp needed
 2448 009a 70BD     		pop	{r4, r5, r6, pc}
 2449              	.L148:
 2450              		.align	2
 2451              	.L147:
 2452 009c 00000000 		.word	.LANCHOR0
 2453 00a0 E4010000 		.word	.LANCHOR5
 2454              		.cfi_endproc
 2455              	.LFE57:
 2456              		.size	animate_rainbow_colors, .-animate_rainbow_colors
 2457              		.global	__aeabi_uidivmod
 2458              		.section	.text.animate_left_right,"ax",%progbits
 2459              		.align	2
 2460              		.global	animate_left_right
 2461              		.code	16
 2462              		.thumb_func
 2463              		.type	animate_left_right, %function
 2464              	animate_left_right:
 2465              	.LFB58:
1268:main.c        ****     static uint16 cycle      = 0;
 2466              		.loc 1 1268 0
 2467              		.cfi_startproc
 2468 0000 70B5     		push	{r4, r5, r6, lr}
 2469              		.cfi_def_cfa_offset 16
 2470              		.cfi_offset 4, -16
 2471              		.cfi_offset 5, -12
 2472              		.cfi_offset 6, -8
 2473              		.cfi_offset 14, -4
1270:main.c        **** 
 2474              		.loc 1 1270 0
 2475 0002 0E4E     		ldr	r6, .L151
 2476 0004 4C25     		mov	r5, #76
 2477 0006 745B     		ldrh	r4, [r6, r5]
 2478 0008 201C     		mov	r0, r4
 2479 000a 0A21     		mov	r1, #10
 2480 000c FFF7FEFF 		bl	__aeabi_uidivmod
 2481              	.LVL268:
 2482 0010 C9B2     		uxtb	r1, r1
 2483              	.LVL269:
1272:main.c        **** 
 2484              		.loc 1 1272 0
 2485 0012 0134     		add	r4, r4, #1
 2486 0014 7453     		strh	r4, [r6, r5]
1274:main.c        ****     {
 2487              		.loc 1 1274 0
 2488 0016 0029     		cmp	r1, #0
ARM GAS  C:\Users\BG1026~1\AppData\Local\Temp\cc2n2B4u.s 			page 73


 2489 0018 0FD1     		bne	.L149
1279:main.c        **** 
 2490              		.loc 1 1279 0
 2491 001a 094C     		ldr	r4, .L151+4
 2492 001c A079     		ldrb	r0, [r4, #6]
 2493 001e FFF7FEFF 		bl	set_led
 2494              	.LVL270:
1281:main.c        ****     led_pos %= NUMBER_OF_WHITE_LEDS;
 2495              		.loc 1 1281 0
 2496 0022 E088     		ldrh	r0, [r4, #6]
 2497 0024 0130     		add	r0, r0, #1
 2498 0026 80B2     		uxth	r0, r0
1282:main.c        **** 
 2499              		.loc 1 1282 0
 2500 0028 0F21     		mov	r1, #15
 2501 002a FFF7FEFF 		bl	__aeabi_uidivmod
 2502              	.LVL271:
 2503 002e 88B2     		uxth	r0, r1
 2504 0030 E080     		strh	r0, [r4, #6]
1284:main.c        **** }// animate_left_right
 2505              		.loc 1 1284 0
 2506 0032 C0B2     		uxtb	r0, r0
 2507 0034 0349     		ldr	r1, .L151+8
 2508 0036 FFF7FEFF 		bl	set_led
 2509              	.LVL272:
 2510              	.L149:
1285:main.c        **** 
 2511              		.loc 1 1285 0
 2512              		@ sp needed
 2513 003a 70BD     		pop	{r4, r5, r6, pc}
 2514              	.L152:
 2515              		.align	2
 2516              	.L151:
 2517 003c 00000000 		.word	.LANCHOR0
 2518 0040 00000000 		.word	.LANCHOR4
 2519 0044 FF0F0000 		.word	4095
 2520              		.cfi_endproc
 2521              	.LFE58:
 2522              		.size	animate_left_right, .-animate_left_right
 2523              		.section	.text.animate_intensity,"ax",%progbits
 2524              		.align	2
 2525              		.global	animate_intensity
 2526              		.code	16
 2527              		.thumb_func
 2528              		.type	animate_intensity, %function
 2529              	animate_intensity:
 2530              	.LFB59:
1288:main.c        ****     static uint16 intensity    = 0   ;
 2531              		.loc 1 1288 0
 2532              		.cfi_startproc
 2533 0000 10B5     		push	{r4, lr}
 2534              		.cfi_def_cfa_offset 8
 2535              		.cfi_offset 4, -8
 2536              		.cfi_offset 14, -4
 2537              	.LVL273:
1294:main.c        ****     {
 2538              		.loc 1 1294 0
ARM GAS  C:\Users\BG1026~1\AppData\Local\Temp\cc2n2B4u.s 			page 74


 2539 0002 0024     		mov	r4, #0
 2540 0004 06E0     		b	.L154
 2541              	.LVL274:
 2542              	.L155:
1296:main.c        ****     }
 2543              		.loc 1 1296 0 discriminator 3
 2544 0006 E0B2     		uxtb	r0, r4
 2545 0008 4E23     		mov	r3, #78
 2546 000a 114A     		ldr	r2, .L158
 2547 000c D15A     		ldrh	r1, [r2, r3]
 2548 000e FFF7FEFF 		bl	set_led
 2549              	.LVL275:
1294:main.c        ****     {
 2550              		.loc 1 1294 0 discriminator 3
 2551 0012 0134     		add	r4, r4, #1
 2552              	.LVL276:
 2553              	.L154:
1294:main.c        ****     {
 2554              		.loc 1 1294 0 is_stmt 0 discriminator 1
 2555 0014 0E2C     		cmp	r4, #14
 2556 0016 F6DD     		ble	.L155
1299:main.c        ****     {
 2557              		.loc 1 1299 0 is_stmt 1
 2558 0018 0E4B     		ldr	r3, .L158+4
 2559 001a DB7A     		ldrb	r3, [r3, #11]
 2560 001c 002B     		cmp	r3, #0
 2561 001e 0BD0     		beq	.L156
1301:main.c        ****         if (intensity >= 0x0FF)
 2562              		.loc 1 1301 0
 2563 0020 0B49     		ldr	r1, .L158
 2564 0022 4E22     		mov	r2, #78
 2565 0024 8B5A     		ldrh	r3, [r1, r2]
 2566 0026 0133     		add	r3, r3, #1
 2567 0028 9BB2     		uxth	r3, r3
 2568 002a 8B52     		strh	r3, [r1, r2]
1302:main.c        ****         {
 2569              		.loc 1 1302 0
 2570 002c FE2B     		cmp	r3, #254
 2571 002e 0ED9     		bls	.L153
1304:main.c        ****         }
 2572              		.loc 1 1304 0
 2573 0030 0022     		mov	r2, #0
 2574 0032 084B     		ldr	r3, .L158+4
 2575 0034 DA72     		strb	r2, [r3, #11]
 2576 0036 0AE0     		b	.L153
 2577              	.L156:
1309:main.c        ****         if (intensity == 0)
 2578              		.loc 1 1309 0
 2579 0038 0549     		ldr	r1, .L158
 2580 003a 4E22     		mov	r2, #78
 2581 003c 8B5A     		ldrh	r3, [r1, r2]
 2582 003e 013B     		sub	r3, r3, #1
 2583 0040 9BB2     		uxth	r3, r3
 2584 0042 8B52     		strh	r3, [r1, r2]
1310:main.c        ****         {
 2585              		.loc 1 1310 0
 2586 0044 002B     		cmp	r3, #0
ARM GAS  C:\Users\BG1026~1\AppData\Local\Temp\cc2n2B4u.s 			page 75


 2587 0046 02D1     		bne	.L153
1312:main.c        ****         }
 2588              		.loc 1 1312 0
 2589 0048 4D3A     		sub	r2, r2, #77
 2590 004a 024B     		ldr	r3, .L158+4
 2591 004c DA72     		strb	r2, [r3, #11]
 2592              	.L153:
1315:main.c        **** 
 2593              		.loc 1 1315 0
 2594              		@ sp needed
 2595              	.LVL277:
 2596 004e 10BD     		pop	{r4, pc}
 2597              	.L159:
 2598              		.align	2
 2599              	.L158:
 2600 0050 00000000 		.word	.LANCHOR0
 2601 0054 00000000 		.word	.LANCHOR4
 2602              		.cfi_endproc
 2603              	.LFE59:
 2604              		.size	animate_intensity, .-animate_intensity
 2605              		.section	.text.clear_all_leds,"ax",%progbits
 2606              		.align	2
 2607              		.global	clear_all_leds
 2608              		.code	16
 2609              		.thumb_func
 2610              		.type	clear_all_leds, %function
 2611              	clear_all_leds:
 2612              	.LFB64:
1447:main.c        **** 
1448:main.c        **** void set_all_leds_intensity (uint16 intensity)
1449:main.c        **** {
1450:main.c        ****     uint16  set_value = intensity; // min(intensity, MAX_INTENSITY);
1451:main.c        **** 
1452:main.c        ****     clear_all_leds();
1453:main.c        ****     led_buffer.led0  = set_value;   
1454:main.c        ****     led_buffer.led1  = set_value;   
1455:main.c        ****     led_buffer.led2  = set_value;   
1456:main.c        ****     led_buffer.led3  = set_value;   
1457:main.c        ****     led_buffer.led4  = set_value;   
1458:main.c        ****     led_buffer.led5  = set_value;   
1459:main.c        ****     led_buffer.led6  = set_value;   
1460:main.c        ****     led_buffer.led7  = set_value;   
1461:main.c        ****     led_buffer.led8  = set_value;   
1462:main.c        ****     led_buffer.led9  = set_value;   
1463:main.c        ****     led_buffer.led10 = set_value;   
1464:main.c        ****     led_buffer.led11 = set_value;   
1465:main.c        ****     led_buffer.led12 = set_value;   
1466:main.c        ****     led_buffer.led13 = set_value;   
1467:main.c        ****     led_buffer.led14 = set_value;   
1468:main.c        ****     led_buffer.led15 = set_value;   
1469:main.c        ****     led_buffer.led16 = set_value;   
1470:main.c        ****     led_buffer.led17 = set_value;   
1471:main.c        ****     led_buffer.led18 = set_value;   
1472:main.c        ****     led_buffer.led19 = set_value;   
1473:main.c        ****     led_buffer.led20 = set_value; 
1474:main.c        ****     led_buffer.led21 = set_value;   
1475:main.c        ****     led_buffer.led22 = set_value; 
ARM GAS  C:\Users\BG1026~1\AppData\Local\Temp\cc2n2B4u.s 			page 76


1476:main.c        ****     led_buffer.led23 = set_value;
1477:main.c        **** 
1478:main.c        ****     SPIM_SpiUartPutArray((const uint16*)&led_buffer, sizeof(led_buffer) / sizeof(uint16));
1479:main.c        ****     Latch_Write(1);
1480:main.c        ****     CyDelayUs  (1);
1481:main.c        ****     Latch_Write(0);
1482:main.c        **** }// set_led
1483:main.c        **** 
1484:main.c        **** void clear_all_leds(void)
1485:main.c        **** {  
 2613              		.loc 1 1485 0
 2614              		.cfi_startproc
 2615 0000 08B5     		push	{r3, lr}
 2616              		.cfi_def_cfa_offset 8
 2617              		.cfi_offset 3, -8
 2618              		.cfi_offset 14, -4
1486:main.c        ****     memset(&led_buffer, 0x00, sizeof(led_buffer));
 2619              		.loc 1 1486 0
 2620 0002 0E4A     		ldr	r2, .L161
 2621 0004 101C     		mov	r0, r2
 2622 0006 1030     		add	r0, r0, #16
 2623 0008 0023     		mov	r3, #0
 2624 000a 1361     		str	r3, [r2, #16]
 2625 000c 4360     		str	r3, [r0, #4]
 2626 000e 8360     		str	r3, [r0, #8]
 2627 0010 C360     		str	r3, [r0, #12]
 2628 0012 0361     		str	r3, [r0, #16]
 2629 0014 4361     		str	r3, [r0, #20]
 2630 0016 8361     		str	r3, [r0, #24]
 2631 0018 C361     		str	r3, [r0, #28]
 2632 001a 0362     		str	r3, [r0, #32]
 2633 001c 4362     		str	r3, [r0, #36]
 2634 001e 8362     		str	r3, [r0, #40]
 2635 0020 C362     		str	r3, [r0, #44]
1487:main.c        **** 
1488:main.c        ****     SPIM_SpiUartPutArray((const uint16*)&led_buffer, sizeof(led_buffer) / sizeof(uint16));
 2636              		.loc 1 1488 0
 2637 0022 1821     		mov	r1, #24
 2638 0024 FFF7FEFF 		bl	SPIM_SpiUartPutArray
 2639              	.LVL278:
1489:main.c        ****     Latch_Write(1);
 2640              		.loc 1 1489 0
 2641 0028 0120     		mov	r0, #1
 2642 002a FFF7FEFF 		bl	Latch_Write
 2643              	.LVL279:
1490:main.c        ****     CyDelayUs  (1);
 2644              		.loc 1 1490 0
 2645 002e 0120     		mov	r0, #1
 2646 0030 FFF7FEFF 		bl	CyDelayUs
 2647              	.LVL280:
1491:main.c        ****     Latch_Write(0);
 2648              		.loc 1 1491 0
 2649 0034 0020     		mov	r0, #0
 2650 0036 FFF7FEFF 		bl	Latch_Write
 2651              	.LVL281:
1492:main.c        **** }// clear_all_leds
 2652              		.loc 1 1492 0
ARM GAS  C:\Users\BG1026~1\AppData\Local\Temp\cc2n2B4u.s 			page 77


 2653              		@ sp needed
 2654 003a 08BD     		pop	{r3, pc}
 2655              	.L162:
 2656              		.align	2
 2657              	.L161:
 2658 003c 00000000 		.word	.LANCHOR0
 2659              		.cfi_endproc
 2660              	.LFE64:
 2661              		.size	clear_all_leds, .-clear_all_leds
 2662              		.section	.text.parse_and_execute_command,"ax",%progbits
 2663              		.align	2
 2664              		.global	parse_and_execute_command
 2665              		.code	16
 2666              		.thumb_func
 2667              		.type	parse_and_execute_command, %function
 2668              	parse_and_execute_command:
 2669              	.LFB43:
 490:main.c        ****     t_enum_command          cmd_id         = CMD_UNKNOWN;
 2670              		.loc 1 490 0
 2671              		.cfi_startproc
 2672              	.LVL282:
 2673 0000 F0B5     		push	{r4, r5, r6, r7, lr}
 2674              		.cfi_def_cfa_offset 20
 2675              		.cfi_offset 4, -20
 2676              		.cfi_offset 5, -16
 2677              		.cfi_offset 6, -12
 2678              		.cfi_offset 7, -8
 2679              		.cfi_offset 14, -4
 2680 0002 8FB0     		sub	sp, sp, #60
 2681              		.cfi_def_cfa_offset 80
 2682 0004 041C     		mov	r4, r0
 2683              	.LVL283:
 496:main.c        ****     char*                   next_param_str = NULL; 
 2684              		.loc 1 496 0
 2685 0006 2C21     		mov	r1, #44
 2686 0008 FFF7FEFF 		bl	strchr
 2687              	.LVL284:
 506:main.c        ****     {
 2688              		.loc 1 506 0
 2689 000c 0028     		cmp	r0, #0
 2690 000e 06D1     		bne	.L164
 508:main.c        ****         return FALSE;    
 2691              		.loc 1 508 0
 2692 0010 0230     		add	r0, r0, #2
 2693              	.LVL285:
 2694 0012 211C     		mov	r1, r4
 2695 0014 CB4A     		ldr	r2, .L228
 2696 0016 FFF7FEFF 		bl	send_alarm_telemetry
 2697              	.LVL286:
 509:main.c        ****     }// If we can't a comma inside the command
 2698              		.loc 1 509 0
 2699 001a 0020     		mov	r0, #0
 2700 001c C8E2     		b	.L165
 2701              	.LVL287:
 2702              	.L164:
 512:main.c        ****     
 2703              		.loc 1 512 0
ARM GAS  C:\Users\BG1026~1\AppData\Local\Temp\cc2n2B4u.s 			page 78


 2704 001e 451C     		add	r5, r0, #1
 2705              	.LVL288:
 2706 0020 FFF7FEFF 		bl	get_cmd_id_from_cmd_string
 2707              	.LVL289:
 514:main.c        ****     {
 2708              		.loc 1 514 0
 2709 0024 0528     		cmp	r0, #5
 2710 0026 00D9     		bls	.LCB2620
 2711 0028 BCE2     		b	.L166	@long jump
 2712              	.LCB2620:
 2713 002a 8000     		lsl	r0, r0, #2
 2714              	.LVL290:
 2715 002c C64B     		ldr	r3, .L228+4
 2716 002e 1B58     		ldr	r3, [r3, r0]
 2717 0030 9F46     		mov	pc, r3
 2718              		.section	.rodata
 2719              		.align	2
 2720              	.L168:
 2721 0060 80000000 		.word	.L167
 2722 0064 32000000 		.word	.L169
 2723 0068 1A010000 		.word	.L170
 2724 006c 58000000 		.word	.L225
 2725 0070 E8040000 		.word	.L172
 2726 0074 96050000 		.word	.L173
 2727              		.section	.text.parse_and_execute_command
 2728              	.L169:
 518:main.c        ****             return FALSE;    
 2729              		.loc 1 518 0
 2730 0032 0220     		mov	r0, #2
 2731 0034 211C     		mov	r1, r4
 2732 0036 C54A     		ldr	r2, .L228+8
 2733 0038 FFF7FEFF 		bl	send_alarm_telemetry
 2734              	.LVL291:
 519:main.c        ****         }// CMD_CAPSENSE
 2735              		.loc 1 519 0
 2736 003c 0020     		mov	r0, #0
 2737 003e B7E2     		b	.L165
 2738              	.LVL292:
 2739              	.L174:
 526:main.c        ****             }// for all the commands
 2740              		.loc 1 526 0 discriminator 3
 2741 0040 6300     		lsl	r3, r4, #1
 2742 0042 1B19     		add	r3, r3, r4
 2743 0044 9B00     		lsl	r3, r3, #2
 2744 0046 C24A     		ldr	r2, .L228+12
 2745 0048 D318     		add	r3, r2, r3
 2746 004a 5968     		ldr	r1, [r3, #4]
 2747 004c 9A68     		ldr	r2, [r3, #8]
 2748 004e 0020     		mov	r0, #0
 2749 0050 FFF7FEFF 		bl	send_alarm_telemetry
 2750              	.LVL293:
 524:main.c        ****             {
 2751              		.loc 1 524 0 discriminator 3
 2752 0054 0134     		add	r4, r4, #1
 2753              	.LVL294:
 2754 0056 00E0     		b	.L171
 2755              	.LVL295:
ARM GAS  C:\Users\BG1026~1\AppData\Local\Temp\cc2n2B4u.s 			page 79


 2756              	.L225:
 514:main.c        ****     {
 2757              		.loc 1 514 0
 2758 0058 0024     		mov	r4, #0
 2759              	.LVL296:
 2760              	.L171:
 524:main.c        ****             {
 2761              		.loc 1 524 0 discriminator 1
 2762 005a 052C     		cmp	r4, #5
 2763 005c F0DD     		ble	.L174
 2764 005e 0024     		mov	r4, #0
 2765              	.LVL297:
 2766 0060 0AE0     		b	.L175
 2767              	.LVL298:
 2768              	.L176:
 531:main.c        ****             }// for all the commands
 2769              		.loc 1 531 0 discriminator 3
 2770 0062 6300     		lsl	r3, r4, #1
 2771 0064 1B19     		add	r3, r3, r4
 2772 0066 9B00     		lsl	r3, r3, #2
 2773 0068 BA4A     		ldr	r2, .L228+16
 2774 006a D318     		add	r3, r2, r3
 2775 006c 5A6A     		ldr	r2, [r3, #36]
 2776 006e 0020     		mov	r0, #0
 2777 0070 B949     		ldr	r1, .L228+20
 2778 0072 FFF7FEFF 		bl	send_alarm_telemetry
 2779              	.LVL299:
 529:main.c        ****             {
 2780              		.loc 1 529 0 discriminator 3
 2781 0076 0134     		add	r4, r4, #1
 2782              	.LVL300:
 2783              	.L175:
 529:main.c        ****             {
 2784              		.loc 1 529 0 is_stmt 0 discriminator 1
 2785 0078 082C     		cmp	r4, #8
 2786 007a F2DD     		ble	.L176
 933:main.c        **** }// parse_and_execute_command
 2787              		.loc 1 933 0 is_stmt 1
 2788 007c 0120     		mov	r0, #1
 2789 007e 97E2     		b	.L165
 2790              	.LVL301:
 2791              	.L167:
 539:main.c        ****             {
 2792              		.loc 1 539 0
 2793 0080 281C     		mov	r0, r5
 2794 0082 2C21     		mov	r1, #44
 2795 0084 FFF7FEFF 		bl	strchr
 2796              	.LVL302:
 2797 0088 0028     		cmp	r0, #0
 2798 008a 06D1     		bne	.L177
 541:main.c        ****                 return FALSE;
 2799              		.loc 1 541 0
 2800 008c 0230     		add	r0, r0, #2
 2801              	.LVL303:
 2802 008e 211C     		mov	r1, r4
 2803 0090 B24A     		ldr	r2, .L228+24
 2804 0092 FFF7FEFF 		bl	send_alarm_telemetry
ARM GAS  C:\Users\BG1026~1\AppData\Local\Temp\cc2n2B4u.s 			page 80


 2805              	.LVL304:
 542:main.c        ****             }// If we can't find the next ',' character
 2806              		.loc 1 542 0
 2807 0096 0020     		mov	r0, #0
 2808 0098 8AE2     		b	.L165
 2809              	.LVL305:
 2810              	.L177:
 545:main.c        ****             {
 2811              		.loc 1 545 0
 2812 009a 0130     		add	r0, r0, #1
 2813              	.LVL306:
 2814 009c 3A21     		mov	r1, #58
 2815 009e FFF7FEFF 		bl	strchr
 2816              	.LVL307:
 2817 00a2 0028     		cmp	r0, #0
 2818 00a4 06D1     		bne	.L178
 547:main.c        ****                 return FALSE;
 2819              		.loc 1 547 0
 2820 00a6 0230     		add	r0, r0, #2
 2821              	.LVL308:
 2822 00a8 211C     		mov	r1, r4
 2823 00aa AC4A     		ldr	r2, .L228+24
 2824 00ac FFF7FEFF 		bl	send_alarm_telemetry
 2825              	.LVL309:
 548:main.c        ****             }// If we can't find the next ':' character
 2826              		.loc 1 548 0
 2827 00b0 0020     		mov	r0, #0
 2828 00b2 7DE2     		b	.L165
 2829              	.LVL310:
 2830              	.L178:
 550:main.c        ****             
 2831              		.loc 1 550 0
 2832 00b4 451C     		add	r5, r0, #1
 2833              	.LVL311:
 552:main.c        ****             {
 2834              		.loc 1 552 0
 2835 00b6 281C     		mov	r0, r5
 2836 00b8 FFF7FEFF 		bl	get_anim_cmd_id_from_cmd_string
 2837              	.LVL312:
 2838 00bc 0128     		cmp	r0, #1
 2839 00be 0BD0     		beq	.L180
 2840 00c0 0028     		cmp	r0, #0
 2841 00c2 04D0     		beq	.L181
 2842 00c4 0228     		cmp	r0, #2
 2843 00c6 0CD0     		beq	.L182
 2844 00c8 0328     		cmp	r0, #3
 2845 00ca 10D0     		beq	.L183
 2846 00cc 15E0     		b	.L226
 2847              	.L181:
 556:main.c        ****                     break;
 2848              		.loc 1 556 0
 2849 00ce 0122     		mov	r2, #1
 2850 00d0 A34B     		ldr	r3, .L228+28
 2851 00d2 1A73     		strb	r2, [r3, #12]
 933:main.c        **** }// parse_and_execute_command
 2852              		.loc 1 933 0
 2853 00d4 0120     		mov	r0, #1
ARM GAS  C:\Users\BG1026~1\AppData\Local\Temp\cc2n2B4u.s 			page 81


 2854              	.LVL313:
 557:main.c        ****                 }// CMD_ANIM_AUTO
 2855              		.loc 1 557 0
 2856 00d6 6BE2     		b	.L165
 2857              	.LVL314:
 2858              	.L180:
 562:main.c        ****                     break;
 2859              		.loc 1 562 0
 2860 00d8 0022     		mov	r2, #0
 2861 00da A14B     		ldr	r3, .L228+28
 2862 00dc 1A73     		strb	r2, [r3, #12]
 933:main.c        **** }// parse_and_execute_command
 2863              		.loc 1 933 0
 2864 00de 0120     		mov	r0, #1
 2865              	.LVL315:
 563:main.c        ****                 }// CMD_ANIM_MANUAL
 2866              		.loc 1 563 0
 2867 00e0 66E2     		b	.L165
 2868              	.LVL316:
 2869              	.L182:
 568:main.c        ****                     break;
 2870              		.loc 1 568 0
 2871 00e2 0121     		mov	r1, #1
 2872 00e4 5023     		mov	r3, #80
 2873 00e6 9F4A     		ldr	r2, .L228+32
 2874 00e8 D154     		strb	r1, [r2, r3]
 933:main.c        **** }// parse_and_execute_command
 2875              		.loc 1 933 0
 2876 00ea 0120     		mov	r0, #1
 2877              	.LVL317:
 569:main.c        ****                 }// CMD_ANIM_STOP
 2878              		.loc 1 569 0
 2879 00ec 60E2     		b	.L165
 2880              	.LVL318:
 2881              	.L183:
 574:main.c        ****                     break;
 2882              		.loc 1 574 0
 2883 00ee 0021     		mov	r1, #0
 2884 00f0 5023     		mov	r3, #80
 2885 00f2 9C4A     		ldr	r2, .L228+32
 2886 00f4 D154     		strb	r1, [r2, r3]
 933:main.c        **** }// parse_and_execute_command
 2887              		.loc 1 933 0
 2888 00f6 0120     		mov	r0, #1
 2889              	.LVL319:
 575:main.c        ****                 }// CMD_ANIM_RESUME
 2890              		.loc 1 575 0
 2891 00f8 5AE2     		b	.L165
 2892              	.LVL320:
 2893              	.L226:
 581:main.c        ****                     {
 2894              		.loc 1 581 0
 2895 00fa 281C     		mov	r0, r5
 2896              	.LVL321:
 2897 00fc FFF7FEFF 		bl	get_anim_id_from_cmd_string
 2898              	.LVL322:
 2899 0100 0928     		cmp	r0, #9
ARM GAS  C:\Users\BG1026~1\AppData\Local\Temp\cc2n2B4u.s 			page 82


 2900 0102 03D0     		beq	.L184
 583:main.c        ****                     }// if we found a valid animation description in the command
 2901              		.loc 1 583 0
 2902 0104 974B     		ldr	r3, .L228+32
 2903 0106 5865     		str	r0, [r3, #84]
 933:main.c        **** }// parse_and_execute_command
 2904              		.loc 1 933 0
 2905 0108 0120     		mov	r0, #1
 2906              	.LVL323:
 590:main.c        ****                 }// CMD_ANIM_UNKOWN, default
 2907              		.loc 1 590 0
 2908 010a 51E2     		b	.L165
 2909              	.LVL324:
 2910              	.L184:
 587:main.c        ****                         return FALSE;
 2911              		.loc 1 587 0
 2912 010c 0220     		mov	r0, #2
 2913              	.LVL325:
 2914 010e 211C     		mov	r1, r4
 2915 0110 924A     		ldr	r2, .L228+24
 2916 0112 FFF7FEFF 		bl	send_alarm_telemetry
 2917              	.LVL326:
 588:main.c        ****                     }// else, we couldn't find a valid animation 
 2918              		.loc 1 588 0
 2919 0116 0020     		mov	r0, #0
 2920 0118 4AE2     		b	.L165
 2921              	.LVL327:
 2922              	.L170:
 598:main.c        ****             {
 2923              		.loc 1 598 0
 2924 011a 281C     		mov	r0, r5
 2925 011c FFF7FEFF 		bl	get_led_cmd_id_from_cmd_string
 2926              	.LVL328:
 2927 0120 061E     		sub	r6, r0, #0
 2928              	.LVL329:
 2929 0122 042E     		cmp	r6, #4
 2930 0124 00D9     		bls	.LCB2850
 2931 0126 D8E1     		b	.L185	@long jump
 2932              	.LCB2850:
 2933 0128 8000     		lsl	r0, r0, #2
 2934              	.LVL330:
 2935 012a 8F4B     		ldr	r3, .L228+36
 2936 012c 1B58     		ldr	r3, [r3, r0]
 2937 012e 9F46     		mov	pc, r3
 2938              		.section	.rodata
 2939              		.align	2
 2940              	.L187:
 2941 0078 30010000 		.word	.L186
 2942 007c 38010000 		.word	.L188
 2943 0080 38010000 		.word	.L188
 2944 0084 56020000 		.word	.L189
 2945 0088 0E030000 		.word	.L190
 2946              		.section	.text.parse_and_execute_command
 2947              	.L186:
 602:main.c        ****                     break;
 2948              		.loc 1 602 0
 2949 0130 FFF7FEFF 		bl	clear_all_leds
ARM GAS  C:\Users\BG1026~1\AppData\Local\Temp\cc2n2B4u.s 			page 83


 2950              	.LVL331:
 933:main.c        **** }// parse_and_execute_command
 2951              		.loc 1 933 0
 2952 0134 0120     		mov	r0, #1
 603:main.c        ****                 }// CMD_LED_CLEAR
 2953              		.loc 1 603 0
 2954 0136 3BE2     		b	.L165
 2955              	.L188:
 609:main.c        ****                     {
 2956              		.loc 1 609 0
 2957 0138 281C     		mov	r0, r5
 2958 013a 2C21     		mov	r1, #44
 2959 013c FFF7FEFF 		bl	strchr
 2960              	.LVL332:
 2961 0140 0028     		cmp	r0, #0
 2962 0142 06D1     		bne	.L191
 611:main.c        ****                         return FALSE;
 2963              		.loc 1 611 0
 2964 0144 0230     		add	r0, r0, #2
 2965              	.LVL333:
 2966 0146 211C     		mov	r1, r4
 2967 0148 844A     		ldr	r2, .L228+24
 2968 014a FFF7FEFF 		bl	send_alarm_telemetry
 2969              	.LVL334:
 612:main.c        ****                     }// If we can't find the next ',' character
 2970              		.loc 1 612 0
 2971 014e 0020     		mov	r0, #0
 2972 0150 2EE2     		b	.L165
 2973              	.LVL335:
 2974              	.L191:
 615:main.c        ****                     {
 2975              		.loc 1 615 0
 2976 0152 0130     		add	r0, r0, #1
 2977              	.LVL336:
 2978 0154 3A21     		mov	r1, #58
 2979 0156 FFF7FEFF 		bl	strchr
 2980              	.LVL337:
 2981 015a 0028     		cmp	r0, #0
 2982 015c 06D1     		bne	.L192
 617:main.c        ****                         return FALSE;
 2983              		.loc 1 617 0
 2984 015e 0230     		add	r0, r0, #2
 2985              	.LVL338:
 2986 0160 211C     		mov	r1, r4
 2987 0162 824A     		ldr	r2, .L228+40
 2988 0164 FFF7FEFF 		bl	send_alarm_telemetry
 2989              	.LVL339:
 618:main.c        ****                     }// If we can't find the next ':' character
 2990              		.loc 1 618 0
 2991 0168 0020     		mov	r0, #0
 2992 016a 21E2     		b	.L165
 2993              	.LVL340:
 2994              	.L192:
 624:main.c        ****                     {
 2995              		.loc 1 624 0
 2996 016c 0130     		add	r0, r0, #1
 2997              	.LVL341:
ARM GAS  C:\Users\BG1026~1\AppData\Local\Temp\cc2n2B4u.s 			page 84


 2998 016e 3A21     		mov	r1, #58
 2999 0170 FFF7FEFF 		bl	strchr
 3000              	.LVL342:
 3001 0174 0028     		cmp	r0, #0
 3002 0176 06D1     		bne	.L193
 626:main.c        ****                         return FALSE;
 3003              		.loc 1 626 0
 3004 0178 0230     		add	r0, r0, #2
 3005              	.LVL343:
 3006 017a 211C     		mov	r1, r4
 3007 017c 7B4A     		ldr	r2, .L228+40
 3008 017e FFF7FEFF 		bl	send_alarm_telemetry
 3009              	.LVL344:
 627:main.c        ****                     }// If we can't find the next ':' character
 3010              		.loc 1 627 0
 3011 0182 0020     		mov	r0, #0
 3012 0184 14E2     		b	.L165
 3013              	.LVL345:
 3014              	.L193:
 630:main.c        ****                     {
 3015              		.loc 1 630 0
 3016 0186 451C     		add	r5, r0, #1
 3017              	.LVL346:
 3018 0188 281C     		mov	r0, r5
 3019 018a 2C21     		mov	r1, #44
 3020 018c FFF7FEFF 		bl	strchr
 3021              	.LVL347:
 3022 0190 0028     		cmp	r0, #0
 3023 0192 06D1     		bne	.L194
 632:main.c        ****                         return FALSE;
 3024              		.loc 1 632 0
 3025 0194 0230     		add	r0, r0, #2
 3026              	.LVL348:
 3027 0196 211C     		mov	r1, r4
 3028 0198 744A     		ldr	r2, .L228+40
 3029 019a FFF7FEFF 		bl	send_alarm_telemetry
 3030              	.LVL349:
 633:main.c        ****                     }// If we can't find the next ',' character
 3031              		.loc 1 633 0
 3032 019e 0020     		mov	r0, #0
 3033 01a0 06E2     		b	.L165
 3034              	.LVL350:
 3035              	.L194:
 635:main.c        ****                     next_param_str++;
 3036              		.loc 1 635 0
 3037 01a2 0023     		mov	r3, #0
 3038 01a4 0370     		strb	r3, [r0]
 636:main.c        ****                     
 3039              		.loc 1 636 0
 3040 01a6 471C     		add	r7, r0, #1
 3041              	.LVL351:
 638:main.c        ****                     
 3042              		.loc 1 638 0
 3043 01a8 281C     		mov	r0, r5
 3044 01aa FFF7FEFF 		bl	atoi
 3045              	.LVL352:
 3046 01ae 0190     		str	r0, [sp, #4]
ARM GAS  C:\Users\BG1026~1\AppData\Local\Temp\cc2n2B4u.s 			page 85


 3047              	.LVL353:
 643:main.c        ****                     {
 3048              		.loc 1 643 0
 3049 01b0 381C     		mov	r0, r7
 3050              	.LVL354:
 3051 01b2 3A21     		mov	r1, #58
 3052 01b4 FFF7FEFF 		bl	strchr
 3053              	.LVL355:
 3054 01b8 0028     		cmp	r0, #0
 3055 01ba 06D1     		bne	.L195
 645:main.c        ****                         return FALSE;
 3056              		.loc 1 645 0
 3057 01bc 0230     		add	r0, r0, #2
 3058              	.LVL356:
 3059 01be 211C     		mov	r1, r4
 3060 01c0 6B4A     		ldr	r2, .L228+44
 3061 01c2 FFF7FEFF 		bl	send_alarm_telemetry
 3062              	.LVL357:
 646:main.c        ****                     }// If we can't find the next ':' character
 3063              		.loc 1 646 0
 3064 01c6 0020     		mov	r0, #0
 3065 01c8 F2E1     		b	.L165
 3066              	.LVL358:
 3067              	.L195:
 649:main.c        ****                     {
 3068              		.loc 1 649 0
 3069 01ca 471C     		add	r7, r0, #1
 3070              	.LVL359:
 3071 01cc 381C     		mov	r0, r7
 3072 01ce 2C21     		mov	r1, #44
 3073 01d0 FFF7FEFF 		bl	strchr
 3074              	.LVL360:
 3075 01d4 0028     		cmp	r0, #0
 3076 01d6 06D1     		bne	.L196
 651:main.c        ****                         return FALSE;
 3077              		.loc 1 651 0
 3078 01d8 0230     		add	r0, r0, #2
 3079              	.LVL361:
 3080 01da 211C     		mov	r1, r4
 3081 01dc 654A     		ldr	r2, .L228+48
 3082 01de FFF7FEFF 		bl	send_alarm_telemetry
 3083              	.LVL362:
 652:main.c        ****                     }// If we can't find the next ',' character
 3084              		.loc 1 652 0
 3085 01e2 0020     		mov	r0, #0
 3086 01e4 E4E1     		b	.L165
 3087              	.LVL363:
 3088              	.L196:
 654:main.c        ****                     next_param_str++;
 3089              		.loc 1 654 0
 3090 01e6 0023     		mov	r3, #0
 3091 01e8 0370     		strb	r3, [r0]
 655:main.c        ****                     
 3092              		.loc 1 655 0
 3093 01ea 451C     		add	r5, r0, #1
 3094              	.LVL364:
 657:main.c        ****                     
ARM GAS  C:\Users\BG1026~1\AppData\Local\Temp\cc2n2B4u.s 			page 86


 3095              		.loc 1 657 0
 3096 01ec 381C     		mov	r0, r7
 3097 01ee FFF7FEFF 		bl	atoi
 3098              	.LVL365:
 3099 01f2 071C     		mov	r7, r0
 3100              	.LVL366:
 662:main.c        ****                     {
 3101              		.loc 1 662 0
 3102 01f4 281C     		mov	r0, r5
 3103              	.LVL367:
 3104 01f6 3A21     		mov	r1, #58
 3105 01f8 FFF7FEFF 		bl	strchr
 3106              	.LVL368:
 3107 01fc 0028     		cmp	r0, #0
 3108 01fe 06D1     		bne	.L197
 664:main.c        ****                         return FALSE;
 3109              		.loc 1 664 0
 3110 0200 0230     		add	r0, r0, #2
 3111              	.LVL369:
 3112 0202 211C     		mov	r1, r4
 3113 0204 5A4A     		ldr	r2, .L228+44
 3114 0206 FFF7FEFF 		bl	send_alarm_telemetry
 3115              	.LVL370:
 665:main.c        ****                     }// If we can't find the next ':' character
 3116              		.loc 1 665 0
 3117 020a 0020     		mov	r0, #0
 3118 020c D0E1     		b	.L165
 3119              	.LVL371:
 3120              	.L197:
 668:main.c        ****                     // ========================================================
 3121              		.loc 1 668 0
 3122 020e 0130     		add	r0, r0, #1
 3123              	.LVL372:
 3124 0210 FFF7FEFF 		bl	atoi
 3125              	.LVL373:
 3126 0214 041C     		mov	r4, r0
 3127              	.LVL374:
 672:main.c        ****                     {
 3128              		.loc 1 672 0
 3129 0216 012E     		cmp	r6, #1
 3130 0218 0ED1     		bne	.L198
 674:main.c        ****                         set_led(E_LED_LEFT_GREEN,  green);
 3131              		.loc 1 674 0
 3132 021a 6B46     		mov	r3, sp
 3133 021c 9988     		ldrh	r1, [r3, #4]
 3134 021e 1520     		mov	r0, #21
 3135              	.LVL375:
 3136 0220 FFF7FEFF 		bl	set_led
 3137              	.LVL376:
 675:main.c        ****                         set_led(E_LED_LEFT_BLUE ,  blue );
 3138              		.loc 1 675 0
 3139 0224 B9B2     		uxth	r1, r7
 3140 0226 1620     		mov	r0, #22
 3141 0228 FFF7FEFF 		bl	set_led
 3142              	.LVL377:
 676:main.c        ****                     }// if it's the left colored LED
 3143              		.loc 1 676 0
ARM GAS  C:\Users\BG1026~1\AppData\Local\Temp\cc2n2B4u.s 			page 87


 3144 022c A1B2     		uxth	r1, r4
 3145 022e 1720     		mov	r0, #23
 3146 0230 FFF7FEFF 		bl	set_led
 3147              	.LVL378:
 933:main.c        **** }// parse_and_execute_command
 3148              		.loc 1 933 0
 3149 0234 0120     		mov	r0, #1
 3150 0236 BBE1     		b	.L165
 3151              	.LVL379:
 3152              	.L198:
 680:main.c        ****                         set_led(E_LED_RIGHT_GREEN,  green);
 3153              		.loc 1 680 0
 3154 0238 6B46     		mov	r3, sp
 3155 023a 9988     		ldrh	r1, [r3, #4]
 3156 023c 1220     		mov	r0, #18
 3157              	.LVL380:
 3158 023e FFF7FEFF 		bl	set_led
 3159              	.LVL381:
 681:main.c        ****                         set_led(E_LED_RIGHT_BLUE ,  blue );
 3160              		.loc 1 681 0
 3161 0242 B9B2     		uxth	r1, r7
 3162 0244 1320     		mov	r0, #19
 3163 0246 FFF7FEFF 		bl	set_led
 3164              	.LVL382:
 682:main.c        ****                     }// if it's the right colored LED
 3165              		.loc 1 682 0
 3166 024a A1B2     		uxth	r1, r4
 3167 024c 1420     		mov	r0, #20
 3168 024e FFF7FEFF 		bl	set_led
 3169              	.LVL383:
 933:main.c        **** }// parse_and_execute_command
 3170              		.loc 1 933 0
 3171 0252 0120     		mov	r0, #1
 3172 0254 ACE1     		b	.L165
 3173              	.LVL384:
 3174              	.L189:
 690:main.c        ****                     {
 3175              		.loc 1 690 0
 3176 0256 281C     		mov	r0, r5
 3177 0258 2C21     		mov	r1, #44
 3178 025a FFF7FEFF 		bl	strchr
 3179              	.LVL385:
 3180 025e 0028     		cmp	r0, #0
 3181 0260 06D1     		bne	.L199
 692:main.c        ****                         return FALSE;
 3182              		.loc 1 692 0
 3183 0262 0230     		add	r0, r0, #2
 3184              	.LVL386:
 3185 0264 211C     		mov	r1, r4
 3186 0266 3D4A     		ldr	r2, .L228+24
 3187 0268 FFF7FEFF 		bl	send_alarm_telemetry
 3188              	.LVL387:
 693:main.c        ****                     }// If we can't find the next ',' character
 3189              		.loc 1 693 0
 3190 026c 0020     		mov	r0, #0
 3191 026e 9FE1     		b	.L165
 3192              	.LVL388:
ARM GAS  C:\Users\BG1026~1\AppData\Local\Temp\cc2n2B4u.s 			page 88


 3193              	.L199:
 696:main.c        ****                     {
 3194              		.loc 1 696 0
 3195 0270 0130     		add	r0, r0, #1
 3196              	.LVL389:
 3197 0272 3A21     		mov	r1, #58
 3198 0274 FFF7FEFF 		bl	strchr
 3199              	.LVL390:
 3200 0278 0028     		cmp	r0, #0
 3201 027a 06D1     		bne	.L200
 698:main.c        ****                         return FALSE;
 3202              		.loc 1 698 0
 3203 027c 0230     		add	r0, r0, #2
 3204              	.LVL391:
 3205 027e 211C     		mov	r1, r4
 3206 0280 3D4A     		ldr	r2, .L228+52
 3207 0282 FFF7FEFF 		bl	send_alarm_telemetry
 3208              	.LVL392:
 699:main.c        ****                     }// If we can't find the next ':' character
 3209              		.loc 1 699 0
 3210 0286 0020     		mov	r0, #0
 3211 0288 92E1     		b	.L165
 3212              	.LVL393:
 3213              	.L200:
 705:main.c        ****                     {
 3214              		.loc 1 705 0
 3215 028a 0130     		add	r0, r0, #1
 3216              	.LVL394:
 3217 028c 3A21     		mov	r1, #58
 3218 028e FFF7FEFF 		bl	strchr
 3219              	.LVL395:
 3220 0292 0028     		cmp	r0, #0
 3221 0294 06D1     		bne	.L201
 707:main.c        ****                         return FALSE;
 3222              		.loc 1 707 0
 3223 0296 0230     		add	r0, r0, #2
 3224              	.LVL396:
 3225 0298 211C     		mov	r1, r4
 3226 029a 384A     		ldr	r2, .L228+56
 3227 029c FFF7FEFF 		bl	send_alarm_telemetry
 3228              	.LVL397:
 708:main.c        ****                     }// If we can't find the next ':' character
 3229              		.loc 1 708 0
 3230 02a0 0020     		mov	r0, #0
 3231 02a2 85E1     		b	.L165
 3232              	.LVL398:
 3233              	.L201:
 711:main.c        ****                     {
 3234              		.loc 1 711 0
 3235 02a4 461C     		add	r6, r0, #1
 3236              	.LVL399:
 3237 02a6 301C     		mov	r0, r6
 3238 02a8 2C21     		mov	r1, #44
 3239 02aa FFF7FEFF 		bl	strchr
 3240              	.LVL400:
 3241 02ae 0028     		cmp	r0, #0
 3242 02b0 06D1     		bne	.L202
ARM GAS  C:\Users\BG1026~1\AppData\Local\Temp\cc2n2B4u.s 			page 89


 713:main.c        ****                         return FALSE;
 3243              		.loc 1 713 0
 3244 02b2 0230     		add	r0, r0, #2
 3245              	.LVL401:
 3246 02b4 211C     		mov	r1, r4
 3247 02b6 314A     		ldr	r2, .L228+56
 3248 02b8 FFF7FEFF 		bl	send_alarm_telemetry
 3249              	.LVL402:
 714:main.c        ****                     }// If we can't find the next ',' character
 3250              		.loc 1 714 0
 3251 02bc 0020     		mov	r0, #0
 3252 02be 77E1     		b	.L165
 3253              	.LVL403:
 3254              	.L202:
 716:main.c        ****                     next_param_str++;
 3255              		.loc 1 716 0
 3256 02c0 0023     		mov	r3, #0
 3257 02c2 0370     		strb	r3, [r0]
 717:main.c        ****                     
 3258              		.loc 1 717 0
 3259 02c4 451C     		add	r5, r0, #1
 3260              	.LVL404:
 719:main.c        ****                     
 3261              		.loc 1 719 0
 3262 02c6 301C     		mov	r0, r6
 3263 02c8 FFF7FEFF 		bl	atoi
 3264              	.LVL405:
 3265 02cc 061E     		sub	r6, r0, #0
 3266              	.LVL406:
 721:main.c        ****                     {
 3267              		.loc 1 721 0
 3268 02ce 0E2E     		cmp	r6, #14
 3269 02d0 06D9     		bls	.L203
 723:main.c        ****                         return FALSE;
 3270              		.loc 1 723 0
 3271 02d2 0220     		mov	r0, #2
 3272              	.LVL407:
 3273 02d4 211C     		mov	r1, r4
 3274 02d6 2A4A     		ldr	r2, .L228+60
 3275 02d8 FFF7FEFF 		bl	send_alarm_telemetry
 3276              	.LVL408:
 724:main.c        ****                     }
 3277              		.loc 1 724 0
 3278 02dc 0020     		mov	r0, #0
 3279 02de 67E1     		b	.L165
 3280              	.LVL409:
 3281              	.L203:
 730:main.c        ****                     {
 3282              		.loc 1 730 0
 3283 02e0 281C     		mov	r0, r5
 3284              	.LVL410:
 3285 02e2 3A21     		mov	r1, #58
 3286 02e4 FFF7FEFF 		bl	strchr
 3287              	.LVL411:
 3288 02e8 0028     		cmp	r0, #0
 3289 02ea 06D1     		bne	.L204
 732:main.c        ****                         return FALSE;
ARM GAS  C:\Users\BG1026~1\AppData\Local\Temp\cc2n2B4u.s 			page 90


 3290              		.loc 1 732 0
 3291 02ec 0230     		add	r0, r0, #2
 3292              	.LVL412:
 3293 02ee 211C     		mov	r1, r4
 3294 02f0 1F4A     		ldr	r2, .L228+44
 3295 02f2 FFF7FEFF 		bl	send_alarm_telemetry
 3296              	.LVL413:
 733:main.c        ****                     }// If we can't find the next ':' character
 3297              		.loc 1 733 0
 3298 02f6 0020     		mov	r0, #0
 3299 02f8 5AE1     		b	.L165
 3300              	.LVL414:
 3301              	.L204:
 736:main.c        ****                     
 3302              		.loc 1 736 0
 3303 02fa 0130     		add	r0, r0, #1
 3304              	.LVL415:
 3305 02fc FFF7FEFF 		bl	atoi
 3306              	.LVL416:
 3307 0300 011C     		mov	r1, r0
 3308              	.LVL417:
 741:main.c        ****                     break;
 3309              		.loc 1 741 0
 3310 0302 F0B2     		uxtb	r0, r6
 3311              	.LVL418:
 3312 0304 89B2     		uxth	r1, r1
 3313              	.LVL419:
 3314 0306 FFF7FEFF 		bl	set_led
 3315              	.LVL420:
 933:main.c        **** }// parse_and_execute_command
 3316              		.loc 1 933 0
 3317 030a 0120     		mov	r0, #1
 742:main.c        ****                 }// CMD_LED_SET_WHITE
 3318              		.loc 1 742 0
 3319 030c 50E1     		b	.L165
 3320              	.LVL421:
 3321              	.L190:
 747:main.c        ****                     {
 3322              		.loc 1 747 0
 3323 030e 281C     		mov	r0, r5
 3324 0310 2C21     		mov	r1, #44
 3325 0312 FFF7FEFF 		bl	strchr
 3326              	.LVL422:
 3327 0316 0028     		cmp	r0, #0
 3328 0318 06D1     		bne	.L205
 749:main.c        ****                         return FALSE;
 3329              		.loc 1 749 0
 3330 031a 0230     		add	r0, r0, #2
 3331              	.LVL423:
 3332 031c 211C     		mov	r1, r4
 3333 031e 194A     		ldr	r2, .L228+64
 3334 0320 FFF7FEFF 		bl	send_alarm_telemetry
 3335              	.LVL424:
 750:main.c        ****                     }// If we can't find the next ',' character
 3336              		.loc 1 750 0
 3337 0324 0020     		mov	r0, #0
 3338 0326 43E1     		b	.L165
ARM GAS  C:\Users\BG1026~1\AppData\Local\Temp\cc2n2B4u.s 			page 91


 3339              	.LVL425:
 3340              	.L205:
 753:main.c        ****                     {
 3341              		.loc 1 753 0
 3342 0328 0130     		add	r0, r0, #1
 3343              	.LVL426:
 3344 032a 2C21     		mov	r1, #44
 3345 032c FFF7FEFF 		bl	strchr
 3346              	.LVL427:
 3347 0330 0028     		cmp	r0, #0
 3348 0332 29D1     		bne	.L206
 755:main.c        ****                         return FALSE;
 3349              		.loc 1 755 0
 3350 0334 0230     		add	r0, r0, #2
 3351              	.LVL428:
 3352 0336 211C     		mov	r1, r4
 3353 0338 124A     		ldr	r2, .L228+64
 3354 033a FFF7FEFF 		bl	send_alarm_telemetry
 3355              	.LVL429:
 756:main.c        ****                     }// If we can't find the next ',' character 
 3356              		.loc 1 756 0
 3357 033e 0020     		mov	r0, #0
 3358 0340 36E1     		b	.L165
 3359              	.L229:
 3360 0342 C046     		.align	2
 3361              	.L228:
 3362 0344 AC000000 		.word	.LC53
 3363 0348 60000000 		.word	.L168
 3364 034c C8000000 		.word	.LC56
 3365 0350 8C000000 		.word	.LANCHOR1
 3366 0354 0C010000 		.word	.LANCHOR2
 3367 0358 D0000000 		.word	.LC59
 3368 035c DC000000 		.word	.LC62
 3369 0360 00000000 		.word	.LANCHOR4
 3370 0364 00000000 		.word	.LANCHOR0
 3371 0368 78000000 		.word	.L187
 3372 036c FC000000 		.word	.LC67
 3373 0370 1C010000 		.word	.LC69
 3374 0374 40010000 		.word	.LC71
 3375 0378 64010000 		.word	.LC73
 3376 037c 80010000 		.word	.LC75
 3377 0380 98010000 		.word	.LC77
 3378 0384 AC010000 		.word	.LC79
 3379              	.LVL430:
 3380              	.L206:
 759:main.c        ****                     {
 3381              		.loc 1 759 0
 3382 0388 0130     		add	r0, r0, #1
 3383              	.LVL431:
 3384 038a 3A21     		mov	r1, #58
 3385 038c FFF7FEFF 		bl	strchr
 3386              	.LVL432:
 3387 0390 0028     		cmp	r0, #0
 3388 0392 06D1     		bne	.L207
 761:main.c        ****                         return FALSE;
 3389              		.loc 1 761 0
 3390 0394 0230     		add	r0, r0, #2
ARM GAS  C:\Users\BG1026~1\AppData\Local\Temp\cc2n2B4u.s 			page 92


 3391              	.LVL433:
 3392 0396 211C     		mov	r1, r4
 3393 0398 864A     		ldr	r2, .L230
 3394 039a FFF7FEFF 		bl	send_alarm_telemetry
 3395              	.LVL434:
 762:main.c        ****                     }// If we can't find the next ':' character
 3396              		.loc 1 762 0
 3397 039e 0020     		mov	r0, #0
 3398 03a0 06E1     		b	.L165
 3399              	.LVL435:
 3400              	.L207:
 765:main.c        ****                     
 3401              		.loc 1 765 0
 3402 03a2 0023     		mov	r3, #0
 3403 03a4 0293     		str	r3, [sp, #8]
 3404 03a6 0393     		str	r3, [sp, #12]
 3405 03a8 0493     		str	r3, [sp, #16]
 3406 03aa 0593     		str	r3, [sp, #20]
 3407 03ac 0693     		str	r3, [sp, #24]
 3408 03ae 0793     		str	r3, [sp, #28]
 3409 03b0 0893     		str	r3, [sp, #32]
 3410 03b2 0993     		str	r3, [sp, #36]
 3411 03b4 0A93     		str	r3, [sp, #40]
 3412 03b6 0B93     		str	r3, [sp, #44]
 3413 03b8 0C93     		str	r3, [sp, #48]
 3414 03ba 0D93     		str	r3, [sp, #52]
 770:main.c        ****                     {
 3415              		.loc 1 770 0
 3416 03bc 0130     		add	r0, r0, #1
 3417              	.LVL436:
 3418 03be 2221     		mov	r1, #34
 3419 03c0 FFF7FEFF 		bl	strchr
 3420              	.LVL437:
 3421 03c4 0028     		cmp	r0, #0
 3422 03c6 06D1     		bne	.L208
 772:main.c        ****                         return FALSE;
 3423              		.loc 1 772 0
 3424 03c8 0230     		add	r0, r0, #2
 3425              	.LVL438:
 3426 03ca 211C     		mov	r1, r4
 3427 03cc 794A     		ldr	r2, .L230
 3428 03ce FFF7FEFF 		bl	send_alarm_telemetry
 3429              	.LVL439:
 773:main.c        ****                     }// If we can't find the next '"' character
 3430              		.loc 1 773 0
 3431 03d2 0020     		mov	r0, #0
 3432 03d4 ECE0     		b	.L165
 3433              	.LVL440:
 3434              	.L208:
 775:main.c        ****                     led_vec[E_LED_LEFT_RED] = atoi(param_str);
 3435              		.loc 1 775 0
 3436 03d6 451C     		add	r5, r0, #1
 3437              	.LVL441:
 776:main.c        ****                  
 3438              		.loc 1 776 0
 3439 03d8 281C     		mov	r0, r5
 3440 03da FFF7FEFF 		bl	atoi
ARM GAS  C:\Users\BG1026~1\AppData\Local\Temp\cc2n2B4u.s 			page 93


 3441              	.LVL442:
 3442 03de 02AB     		add	r3, sp, #8
 3443 03e0 5885     		strh	r0, [r3, #42]
 781:main.c        ****                     {
 3444              		.loc 1 781 0
 3445 03e2 281C     		mov	r0, r5
 3446 03e4 2D21     		mov	r1, #45
 3447 03e6 FFF7FEFF 		bl	strchr
 3448              	.LVL443:
 3449 03ea 0028     		cmp	r0, #0
 3450 03ec 06D1     		bne	.L209
 783:main.c        ****                         return FALSE;
 3451              		.loc 1 783 0
 3452 03ee 0230     		add	r0, r0, #2
 3453              	.LVL444:
 3454 03f0 211C     		mov	r1, r4
 3455 03f2 704A     		ldr	r2, .L230
 3456 03f4 FFF7FEFF 		bl	send_alarm_telemetry
 3457              	.LVL445:
 784:main.c        ****                     }// If we can't find the next '-' character
 3458              		.loc 1 784 0
 3459 03f8 0020     		mov	r0, #0
 3460 03fa D9E0     		b	.L165
 3461              	.LVL446:
 3462              	.L209:
 786:main.c        ****                     led_vec[E_LED_LEFT_GREEN] = atoi(param_str);
 3463              		.loc 1 786 0
 3464 03fc 451C     		add	r5, r0, #1
 3465              	.LVL447:
 787:main.c        ****                     
 3466              		.loc 1 787 0
 3467 03fe 281C     		mov	r0, r5
 3468 0400 FFF7FEFF 		bl	atoi
 3469              	.LVL448:
 3470 0404 02AB     		add	r3, sp, #8
 3471 0406 9885     		strh	r0, [r3, #44]
 792:main.c        ****                     {
 3472              		.loc 1 792 0
 3473 0408 281C     		mov	r0, r5
 3474 040a 2D21     		mov	r1, #45
 3475 040c FFF7FEFF 		bl	strchr
 3476              	.LVL449:
 3477 0410 0028     		cmp	r0, #0
 3478 0412 06D1     		bne	.L210
 794:main.c        ****                         return FALSE;
 3479              		.loc 1 794 0
 3480 0414 0230     		add	r0, r0, #2
 3481              	.LVL450:
 3482 0416 211C     		mov	r1, r4
 3483 0418 664A     		ldr	r2, .L230
 3484 041a FFF7FEFF 		bl	send_alarm_telemetry
 3485              	.LVL451:
 795:main.c        ****                     }// If we can't find the next '-' character
 3486              		.loc 1 795 0
 3487 041e 0020     		mov	r0, #0
 3488 0420 C6E0     		b	.L165
 3489              	.LVL452:
ARM GAS  C:\Users\BG1026~1\AppData\Local\Temp\cc2n2B4u.s 			page 94


 3490              	.L210:
 797:main.c        ****                     led_vec[E_LED_LEFT_BLUE] = atoi(param_str);
 3491              		.loc 1 797 0
 3492 0422 451C     		add	r5, r0, #1
 3493              	.LVL453:
 798:main.c        ****                     
 3494              		.loc 1 798 0
 3495 0424 281C     		mov	r0, r5
 3496 0426 FFF7FEFF 		bl	atoi
 3497              	.LVL454:
 3498 042a 02AB     		add	r3, sp, #8
 3499 042c D885     		strh	r0, [r3, #46]
 3500              	.LVL455:
 803:main.c        ****                     {
 3501              		.loc 1 803 0
 3502 042e 0026     		mov	r6, #0
 3503 0430 14E0     		b	.L211
 3504              	.LVL456:
 3505              	.L213:
 805:main.c        ****                         {
 3506              		.loc 1 805 0
 3507 0432 281C     		mov	r0, r5
 3508 0434 2D21     		mov	r1, #45
 3509 0436 FFF7FEFF 		bl	strchr
 3510              	.LVL457:
 3511 043a 0028     		cmp	r0, #0
 3512 043c 06D1     		bne	.L212
 807:main.c        ****                             return FALSE;
 3513              		.loc 1 807 0
 3514 043e 0230     		add	r0, r0, #2
 3515              	.LVL458:
 3516 0440 211C     		mov	r1, r4
 3517 0442 5C4A     		ldr	r2, .L230
 3518 0444 FFF7FEFF 		bl	send_alarm_telemetry
 3519              	.LVL459:
 808:main.c        ****                         }// If we can't find the next '-' character
 3520              		.loc 1 808 0
 3521 0448 0020     		mov	r0, #0
 3522 044a B1E0     		b	.L165
 3523              	.LVL460:
 3524              	.L212:
 810:main.c        ****                         led_vec[i] = atoi(param_str);
 3525              		.loc 1 810 0 discriminator 2
 3526 044c 451C     		add	r5, r0, #1
 3527              	.LVL461:
 811:main.c        ****                     }// for all the white LEDS
 3528              		.loc 1 811 0 discriminator 2
 3529 044e 281C     		mov	r0, r5
 3530 0450 FFF7FEFF 		bl	atoi
 3531              	.LVL462:
 3532 0454 7300     		lsl	r3, r6, #1
 3533 0456 02AA     		add	r2, sp, #8
 3534 0458 9852     		strh	r0, [r3, r2]
 803:main.c        ****                     {
 3535              		.loc 1 803 0 discriminator 2
 3536 045a 0136     		add	r6, r6, #1
 3537              	.LVL463:
ARM GAS  C:\Users\BG1026~1\AppData\Local\Temp\cc2n2B4u.s 			page 95


 3538              	.L211:
 803:main.c        ****                     {
 3539              		.loc 1 803 0 is_stmt 0 discriminator 1
 3540 045c 0E2E     		cmp	r6, #14
 3541 045e E8DD     		ble	.L213
 817:main.c        ****                     {
 3542              		.loc 1 817 0 is_stmt 1
 3543 0460 281C     		mov	r0, r5
 3544 0462 2D21     		mov	r1, #45
 3545 0464 FFF7FEFF 		bl	strchr
 3546              	.LVL464:
 3547 0468 0028     		cmp	r0, #0
 3548 046a 06D1     		bne	.L214
 819:main.c        ****                         return FALSE;
 3549              		.loc 1 819 0
 3550 046c 0230     		add	r0, r0, #2
 3551              	.LVL465:
 3552 046e 211C     		mov	r1, r4
 3553 0470 504A     		ldr	r2, .L230
 3554 0472 FFF7FEFF 		bl	send_alarm_telemetry
 3555              	.LVL466:
 820:main.c        ****                     }// If we can't find the next '-' character
 3556              		.loc 1 820 0
 3557 0476 0020     		mov	r0, #0
 3558 0478 9AE0     		b	.L165
 3559              	.LVL467:
 3560              	.L214:
 822:main.c        ****                     led_vec[E_LED_RIGHT_RED] = atoi(param_str);
 3561              		.loc 1 822 0
 3562 047a 451C     		add	r5, r0, #1
 3563              	.LVL468:
 823:main.c        ****                     
 3564              		.loc 1 823 0
 3565 047c 281C     		mov	r0, r5
 3566 047e FFF7FEFF 		bl	atoi
 3567              	.LVL469:
 3568 0482 02AB     		add	r3, sp, #8
 3569 0484 9884     		strh	r0, [r3, #36]
 828:main.c        ****                     {
 3570              		.loc 1 828 0
 3571 0486 281C     		mov	r0, r5
 3572 0488 2D21     		mov	r1, #45
 3573 048a FFF7FEFF 		bl	strchr
 3574              	.LVL470:
 3575 048e 0028     		cmp	r0, #0
 3576 0490 06D1     		bne	.L215
 830:main.c        ****                         return FALSE;
 3577              		.loc 1 830 0
 3578 0492 0230     		add	r0, r0, #2
 3579              	.LVL471:
 3580 0494 211C     		mov	r1, r4
 3581 0496 474A     		ldr	r2, .L230
 3582 0498 FFF7FEFF 		bl	send_alarm_telemetry
 3583              	.LVL472:
 831:main.c        ****                     }// If we can't find the next '-' character
 3584              		.loc 1 831 0
 3585 049c 0020     		mov	r0, #0
ARM GAS  C:\Users\BG1026~1\AppData\Local\Temp\cc2n2B4u.s 			page 96


 3586 049e 87E0     		b	.L165
 3587              	.LVL473:
 3588              	.L215:
 833:main.c        ****                     led_vec[E_LED_RIGHT_GREEN] = atoi(param_str);
 3589              		.loc 1 833 0
 3590 04a0 451C     		add	r5, r0, #1
 3591              	.LVL474:
 834:main.c        ****                     
 3592              		.loc 1 834 0
 3593 04a2 281C     		mov	r0, r5
 3594 04a4 FFF7FEFF 		bl	atoi
 3595              	.LVL475:
 3596 04a8 02AB     		add	r3, sp, #8
 3597 04aa D884     		strh	r0, [r3, #38]
 839:main.c        ****                     {
 3598              		.loc 1 839 0
 3599 04ac 281C     		mov	r0, r5
 3600 04ae 2D21     		mov	r1, #45
 3601 04b0 FFF7FEFF 		bl	strchr
 3602              	.LVL476:
 3603 04b4 0028     		cmp	r0, #0
 3604 04b6 06D1     		bne	.L216
 841:main.c        ****                         return FALSE;
 3605              		.loc 1 841 0
 3606 04b8 0230     		add	r0, r0, #2
 3607              	.LVL477:
 3608 04ba 211C     		mov	r1, r4
 3609 04bc 3D4A     		ldr	r2, .L230
 3610 04be FFF7FEFF 		bl	send_alarm_telemetry
 3611              	.LVL478:
 842:main.c        ****                     }// If we can't find the next '-' character
 3612              		.loc 1 842 0
 3613 04c2 0020     		mov	r0, #0
 3614 04c4 74E0     		b	.L165
 3615              	.LVL479:
 3616              	.L216:
 844:main.c        ****                     led_vec[E_LED_RIGHT_BLUE] = atoi(param_str);
 3617              		.loc 1 844 0
 3618 04c6 0130     		add	r0, r0, #1
 3619              	.LVL480:
 845:main.c        ****                     
 3620              		.loc 1 845 0
 3621 04c8 FFF7FEFF 		bl	atoi
 3622              	.LVL481:
 3623 04cc 02AB     		add	r3, sp, #8
 3624 04ce 1885     		strh	r0, [r3, #40]
 847:main.c        ****                     break;
 3625              		.loc 1 847 0
 3626 04d0 181C     		mov	r0, r3
 3627 04d2 FFF7FEFF 		bl	set_led_strip
 3628              	.LVL482:
 933:main.c        **** }// parse_and_execute_command
 3629              		.loc 1 933 0
 3630 04d6 0120     		mov	r0, #1
 848:main.c        ****                 }// CMD_LED_SET_STRIP
 3631              		.loc 1 848 0
 3632 04d8 6AE0     		b	.L165
ARM GAS  C:\Users\BG1026~1\AppData\Local\Temp\cc2n2B4u.s 			page 97


 3633              	.LVL483:
 3634              	.L185:
 854:main.c        ****                     return FALSE;
 3635              		.loc 1 854 0
 3636 04da 0220     		mov	r0, #2
 3637              	.LVL484:
 3638 04dc 211C     		mov	r1, r4
 3639 04de 364A     		ldr	r2, .L230+4
 3640 04e0 FFF7FEFF 		bl	send_alarm_telemetry
 3641              	.LVL485:
 855:main.c        ****                 }// CMD_LED_UNKNOWN, default
 3642              		.loc 1 855 0
 3643 04e4 0020     		mov	r0, #0
 3644 04e6 63E0     		b	.L165
 3645              	.LVL486:
 3646              	.L172:
 864:main.c        ****             {
 3647              		.loc 1 864 0
 3648 04e8 281C     		mov	r0, r5
 3649 04ea 2C21     		mov	r1, #44
 3650 04ec FFF7FEFF 		bl	strchr
 3651              	.LVL487:
 3652 04f0 0028     		cmp	r0, #0
 3653 04f2 06D1     		bne	.L217
 866:main.c        ****                 return FALSE;
 3654              		.loc 1 866 0
 3655 04f4 0230     		add	r0, r0, #2
 3656              	.LVL488:
 3657 04f6 211C     		mov	r1, r4
 3658 04f8 304A     		ldr	r2, .L230+8
 3659 04fa FFF7FEFF 		bl	send_alarm_telemetry
 3660              	.LVL489:
 867:main.c        ****             }// If we can't find the next ',' character
 3661              		.loc 1 867 0
 3662 04fe 0020     		mov	r0, #0
 3663 0500 56E0     		b	.L165
 3664              	.LVL490:
 3665              	.L217:
 870:main.c        ****             {
 3666              		.loc 1 870 0
 3667 0502 0130     		add	r0, r0, #1
 3668              	.LVL491:
 3669 0504 3A21     		mov	r1, #58
 3670 0506 FFF7FEFF 		bl	strchr
 3671              	.LVL492:
 3672 050a 0028     		cmp	r0, #0
 3673 050c 06D1     		bne	.L218
 872:main.c        ****                 return FALSE;
 3674              		.loc 1 872 0
 3675 050e 0230     		add	r0, r0, #2
 3676              	.LVL493:
 3677 0510 211C     		mov	r1, r4
 3678 0512 2A4A     		ldr	r2, .L230+8
 3679 0514 FFF7FEFF 		bl	send_alarm_telemetry
 3680              	.LVL494:
 873:main.c        ****             }// If we can't find the next ':' character
 3681              		.loc 1 873 0
ARM GAS  C:\Users\BG1026~1\AppData\Local\Temp\cc2n2B4u.s 			page 98


 3682 0518 0020     		mov	r0, #0
 3683 051a 49E0     		b	.L165
 3684              	.LVL495:
 3685              	.L218:
 875:main.c        ****             
 3686              		.loc 1 875 0
 3687 051c 451C     		add	r5, r0, #1
 3688              	.LVL496:
 877:main.c        ****             {
 3689              		.loc 1 877 0
 3690 051e 281C     		mov	r0, r5
 3691 0520 FFF7FEFF 		bl	get_tracker_cmd_id_from_cmd_string
 3692              	.LVL497:
 3693 0524 0128     		cmp	r0, #1
 3694 0526 04D0     		beq	.L220
 3695 0528 0028     		cmp	r0, #0
 3696 052a 07D0     		beq	.L221
 3697 052c 0228     		cmp	r0, #2
 3698 052e 0AD0     		beq	.L222
 3699 0530 2AE0     		b	.L227
 3700              	.L220:
 881:main.c        ****                     break;
 3701              		.loc 1 881 0
 3702 0532 0022     		mov	r2, #0
 3703 0534 224B     		ldr	r3, .L230+12
 3704 0536 1A72     		strb	r2, [r3, #8]
 933:main.c        **** }// parse_and_execute_command
 3705              		.loc 1 933 0
 3706 0538 0120     		mov	r0, #1
 3707              	.LVL498:
 882:main.c        ****                 }// CMD_TRACKER_DISABLE      
 3708              		.loc 1 882 0
 3709 053a 39E0     		b	.L165
 3710              	.LVL499:
 3711              	.L221:
 887:main.c        ****                     break;
 3712              		.loc 1 887 0
 3713 053c 0122     		mov	r2, #1
 3714 053e 204B     		ldr	r3, .L230+12
 3715 0540 1A72     		strb	r2, [r3, #8]
 933:main.c        **** }// parse_and_execute_command
 3716              		.loc 1 933 0
 3717 0542 0120     		mov	r0, #1
 3718              	.LVL500:
 888:main.c        ****                 }// CMD_TRACKER_ENABLE
 3719              		.loc 1 888 0
 3720 0544 34E0     		b	.L165
 3721              	.LVL501:
 3722              	.L222:
 893:main.c        ****                     {
 3723              		.loc 1 893 0
 3724 0546 281C     		mov	r0, r5
 3725              	.LVL502:
 3726 0548 2C21     		mov	r1, #44
 3727 054a FFF7FEFF 		bl	strchr
 3728              	.LVL503:
 3729 054e 0028     		cmp	r0, #0
ARM GAS  C:\Users\BG1026~1\AppData\Local\Temp\cc2n2B4u.s 			page 99


 3730 0550 06D1     		bne	.L223
 895:main.c        ****                         return FALSE;
 3731              		.loc 1 895 0
 3732 0552 0230     		add	r0, r0, #2
 3733              	.LVL504:
 3734 0554 211C     		mov	r1, r4
 3735 0556 194A     		ldr	r2, .L230+8
 3736 0558 FFF7FEFF 		bl	send_alarm_telemetry
 3737              	.LVL505:
 896:main.c        ****                     }// If we can't find the next ',' character
 3738              		.loc 1 896 0
 3739 055c 0020     		mov	r0, #0
 3740 055e 27E0     		b	.L165
 3741              	.LVL506:
 3742              	.L223:
 899:main.c        ****                     {
 3743              		.loc 1 899 0
 3744 0560 0130     		add	r0, r0, #1
 3745              	.LVL507:
 3746 0562 3A21     		mov	r1, #58
 3747 0564 FFF7FEFF 		bl	strchr
 3748              	.LVL508:
 3749 0568 0028     		cmp	r0, #0
 3750 056a 06D1     		bne	.L224
 901:main.c        ****                         return FALSE;
 3751              		.loc 1 901 0
 3752 056c 0230     		add	r0, r0, #2
 3753              	.LVL509:
 3754 056e 211C     		mov	r1, r4
 3755 0570 124A     		ldr	r2, .L230+8
 3756 0572 FFF7FEFF 		bl	send_alarm_telemetry
 3757              	.LVL510:
 902:main.c        ****                     }// If we can't find the next ':' character
 3758              		.loc 1 902 0
 3759 0576 0020     		mov	r0, #0
 3760 0578 1AE0     		b	.L165
 3761              	.LVL511:
 3762              	.L224:
 904:main.c        ****                     number_of_buttons = atoi(param_str);
 3763              		.loc 1 904 0
 3764 057a 0130     		add	r0, r0, #1
 3765              	.LVL512:
 905:main.c        ****                     break;
 3766              		.loc 1 905 0
 3767 057c FFF7FEFF 		bl	atoi
 3768              	.LVL513:
 3769 0580 0F4B     		ldr	r3, .L230+12
 3770 0582 1880     		strh	r0, [r3]
 933:main.c        **** }// parse_and_execute_command
 3771              		.loc 1 933 0
 3772 0584 0120     		mov	r0, #1
 906:main.c        ****                 }// CMD_TRACKER_SET_BUTTON
 3773              		.loc 1 906 0
 3774 0586 13E0     		b	.L165
 3775              	.LVL514:
 3776              	.L227:
 912:main.c        ****                     return FALSE;
ARM GAS  C:\Users\BG1026~1\AppData\Local\Temp\cc2n2B4u.s 			page 100


 3777              		.loc 1 912 0
 3778 0588 0220     		mov	r0, #2
 3779              	.LVL515:
 3780 058a 211C     		mov	r1, r4
 3781 058c 0B4A     		ldr	r2, .L230+8
 3782 058e FFF7FEFF 		bl	send_alarm_telemetry
 3783              	.LVL516:
 913:main.c        ****                 }// CMD_TRACKER_UNKNOWN, default
 3784              		.loc 1 913 0
 3785 0592 0020     		mov	r0, #0
 3786 0594 0CE0     		b	.L165
 3787              	.LVL517:
 3788              	.L173:
 921:main.c        ****             break;
 3789              		.loc 1 921 0
 3790 0596 0120     		mov	r0, #1
 3791 0598 0A49     		ldr	r1, .L230+16
 3792 059a 0B4A     		ldr	r2, .L230+20
 3793 059c FFF7FEFF 		bl	send_alarm_telemetry
 3794              	.LVL518:
 933:main.c        **** }// parse_and_execute_command
 3795              		.loc 1 933 0
 3796 05a0 0120     		mov	r0, #1
 922:main.c        ****         }// CMD_VERSION
 3797              		.loc 1 922 0
 3798 05a2 05E0     		b	.L165
 3799              	.LVL519:
 3800              	.L166:
 928:main.c        ****             return FALSE;
 3801              		.loc 1 928 0
 3802 05a4 0220     		mov	r0, #2
 3803              	.LVL520:
 3804 05a6 211C     		mov	r1, r4
 3805 05a8 084A     		ldr	r2, .L230+24
 3806 05aa FFF7FEFF 		bl	send_alarm_telemetry
 3807              	.LVL521:
 929:main.c        ****         }// default
 3808              		.loc 1 929 0
 3809 05ae 0020     		mov	r0, #0
 3810              	.LVL522:
 3811              	.L165:
 934:main.c        **** 
 3812              		.loc 1 934 0
 3813 05b0 0FB0     		add	sp, sp, #60
 3814              		@ sp needed
 3815 05b2 F0BD     		pop	{r4, r5, r6, r7, pc}
 3816              	.L231:
 3817              		.align	2
 3818              	.L230:
 3819 05b4 AC010000 		.word	.LC79
 3820 05b8 CC010000 		.word	.LC81
 3821 05bc E4010000 		.word	.LC83
 3822 05c0 00000000 		.word	.LANCHOR4
 3823 05c4 00020000 		.word	.LC85
 3824 05c8 08020000 		.word	.LC87
 3825 05cc 10020000 		.word	.LC89
 3826              		.cfi_endproc
ARM GAS  C:\Users\BG1026~1\AppData\Local\Temp\cc2n2B4u.s 			page 101


 3827              	.LFE43:
 3828              		.size	parse_and_execute_command, .-parse_and_execute_command
 3829              		.section	.text.main,"ax",%progbits
 3830              		.align	2
 3831              		.global	main
 3832              		.code	16
 3833              		.thumb_func
 3834              		.type	main, %function
 3835              	main:
 3836              	.LFB37:
 299:main.c        ****     BOOL  cap_sense_is_untouched  = TRUE;
 3837              		.loc 1 299 0
 3838              		.cfi_startproc
 3839 0000 71B5     		push	{r0, r4, r5, r6, lr}
 3840              		.cfi_def_cfa_offset 20
 3841              		.cfi_offset 0, -20
 3842              		.cfi_offset 4, -16
 3843              		.cfi_offset 5, -12
 3844              		.cfi_offset 6, -8
 3845              		.cfi_offset 14, -4
 3846 0002 FFB0     		sub	sp, sp, #508
 3847              		.cfi_def_cfa_offset 528
 3848              	.LVL523:
 307:main.c        ****     Blank_Write(0);
 3849              		.loc 1 307 0
 3850 0004 FFF7FEFF 		bl	SPIM_Start
 3851              	.LVL524:
 308:main.c        ****     Latch_Write(0);
 3852              		.loc 1 308 0
 3853 0008 0020     		mov	r0, #0
 3854 000a FFF7FEFF 		bl	Blank_Write
 3855              	.LVL525:
 309:main.c        ****     CyDelayUs  (1);
 3856              		.loc 1 309 0
 3857 000e 0020     		mov	r0, #0
 3858 0010 FFF7FEFF 		bl	Latch_Write
 3859              	.LVL526:
 310:main.c        **** 
 3860              		.loc 1 310 0
 3861 0014 0120     		mov	r0, #1
 3862 0016 FFF7FEFF 		bl	CyDelayUs
 3863              	.LVL527:
 312:main.c        **** 
 3864              		.loc 1 312 0
 3865              	@ 312 "main.c" 1
 3866 001a 62B6     		CPSIE   i
 3867              	@ 0 "" 2
 314:main.c        **** 
 3868              		.loc 1 314 0
 3869              		.code	16
 3870 001c FFF7FEFF 		bl	clear_all_leds
 3871              	.LVL528:
 317:main.c        **** #else
 3872              		.loc 1 317 0
 3873 0020 FFF7FEFF 		bl	UART_1_Start
 3874              	.LVL529:
 323:main.c        ****     CapSense_ScanAllWidgets();
ARM GAS  C:\Users\BG1026~1\AppData\Local\Temp\cc2n2B4u.s 			page 102


 3875              		.loc 1 323 0
 3876 0024 FFF7FEFF 		bl	CapSense_Start
 3877              	.LVL530:
 324:main.c        **** 
 3878              		.loc 1 324 0
 3879 0028 FFF7FEFF 		bl	CapSense_ScanAllWidgets
 3880              	.LVL531:
 326:main.c        **** 
 3881              		.loc 1 326 0
 3882 002c 6846     		mov	r0, sp
 3883 002e 0021     		mov	r1, #0
 3884 0030 8022     		mov	r2, #128
 3885 0032 9200     		lsl	r2, r2, #2
 3886 0034 FFF7FEFF 		bl	memset
 3887              	.LVL532:
 303:main.c        ****     char* command                 = NULL;
 3888              		.loc 1 303 0
 3889 0038 0026     		mov	r6, #0
 301:main.c        ****     char  uart_char_in            = 0;
 3890              		.loc 1 301 0
 3891 003a 0125     		mov	r5, #1
 3892              	.LVL533:
 3893              	.L233:
 331:main.c        ****         {
 3894              		.loc 1 331 0
 3895 003c FFF7FEFF 		bl	CapSense_IsBusy
 3896              	.LVL534:
 3897 0040 0028     		cmp	r0, #0
 3898 0042 FBD1     		bne	.L233
 333:main.c        **** 
 3899              		.loc 1 333 0
 3900 0044 FFF7FEFF 		bl	CapSense_ProcessAllWidgets
 3901              	.LVL535:
 335:main.c        ****             cap_sense_is_untouched = ((cap_cur_pos == INVALID_CAP_POS) && (cap_old_pos == INVALID_C
 3902              		.loc 1 335 0
 3903 0048 0020     		mov	r0, #0
 3904 004a FFF7FEFF 		bl	CapSense_GetCentroidPos
 3905              	.LVL536:
 3906 004e 80B2     		uxth	r0, r0
 3907 0050 464B     		ldr	r3, .L249
 3908 0052 5880     		strh	r0, [r3, #2]
 336:main.c        **** 
 3909              		.loc 1 336 0
 3910 0054 464B     		ldr	r3, .L249+4
 3911 0056 9842     		cmp	r0, r3
 3912 0058 06D1     		bne	.L246
 336:main.c        **** 
 3913              		.loc 1 336 0 is_stmt 0 discriminator 1
 3914 005a 444B     		ldr	r3, .L249
 3915 005c 9A88     		ldrh	r2, [r3, #4]
 3916 005e 444B     		ldr	r3, .L249+4
 3917 0060 9A42     		cmp	r2, r3
 3918 0062 03D0     		beq	.L247
 336:main.c        **** 
 3919              		.loc 1 336 0
 3920 0064 0024     		mov	r4, #0
 3921 0066 02E0     		b	.L234
ARM GAS  C:\Users\BG1026~1\AppData\Local\Temp\cc2n2B4u.s 			page 103


 3922              	.L246:
 3923 0068 0024     		mov	r4, #0
 3924 006a 00E0     		b	.L234
 3925              	.L247:
 3926 006c 0124     		mov	r4, #1
 3927              	.L234:
 336:main.c        **** 
 3928              		.loc 1 336 0 discriminator 6
 3929 006e E4B2     		uxtb	r4, r4
 3930              	.LVL537:
 338:main.c        ****             {
 3931              		.loc 1 338 0 is_stmt 1 discriminator 6
 3932 0070 002C     		cmp	r4, #0
 3933 0072 25D0     		beq	.L235
 340:main.c        ****                 {
 3934              		.loc 1 340 0
 3935 0074 002D     		cmp	r5, #0
 3936 0076 15D1     		bne	.L236
 342:main.c        ****                     {
 3937              		.loc 1 342 0
 3938 0078 3C4B     		ldr	r3, .L249
 3939 007a 1B7B     		ldrb	r3, [r3, #12]
 3940 007c 002B     		cmp	r3, #0
 3941 007e 11D0     		beq	.L236
 344:main.c        ****                         current_callback_anim++;
 3942              		.loc 1 344 0
 3943 0080 3A4B     		ldr	r3, .L249
 3944 0082 D888     		ldrh	r0, [r3, #6]
 3945 0084 3B49     		ldr	r1, .L249+8
 3946 0086 FFF7FEFF 		bl	send_button_telemetry
 3947              	.LVL538:
 345:main.c        ****                         current_callback_anim %= ANIM_UNKNOWN;
 3948              		.loc 1 345 0
 3949 008a 3B4D     		ldr	r5, .L249+12
 3950              	.LVL539:
 3951 008c 6B6D     		ldr	r3, [r5, #84]
 3952 008e 581C     		add	r0, r3, #1
 346:main.c        ****                         clear_all_leds();
 3953              		.loc 1 346 0
 3954 0090 0921     		mov	r1, #9
 3955 0092 FFF7FEFF 		bl	__aeabi_idivmod
 3956              	.LVL540:
 3957 0096 6965     		str	r1, [r5, #84]
 347:main.c        ****                         send_animation_telemetry(current_callback_anim, "starting");
 3958              		.loc 1 347 0
 3959 0098 FFF7FEFF 		bl	clear_all_leds
 3960              	.LVL541:
 348:main.c        ****                     }
 3961              		.loc 1 348 0
 3962 009c 686D     		ldr	r0, [r5, #84]
 3963 009e 3749     		ldr	r1, .L249+16
 3964 00a0 FFF7FEFF 		bl	send_animation_telemetry
 3965              	.LVL542:
 3966              	.L236:
 351:main.c        ****                 {
 3967              		.loc 1 351 0
 3968 00a4 5023     		mov	r3, #80
ARM GAS  C:\Users\BG1026~1\AppData\Local\Temp\cc2n2B4u.s 			page 104


 3969 00a6 344A     		ldr	r2, .L249+12
 3970 00a8 D35C     		ldrb	r3, [r2, r3]
 3971 00aa 002B     		cmp	r3, #0
 3972 00ac 1CD1     		bne	.L237
 353:main.c        ****                 }
 3973              		.loc 1 353 0
 3974 00ae 536D     		ldr	r3, [r2, #84]
 3975 00b0 5A00     		lsl	r2, r3, #1
 3976 00b2 D318     		add	r3, r2, r3
 3977 00b4 9B00     		lsl	r3, r3, #2
 3978 00b6 324A     		ldr	r2, .L249+20
 3979 00b8 D318     		add	r3, r2, r3
 3980 00ba 1B6A     		ldr	r3, [r3, #32]
 3981 00bc 9847     		blx	r3
 3982              	.LVL543:
 3983 00be 13E0     		b	.L237
 3984              	.LVL544:
 3985              	.L235:
 358:main.c        ****                 {
 3986              		.loc 1 358 0
 3987 00c0 002D     		cmp	r5, #0
 3988 00c2 0FD0     		beq	.L238
 360:main.c        ****                     send_button_telemetry(led_pos, "up");
 3989              		.loc 1 360 0
 3990 00c4 FFF7FEFF 		bl	clear_all_leds
 3991              	.LVL545:
 361:main.c        ****                     if (! stop_anim)
 3992              		.loc 1 361 0
 3993 00c8 284B     		ldr	r3, .L249
 3994 00ca D888     		ldrh	r0, [r3, #6]
 3995 00cc 2949     		ldr	r1, .L249+8
 3996 00ce FFF7FEFF 		bl	send_button_telemetry
 3997              	.LVL546:
 362:main.c        ****                     {
 3998              		.loc 1 362 0
 3999 00d2 5023     		mov	r3, #80
 4000 00d4 284A     		ldr	r2, .L249+12
 4001 00d6 D35C     		ldrb	r3, [r2, r3]
 4002 00d8 002B     		cmp	r3, #0
 4003 00da 03D1     		bne	.L238
 364:main.c        ****                     }
 4004              		.loc 1 364 0
 4005 00dc 506D     		ldr	r0, [r2, #84]
 4006 00de 2949     		ldr	r1, .L249+24
 4007 00e0 FFF7FEFF 		bl	send_animation_telemetry
 4008              	.LVL547:
 4009              	.L238:
 368:main.c        ****             }// else, capsense is touched
 4010              		.loc 1 368 0
 4011 00e4 FFF7FEFF 		bl	display_state
 4012              	.LVL548:
 4013              	.L237:
 374:main.c        ****             if((uart_char_in >= 0x20) && (uart_char_in <= 0x7F))
 4014              		.loc 1 374 0
 4015 00e8 FFF7FEFF 		bl	UART_1_UartGetChar
 4016              	.LVL549:
 4017 00ec C0B2     		uxtb	r0, r0
ARM GAS  C:\Users\BG1026~1\AppData\Local\Temp\cc2n2B4u.s 			page 105


 4018              	.LVL550:
 375:main.c        ****             {
 4019              		.loc 1 375 0
 4020 00ee 031C     		mov	r3, r0
 4021 00f0 203B     		sub	r3, r3, #32
 4022 00f2 5F2B     		cmp	r3, #95
 4023 00f4 36D8     		bhi	.L239
 377:main.c        ****                 if ((uart_char_in == END_OF_CMD) || (receive_pos == sizeof(receive_string)))
 4024              		.loc 1 377 0
 4025 00f6 731C     		add	r3, r6, #1
 4026              	.LVL551:
 4027 00f8 6A46     		mov	r2, sp
 4028 00fa 9055     		strb	r0, [r2, r6]
 378:main.c        ****                 {
 4029              		.loc 1 378 0
 4030 00fc 7D28     		cmp	r0, #125
 4031 00fe 03D0     		beq	.L240
 378:main.c        ****                 {
 4032              		.loc 1 378 0 is_stmt 0 discriminator 1
 4033 0100 8022     		mov	r2, #128
 4034 0102 9200     		lsl	r2, r2, #2
 4035 0104 9342     		cmp	r3, r2
 4036 0106 2CD1     		bne	.L248
 4037              	.L240:
 380:main.c        ****                     {
 4038              		.loc 1 380 0 is_stmt 1
 4039 0108 6B46     		mov	r3, sp
 4040              	.LVL552:
 4041 010a 1B78     		ldrb	r3, [r3]
 4042 010c 7B2B     		cmp	r3, #123
 4043 010e 07D1     		bne	.L241
 380:main.c        ****                     {
 4044              		.loc 1 380 0 is_stmt 0 discriminator 1
 4045 0110 6846     		mov	r0, sp
 4046              	.LVL553:
 4047 0112 FFF7FEFF 		bl	strlen
 4048              	.LVL554:
 4049 0116 0138     		sub	r0, r0, #1
 4050 0118 6B46     		mov	r3, sp
 4051 011a 1B5C     		ldrb	r3, [r3, r0]
 4052 011c 7D2B     		cmp	r3, #125
 4053 011e 05D0     		beq	.L242
 4054              	.L241:
 382:main.c        ****                     }// if the command is not well formed
 4055              		.loc 1 382 0 is_stmt 1
 4056 0120 0220     		mov	r0, #2
 4057 0122 6946     		mov	r1, sp
 4058 0124 184A     		ldr	r2, .L249+28
 4059 0126 FFF7FEFF 		bl	send_alarm_telemetry
 4060              	.LVL555:
 4061 012a 12E0     		b	.L243
 4062              	.L242:
 386:main.c        ****                         if (parse_and_execute_command(&(receive_string[1])) == FALSE)
 4063              		.loc 1 386 0
 4064 012c 0023     		mov	r3, #0
 4065 012e 6A46     		mov	r2, sp
 4066 0130 1354     		strb	r3, [r2, r0]
ARM GAS  C:\Users\BG1026~1\AppData\Local\Temp\cc2n2B4u.s 			page 106


 387:main.c        ****                         {
 4067              		.loc 1 387 0
 4068 0132 501C     		add	r0, r2, #1
 4069 0134 FFF7FEFF 		bl	parse_and_execute_command
 4070              	.LVL556:
 4071 0138 0028     		cmp	r0, #0
 4072 013a 05D1     		bne	.L244
 389:main.c        ****                         }// If we failed to execute the command
 4073              		.loc 1 389 0
 4074 013c 0230     		add	r0, r0, #2
 4075 013e 0021     		mov	r1, #0
 4076 0140 124A     		ldr	r2, .L249+32
 4077 0142 FFF7FEFF 		bl	send_alarm_telemetry
 4078              	.LVL557:
 4079 0146 04E0     		b	.L243
 4080              	.L244:
 393:main.c        ****                         }
 4081              		.loc 1 393 0
 4082 0148 0020     		mov	r0, #0
 4083 014a 0021     		mov	r1, #0
 4084 014c 104A     		ldr	r2, .L249+36
 4085 014e FFF7FEFF 		bl	send_alarm_telemetry
 4086              	.LVL558:
 4087              	.L243:
 397:main.c        ****                     receive_pos = 0;
 4088              		.loc 1 397 0
 4089 0152 6846     		mov	r0, sp
 4090 0154 0021     		mov	r1, #0
 4091 0156 8022     		mov	r2, #128
 4092 0158 9200     		lsl	r2, r2, #2
 4093 015a FFF7FEFF 		bl	memset
 4094              	.LVL559:
 398:main.c        ****                 }// If we detect the end of the command
 4095              		.loc 1 398 0
 4096 015e 0026     		mov	r6, #0
 4097 0160 00E0     		b	.L239
 4098              	.LVL560:
 4099              	.L248:
 377:main.c        ****                 if ((uart_char_in == END_OF_CMD) || (receive_pos == sizeof(receive_string)))
 4100              		.loc 1 377 0
 4101 0162 1E1C     		mov	r6, r3
 4102              	.LVL561:
 4103              	.L239:
 409:main.c        ****         }// cap sense not busy
 4104              		.loc 1 409 0
 4105 0164 FFF7FEFF 		bl	CapSense_ScanAllWidgets
 4106              	.LVL562:
 370:main.c        **** 
 4107              		.loc 1 370 0
 4108 0168 251C     		mov	r5, r4
 4109 016a 67E7     		b	.L233
 4110              	.L250:
 4111              		.align	2
 4112              	.L249:
 4113 016c 00000000 		.word	.LANCHOR4
 4114 0170 FFFF0000 		.word	65535
 4115 0174 24020000 		.word	.LC92
ARM GAS  C:\Users\BG1026~1\AppData\Local\Temp\cc2n2B4u.s 			page 107


 4116 0178 00000000 		.word	.LANCHOR0
 4117 017c 28020000 		.word	.LC95
 4118 0180 0C010000 		.word	.LANCHOR2
 4119 0184 34020000 		.word	.LC98
 4120 0188 40020000 		.word	.LC100
 4121 018c 60020000 		.word	.LC102
 4122 0190 80020000 		.word	.LC104
 4123              		.cfi_endproc
 4124              	.LFE37:
 4125              		.size	main, .-main
 4126              		.section	.text.animate_2_leds,"ax",%progbits
 4127              		.align	2
 4128              		.global	animate_2_leds
 4129              		.code	16
 4130              		.thumb_func
 4131              		.type	animate_2_leds, %function
 4132              	animate_2_leds:
 4133              	.LFB60:
1318:main.c        ****     static uint16 cycle      = 0;
 4134              		.loc 1 1318 0
 4135              		.cfi_startproc
 4136 0000 70B5     		push	{r4, r5, r6, lr}
 4137              		.cfi_def_cfa_offset 16
 4138              		.cfi_offset 4, -16
 4139              		.cfi_offset 5, -12
 4140              		.cfi_offset 6, -8
 4141              		.cfi_offset 14, -4
1323:main.c        **** 
 4142              		.loc 1 1323 0
 4143 0002 194E     		ldr	r6, .L254
 4144 0004 5825     		mov	r5, #88
 4145 0006 745B     		ldrh	r4, [r6, r5]
 4146 0008 201C     		mov	r0, r4
 4147 000a 0521     		mov	r1, #5
 4148 000c FFF7FEFF 		bl	__aeabi_uidivmod
 4149              	.LVL563:
 4150 0010 C9B2     		uxtb	r1, r1
 4151              	.LVL564:
1325:main.c        **** 
 4152              		.loc 1 1325 0
 4153 0012 0134     		add	r4, r4, #1
 4154 0014 7453     		strh	r4, [r6, r5]
1327:main.c        ****     {
 4155              		.loc 1 1327 0
 4156 0016 0029     		cmp	r1, #0
 4157 0018 24D1     		bne	.L251
1332:main.c        **** 
 4158              		.loc 1 1332 0
 4159 001a FFF7FEFF 		bl	clear_all_leds
 4160              	.LVL565:
1334:main.c        ****     set_led(right_led, MAX_INTENSITY);
 4161              		.loc 1 1334 0
 4162 001e 134C     		ldr	r4, .L254+4
 4163 0020 A07B     		ldrb	r0, [r4, #14]
 4164 0022 134D     		ldr	r5, .L254+8
 4165 0024 291C     		mov	r1, r5
 4166 0026 FFF7FEFF 		bl	set_led
ARM GAS  C:\Users\BG1026~1\AppData\Local\Temp\cc2n2B4u.s 			page 108


 4167              	.LVL566:
1335:main.c        **** 
 4168              		.loc 1 1335 0
 4169 002a 207C     		ldrb	r0, [r4, #16]
 4170 002c 291C     		mov	r1, r5
 4171 002e FFF7FEFF 		bl	set_led
 4172              	.LVL567:
1337:main.c        ****     {
 4173              		.loc 1 1337 0
 4174 0032 A37C     		ldrb	r3, [r4, #18]
 4175 0034 002B     		cmp	r3, #0
 4176 0036 09D0     		beq	.L253
1339:main.c        ****         right_led++;
 4177              		.loc 1 1339 0
 4178 0038 0C4A     		ldr	r2, .L254+4
 4179 003a D389     		ldrh	r3, [r2, #14]
 4180 003c 013B     		sub	r3, r3, #1
 4181 003e 9BB2     		uxth	r3, r3
 4182 0040 D381     		strh	r3, [r2, #14]
1340:main.c        ****         outward = left_led; // if left_led == 0, we go inward
 4183              		.loc 1 1340 0
 4184 0042 118A     		ldrh	r1, [r2, #16]
 4185 0044 0131     		add	r1, r1, #1
 4186 0046 1182     		strh	r1, [r2, #16]
1341:main.c        ****     }// if we go outward
 4187              		.loc 1 1341 0
 4188 0048 9374     		strb	r3, [r2, #18]
 4189 004a 0BE0     		b	.L251
 4190              	.L253:
1345:main.c        ****         right_led--;
 4191              		.loc 1 1345 0
 4192 004c 074A     		ldr	r2, .L254+4
 4193 004e D389     		ldrh	r3, [r2, #14]
 4194 0050 0133     		add	r3, r3, #1
 4195 0052 D381     		strh	r3, [r2, #14]
1346:main.c        ****         outward = (right_led == (NUMBER_OF_WHITE_LEDS / 2));
 4196              		.loc 1 1346 0
 4197 0054 138A     		ldrh	r3, [r2, #16]
 4198 0056 013B     		sub	r3, r3, #1
 4199 0058 9BB2     		uxth	r3, r3
 4200 005a 1382     		strh	r3, [r2, #16]
1347:main.c        ****     }// we go inward
 4201              		.loc 1 1347 0
 4202 005c 073B     		sub	r3, r3, #7
 4203 005e 5942     		neg	r1, r3
 4204 0060 4B41     		adc	r3, r3, r1
 4205 0062 9374     		strb	r3, [r2, #18]
 4206              	.L251:
1349:main.c        **** 
 4207              		.loc 1 1349 0
 4208              		@ sp needed
 4209 0064 70BD     		pop	{r4, r5, r6, pc}
 4210              	.L255:
 4211 0066 C046     		.align	2
 4212              	.L254:
 4213 0068 00000000 		.word	.LANCHOR0
 4214 006c 00000000 		.word	.LANCHOR4
ARM GAS  C:\Users\BG1026~1\AppData\Local\Temp\cc2n2B4u.s 			page 109


 4215 0070 FF0F0000 		.word	4095
 4216              		.cfi_endproc
 4217              	.LFE60:
 4218              		.size	animate_2_leds, .-animate_2_leds
 4219              		.section	.text.set_all_leds_intensity,"ax",%progbits
 4220              		.align	2
 4221              		.global	set_all_leds_intensity
 4222              		.code	16
 4223              		.thumb_func
 4224              		.type	set_all_leds_intensity, %function
 4225              	set_all_leds_intensity:
 4226              	.LFB63:
1449:main.c        ****     uint16  set_value = intensity; // min(intensity, MAX_INTENSITY);
 4227              		.loc 1 1449 0
 4228              		.cfi_startproc
 4229              	.LVL568:
 4230 0000 10B5     		push	{r4, lr}
 4231              		.cfi_def_cfa_offset 8
 4232              		.cfi_offset 4, -8
 4233              		.cfi_offset 14, -4
 4234 0002 041C     		mov	r4, r0
 4235              	.LVL569:
1452:main.c        ****     led_buffer.led0  = set_value;   
 4236              		.loc 1 1452 0
 4237 0004 FFF7FEFF 		bl	clear_all_leds
 4238              	.LVL570:
1453:main.c        ****     led_buffer.led1  = set_value;   
 4239              		.loc 1 1453 0
 4240 0008 4448     		ldr	r0, .L257
 4241 000a 2305     		lsl	r3, r4, #20
 4242 000c 1B0D     		lsr	r3, r3, #20
 4243 000e 028A     		ldrh	r2, [r0, #16]
 4244 0010 120B     		lsr	r2, r2, #12
 4245 0012 1203     		lsl	r2, r2, #12
 4246 0014 1A43     		orr	r2, r3
 4247 0016 0282     		strh	r2, [r0, #16]
1454:main.c        ****     led_buffer.led2  = set_value;   
 4248              		.loc 1 1454 0
 4249 0018 428A     		ldrh	r2, [r0, #18]
 4250 001a 120B     		lsr	r2, r2, #12
 4251 001c 1203     		lsl	r2, r2, #12
 4252 001e 1A43     		orr	r2, r3
 4253 0020 4282     		strh	r2, [r0, #18]
1455:main.c        ****     led_buffer.led3  = set_value;   
 4254              		.loc 1 1455 0
 4255 0022 828A     		ldrh	r2, [r0, #20]
 4256 0024 120B     		lsr	r2, r2, #12
 4257 0026 1203     		lsl	r2, r2, #12
 4258 0028 1A43     		orr	r2, r3
 4259 002a 8282     		strh	r2, [r0, #20]
1456:main.c        ****     led_buffer.led4  = set_value;   
 4260              		.loc 1 1456 0
 4261 002c C28A     		ldrh	r2, [r0, #22]
 4262 002e 120B     		lsr	r2, r2, #12
 4263 0030 1203     		lsl	r2, r2, #12
 4264 0032 1A43     		orr	r2, r3
 4265 0034 C282     		strh	r2, [r0, #22]
ARM GAS  C:\Users\BG1026~1\AppData\Local\Temp\cc2n2B4u.s 			page 110


1457:main.c        ****     led_buffer.led5  = set_value;   
 4266              		.loc 1 1457 0
 4267 0036 028B     		ldrh	r2, [r0, #24]
 4268 0038 120B     		lsr	r2, r2, #12
 4269 003a 1203     		lsl	r2, r2, #12
 4270 003c 1A43     		orr	r2, r3
 4271 003e 0283     		strh	r2, [r0, #24]
1458:main.c        ****     led_buffer.led6  = set_value;   
 4272              		.loc 1 1458 0
 4273 0040 428B     		ldrh	r2, [r0, #26]
 4274 0042 120B     		lsr	r2, r2, #12
 4275 0044 1203     		lsl	r2, r2, #12
 4276 0046 1A43     		orr	r2, r3
 4277 0048 4283     		strh	r2, [r0, #26]
1459:main.c        ****     led_buffer.led7  = set_value;   
 4278              		.loc 1 1459 0
 4279 004a 828B     		ldrh	r2, [r0, #28]
 4280 004c 120B     		lsr	r2, r2, #12
 4281 004e 1203     		lsl	r2, r2, #12
 4282 0050 1A43     		orr	r2, r3
 4283 0052 8283     		strh	r2, [r0, #28]
1460:main.c        ****     led_buffer.led8  = set_value;   
 4284              		.loc 1 1460 0
 4285 0054 C28B     		ldrh	r2, [r0, #30]
 4286 0056 120B     		lsr	r2, r2, #12
 4287 0058 1203     		lsl	r2, r2, #12
 4288 005a 1A43     		orr	r2, r3
 4289 005c C283     		strh	r2, [r0, #30]
1461:main.c        ****     led_buffer.led9  = set_value;   
 4290              		.loc 1 1461 0
 4291 005e 028C     		ldrh	r2, [r0, #32]
 4292 0060 120B     		lsr	r2, r2, #12
 4293 0062 1203     		lsl	r2, r2, #12
 4294 0064 1A43     		orr	r2, r3
 4295 0066 0284     		strh	r2, [r0, #32]
1462:main.c        ****     led_buffer.led10 = set_value;   
 4296              		.loc 1 1462 0
 4297 0068 428C     		ldrh	r2, [r0, #34]
 4298 006a 120B     		lsr	r2, r2, #12
 4299 006c 1203     		lsl	r2, r2, #12
 4300 006e 1A43     		orr	r2, r3
 4301 0070 4284     		strh	r2, [r0, #34]
1463:main.c        ****     led_buffer.led11 = set_value;   
 4302              		.loc 1 1463 0
 4303 0072 828C     		ldrh	r2, [r0, #36]
 4304 0074 120B     		lsr	r2, r2, #12
 4305 0076 1203     		lsl	r2, r2, #12
 4306 0078 1A43     		orr	r2, r3
 4307 007a 8284     		strh	r2, [r0, #36]
1464:main.c        ****     led_buffer.led12 = set_value;   
 4308              		.loc 1 1464 0
 4309 007c C28C     		ldrh	r2, [r0, #38]
 4310 007e 120B     		lsr	r2, r2, #12
 4311 0080 1203     		lsl	r2, r2, #12
 4312 0082 1A43     		orr	r2, r3
 4313 0084 C284     		strh	r2, [r0, #38]
1465:main.c        ****     led_buffer.led13 = set_value;   
ARM GAS  C:\Users\BG1026~1\AppData\Local\Temp\cc2n2B4u.s 			page 111


 4314              		.loc 1 1465 0
 4315 0086 028D     		ldrh	r2, [r0, #40]
 4316 0088 120B     		lsr	r2, r2, #12
 4317 008a 1203     		lsl	r2, r2, #12
 4318 008c 1A43     		orr	r2, r3
 4319 008e 0285     		strh	r2, [r0, #40]
1466:main.c        ****     led_buffer.led14 = set_value;   
 4320              		.loc 1 1466 0
 4321 0090 428D     		ldrh	r2, [r0, #42]
 4322 0092 120B     		lsr	r2, r2, #12
 4323 0094 1203     		lsl	r2, r2, #12
 4324 0096 1A43     		orr	r2, r3
 4325 0098 4285     		strh	r2, [r0, #42]
1467:main.c        ****     led_buffer.led15 = set_value;   
 4326              		.loc 1 1467 0
 4327 009a 828D     		ldrh	r2, [r0, #44]
 4328 009c 120B     		lsr	r2, r2, #12
 4329 009e 1203     		lsl	r2, r2, #12
 4330 00a0 1A43     		orr	r2, r3
 4331 00a2 8285     		strh	r2, [r0, #44]
1468:main.c        ****     led_buffer.led16 = set_value;   
 4332              		.loc 1 1468 0
 4333 00a4 C28D     		ldrh	r2, [r0, #46]
 4334 00a6 120B     		lsr	r2, r2, #12
 4335 00a8 1203     		lsl	r2, r2, #12
 4336 00aa 1A43     		orr	r2, r3
 4337 00ac C285     		strh	r2, [r0, #46]
1469:main.c        ****     led_buffer.led17 = set_value;   
 4338              		.loc 1 1469 0
 4339 00ae 028E     		ldrh	r2, [r0, #48]
 4340 00b0 120B     		lsr	r2, r2, #12
 4341 00b2 1203     		lsl	r2, r2, #12
 4342 00b4 1A43     		orr	r2, r3
 4343 00b6 0286     		strh	r2, [r0, #48]
1470:main.c        ****     led_buffer.led18 = set_value;   
 4344              		.loc 1 1470 0
 4345 00b8 428E     		ldrh	r2, [r0, #50]
 4346 00ba 120B     		lsr	r2, r2, #12
 4347 00bc 1203     		lsl	r2, r2, #12
 4348 00be 1A43     		orr	r2, r3
 4349 00c0 4286     		strh	r2, [r0, #50]
1471:main.c        ****     led_buffer.led19 = set_value;   
 4350              		.loc 1 1471 0
 4351 00c2 828E     		ldrh	r2, [r0, #52]
 4352 00c4 120B     		lsr	r2, r2, #12
 4353 00c6 1203     		lsl	r2, r2, #12
 4354 00c8 1A43     		orr	r2, r3
 4355 00ca 8286     		strh	r2, [r0, #52]
1472:main.c        ****     led_buffer.led20 = set_value; 
 4356              		.loc 1 1472 0
 4357 00cc C28E     		ldrh	r2, [r0, #54]
 4358 00ce 120B     		lsr	r2, r2, #12
 4359 00d0 1203     		lsl	r2, r2, #12
 4360 00d2 1A43     		orr	r2, r3
 4361 00d4 C286     		strh	r2, [r0, #54]
1473:main.c        ****     led_buffer.led21 = set_value;   
 4362              		.loc 1 1473 0
ARM GAS  C:\Users\BG1026~1\AppData\Local\Temp\cc2n2B4u.s 			page 112


 4363 00d6 028F     		ldrh	r2, [r0, #56]
 4364 00d8 120B     		lsr	r2, r2, #12
 4365 00da 1203     		lsl	r2, r2, #12
 4366 00dc 1A43     		orr	r2, r3
 4367 00de 0287     		strh	r2, [r0, #56]
1474:main.c        ****     led_buffer.led22 = set_value; 
 4368              		.loc 1 1474 0
 4369 00e0 428F     		ldrh	r2, [r0, #58]
 4370 00e2 120B     		lsr	r2, r2, #12
 4371 00e4 1203     		lsl	r2, r2, #12
 4372 00e6 1A43     		orr	r2, r3
 4373 00e8 4287     		strh	r2, [r0, #58]
1475:main.c        ****     led_buffer.led23 = set_value;
 4374              		.loc 1 1475 0
 4375 00ea 828F     		ldrh	r2, [r0, #60]
 4376 00ec 120B     		lsr	r2, r2, #12
 4377 00ee 1203     		lsl	r2, r2, #12
 4378 00f0 1A43     		orr	r2, r3
 4379 00f2 8287     		strh	r2, [r0, #60]
1476:main.c        **** 
 4380              		.loc 1 1476 0
 4381 00f4 C28F     		ldrh	r2, [r0, #62]
 4382 00f6 120B     		lsr	r2, r2, #12
 4383 00f8 1203     		lsl	r2, r2, #12
 4384 00fa 1343     		orr	r3, r2
 4385 00fc C387     		strh	r3, [r0, #62]
1478:main.c        ****     Latch_Write(1);
 4386              		.loc 1 1478 0
 4387 00fe 1030     		add	r0, r0, #16
 4388 0100 1821     		mov	r1, #24
 4389 0102 FFF7FEFF 		bl	SPIM_SpiUartPutArray
 4390              	.LVL571:
1479:main.c        ****     CyDelayUs  (1);
 4391              		.loc 1 1479 0
 4392 0106 0120     		mov	r0, #1
 4393 0108 FFF7FEFF 		bl	Latch_Write
 4394              	.LVL572:
1480:main.c        ****     Latch_Write(0);
 4395              		.loc 1 1480 0
 4396 010c 0120     		mov	r0, #1
 4397 010e FFF7FEFF 		bl	CyDelayUs
 4398              	.LVL573:
1481:main.c        **** }// set_led
 4399              		.loc 1 1481 0
 4400 0112 0020     		mov	r0, #0
 4401 0114 FFF7FEFF 		bl	Latch_Write
 4402              	.LVL574:
1482:main.c        **** 
 4403              		.loc 1 1482 0
 4404              		@ sp needed
 4405              	.LVL575:
 4406 0118 10BD     		pop	{r4, pc}
 4407              	.L258:
 4408 011a C046     		.align	2
 4409              	.L257:
 4410 011c 00000000 		.word	.LANCHOR0
 4411              		.cfi_endproc
ARM GAS  C:\Users\BG1026~1\AppData\Local\Temp\cc2n2B4u.s 			page 113


 4412              	.LFE63:
 4413              		.size	set_all_leds_intensity, .-set_all_leds_intensity
 4414              		.section	.rodata
 4415              		.align	2
 4416              		.set	.LANCHOR1,. + 0
 4417              		.set	.LANCHOR2,. + 128
 4418              		.set	.LANCHOR3,. + 256
 4419              		.type	vec_commands, %object
 4420              		.size	vec_commands, 72
 4421              	vec_commands:
 4422 008c 0000     		.short	0
 4423 008e 0000     		.space	2
 4424 0090 D0000000 		.word	.LC59
 4425 0094 B0020000 		.word	.LC110
 4426 0098 0100     		.short	1
 4427 009a 0000     		.space	2
 4428 009c D0020000 		.word	.LC111
 4429 00a0 DC020000 		.word	.LC112
 4430 00a4 0300     		.short	3
 4431 00a6 0000     		.space	2
 4432 00a8 00030000 		.word	.LC113
 4433 00ac 08030000 		.word	.LC114
 4434 00b0 0200     		.short	2
 4435 00b2 0000     		.space	2
 4436 00b4 0C030000 		.word	.LC115
 4437 00b8 10030000 		.word	.LC116
 4438 00bc 0400     		.short	4
 4439 00be 0000     		.space	2
 4440 00c0 1C030000 		.word	.LC117
 4441 00c4 24030000 		.word	.LC118
 4442 00c8 0500     		.short	5
 4443 00ca 0000     		.space	2
 4444 00cc 00020000 		.word	.LC85
 4445 00d0 48030000 		.word	.LC119
 4446              		.type	vec_tracker_commands, %object
 4447              		.size	vec_tracker_commands, 36
 4448              	vec_tracker_commands:
 4449 00d4 0100     		.short	1
 4450 00d6 0000     		.space	2
 4451 00d8 20040000 		.word	.LC130
 4452 00dc 28040000 		.word	.LC131
 4453 00e0 0000     		.short	0
 4454 00e2 0000     		.space	2
 4455 00e4 48040000 		.word	.LC132
 4456 00e8 50040000 		.word	.LC133
 4457 00ec 0200     		.short	2
 4458 00ee 0000     		.space	2
 4459 00f0 70040000 		.word	.LC134
 4460 00f4 7C040000 		.word	.LC135
 4461              		.type	vec_anim_commands, %object
 4462              		.size	vec_anim_commands, 48
 4463              	vec_anim_commands:
 4464 00f8 0000     		.short	0
 4465 00fa 0000     		.space	2
 4466 00fc A0040000 		.word	.LC136
 4467 0100 A8040000 		.word	.LC137
 4468 0104 0100     		.short	1
ARM GAS  C:\Users\BG1026~1\AppData\Local\Temp\cc2n2B4u.s 			page 114


 4469 0106 0000     		.space	2
 4470 0108 C8040000 		.word	.LC138
 4471 010c D0040000 		.word	.LC139
 4472 0110 0200     		.short	2
 4473 0112 0000     		.space	2
 4474 0114 F0040000 		.word	.LC140
 4475 0118 F8040000 		.word	.LC141
 4476 011c 0300     		.short	3
 4477 011e 0000     		.space	2
 4478 0120 08050000 		.word	.LC142
 4479 0124 10050000 		.word	.LC143
 4480              		.type	vec_call_back_anim, %object
 4481              		.size	vec_call_back_anim, 108
 4482              	vec_call_back_anim:
 4483 0128 00       		.byte	0
 4484 0129 000000   		.space	3
 4485 012c 00000000 		.word	animate_left_right
 4486 0130 24050000 		.word	.LC144
 4487 0134 01       		.byte	1
 4488 0135 000000   		.space	3
 4489 0138 00000000 		.word	animate_intensity
 4490 013c 30050000 		.word	.LC145
 4491 0140 02       		.byte	2
 4492 0141 000000   		.space	3
 4493 0144 00000000 		.word	animate_2_leds
 4494 0148 40050000 		.word	.LC146
 4495 014c 03       		.byte	3
 4496 014d 000000   		.space	3
 4497 0150 00000000 		.word	animate_red_intensity
 4498 0154 48050000 		.word	.LC147
 4499 0158 04       		.byte	4
 4500 0159 000000   		.space	3
 4501 015c 00000000 		.word	animate_green_intensity
 4502 0160 58050000 		.word	.LC148
 4503 0164 05       		.byte	5
 4504 0165 000000   		.space	3
 4505 0168 00000000 		.word	animate_blue_intensity
 4506 016c 68050000 		.word	.LC149
 4507 0170 06       		.byte	6
 4508 0171 000000   		.space	3
 4509 0174 00000000 		.word	animate_all_colors
 4510 0178 78050000 		.word	.LC150
 4511 017c 07       		.byte	7
 4512 017d 000000   		.space	3
 4513 0180 00000000 		.word	animate_rainbow_colors
 4514 0184 84050000 		.word	.LC151
 4515 0188 08       		.byte	8
 4516 0189 000000   		.space	3
 4517 018c 00000000 		.word	animate_fix_white
 4518 0190 94050000 		.word	.LC152
 4519              		.type	vec_led_commands, %object
 4520              		.size	vec_led_commands, 60
 4521              	vec_led_commands:
 4522 0194 0000     		.short	0
 4523 0196 0000     		.space	2
 4524 0198 60030000 		.word	.LC120
 4525 019c 68030000 		.word	.LC121
ARM GAS  C:\Users\BG1026~1\AppData\Local\Temp\cc2n2B4u.s 			page 115


 4526 01a0 0100     		.short	1
 4527 01a2 0000     		.space	2
 4528 01a4 78030000 		.word	.LC122
 4529 01a8 88030000 		.word	.LC123
 4530 01ac 0200     		.short	2
 4531 01ae 0000     		.space	2
 4532 01b0 A8030000 		.word	.LC124
 4533 01b4 B8030000 		.word	.LC125
 4534 01b8 0300     		.short	3
 4535 01ba 0000     		.space	2
 4536 01bc D8030000 		.word	.LC126
 4537 01c0 E4030000 		.word	.LC127
 4538 01c4 0400     		.short	4
 4539 01c6 0000     		.space	2
 4540 01c8 00040000 		.word	.LC128
 4541 01cc 0C040000 		.word	.LC129
 4542              	.LC13:
 4543 01d0 8C020000 		.word	.LC0
 4544 01d4 90020000 		.word	.LC1
 4545 01d8 98020000 		.word	.LC2
 4546 01dc A0020000 		.word	.LC3
 4547 01e0 A8020000 		.word	.LC4
 4548              		.align	2
 4549              		.set	.LANCHOR5,. + 0
 4550              		.type	vec_rainbow.6192, %object
 4551              		.size	vec_rainbow.6192, 24
 4552              	vec_rainbow.6192:
 4553 01e4 94       		.byte	-108
 4554 01e5 00       		.byte	0
 4555 01e6 D3       		.byte	-45
 4556 01e7 4B       		.byte	75
 4557 01e8 00       		.byte	0
 4558 01e9 82       		.byte	-126
 4559 01ea 00       		.byte	0
 4560 01eb 00       		.byte	0
 4561 01ec FF       		.byte	-1
 4562 01ed 00       		.byte	0
 4563 01ee FF       		.byte	-1
 4564 01ef 00       		.byte	0
 4565 01f0 FF       		.byte	-1
 4566 01f1 FF       		.byte	-1
 4567 01f2 00       		.byte	0
 4568 01f3 FF       		.byte	-1
 4569 01f4 7F       		.byte	127
 4570 01f5 00       		.byte	0
 4571 01f6 FF       		.byte	-1
 4572 01f7 00       		.byte	0
 4573 01f8 00       		.byte	0
 4574 01f9 00       		.byte	0
 4575 01fa 00       		.byte	0
 4576 01fb 00       		.byte	0
 4577              		.data
 4578              		.align	1
 4579              		.set	.LANCHOR4,. + 0
 4580              		.type	number_of_buttons, %object
 4581              		.size	number_of_buttons, 2
 4582              	number_of_buttons:
ARM GAS  C:\Users\BG1026~1\AppData\Local\Temp\cc2n2B4u.s 			page 116


 4583 0000 0600     		.short	6
 4584              		.type	cap_cur_pos, %object
 4585              		.size	cap_cur_pos, 2
 4586              	cap_cur_pos:
 4587 0002 FFFF     		.short	-1
 4588              		.type	cap_old_pos, %object
 4589              		.size	cap_old_pos, 2
 4590              	cap_old_pos:
 4591 0004 FFFF     		.short	-1
 4592              		.type	led_pos, %object
 4593              		.size	led_pos, 2
 4594              	led_pos:
 4595 0006 FFFF     		.short	-1
 4596              		.type	tracker_enable, %object
 4597              		.size	tracker_enable, 1
 4598              	tracker_enable:
 4599 0008 01       		.byte	1
 4600              		.type	intensity_up.6159, %object
 4601              		.size	intensity_up.6159, 1
 4602              	intensity_up.6159:
 4603 0009 01       		.byte	1
 4604              		.type	intensity_up.6182, %object
 4605              		.size	intensity_up.6182, 1
 4606              	intensity_up.6182:
 4607 000a 01       		.byte	1
 4608              		.type	intensity_up.6201, %object
 4609              		.size	intensity_up.6201, 1
 4610              	intensity_up.6201:
 4611 000b 01       		.byte	1
 4612              		.type	auto_anim, %object
 4613              		.size	auto_anim, 1
 4614              	auto_anim:
 4615 000c 01       		.byte	1
 4616 000d 00       		.space	1
 4617              		.type	left_led.6211, %object
 4618              		.size	left_led.6211, 2
 4619              	left_led.6211:
 4620 000e 0600     		.short	6
 4621              		.type	right_led.6210, %object
 4622              		.size	right_led.6210, 2
 4623              	right_led.6210:
 4624 0010 0700     		.short	7
 4625              		.type	outward.6212, %object
 4626              		.size	outward.6212, 1
 4627              	outward.6212:
 4628 0012 01       		.byte	1
 4629 0013 00       		.section	.rodata.str1.4,"aMS",%progbits,1
 4630              		.align	2
 4631              	.LC15:
 4632 0000 7B226576 		.ascii	"{\"event\":\"alarm\", \"type\":\"\000"
 4632      656E7422 
 4632      3A22616C 
 4632      61726D22 
 4632      2C202274 
 4633 001b 00       		.space	1
 4634              	.LC17:
 4635 001c 222C2022 		.ascii	"\", \"source\":\"\000"
ARM GAS  C:\Users\BG1026~1\AppData\Local\Temp\cc2n2B4u.s 			page 117


 4635      736F7572 
 4635      6365223A 
 4635      2200
 4636 002a 0000     		.space	2
 4637              	.LC19:
 4638 002c 222C2022 		.ascii	"\", \"description\":\"\000"
 4638      64657363 
 4638      72697074 
 4638      696F6E22 
 4638      3A2200
 4639 003f 00       		.space	1
 4640              	.LC21:
 4641 0040 227D00   		.ascii	"\"}\000"
 4642 0043 00       		.space	1
 4643              	.LC23:
 4644 0044 7B226576 		.ascii	"{\"event\":\"animation\", \"name\":\"\000"
 4644      656E7422 
 4644      3A22616E 
 4644      696D6174 
 4644      696F6E22 
 4645 0063 00       		.space	1
 4646              	.LC26:
 4647 0064 222C2022 		.ascii	"\", \"action\":\"\000"
 4647      61637469 
 4647      6F6E223A 
 4647      2200
 4648 0072 0000     		.space	2
 4649              	.LC29:
 4650 0074 7B226576 		.ascii	"{\"event\":\"button\", \"id\":\000"
 4650      656E7422 
 4650      3A226275 
 4650      74746F6E 
 4650      222C2022 
 4651 008d 000000   		.space	3
 4652              	.LC31:
 4653 0090 2C202261 		.ascii	", \"action\":\"\000"
 4653      6374696F 
 4653      6E223A22 
 4653      00
 4654 009d 000000   		.space	3
 4655              	.LC39:
 4656 00a0 706F7369 		.ascii	"position\000"
 4656      74696F6E 
 4656      00
 4657 00a9 000000   		.space	3
 4658              	.LC53:
 4659 00ac 63616E27 		.ascii	"can't find comma in command\000"
 4659      74206669 
 4659      6E642063 
 4659      6F6D6D61 
 4659      20696E20 
 4660              	.LC56:
 4661 00c8 4649584D 		.ascii	"FIXME!\000"
 4661      452100
 4662 00cf 00       		.space	1
 4663              	.LC59:
 4664 00d0 616E696D 		.ascii	"animation\000"
ARM GAS  C:\Users\BG1026~1\AppData\Local\Temp\cc2n2B4u.s 			page 118


 4664      6174696F 
 4664      6E00
 4665 00da 0000     		.space	2
 4666              	.LC62:
 4667 00dc 756E7375 		.ascii	"unsupported animation action\000"
 4667      70706F72 
 4667      74656420 
 4667      616E696D 
 4667      6174696F 
 4668 00f9 000000   		.space	3
 4669              	.LC67:
 4670 00fc 63616E27 		.ascii	"can't parse red from RGB color\000"
 4670      74207061 
 4670      72736520 
 4670      72656420 
 4670      66726F6D 
 4671 011b 00       		.space	1
 4672              	.LC69:
 4673 011c 63616E27 		.ascii	"can't parse green from RGB color\000"
 4673      74207061 
 4673      72736520 
 4673      67726565 
 4673      6E206672 
 4674 013d 000000   		.space	3
 4675              	.LC71:
 4676 0140 63616E27 		.ascii	"can't parsed green from RGB color\000"
 4676      74207061 
 4676      72736564 
 4676      20677265 
 4676      656E2066 
 4677 0162 0000     		.space	2
 4678              	.LC73:
 4679 0164 63616E27 		.ascii	"can't parse LED index color\000"
 4679      74207061 
 4679      72736520 
 4679      4C454420 
 4679      696E6465 
 4680              	.LC75:
 4681 0180 63616E27 		.ascii	"can't parse LED index\000"
 4681      74207061 
 4681      72736520 
 4681      4C454420 
 4681      696E6465 
 4682 0196 0000     		.space	2
 4683              	.LC77:
 4684 0198 696E7661 		.ascii	"invalid led index\000"
 4684      6C696420 
 4684      6C656420 
 4684      696E6465 
 4684      7800
 4685 01aa 0000     		.space	2
 4686              	.LC79:
 4687 01ac 63616E27 		.ascii	"can't parse LED strip command\000"
 4687      74207061 
 4687      72736520 
 4687      4C454420 
 4687      73747269 
ARM GAS  C:\Users\BG1026~1\AppData\Local\Temp\cc2n2B4u.s 			page 119


 4688 01ca 0000     		.space	2
 4689              	.LC81:
 4690 01cc 756E7375 		.ascii	"unsupported led action\000"
 4690      70706F72 
 4690      74656420 
 4690      6C656420 
 4690      61637469 
 4691 01e3 00       		.space	1
 4692              	.LC83:
 4693 01e4 756E7375 		.ascii	"unsupported tracker action\000"
 4693      70706F72 
 4693      74656420 
 4693      74726163 
 4693      6B657220 
 4694 01ff 00       		.space	1
 4695              	.LC85:
 4696 0200 76657273 		.ascii	"version\000"
 4696      696F6E00 
 4697              	.LC87:
 4698 0208 302E3032 		.ascii	"0.02\000"
 4698      00
 4699 020d 000000   		.space	3
 4700              	.LC89:
 4701 0210 756E7375 		.ascii	"unsupported command\000"
 4701      70706F72 
 4701      74656420 
 4701      636F6D6D 
 4701      616E6400 
 4702              	.LC92:
 4703 0224 757000   		.ascii	"up\000"
 4704 0227 00       		.space	1
 4705              	.LC95:
 4706 0228 73746172 		.ascii	"starting\000"
 4706      74696E67 
 4706      00
 4707 0231 000000   		.space	3
 4708              	.LC98:
 4709 0234 73746F70 		.ascii	"stopping\000"
 4709      70696E67 
 4709      00
 4710 023d 000000   		.space	3
 4711              	.LC100:
 4712 0240 696E7661 		.ascii	"invalid start-end character(s)\000"
 4712      6C696420 
 4712      73746172 
 4712      742D656E 
 4712      64206368 
 4713 025f 00       		.space	1
 4714              	.LC102:
 4715 0260 6661696C 		.ascii	"failed to execute the command\000"
 4715      65642074 
 4715      6F206578 
 4715      65637574 
 4715      65207468 
 4716 027e 0000     		.space	2
 4717              	.LC104:
 4718 0280 65786563 		.ascii	"executed\000"
ARM GAS  C:\Users\BG1026~1\AppData\Local\Temp\cc2n2B4u.s 			page 120


 4718      75746564 
 4718      00
 4719 0289 000000   		.space	3
 4720              	.LC0:
 4721 028c 6C6F6700 		.ascii	"log\000"
 4722              	.LC1:
 4723 0290 696E666F 		.ascii	"info\000"
 4723      00
 4724 0295 000000   		.space	3
 4725              	.LC2:
 4726 0298 7761726E 		.ascii	"warning\000"
 4726      696E6700 
 4727              	.LC3:
 4728 02a0 6572726F 		.ascii	"error\000"
 4728      7200
 4729 02a6 0000     		.space	2
 4730              	.LC4:
 4731 02a8 66617461 		.ascii	"fatal\000"
 4731      6C00
 4732 02ae 0000     		.space	2
 4733              	.LC110:
 4734 02b0 73657420 		.ascii	"set the animation parameters\000"
 4734      74686520 
 4734      616E696D 
 4734      6174696F 
 4734      6E207061 
 4735 02cd 000000   		.space	3
 4736              	.LC111:
 4737 02d0 63617073 		.ascii	"capsense\000"
 4737      656E7365 
 4737      00
 4738 02d9 000000   		.space	3
 4739              	.LC112:
 4740 02dc 7365742F 		.ascii	"set/get the capsense configuration\000"
 4740      67657420 
 4740      74686520 
 4740      63617073 
 4740      656E7365 
 4741 02ff 00       		.space	1
 4742              	.LC113:
 4743 0300 68656C70 		.ascii	"help\000"
 4743      00
 4744 0305 000000   		.space	3
 4745              	.LC114:
 4746 0308 00       		.ascii	"\000"
 4747 0309 000000   		.space	3
 4748              	.LC115:
 4749 030c 6C656400 		.ascii	"led\000"
 4750              	.LC116:
 4751 0310 73657420 		.ascii	"set led(s)\000"
 4751      6C656428 
 4751      732900
 4752 031b 00       		.space	1
 4753              	.LC117:
 4754 031c 74726163 		.ascii	"tracker\000"
 4754      6B657200 
 4755              	.LC118:
ARM GAS  C:\Users\BG1026~1\AppData\Local\Temp\cc2n2B4u.s 			page 121


 4756 0324 7365742F 		.ascii	"set/get the tracker configuration\000"
 4756      67657420 
 4756      74686520 
 4756      74726163 
 4756      6B657220 
 4757 0346 0000     		.space	2
 4758              	.LC119:
 4759 0348 67657420 		.ascii	"get the actual version\000"
 4759      74686520 
 4759      61637475 
 4759      616C2076 
 4759      65727369 
 4760 035f 00       		.space	1
 4761              	.LC120:
 4762 0360 636C6561 		.ascii	"clear\000"
 4762      7200
 4763 0366 0000     		.space	2
 4764              	.LC121:
 4765 0368 636C6561 		.ascii	"clear all leds\000"
 4765      7220616C 
 4765      6C206C65 
 4765      647300
 4766 0377 00       		.space	1
 4767              	.LC122:
 4768 0378 73657420 		.ascii	"set color left\000"
 4768      636F6C6F 
 4768      72206C65 
 4768      667400
 4769 0387 00       		.space	1
 4770              	.LC123:
 4771 0388 73657420 		.ascii	"set the color of the left LED\000"
 4771      74686520 
 4771      636F6C6F 
 4771      72206F66 
 4771      20746865 
 4772 03a6 0000     		.space	2
 4773              	.LC124:
 4774 03a8 73657420 		.ascii	"set color right\000"
 4774      636F6C6F 
 4774      72207269 
 4774      67687400 
 4775              	.LC125:
 4776 03b8 73657420 		.ascii	"set the color of the right LED\000"
 4776      74686520 
 4776      636F6C6F 
 4776      72206F66 
 4776      20746865 
 4777 03d7 00       		.space	1
 4778              	.LC126:
 4779 03d8 73657420 		.ascii	"set white\000"
 4779      77686974 
 4779      6500
 4780 03e2 0000     		.space	2
 4781              	.LC127:
 4782 03e4 73657420 		.ascii	"set the white LED intensity\000"
 4782      74686520 
 4782      77686974 
ARM GAS  C:\Users\BG1026~1\AppData\Local\Temp\cc2n2B4u.s 			page 122


 4782      65204C45 
 4782      4420696E 
 4783              	.LC128:
 4784 0400 73657420 		.ascii	"set strip\000"
 4784      73747269 
 4784      7000
 4785 040a 0000     		.space	2
 4786              	.LC129:
 4787 040c 73657420 		.ascii	"set the LED strip\000"
 4787      74686520 
 4787      4C454420 
 4787      73747269 
 4787      7000
 4788 041e 0000     		.space	2
 4789              	.LC130:
 4790 0420 64697361 		.ascii	"disable\000"
 4790      626C6500 
 4791              	.LC131:
 4792 0428 64697361 		.ascii	"disable finger tracker on LEDs\000"
 4792      626C6520 
 4792      66696E67 
 4792      65722074 
 4792      7261636B 
 4793 0447 00       		.space	1
 4794              	.LC132:
 4795 0448 656E6162 		.ascii	"enable\000"
 4795      6C6500
 4796 044f 00       		.space	1
 4797              	.LC133:
 4798 0450 656E6162 		.ascii	"enable finger tracker on LEDs\000"
 4798      6C652066 
 4798      696E6765 
 4798      72207472 
 4798      61636B65 
 4799 046e 0000     		.space	2
 4800              	.LC134:
 4801 0470 73657420 		.ascii	"set button\000"
 4801      62757474 
 4801      6F6E00
 4802 047b 00       		.space	1
 4803              	.LC135:
 4804 047c 73657420 		.ascii	"set the number of logical buttons\000"
 4804      74686520 
 4804      6E756D62 
 4804      6572206F 
 4804      66206C6F 
 4805 049e 0000     		.space	2
 4806              	.LC136:
 4807 04a0 6175746F 		.ascii	"auto\000"
 4807      00
 4808 04a5 000000   		.space	3
 4809              	.LC137:
 4810 04a8 73657420 		.ascii	"set animation in automatic mode\000"
 4810      616E696D 
 4810      6174696F 
 4810      6E20696E 
 4810      20617574 
ARM GAS  C:\Users\BG1026~1\AppData\Local\Temp\cc2n2B4u.s 			page 123


 4811              	.LC138:
 4812 04c8 6D616E75 		.ascii	"manual\000"
 4812      616C00
 4813 04cf 00       		.space	1
 4814              	.LC139:
 4815 04d0 73657420 		.ascii	"set animation in manual mode\000"
 4815      616E696D 
 4815      6174696F 
 4815      6E20696E 
 4815      206D616E 
 4816 04ed 000000   		.space	3
 4817              	.LC140:
 4818 04f0 73746F70 		.ascii	"stop\000"
 4818      00
 4819 04f5 000000   		.space	3
 4820              	.LC141:
 4821 04f8 73746F70 		.ascii	"stop animation\000"
 4821      20616E69 
 4821      6D617469 
 4821      6F6E00
 4822 0507 00       		.space	1
 4823              	.LC142:
 4824 0508 72657375 		.ascii	"resume\000"
 4824      6D6500
 4825 050f 00       		.space	1
 4826              	.LC143:
 4827 0510 72657375 		.ascii	"resume animation\000"
 4827      6D652061 
 4827      6E696D61 
 4827      74696F6E 
 4827      00
 4828 0521 000000   		.space	3
 4829              	.LC144:
 4830 0524 6C656674 		.ascii	"left-right\000"
 4830      2D726967 
 4830      687400
 4831 052f 00       		.space	1
 4832              	.LC145:
 4833 0530 77686974 		.ascii	"white intensity\000"
 4833      6520696E 
 4833      74656E73 
 4833      69747900 
 4834              	.LC146:
 4835 0540 32206C65 		.ascii	"2 leds\000"
 4835      647300
 4836 0547 00       		.space	1
 4837              	.LC147:
 4838 0548 72656420 		.ascii	"red intensity\000"
 4838      696E7465 
 4838      6E736974 
 4838      7900
 4839 0556 0000     		.space	2
 4840              	.LC148:
 4841 0558 67726565 		.ascii	"green intensity\000"
 4841      6E20696E 
 4841      74656E73 
 4841      69747900 
ARM GAS  C:\Users\BG1026~1\AppData\Local\Temp\cc2n2B4u.s 			page 124


 4842              	.LC149:
 4843 0568 626C7565 		.ascii	"blue intensity\000"
 4843      20696E74 
 4843      656E7369 
 4843      747900
 4844 0577 00       		.space	1
 4845              	.LC150:
 4846 0578 616C6C20 		.ascii	"all colors\000"
 4846      636F6C6F 
 4846      727300
 4847 0583 00       		.space	1
 4848              	.LC151:
 4849 0584 7261696E 		.ascii	"rainbow colors\000"
 4849      626F7720 
 4849      636F6C6F 
 4849      727300
 4850 0593 00       		.space	1
 4851              	.LC152:
 4852 0594 34206669 		.ascii	"4 fix white LEDs at full intensity\000"
 4852      78207768 
 4852      69746520 
 4852      4C454473 
 4852      20617420 
 4853 05b7 00       		.bss
 4854              		.align	2
 4855              		.set	.LANCHOR0,. + 0
 4856              		.type	buf.5999, %object
 4857              		.size	buf.5999, 13
 4858              	buf.5999:
 4859 0000 00000000 		.space	13
 4859      00000000 
 4859      00000000 
 4859      00
 4860 000d 000000   		.space	3
 4861              		.type	led_buffer, %object
 4862              		.size	led_buffer, 48
 4863              	led_buffer:
 4864 0010 00000000 		.space	48
 4864      00000000 
 4864      00000000 
 4864      00000000 
 4864      00000000 
 4865              		.type	red.6156, %object
 4866              		.size	red.6156, 2
 4867              	red.6156:
 4868 0040 0000     		.space	2
 4869              		.type	green.6157, %object
 4870              		.size	green.6157, 2
 4871              	green.6157:
 4872 0042 0000     		.space	2
 4873              		.type	blue.6158, %object
 4874              		.size	blue.6158, 2
 4875              	blue.6158:
 4876 0044 0000     		.space	2
 4877              		.type	intensity.6181, %object
 4878              		.size	intensity.6181, 2
 4879              	intensity.6181:
ARM GAS  C:\Users\BG1026~1\AppData\Local\Temp\cc2n2B4u.s 			page 125


 4880 0046 0000     		.space	2
 4881              		.type	cycle.6190, %object
 4882              		.size	cycle.6190, 2
 4883              	cycle.6190:
 4884 0048 0000     		.space	2
 4885              		.type	color_index.6191, %object
 4886              		.size	color_index.6191, 2
 4887              	color_index.6191:
 4888 004a 0000     		.space	2
 4889              		.type	cycle.6196, %object
 4890              		.size	cycle.6196, 2
 4891              	cycle.6196:
 4892 004c 0000     		.space	2
 4893              		.type	intensity.6200, %object
 4894              		.size	intensity.6200, 2
 4895              	intensity.6200:
 4896 004e 0000     		.space	2
 4897              		.type	stop_anim, %object
 4898              		.size	stop_anim, 1
 4899              	stop_anim:
 4900 0050 00       		.space	1
 4901 0051 000000   		.space	3
 4902              		.type	current_callback_anim, %object
 4903              		.size	current_callback_anim, 4
 4904              	current_callback_anim:
 4905 0054 00000000 		.space	4
 4906              		.type	cycle.6209, %object
 4907              		.size	cycle.6209, 2
 4908              	cycle.6209:
 4909 0058 0000     		.space	2
 4910 005a 0000     		.text
 4911              	.Letext0:
 4912              		.file 2 "Generated_Source\\PSoC4/cytypes.h"
 4913              		.file 3 "c:\\program files (x86)\\cypress\\psoc creator\\4.0\\psoc creator\\import\\gnu\\arm\\4.9.
 4914              		.file 4 "c:\\program files (x86)\\cypress\\psoc creator\\4.0\\psoc creator\\import\\gnu\\arm\\4.9.
 4915              		.file 5 "Generated_Source\\PSoC4/UART_1_SPI_UART.h"
 4916              		.file 6 "Generated_Source\\PSoC4/SPIM_SPI_UART.h"
 4917              		.file 7 "Generated_Source\\PSoC4/Latch.h"
 4918              		.file 8 "Generated_Source\\PSoC4/CyLib.h"
 4919              		.file 9 "Generated_Source\\PSoC4/Blank.h"
 4920              		.file 10 "Generated_Source\\PSoC4/SPIM.h"
 4921              		.file 11 "Generated_Source\\PSoC4/UART_1.h"
 4922              		.file 12 "Generated_Source\\PSoC4/CapSense_Control.h"
 4923              		.file 13 "Generated_Source\\PSoC4/CapSense_Sensing.h"
 4924              		.file 14 "Generated_Source\\PSoC4/CapSense_Structure.h"
 4925              		.file 15 "c:\\program files (x86)\\cypress\\psoc creator\\4.0\\psoc creator\\import\\gnu\\arm\\4.9
 4926              		.file 16 "<built-in>"
 4927              		.section	.debug_info,"",%progbits
 4928              	.Ldebug_info0:
 4929 0000 65250000 		.4byte	0x2565
 4930 0004 0400     		.2byte	0x4
 4931 0006 00000000 		.4byte	.Ldebug_abbrev0
 4932 000a 04       		.byte	0x4
 4933 000b 01       		.uleb128 0x1
 4934 000c 29000000 		.4byte	.LASF232
 4935 0010 01       		.byte	0x1
 4936 0011 D2000000 		.4byte	.LASF233
ARM GAS  C:\Users\BG1026~1\AppData\Local\Temp\cc2n2B4u.s 			page 126


 4937 0015 10080000 		.4byte	.LASF234
 4938 0019 00000000 		.4byte	.Ldebug_ranges0+0
 4939 001d 00000000 		.4byte	0
 4940 0021 00000000 		.4byte	.Ldebug_line0
 4941 0025 02       		.uleb128 0x2
 4942 0026 01       		.byte	0x1
 4943 0027 06       		.byte	0x6
 4944 0028 670C0000 		.4byte	.LASF0
 4945 002c 02       		.uleb128 0x2
 4946 002d 01       		.byte	0x1
 4947 002e 08       		.byte	0x8
 4948 002f 9E0B0000 		.4byte	.LASF1
 4949 0033 02       		.uleb128 0x2
 4950 0034 02       		.byte	0x2
 4951 0035 05       		.byte	0x5
 4952 0036 54090000 		.4byte	.LASF2
 4953 003a 02       		.uleb128 0x2
 4954 003b 02       		.byte	0x2
 4955 003c 07       		.byte	0x7
 4956 003d 730C0000 		.4byte	.LASF3
 4957 0041 02       		.uleb128 0x2
 4958 0042 04       		.byte	0x4
 4959 0043 05       		.byte	0x5
 4960 0044 74090000 		.4byte	.LASF4
 4961 0048 02       		.uleb128 0x2
 4962 0049 04       		.byte	0x4
 4963 004a 07       		.byte	0x7
 4964 004b 010B0000 		.4byte	.LASF5
 4965 004f 02       		.uleb128 0x2
 4966 0050 08       		.byte	0x8
 4967 0051 05       		.byte	0x5
 4968 0052 C6060000 		.4byte	.LASF6
 4969 0056 02       		.uleb128 0x2
 4970 0057 08       		.byte	0x8
 4971 0058 07       		.byte	0x7
 4972 0059 CF020000 		.4byte	.LASF7
 4973 005d 03       		.uleb128 0x3
 4974 005e 04       		.byte	0x4
 4975 005f 05       		.byte	0x5
 4976 0060 696E7400 		.ascii	"int\000"
 4977 0064 02       		.uleb128 0x2
 4978 0065 04       		.byte	0x4
 4979 0066 07       		.byte	0x7
 4980 0067 87010000 		.4byte	.LASF8
 4981 006b 04       		.uleb128 0x4
 4982 006c C30C0000 		.4byte	.LASF9
 4983 0070 02       		.byte	0x2
 4984 0071 B901     		.2byte	0x1b9
 4985 0073 2C000000 		.4byte	0x2c
 4986 0077 04       		.uleb128 0x4
 4987 0078 60060000 		.4byte	.LASF10
 4988 007c 02       		.byte	0x2
 4989 007d BA01     		.2byte	0x1ba
 4990 007f 3A000000 		.4byte	0x3a
 4991 0083 04       		.uleb128 0x4
 4992 0084 BB070000 		.4byte	.LASF11
 4993 0088 02       		.byte	0x2
ARM GAS  C:\Users\BG1026~1\AppData\Local\Temp\cc2n2B4u.s 			page 127


 4994 0089 BB01     		.2byte	0x1bb
 4995 008b 48000000 		.4byte	0x48
 4996 008f 02       		.uleb128 0x2
 4997 0090 04       		.byte	0x4
 4998 0091 04       		.byte	0x4
 4999 0092 A0020000 		.4byte	.LASF12
 5000 0096 02       		.uleb128 0x2
 5001 0097 08       		.byte	0x8
 5002 0098 04       		.byte	0x4
 5003 0099 C90C0000 		.4byte	.LASF13
 5004 009d 04       		.uleb128 0x4
 5005 009e 8D060000 		.4byte	.LASF14
 5006 00a2 02       		.byte	0x2
 5007 00a3 CA01     		.2byte	0x1ca
 5008 00a5 A9000000 		.4byte	0xa9
 5009 00a9 02       		.uleb128 0x2
 5010 00aa 01       		.byte	0x1
 5011 00ab 08       		.byte	0x8
 5012 00ac 07060000 		.4byte	.LASF15
 5013 00b0 04       		.uleb128 0x4
 5014 00b1 5F0B0000 		.4byte	.LASF16
 5015 00b5 02       		.byte	0x2
 5016 00b6 5B02     		.2byte	0x25b
 5017 00b8 48000000 		.4byte	0x48
 5018 00bc 05       		.uleb128 0x5
 5019 00bd 04       		.byte	0x4
 5020 00be C2000000 		.4byte	0xc2
 5021 00c2 06       		.uleb128 0x6
 5022 00c3 07       		.uleb128 0x7
 5023 00c4 A1040000 		.4byte	.LASF17
 5024 00c8 03       		.byte	0x3
 5025 00c9 D4       		.byte	0xd4
 5026 00ca 64000000 		.4byte	0x64
 5027 00ce 02       		.uleb128 0x2
 5028 00cf 04       		.byte	0x4
 5029 00d0 07       		.byte	0x7
 5030 00d1 F80A0000 		.4byte	.LASF18
 5031 00d5 08       		.uleb128 0x8
 5032 00d6 04       		.byte	0x4
 5033 00d7 05       		.uleb128 0x5
 5034 00d8 04       		.byte	0x4
 5035 00d9 A9000000 		.4byte	0xa9
 5036 00dd 05       		.uleb128 0x5
 5037 00de 04       		.byte	0x4
 5038 00df E3000000 		.4byte	0xe3
 5039 00e3 09       		.uleb128 0x9
 5040 00e4 A9000000 		.4byte	0xa9
 5041 00e8 05       		.uleb128 0x5
 5042 00e9 04       		.byte	0x4
 5043 00ea 77000000 		.4byte	0x77
 5044 00ee 05       		.uleb128 0x5
 5045 00ef 04       		.byte	0x4
 5046 00f0 F4000000 		.4byte	0xf4
 5047 00f4 0A       		.uleb128 0xa
 5048 00f5 0B       		.uleb128 0xb
 5049 00f6 9C090000 		.4byte	.LASF84
 5050 00fa 03       		.byte	0x3
ARM GAS  C:\Users\BG1026~1\AppData\Local\Temp\cc2n2B4u.s 			page 128


 5051 00fb 01       		.byte	0x1
 5052 00fc 25       		.byte	0x25
 5053 00fd 26010000 		.4byte	0x126
 5054 0101 0C       		.uleb128 0xc
 5055 0102 72656400 		.ascii	"red\000"
 5056 0106 01       		.byte	0x1
 5057 0107 26       		.byte	0x26
 5058 0108 9D000000 		.4byte	0x9d
 5059 010c 00       		.byte	0
 5060 010d 0D       		.uleb128 0xd
 5061 010e 5D080000 		.4byte	.LASF19
 5062 0112 01       		.byte	0x1
 5063 0113 27       		.byte	0x27
 5064 0114 9D000000 		.4byte	0x9d
 5065 0118 01       		.byte	0x1
 5066 0119 0D       		.uleb128 0xd
 5067 011a 230A0000 		.4byte	.LASF20
 5068 011e 01       		.byte	0x1
 5069 011f 28       		.byte	0x28
 5070 0120 9D000000 		.4byte	0x9d
 5071 0124 02       		.byte	0x2
 5072 0125 00       		.byte	0
 5073 0126 07       		.uleb128 0x7
 5074 0127 2B070000 		.4byte	.LASF21
 5075 012b 01       		.byte	0x1
 5076 012c 29       		.byte	0x29
 5077 012d F5000000 		.4byte	0xf5
 5078 0131 0E       		.uleb128 0xe
 5079 0132 AB010000 		.4byte	.LASF26
 5080 0136 01       		.byte	0x1
 5081 0137 01       		.byte	0x1
 5082 0138 2B       		.byte	0x2b
 5083 0139 50010000 		.4byte	0x150
 5084 013d 0F       		.uleb128 0xf
 5085 013e AC0B0000 		.4byte	.LASF22
 5086 0142 00       		.sleb128 0
 5087 0143 0F       		.uleb128 0xf
 5088 0144 B8040000 		.4byte	.LASF23
 5089 0148 01       		.sleb128 1
 5090 0149 0F       		.uleb128 0xf
 5091 014a 240D0000 		.4byte	.LASF24
 5092 014e 02       		.sleb128 2
 5093 014f 00       		.byte	0
 5094 0150 07       		.uleb128 0x7
 5095 0151 E6000000 		.4byte	.LASF25
 5096 0155 01       		.byte	0x1
 5097 0156 30       		.byte	0x30
 5098 0157 31010000 		.4byte	0x131
 5099 015b 0E       		.uleb128 0xe
 5100 015c 7A030000 		.4byte	.LASF27
 5101 0160 01       		.byte	0x1
 5102 0161 01       		.byte	0x1
 5103 0162 32       		.byte	0x32
 5104 0163 8C010000 		.4byte	0x18c
 5105 0167 0F       		.uleb128 0xf
 5106 0168 63080000 		.4byte	.LASF28
 5107 016c 12       		.sleb128 18
ARM GAS  C:\Users\BG1026~1\AppData\Local\Temp\cc2n2B4u.s 			page 129


 5108 016d 0F       		.uleb128 0xf
 5109 016e BF030000 		.4byte	.LASF29
 5110 0172 13       		.sleb128 19
 5111 0173 0F       		.uleb128 0xf
 5112 0174 DB0B0000 		.4byte	.LASF30
 5113 0178 14       		.sleb128 20
 5114 0179 0F       		.uleb128 0xf
 5115 017a E1030000 		.4byte	.LASF31
 5116 017e 15       		.sleb128 21
 5117 017f 0F       		.uleb128 0xf
 5118 0180 C2070000 		.4byte	.LASF32
 5119 0184 16       		.sleb128 22
 5120 0185 0F       		.uleb128 0xf
 5121 0186 D1030000 		.4byte	.LASF33
 5122 018a 17       		.sleb128 23
 5123 018b 00       		.byte	0
 5124 018c 0E       		.uleb128 0xe
 5125 018d DE090000 		.4byte	.LASF34
 5126 0191 01       		.byte	0x1
 5127 0192 01       		.byte	0x1
 5128 0193 3C       		.byte	0x3c
 5129 0194 BD010000 		.4byte	0x1bd
 5130 0198 0F       		.uleb128 0xf
 5131 0199 06080000 		.4byte	.LASF35
 5132 019d 00       		.sleb128 0
 5133 019e 0F       		.uleb128 0xf
 5134 019f 11010000 		.4byte	.LASF36
 5135 01a3 01       		.sleb128 1
 5136 01a4 0F       		.uleb128 0xf
 5137 01a5 93060000 		.4byte	.LASF37
 5138 01a9 02       		.sleb128 2
 5139 01aa 0F       		.uleb128 0xf
 5140 01ab C6000000 		.4byte	.LASF38
 5141 01af 03       		.sleb128 3
 5142 01b0 0F       		.uleb128 0xf
 5143 01b1 32040000 		.4byte	.LASF39
 5144 01b5 04       		.sleb128 4
 5145 01b6 0F       		.uleb128 0xf
 5146 01b7 8C080000 		.4byte	.LASF40
 5147 01bb 05       		.sleb128 5
 5148 01bc 00       		.byte	0
 5149 01bd 07       		.uleb128 0x7
 5150 01be 1C010000 		.4byte	.LASF41
 5151 01c2 01       		.byte	0x1
 5152 01c3 44       		.byte	0x44
 5153 01c4 8C010000 		.4byte	0x18c
 5154 01c8 0E       		.uleb128 0xe
 5155 01c9 32020000 		.4byte	.LASF42
 5156 01cd 01       		.byte	0x1
 5157 01ce 01       		.byte	0x1
 5158 01cf 46       		.byte	0x46
 5159 01d0 FF010000 		.4byte	0x1ff
 5160 01d4 0F       		.uleb128 0xf
 5161 01d5 66090000 		.4byte	.LASF43
 5162 01d9 00       		.sleb128 0
 5163 01da 0F       		.uleb128 0xf
 5164 01db DE010000 		.4byte	.LASF44
ARM GAS  C:\Users\BG1026~1\AppData\Local\Temp\cc2n2B4u.s 			page 130


 5165 01df 01       		.sleb128 1
 5166 01e0 0F       		.uleb128 0xf
 5167 01e1 15050000 		.4byte	.LASF45
 5168 01e5 02       		.sleb128 2
 5169 01e6 0F       		.uleb128 0xf
 5170 01e7 6D0A0000 		.4byte	.LASF46
 5171 01eb 03       		.sleb128 3
 5172 01ec 0F       		.uleb128 0xf
 5173 01ed 71060000 		.4byte	.LASF47
 5174 01f1 04       		.sleb128 4
 5175 01f2 0F       		.uleb128 0xf
 5176 01f3 8C0A0000 		.4byte	.LASF48
 5177 01f7 05       		.sleb128 5
 5178 01f8 0F       		.uleb128 0xf
 5179 01f9 66020000 		.4byte	.LASF49
 5180 01fd 06       		.sleb128 6
 5181 01fe 00       		.byte	0
 5182 01ff 07       		.uleb128 0x7
 5183 0200 FA020000 		.4byte	.LASF50
 5184 0204 01       		.byte	0x1
 5185 0205 4F       		.byte	0x4f
 5186 0206 C8010000 		.4byte	0x1c8
 5187 020a 0E       		.uleb128 0xe
 5188 020b 4B020000 		.4byte	.LASF51
 5189 020f 01       		.byte	0x1
 5190 0210 01       		.byte	0x1
 5191 0211 51       		.byte	0x51
 5192 0212 35020000 		.4byte	0x235
 5193 0216 0F       		.uleb128 0xf
 5194 0217 27050000 		.4byte	.LASF52
 5195 021b 00       		.sleb128 0
 5196 021c 0F       		.uleb128 0xf
 5197 021d EE090000 		.4byte	.LASF53
 5198 0221 01       		.sleb128 1
 5199 0222 0F       		.uleb128 0xf
 5200 0223 1B000000 		.4byte	.LASF54
 5201 0227 02       		.sleb128 2
 5202 0228 0F       		.uleb128 0xf
 5203 0229 3C010000 		.4byte	.LASF55
 5204 022d 03       		.sleb128 3
 5205 022e 0F       		.uleb128 0xf
 5206 022f 450A0000 		.4byte	.LASF56
 5207 0233 04       		.sleb128 4
 5208 0234 00       		.byte	0
 5209 0235 07       		.uleb128 0x7
 5210 0236 3E040000 		.4byte	.LASF57
 5211 023a 01       		.byte	0x1
 5212 023b 58       		.byte	0x58
 5213 023c 0A020000 		.4byte	0x20a
 5214 0240 0E       		.uleb128 0xe
 5215 0241 A9080000 		.4byte	.LASF58
 5216 0245 01       		.byte	0x1
 5217 0246 01       		.byte	0x1
 5218 0247 5A       		.byte	0x5a
 5219 0248 65020000 		.4byte	0x265
 5220 024c 0F       		.uleb128 0xf
 5221 024d 23060000 		.4byte	.LASF59
ARM GAS  C:\Users\BG1026~1\AppData\Local\Temp\cc2n2B4u.s 			page 131


 5222 0251 00       		.sleb128 0
 5223 0252 0F       		.uleb128 0xf
 5224 0253 25030000 		.4byte	.LASF60
 5225 0257 01       		.sleb128 1
 5226 0258 0F       		.uleb128 0xf
 5227 0259 7B050000 		.4byte	.LASF61
 5228 025d 02       		.sleb128 2
 5229 025e 0F       		.uleb128 0xf
 5230 025f E6020000 		.4byte	.LASF62
 5231 0263 03       		.sleb128 3
 5232 0264 00       		.byte	0
 5233 0265 07       		.uleb128 0x7
 5234 0266 49060000 		.4byte	.LASF63
 5235 026a 01       		.byte	0x1
 5236 026b 60       		.byte	0x60
 5237 026c 40020000 		.4byte	0x240
 5238 0270 0E       		.uleb128 0xe
 5239 0271 43030000 		.4byte	.LASF64
 5240 0275 01       		.byte	0x1
 5241 0276 01       		.byte	0x1
 5242 0277 62       		.byte	0x62
 5243 0278 A1020000 		.4byte	0x2a1
 5244 027c 0F       		.uleb128 0xf
 5245 027d 3D0C0000 		.4byte	.LASF65
 5246 0281 00       		.sleb128 0
 5247 0282 0F       		.uleb128 0xf
 5248 0283 560A0000 		.4byte	.LASF66
 5249 0287 01       		.sleb128 1
 5250 0288 0F       		.uleb128 0xf
 5251 0289 61040000 		.4byte	.LASF67
 5252 028d 02       		.sleb128 2
 5253 028e 0F       		.uleb128 0xf
 5254 028f 49070000 		.4byte	.LASF68
 5255 0293 03       		.sleb128 3
 5256 0294 0F       		.uleb128 0xf
 5257 0295 040A0000 		.4byte	.LASF69
 5258 0299 04       		.sleb128 4
 5259 029a 0F       		.uleb128 0xf
 5260 029b 6B050000 		.4byte	.LASF70
 5261 029f 05       		.sleb128 5
 5262 02a0 00       		.byte	0
 5263 02a1 07       		.uleb128 0x7
 5264 02a2 7C020000 		.4byte	.LASF71
 5265 02a6 01       		.byte	0x1
 5266 02a7 6A       		.byte	0x6a
 5267 02a8 70020000 		.4byte	0x270
 5268 02ac 0E       		.uleb128 0xe
 5269 02ad 94010000 		.4byte	.LASF72
 5270 02b1 01       		.byte	0x1
 5271 02b2 01       		.byte	0x1
 5272 02b3 6C       		.byte	0x6c
 5273 02b4 F5020000 		.4byte	0x2f5
 5274 02b8 0F       		.uleb128 0xf
 5275 02b9 7D060000 		.4byte	.LASF73
 5276 02bd 00       		.sleb128 0
 5277 02be 0F       		.uleb128 0xf
 5278 02bf 760A0000 		.4byte	.LASF74
ARM GAS  C:\Users\BG1026~1\AppData\Local\Temp\cc2n2B4u.s 			page 132


 5279 02c3 01       		.sleb128 1
 5280 02c4 0F       		.uleb128 0xf
 5281 02c5 E50C0000 		.4byte	.LASF75
 5282 02c9 02       		.sleb128 2
 5283 02ca 0F       		.uleb128 0xf
 5284 02cb 8E040000 		.4byte	.LASF76
 5285 02cf 03       		.sleb128 3
 5286 02d0 0F       		.uleb128 0xf
 5287 02d1 79040000 		.4byte	.LASF77
 5288 02d5 04       		.sleb128 4
 5289 02d6 0F       		.uleb128 0xf
 5290 02d7 35050000 		.4byte	.LASF78
 5291 02db 05       		.sleb128 5
 5292 02dc 0F       		.uleb128 0xf
 5293 02dd C7080000 		.4byte	.LASF79
 5294 02e1 06       		.sleb128 6
 5295 02e2 0F       		.uleb128 0xf
 5296 02e3 130B0000 		.4byte	.LASF80
 5297 02e7 07       		.sleb128 7
 5298 02e8 0F       		.uleb128 0xf
 5299 02e9 1C070000 		.4byte	.LASF81
 5300 02ed 08       		.sleb128 8
 5301 02ee 0F       		.uleb128 0xf
 5302 02ef D9000000 		.4byte	.LASF82
 5303 02f3 09       		.sleb128 9
 5304 02f4 00       		.byte	0
 5305 02f5 07       		.uleb128 0x7
 5306 02f6 3F0B0000 		.4byte	.LASF83
 5307 02fa 01       		.byte	0x1
 5308 02fb 78       		.byte	0x78
 5309 02fc AC020000 		.4byte	0x2ac
 5310 0300 0B       		.uleb128 0xb
 5311 0301 37090000 		.4byte	.LASF85
 5312 0305 0C       		.byte	0xc
 5313 0306 01       		.byte	0x1
 5314 0307 7A       		.byte	0x7a
 5315 0308 30030000 		.4byte	0x330
 5316 030c 0C       		.uleb128 0xc
 5317 030d 696400   		.ascii	"id\000"
 5318 0310 01       		.byte	0x1
 5319 0311 7C       		.byte	0x7c
 5320 0312 77000000 		.4byte	0x77
 5321 0316 00       		.byte	0
 5322 0317 0D       		.uleb128 0xd
 5323 0318 980A0000 		.4byte	.LASF86
 5324 031c 01       		.byte	0x1
 5325 031d 7D       		.byte	0x7d
 5326 031e DD000000 		.4byte	0xdd
 5327 0322 04       		.byte	0x4
 5328 0323 0D       		.uleb128 0xd
 5329 0324 D4060000 		.4byte	.LASF87
 5330 0328 01       		.byte	0x1
 5331 0329 7E       		.byte	0x7e
 5332 032a DD000000 		.4byte	0xdd
 5333 032e 08       		.byte	0x8
 5334 032f 00       		.byte	0
 5335 0330 07       		.uleb128 0x7
ARM GAS  C:\Users\BG1026~1\AppData\Local\Temp\cc2n2B4u.s 			page 133


 5336 0331 DF050000 		.4byte	.LASF88
 5337 0335 01       		.byte	0x1
 5338 0336 7F       		.byte	0x7f
 5339 0337 00030000 		.4byte	0x300
 5340 033b 07       		.uleb128 0x7
 5341 033c FD010000 		.4byte	.LASF89
 5342 0340 01       		.byte	0x1
 5343 0341 81       		.byte	0x81
 5344 0342 BC000000 		.4byte	0xbc
 5345 0346 0B       		.uleb128 0xb
 5346 0347 BE010000 		.4byte	.LASF90
 5347 034b 0C       		.byte	0xc
 5348 034c 01       		.byte	0x1
 5349 034d 83       		.byte	0x83
 5350 034e 76030000 		.4byte	0x376
 5351 0352 0C       		.uleb128 0xc
 5352 0353 696400   		.ascii	"id\000"
 5353 0356 01       		.byte	0x1
 5354 0357 85       		.byte	0x85
 5355 0358 F5020000 		.4byte	0x2f5
 5356 035c 00       		.byte	0
 5357 035d 0D       		.uleb128 0xd
 5358 035e EC0B0000 		.4byte	.LASF91
 5359 0362 01       		.byte	0x1
 5360 0363 86       		.byte	0x86
 5361 0364 3B030000 		.4byte	0x33b
 5362 0368 04       		.byte	0x4
 5363 0369 0D       		.uleb128 0xd
 5364 036a D4060000 		.4byte	.LASF87
 5365 036e 01       		.byte	0x1
 5366 036f 87       		.byte	0x87
 5367 0370 DD000000 		.4byte	0xdd
 5368 0374 08       		.byte	0x8
 5369 0375 00       		.byte	0
 5370 0376 07       		.uleb128 0x7
 5371 0377 92050000 		.4byte	.LASF92
 5372 037b 01       		.byte	0x1
 5373 037c 88       		.byte	0x88
 5374 037d 46030000 		.4byte	0x346
 5375 0381 0B       		.uleb128 0xb
 5376 0382 BA090000 		.4byte	.LASF93
 5377 0386 30       		.byte	0x30
 5378 0387 01       		.byte	0x1
 5379 0388 8A       		.byte	0x8a
 5380 0389 F6040000 		.4byte	0x4f6
 5381 038d 10       		.uleb128 0x10
 5382 038e 62070000 		.4byte	.LASF94
 5383 0392 01       		.byte	0x1
 5384 0393 8C       		.byte	0x8c
 5385 0394 77000000 		.4byte	0x77
 5386 0398 02       		.byte	0x2
 5387 0399 0C       		.byte	0xc
 5388 039a 04       		.byte	0x4
 5389 039b 00       		.byte	0
 5390 039c 10       		.uleb128 0x10
 5391 039d 67070000 		.4byte	.LASF95
 5392 03a1 01       		.byte	0x1
ARM GAS  C:\Users\BG1026~1\AppData\Local\Temp\cc2n2B4u.s 			page 134


 5393 03a2 8D       		.byte	0x8d
 5394 03a3 77000000 		.4byte	0x77
 5395 03a7 02       		.byte	0x2
 5396 03a8 0C       		.byte	0xc
 5397 03a9 04       		.byte	0x4
 5398 03aa 02       		.byte	0x2
 5399 03ab 10       		.uleb128 0x10
 5400 03ac 6C070000 		.4byte	.LASF96
 5401 03b0 01       		.byte	0x1
 5402 03b1 8E       		.byte	0x8e
 5403 03b2 77000000 		.4byte	0x77
 5404 03b6 02       		.byte	0x2
 5405 03b7 0C       		.byte	0xc
 5406 03b8 04       		.byte	0x4
 5407 03b9 04       		.byte	0x4
 5408 03ba 10       		.uleb128 0x10
 5409 03bb 71070000 		.4byte	.LASF97
 5410 03bf 01       		.byte	0x1
 5411 03c0 8F       		.byte	0x8f
 5412 03c1 77000000 		.4byte	0x77
 5413 03c5 02       		.byte	0x2
 5414 03c6 0C       		.byte	0xc
 5415 03c7 04       		.byte	0x4
 5416 03c8 06       		.byte	0x6
 5417 03c9 10       		.uleb128 0x10
 5418 03ca 76070000 		.4byte	.LASF98
 5419 03ce 01       		.byte	0x1
 5420 03cf 90       		.byte	0x90
 5421 03d0 77000000 		.4byte	0x77
 5422 03d4 02       		.byte	0x2
 5423 03d5 0C       		.byte	0xc
 5424 03d6 04       		.byte	0x4
 5425 03d7 08       		.byte	0x8
 5426 03d8 10       		.uleb128 0x10
 5427 03d9 7B070000 		.4byte	.LASF99
 5428 03dd 01       		.byte	0x1
 5429 03de 91       		.byte	0x91
 5430 03df 77000000 		.4byte	0x77
 5431 03e3 02       		.byte	0x2
 5432 03e4 0C       		.byte	0xc
 5433 03e5 04       		.byte	0x4
 5434 03e6 0A       		.byte	0xa
 5435 03e7 10       		.uleb128 0x10
 5436 03e8 80070000 		.4byte	.LASF100
 5437 03ec 01       		.byte	0x1
 5438 03ed 92       		.byte	0x92
 5439 03ee 77000000 		.4byte	0x77
 5440 03f2 02       		.byte	0x2
 5441 03f3 0C       		.byte	0xc
 5442 03f4 04       		.byte	0x4
 5443 03f5 0C       		.byte	0xc
 5444 03f6 10       		.uleb128 0x10
 5445 03f7 85070000 		.4byte	.LASF101
 5446 03fb 01       		.byte	0x1
 5447 03fc 93       		.byte	0x93
 5448 03fd 77000000 		.4byte	0x77
 5449 0401 02       		.byte	0x2
ARM GAS  C:\Users\BG1026~1\AppData\Local\Temp\cc2n2B4u.s 			page 135


 5450 0402 0C       		.byte	0xc
 5451 0403 04       		.byte	0x4
 5452 0404 0E       		.byte	0xe
 5453 0405 10       		.uleb128 0x10
 5454 0406 8A070000 		.4byte	.LASF102
 5455 040a 01       		.byte	0x1
 5456 040b 94       		.byte	0x94
 5457 040c 77000000 		.4byte	0x77
 5458 0410 02       		.byte	0x2
 5459 0411 0C       		.byte	0xc
 5460 0412 04       		.byte	0x4
 5461 0413 10       		.byte	0x10
 5462 0414 10       		.uleb128 0x10
 5463 0415 8F070000 		.4byte	.LASF103
 5464 0419 01       		.byte	0x1
 5465 041a 95       		.byte	0x95
 5466 041b 77000000 		.4byte	0x77
 5467 041f 02       		.byte	0x2
 5468 0420 0C       		.byte	0xc
 5469 0421 04       		.byte	0x4
 5470 0422 12       		.byte	0x12
 5471 0423 10       		.uleb128 0x10
 5472 0424 E0060000 		.4byte	.LASF104
 5473 0428 01       		.byte	0x1
 5474 0429 96       		.byte	0x96
 5475 042a 77000000 		.4byte	0x77
 5476 042e 02       		.byte	0x2
 5477 042f 0C       		.byte	0xc
 5478 0430 04       		.byte	0x4
 5479 0431 14       		.byte	0x14
 5480 0432 10       		.uleb128 0x10
 5481 0433 E6060000 		.4byte	.LASF105
 5482 0437 01       		.byte	0x1
 5483 0438 97       		.byte	0x97
 5484 0439 77000000 		.4byte	0x77
 5485 043d 02       		.byte	0x2
 5486 043e 0C       		.byte	0xc
 5487 043f 04       		.byte	0x4
 5488 0440 16       		.byte	0x16
 5489 0441 10       		.uleb128 0x10
 5490 0442 EC060000 		.4byte	.LASF106
 5491 0446 01       		.byte	0x1
 5492 0447 98       		.byte	0x98
 5493 0448 77000000 		.4byte	0x77
 5494 044c 02       		.byte	0x2
 5495 044d 0C       		.byte	0xc
 5496 044e 04       		.byte	0x4
 5497 044f 18       		.byte	0x18
 5498 0450 10       		.uleb128 0x10
 5499 0451 F2060000 		.4byte	.LASF107
 5500 0455 01       		.byte	0x1
 5501 0456 99       		.byte	0x99
 5502 0457 77000000 		.4byte	0x77
 5503 045b 02       		.byte	0x2
 5504 045c 0C       		.byte	0xc
 5505 045d 04       		.byte	0x4
 5506 045e 1A       		.byte	0x1a
ARM GAS  C:\Users\BG1026~1\AppData\Local\Temp\cc2n2B4u.s 			page 136


 5507 045f 10       		.uleb128 0x10
 5508 0460 F8060000 		.4byte	.LASF108
 5509 0464 01       		.byte	0x1
 5510 0465 9A       		.byte	0x9a
 5511 0466 77000000 		.4byte	0x77
 5512 046a 02       		.byte	0x2
 5513 046b 0C       		.byte	0xc
 5514 046c 04       		.byte	0x4
 5515 046d 1C       		.byte	0x1c
 5516 046e 10       		.uleb128 0x10
 5517 046f FE060000 		.4byte	.LASF109
 5518 0473 01       		.byte	0x1
 5519 0474 9B       		.byte	0x9b
 5520 0475 77000000 		.4byte	0x77
 5521 0479 02       		.byte	0x2
 5522 047a 0C       		.byte	0xc
 5523 047b 04       		.byte	0x4
 5524 047c 1E       		.byte	0x1e
 5525 047d 10       		.uleb128 0x10
 5526 047e 04070000 		.4byte	.LASF110
 5527 0482 01       		.byte	0x1
 5528 0483 9C       		.byte	0x9c
 5529 0484 77000000 		.4byte	0x77
 5530 0488 02       		.byte	0x2
 5531 0489 0C       		.byte	0xc
 5532 048a 04       		.byte	0x4
 5533 048b 20       		.byte	0x20
 5534 048c 10       		.uleb128 0x10
 5535 048d 0A070000 		.4byte	.LASF111
 5536 0491 01       		.byte	0x1
 5537 0492 9D       		.byte	0x9d
 5538 0493 77000000 		.4byte	0x77
 5539 0497 02       		.byte	0x2
 5540 0498 0C       		.byte	0xc
 5541 0499 04       		.byte	0x4
 5542 049a 22       		.byte	0x22
 5543 049b 10       		.uleb128 0x10
 5544 049c 10070000 		.4byte	.LASF112
 5545 04a0 01       		.byte	0x1
 5546 04a1 9E       		.byte	0x9e
 5547 04a2 77000000 		.4byte	0x77
 5548 04a6 02       		.byte	0x2
 5549 04a7 0C       		.byte	0xc
 5550 04a8 04       		.byte	0x4
 5551 04a9 24       		.byte	0x24
 5552 04aa 10       		.uleb128 0x10
 5553 04ab 16070000 		.4byte	.LASF113
 5554 04af 01       		.byte	0x1
 5555 04b0 9F       		.byte	0x9f
 5556 04b1 77000000 		.4byte	0x77
 5557 04b5 02       		.byte	0x2
 5558 04b6 0C       		.byte	0xc
 5559 04b7 04       		.byte	0x4
 5560 04b8 26       		.byte	0x26
 5561 04b9 10       		.uleb128 0x10
 5562 04ba D3070000 		.4byte	.LASF114
 5563 04be 01       		.byte	0x1
ARM GAS  C:\Users\BG1026~1\AppData\Local\Temp\cc2n2B4u.s 			page 137


 5564 04bf A0       		.byte	0xa0
 5565 04c0 77000000 		.4byte	0x77
 5566 04c4 02       		.byte	0x2
 5567 04c5 0C       		.byte	0xc
 5568 04c6 04       		.byte	0x4
 5569 04c7 28       		.byte	0x28
 5570 04c8 10       		.uleb128 0x10
 5571 04c9 D9070000 		.4byte	.LASF115
 5572 04cd 01       		.byte	0x1
 5573 04ce A1       		.byte	0xa1
 5574 04cf 77000000 		.4byte	0x77
 5575 04d3 02       		.byte	0x2
 5576 04d4 0C       		.byte	0xc
 5577 04d5 04       		.byte	0x4
 5578 04d6 2A       		.byte	0x2a
 5579 04d7 10       		.uleb128 0x10
 5580 04d8 DF070000 		.4byte	.LASF116
 5581 04dc 01       		.byte	0x1
 5582 04dd A2       		.byte	0xa2
 5583 04de 77000000 		.4byte	0x77
 5584 04e2 02       		.byte	0x2
 5585 04e3 0C       		.byte	0xc
 5586 04e4 04       		.byte	0x4
 5587 04e5 2C       		.byte	0x2c
 5588 04e6 10       		.uleb128 0x10
 5589 04e7 E5070000 		.4byte	.LASF117
 5590 04eb 01       		.byte	0x1
 5591 04ec A3       		.byte	0xa3
 5592 04ed 77000000 		.4byte	0x77
 5593 04f1 02       		.byte	0x2
 5594 04f2 0C       		.byte	0xc
 5595 04f3 04       		.byte	0x4
 5596 04f4 2E       		.byte	0x2e
 5597 04f5 00       		.byte	0
 5598 04f6 07       		.uleb128 0x7
 5599 04f7 8D030000 		.4byte	.LASF118
 5600 04fb 01       		.byte	0x1
 5601 04fc A4       		.byte	0xa4
 5602 04fd 81030000 		.4byte	0x381
 5603 0501 11       		.uleb128 0x11
 5604 0502 3E070000 		.4byte	.LASF119
 5605 0506 01       		.byte	0x1
 5606 0507 E7       		.byte	0xe7
 5607 0508 D7000000 		.4byte	0xd7
 5608 050c 00000000 		.4byte	.LFB35
 5609 0510 58000000 		.4byte	.LFE35-.LFB35
 5610 0514 01       		.uleb128 0x1
 5611 0515 9C       		.byte	0x9c
 5612 0516 46050000 		.4byte	0x546
 5613 051a 12       		.uleb128 0x12
 5614 051b 6900     		.ascii	"i\000"
 5615 051d 01       		.byte	0x1
 5616 051e E7       		.byte	0xe7
 5617 051f 5D000000 		.4byte	0x5d
 5618 0523 00000000 		.4byte	.LLST0
 5619 0527 13       		.uleb128 0x13
 5620 0528 62756600 		.ascii	"buf\000"
ARM GAS  C:\Users\BG1026~1\AppData\Local\Temp\cc2n2B4u.s 			page 138


 5621 052c 01       		.byte	0x1
 5622 052d E9       		.byte	0xe9
 5623 052e 46050000 		.4byte	0x546
 5624 0532 05       		.uleb128 0x5
 5625 0533 03       		.byte	0x3
 5626 0534 00000000 		.4byte	buf.5999
 5627 0538 14       		.uleb128 0x14
 5628 0539 7000     		.ascii	"p\000"
 5629 053b 01       		.byte	0x1
 5630 053c EA       		.byte	0xea
 5631 053d D7000000 		.4byte	0xd7
 5632 0541 60000000 		.4byte	.LLST1
 5633 0545 00       		.byte	0
 5634 0546 15       		.uleb128 0x15
 5635 0547 A9000000 		.4byte	0xa9
 5636 054b 56050000 		.4byte	0x556
 5637 054f 16       		.uleb128 0x16
 5638 0550 CE000000 		.4byte	0xce
 5639 0554 0C       		.byte	0xc
 5640 0555 00       		.byte	0
 5641 0556 17       		.uleb128 0x17
 5642 0557 B10C0000 		.4byte	.LASF120
 5643 055b 01       		.byte	0x1
 5644 055c FF       		.byte	0xff
 5645 055d 5D000000 		.4byte	0x5d
 5646 0561 00000000 		.4byte	.LFB36
 5647 0565 50000000 		.4byte	.LFE36-.LFB36
 5648 0569 01       		.uleb128 0x1
 5649 056a 9C       		.byte	0x9c
 5650 056b AF050000 		.4byte	0x5af
 5651 056f 18       		.uleb128 0x18
 5652 0570 42060000 		.4byte	.LASF121
 5653 0574 01       		.byte	0x1
 5654 0575 FF       		.byte	0xff
 5655 0576 D7000000 		.4byte	0xd7
 5656 057a A9000000 		.4byte	.LLST2
 5657 057e 19       		.uleb128 0x19
 5658 057f C8020000 		.4byte	.LASF122
 5659 0583 01       		.byte	0x1
 5660 0584 0101     		.2byte	0x101
 5661 0586 5D000000 		.4byte	0x5d
 5662 058a D2000000 		.4byte	.LLST3
 5663 058e 19       		.uleb128 0x19
 5664 058f 43070000 		.4byte	.LASF123
 5665 0593 01       		.byte	0x1
 5666 0594 0201     		.2byte	0x102
 5667 0596 64000000 		.4byte	0x64
 5668 059a FC000000 		.4byte	.LLST4
 5669 059e 19       		.uleb128 0x19
 5670 059f A8040000 		.4byte	.LASF124
 5671 05a3 01       		.byte	0x1
 5672 05a4 0301     		.2byte	0x103
 5673 05a6 5D000000 		.4byte	0x5d
 5674 05aa 1B010000 		.4byte	.LLST5
 5675 05ae 00       		.byte	0
 5676 05af 1A       		.uleb128 0x1a
 5677 05b0 A5050000 		.4byte	.LASF125
ARM GAS  C:\Users\BG1026~1\AppData\Local\Temp\cc2n2B4u.s 			page 139


 5678 05b4 01       		.byte	0x1
 5679 05b5 9E01     		.2byte	0x19e
 5680 05b7 FF010000 		.4byte	0x1ff
 5681 05bb 00000000 		.4byte	.LFB38
 5682 05bf 38000000 		.4byte	.LFE38-.LFB38
 5683 05c3 01       		.uleb128 0x1
 5684 05c4 9C       		.byte	0x9c
 5685 05c5 0C060000 		.4byte	0x60c
 5686 05c9 1B       		.uleb128 0x1b
 5687 05ca 13000000 		.4byte	.LASF126
 5688 05ce 01       		.byte	0x1
 5689 05cf 9E01     		.2byte	0x19e
 5690 05d1 DD000000 		.4byte	0xdd
 5691 05d5 52010000 		.4byte	.LLST6
 5692 05d9 1C       		.uleb128 0x1c
 5693 05da 6900     		.ascii	"i\000"
 5694 05dc 01       		.byte	0x1
 5695 05dd A001     		.2byte	0x1a0
 5696 05df 5D000000 		.4byte	0x5d
 5697 05e3 7E010000 		.4byte	.LLST7
 5698 05e7 1D       		.uleb128 0x1d
 5699 05e8 1A000000 		.4byte	.LVL37
 5700 05ec E8230000 		.4byte	0x23e8
 5701 05f0 1E       		.uleb128 0x1e
 5702 05f1 01       		.uleb128 0x1
 5703 05f2 51       		.byte	0x51
 5704 05f3 10       		.uleb128 0x10
 5705 05f4 75       		.byte	0x75
 5706 05f5 00       		.sleb128 0
 5707 05f6 31       		.byte	0x31
 5708 05f7 24       		.byte	0x24
 5709 05f8 75       		.byte	0x75
 5710 05f9 00       		.sleb128 0
 5711 05fa 22       		.byte	0x22
 5712 05fb 32       		.byte	0x32
 5713 05fc 24       		.byte	0x24
 5714 05fd 03       		.byte	0x3
 5715 05fe 90000000 		.4byte	.LANCHOR1+4
 5716 0602 22       		.byte	0x22
 5717 0603 06       		.byte	0x6
 5718 0604 1E       		.uleb128 0x1e
 5719 0605 01       		.uleb128 0x1
 5720 0606 50       		.byte	0x50
 5721 0607 02       		.uleb128 0x2
 5722 0608 74       		.byte	0x74
 5723 0609 00       		.sleb128 0
 5724 060a 00       		.byte	0
 5725 060b 00       		.byte	0
 5726 060c 1A       		.uleb128 0x1a
 5727 060d D5040000 		.4byte	.LASF127
 5728 0611 01       		.byte	0x1
 5729 0612 AD01     		.2byte	0x1ad
 5730 0614 65020000 		.4byte	0x265
 5731 0618 00000000 		.4byte	.LFB39
 5732 061c 3C000000 		.4byte	.LFE39-.LFB39
 5733 0620 01       		.uleb128 0x1
 5734 0621 9C       		.byte	0x9c
ARM GAS  C:\Users\BG1026~1\AppData\Local\Temp\cc2n2B4u.s 			page 140


 5735 0622 69060000 		.4byte	0x669
 5736 0626 1B       		.uleb128 0x1b
 5737 0627 13000000 		.4byte	.LASF126
 5738 062b 01       		.byte	0x1
 5739 062c AD01     		.2byte	0x1ad
 5740 062e DD000000 		.4byte	0xdd
 5741 0632 A8010000 		.4byte	.LLST8
 5742 0636 1C       		.uleb128 0x1c
 5743 0637 6900     		.ascii	"i\000"
 5744 0639 01       		.byte	0x1
 5745 063a AF01     		.2byte	0x1af
 5746 063c 5D000000 		.4byte	0x5d
 5747 0640 D4010000 		.4byte	.LLST9
 5748 0644 1D       		.uleb128 0x1d
 5749 0645 1A000000 		.4byte	.LVL46
 5750 0649 E8230000 		.4byte	0x23e8
 5751 064d 1E       		.uleb128 0x1e
 5752 064e 01       		.uleb128 0x1
 5753 064f 51       		.byte	0x51
 5754 0650 10       		.uleb128 0x10
 5755 0651 75       		.byte	0x75
 5756 0652 00       		.sleb128 0
 5757 0653 31       		.byte	0x31
 5758 0654 24       		.byte	0x24
 5759 0655 75       		.byte	0x75
 5760 0656 00       		.sleb128 0
 5761 0657 22       		.byte	0x22
 5762 0658 32       		.byte	0x32
 5763 0659 24       		.byte	0x24
 5764 065a 03       		.byte	0x3
 5765 065b D8000000 		.4byte	.LANCHOR1+76
 5766 065f 22       		.byte	0x22
 5767 0660 06       		.byte	0x6
 5768 0661 1E       		.uleb128 0x1e
 5769 0662 01       		.uleb128 0x1
 5770 0663 50       		.byte	0x50
 5771 0664 02       		.uleb128 0x2
 5772 0665 74       		.byte	0x74
 5773 0666 00       		.sleb128 0
 5774 0667 00       		.byte	0
 5775 0668 00       		.byte	0
 5776 0669 1A       		.uleb128 0x1a
 5777 066a F0030000 		.4byte	.LASF128
 5778 066e 01       		.byte	0x1
 5779 066f BC01     		.2byte	0x1bc
 5780 0671 35020000 		.4byte	0x235
 5781 0675 00000000 		.4byte	.LFB40
 5782 0679 3C000000 		.4byte	.LFE40-.LFB40
 5783 067d 01       		.uleb128 0x1
 5784 067e 9C       		.byte	0x9c
 5785 067f C6060000 		.4byte	0x6c6
 5786 0683 1B       		.uleb128 0x1b
 5787 0684 13000000 		.4byte	.LASF126
 5788 0688 01       		.byte	0x1
 5789 0689 BC01     		.2byte	0x1bc
 5790 068b DD000000 		.4byte	0xdd
 5791 068f FE010000 		.4byte	.LLST10
ARM GAS  C:\Users\BG1026~1\AppData\Local\Temp\cc2n2B4u.s 			page 141


 5792 0693 1C       		.uleb128 0x1c
 5793 0694 6900     		.ascii	"i\000"
 5794 0696 01       		.byte	0x1
 5795 0697 BE01     		.2byte	0x1be
 5796 0699 5D000000 		.4byte	0x5d
 5797 069d 2A020000 		.4byte	.LLST11
 5798 06a1 1D       		.uleb128 0x1d
 5799 06a2 1A000000 		.4byte	.LVL55
 5800 06a6 E8230000 		.4byte	0x23e8
 5801 06aa 1E       		.uleb128 0x1e
 5802 06ab 01       		.uleb128 0x1
 5803 06ac 51       		.byte	0x51
 5804 06ad 10       		.uleb128 0x10
 5805 06ae 75       		.byte	0x75
 5806 06af 00       		.sleb128 0
 5807 06b0 31       		.byte	0x31
 5808 06b1 24       		.byte	0x24
 5809 06b2 75       		.byte	0x75
 5810 06b3 00       		.sleb128 0
 5811 06b4 22       		.byte	0x22
 5812 06b5 32       		.byte	0x32
 5813 06b6 24       		.byte	0x24
 5814 06b7 03       		.byte	0x3
 5815 06b8 FC000000 		.4byte	.LANCHOR1+112
 5816 06bc 22       		.byte	0x22
 5817 06bd 06       		.byte	0x6
 5818 06be 1E       		.uleb128 0x1e
 5819 06bf 01       		.uleb128 0x1
 5820 06c0 50       		.byte	0x50
 5821 06c1 02       		.uleb128 0x2
 5822 06c2 74       		.byte	0x74
 5823 06c3 00       		.sleb128 0
 5824 06c4 00       		.byte	0
 5825 06c5 00       		.byte	0
 5826 06c6 1A       		.uleb128 0x1a
 5827 06c7 4B0C0000 		.4byte	.LASF129
 5828 06cb 01       		.byte	0x1
 5829 06cc CB01     		.2byte	0x1cb
 5830 06ce F5020000 		.4byte	0x2f5
 5831 06d2 00000000 		.4byte	.LFB41
 5832 06d6 3C000000 		.4byte	.LFE41-.LFB41
 5833 06da 01       		.uleb128 0x1
 5834 06db 9C       		.byte	0x9c
 5835 06dc 23070000 		.4byte	0x723
 5836 06e0 1B       		.uleb128 0x1b
 5837 06e1 13000000 		.4byte	.LASF126
 5838 06e5 01       		.byte	0x1
 5839 06e6 CB01     		.2byte	0x1cb
 5840 06e8 DD000000 		.4byte	0xdd
 5841 06ec 54020000 		.4byte	.LLST12
 5842 06f0 1C       		.uleb128 0x1c
 5843 06f1 6900     		.ascii	"i\000"
 5844 06f3 01       		.byte	0x1
 5845 06f4 CD01     		.2byte	0x1cd
 5846 06f6 5D000000 		.4byte	0x5d
 5847 06fa 80020000 		.4byte	.LLST13
 5848 06fe 1D       		.uleb128 0x1d
ARM GAS  C:\Users\BG1026~1\AppData\Local\Temp\cc2n2B4u.s 			page 142


 5849 06ff 1A000000 		.4byte	.LVL64
 5850 0703 E8230000 		.4byte	0x23e8
 5851 0707 1E       		.uleb128 0x1e
 5852 0708 01       		.uleb128 0x1
 5853 0709 51       		.byte	0x51
 5854 070a 10       		.uleb128 0x10
 5855 070b 75       		.byte	0x75
 5856 070c 00       		.sleb128 0
 5857 070d 31       		.byte	0x31
 5858 070e 24       		.byte	0x24
 5859 070f 75       		.byte	0x75
 5860 0710 00       		.sleb128 0
 5861 0711 22       		.byte	0x22
 5862 0712 32       		.byte	0x32
 5863 0713 24       		.byte	0x24
 5864 0714 03       		.byte	0x3
 5865 0715 30010000 		.4byte	.LANCHOR2+36
 5866 0719 22       		.byte	0x22
 5867 071a 06       		.byte	0x6
 5868 071b 1E       		.uleb128 0x1e
 5869 071c 01       		.uleb128 0x1
 5870 071d 50       		.byte	0x50
 5871 071e 02       		.uleb128 0x2
 5872 071f 74       		.byte	0x74
 5873 0720 00       		.sleb128 0
 5874 0721 00       		.byte	0
 5875 0722 00       		.byte	0
 5876 0723 1A       		.uleb128 0x1a
 5877 0724 7F0B0000 		.4byte	.LASF130
 5878 0728 01       		.byte	0x1
 5879 0729 DA01     		.2byte	0x1da
 5880 072b A1020000 		.4byte	0x2a1
 5881 072f 00000000 		.4byte	.LFB42
 5882 0733 3C000000 		.4byte	.LFE42-.LFB42
 5883 0737 01       		.uleb128 0x1
 5884 0738 9C       		.byte	0x9c
 5885 0739 80070000 		.4byte	0x780
 5886 073d 1B       		.uleb128 0x1b
 5887 073e 13000000 		.4byte	.LASF126
 5888 0742 01       		.byte	0x1
 5889 0743 DA01     		.2byte	0x1da
 5890 0745 DD000000 		.4byte	0xdd
 5891 0749 AA020000 		.4byte	.LLST14
 5892 074d 1C       		.uleb128 0x1c
 5893 074e 6900     		.ascii	"i\000"
 5894 0750 01       		.byte	0x1
 5895 0751 DC01     		.2byte	0x1dc
 5896 0753 5D000000 		.4byte	0x5d
 5897 0757 D6020000 		.4byte	.LLST15
 5898 075b 1D       		.uleb128 0x1d
 5899 075c 1A000000 		.4byte	.LVL73
 5900 0760 E8230000 		.4byte	0x23e8
 5901 0764 1E       		.uleb128 0x1e
 5902 0765 01       		.uleb128 0x1
 5903 0766 51       		.byte	0x51
 5904 0767 10       		.uleb128 0x10
 5905 0768 75       		.byte	0x75
ARM GAS  C:\Users\BG1026~1\AppData\Local\Temp\cc2n2B4u.s 			page 143


 5906 0769 00       		.sleb128 0
 5907 076a 31       		.byte	0x31
 5908 076b 24       		.byte	0x24
 5909 076c 75       		.byte	0x75
 5910 076d 00       		.sleb128 0
 5911 076e 22       		.byte	0x22
 5912 076f 32       		.byte	0x32
 5913 0770 24       		.byte	0x24
 5914 0771 03       		.byte	0x3
 5915 0772 98010000 		.4byte	.LANCHOR3+12
 5916 0776 22       		.byte	0x22
 5917 0777 06       		.byte	0x6
 5918 0778 1E       		.uleb128 0x1e
 5919 0779 01       		.uleb128 0x1
 5920 077a 50       		.byte	0x50
 5921 077b 02       		.uleb128 0x2
 5922 077c 74       		.byte	0x74
 5923 077d 00       		.sleb128 0
 5924 077e 00       		.byte	0
 5925 077f 00       		.byte	0
 5926 0780 1F       		.uleb128 0x1f
 5927 0781 52040000 		.4byte	.LASF132
 5928 0785 01       		.byte	0x1
 5929 0786 D903     		.2byte	0x3d9
 5930 0788 00000000 		.4byte	.LFB47
 5931 078c 08000000 		.4byte	.LFE47-.LFB47
 5932 0790 01       		.uleb128 0x1
 5933 0791 9C       		.byte	0x9c
 5934 0792 B8070000 		.4byte	0x7b8
 5935 0796 1B       		.uleb128 0x1b
 5936 0797 67060000 		.4byte	.LASF131
 5937 079b 01       		.byte	0x1
 5938 079c D903     		.2byte	0x3d9
 5939 079e DD000000 		.4byte	0xdd
 5940 07a2 00030000 		.4byte	.LLST16
 5941 07a6 1D       		.uleb128 0x1d
 5942 07a7 06000000 		.4byte	.LVL80
 5943 07ab 02240000 		.4byte	0x2402
 5944 07af 1E       		.uleb128 0x1e
 5945 07b0 01       		.uleb128 0x1
 5946 07b1 50       		.byte	0x50
 5947 07b2 03       		.uleb128 0x3
 5948 07b3 F3       		.byte	0xf3
 5949 07b4 01       		.uleb128 0x1
 5950 07b5 50       		.byte	0x50
 5951 07b6 00       		.byte	0
 5952 07b7 00       		.byte	0
 5953 07b8 1F       		.uleb128 0x1f
 5954 07b9 D00C0000 		.4byte	.LASF133
 5955 07bd 01       		.byte	0x1
 5956 07be A803     		.2byte	0x3a8
 5957 07c0 00000000 		.4byte	.LFB44
 5958 07c4 B0000000 		.4byte	.LFE44-.LFB44
 5959 07c8 01       		.uleb128 0x1
 5960 07c9 9C       		.byte	0x9c
 5961 07ca 35090000 		.4byte	0x935
 5962 07ce 1B       		.uleb128 0x1b
ARM GAS  C:\Users\BG1026~1\AppData\Local\Temp\cc2n2B4u.s 			page 144


 5963 07cf 09030000 		.4byte	.LASF134
 5964 07d3 01       		.byte	0x1
 5965 07d4 A803     		.2byte	0x3a8
 5966 07d6 BD010000 		.4byte	0x1bd
 5967 07da 21030000 		.4byte	.LLST17
 5968 07de 1B       		.uleb128 0x1b
 5969 07df 850A0000 		.4byte	.LASF135
 5970 07e3 01       		.byte	0x1
 5971 07e4 A803     		.2byte	0x3a8
 5972 07e6 DD000000 		.4byte	0xdd
 5973 07ea 42030000 		.4byte	.LLST18
 5974 07ee 1B       		.uleb128 0x1b
 5975 07ef D4060000 		.4byte	.LASF87
 5976 07f3 01       		.byte	0x1
 5977 07f4 A803     		.2byte	0x3a8
 5978 07f6 DD000000 		.4byte	0xdd
 5979 07fa 6E030000 		.4byte	.LLST19
 5980 07fe 20       		.uleb128 0x20
 5981 07ff 67060000 		.4byte	.LASF131
 5982 0803 01       		.byte	0x1
 5983 0804 AA03     		.2byte	0x3aa
 5984 0806 35090000 		.4byte	0x935
 5985 080a 03       		.uleb128 0x3
 5986 080b 91       		.byte	0x91
 5987 080c E87D     		.sleb128 -280
 5988 080e 20       		.uleb128 0x20
 5989 080f DD080000 		.4byte	.LASF136
 5990 0813 01       		.byte	0x1
 5991 0814 AB03     		.2byte	0x3ab
 5992 0816 45090000 		.4byte	0x945
 5993 081a 03       		.uleb128 0x3
 5994 081b 91       		.byte	0x91
 5995 081c D47D     		.sleb128 -300
 5996 081e 21       		.uleb128 0x21
 5997 081f 2C000000 		.4byte	.LVL84
 5998 0823 1F240000 		.4byte	0x241f
 5999 0827 3E080000 		.4byte	0x83e
 6000 082b 1E       		.uleb128 0x1e
 6001 082c 01       		.uleb128 0x1
 6002 082d 52       		.byte	0x52
 6003 082e 03       		.uleb128 0x3
 6004 082f 0A       		.byte	0xa
 6005 0830 0001     		.2byte	0x100
 6006 0832 1E       		.uleb128 0x1e
 6007 0833 01       		.uleb128 0x1
 6008 0834 51       		.byte	0x51
 6009 0835 01       		.uleb128 0x1
 6010 0836 30       		.byte	0x30
 6011 0837 1E       		.uleb128 0x1e
 6012 0838 01       		.uleb128 0x1
 6013 0839 50       		.byte	0x50
 6014 083a 02       		.uleb128 0x2
 6015 083b 74       		.byte	0x74
 6016 083c 00       		.sleb128 0
 6017 083d 00       		.byte	0
 6018 083e 21       		.uleb128 0x21
 6019 083f 4E000000 		.4byte	.LVL85
ARM GAS  C:\Users\BG1026~1\AppData\Local\Temp\cc2n2B4u.s 			page 145


 6020 0843 3C240000 		.4byte	0x243c
 6021 0847 5E080000 		.4byte	0x85e
 6022 084b 1E       		.uleb128 0x1e
 6023 084c 01       		.uleb128 0x1
 6024 084d 51       		.byte	0x51
 6025 084e 08       		.uleb128 0x8
 6026 084f 78       		.byte	0x78
 6027 0850 00       		.sleb128 0
 6028 0851 32       		.byte	0x32
 6029 0852 24       		.byte	0x24
 6030 0853 77       		.byte	0x77
 6031 0854 00       		.sleb128 0
 6032 0855 22       		.byte	0x22
 6033 0856 06       		.byte	0x6
 6034 0857 1E       		.uleb128 0x1e
 6035 0858 01       		.uleb128 0x1
 6036 0859 50       		.byte	0x50
 6037 085a 02       		.uleb128 0x2
 6038 085b 74       		.byte	0x74
 6039 085c 00       		.sleb128 0
 6040 085d 00       		.byte	0
 6041 085e 21       		.uleb128 0x21
 6042 085f 54000000 		.4byte	.LVL86
 6043 0863 56240000 		.4byte	0x2456
 6044 0867 72080000 		.4byte	0x872
 6045 086b 1E       		.uleb128 0x1e
 6046 086c 01       		.uleb128 0x1
 6047 086d 50       		.byte	0x50
 6048 086e 02       		.uleb128 0x2
 6049 086f 74       		.byte	0x74
 6050 0870 00       		.sleb128 0
 6051 0871 00       		.byte	0
 6052 0872 21       		.uleb128 0x21
 6053 0873 5E000000 		.4byte	.LVL87
 6054 0877 6F240000 		.4byte	0x246f
 6055 087b 8E080000 		.4byte	0x88e
 6056 087f 1E       		.uleb128 0x1e
 6057 0880 01       		.uleb128 0x1
 6058 0881 52       		.byte	0x52
 6059 0882 01       		.uleb128 0x1
 6060 0883 3E       		.byte	0x3e
 6061 0884 1E       		.uleb128 0x1e
 6062 0885 01       		.uleb128 0x1
 6063 0886 51       		.byte	0x51
 6064 0887 05       		.uleb128 0x5
 6065 0888 03       		.byte	0x3
 6066 0889 1C000000 		.4byte	.LC17
 6067 088d 00       		.byte	0
 6068 088e 21       		.uleb128 0x21
 6069 088f 66000000 		.4byte	.LVL88
 6070 0893 3C240000 		.4byte	0x243c
 6071 0897 A8080000 		.4byte	0x8a8
 6072 089b 1E       		.uleb128 0x1e
 6073 089c 01       		.uleb128 0x1
 6074 089d 51       		.byte	0x51
 6075 089e 02       		.uleb128 0x2
 6076 089f 76       		.byte	0x76
ARM GAS  C:\Users\BG1026~1\AppData\Local\Temp\cc2n2B4u.s 			page 146


 6077 08a0 00       		.sleb128 0
 6078 08a1 1E       		.uleb128 0x1e
 6079 08a2 01       		.uleb128 0x1
 6080 08a3 50       		.byte	0x50
 6081 08a4 02       		.uleb128 0x2
 6082 08a5 74       		.byte	0x74
 6083 08a6 00       		.sleb128 0
 6084 08a7 00       		.byte	0
 6085 08a8 21       		.uleb128 0x21
 6086 08a9 6C000000 		.4byte	.LVL89
 6087 08ad 56240000 		.4byte	0x2456
 6088 08b1 BC080000 		.4byte	0x8bc
 6089 08b5 1E       		.uleb128 0x1e
 6090 08b6 01       		.uleb128 0x1
 6091 08b7 50       		.byte	0x50
 6092 08b8 02       		.uleb128 0x2
 6093 08b9 74       		.byte	0x74
 6094 08ba 00       		.sleb128 0
 6095 08bb 00       		.byte	0
 6096 08bc 21       		.uleb128 0x21
 6097 08bd 76000000 		.4byte	.LVL90
 6098 08c1 6F240000 		.4byte	0x246f
 6099 08c5 D8080000 		.4byte	0x8d8
 6100 08c9 1E       		.uleb128 0x1e
 6101 08ca 01       		.uleb128 0x1
 6102 08cb 52       		.byte	0x52
 6103 08cc 01       		.uleb128 0x1
 6104 08cd 43       		.byte	0x43
 6105 08ce 1E       		.uleb128 0x1e
 6106 08cf 01       		.uleb128 0x1
 6107 08d0 51       		.byte	0x51
 6108 08d1 05       		.uleb128 0x5
 6109 08d2 03       		.byte	0x3
 6110 08d3 2C000000 		.4byte	.LC19
 6111 08d7 00       		.byte	0
 6112 08d8 21       		.uleb128 0x21
 6113 08d9 7E000000 		.4byte	.LVL91
 6114 08dd 3C240000 		.4byte	0x243c
 6115 08e1 F4080000 		.4byte	0x8f4
 6116 08e5 1E       		.uleb128 0x1e
 6117 08e6 01       		.uleb128 0x1
 6118 08e7 51       		.byte	0x51
 6119 08e8 04       		.uleb128 0x4
 6120 08e9 91       		.byte	0x91
 6121 08ea CC7D     		.sleb128 -308
 6122 08ec 06       		.byte	0x6
 6123 08ed 1E       		.uleb128 0x1e
 6124 08ee 01       		.uleb128 0x1
 6125 08ef 50       		.byte	0x50
 6126 08f0 02       		.uleb128 0x2
 6127 08f1 74       		.byte	0x74
 6128 08f2 00       		.sleb128 0
 6129 08f3 00       		.byte	0
 6130 08f4 21       		.uleb128 0x21
 6131 08f5 84000000 		.4byte	.LVL92
 6132 08f9 56240000 		.4byte	0x2456
 6133 08fd 08090000 		.4byte	0x908
ARM GAS  C:\Users\BG1026~1\AppData\Local\Temp\cc2n2B4u.s 			page 147


 6134 0901 1E       		.uleb128 0x1e
 6135 0902 01       		.uleb128 0x1
 6136 0903 50       		.byte	0x50
 6137 0904 02       		.uleb128 0x2
 6138 0905 74       		.byte	0x74
 6139 0906 00       		.sleb128 0
 6140 0907 00       		.byte	0
 6141 0908 21       		.uleb128 0x21
 6142 0909 8E000000 		.4byte	.LVL93
 6143 090d 6F240000 		.4byte	0x246f
 6144 0911 24090000 		.4byte	0x924
 6145 0915 1E       		.uleb128 0x1e
 6146 0916 01       		.uleb128 0x1
 6147 0917 52       		.byte	0x52
 6148 0918 01       		.uleb128 0x1
 6149 0919 33       		.byte	0x33
 6150 091a 1E       		.uleb128 0x1e
 6151 091b 01       		.uleb128 0x1
 6152 091c 51       		.byte	0x51
 6153 091d 05       		.uleb128 0x5
 6154 091e 03       		.byte	0x3
 6155 091f 40000000 		.4byte	.LC21
 6156 0923 00       		.byte	0
 6157 0924 1D       		.uleb128 0x1d
 6158 0925 94000000 		.4byte	.LVL94
 6159 0929 80070000 		.4byte	0x780
 6160 092d 1E       		.uleb128 0x1e
 6161 092e 01       		.uleb128 0x1
 6162 092f 50       		.byte	0x50
 6163 0930 02       		.uleb128 0x2
 6164 0931 74       		.byte	0x74
 6165 0932 00       		.sleb128 0
 6166 0933 00       		.byte	0
 6167 0934 00       		.byte	0
 6168 0935 15       		.uleb128 0x15
 6169 0936 A9000000 		.4byte	0xa9
 6170 093a 45090000 		.4byte	0x945
 6171 093e 16       		.uleb128 0x16
 6172 093f CE000000 		.4byte	0xce
 6173 0943 FF       		.byte	0xff
 6174 0944 00       		.byte	0
 6175 0945 15       		.uleb128 0x15
 6176 0946 DD000000 		.4byte	0xdd
 6177 094a 55090000 		.4byte	0x955
 6178 094e 16       		.uleb128 0x16
 6179 094f CE000000 		.4byte	0xce
 6180 0953 04       		.byte	0x4
 6181 0954 00       		.byte	0
 6182 0955 1F       		.uleb128 0x1f
 6183 0956 73080000 		.4byte	.LASF137
 6184 095a 01       		.byte	0x1
 6185 095b BB03     		.2byte	0x3bb
 6186 095d 00000000 		.4byte	.LFB45
 6187 0961 84000000 		.4byte	.LFE45-.LFB45
 6188 0965 01       		.uleb128 0x1
 6189 0966 9C       		.byte	0x9c
 6190 0967 6E0A0000 		.4byte	0xa6e
ARM GAS  C:\Users\BG1026~1\AppData\Local\Temp\cc2n2B4u.s 			page 148


 6191 096b 1B       		.uleb128 0x1b
 6192 096c CE090000 		.4byte	.LASF138
 6193 0970 01       		.byte	0x1
 6194 0971 BB03     		.2byte	0x3bb
 6195 0973 5D000000 		.4byte	0x5d
 6196 0977 8E030000 		.4byte	.LLST20
 6197 097b 1B       		.uleb128 0x1b
 6198 097c 280A0000 		.4byte	.LASF139
 6199 0980 01       		.byte	0x1
 6200 0981 BB03     		.2byte	0x3bb
 6201 0983 DD000000 		.4byte	0xdd
 6202 0987 BA030000 		.4byte	.LLST21
 6203 098b 20       		.uleb128 0x20
 6204 098c 67060000 		.4byte	.LASF131
 6205 0990 01       		.byte	0x1
 6206 0991 BD03     		.2byte	0x3bd
 6207 0993 35090000 		.4byte	0x935
 6208 0997 03       		.uleb128 0x3
 6209 0998 91       		.byte	0x91
 6210 0999 E87D     		.sleb128 -280
 6211 099b 21       		.uleb128 0x21
 6212 099c 16000000 		.4byte	.LVL99
 6213 09a0 1F240000 		.4byte	0x241f
 6214 09a4 BB090000 		.4byte	0x9bb
 6215 09a8 1E       		.uleb128 0x1e
 6216 09a9 01       		.uleb128 0x1
 6217 09aa 52       		.byte	0x52
 6218 09ab 03       		.uleb128 0x3
 6219 09ac 0A       		.byte	0xa
 6220 09ad 0001     		.2byte	0x100
 6221 09af 1E       		.uleb128 0x1e
 6222 09b0 01       		.uleb128 0x1
 6223 09b1 51       		.byte	0x51
 6224 09b2 01       		.uleb128 0x1
 6225 09b3 30       		.byte	0x30
 6226 09b4 1E       		.uleb128 0x1e
 6227 09b5 01       		.uleb128 0x1
 6228 09b6 50       		.byte	0x50
 6229 09b7 02       		.uleb128 0x2
 6230 09b8 74       		.byte	0x74
 6231 09b9 00       		.sleb128 0
 6232 09ba 00       		.byte	0
 6233 09bb 21       		.uleb128 0x21
 6234 09bc 42000000 		.4byte	.LVL100
 6235 09c0 3C240000 		.4byte	0x243c
 6236 09c4 E3090000 		.4byte	0x9e3
 6237 09c8 1E       		.uleb128 0x1e
 6238 09c9 01       		.uleb128 0x1
 6239 09ca 51       		.byte	0x51
 6240 09cb 10       		.uleb128 0x10
 6241 09cc 76       		.byte	0x76
 6242 09cd 00       		.sleb128 0
 6243 09ce 31       		.byte	0x31
 6244 09cf 24       		.byte	0x24
 6245 09d0 76       		.byte	0x76
 6246 09d1 00       		.sleb128 0
 6247 09d2 22       		.byte	0x22
ARM GAS  C:\Users\BG1026~1\AppData\Local\Temp\cc2n2B4u.s 			page 149


 6248 09d3 32       		.byte	0x32
 6249 09d4 24       		.byte	0x24
 6250 09d5 03       		.byte	0x3
 6251 09d6 30010000 		.4byte	.LANCHOR2+36
 6252 09da 22       		.byte	0x22
 6253 09db 06       		.byte	0x6
 6254 09dc 1E       		.uleb128 0x1e
 6255 09dd 01       		.uleb128 0x1
 6256 09de 50       		.byte	0x50
 6257 09df 02       		.uleb128 0x2
 6258 09e0 74       		.byte	0x74
 6259 09e1 00       		.sleb128 0
 6260 09e2 00       		.byte	0
 6261 09e3 21       		.uleb128 0x21
 6262 09e4 48000000 		.4byte	.LVL101
 6263 09e8 56240000 		.4byte	0x2456
 6264 09ec F7090000 		.4byte	0x9f7
 6265 09f0 1E       		.uleb128 0x1e
 6266 09f1 01       		.uleb128 0x1
 6267 09f2 50       		.byte	0x50
 6268 09f3 02       		.uleb128 0x2
 6269 09f4 74       		.byte	0x74
 6270 09f5 00       		.sleb128 0
 6271 09f6 00       		.byte	0
 6272 09f7 21       		.uleb128 0x21
 6273 09f8 52000000 		.4byte	.LVL102
 6274 09fc 6F240000 		.4byte	0x246f
 6275 0a00 130A0000 		.4byte	0xa13
 6276 0a04 1E       		.uleb128 0x1e
 6277 0a05 01       		.uleb128 0x1
 6278 0a06 52       		.byte	0x52
 6279 0a07 01       		.uleb128 0x1
 6280 0a08 3E       		.byte	0x3e
 6281 0a09 1E       		.uleb128 0x1e
 6282 0a0a 01       		.uleb128 0x1
 6283 0a0b 51       		.byte	0x51
 6284 0a0c 05       		.uleb128 0x5
 6285 0a0d 03       		.byte	0x3
 6286 0a0e 64000000 		.4byte	.LC26
 6287 0a12 00       		.byte	0
 6288 0a13 21       		.uleb128 0x21
 6289 0a14 5A000000 		.4byte	.LVL103
 6290 0a18 3C240000 		.4byte	0x243c
 6291 0a1c 2D0A0000 		.4byte	0xa2d
 6292 0a20 1E       		.uleb128 0x1e
 6293 0a21 01       		.uleb128 0x1
 6294 0a22 51       		.byte	0x51
 6295 0a23 02       		.uleb128 0x2
 6296 0a24 75       		.byte	0x75
 6297 0a25 00       		.sleb128 0
 6298 0a26 1E       		.uleb128 0x1e
 6299 0a27 01       		.uleb128 0x1
 6300 0a28 50       		.byte	0x50
 6301 0a29 02       		.uleb128 0x2
 6302 0a2a 74       		.byte	0x74
 6303 0a2b 00       		.sleb128 0
 6304 0a2c 00       		.byte	0
ARM GAS  C:\Users\BG1026~1\AppData\Local\Temp\cc2n2B4u.s 			page 150


 6305 0a2d 21       		.uleb128 0x21
 6306 0a2e 60000000 		.4byte	.LVL104
 6307 0a32 56240000 		.4byte	0x2456
 6308 0a36 410A0000 		.4byte	0xa41
 6309 0a3a 1E       		.uleb128 0x1e
 6310 0a3b 01       		.uleb128 0x1
 6311 0a3c 50       		.byte	0x50
 6312 0a3d 02       		.uleb128 0x2
 6313 0a3e 74       		.byte	0x74
 6314 0a3f 00       		.sleb128 0
 6315 0a40 00       		.byte	0
 6316 0a41 21       		.uleb128 0x21
 6317 0a42 6A000000 		.4byte	.LVL105
 6318 0a46 6F240000 		.4byte	0x246f
 6319 0a4a 5D0A0000 		.4byte	0xa5d
 6320 0a4e 1E       		.uleb128 0x1e
 6321 0a4f 01       		.uleb128 0x1
 6322 0a50 52       		.byte	0x52
 6323 0a51 01       		.uleb128 0x1
 6324 0a52 33       		.byte	0x33
 6325 0a53 1E       		.uleb128 0x1e
 6326 0a54 01       		.uleb128 0x1
 6327 0a55 51       		.byte	0x51
 6328 0a56 05       		.uleb128 0x5
 6329 0a57 03       		.byte	0x3
 6330 0a58 40000000 		.4byte	.LC21
 6331 0a5c 00       		.byte	0
 6332 0a5d 1D       		.uleb128 0x1d
 6333 0a5e 70000000 		.4byte	.LVL106
 6334 0a62 80070000 		.4byte	0x780
 6335 0a66 1E       		.uleb128 0x1e
 6336 0a67 01       		.uleb128 0x1
 6337 0a68 50       		.byte	0x50
 6338 0a69 02       		.uleb128 0x2
 6339 0a6a 74       		.byte	0x74
 6340 0a6b 00       		.sleb128 0
 6341 0a6c 00       		.byte	0
 6342 0a6d 00       		.byte	0
 6343 0a6e 1F       		.uleb128 0x1f
 6344 0a6f 270C0000 		.4byte	.LASF140
 6345 0a73 01       		.byte	0x1
 6346 0a74 CA03     		.2byte	0x3ca
 6347 0a76 00000000 		.4byte	.LFB46
 6348 0a7a 74000000 		.4byte	.LFE46-.LFB46
 6349 0a7e 01       		.uleb128 0x1
 6350 0a7f 9C       		.byte	0x9c
 6351 0a80 870B0000 		.4byte	0xb87
 6352 0a84 1B       		.uleb128 0x1b
 6353 0a85 F8040000 		.4byte	.LASF141
 6354 0a89 01       		.byte	0x1
 6355 0a8a CA03     		.2byte	0x3ca
 6356 0a8c 5D000000 		.4byte	0x5d
 6357 0a90 E6030000 		.4byte	.LLST22
 6358 0a94 1B       		.uleb128 0x1b
 6359 0a95 280A0000 		.4byte	.LASF139
 6360 0a99 01       		.byte	0x1
 6361 0a9a CA03     		.2byte	0x3ca
ARM GAS  C:\Users\BG1026~1\AppData\Local\Temp\cc2n2B4u.s 			page 151


 6362 0a9c DD000000 		.4byte	0xdd
 6363 0aa0 12040000 		.4byte	.LLST23
 6364 0aa4 20       		.uleb128 0x20
 6365 0aa5 67060000 		.4byte	.LASF131
 6366 0aa9 01       		.byte	0x1
 6367 0aaa CC03     		.2byte	0x3cc
 6368 0aac 35090000 		.4byte	0x935
 6369 0ab0 03       		.uleb128 0x3
 6370 0ab1 91       		.byte	0x91
 6371 0ab2 E87D     		.sleb128 -280
 6372 0ab4 21       		.uleb128 0x21
 6373 0ab5 16000000 		.4byte	.LVL112
 6374 0ab9 1F240000 		.4byte	0x241f
 6375 0abd D40A0000 		.4byte	0xad4
 6376 0ac1 1E       		.uleb128 0x1e
 6377 0ac2 01       		.uleb128 0x1
 6378 0ac3 52       		.byte	0x52
 6379 0ac4 03       		.uleb128 0x3
 6380 0ac5 0A       		.byte	0xa
 6381 0ac6 0001     		.2byte	0x100
 6382 0ac8 1E       		.uleb128 0x1e
 6383 0ac9 01       		.uleb128 0x1
 6384 0aca 51       		.byte	0x51
 6385 0acb 01       		.uleb128 0x1
 6386 0acc 30       		.byte	0x30
 6387 0acd 1E       		.uleb128 0x1e
 6388 0ace 01       		.uleb128 0x1
 6389 0acf 50       		.byte	0x50
 6390 0ad0 02       		.uleb128 0x2
 6391 0ad1 74       		.byte	0x74
 6392 0ad2 00       		.sleb128 0
 6393 0ad3 00       		.byte	0
 6394 0ad4 21       		.uleb128 0x21
 6395 0ad5 2E000000 		.4byte	.LVL113
 6396 0ad9 01050000 		.4byte	0x501
 6397 0add E80A0000 		.4byte	0xae8
 6398 0ae1 1E       		.uleb128 0x1e
 6399 0ae2 01       		.uleb128 0x1
 6400 0ae3 50       		.byte	0x50
 6401 0ae4 02       		.uleb128 0x2
 6402 0ae5 76       		.byte	0x76
 6403 0ae6 00       		.sleb128 0
 6404 0ae7 00       		.byte	0
 6405 0ae8 21       		.uleb128 0x21
 6406 0ae9 36000000 		.4byte	.LVL114
 6407 0aed 3C240000 		.4byte	0x243c
 6408 0af1 FC0A0000 		.4byte	0xafc
 6409 0af5 1E       		.uleb128 0x1e
 6410 0af6 01       		.uleb128 0x1
 6411 0af7 50       		.byte	0x50
 6412 0af8 02       		.uleb128 0x2
 6413 0af9 74       		.byte	0x74
 6414 0afa 00       		.sleb128 0
 6415 0afb 00       		.byte	0
 6416 0afc 21       		.uleb128 0x21
 6417 0afd 3C000000 		.4byte	.LVL115
 6418 0b01 56240000 		.4byte	0x2456
ARM GAS  C:\Users\BG1026~1\AppData\Local\Temp\cc2n2B4u.s 			page 152


 6419 0b05 100B0000 		.4byte	0xb10
 6420 0b09 1E       		.uleb128 0x1e
 6421 0b0a 01       		.uleb128 0x1
 6422 0b0b 50       		.byte	0x50
 6423 0b0c 02       		.uleb128 0x2
 6424 0b0d 74       		.byte	0x74
 6425 0b0e 00       		.sleb128 0
 6426 0b0f 00       		.byte	0
 6427 0b10 21       		.uleb128 0x21
 6428 0b11 46000000 		.4byte	.LVL116
 6429 0b15 6F240000 		.4byte	0x246f
 6430 0b19 2C0B0000 		.4byte	0xb2c
 6431 0b1d 1E       		.uleb128 0x1e
 6432 0b1e 01       		.uleb128 0x1
 6433 0b1f 52       		.byte	0x52
 6434 0b20 01       		.uleb128 0x1
 6435 0b21 3D       		.byte	0x3d
 6436 0b22 1E       		.uleb128 0x1e
 6437 0b23 01       		.uleb128 0x1
 6438 0b24 51       		.byte	0x51
 6439 0b25 05       		.uleb128 0x5
 6440 0b26 03       		.byte	0x3
 6441 0b27 90000000 		.4byte	.LC31
 6442 0b2b 00       		.byte	0
 6443 0b2c 21       		.uleb128 0x21
 6444 0b2d 4E000000 		.4byte	.LVL117
 6445 0b31 3C240000 		.4byte	0x243c
 6446 0b35 460B0000 		.4byte	0xb46
 6447 0b39 1E       		.uleb128 0x1e
 6448 0b3a 01       		.uleb128 0x1
 6449 0b3b 51       		.byte	0x51
 6450 0b3c 02       		.uleb128 0x2
 6451 0b3d 75       		.byte	0x75
 6452 0b3e 00       		.sleb128 0
 6453 0b3f 1E       		.uleb128 0x1e
 6454 0b40 01       		.uleb128 0x1
 6455 0b41 50       		.byte	0x50
 6456 0b42 02       		.uleb128 0x2
 6457 0b43 74       		.byte	0x74
 6458 0b44 00       		.sleb128 0
 6459 0b45 00       		.byte	0
 6460 0b46 21       		.uleb128 0x21
 6461 0b47 54000000 		.4byte	.LVL118
 6462 0b4b 56240000 		.4byte	0x2456
 6463 0b4f 5A0B0000 		.4byte	0xb5a
 6464 0b53 1E       		.uleb128 0x1e
 6465 0b54 01       		.uleb128 0x1
 6466 0b55 50       		.byte	0x50
 6467 0b56 02       		.uleb128 0x2
 6468 0b57 74       		.byte	0x74
 6469 0b58 00       		.sleb128 0
 6470 0b59 00       		.byte	0
 6471 0b5a 21       		.uleb128 0x21
 6472 0b5b 5E000000 		.4byte	.LVL119
 6473 0b5f 6F240000 		.4byte	0x246f
 6474 0b63 760B0000 		.4byte	0xb76
 6475 0b67 1E       		.uleb128 0x1e
ARM GAS  C:\Users\BG1026~1\AppData\Local\Temp\cc2n2B4u.s 			page 153


 6476 0b68 01       		.uleb128 0x1
 6477 0b69 52       		.byte	0x52
 6478 0b6a 01       		.uleb128 0x1
 6479 0b6b 33       		.byte	0x33
 6480 0b6c 1E       		.uleb128 0x1e
 6481 0b6d 01       		.uleb128 0x1
 6482 0b6e 51       		.byte	0x51
 6483 0b6f 05       		.uleb128 0x5
 6484 0b70 03       		.byte	0x3
 6485 0b71 40000000 		.4byte	.LC21
 6486 0b75 00       		.byte	0
 6487 0b76 1D       		.uleb128 0x1d
 6488 0b77 64000000 		.4byte	.LVL120
 6489 0b7b 80070000 		.4byte	0x780
 6490 0b7f 1E       		.uleb128 0x1e
 6491 0b80 01       		.uleb128 0x1
 6492 0b81 50       		.byte	0x50
 6493 0b82 02       		.uleb128 0x2
 6494 0b83 74       		.byte	0x74
 6495 0b84 00       		.sleb128 0
 6496 0b85 00       		.byte	0
 6497 0b86 00       		.byte	0
 6498 0b87 1F       		.uleb128 0x1f
 6499 0b88 2E010000 		.4byte	.LASF142
 6500 0b8c 01       		.byte	0x1
 6501 0b8d 4705     		.2byte	0x547
 6502 0b8f 00000000 		.4byte	.LFB61
 6503 0b93 A8010000 		.4byte	.LFE61-.LFB61
 6504 0b97 01       		.uleb128 0x1
 6505 0b98 9C       		.byte	0x9c
 6506 0b99 FF0B0000 		.4byte	0xbff
 6507 0b9d 1B       		.uleb128 0x1b
 6508 0b9e C8050000 		.4byte	.LASF143
 6509 0ba2 01       		.byte	0x1
 6510 0ba3 4705     		.2byte	0x547
 6511 0ba5 E8000000 		.4byte	0xe8
 6512 0ba9 3E040000 		.4byte	.LLST24
 6513 0bad 21       		.uleb128 0x21
 6514 0bae 8E010000 		.4byte	.LVL125
 6515 0bb2 8C240000 		.4byte	0x248c
 6516 0bb6 C90B0000 		.4byte	0xbc9
 6517 0bba 1E       		.uleb128 0x1e
 6518 0bbb 01       		.uleb128 0x1
 6519 0bbc 51       		.byte	0x51
 6520 0bbd 01       		.uleb128 0x1
 6521 0bbe 48       		.byte	0x48
 6522 0bbf 1E       		.uleb128 0x1e
 6523 0bc0 01       		.uleb128 0x1
 6524 0bc1 50       		.byte	0x50
 6525 0bc2 05       		.uleb128 0x5
 6526 0bc3 03       		.byte	0x3
 6527 0bc4 10000000 		.4byte	.LANCHOR0+16
 6528 0bc8 00       		.byte	0
 6529 0bc9 21       		.uleb128 0x21
 6530 0bca 94010000 		.4byte	.LVL126
 6531 0bce AE240000 		.4byte	0x24ae
 6532 0bd2 DC0B0000 		.4byte	0xbdc
ARM GAS  C:\Users\BG1026~1\AppData\Local\Temp\cc2n2B4u.s 			page 154


 6533 0bd6 1E       		.uleb128 0x1e
 6534 0bd7 01       		.uleb128 0x1
 6535 0bd8 50       		.byte	0x50
 6536 0bd9 01       		.uleb128 0x1
 6537 0bda 31       		.byte	0x31
 6538 0bdb 00       		.byte	0
 6539 0bdc 21       		.uleb128 0x21
 6540 0bdd 9A010000 		.4byte	.LVL127
 6541 0be1 BF240000 		.4byte	0x24bf
 6542 0be5 EF0B0000 		.4byte	0xbef
 6543 0be9 1E       		.uleb128 0x1e
 6544 0bea 01       		.uleb128 0x1
 6545 0beb 50       		.byte	0x50
 6546 0bec 01       		.uleb128 0x1
 6547 0bed 31       		.byte	0x31
 6548 0bee 00       		.byte	0
 6549 0bef 1D       		.uleb128 0x1d
 6550 0bf0 A0010000 		.4byte	.LVL128
 6551 0bf4 AE240000 		.4byte	0x24ae
 6552 0bf8 1E       		.uleb128 0x1e
 6553 0bf9 01       		.uleb128 0x1
 6554 0bfa 50       		.byte	0x50
 6555 0bfb 01       		.uleb128 0x1
 6556 0bfc 30       		.byte	0x30
 6557 0bfd 00       		.byte	0
 6558 0bfe 00       		.byte	0
 6559 0bff 1F       		.uleb128 0x1f
 6560 0c00 5E090000 		.4byte	.LASF144
 6561 0c04 01       		.byte	0x1
 6562 0c05 6805     		.2byte	0x568
 6563 0c07 00000000 		.4byte	.LFB62
 6564 0c0b F0010000 		.4byte	.LFE62-.LFB62
 6565 0c0f 01       		.uleb128 0x1
 6566 0c10 9C       		.byte	0x9c
 6567 0c11 A70C0000 		.4byte	0xca7
 6568 0c15 22       		.uleb128 0x22
 6569 0c16 6C656400 		.ascii	"led\000"
 6570 0c1a 01       		.byte	0x1
 6571 0c1b 6805     		.2byte	0x568
 6572 0c1d A9000000 		.4byte	0xa9
 6573 0c21 5F040000 		.4byte	.LLST25
 6574 0c25 1B       		.uleb128 0x1b
 6575 0c26 39030000 		.4byte	.LASF145
 6576 0c2a 01       		.byte	0x1
 6577 0c2b 6805     		.2byte	0x568
 6578 0c2d 77000000 		.4byte	0x77
 6579 0c31 99040000 		.4byte	.LLST26
 6580 0c35 19       		.uleb128 0x19
 6581 0c36 28040000 		.4byte	.LASF146
 6582 0c3a 01       		.byte	0x1
 6583 0c3b 6A05     		.2byte	0x56a
 6584 0c3d 77000000 		.4byte	0x77
 6585 0c41 F9060000 		.4byte	.LLST27
 6586 0c45 19       		.uleb128 0x19
 6587 0c46 A3010000 		.4byte	.LASF147
 6588 0c4a 01       		.byte	0x1
 6589 0c4b 6B05     		.2byte	0x56b
ARM GAS  C:\Users\BG1026~1\AppData\Local\Temp\cc2n2B4u.s 			page 155


 6590 0c4d 77000000 		.4byte	0x77
 6591 0c51 59090000 		.4byte	.LLST28
 6592 0c55 21       		.uleb128 0x21
 6593 0c56 D2010000 		.4byte	.LVL182
 6594 0c5a 8C240000 		.4byte	0x248c
 6595 0c5e 710C0000 		.4byte	0xc71
 6596 0c62 1E       		.uleb128 0x1e
 6597 0c63 01       		.uleb128 0x1
 6598 0c64 51       		.byte	0x51
 6599 0c65 01       		.uleb128 0x1
 6600 0c66 48       		.byte	0x48
 6601 0c67 1E       		.uleb128 0x1e
 6602 0c68 01       		.uleb128 0x1
 6603 0c69 50       		.byte	0x50
 6604 0c6a 05       		.uleb128 0x5
 6605 0c6b 03       		.byte	0x3
 6606 0c6c 10000000 		.4byte	.LANCHOR0+16
 6607 0c70 00       		.byte	0
 6608 0c71 21       		.uleb128 0x21
 6609 0c72 D8010000 		.4byte	.LVL183
 6610 0c76 AE240000 		.4byte	0x24ae
 6611 0c7a 840C0000 		.4byte	0xc84
 6612 0c7e 1E       		.uleb128 0x1e
 6613 0c7f 01       		.uleb128 0x1
 6614 0c80 50       		.byte	0x50
 6615 0c81 01       		.uleb128 0x1
 6616 0c82 31       		.byte	0x31
 6617 0c83 00       		.byte	0
 6618 0c84 21       		.uleb128 0x21
 6619 0c85 DE010000 		.4byte	.LVL184
 6620 0c89 BF240000 		.4byte	0x24bf
 6621 0c8d 970C0000 		.4byte	0xc97
 6622 0c91 1E       		.uleb128 0x1e
 6623 0c92 01       		.uleb128 0x1
 6624 0c93 50       		.byte	0x50
 6625 0c94 01       		.uleb128 0x1
 6626 0c95 31       		.byte	0x31
 6627 0c96 00       		.byte	0
 6628 0c97 1D       		.uleb128 0x1d
 6629 0c98 E4010000 		.4byte	.LVL185
 6630 0c9c AE240000 		.4byte	0x24ae
 6631 0ca0 1E       		.uleb128 0x1e
 6632 0ca1 01       		.uleb128 0x1
 6633 0ca2 50       		.byte	0x50
 6634 0ca3 01       		.uleb128 0x1
 6635 0ca4 30       		.byte	0x30
 6636 0ca5 00       		.byte	0
 6637 0ca6 00       		.byte	0
 6638 0ca7 1F       		.uleb128 0x1f
 6639 0ca8 4E080000 		.4byte	.LASF148
 6640 0cac 01       		.byte	0x1
 6641 0cad E203     		.2byte	0x3e2
 6642 0caf 00000000 		.4byte	.LFB48
 6643 0cb3 3A000000 		.4byte	.LFE48-.LFB48
 6644 0cb7 01       		.uleb128 0x1
 6645 0cb8 9C       		.byte	0x9c
 6646 0cb9 660D0000 		.4byte	0xd66
ARM GAS  C:\Users\BG1026~1\AppData\Local\Temp\cc2n2B4u.s 			page 156


 6647 0cbd 1B       		.uleb128 0x1b
 6648 0cbe F8040000 		.4byte	.LASF141
 6649 0cc2 01       		.byte	0x1
 6650 0cc3 E203     		.2byte	0x3e2
 6651 0cc5 77000000 		.4byte	0x77
 6652 0cc9 6C090000 		.4byte	.LLST29
 6653 0ccd 1B       		.uleb128 0x1b
 6654 0cce 39030000 		.4byte	.LASF145
 6655 0cd2 01       		.byte	0x1
 6656 0cd3 E203     		.2byte	0x3e2
 6657 0cd5 77000000 		.4byte	0x77
 6658 0cd9 8D090000 		.4byte	.LLST30
 6659 0cdd 1B       		.uleb128 0x1b
 6660 0cde 160A0000 		.4byte	.LASF149
 6661 0ce2 01       		.byte	0x1
 6662 0ce3 E203     		.2byte	0x3e2
 6663 0ce5 77000000 		.4byte	0x77
 6664 0ce9 AE090000 		.4byte	.LLST31
 6665 0ced 19       		.uleb128 0x19
 6666 0cee B20B0000 		.4byte	.LASF150
 6667 0cf2 01       		.byte	0x1
 6668 0cf3 E503     		.2byte	0x3e5
 6669 0cf5 77000000 		.4byte	0x77
 6670 0cf9 CF090000 		.4byte	.LLST32
 6671 0cfd 19       		.uleb128 0x19
 6672 0cfe 5D020000 		.4byte	.LASF151
 6673 0d02 01       		.byte	0x1
 6674 0d03 E603     		.2byte	0x3e6
 6675 0d05 77000000 		.4byte	0x77
 6676 0d09 FC090000 		.4byte	.LLST33
 6677 0d0d 1C       		.uleb128 0x1c
 6678 0d0e 6900     		.ascii	"i\000"
 6679 0d10 01       		.byte	0x1
 6680 0d11 E703     		.2byte	0x3e7
 6681 0d13 77000000 		.4byte	0x77
 6682 0d17 0F0A0000 		.4byte	.LLST34
 6683 0d1b 21       		.uleb128 0x21
 6684 0d1c 1A000000 		.4byte	.LVL193
 6685 0d20 FF0B0000 		.4byte	0xbff
 6686 0d24 350D0000 		.4byte	0xd35
 6687 0d28 1E       		.uleb128 0x1e
 6688 0d29 01       		.uleb128 0x1
 6689 0d2a 51       		.byte	0x51
 6690 0d2b 02       		.uleb128 0x2
 6691 0d2c 77       		.byte	0x77
 6692 0d2d 00       		.sleb128 0
 6693 0d2e 1E       		.uleb128 0x1e
 6694 0d2f 01       		.uleb128 0x1
 6695 0d30 50       		.byte	0x50
 6696 0d31 02       		.uleb128 0x2
 6697 0d32 74       		.byte	0x74
 6698 0d33 01       		.sleb128 1
 6699 0d34 00       		.byte	0
 6700 0d35 21       		.uleb128 0x21
 6701 0d36 22000000 		.4byte	.LVL194
 6702 0d3a FF0B0000 		.4byte	0xbff
 6703 0d3e 4F0D0000 		.4byte	0xd4f
ARM GAS  C:\Users\BG1026~1\AppData\Local\Temp\cc2n2B4u.s 			page 157


 6704 0d42 1E       		.uleb128 0x1e
 6705 0d43 01       		.uleb128 0x1
 6706 0d44 51       		.byte	0x51
 6707 0d45 02       		.uleb128 0x2
 6708 0d46 77       		.byte	0x77
 6709 0d47 00       		.sleb128 0
 6710 0d48 1E       		.uleb128 0x1e
 6711 0d49 01       		.uleb128 0x1
 6712 0d4a 50       		.byte	0x50
 6713 0d4b 02       		.uleb128 0x2
 6714 0d4c 76       		.byte	0x76
 6715 0d4d 00       		.sleb128 0
 6716 0d4e 00       		.byte	0
 6717 0d4f 1D       		.uleb128 0x1d
 6718 0d50 30000000 		.4byte	.LVL197
 6719 0d54 FF0B0000 		.4byte	0xbff
 6720 0d58 1E       		.uleb128 0x1e
 6721 0d59 01       		.uleb128 0x1
 6722 0d5a 51       		.byte	0x51
 6723 0d5b 02       		.uleb128 0x2
 6724 0d5c 75       		.byte	0x75
 6725 0d5d 00       		.sleb128 0
 6726 0d5e 1E       		.uleb128 0x1e
 6727 0d5f 01       		.uleb128 0x1
 6728 0d60 50       		.byte	0x50
 6729 0d61 02       		.uleb128 0x2
 6730 0d62 74       		.byte	0x74
 6731 0d63 00       		.sleb128 0
 6732 0d64 00       		.byte	0
 6733 0d65 00       		.byte	0
 6734 0d66 23       		.uleb128 0x23
 6735 0d67 B8060000 		.4byte	.LASF152
 6736 0d6b 01       		.byte	0x1
 6737 0d6c 1504     		.2byte	0x415
 6738 0d6e 00000000 		.4byte	.LFB49
 6739 0d72 88000000 		.4byte	.LFE49-.LFB49
 6740 0d76 01       		.uleb128 0x1
 6741 0d77 9C       		.byte	0x9c
 6742 0d78 2E0E0000 		.4byte	0xe2e
 6743 0d7c 19       		.uleb128 0x19
 6744 0d7d 3F020000 		.4byte	.LASF153
 6745 0d81 01       		.byte	0x1
 6746 0d82 1704     		.2byte	0x417
 6747 0d84 5D000000 		.4byte	0x5d
 6748 0d88 2D0A0000 		.4byte	.LLST35
 6749 0d8c 19       		.uleb128 0x19
 6750 0d8d CE0A0000 		.4byte	.LASF154
 6751 0d91 01       		.byte	0x1
 6752 0d92 1804     		.2byte	0x418
 6753 0d94 77000000 		.4byte	0x77
 6754 0d98 4C0A0000 		.4byte	.LLST36
 6755 0d9c 19       		.uleb128 0x19
 6756 0d9d 160A0000 		.4byte	.LASF149
 6757 0da1 01       		.byte	0x1
 6758 0da2 1904     		.2byte	0x419
 6759 0da4 77000000 		.4byte	0x77
 6760 0da8 5F0A0000 		.4byte	.LLST37
ARM GAS  C:\Users\BG1026~1\AppData\Local\Temp\cc2n2B4u.s 			page 158


 6761 0dac 21       		.uleb128 0x21
 6762 0dad 50000000 		.4byte	.LVL209
 6763 0db1 A70C0000 		.4byte	0xca7
 6764 0db5 C50D0000 		.4byte	0xdc5
 6765 0db9 1E       		.uleb128 0x1e
 6766 0dba 01       		.uleb128 0x1
 6767 0dbb 52       		.byte	0x52
 6768 0dbc 02       		.uleb128 0x2
 6769 0dbd 77       		.byte	0x77
 6770 0dbe 00       		.sleb128 0
 6771 0dbf 1E       		.uleb128 0x1e
 6772 0dc0 01       		.uleb128 0x1
 6773 0dc1 51       		.byte	0x51
 6774 0dc2 01       		.uleb128 0x1
 6775 0dc3 30       		.byte	0x30
 6776 0dc4 00       		.byte	0
 6777 0dc5 21       		.uleb128 0x21
 6778 0dc6 5A000000 		.4byte	.LVL210
 6779 0dca A70C0000 		.4byte	0xca7
 6780 0dce E60D0000 		.4byte	0xde6
 6781 0dd2 1E       		.uleb128 0x1e
 6782 0dd3 01       		.uleb128 0x1
 6783 0dd4 52       		.byte	0x52
 6784 0dd5 02       		.uleb128 0x2
 6785 0dd6 77       		.byte	0x77
 6786 0dd7 00       		.sleb128 0
 6787 0dd8 1E       		.uleb128 0x1e
 6788 0dd9 01       		.uleb128 0x1
 6789 0dda 51       		.byte	0x51
 6790 0ddb 03       		.uleb128 0x3
 6791 0ddc 0A       		.byte	0xa
 6792 0ddd FF0F     		.2byte	0xfff
 6793 0ddf 1E       		.uleb128 0x1e
 6794 0de0 01       		.uleb128 0x1
 6795 0de1 50       		.byte	0x50
 6796 0de2 02       		.uleb128 0x2
 6797 0de3 75       		.byte	0x75
 6798 0de4 00       		.sleb128 0
 6799 0de5 00       		.byte	0
 6800 0de6 21       		.uleb128 0x21
 6801 0de7 64000000 		.4byte	.LVL211
 6802 0deb FF0B0000 		.4byte	0xbff
 6803 0def F90D0000 		.4byte	0xdf9
 6804 0df3 1E       		.uleb128 0x1e
 6805 0df4 01       		.uleb128 0x1
 6806 0df5 51       		.byte	0x51
 6807 0df6 01       		.uleb128 0x1
 6808 0df7 30       		.byte	0x30
 6809 0df8 00       		.byte	0
 6810 0df9 21       		.uleb128 0x21
 6811 0dfa 6C000000 		.4byte	.LVL212
 6812 0dfe FF0B0000 		.4byte	0xbff
 6813 0e02 140E0000 		.4byte	0xe14
 6814 0e06 1E       		.uleb128 0x1e
 6815 0e07 01       		.uleb128 0x1
 6816 0e08 51       		.byte	0x51
 6817 0e09 03       		.uleb128 0x3
ARM GAS  C:\Users\BG1026~1\AppData\Local\Temp\cc2n2B4u.s 			page 159


 6818 0e0a 0A       		.byte	0xa
 6819 0e0b FF0F     		.2byte	0xfff
 6820 0e0d 1E       		.uleb128 0x1e
 6821 0e0e 01       		.uleb128 0x1
 6822 0e0f 50       		.byte	0x50
 6823 0e10 02       		.uleb128 0x2
 6824 0e11 75       		.byte	0x75
 6825 0e12 00       		.sleb128 0
 6826 0e13 00       		.byte	0
 6827 0e14 1D       		.uleb128 0x1d
 6828 0e15 78000000 		.4byte	.LVL213
 6829 0e19 6E0A0000 		.4byte	0xa6e
 6830 0e1d 1E       		.uleb128 0x1e
 6831 0e1e 01       		.uleb128 0x1
 6832 0e1f 51       		.byte	0x51
 6833 0e20 05       		.uleb128 0x5
 6834 0e21 03       		.byte	0x3
 6835 0e22 A0000000 		.4byte	.LC39
 6836 0e26 1E       		.uleb128 0x1e
 6837 0e27 01       		.uleb128 0x1
 6838 0e28 50       		.byte	0x50
 6839 0e29 02       		.uleb128 0x2
 6840 0e2a 75       		.byte	0x75
 6841 0e2b 00       		.sleb128 0
 6842 0e2c 00       		.byte	0
 6843 0e2d 00       		.byte	0
 6844 0e2e 1F       		.uleb128 0x1f
 6845 0e2f F10C0000 		.4byte	.LASF155
 6846 0e33 01       		.byte	0x1
 6847 0e34 3504     		.2byte	0x435
 6848 0e36 00000000 		.4byte	.LFB50
 6849 0e3a 10010000 		.4byte	.LFE50-.LFB50
 6850 0e3e 01       		.uleb128 0x1
 6851 0e3f 9C       		.byte	0x9c
 6852 0e40 230F0000 		.4byte	0xf23
 6853 0e44 24       		.uleb128 0x24
 6854 0e45 72656400 		.ascii	"red\000"
 6855 0e49 01       		.byte	0x1
 6856 0e4a 3704     		.2byte	0x437
 6857 0e4c 77000000 		.4byte	0x77
 6858 0e50 05       		.uleb128 0x5
 6859 0e51 03       		.byte	0x3
 6860 0e52 40000000 		.4byte	red.6156
 6861 0e56 20       		.uleb128 0x20
 6862 0e57 5D080000 		.4byte	.LASF19
 6863 0e5b 01       		.byte	0x1
 6864 0e5c 3804     		.2byte	0x438
 6865 0e5e 77000000 		.4byte	0x77
 6866 0e62 05       		.uleb128 0x5
 6867 0e63 03       		.byte	0x3
 6868 0e64 42000000 		.4byte	green.6157
 6869 0e68 20       		.uleb128 0x20
 6870 0e69 230A0000 		.4byte	.LASF20
 6871 0e6d 01       		.byte	0x1
 6872 0e6e 3904     		.2byte	0x439
 6873 0e70 77000000 		.4byte	0x77
 6874 0e74 05       		.uleb128 0x5
ARM GAS  C:\Users\BG1026~1\AppData\Local\Temp\cc2n2B4u.s 			page 160


 6875 0e75 03       		.byte	0x3
 6876 0e76 44000000 		.4byte	blue.6158
 6877 0e7a 20       		.uleb128 0x20
 6878 0e7b B60C0000 		.4byte	.LASF156
 6879 0e7f 01       		.byte	0x1
 6880 0e80 3A04     		.2byte	0x43a
 6881 0e82 6B000000 		.4byte	0x6b
 6882 0e86 05       		.uleb128 0x5
 6883 0e87 03       		.byte	0x3
 6884 0e88 09000000 		.4byte	intensity_up.6159
 6885 0e8c 25       		.uleb128 0x25
 6886 0e8d D0050000 		.4byte	.LASF157
 6887 0e91 01       		.byte	0x1
 6888 0e92 3B04     		.2byte	0x43b
 6889 0e94 77000000 		.4byte	0x77
 6890 0e98 40       		.byte	0x40
 6891 0e99 25       		.uleb128 0x25
 6892 0e9a AF030000 		.4byte	.LASF158
 6893 0e9e 01       		.byte	0x1
 6894 0e9f 3C04     		.2byte	0x43c
 6895 0ea1 77000000 		.4byte	0x77
 6896 0ea5 80       		.byte	0x80
 6897 0ea6 26       		.uleb128 0x26
 6898 0ea7 46090000 		.4byte	.LASF159
 6899 0eab 01       		.byte	0x1
 6900 0eac 3D04     		.2byte	0x43d
 6901 0eae 77000000 		.4byte	0x77
 6902 0eb2 0001     		.2byte	0x100
 6903 0eb4 21       		.uleb128 0x21
 6904 0eb5 0E000000 		.4byte	.LVL217
 6905 0eb9 FF0B0000 		.4byte	0xbff
 6906 0ebd C70E0000 		.4byte	0xec7
 6907 0ec1 1E       		.uleb128 0x1e
 6908 0ec2 01       		.uleb128 0x1
 6909 0ec3 50       		.byte	0x50
 6910 0ec4 01       		.uleb128 0x1
 6911 0ec5 45       		.byte	0x45
 6912 0ec6 00       		.byte	0
 6913 0ec7 21       		.uleb128 0x21
 6914 0ec8 18000000 		.4byte	.LVL218
 6915 0ecc FF0B0000 		.4byte	0xbff
 6916 0ed0 DA0E0000 		.4byte	0xeda
 6917 0ed4 1E       		.uleb128 0x1e
 6918 0ed5 01       		.uleb128 0x1
 6919 0ed6 50       		.byte	0x50
 6920 0ed7 01       		.uleb128 0x1
 6921 0ed8 46       		.byte	0x46
 6922 0ed9 00       		.byte	0
 6923 0eda 21       		.uleb128 0x21
 6924 0edb 22000000 		.4byte	.LVL219
 6925 0edf FF0B0000 		.4byte	0xbff
 6926 0ee3 ED0E0000 		.4byte	0xeed
 6927 0ee7 1E       		.uleb128 0x1e
 6928 0ee8 01       		.uleb128 0x1
 6929 0ee9 50       		.byte	0x50
 6930 0eea 01       		.uleb128 0x1
 6931 0eeb 47       		.byte	0x47
ARM GAS  C:\Users\BG1026~1\AppData\Local\Temp\cc2n2B4u.s 			page 161


 6932 0eec 00       		.byte	0
 6933 0eed 21       		.uleb128 0x21
 6934 0eee 2E000000 		.4byte	.LVL220
 6935 0ef2 FF0B0000 		.4byte	0xbff
 6936 0ef6 000F0000 		.4byte	0xf00
 6937 0efa 1E       		.uleb128 0x1e
 6938 0efb 01       		.uleb128 0x1
 6939 0efc 50       		.byte	0x50
 6940 0efd 01       		.uleb128 0x1
 6941 0efe 42       		.byte	0x42
 6942 0eff 00       		.byte	0
 6943 0f00 21       		.uleb128 0x21
 6944 0f01 3A000000 		.4byte	.LVL221
 6945 0f05 FF0B0000 		.4byte	0xbff
 6946 0f09 130F0000 		.4byte	0xf13
 6947 0f0d 1E       		.uleb128 0x1e
 6948 0f0e 01       		.uleb128 0x1
 6949 0f0f 50       		.byte	0x50
 6950 0f10 01       		.uleb128 0x1
 6951 0f11 43       		.byte	0x43
 6952 0f12 00       		.byte	0
 6953 0f13 1D       		.uleb128 0x1d
 6954 0f14 46000000 		.4byte	.LVL222
 6955 0f18 FF0B0000 		.4byte	0xbff
 6956 0f1c 1E       		.uleb128 0x1e
 6957 0f1d 01       		.uleb128 0x1
 6958 0f1e 50       		.byte	0x50
 6959 0f1f 01       		.uleb128 0x1
 6960 0f20 44       		.byte	0x44
 6961 0f21 00       		.byte	0
 6962 0f22 00       		.byte	0
 6963 0f23 1F       		.uleb128 0x1f
 6964 0f24 E60A0000 		.4byte	.LASF160
 6965 0f28 01       		.byte	0x1
 6966 0f29 7404     		.2byte	0x474
 6967 0f2b 00000000 		.4byte	.LFB51
 6968 0f2f 2C000000 		.4byte	.LFE51-.LFB51
 6969 0f33 01       		.uleb128 0x1
 6970 0f34 9C       		.byte	0x9c
 6971 0f35 9A0F0000 		.4byte	0xf9a
 6972 0f39 21       		.uleb128 0x21
 6973 0f3a 0C000000 		.4byte	.LVL223
 6974 0f3e FF0B0000 		.4byte	0xbff
 6975 0f42 520F0000 		.4byte	0xf52
 6976 0f46 1E       		.uleb128 0x1e
 6977 0f47 01       		.uleb128 0x1
 6978 0f48 51       		.byte	0x51
 6979 0f49 02       		.uleb128 0x2
 6980 0f4a 74       		.byte	0x74
 6981 0f4b 00       		.sleb128 0
 6982 0f4c 1E       		.uleb128 0x1e
 6983 0f4d 01       		.uleb128 0x1
 6984 0f4e 50       		.byte	0x50
 6985 0f4f 01       		.uleb128 0x1
 6986 0f50 36       		.byte	0x36
 6987 0f51 00       		.byte	0
 6988 0f52 21       		.uleb128 0x21
ARM GAS  C:\Users\BG1026~1\AppData\Local\Temp\cc2n2B4u.s 			page 162


 6989 0f53 14000000 		.4byte	.LVL224
 6990 0f57 FF0B0000 		.4byte	0xbff
 6991 0f5b 6B0F0000 		.4byte	0xf6b
 6992 0f5f 1E       		.uleb128 0x1e
 6993 0f60 01       		.uleb128 0x1
 6994 0f61 51       		.byte	0x51
 6995 0f62 02       		.uleb128 0x2
 6996 0f63 74       		.byte	0x74
 6997 0f64 00       		.sleb128 0
 6998 0f65 1E       		.uleb128 0x1e
 6999 0f66 01       		.uleb128 0x1
 7000 0f67 50       		.byte	0x50
 7001 0f68 01       		.uleb128 0x1
 7002 0f69 37       		.byte	0x37
 7003 0f6a 00       		.byte	0
 7004 0f6b 21       		.uleb128 0x21
 7005 0f6c 1C000000 		.4byte	.LVL225
 7006 0f70 FF0B0000 		.4byte	0xbff
 7007 0f74 840F0000 		.4byte	0xf84
 7008 0f78 1E       		.uleb128 0x1e
 7009 0f79 01       		.uleb128 0x1
 7010 0f7a 51       		.byte	0x51
 7011 0f7b 02       		.uleb128 0x2
 7012 0f7c 74       		.byte	0x74
 7013 0f7d 00       		.sleb128 0
 7014 0f7e 1E       		.uleb128 0x1e
 7015 0f7f 01       		.uleb128 0x1
 7016 0f80 50       		.byte	0x50
 7017 0f81 01       		.uleb128 0x1
 7018 0f82 38       		.byte	0x38
 7019 0f83 00       		.byte	0
 7020 0f84 1D       		.uleb128 0x1d
 7021 0f85 24000000 		.4byte	.LVL226
 7022 0f89 FF0B0000 		.4byte	0xbff
 7023 0f8d 1E       		.uleb128 0x1e
 7024 0f8e 01       		.uleb128 0x1
 7025 0f8f 51       		.byte	0x51
 7026 0f90 02       		.uleb128 0x2
 7027 0f91 74       		.byte	0x74
 7028 0f92 00       		.sleb128 0
 7029 0f93 1E       		.uleb128 0x1e
 7030 0f94 01       		.uleb128 0x1
 7031 0f95 50       		.byte	0x50
 7032 0f96 01       		.uleb128 0x1
 7033 0f97 39       		.byte	0x39
 7034 0f98 00       		.byte	0
 7035 0f99 00       		.byte	0
 7036 0f9a 1F       		.uleb128 0x1f
 7037 0f9b 54030000 		.4byte	.LASF161
 7038 0f9f 01       		.byte	0x1
 7039 0fa0 7C04     		.2byte	0x47c
 7040 0fa2 00000000 		.4byte	.LFB52
 7041 0fa6 10000000 		.4byte	.LFE52-.LFB52
 7042 0faa 01       		.uleb128 0x1
 7043 0fab 9C       		.byte	0x9c
 7044 0fac C70F0000 		.4byte	0xfc7
 7045 0fb0 1D       		.uleb128 0x1d
ARM GAS  C:\Users\BG1026~1\AppData\Local\Temp\cc2n2B4u.s 			page 163


 7046 0fb1 0A000000 		.4byte	.LVL227
 7047 0fb5 FF0B0000 		.4byte	0xbff
 7048 0fb9 1E       		.uleb128 0x1e
 7049 0fba 01       		.uleb128 0x1
 7050 0fbb 51       		.byte	0x51
 7051 0fbc 03       		.uleb128 0x3
 7052 0fbd 0A       		.byte	0xa
 7053 0fbe FF0F     		.2byte	0xfff
 7054 0fc0 1E       		.uleb128 0x1e
 7055 0fc1 01       		.uleb128 0x1
 7056 0fc2 50       		.byte	0x50
 7057 0fc3 01       		.uleb128 0x1
 7058 0fc4 3E       		.byte	0x3e
 7059 0fc5 00       		.byte	0
 7060 0fc6 00       		.byte	0
 7061 0fc7 1F       		.uleb128 0x1f
 7062 0fc8 2F0A0000 		.4byte	.LASF162
 7063 0fcc 01       		.byte	0x1
 7064 0fcd 8104     		.2byte	0x481
 7065 0fcf 00000000 		.4byte	.LFB53
 7066 0fd3 3C000000 		.4byte	.LFE53-.LFB53
 7067 0fd7 01       		.uleb128 0x1
 7068 0fd8 9C       		.byte	0x9c
 7069 0fd9 6C100000 		.4byte	0x106c
 7070 0fdd 21       		.uleb128 0x21
 7071 0fde 0C000000 		.4byte	.LVL228
 7072 0fe2 FF0B0000 		.4byte	0xbff
 7073 0fe6 F60F0000 		.4byte	0xff6
 7074 0fea 1E       		.uleb128 0x1e
 7075 0feb 01       		.uleb128 0x1
 7076 0fec 51       		.byte	0x51
 7077 0fed 02       		.uleb128 0x2
 7078 0fee 74       		.byte	0x74
 7079 0fef 00       		.sleb128 0
 7080 0ff0 1E       		.uleb128 0x1e
 7081 0ff1 01       		.uleb128 0x1
 7082 0ff2 50       		.byte	0x50
 7083 0ff3 01       		.uleb128 0x1
 7084 0ff4 45       		.byte	0x45
 7085 0ff5 00       		.byte	0
 7086 0ff6 21       		.uleb128 0x21
 7087 0ff7 14000000 		.4byte	.LVL229
 7088 0ffb FF0B0000 		.4byte	0xbff
 7089 0fff 0E100000 		.4byte	0x100e
 7090 1003 1E       		.uleb128 0x1e
 7091 1004 01       		.uleb128 0x1
 7092 1005 51       		.byte	0x51
 7093 1006 01       		.uleb128 0x1
 7094 1007 30       		.byte	0x30
 7095 1008 1E       		.uleb128 0x1e
 7096 1009 01       		.uleb128 0x1
 7097 100a 50       		.byte	0x50
 7098 100b 01       		.uleb128 0x1
 7099 100c 46       		.byte	0x46
 7100 100d 00       		.byte	0
 7101 100e 21       		.uleb128 0x21
 7102 100f 1C000000 		.4byte	.LVL230
ARM GAS  C:\Users\BG1026~1\AppData\Local\Temp\cc2n2B4u.s 			page 164


 7103 1013 FF0B0000 		.4byte	0xbff
 7104 1017 26100000 		.4byte	0x1026
 7105 101b 1E       		.uleb128 0x1e
 7106 101c 01       		.uleb128 0x1
 7107 101d 51       		.byte	0x51
 7108 101e 01       		.uleb128 0x1
 7109 101f 30       		.byte	0x30
 7110 1020 1E       		.uleb128 0x1e
 7111 1021 01       		.uleb128 0x1
 7112 1022 50       		.byte	0x50
 7113 1023 01       		.uleb128 0x1
 7114 1024 47       		.byte	0x47
 7115 1025 00       		.byte	0
 7116 1026 21       		.uleb128 0x21
 7117 1027 24000000 		.4byte	.LVL231
 7118 102b FF0B0000 		.4byte	0xbff
 7119 102f 3F100000 		.4byte	0x103f
 7120 1033 1E       		.uleb128 0x1e
 7121 1034 01       		.uleb128 0x1
 7122 1035 51       		.byte	0x51
 7123 1036 02       		.uleb128 0x2
 7124 1037 74       		.byte	0x74
 7125 1038 00       		.sleb128 0
 7126 1039 1E       		.uleb128 0x1e
 7127 103a 01       		.uleb128 0x1
 7128 103b 50       		.byte	0x50
 7129 103c 01       		.uleb128 0x1
 7130 103d 42       		.byte	0x42
 7131 103e 00       		.byte	0
 7132 103f 21       		.uleb128 0x21
 7133 1040 2C000000 		.4byte	.LVL232
 7134 1044 FF0B0000 		.4byte	0xbff
 7135 1048 57100000 		.4byte	0x1057
 7136 104c 1E       		.uleb128 0x1e
 7137 104d 01       		.uleb128 0x1
 7138 104e 51       		.byte	0x51
 7139 104f 01       		.uleb128 0x1
 7140 1050 30       		.byte	0x30
 7141 1051 1E       		.uleb128 0x1e
 7142 1052 01       		.uleb128 0x1
 7143 1053 50       		.byte	0x50
 7144 1054 01       		.uleb128 0x1
 7145 1055 43       		.byte	0x43
 7146 1056 00       		.byte	0
 7147 1057 1D       		.uleb128 0x1d
 7148 1058 34000000 		.4byte	.LVL233
 7149 105c FF0B0000 		.4byte	0xbff
 7150 1060 1E       		.uleb128 0x1e
 7151 1061 01       		.uleb128 0x1
 7152 1062 51       		.byte	0x51
 7153 1063 01       		.uleb128 0x1
 7154 1064 30       		.byte	0x30
 7155 1065 1E       		.uleb128 0x1e
 7156 1066 01       		.uleb128 0x1
 7157 1067 50       		.byte	0x50
 7158 1068 01       		.uleb128 0x1
 7159 1069 44       		.byte	0x44
ARM GAS  C:\Users\BG1026~1\AppData\Local\Temp\cc2n2B4u.s 			page 165


 7160 106a 00       		.byte	0
 7161 106b 00       		.byte	0
 7162 106c 1F       		.uleb128 0x1f
 7163 106d 67010000 		.4byte	.LASF163
 7164 1071 01       		.byte	0x1
 7165 1072 8F04     		.2byte	0x48f
 7166 1074 00000000 		.4byte	.LFB54
 7167 1078 3C000000 		.4byte	.LFE54-.LFB54
 7168 107c 01       		.uleb128 0x1
 7169 107d 9C       		.byte	0x9c
 7170 107e 11110000 		.4byte	0x1111
 7171 1082 21       		.uleb128 0x21
 7172 1083 0A000000 		.4byte	.LVL234
 7173 1087 FF0B0000 		.4byte	0xbff
 7174 108b 9A100000 		.4byte	0x109a
 7175 108f 1E       		.uleb128 0x1e
 7176 1090 01       		.uleb128 0x1
 7177 1091 51       		.byte	0x51
 7178 1092 01       		.uleb128 0x1
 7179 1093 30       		.byte	0x30
 7180 1094 1E       		.uleb128 0x1e
 7181 1095 01       		.uleb128 0x1
 7182 1096 50       		.byte	0x50
 7183 1097 01       		.uleb128 0x1
 7184 1098 45       		.byte	0x45
 7185 1099 00       		.byte	0
 7186 109a 21       		.uleb128 0x21
 7187 109b 14000000 		.4byte	.LVL235
 7188 109f FF0B0000 		.4byte	0xbff
 7189 10a3 B3100000 		.4byte	0x10b3
 7190 10a7 1E       		.uleb128 0x1e
 7191 10a8 01       		.uleb128 0x1
 7192 10a9 51       		.byte	0x51
 7193 10aa 02       		.uleb128 0x2
 7194 10ab 74       		.byte	0x74
 7195 10ac 00       		.sleb128 0
 7196 10ad 1E       		.uleb128 0x1e
 7197 10ae 01       		.uleb128 0x1
 7198 10af 50       		.byte	0x50
 7199 10b0 01       		.uleb128 0x1
 7200 10b1 46       		.byte	0x46
 7201 10b2 00       		.byte	0
 7202 10b3 21       		.uleb128 0x21
 7203 10b4 1C000000 		.4byte	.LVL236
 7204 10b8 FF0B0000 		.4byte	0xbff
 7205 10bc CB100000 		.4byte	0x10cb
 7206 10c0 1E       		.uleb128 0x1e
 7207 10c1 01       		.uleb128 0x1
 7208 10c2 51       		.byte	0x51
 7209 10c3 01       		.uleb128 0x1
 7210 10c4 30       		.byte	0x30
 7211 10c5 1E       		.uleb128 0x1e
 7212 10c6 01       		.uleb128 0x1
 7213 10c7 50       		.byte	0x50
 7214 10c8 01       		.uleb128 0x1
 7215 10c9 47       		.byte	0x47
 7216 10ca 00       		.byte	0
ARM GAS  C:\Users\BG1026~1\AppData\Local\Temp\cc2n2B4u.s 			page 166


 7217 10cb 21       		.uleb128 0x21
 7218 10cc 24000000 		.4byte	.LVL237
 7219 10d0 FF0B0000 		.4byte	0xbff
 7220 10d4 E3100000 		.4byte	0x10e3
 7221 10d8 1E       		.uleb128 0x1e
 7222 10d9 01       		.uleb128 0x1
 7223 10da 51       		.byte	0x51
 7224 10db 01       		.uleb128 0x1
 7225 10dc 30       		.byte	0x30
 7226 10dd 1E       		.uleb128 0x1e
 7227 10de 01       		.uleb128 0x1
 7228 10df 50       		.byte	0x50
 7229 10e0 01       		.uleb128 0x1
 7230 10e1 42       		.byte	0x42
 7231 10e2 00       		.byte	0
 7232 10e3 21       		.uleb128 0x21
 7233 10e4 2C000000 		.4byte	.LVL238
 7234 10e8 FF0B0000 		.4byte	0xbff
 7235 10ec FC100000 		.4byte	0x10fc
 7236 10f0 1E       		.uleb128 0x1e
 7237 10f1 01       		.uleb128 0x1
 7238 10f2 51       		.byte	0x51
 7239 10f3 02       		.uleb128 0x2
 7240 10f4 74       		.byte	0x74
 7241 10f5 00       		.sleb128 0
 7242 10f6 1E       		.uleb128 0x1e
 7243 10f7 01       		.uleb128 0x1
 7244 10f8 50       		.byte	0x50
 7245 10f9 01       		.uleb128 0x1
 7246 10fa 43       		.byte	0x43
 7247 10fb 00       		.byte	0
 7248 10fc 1D       		.uleb128 0x1d
 7249 10fd 34000000 		.4byte	.LVL239
 7250 1101 FF0B0000 		.4byte	0xbff
 7251 1105 1E       		.uleb128 0x1e
 7252 1106 01       		.uleb128 0x1
 7253 1107 51       		.byte	0x51
 7254 1108 01       		.uleb128 0x1
 7255 1109 30       		.byte	0x30
 7256 110a 1E       		.uleb128 0x1e
 7257 110b 01       		.uleb128 0x1
 7258 110c 50       		.byte	0x50
 7259 110d 01       		.uleb128 0x1
 7260 110e 44       		.byte	0x44
 7261 110f 00       		.byte	0
 7262 1110 00       		.byte	0
 7263 1111 1F       		.uleb128 0x1f
 7264 1112 F0050000 		.4byte	.LASF164
 7265 1116 01       		.byte	0x1
 7266 1117 9D04     		.2byte	0x49d
 7267 1119 00000000 		.4byte	.LFB55
 7268 111d 3C000000 		.4byte	.LFE55-.LFB55
 7269 1121 01       		.uleb128 0x1
 7270 1122 9C       		.byte	0x9c
 7271 1123 B6110000 		.4byte	0x11b6
 7272 1127 21       		.uleb128 0x21
 7273 1128 0A000000 		.4byte	.LVL240
ARM GAS  C:\Users\BG1026~1\AppData\Local\Temp\cc2n2B4u.s 			page 167


 7274 112c FF0B0000 		.4byte	0xbff
 7275 1130 3F110000 		.4byte	0x113f
 7276 1134 1E       		.uleb128 0x1e
 7277 1135 01       		.uleb128 0x1
 7278 1136 51       		.byte	0x51
 7279 1137 01       		.uleb128 0x1
 7280 1138 30       		.byte	0x30
 7281 1139 1E       		.uleb128 0x1e
 7282 113a 01       		.uleb128 0x1
 7283 113b 50       		.byte	0x50
 7284 113c 01       		.uleb128 0x1
 7285 113d 45       		.byte	0x45
 7286 113e 00       		.byte	0
 7287 113f 21       		.uleb128 0x21
 7288 1140 12000000 		.4byte	.LVL241
 7289 1144 FF0B0000 		.4byte	0xbff
 7290 1148 57110000 		.4byte	0x1157
 7291 114c 1E       		.uleb128 0x1e
 7292 114d 01       		.uleb128 0x1
 7293 114e 51       		.byte	0x51
 7294 114f 01       		.uleb128 0x1
 7295 1150 30       		.byte	0x30
 7296 1151 1E       		.uleb128 0x1e
 7297 1152 01       		.uleb128 0x1
 7298 1153 50       		.byte	0x50
 7299 1154 01       		.uleb128 0x1
 7300 1155 46       		.byte	0x46
 7301 1156 00       		.byte	0
 7302 1157 21       		.uleb128 0x21
 7303 1158 1C000000 		.4byte	.LVL242
 7304 115c FF0B0000 		.4byte	0xbff
 7305 1160 70110000 		.4byte	0x1170
 7306 1164 1E       		.uleb128 0x1e
 7307 1165 01       		.uleb128 0x1
 7308 1166 51       		.byte	0x51
 7309 1167 02       		.uleb128 0x2
 7310 1168 74       		.byte	0x74
 7311 1169 00       		.sleb128 0
 7312 116a 1E       		.uleb128 0x1e
 7313 116b 01       		.uleb128 0x1
 7314 116c 50       		.byte	0x50
 7315 116d 01       		.uleb128 0x1
 7316 116e 47       		.byte	0x47
 7317 116f 00       		.byte	0
 7318 1170 21       		.uleb128 0x21
 7319 1171 24000000 		.4byte	.LVL243
 7320 1175 FF0B0000 		.4byte	0xbff
 7321 1179 88110000 		.4byte	0x1188
 7322 117d 1E       		.uleb128 0x1e
 7323 117e 01       		.uleb128 0x1
 7324 117f 51       		.byte	0x51
 7325 1180 01       		.uleb128 0x1
 7326 1181 30       		.byte	0x30
 7327 1182 1E       		.uleb128 0x1e
 7328 1183 01       		.uleb128 0x1
 7329 1184 50       		.byte	0x50
 7330 1185 01       		.uleb128 0x1
ARM GAS  C:\Users\BG1026~1\AppData\Local\Temp\cc2n2B4u.s 			page 168


 7331 1186 42       		.byte	0x42
 7332 1187 00       		.byte	0
 7333 1188 21       		.uleb128 0x21
 7334 1189 2C000000 		.4byte	.LVL244
 7335 118d FF0B0000 		.4byte	0xbff
 7336 1191 A0110000 		.4byte	0x11a0
 7337 1195 1E       		.uleb128 0x1e
 7338 1196 01       		.uleb128 0x1
 7339 1197 51       		.byte	0x51
 7340 1198 01       		.uleb128 0x1
 7341 1199 30       		.byte	0x30
 7342 119a 1E       		.uleb128 0x1e
 7343 119b 01       		.uleb128 0x1
 7344 119c 50       		.byte	0x50
 7345 119d 01       		.uleb128 0x1
 7346 119e 43       		.byte	0x43
 7347 119f 00       		.byte	0
 7348 11a0 1D       		.uleb128 0x1d
 7349 11a1 34000000 		.4byte	.LVL245
 7350 11a5 FF0B0000 		.4byte	0xbff
 7351 11a9 1E       		.uleb128 0x1e
 7352 11aa 01       		.uleb128 0x1
 7353 11ab 51       		.byte	0x51
 7354 11ac 02       		.uleb128 0x2
 7355 11ad 74       		.byte	0x74
 7356 11ae 00       		.sleb128 0
 7357 11af 1E       		.uleb128 0x1e
 7358 11b0 01       		.uleb128 0x1
 7359 11b1 50       		.byte	0x50
 7360 11b2 01       		.uleb128 0x1
 7361 11b3 44       		.byte	0x44
 7362 11b4 00       		.byte	0
 7363 11b5 00       		.byte	0
 7364 11b6 1F       		.uleb128 0x1f
 7365 11b7 A3070000 		.4byte	.LASF165
 7366 11bb 01       		.byte	0x1
 7367 11bc AB04     		.2byte	0x4ab
 7368 11be 00000000 		.4byte	.LFB56
 7369 11c2 98000000 		.4byte	.LFE56-.LFB56
 7370 11c6 01       		.uleb128 0x1
 7371 11c7 9C       		.byte	0x9c
 7372 11c8 7C120000 		.4byte	0x127c
 7373 11cc 1B       		.uleb128 0x1b
 7374 11cd 10040000 		.4byte	.LASF166
 7375 11d1 01       		.byte	0x1
 7376 11d2 AB04     		.2byte	0x4ab
 7377 11d4 50010000 		.4byte	0x150
 7378 11d8 720A0000 		.4byte	.LLST38
 7379 11dc 20       		.uleb128 0x20
 7380 11dd 39030000 		.4byte	.LASF145
 7381 11e1 01       		.byte	0x1
 7382 11e2 AD04     		.2byte	0x4ad
 7383 11e4 77000000 		.4byte	0x77
 7384 11e8 05       		.uleb128 0x5
 7385 11e9 03       		.byte	0x3
 7386 11ea 46000000 		.4byte	intensity.6181
 7387 11ee 20       		.uleb128 0x20
ARM GAS  C:\Users\BG1026~1\AppData\Local\Temp\cc2n2B4u.s 			page 169


 7388 11ef B60C0000 		.4byte	.LASF156
 7389 11f3 01       		.byte	0x1
 7390 11f4 AE04     		.2byte	0x4ae
 7391 11f6 6B000000 		.4byte	0x6b
 7392 11fa 05       		.uleb128 0x5
 7393 11fb 03       		.byte	0x3
 7394 11fc 0A000000 		.4byte	intensity_up.6182
 7395 1200 25       		.uleb128 0x25
 7396 1201 1D050000 		.4byte	.LASF167
 7397 1205 01       		.byte	0x1
 7398 1206 AF04     		.2byte	0x4af
 7399 1208 77000000 		.4byte	0x77
 7400 120c 05       		.byte	0x5
 7401 120d 21       		.uleb128 0x21
 7402 120e 1C000000 		.4byte	.LVL249
 7403 1212 FF0B0000 		.4byte	0xbff
 7404 1216 20120000 		.4byte	0x1220
 7405 121a 1E       		.uleb128 0x1e
 7406 121b 01       		.uleb128 0x1
 7407 121c 50       		.byte	0x50
 7408 121d 01       		.uleb128 0x1
 7409 121e 45       		.byte	0x45
 7410 121f 00       		.byte	0
 7411 1220 21       		.uleb128 0x21
 7412 1221 24000000 		.4byte	.LVL250
 7413 1225 FF0B0000 		.4byte	0xbff
 7414 1229 33120000 		.4byte	0x1233
 7415 122d 1E       		.uleb128 0x1e
 7416 122e 01       		.uleb128 0x1
 7417 122f 50       		.byte	0x50
 7418 1230 01       		.uleb128 0x1
 7419 1231 42       		.byte	0x42
 7420 1232 00       		.byte	0
 7421 1233 21       		.uleb128 0x21
 7422 1234 32000000 		.4byte	.LVL253
 7423 1238 FF0B0000 		.4byte	0xbff
 7424 123c 46120000 		.4byte	0x1246
 7425 1240 1E       		.uleb128 0x1e
 7426 1241 01       		.uleb128 0x1
 7427 1242 50       		.byte	0x50
 7428 1243 01       		.uleb128 0x1
 7429 1244 46       		.byte	0x46
 7430 1245 00       		.byte	0
 7431 1246 21       		.uleb128 0x21
 7432 1247 3A000000 		.4byte	.LVL254
 7433 124b FF0B0000 		.4byte	0xbff
 7434 124f 59120000 		.4byte	0x1259
 7435 1253 1E       		.uleb128 0x1e
 7436 1254 01       		.uleb128 0x1
 7437 1255 50       		.byte	0x50
 7438 1256 01       		.uleb128 0x1
 7439 1257 43       		.byte	0x43
 7440 1258 00       		.byte	0
 7441 1259 21       		.uleb128 0x21
 7442 125a 48000000 		.4byte	.LVL257
 7443 125e FF0B0000 		.4byte	0xbff
 7444 1262 6C120000 		.4byte	0x126c
ARM GAS  C:\Users\BG1026~1\AppData\Local\Temp\cc2n2B4u.s 			page 170


 7445 1266 1E       		.uleb128 0x1e
 7446 1267 01       		.uleb128 0x1
 7447 1268 50       		.byte	0x50
 7448 1269 01       		.uleb128 0x1
 7449 126a 47       		.byte	0x47
 7450 126b 00       		.byte	0
 7451 126c 1D       		.uleb128 0x1d
 7452 126d 50000000 		.4byte	.LVL258
 7453 1271 FF0B0000 		.4byte	0xbff
 7454 1275 1E       		.uleb128 0x1e
 7455 1276 01       		.uleb128 0x1
 7456 1277 50       		.byte	0x50
 7457 1278 01       		.uleb128 0x1
 7458 1279 44       		.byte	0x44
 7459 127a 00       		.byte	0
 7460 127b 00       		.byte	0
 7461 127c 1F       		.uleb128 0x1f
 7462 127d A1060000 		.4byte	.LASF168
 7463 1281 01       		.byte	0x1
 7464 1282 D004     		.2byte	0x4d0
 7465 1284 00000000 		.4byte	.LFB57
 7466 1288 A4000000 		.4byte	.LFE57-.LFB57
 7467 128c 01       		.uleb128 0x1
 7468 128d 9C       		.byte	0x9c
 7469 128e 47130000 		.4byte	0x1347
 7470 1292 20       		.uleb128 0x20
 7471 1293 FE090000 		.4byte	.LASF169
 7472 1297 01       		.byte	0x1
 7473 1298 D204     		.2byte	0x4d2
 7474 129a 77000000 		.4byte	0x77
 7475 129e 05       		.uleb128 0x5
 7476 129f 03       		.byte	0x3
 7477 12a0 48000000 		.4byte	cycle.6190
 7478 12a4 20       		.uleb128 0x20
 7479 12a5 7D090000 		.4byte	.LASF170
 7480 12a9 01       		.byte	0x1
 7481 12aa D304     		.2byte	0x4d3
 7482 12ac 77000000 		.4byte	0x77
 7483 12b0 05       		.uleb128 0x5
 7484 12b1 03       		.byte	0x3
 7485 12b2 4A000000 		.4byte	color_index.6191
 7486 12b6 20       		.uleb128 0x20
 7487 12b7 EA080000 		.4byte	.LASF171
 7488 12bb 01       		.byte	0x1
 7489 12bc D404     		.2byte	0x4d4
 7490 12be 57130000 		.4byte	0x1357
 7491 12c2 05       		.uleb128 0x5
 7492 12c3 03       		.byte	0x3
 7493 12c4 E4010000 		.4byte	vec_rainbow.6192
 7494 12c8 19       		.uleb128 0x19
 7495 12c9 BB000000 		.4byte	.LASF172
 7496 12cd 01       		.byte	0x1
 7497 12ce DC04     		.2byte	0x4dc
 7498 12d0 6B000000 		.4byte	0x6b
 7499 12d4 C50A0000 		.4byte	.LLST39
 7500 12d8 21       		.uleb128 0x21
 7501 12d9 46000000 		.4byte	.LVL262
ARM GAS  C:\Users\BG1026~1\AppData\Local\Temp\cc2n2B4u.s 			page 171


 7502 12dd FF0B0000 		.4byte	0xbff
 7503 12e1 EB120000 		.4byte	0x12eb
 7504 12e5 1E       		.uleb128 0x1e
 7505 12e6 01       		.uleb128 0x1
 7506 12e7 50       		.byte	0x50
 7507 12e8 01       		.uleb128 0x1
 7508 12e9 45       		.byte	0x45
 7509 12ea 00       		.byte	0
 7510 12eb 21       		.uleb128 0x21
 7511 12ec 54000000 		.4byte	.LVL263
 7512 12f0 FF0B0000 		.4byte	0xbff
 7513 12f4 FE120000 		.4byte	0x12fe
 7514 12f8 1E       		.uleb128 0x1e
 7515 12f9 01       		.uleb128 0x1
 7516 12fa 50       		.byte	0x50
 7517 12fb 01       		.uleb128 0x1
 7518 12fc 42       		.byte	0x42
 7519 12fd 00       		.byte	0
 7520 12fe 21       		.uleb128 0x21
 7521 12ff 64000000 		.4byte	.LVL264
 7522 1303 FF0B0000 		.4byte	0xbff
 7523 1307 11130000 		.4byte	0x1311
 7524 130b 1E       		.uleb128 0x1e
 7525 130c 01       		.uleb128 0x1
 7526 130d 50       		.byte	0x50
 7527 130e 01       		.uleb128 0x1
 7528 130f 46       		.byte	0x46
 7529 1310 00       		.byte	0
 7530 1311 21       		.uleb128 0x21
 7531 1312 74000000 		.4byte	.LVL265
 7532 1316 FF0B0000 		.4byte	0xbff
 7533 131a 24130000 		.4byte	0x1324
 7534 131e 1E       		.uleb128 0x1e
 7535 131f 01       		.uleb128 0x1
 7536 1320 50       		.byte	0x50
 7537 1321 01       		.uleb128 0x1
 7538 1322 43       		.byte	0x43
 7539 1323 00       		.byte	0
 7540 1324 21       		.uleb128 0x21
 7541 1325 84000000 		.4byte	.LVL266
 7542 1329 FF0B0000 		.4byte	0xbff
 7543 132d 37130000 		.4byte	0x1337
 7544 1331 1E       		.uleb128 0x1e
 7545 1332 01       		.uleb128 0x1
 7546 1333 50       		.byte	0x50
 7547 1334 01       		.uleb128 0x1
 7548 1335 47       		.byte	0x47
 7549 1336 00       		.byte	0
 7550 1337 1D       		.uleb128 0x1d
 7551 1338 94000000 		.4byte	.LVL267
 7552 133c FF0B0000 		.4byte	0xbff
 7553 1340 1E       		.uleb128 0x1e
 7554 1341 01       		.uleb128 0x1
 7555 1342 50       		.byte	0x50
 7556 1343 01       		.uleb128 0x1
 7557 1344 44       		.byte	0x44
 7558 1345 00       		.byte	0
ARM GAS  C:\Users\BG1026~1\AppData\Local\Temp\cc2n2B4u.s 			page 172


 7559 1346 00       		.byte	0
 7560 1347 15       		.uleb128 0x15
 7561 1348 26010000 		.4byte	0x126
 7562 134c 57130000 		.4byte	0x1357
 7563 1350 16       		.uleb128 0x16
 7564 1351 CE000000 		.4byte	0xce
 7565 1355 07       		.byte	0x7
 7566 1356 00       		.byte	0
 7567 1357 09       		.uleb128 0x9
 7568 1358 47130000 		.4byte	0x1347
 7569 135c 23       		.uleb128 0x23
 7570 135d 00000000 		.4byte	.LASF173
 7571 1361 01       		.byte	0x1
 7572 1362 F304     		.2byte	0x4f3
 7573 1364 00000000 		.4byte	.LFB58
 7574 1368 48000000 		.4byte	.LFE58-.LFB58
 7575 136c 01       		.uleb128 0x1
 7576 136d 9C       		.byte	0x9c
 7577 136e AF130000 		.4byte	0x13af
 7578 1372 20       		.uleb128 0x20
 7579 1373 FE090000 		.4byte	.LASF169
 7580 1377 01       		.byte	0x1
 7581 1378 F504     		.2byte	0x4f5
 7582 137a 77000000 		.4byte	0x77
 7583 137e 05       		.uleb128 0x5
 7584 137f 03       		.byte	0x3
 7585 1380 4C000000 		.4byte	cycle.6196
 7586 1384 19       		.uleb128 0x19
 7587 1385 BB000000 		.4byte	.LASF172
 7588 1389 01       		.byte	0x1
 7589 138a F604     		.2byte	0x4f6
 7590 138c 6B000000 		.4byte	0x6b
 7591 1390 020B0000 		.4byte	.LLST40
 7592 1394 27       		.uleb128 0x27
 7593 1395 22000000 		.4byte	.LVL270
 7594 1399 FF0B0000 		.4byte	0xbff
 7595 139d 1D       		.uleb128 0x1d
 7596 139e 3A000000 		.4byte	.LVL272
 7597 13a2 FF0B0000 		.4byte	0xbff
 7598 13a6 1E       		.uleb128 0x1e
 7599 13a7 01       		.uleb128 0x1
 7600 13a8 51       		.byte	0x51
 7601 13a9 03       		.uleb128 0x3
 7602 13aa 0A       		.byte	0xa
 7603 13ab FF0F     		.2byte	0xfff
 7604 13ad 00       		.byte	0
 7605 13ae 00       		.byte	0
 7606 13af 1F       		.uleb128 0x1f
 7607 13b0 EB010000 		.4byte	.LASF174
 7608 13b4 01       		.byte	0x1
 7609 13b5 0705     		.2byte	0x507
 7610 13b7 00000000 		.4byte	.LFB59
 7611 13bb 58000000 		.4byte	.LFE59-.LFB59
 7612 13bf 01       		.uleb128 0x1
 7613 13c0 9C       		.byte	0x9c
 7614 13c1 15140000 		.4byte	0x1415
 7615 13c5 20       		.uleb128 0x20
ARM GAS  C:\Users\BG1026~1\AppData\Local\Temp\cc2n2B4u.s 			page 173


 7616 13c6 39030000 		.4byte	.LASF145
 7617 13ca 01       		.byte	0x1
 7618 13cb 0905     		.2byte	0x509
 7619 13cd 77000000 		.4byte	0x77
 7620 13d1 05       		.uleb128 0x5
 7621 13d2 03       		.byte	0x3
 7622 13d3 4E000000 		.4byte	intensity.6200
 7623 13d7 20       		.uleb128 0x20
 7624 13d8 B60C0000 		.4byte	.LASF156
 7625 13dc 01       		.byte	0x1
 7626 13dd 0A05     		.2byte	0x50a
 7627 13df 6B000000 		.4byte	0x6b
 7628 13e3 05       		.uleb128 0x5
 7629 13e4 03       		.byte	0x3
 7630 13e5 0B000000 		.4byte	intensity_up.6201
 7631 13e9 25       		.uleb128 0x25
 7632 13ea 1D050000 		.4byte	.LASF167
 7633 13ee 01       		.byte	0x1
 7634 13ef 0B05     		.2byte	0x50b
 7635 13f1 77000000 		.4byte	0x77
 7636 13f5 01       		.byte	0x1
 7637 13f6 1C       		.uleb128 0x1c
 7638 13f7 6900     		.ascii	"i\000"
 7639 13f9 01       		.byte	0x1
 7640 13fa 0C05     		.2byte	0x50c
 7641 13fc 5D000000 		.4byte	0x5d
 7642 1400 150B0000 		.4byte	.LLST41
 7643 1404 1D       		.uleb128 0x1d
 7644 1405 12000000 		.4byte	.LVL275
 7645 1409 FF0B0000 		.4byte	0xbff
 7646 140d 1E       		.uleb128 0x1e
 7647 140e 01       		.uleb128 0x1
 7648 140f 50       		.byte	0x50
 7649 1410 02       		.uleb128 0x2
 7650 1411 74       		.byte	0x74
 7651 1412 00       		.sleb128 0
 7652 1413 00       		.byte	0
 7653 1414 00       		.byte	0
 7654 1415 1F       		.uleb128 0x1f
 7655 1416 9A080000 		.4byte	.LASF175
 7656 141a 01       		.byte	0x1
 7657 141b CC05     		.2byte	0x5cc
 7658 141d 00000000 		.4byte	.LFB64
 7659 1421 40000000 		.4byte	.LFE64-.LFB64
 7660 1425 01       		.uleb128 0x1
 7661 1426 9C       		.byte	0x9c
 7662 1427 7D140000 		.4byte	0x147d
 7663 142b 21       		.uleb128 0x21
 7664 142c 28000000 		.4byte	.LVL278
 7665 1430 8C240000 		.4byte	0x248c
 7666 1434 47140000 		.4byte	0x1447
 7667 1438 1E       		.uleb128 0x1e
 7668 1439 01       		.uleb128 0x1
 7669 143a 51       		.byte	0x51
 7670 143b 01       		.uleb128 0x1
 7671 143c 48       		.byte	0x48
 7672 143d 1E       		.uleb128 0x1e
ARM GAS  C:\Users\BG1026~1\AppData\Local\Temp\cc2n2B4u.s 			page 174


 7673 143e 01       		.uleb128 0x1
 7674 143f 50       		.byte	0x50
 7675 1440 05       		.uleb128 0x5
 7676 1441 03       		.byte	0x3
 7677 1442 10000000 		.4byte	.LANCHOR0+16
 7678 1446 00       		.byte	0
 7679 1447 21       		.uleb128 0x21
 7680 1448 2E000000 		.4byte	.LVL279
 7681 144c AE240000 		.4byte	0x24ae
 7682 1450 5A140000 		.4byte	0x145a
 7683 1454 1E       		.uleb128 0x1e
 7684 1455 01       		.uleb128 0x1
 7685 1456 50       		.byte	0x50
 7686 1457 01       		.uleb128 0x1
 7687 1458 31       		.byte	0x31
 7688 1459 00       		.byte	0
 7689 145a 21       		.uleb128 0x21
 7690 145b 34000000 		.4byte	.LVL280
 7691 145f BF240000 		.4byte	0x24bf
 7692 1463 6D140000 		.4byte	0x146d
 7693 1467 1E       		.uleb128 0x1e
 7694 1468 01       		.uleb128 0x1
 7695 1469 50       		.byte	0x50
 7696 146a 01       		.uleb128 0x1
 7697 146b 31       		.byte	0x31
 7698 146c 00       		.byte	0
 7699 146d 1D       		.uleb128 0x1d
 7700 146e 3A000000 		.4byte	.LVL281
 7701 1472 AE240000 		.4byte	0x24ae
 7702 1476 1E       		.uleb128 0x1e
 7703 1477 01       		.uleb128 0x1
 7704 1478 50       		.byte	0x50
 7705 1479 01       		.uleb128 0x1
 7706 147a 30       		.byte	0x30
 7707 147b 00       		.byte	0
 7708 147c 00       		.byte	0
 7709 147d 1A       		.uleb128 0x1a
 7710 147e A70A0000 		.4byte	.LASF176
 7711 1482 01       		.byte	0x1
 7712 1483 E901     		.2byte	0x1e9
 7713 1485 6B000000 		.4byte	0x6b
 7714 1489 00000000 		.4byte	.LFB43
 7715 148d D0050000 		.4byte	.LFE43-.LFB43
 7716 1491 01       		.uleb128 0x1
 7717 1492 9C       		.byte	0x9c
 7718 1493 E51E0000 		.4byte	0x1ee5
 7719 1497 1B       		.uleb128 0x1b
 7720 1498 F50B0000 		.4byte	.LASF177
 7721 149c 01       		.byte	0x1
 7722 149d E901     		.2byte	0x1e9
 7723 149f D7000000 		.4byte	0xd7
 7724 14a3 340B0000 		.4byte	.LLST42
 7725 14a7 19       		.uleb128 0x19
 7726 14a8 380B0000 		.4byte	.LASF178
 7727 14ac 01       		.byte	0x1
 7728 14ad EB01     		.2byte	0x1eb
 7729 14af FF010000 		.4byte	0x1ff
ARM GAS  C:\Users\BG1026~1\AppData\Local\Temp\cc2n2B4u.s 			page 175


 7730 14b3 AB0B0000 		.4byte	.LLST43
 7731 14b7 19       		.uleb128 0x19
 7732 14b8 4C010000 		.4byte	.LASF179
 7733 14bc 01       		.byte	0x1
 7734 14bd EC01     		.2byte	0x1ec
 7735 14bf 35020000 		.4byte	0x235
 7736 14c3 D50B0000 		.4byte	.LLST44
 7737 14c7 19       		.uleb128 0x19
 7738 14c8 7F010000 		.4byte	.LASF180
 7739 14cc 01       		.byte	0x1
 7740 14cd ED01     		.2byte	0x1ed
 7741 14cf F5020000 		.4byte	0x2f5
 7742 14d3 2C0C0000 		.4byte	.LLST45
 7743 14d7 19       		.uleb128 0x19
 7744 14d8 AD040000 		.4byte	.LASF181
 7745 14dc 01       		.byte	0x1
 7746 14dd EE01     		.2byte	0x1ee
 7747 14df A1020000 		.4byte	0x2a1
 7748 14e3 620C0000 		.4byte	.LLST46
 7749 14e7 19       		.uleb128 0x19
 7750 14e8 94070000 		.4byte	.LASF182
 7751 14ec 01       		.byte	0x1
 7752 14ed EF01     		.2byte	0x1ef
 7753 14ef 65020000 		.4byte	0x265
 7754 14f3 980C0000 		.4byte	.LLST47
 7755 14f7 19       		.uleb128 0x19
 7756 14f8 2E0B0000 		.4byte	.LASF183
 7757 14fc 01       		.byte	0x1
 7758 14fd F001     		.2byte	0x1f0
 7759 14ff D7000000 		.4byte	0xd7
 7760 1503 E40C0000 		.4byte	.LLST48
 7761 1507 19       		.uleb128 0x19
 7762 1508 01090000 		.4byte	.LASF184
 7763 150c 01       		.byte	0x1
 7764 150d F101     		.2byte	0x1f1
 7765 150f D7000000 		.4byte	0xd7
 7766 1513 44110000 		.4byte	.LLST49
 7767 1517 1C       		.uleb128 0x1c
 7768 1518 72656400 		.ascii	"red\000"
 7769 151c 01       		.byte	0x1
 7770 151d F201     		.2byte	0x1f2
 7771 151f 5D000000 		.4byte	0x5d
 7772 1523 FA110000 		.4byte	.LLST50
 7773 1527 19       		.uleb128 0x19
 7774 1528 5D080000 		.4byte	.LASF19
 7775 152c 01       		.byte	0x1
 7776 152d F301     		.2byte	0x1f3
 7777 152f 5D000000 		.4byte	0x5d
 7778 1533 32120000 		.4byte	.LLST51
 7779 1537 19       		.uleb128 0x19
 7780 1538 230A0000 		.4byte	.LASF20
 7781 153c 01       		.byte	0x1
 7782 153d F401     		.2byte	0x1f4
 7783 153f 5D000000 		.4byte	0x5d
 7784 1543 68120000 		.4byte	.LLST52
 7785 1547 19       		.uleb128 0x19
 7786 1548 72020000 		.4byte	.LASF185
ARM GAS  C:\Users\BG1026~1\AppData\Local\Temp\cc2n2B4u.s 			page 176


 7787 154c 01       		.byte	0x1
 7788 154d F501     		.2byte	0x1f5
 7789 154f 5D000000 		.4byte	0x5d
 7790 1553 B4120000 		.4byte	.LLST53
 7791 1557 19       		.uleb128 0x19
 7792 1558 BC0B0000 		.4byte	.LASF186
 7793 155c 01       		.byte	0x1
 7794 155d F601     		.2byte	0x1f6
 7795 155f 5D000000 		.4byte	0x5d
 7796 1563 00130000 		.4byte	.LLST54
 7797 1567 20       		.uleb128 0x20
 7798 1568 C8050000 		.4byte	.LASF143
 7799 156c 01       		.byte	0x1
 7800 156d F701     		.2byte	0x1f7
 7801 156f E51E0000 		.4byte	0x1ee5
 7802 1573 03       		.uleb128 0x3
 7803 1574 91       		.byte	0x91
 7804 1575 B87F     		.sleb128 -72
 7805 1577 1C       		.uleb128 0x1c
 7806 1578 6900     		.ascii	"i\000"
 7807 157a 01       		.byte	0x1
 7808 157b F801     		.2byte	0x1f8
 7809 157d 5D000000 		.4byte	0x5d
 7810 1581 36130000 		.4byte	.LLST55
 7811 1585 21       		.uleb128 0x21
 7812 1586 0C000000 		.4byte	.LVL284
 7813 158a D0240000 		.4byte	0x24d0
 7814 158e 9F150000 		.4byte	0x159f
 7815 1592 1E       		.uleb128 0x1e
 7816 1593 01       		.uleb128 0x1
 7817 1594 51       		.byte	0x51
 7818 1595 02       		.uleb128 0x2
 7819 1596 08       		.byte	0x8
 7820 1597 2C       		.byte	0x2c
 7821 1598 1E       		.uleb128 0x1e
 7822 1599 01       		.uleb128 0x1
 7823 159a 50       		.byte	0x50
 7824 159b 02       		.uleb128 0x2
 7825 159c 74       		.byte	0x74
 7826 159d 00       		.sleb128 0
 7827 159e 00       		.byte	0
 7828 159f 21       		.uleb128 0x21
 7829 15a0 1A000000 		.4byte	.LVL286
 7830 15a4 B8070000 		.4byte	0x7b8
 7831 15a8 BC150000 		.4byte	0x15bc
 7832 15ac 1E       		.uleb128 0x1e
 7833 15ad 01       		.uleb128 0x1
 7834 15ae 52       		.byte	0x52
 7835 15af 05       		.uleb128 0x5
 7836 15b0 03       		.byte	0x3
 7837 15b1 AC000000 		.4byte	.LC53
 7838 15b5 1E       		.uleb128 0x1e
 7839 15b6 01       		.uleb128 0x1
 7840 15b7 51       		.byte	0x51
 7841 15b8 02       		.uleb128 0x2
 7842 15b9 74       		.byte	0x74
 7843 15ba 00       		.sleb128 0
ARM GAS  C:\Users\BG1026~1\AppData\Local\Temp\cc2n2B4u.s 			page 177


 7844 15bb 00       		.byte	0
 7845 15bc 21       		.uleb128 0x21
 7846 15bd 24000000 		.4byte	.LVL289
 7847 15c1 AF050000 		.4byte	0x5af
 7848 15c5 D0150000 		.4byte	0x15d0
 7849 15c9 1E       		.uleb128 0x1e
 7850 15ca 01       		.uleb128 0x1
 7851 15cb 50       		.byte	0x50
 7852 15cc 02       		.uleb128 0x2
 7853 15cd 75       		.byte	0x75
 7854 15ce 7F       		.sleb128 -1
 7855 15cf 00       		.byte	0
 7856 15d0 21       		.uleb128 0x21
 7857 15d1 3C000000 		.4byte	.LVL291
 7858 15d5 B8070000 		.4byte	0x7b8
 7859 15d9 F2150000 		.4byte	0x15f2
 7860 15dd 1E       		.uleb128 0x1e
 7861 15de 01       		.uleb128 0x1
 7862 15df 52       		.byte	0x52
 7863 15e0 05       		.uleb128 0x5
 7864 15e1 03       		.byte	0x3
 7865 15e2 C8000000 		.4byte	.LC56
 7866 15e6 1E       		.uleb128 0x1e
 7867 15e7 01       		.uleb128 0x1
 7868 15e8 51       		.byte	0x51
 7869 15e9 02       		.uleb128 0x2
 7870 15ea 74       		.byte	0x74
 7871 15eb 00       		.sleb128 0
 7872 15ec 1E       		.uleb128 0x1e
 7873 15ed 01       		.uleb128 0x1
 7874 15ee 50       		.byte	0x50
 7875 15ef 01       		.uleb128 0x1
 7876 15f0 32       		.byte	0x32
 7877 15f1 00       		.byte	0
 7878 15f2 21       		.uleb128 0x21
 7879 15f3 54000000 		.4byte	.LVL293
 7880 15f7 B8070000 		.4byte	0x7b8
 7881 15fb 2D160000 		.4byte	0x162d
 7882 15ff 1E       		.uleb128 0x1e
 7883 1600 01       		.uleb128 0x1
 7884 1601 52       		.byte	0x52
 7885 1602 10       		.uleb128 0x10
 7886 1603 74       		.byte	0x74
 7887 1604 00       		.sleb128 0
 7888 1605 31       		.byte	0x31
 7889 1606 24       		.byte	0x24
 7890 1607 74       		.byte	0x74
 7891 1608 00       		.sleb128 0
 7892 1609 22       		.byte	0x22
 7893 160a 32       		.byte	0x32
 7894 160b 24       		.byte	0x24
 7895 160c 03       		.byte	0x3
 7896 160d 94000000 		.4byte	.LANCHOR1+8
 7897 1611 22       		.byte	0x22
 7898 1612 06       		.byte	0x6
 7899 1613 1E       		.uleb128 0x1e
 7900 1614 01       		.uleb128 0x1
ARM GAS  C:\Users\BG1026~1\AppData\Local\Temp\cc2n2B4u.s 			page 178


 7901 1615 51       		.byte	0x51
 7902 1616 10       		.uleb128 0x10
 7903 1617 74       		.byte	0x74
 7904 1618 00       		.sleb128 0
 7905 1619 31       		.byte	0x31
 7906 161a 24       		.byte	0x24
 7907 161b 74       		.byte	0x74
 7908 161c 00       		.sleb128 0
 7909 161d 22       		.byte	0x22
 7910 161e 32       		.byte	0x32
 7911 161f 24       		.byte	0x24
 7912 1620 03       		.byte	0x3
 7913 1621 90000000 		.4byte	.LANCHOR1+4
 7914 1625 22       		.byte	0x22
 7915 1626 06       		.byte	0x6
 7916 1627 1E       		.uleb128 0x1e
 7917 1628 01       		.uleb128 0x1
 7918 1629 50       		.byte	0x50
 7919 162a 01       		.uleb128 0x1
 7920 162b 30       		.byte	0x30
 7921 162c 00       		.byte	0
 7922 162d 21       		.uleb128 0x21
 7923 162e 76000000 		.4byte	.LVL299
 7924 1632 B8070000 		.4byte	0x7b8
 7925 1636 5D160000 		.4byte	0x165d
 7926 163a 1E       		.uleb128 0x1e
 7927 163b 01       		.uleb128 0x1
 7928 163c 52       		.byte	0x52
 7929 163d 10       		.uleb128 0x10
 7930 163e 74       		.byte	0x74
 7931 163f 00       		.sleb128 0
 7932 1640 31       		.byte	0x31
 7933 1641 24       		.byte	0x24
 7934 1642 74       		.byte	0x74
 7935 1643 00       		.sleb128 0
 7936 1644 22       		.byte	0x22
 7937 1645 32       		.byte	0x32
 7938 1646 24       		.byte	0x24
 7939 1647 03       		.byte	0x3
 7940 1648 30010000 		.4byte	.LANCHOR2+36
 7941 164c 22       		.byte	0x22
 7942 164d 06       		.byte	0x6
 7943 164e 1E       		.uleb128 0x1e
 7944 164f 01       		.uleb128 0x1
 7945 1650 51       		.byte	0x51
 7946 1651 05       		.uleb128 0x5
 7947 1652 03       		.byte	0x3
 7948 1653 D0000000 		.4byte	.LC59
 7949 1657 1E       		.uleb128 0x1e
 7950 1658 01       		.uleb128 0x1
 7951 1659 50       		.byte	0x50
 7952 165a 01       		.uleb128 0x1
 7953 165b 30       		.byte	0x30
 7954 165c 00       		.byte	0
 7955 165d 21       		.uleb128 0x21
 7956 165e 88000000 		.4byte	.LVL302
 7957 1662 D0240000 		.4byte	0x24d0
ARM GAS  C:\Users\BG1026~1\AppData\Local\Temp\cc2n2B4u.s 			page 179


 7958 1666 77160000 		.4byte	0x1677
 7959 166a 1E       		.uleb128 0x1e
 7960 166b 01       		.uleb128 0x1
 7961 166c 51       		.byte	0x51
 7962 166d 02       		.uleb128 0x2
 7963 166e 08       		.byte	0x8
 7964 166f 2C       		.byte	0x2c
 7965 1670 1E       		.uleb128 0x1e
 7966 1671 01       		.uleb128 0x1
 7967 1672 50       		.byte	0x50
 7968 1673 02       		.uleb128 0x2
 7969 1674 75       		.byte	0x75
 7970 1675 00       		.sleb128 0
 7971 1676 00       		.byte	0
 7972 1677 21       		.uleb128 0x21
 7973 1678 96000000 		.4byte	.LVL304
 7974 167c B8070000 		.4byte	0x7b8
 7975 1680 94160000 		.4byte	0x1694
 7976 1684 1E       		.uleb128 0x1e
 7977 1685 01       		.uleb128 0x1
 7978 1686 52       		.byte	0x52
 7979 1687 05       		.uleb128 0x5
 7980 1688 03       		.byte	0x3
 7981 1689 DC000000 		.4byte	.LC62
 7982 168d 1E       		.uleb128 0x1e
 7983 168e 01       		.uleb128 0x1
 7984 168f 51       		.byte	0x51
 7985 1690 02       		.uleb128 0x2
 7986 1691 74       		.byte	0x74
 7987 1692 00       		.sleb128 0
 7988 1693 00       		.byte	0
 7989 1694 21       		.uleb128 0x21
 7990 1695 A2000000 		.4byte	.LVL307
 7991 1699 D0240000 		.4byte	0x24d0
 7992 169d A8160000 		.4byte	0x16a8
 7993 16a1 1E       		.uleb128 0x1e
 7994 16a2 01       		.uleb128 0x1
 7995 16a3 51       		.byte	0x51
 7996 16a4 02       		.uleb128 0x2
 7997 16a5 08       		.byte	0x8
 7998 16a6 3A       		.byte	0x3a
 7999 16a7 00       		.byte	0
 8000 16a8 21       		.uleb128 0x21
 8001 16a9 B0000000 		.4byte	.LVL309
 8002 16ad B8070000 		.4byte	0x7b8
 8003 16b1 C5160000 		.4byte	0x16c5
 8004 16b5 1E       		.uleb128 0x1e
 8005 16b6 01       		.uleb128 0x1
 8006 16b7 52       		.byte	0x52
 8007 16b8 05       		.uleb128 0x5
 8008 16b9 03       		.byte	0x3
 8009 16ba DC000000 		.4byte	.LC62
 8010 16be 1E       		.uleb128 0x1e
 8011 16bf 01       		.uleb128 0x1
 8012 16c0 51       		.byte	0x51
 8013 16c1 02       		.uleb128 0x2
 8014 16c2 74       		.byte	0x74
ARM GAS  C:\Users\BG1026~1\AppData\Local\Temp\cc2n2B4u.s 			page 180


 8015 16c3 00       		.sleb128 0
 8016 16c4 00       		.byte	0
 8017 16c5 21       		.uleb128 0x21
 8018 16c6 BC000000 		.4byte	.LVL312
 8019 16ca 69060000 		.4byte	0x669
 8020 16ce D9160000 		.4byte	0x16d9
 8021 16d2 1E       		.uleb128 0x1e
 8022 16d3 01       		.uleb128 0x1
 8023 16d4 50       		.byte	0x50
 8024 16d5 02       		.uleb128 0x2
 8025 16d6 75       		.byte	0x75
 8026 16d7 00       		.sleb128 0
 8027 16d8 00       		.byte	0
 8028 16d9 21       		.uleb128 0x21
 8029 16da 00010000 		.4byte	.LVL322
 8030 16de C6060000 		.4byte	0x6c6
 8031 16e2 ED160000 		.4byte	0x16ed
 8032 16e6 1E       		.uleb128 0x1e
 8033 16e7 01       		.uleb128 0x1
 8034 16e8 50       		.byte	0x50
 8035 16e9 02       		.uleb128 0x2
 8036 16ea 75       		.byte	0x75
 8037 16eb 00       		.sleb128 0
 8038 16ec 00       		.byte	0
 8039 16ed 21       		.uleb128 0x21
 8040 16ee 16010000 		.4byte	.LVL326
 8041 16f2 B8070000 		.4byte	0x7b8
 8042 16f6 0F170000 		.4byte	0x170f
 8043 16fa 1E       		.uleb128 0x1e
 8044 16fb 01       		.uleb128 0x1
 8045 16fc 52       		.byte	0x52
 8046 16fd 05       		.uleb128 0x5
 8047 16fe 03       		.byte	0x3
 8048 16ff DC000000 		.4byte	.LC62
 8049 1703 1E       		.uleb128 0x1e
 8050 1704 01       		.uleb128 0x1
 8051 1705 51       		.byte	0x51
 8052 1706 02       		.uleb128 0x2
 8053 1707 74       		.byte	0x74
 8054 1708 00       		.sleb128 0
 8055 1709 1E       		.uleb128 0x1e
 8056 170a 01       		.uleb128 0x1
 8057 170b 50       		.byte	0x50
 8058 170c 01       		.uleb128 0x1
 8059 170d 32       		.byte	0x32
 8060 170e 00       		.byte	0
 8061 170f 21       		.uleb128 0x21
 8062 1710 20010000 		.4byte	.LVL328
 8063 1714 23070000 		.4byte	0x723
 8064 1718 23170000 		.4byte	0x1723
 8065 171c 1E       		.uleb128 0x1e
 8066 171d 01       		.uleb128 0x1
 8067 171e 50       		.byte	0x50
 8068 171f 02       		.uleb128 0x2
 8069 1720 75       		.byte	0x75
 8070 1721 00       		.sleb128 0
 8071 1722 00       		.byte	0
ARM GAS  C:\Users\BG1026~1\AppData\Local\Temp\cc2n2B4u.s 			page 181


 8072 1723 27       		.uleb128 0x27
 8073 1724 34010000 		.4byte	.LVL331
 8074 1728 15140000 		.4byte	0x1415
 8075 172c 21       		.uleb128 0x21
 8076 172d 40010000 		.4byte	.LVL332
 8077 1731 D0240000 		.4byte	0x24d0
 8078 1735 46170000 		.4byte	0x1746
 8079 1739 1E       		.uleb128 0x1e
 8080 173a 01       		.uleb128 0x1
 8081 173b 51       		.byte	0x51
 8082 173c 02       		.uleb128 0x2
 8083 173d 08       		.byte	0x8
 8084 173e 2C       		.byte	0x2c
 8085 173f 1E       		.uleb128 0x1e
 8086 1740 01       		.uleb128 0x1
 8087 1741 50       		.byte	0x50
 8088 1742 02       		.uleb128 0x2
 8089 1743 75       		.byte	0x75
 8090 1744 00       		.sleb128 0
 8091 1745 00       		.byte	0
 8092 1746 21       		.uleb128 0x21
 8093 1747 4E010000 		.4byte	.LVL334
 8094 174b B8070000 		.4byte	0x7b8
 8095 174f 63170000 		.4byte	0x1763
 8096 1753 1E       		.uleb128 0x1e
 8097 1754 01       		.uleb128 0x1
 8098 1755 52       		.byte	0x52
 8099 1756 05       		.uleb128 0x5
 8100 1757 03       		.byte	0x3
 8101 1758 DC000000 		.4byte	.LC62
 8102 175c 1E       		.uleb128 0x1e
 8103 175d 01       		.uleb128 0x1
 8104 175e 51       		.byte	0x51
 8105 175f 02       		.uleb128 0x2
 8106 1760 74       		.byte	0x74
 8107 1761 00       		.sleb128 0
 8108 1762 00       		.byte	0
 8109 1763 21       		.uleb128 0x21
 8110 1764 5A010000 		.4byte	.LVL337
 8111 1768 D0240000 		.4byte	0x24d0
 8112 176c 77170000 		.4byte	0x1777
 8113 1770 1E       		.uleb128 0x1e
 8114 1771 01       		.uleb128 0x1
 8115 1772 51       		.byte	0x51
 8116 1773 02       		.uleb128 0x2
 8117 1774 08       		.byte	0x8
 8118 1775 3A       		.byte	0x3a
 8119 1776 00       		.byte	0
 8120 1777 21       		.uleb128 0x21
 8121 1778 68010000 		.4byte	.LVL339
 8122 177c B8070000 		.4byte	0x7b8
 8123 1780 94170000 		.4byte	0x1794
 8124 1784 1E       		.uleb128 0x1e
 8125 1785 01       		.uleb128 0x1
 8126 1786 52       		.byte	0x52
 8127 1787 05       		.uleb128 0x5
 8128 1788 03       		.byte	0x3
ARM GAS  C:\Users\BG1026~1\AppData\Local\Temp\cc2n2B4u.s 			page 182


 8129 1789 FC000000 		.4byte	.LC67
 8130 178d 1E       		.uleb128 0x1e
 8131 178e 01       		.uleb128 0x1
 8132 178f 51       		.byte	0x51
 8133 1790 02       		.uleb128 0x2
 8134 1791 74       		.byte	0x74
 8135 1792 00       		.sleb128 0
 8136 1793 00       		.byte	0
 8137 1794 21       		.uleb128 0x21
 8138 1795 74010000 		.4byte	.LVL342
 8139 1799 D0240000 		.4byte	0x24d0
 8140 179d A8170000 		.4byte	0x17a8
 8141 17a1 1E       		.uleb128 0x1e
 8142 17a2 01       		.uleb128 0x1
 8143 17a3 51       		.byte	0x51
 8144 17a4 02       		.uleb128 0x2
 8145 17a5 08       		.byte	0x8
 8146 17a6 3A       		.byte	0x3a
 8147 17a7 00       		.byte	0
 8148 17a8 21       		.uleb128 0x21
 8149 17a9 82010000 		.4byte	.LVL344
 8150 17ad B8070000 		.4byte	0x7b8
 8151 17b1 C5170000 		.4byte	0x17c5
 8152 17b5 1E       		.uleb128 0x1e
 8153 17b6 01       		.uleb128 0x1
 8154 17b7 52       		.byte	0x52
 8155 17b8 05       		.uleb128 0x5
 8156 17b9 03       		.byte	0x3
 8157 17ba FC000000 		.4byte	.LC67
 8158 17be 1E       		.uleb128 0x1e
 8159 17bf 01       		.uleb128 0x1
 8160 17c0 51       		.byte	0x51
 8161 17c1 02       		.uleb128 0x2
 8162 17c2 74       		.byte	0x74
 8163 17c3 00       		.sleb128 0
 8164 17c4 00       		.byte	0
 8165 17c5 21       		.uleb128 0x21
 8166 17c6 90010000 		.4byte	.LVL347
 8167 17ca D0240000 		.4byte	0x24d0
 8168 17ce DF170000 		.4byte	0x17df
 8169 17d2 1E       		.uleb128 0x1e
 8170 17d3 01       		.uleb128 0x1
 8171 17d4 51       		.byte	0x51
 8172 17d5 02       		.uleb128 0x2
 8173 17d6 08       		.byte	0x8
 8174 17d7 2C       		.byte	0x2c
 8175 17d8 1E       		.uleb128 0x1e
 8176 17d9 01       		.uleb128 0x1
 8177 17da 50       		.byte	0x50
 8178 17db 02       		.uleb128 0x2
 8179 17dc 75       		.byte	0x75
 8180 17dd 00       		.sleb128 0
 8181 17de 00       		.byte	0
 8182 17df 21       		.uleb128 0x21
 8183 17e0 9E010000 		.4byte	.LVL349
 8184 17e4 B8070000 		.4byte	0x7b8
 8185 17e8 FC170000 		.4byte	0x17fc
ARM GAS  C:\Users\BG1026~1\AppData\Local\Temp\cc2n2B4u.s 			page 183


 8186 17ec 1E       		.uleb128 0x1e
 8187 17ed 01       		.uleb128 0x1
 8188 17ee 52       		.byte	0x52
 8189 17ef 05       		.uleb128 0x5
 8190 17f0 03       		.byte	0x3
 8191 17f1 FC000000 		.4byte	.LC67
 8192 17f5 1E       		.uleb128 0x1e
 8193 17f6 01       		.uleb128 0x1
 8194 17f7 51       		.byte	0x51
 8195 17f8 02       		.uleb128 0x2
 8196 17f9 74       		.byte	0x74
 8197 17fa 00       		.sleb128 0
 8198 17fb 00       		.byte	0
 8199 17fc 21       		.uleb128 0x21
 8200 17fd AE010000 		.4byte	.LVL352
 8201 1801 56050000 		.4byte	0x556
 8202 1805 10180000 		.4byte	0x1810
 8203 1809 1E       		.uleb128 0x1e
 8204 180a 01       		.uleb128 0x1
 8205 180b 50       		.byte	0x50
 8206 180c 02       		.uleb128 0x2
 8207 180d 75       		.byte	0x75
 8208 180e 00       		.sleb128 0
 8209 180f 00       		.byte	0
 8210 1810 21       		.uleb128 0x21
 8211 1811 B8010000 		.4byte	.LVL355
 8212 1815 D0240000 		.4byte	0x24d0
 8213 1819 2A180000 		.4byte	0x182a
 8214 181d 1E       		.uleb128 0x1e
 8215 181e 01       		.uleb128 0x1
 8216 181f 51       		.byte	0x51
 8217 1820 02       		.uleb128 0x2
 8218 1821 08       		.byte	0x8
 8219 1822 3A       		.byte	0x3a
 8220 1823 1E       		.uleb128 0x1e
 8221 1824 01       		.uleb128 0x1
 8222 1825 50       		.byte	0x50
 8223 1826 02       		.uleb128 0x2
 8224 1827 77       		.byte	0x77
 8225 1828 00       		.sleb128 0
 8226 1829 00       		.byte	0
 8227 182a 21       		.uleb128 0x21
 8228 182b C6010000 		.4byte	.LVL357
 8229 182f B8070000 		.4byte	0x7b8
 8230 1833 47180000 		.4byte	0x1847
 8231 1837 1E       		.uleb128 0x1e
 8232 1838 01       		.uleb128 0x1
 8233 1839 52       		.byte	0x52
 8234 183a 05       		.uleb128 0x5
 8235 183b 03       		.byte	0x3
 8236 183c 1C010000 		.4byte	.LC69
 8237 1840 1E       		.uleb128 0x1e
 8238 1841 01       		.uleb128 0x1
 8239 1842 51       		.byte	0x51
 8240 1843 02       		.uleb128 0x2
 8241 1844 74       		.byte	0x74
 8242 1845 00       		.sleb128 0
ARM GAS  C:\Users\BG1026~1\AppData\Local\Temp\cc2n2B4u.s 			page 184


 8243 1846 00       		.byte	0
 8244 1847 21       		.uleb128 0x21
 8245 1848 D4010000 		.4byte	.LVL360
 8246 184c D0240000 		.4byte	0x24d0
 8247 1850 61180000 		.4byte	0x1861
 8248 1854 1E       		.uleb128 0x1e
 8249 1855 01       		.uleb128 0x1
 8250 1856 51       		.byte	0x51
 8251 1857 02       		.uleb128 0x2
 8252 1858 08       		.byte	0x8
 8253 1859 2C       		.byte	0x2c
 8254 185a 1E       		.uleb128 0x1e
 8255 185b 01       		.uleb128 0x1
 8256 185c 50       		.byte	0x50
 8257 185d 02       		.uleb128 0x2
 8258 185e 77       		.byte	0x77
 8259 185f 00       		.sleb128 0
 8260 1860 00       		.byte	0
 8261 1861 21       		.uleb128 0x21
 8262 1862 E2010000 		.4byte	.LVL362
 8263 1866 B8070000 		.4byte	0x7b8
 8264 186a 7E180000 		.4byte	0x187e
 8265 186e 1E       		.uleb128 0x1e
 8266 186f 01       		.uleb128 0x1
 8267 1870 52       		.byte	0x52
 8268 1871 05       		.uleb128 0x5
 8269 1872 03       		.byte	0x3
 8270 1873 40010000 		.4byte	.LC71
 8271 1877 1E       		.uleb128 0x1e
 8272 1878 01       		.uleb128 0x1
 8273 1879 51       		.byte	0x51
 8274 187a 02       		.uleb128 0x2
 8275 187b 74       		.byte	0x74
 8276 187c 00       		.sleb128 0
 8277 187d 00       		.byte	0
 8278 187e 21       		.uleb128 0x21
 8279 187f F2010000 		.4byte	.LVL365
 8280 1883 56050000 		.4byte	0x556
 8281 1887 92180000 		.4byte	0x1892
 8282 188b 1E       		.uleb128 0x1e
 8283 188c 01       		.uleb128 0x1
 8284 188d 50       		.byte	0x50
 8285 188e 02       		.uleb128 0x2
 8286 188f 77       		.byte	0x77
 8287 1890 00       		.sleb128 0
 8288 1891 00       		.byte	0
 8289 1892 21       		.uleb128 0x21
 8290 1893 FC010000 		.4byte	.LVL368
 8291 1897 D0240000 		.4byte	0x24d0
 8292 189b AC180000 		.4byte	0x18ac
 8293 189f 1E       		.uleb128 0x1e
 8294 18a0 01       		.uleb128 0x1
 8295 18a1 51       		.byte	0x51
 8296 18a2 02       		.uleb128 0x2
 8297 18a3 08       		.byte	0x8
 8298 18a4 3A       		.byte	0x3a
 8299 18a5 1E       		.uleb128 0x1e
ARM GAS  C:\Users\BG1026~1\AppData\Local\Temp\cc2n2B4u.s 			page 185


 8300 18a6 01       		.uleb128 0x1
 8301 18a7 50       		.byte	0x50
 8302 18a8 02       		.uleb128 0x2
 8303 18a9 75       		.byte	0x75
 8304 18aa 00       		.sleb128 0
 8305 18ab 00       		.byte	0
 8306 18ac 21       		.uleb128 0x21
 8307 18ad 0A020000 		.4byte	.LVL370
 8308 18b1 B8070000 		.4byte	0x7b8
 8309 18b5 C9180000 		.4byte	0x18c9
 8310 18b9 1E       		.uleb128 0x1e
 8311 18ba 01       		.uleb128 0x1
 8312 18bb 52       		.byte	0x52
 8313 18bc 05       		.uleb128 0x5
 8314 18bd 03       		.byte	0x3
 8315 18be 1C010000 		.4byte	.LC69
 8316 18c2 1E       		.uleb128 0x1e
 8317 18c3 01       		.uleb128 0x1
 8318 18c4 51       		.byte	0x51
 8319 18c5 02       		.uleb128 0x2
 8320 18c6 74       		.byte	0x74
 8321 18c7 00       		.sleb128 0
 8322 18c8 00       		.byte	0
 8323 18c9 27       		.uleb128 0x27
 8324 18ca 14020000 		.4byte	.LVL373
 8325 18ce 56050000 		.4byte	0x556
 8326 18d2 21       		.uleb128 0x21
 8327 18d3 24020000 		.4byte	.LVL376
 8328 18d7 FF0B0000 		.4byte	0xbff
 8329 18db ED180000 		.4byte	0x18ed
 8330 18df 1E       		.uleb128 0x1e
 8331 18e0 01       		.uleb128 0x1
 8332 18e1 51       		.byte	0x51
 8333 18e2 04       		.uleb128 0x4
 8334 18e3 7D       		.byte	0x7d
 8335 18e4 04       		.sleb128 4
 8336 18e5 94       		.byte	0x94
 8337 18e6 02       		.byte	0x2
 8338 18e7 1E       		.uleb128 0x1e
 8339 18e8 01       		.uleb128 0x1
 8340 18e9 50       		.byte	0x50
 8341 18ea 01       		.uleb128 0x1
 8342 18eb 45       		.byte	0x45
 8343 18ec 00       		.byte	0
 8344 18ed 21       		.uleb128 0x21
 8345 18ee 2C020000 		.4byte	.LVL377
 8346 18f2 FF0B0000 		.4byte	0xbff
 8347 18f6 06190000 		.4byte	0x1906
 8348 18fa 1E       		.uleb128 0x1e
 8349 18fb 01       		.uleb128 0x1
 8350 18fc 51       		.byte	0x51
 8351 18fd 02       		.uleb128 0x2
 8352 18fe 77       		.byte	0x77
 8353 18ff 00       		.sleb128 0
 8354 1900 1E       		.uleb128 0x1e
 8355 1901 01       		.uleb128 0x1
 8356 1902 50       		.byte	0x50
ARM GAS  C:\Users\BG1026~1\AppData\Local\Temp\cc2n2B4u.s 			page 186


 8357 1903 01       		.uleb128 0x1
 8358 1904 46       		.byte	0x46
 8359 1905 00       		.byte	0
 8360 1906 21       		.uleb128 0x21
 8361 1907 34020000 		.4byte	.LVL378
 8362 190b FF0B0000 		.4byte	0xbff
 8363 190f 1F190000 		.4byte	0x191f
 8364 1913 1E       		.uleb128 0x1e
 8365 1914 01       		.uleb128 0x1
 8366 1915 51       		.byte	0x51
 8367 1916 02       		.uleb128 0x2
 8368 1917 74       		.byte	0x74
 8369 1918 00       		.sleb128 0
 8370 1919 1E       		.uleb128 0x1e
 8371 191a 01       		.uleb128 0x1
 8372 191b 50       		.byte	0x50
 8373 191c 01       		.uleb128 0x1
 8374 191d 47       		.byte	0x47
 8375 191e 00       		.byte	0
 8376 191f 21       		.uleb128 0x21
 8377 1920 42020000 		.4byte	.LVL381
 8378 1924 FF0B0000 		.4byte	0xbff
 8379 1928 3A190000 		.4byte	0x193a
 8380 192c 1E       		.uleb128 0x1e
 8381 192d 01       		.uleb128 0x1
 8382 192e 51       		.byte	0x51
 8383 192f 04       		.uleb128 0x4
 8384 1930 7D       		.byte	0x7d
 8385 1931 04       		.sleb128 4
 8386 1932 94       		.byte	0x94
 8387 1933 02       		.byte	0x2
 8388 1934 1E       		.uleb128 0x1e
 8389 1935 01       		.uleb128 0x1
 8390 1936 50       		.byte	0x50
 8391 1937 01       		.uleb128 0x1
 8392 1938 42       		.byte	0x42
 8393 1939 00       		.byte	0
 8394 193a 21       		.uleb128 0x21
 8395 193b 4A020000 		.4byte	.LVL382
 8396 193f FF0B0000 		.4byte	0xbff
 8397 1943 53190000 		.4byte	0x1953
 8398 1947 1E       		.uleb128 0x1e
 8399 1948 01       		.uleb128 0x1
 8400 1949 51       		.byte	0x51
 8401 194a 02       		.uleb128 0x2
 8402 194b 77       		.byte	0x77
 8403 194c 00       		.sleb128 0
 8404 194d 1E       		.uleb128 0x1e
 8405 194e 01       		.uleb128 0x1
 8406 194f 50       		.byte	0x50
 8407 1950 01       		.uleb128 0x1
 8408 1951 43       		.byte	0x43
 8409 1952 00       		.byte	0
 8410 1953 21       		.uleb128 0x21
 8411 1954 52020000 		.4byte	.LVL383
 8412 1958 FF0B0000 		.4byte	0xbff
 8413 195c 6C190000 		.4byte	0x196c
ARM GAS  C:\Users\BG1026~1\AppData\Local\Temp\cc2n2B4u.s 			page 187


 8414 1960 1E       		.uleb128 0x1e
 8415 1961 01       		.uleb128 0x1
 8416 1962 51       		.byte	0x51
 8417 1963 02       		.uleb128 0x2
 8418 1964 74       		.byte	0x74
 8419 1965 00       		.sleb128 0
 8420 1966 1E       		.uleb128 0x1e
 8421 1967 01       		.uleb128 0x1
 8422 1968 50       		.byte	0x50
 8423 1969 01       		.uleb128 0x1
 8424 196a 44       		.byte	0x44
 8425 196b 00       		.byte	0
 8426 196c 21       		.uleb128 0x21
 8427 196d 5E020000 		.4byte	.LVL385
 8428 1971 D0240000 		.4byte	0x24d0
 8429 1975 86190000 		.4byte	0x1986
 8430 1979 1E       		.uleb128 0x1e
 8431 197a 01       		.uleb128 0x1
 8432 197b 51       		.byte	0x51
 8433 197c 02       		.uleb128 0x2
 8434 197d 08       		.byte	0x8
 8435 197e 2C       		.byte	0x2c
 8436 197f 1E       		.uleb128 0x1e
 8437 1980 01       		.uleb128 0x1
 8438 1981 50       		.byte	0x50
 8439 1982 02       		.uleb128 0x2
 8440 1983 75       		.byte	0x75
 8441 1984 00       		.sleb128 0
 8442 1985 00       		.byte	0
 8443 1986 21       		.uleb128 0x21
 8444 1987 6C020000 		.4byte	.LVL387
 8445 198b B8070000 		.4byte	0x7b8
 8446 198f A3190000 		.4byte	0x19a3
 8447 1993 1E       		.uleb128 0x1e
 8448 1994 01       		.uleb128 0x1
 8449 1995 52       		.byte	0x52
 8450 1996 05       		.uleb128 0x5
 8451 1997 03       		.byte	0x3
 8452 1998 DC000000 		.4byte	.LC62
 8453 199c 1E       		.uleb128 0x1e
 8454 199d 01       		.uleb128 0x1
 8455 199e 51       		.byte	0x51
 8456 199f 02       		.uleb128 0x2
 8457 19a0 74       		.byte	0x74
 8458 19a1 00       		.sleb128 0
 8459 19a2 00       		.byte	0
 8460 19a3 21       		.uleb128 0x21
 8461 19a4 78020000 		.4byte	.LVL390
 8462 19a8 D0240000 		.4byte	0x24d0
 8463 19ac B7190000 		.4byte	0x19b7
 8464 19b0 1E       		.uleb128 0x1e
 8465 19b1 01       		.uleb128 0x1
 8466 19b2 51       		.byte	0x51
 8467 19b3 02       		.uleb128 0x2
 8468 19b4 08       		.byte	0x8
 8469 19b5 3A       		.byte	0x3a
 8470 19b6 00       		.byte	0
ARM GAS  C:\Users\BG1026~1\AppData\Local\Temp\cc2n2B4u.s 			page 188


 8471 19b7 21       		.uleb128 0x21
 8472 19b8 86020000 		.4byte	.LVL392
 8473 19bc B8070000 		.4byte	0x7b8
 8474 19c0 D4190000 		.4byte	0x19d4
 8475 19c4 1E       		.uleb128 0x1e
 8476 19c5 01       		.uleb128 0x1
 8477 19c6 52       		.byte	0x52
 8478 19c7 05       		.uleb128 0x5
 8479 19c8 03       		.byte	0x3
 8480 19c9 64010000 		.4byte	.LC73
 8481 19cd 1E       		.uleb128 0x1e
 8482 19ce 01       		.uleb128 0x1
 8483 19cf 51       		.byte	0x51
 8484 19d0 02       		.uleb128 0x2
 8485 19d1 74       		.byte	0x74
 8486 19d2 00       		.sleb128 0
 8487 19d3 00       		.byte	0
 8488 19d4 21       		.uleb128 0x21
 8489 19d5 92020000 		.4byte	.LVL395
 8490 19d9 D0240000 		.4byte	0x24d0
 8491 19dd E8190000 		.4byte	0x19e8
 8492 19e1 1E       		.uleb128 0x1e
 8493 19e2 01       		.uleb128 0x1
 8494 19e3 51       		.byte	0x51
 8495 19e4 02       		.uleb128 0x2
 8496 19e5 08       		.byte	0x8
 8497 19e6 3A       		.byte	0x3a
 8498 19e7 00       		.byte	0
 8499 19e8 21       		.uleb128 0x21
 8500 19e9 A0020000 		.4byte	.LVL397
 8501 19ed B8070000 		.4byte	0x7b8
 8502 19f1 051A0000 		.4byte	0x1a05
 8503 19f5 1E       		.uleb128 0x1e
 8504 19f6 01       		.uleb128 0x1
 8505 19f7 52       		.byte	0x52
 8506 19f8 05       		.uleb128 0x5
 8507 19f9 03       		.byte	0x3
 8508 19fa 80010000 		.4byte	.LC75
 8509 19fe 1E       		.uleb128 0x1e
 8510 19ff 01       		.uleb128 0x1
 8511 1a00 51       		.byte	0x51
 8512 1a01 02       		.uleb128 0x2
 8513 1a02 74       		.byte	0x74
 8514 1a03 00       		.sleb128 0
 8515 1a04 00       		.byte	0
 8516 1a05 21       		.uleb128 0x21
 8517 1a06 AE020000 		.4byte	.LVL400
 8518 1a0a D0240000 		.4byte	0x24d0
 8519 1a0e 1F1A0000 		.4byte	0x1a1f
 8520 1a12 1E       		.uleb128 0x1e
 8521 1a13 01       		.uleb128 0x1
 8522 1a14 51       		.byte	0x51
 8523 1a15 02       		.uleb128 0x2
 8524 1a16 08       		.byte	0x8
 8525 1a17 2C       		.byte	0x2c
 8526 1a18 1E       		.uleb128 0x1e
 8527 1a19 01       		.uleb128 0x1
ARM GAS  C:\Users\BG1026~1\AppData\Local\Temp\cc2n2B4u.s 			page 189


 8528 1a1a 50       		.byte	0x50
 8529 1a1b 02       		.uleb128 0x2
 8530 1a1c 76       		.byte	0x76
 8531 1a1d 00       		.sleb128 0
 8532 1a1e 00       		.byte	0
 8533 1a1f 21       		.uleb128 0x21
 8534 1a20 BC020000 		.4byte	.LVL402
 8535 1a24 B8070000 		.4byte	0x7b8
 8536 1a28 3C1A0000 		.4byte	0x1a3c
 8537 1a2c 1E       		.uleb128 0x1e
 8538 1a2d 01       		.uleb128 0x1
 8539 1a2e 52       		.byte	0x52
 8540 1a2f 05       		.uleb128 0x5
 8541 1a30 03       		.byte	0x3
 8542 1a31 80010000 		.4byte	.LC75
 8543 1a35 1E       		.uleb128 0x1e
 8544 1a36 01       		.uleb128 0x1
 8545 1a37 51       		.byte	0x51
 8546 1a38 02       		.uleb128 0x2
 8547 1a39 74       		.byte	0x74
 8548 1a3a 00       		.sleb128 0
 8549 1a3b 00       		.byte	0
 8550 1a3c 21       		.uleb128 0x21
 8551 1a3d CC020000 		.4byte	.LVL405
 8552 1a41 56050000 		.4byte	0x556
 8553 1a45 501A0000 		.4byte	0x1a50
 8554 1a49 1E       		.uleb128 0x1e
 8555 1a4a 01       		.uleb128 0x1
 8556 1a4b 50       		.byte	0x50
 8557 1a4c 02       		.uleb128 0x2
 8558 1a4d 76       		.byte	0x76
 8559 1a4e 00       		.sleb128 0
 8560 1a4f 00       		.byte	0
 8561 1a50 21       		.uleb128 0x21
 8562 1a51 DC020000 		.4byte	.LVL408
 8563 1a55 B8070000 		.4byte	0x7b8
 8564 1a59 721A0000 		.4byte	0x1a72
 8565 1a5d 1E       		.uleb128 0x1e
 8566 1a5e 01       		.uleb128 0x1
 8567 1a5f 52       		.byte	0x52
 8568 1a60 05       		.uleb128 0x5
 8569 1a61 03       		.byte	0x3
 8570 1a62 98010000 		.4byte	.LC77
 8571 1a66 1E       		.uleb128 0x1e
 8572 1a67 01       		.uleb128 0x1
 8573 1a68 51       		.byte	0x51
 8574 1a69 02       		.uleb128 0x2
 8575 1a6a 74       		.byte	0x74
 8576 1a6b 00       		.sleb128 0
 8577 1a6c 1E       		.uleb128 0x1e
 8578 1a6d 01       		.uleb128 0x1
 8579 1a6e 50       		.byte	0x50
 8580 1a6f 01       		.uleb128 0x1
 8581 1a70 32       		.byte	0x32
 8582 1a71 00       		.byte	0
 8583 1a72 21       		.uleb128 0x21
 8584 1a73 E8020000 		.4byte	.LVL411
ARM GAS  C:\Users\BG1026~1\AppData\Local\Temp\cc2n2B4u.s 			page 190


 8585 1a77 D0240000 		.4byte	0x24d0
 8586 1a7b 8C1A0000 		.4byte	0x1a8c
 8587 1a7f 1E       		.uleb128 0x1e
 8588 1a80 01       		.uleb128 0x1
 8589 1a81 51       		.byte	0x51
 8590 1a82 02       		.uleb128 0x2
 8591 1a83 08       		.byte	0x8
 8592 1a84 3A       		.byte	0x3a
 8593 1a85 1E       		.uleb128 0x1e
 8594 1a86 01       		.uleb128 0x1
 8595 1a87 50       		.byte	0x50
 8596 1a88 02       		.uleb128 0x2
 8597 1a89 75       		.byte	0x75
 8598 1a8a 00       		.sleb128 0
 8599 1a8b 00       		.byte	0
 8600 1a8c 21       		.uleb128 0x21
 8601 1a8d F6020000 		.4byte	.LVL413
 8602 1a91 B8070000 		.4byte	0x7b8
 8603 1a95 A91A0000 		.4byte	0x1aa9
 8604 1a99 1E       		.uleb128 0x1e
 8605 1a9a 01       		.uleb128 0x1
 8606 1a9b 52       		.byte	0x52
 8607 1a9c 05       		.uleb128 0x5
 8608 1a9d 03       		.byte	0x3
 8609 1a9e 1C010000 		.4byte	.LC69
 8610 1aa2 1E       		.uleb128 0x1e
 8611 1aa3 01       		.uleb128 0x1
 8612 1aa4 51       		.byte	0x51
 8613 1aa5 02       		.uleb128 0x2
 8614 1aa6 74       		.byte	0x74
 8615 1aa7 00       		.sleb128 0
 8616 1aa8 00       		.byte	0
 8617 1aa9 27       		.uleb128 0x27
 8618 1aaa 00030000 		.4byte	.LVL416
 8619 1aae 56050000 		.4byte	0x556
 8620 1ab2 21       		.uleb128 0x21
 8621 1ab3 0A030000 		.4byte	.LVL420
 8622 1ab7 FF0B0000 		.4byte	0xbff
 8623 1abb C61A0000 		.4byte	0x1ac6
 8624 1abf 1E       		.uleb128 0x1e
 8625 1ac0 01       		.uleb128 0x1
 8626 1ac1 50       		.byte	0x50
 8627 1ac2 02       		.uleb128 0x2
 8628 1ac3 76       		.byte	0x76
 8629 1ac4 00       		.sleb128 0
 8630 1ac5 00       		.byte	0
 8631 1ac6 21       		.uleb128 0x21
 8632 1ac7 16030000 		.4byte	.LVL422
 8633 1acb D0240000 		.4byte	0x24d0
 8634 1acf E01A0000 		.4byte	0x1ae0
 8635 1ad3 1E       		.uleb128 0x1e
 8636 1ad4 01       		.uleb128 0x1
 8637 1ad5 51       		.byte	0x51
 8638 1ad6 02       		.uleb128 0x2
 8639 1ad7 08       		.byte	0x8
 8640 1ad8 2C       		.byte	0x2c
 8641 1ad9 1E       		.uleb128 0x1e
ARM GAS  C:\Users\BG1026~1\AppData\Local\Temp\cc2n2B4u.s 			page 191


 8642 1ada 01       		.uleb128 0x1
 8643 1adb 50       		.byte	0x50
 8644 1adc 02       		.uleb128 0x2
 8645 1add 75       		.byte	0x75
 8646 1ade 00       		.sleb128 0
 8647 1adf 00       		.byte	0
 8648 1ae0 21       		.uleb128 0x21
 8649 1ae1 24030000 		.4byte	.LVL424
 8650 1ae5 B8070000 		.4byte	0x7b8
 8651 1ae9 FD1A0000 		.4byte	0x1afd
 8652 1aed 1E       		.uleb128 0x1e
 8653 1aee 01       		.uleb128 0x1
 8654 1aef 52       		.byte	0x52
 8655 1af0 05       		.uleb128 0x5
 8656 1af1 03       		.byte	0x3
 8657 1af2 AC010000 		.4byte	.LC79
 8658 1af6 1E       		.uleb128 0x1e
 8659 1af7 01       		.uleb128 0x1
 8660 1af8 51       		.byte	0x51
 8661 1af9 02       		.uleb128 0x2
 8662 1afa 74       		.byte	0x74
 8663 1afb 00       		.sleb128 0
 8664 1afc 00       		.byte	0
 8665 1afd 21       		.uleb128 0x21
 8666 1afe 30030000 		.4byte	.LVL427
 8667 1b02 D0240000 		.4byte	0x24d0
 8668 1b06 111B0000 		.4byte	0x1b11
 8669 1b0a 1E       		.uleb128 0x1e
 8670 1b0b 01       		.uleb128 0x1
 8671 1b0c 51       		.byte	0x51
 8672 1b0d 02       		.uleb128 0x2
 8673 1b0e 08       		.byte	0x8
 8674 1b0f 2C       		.byte	0x2c
 8675 1b10 00       		.byte	0
 8676 1b11 21       		.uleb128 0x21
 8677 1b12 3E030000 		.4byte	.LVL429
 8678 1b16 B8070000 		.4byte	0x7b8
 8679 1b1a 2E1B0000 		.4byte	0x1b2e
 8680 1b1e 1E       		.uleb128 0x1e
 8681 1b1f 01       		.uleb128 0x1
 8682 1b20 52       		.byte	0x52
 8683 1b21 05       		.uleb128 0x5
 8684 1b22 03       		.byte	0x3
 8685 1b23 AC010000 		.4byte	.LC79
 8686 1b27 1E       		.uleb128 0x1e
 8687 1b28 01       		.uleb128 0x1
 8688 1b29 51       		.byte	0x51
 8689 1b2a 02       		.uleb128 0x2
 8690 1b2b 74       		.byte	0x74
 8691 1b2c 00       		.sleb128 0
 8692 1b2d 00       		.byte	0
 8693 1b2e 21       		.uleb128 0x21
 8694 1b2f 90030000 		.4byte	.LVL432
 8695 1b33 D0240000 		.4byte	0x24d0
 8696 1b37 421B0000 		.4byte	0x1b42
 8697 1b3b 1E       		.uleb128 0x1e
 8698 1b3c 01       		.uleb128 0x1
ARM GAS  C:\Users\BG1026~1\AppData\Local\Temp\cc2n2B4u.s 			page 192


 8699 1b3d 51       		.byte	0x51
 8700 1b3e 02       		.uleb128 0x2
 8701 1b3f 08       		.byte	0x8
 8702 1b40 3A       		.byte	0x3a
 8703 1b41 00       		.byte	0
 8704 1b42 21       		.uleb128 0x21
 8705 1b43 9E030000 		.4byte	.LVL434
 8706 1b47 B8070000 		.4byte	0x7b8
 8707 1b4b 5F1B0000 		.4byte	0x1b5f
 8708 1b4f 1E       		.uleb128 0x1e
 8709 1b50 01       		.uleb128 0x1
 8710 1b51 52       		.byte	0x52
 8711 1b52 05       		.uleb128 0x5
 8712 1b53 03       		.byte	0x3
 8713 1b54 AC010000 		.4byte	.LC79
 8714 1b58 1E       		.uleb128 0x1e
 8715 1b59 01       		.uleb128 0x1
 8716 1b5a 51       		.byte	0x51
 8717 1b5b 02       		.uleb128 0x2
 8718 1b5c 74       		.byte	0x74
 8719 1b5d 00       		.sleb128 0
 8720 1b5e 00       		.byte	0
 8721 1b5f 21       		.uleb128 0x21
 8722 1b60 C4030000 		.4byte	.LVL437
 8723 1b64 D0240000 		.4byte	0x24d0
 8724 1b68 731B0000 		.4byte	0x1b73
 8725 1b6c 1E       		.uleb128 0x1e
 8726 1b6d 01       		.uleb128 0x1
 8727 1b6e 51       		.byte	0x51
 8728 1b6f 02       		.uleb128 0x2
 8729 1b70 08       		.byte	0x8
 8730 1b71 22       		.byte	0x22
 8731 1b72 00       		.byte	0
 8732 1b73 21       		.uleb128 0x21
 8733 1b74 D2030000 		.4byte	.LVL439
 8734 1b78 B8070000 		.4byte	0x7b8
 8735 1b7c 901B0000 		.4byte	0x1b90
 8736 1b80 1E       		.uleb128 0x1e
 8737 1b81 01       		.uleb128 0x1
 8738 1b82 52       		.byte	0x52
 8739 1b83 05       		.uleb128 0x5
 8740 1b84 03       		.byte	0x3
 8741 1b85 AC010000 		.4byte	.LC79
 8742 1b89 1E       		.uleb128 0x1e
 8743 1b8a 01       		.uleb128 0x1
 8744 1b8b 51       		.byte	0x51
 8745 1b8c 02       		.uleb128 0x2
 8746 1b8d 74       		.byte	0x74
 8747 1b8e 00       		.sleb128 0
 8748 1b8f 00       		.byte	0
 8749 1b90 21       		.uleb128 0x21
 8750 1b91 DE030000 		.4byte	.LVL442
 8751 1b95 56050000 		.4byte	0x556
 8752 1b99 A41B0000 		.4byte	0x1ba4
 8753 1b9d 1E       		.uleb128 0x1e
 8754 1b9e 01       		.uleb128 0x1
 8755 1b9f 50       		.byte	0x50
ARM GAS  C:\Users\BG1026~1\AppData\Local\Temp\cc2n2B4u.s 			page 193


 8756 1ba0 02       		.uleb128 0x2
 8757 1ba1 75       		.byte	0x75
 8758 1ba2 00       		.sleb128 0
 8759 1ba3 00       		.byte	0
 8760 1ba4 21       		.uleb128 0x21
 8761 1ba5 EA030000 		.4byte	.LVL443
 8762 1ba9 D0240000 		.4byte	0x24d0
 8763 1bad BE1B0000 		.4byte	0x1bbe
 8764 1bb1 1E       		.uleb128 0x1e
 8765 1bb2 01       		.uleb128 0x1
 8766 1bb3 51       		.byte	0x51
 8767 1bb4 02       		.uleb128 0x2
 8768 1bb5 08       		.byte	0x8
 8769 1bb6 2D       		.byte	0x2d
 8770 1bb7 1E       		.uleb128 0x1e
 8771 1bb8 01       		.uleb128 0x1
 8772 1bb9 50       		.byte	0x50
 8773 1bba 02       		.uleb128 0x2
 8774 1bbb 75       		.byte	0x75
 8775 1bbc 00       		.sleb128 0
 8776 1bbd 00       		.byte	0
 8777 1bbe 21       		.uleb128 0x21
 8778 1bbf F8030000 		.4byte	.LVL445
 8779 1bc3 B8070000 		.4byte	0x7b8
 8780 1bc7 DB1B0000 		.4byte	0x1bdb
 8781 1bcb 1E       		.uleb128 0x1e
 8782 1bcc 01       		.uleb128 0x1
 8783 1bcd 52       		.byte	0x52
 8784 1bce 05       		.uleb128 0x5
 8785 1bcf 03       		.byte	0x3
 8786 1bd0 AC010000 		.4byte	.LC79
 8787 1bd4 1E       		.uleb128 0x1e
 8788 1bd5 01       		.uleb128 0x1
 8789 1bd6 51       		.byte	0x51
 8790 1bd7 02       		.uleb128 0x2
 8791 1bd8 74       		.byte	0x74
 8792 1bd9 00       		.sleb128 0
 8793 1bda 00       		.byte	0
 8794 1bdb 21       		.uleb128 0x21
 8795 1bdc 04040000 		.4byte	.LVL448
 8796 1be0 56050000 		.4byte	0x556
 8797 1be4 EF1B0000 		.4byte	0x1bef
 8798 1be8 1E       		.uleb128 0x1e
 8799 1be9 01       		.uleb128 0x1
 8800 1bea 50       		.byte	0x50
 8801 1beb 02       		.uleb128 0x2
 8802 1bec 75       		.byte	0x75
 8803 1bed 00       		.sleb128 0
 8804 1bee 00       		.byte	0
 8805 1bef 21       		.uleb128 0x21
 8806 1bf0 10040000 		.4byte	.LVL449
 8807 1bf4 D0240000 		.4byte	0x24d0
 8808 1bf8 091C0000 		.4byte	0x1c09
 8809 1bfc 1E       		.uleb128 0x1e
 8810 1bfd 01       		.uleb128 0x1
 8811 1bfe 51       		.byte	0x51
 8812 1bff 02       		.uleb128 0x2
ARM GAS  C:\Users\BG1026~1\AppData\Local\Temp\cc2n2B4u.s 			page 194


 8813 1c00 08       		.byte	0x8
 8814 1c01 2D       		.byte	0x2d
 8815 1c02 1E       		.uleb128 0x1e
 8816 1c03 01       		.uleb128 0x1
 8817 1c04 50       		.byte	0x50
 8818 1c05 02       		.uleb128 0x2
 8819 1c06 75       		.byte	0x75
 8820 1c07 00       		.sleb128 0
 8821 1c08 00       		.byte	0
 8822 1c09 21       		.uleb128 0x21
 8823 1c0a 1E040000 		.4byte	.LVL451
 8824 1c0e B8070000 		.4byte	0x7b8
 8825 1c12 261C0000 		.4byte	0x1c26
 8826 1c16 1E       		.uleb128 0x1e
 8827 1c17 01       		.uleb128 0x1
 8828 1c18 52       		.byte	0x52
 8829 1c19 05       		.uleb128 0x5
 8830 1c1a 03       		.byte	0x3
 8831 1c1b AC010000 		.4byte	.LC79
 8832 1c1f 1E       		.uleb128 0x1e
 8833 1c20 01       		.uleb128 0x1
 8834 1c21 51       		.byte	0x51
 8835 1c22 02       		.uleb128 0x2
 8836 1c23 74       		.byte	0x74
 8837 1c24 00       		.sleb128 0
 8838 1c25 00       		.byte	0
 8839 1c26 21       		.uleb128 0x21
 8840 1c27 2A040000 		.4byte	.LVL454
 8841 1c2b 56050000 		.4byte	0x556
 8842 1c2f 3A1C0000 		.4byte	0x1c3a
 8843 1c33 1E       		.uleb128 0x1e
 8844 1c34 01       		.uleb128 0x1
 8845 1c35 50       		.byte	0x50
 8846 1c36 02       		.uleb128 0x2
 8847 1c37 75       		.byte	0x75
 8848 1c38 00       		.sleb128 0
 8849 1c39 00       		.byte	0
 8850 1c3a 21       		.uleb128 0x21
 8851 1c3b 3A040000 		.4byte	.LVL457
 8852 1c3f D0240000 		.4byte	0x24d0
 8853 1c43 541C0000 		.4byte	0x1c54
 8854 1c47 1E       		.uleb128 0x1e
 8855 1c48 01       		.uleb128 0x1
 8856 1c49 51       		.byte	0x51
 8857 1c4a 02       		.uleb128 0x2
 8858 1c4b 08       		.byte	0x8
 8859 1c4c 2D       		.byte	0x2d
 8860 1c4d 1E       		.uleb128 0x1e
 8861 1c4e 01       		.uleb128 0x1
 8862 1c4f 50       		.byte	0x50
 8863 1c50 02       		.uleb128 0x2
 8864 1c51 75       		.byte	0x75
 8865 1c52 00       		.sleb128 0
 8866 1c53 00       		.byte	0
 8867 1c54 21       		.uleb128 0x21
 8868 1c55 48040000 		.4byte	.LVL459
 8869 1c59 B8070000 		.4byte	0x7b8
ARM GAS  C:\Users\BG1026~1\AppData\Local\Temp\cc2n2B4u.s 			page 195


 8870 1c5d 711C0000 		.4byte	0x1c71
 8871 1c61 1E       		.uleb128 0x1e
 8872 1c62 01       		.uleb128 0x1
 8873 1c63 52       		.byte	0x52
 8874 1c64 05       		.uleb128 0x5
 8875 1c65 03       		.byte	0x3
 8876 1c66 AC010000 		.4byte	.LC79
 8877 1c6a 1E       		.uleb128 0x1e
 8878 1c6b 01       		.uleb128 0x1
 8879 1c6c 51       		.byte	0x51
 8880 1c6d 02       		.uleb128 0x2
 8881 1c6e 74       		.byte	0x74
 8882 1c6f 00       		.sleb128 0
 8883 1c70 00       		.byte	0
 8884 1c71 21       		.uleb128 0x21
 8885 1c72 54040000 		.4byte	.LVL462
 8886 1c76 56050000 		.4byte	0x556
 8887 1c7a 851C0000 		.4byte	0x1c85
 8888 1c7e 1E       		.uleb128 0x1e
 8889 1c7f 01       		.uleb128 0x1
 8890 1c80 50       		.byte	0x50
 8891 1c81 02       		.uleb128 0x2
 8892 1c82 75       		.byte	0x75
 8893 1c83 00       		.sleb128 0
 8894 1c84 00       		.byte	0
 8895 1c85 21       		.uleb128 0x21
 8896 1c86 68040000 		.4byte	.LVL464
 8897 1c8a D0240000 		.4byte	0x24d0
 8898 1c8e 9F1C0000 		.4byte	0x1c9f
 8899 1c92 1E       		.uleb128 0x1e
 8900 1c93 01       		.uleb128 0x1
 8901 1c94 51       		.byte	0x51
 8902 1c95 02       		.uleb128 0x2
 8903 1c96 08       		.byte	0x8
 8904 1c97 2D       		.byte	0x2d
 8905 1c98 1E       		.uleb128 0x1e
 8906 1c99 01       		.uleb128 0x1
 8907 1c9a 50       		.byte	0x50
 8908 1c9b 02       		.uleb128 0x2
 8909 1c9c 75       		.byte	0x75
 8910 1c9d 00       		.sleb128 0
 8911 1c9e 00       		.byte	0
 8912 1c9f 21       		.uleb128 0x21
 8913 1ca0 76040000 		.4byte	.LVL466
 8914 1ca4 B8070000 		.4byte	0x7b8
 8915 1ca8 BC1C0000 		.4byte	0x1cbc
 8916 1cac 1E       		.uleb128 0x1e
 8917 1cad 01       		.uleb128 0x1
 8918 1cae 52       		.byte	0x52
 8919 1caf 05       		.uleb128 0x5
 8920 1cb0 03       		.byte	0x3
 8921 1cb1 AC010000 		.4byte	.LC79
 8922 1cb5 1E       		.uleb128 0x1e
 8923 1cb6 01       		.uleb128 0x1
 8924 1cb7 51       		.byte	0x51
 8925 1cb8 02       		.uleb128 0x2
 8926 1cb9 74       		.byte	0x74
ARM GAS  C:\Users\BG1026~1\AppData\Local\Temp\cc2n2B4u.s 			page 196


 8927 1cba 00       		.sleb128 0
 8928 1cbb 00       		.byte	0
 8929 1cbc 21       		.uleb128 0x21
 8930 1cbd 82040000 		.4byte	.LVL469
 8931 1cc1 56050000 		.4byte	0x556
 8932 1cc5 D01C0000 		.4byte	0x1cd0
 8933 1cc9 1E       		.uleb128 0x1e
 8934 1cca 01       		.uleb128 0x1
 8935 1ccb 50       		.byte	0x50
 8936 1ccc 02       		.uleb128 0x2
 8937 1ccd 75       		.byte	0x75
 8938 1cce 00       		.sleb128 0
 8939 1ccf 00       		.byte	0
 8940 1cd0 21       		.uleb128 0x21
 8941 1cd1 8E040000 		.4byte	.LVL470
 8942 1cd5 D0240000 		.4byte	0x24d0
 8943 1cd9 EA1C0000 		.4byte	0x1cea
 8944 1cdd 1E       		.uleb128 0x1e
 8945 1cde 01       		.uleb128 0x1
 8946 1cdf 51       		.byte	0x51
 8947 1ce0 02       		.uleb128 0x2
 8948 1ce1 08       		.byte	0x8
 8949 1ce2 2D       		.byte	0x2d
 8950 1ce3 1E       		.uleb128 0x1e
 8951 1ce4 01       		.uleb128 0x1
 8952 1ce5 50       		.byte	0x50
 8953 1ce6 02       		.uleb128 0x2
 8954 1ce7 75       		.byte	0x75
 8955 1ce8 00       		.sleb128 0
 8956 1ce9 00       		.byte	0
 8957 1cea 21       		.uleb128 0x21
 8958 1ceb 9C040000 		.4byte	.LVL472
 8959 1cef B8070000 		.4byte	0x7b8
 8960 1cf3 071D0000 		.4byte	0x1d07
 8961 1cf7 1E       		.uleb128 0x1e
 8962 1cf8 01       		.uleb128 0x1
 8963 1cf9 52       		.byte	0x52
 8964 1cfa 05       		.uleb128 0x5
 8965 1cfb 03       		.byte	0x3
 8966 1cfc AC010000 		.4byte	.LC79
 8967 1d00 1E       		.uleb128 0x1e
 8968 1d01 01       		.uleb128 0x1
 8969 1d02 51       		.byte	0x51
 8970 1d03 02       		.uleb128 0x2
 8971 1d04 74       		.byte	0x74
 8972 1d05 00       		.sleb128 0
 8973 1d06 00       		.byte	0
 8974 1d07 21       		.uleb128 0x21
 8975 1d08 A8040000 		.4byte	.LVL475
 8976 1d0c 56050000 		.4byte	0x556
 8977 1d10 1B1D0000 		.4byte	0x1d1b
 8978 1d14 1E       		.uleb128 0x1e
 8979 1d15 01       		.uleb128 0x1
 8980 1d16 50       		.byte	0x50
 8981 1d17 02       		.uleb128 0x2
 8982 1d18 75       		.byte	0x75
 8983 1d19 00       		.sleb128 0
ARM GAS  C:\Users\BG1026~1\AppData\Local\Temp\cc2n2B4u.s 			page 197


 8984 1d1a 00       		.byte	0
 8985 1d1b 21       		.uleb128 0x21
 8986 1d1c B4040000 		.4byte	.LVL476
 8987 1d20 D0240000 		.4byte	0x24d0
 8988 1d24 351D0000 		.4byte	0x1d35
 8989 1d28 1E       		.uleb128 0x1e
 8990 1d29 01       		.uleb128 0x1
 8991 1d2a 51       		.byte	0x51
 8992 1d2b 02       		.uleb128 0x2
 8993 1d2c 08       		.byte	0x8
 8994 1d2d 2D       		.byte	0x2d
 8995 1d2e 1E       		.uleb128 0x1e
 8996 1d2f 01       		.uleb128 0x1
 8997 1d30 50       		.byte	0x50
 8998 1d31 02       		.uleb128 0x2
 8999 1d32 75       		.byte	0x75
 9000 1d33 00       		.sleb128 0
 9001 1d34 00       		.byte	0
 9002 1d35 21       		.uleb128 0x21
 9003 1d36 C2040000 		.4byte	.LVL478
 9004 1d3a B8070000 		.4byte	0x7b8
 9005 1d3e 521D0000 		.4byte	0x1d52
 9006 1d42 1E       		.uleb128 0x1e
 9007 1d43 01       		.uleb128 0x1
 9008 1d44 52       		.byte	0x52
 9009 1d45 05       		.uleb128 0x5
 9010 1d46 03       		.byte	0x3
 9011 1d47 AC010000 		.4byte	.LC79
 9012 1d4b 1E       		.uleb128 0x1e
 9013 1d4c 01       		.uleb128 0x1
 9014 1d4d 51       		.byte	0x51
 9015 1d4e 02       		.uleb128 0x2
 9016 1d4f 74       		.byte	0x74
 9017 1d50 00       		.sleb128 0
 9018 1d51 00       		.byte	0
 9019 1d52 27       		.uleb128 0x27
 9020 1d53 CC040000 		.4byte	.LVL481
 9021 1d57 56050000 		.4byte	0x556
 9022 1d5b 21       		.uleb128 0x21
 9023 1d5c D6040000 		.4byte	.LVL482
 9024 1d60 870B0000 		.4byte	0xb87
 9025 1d64 701D0000 		.4byte	0x1d70
 9026 1d68 1E       		.uleb128 0x1e
 9027 1d69 01       		.uleb128 0x1
 9028 1d6a 50       		.byte	0x50
 9029 1d6b 03       		.uleb128 0x3
 9030 1d6c 91       		.byte	0x91
 9031 1d6d B87F     		.sleb128 -72
 9032 1d6f 00       		.byte	0
 9033 1d70 21       		.uleb128 0x21
 9034 1d71 E4040000 		.4byte	.LVL485
 9035 1d75 B8070000 		.4byte	0x7b8
 9036 1d79 921D0000 		.4byte	0x1d92
 9037 1d7d 1E       		.uleb128 0x1e
 9038 1d7e 01       		.uleb128 0x1
 9039 1d7f 52       		.byte	0x52
 9040 1d80 05       		.uleb128 0x5
ARM GAS  C:\Users\BG1026~1\AppData\Local\Temp\cc2n2B4u.s 			page 198


 9041 1d81 03       		.byte	0x3
 9042 1d82 CC010000 		.4byte	.LC81
 9043 1d86 1E       		.uleb128 0x1e
 9044 1d87 01       		.uleb128 0x1
 9045 1d88 51       		.byte	0x51
 9046 1d89 02       		.uleb128 0x2
 9047 1d8a 74       		.byte	0x74
 9048 1d8b 00       		.sleb128 0
 9049 1d8c 1E       		.uleb128 0x1e
 9050 1d8d 01       		.uleb128 0x1
 9051 1d8e 50       		.byte	0x50
 9052 1d8f 01       		.uleb128 0x1
 9053 1d90 32       		.byte	0x32
 9054 1d91 00       		.byte	0
 9055 1d92 21       		.uleb128 0x21
 9056 1d93 F0040000 		.4byte	.LVL487
 9057 1d97 D0240000 		.4byte	0x24d0
 9058 1d9b AC1D0000 		.4byte	0x1dac
 9059 1d9f 1E       		.uleb128 0x1e
 9060 1da0 01       		.uleb128 0x1
 9061 1da1 51       		.byte	0x51
 9062 1da2 02       		.uleb128 0x2
 9063 1da3 08       		.byte	0x8
 9064 1da4 2C       		.byte	0x2c
 9065 1da5 1E       		.uleb128 0x1e
 9066 1da6 01       		.uleb128 0x1
 9067 1da7 50       		.byte	0x50
 9068 1da8 02       		.uleb128 0x2
 9069 1da9 75       		.byte	0x75
 9070 1daa 00       		.sleb128 0
 9071 1dab 00       		.byte	0
 9072 1dac 21       		.uleb128 0x21
 9073 1dad FE040000 		.4byte	.LVL489
 9074 1db1 B8070000 		.4byte	0x7b8
 9075 1db5 C91D0000 		.4byte	0x1dc9
 9076 1db9 1E       		.uleb128 0x1e
 9077 1dba 01       		.uleb128 0x1
 9078 1dbb 52       		.byte	0x52
 9079 1dbc 05       		.uleb128 0x5
 9080 1dbd 03       		.byte	0x3
 9081 1dbe E4010000 		.4byte	.LC83
 9082 1dc2 1E       		.uleb128 0x1e
 9083 1dc3 01       		.uleb128 0x1
 9084 1dc4 51       		.byte	0x51
 9085 1dc5 02       		.uleb128 0x2
 9086 1dc6 74       		.byte	0x74
 9087 1dc7 00       		.sleb128 0
 9088 1dc8 00       		.byte	0
 9089 1dc9 21       		.uleb128 0x21
 9090 1dca 0A050000 		.4byte	.LVL492
 9091 1dce D0240000 		.4byte	0x24d0
 9092 1dd2 DD1D0000 		.4byte	0x1ddd
 9093 1dd6 1E       		.uleb128 0x1e
 9094 1dd7 01       		.uleb128 0x1
 9095 1dd8 51       		.byte	0x51
 9096 1dd9 02       		.uleb128 0x2
 9097 1dda 08       		.byte	0x8
ARM GAS  C:\Users\BG1026~1\AppData\Local\Temp\cc2n2B4u.s 			page 199


 9098 1ddb 3A       		.byte	0x3a
 9099 1ddc 00       		.byte	0
 9100 1ddd 21       		.uleb128 0x21
 9101 1dde 18050000 		.4byte	.LVL494
 9102 1de2 B8070000 		.4byte	0x7b8
 9103 1de6 FA1D0000 		.4byte	0x1dfa
 9104 1dea 1E       		.uleb128 0x1e
 9105 1deb 01       		.uleb128 0x1
 9106 1dec 52       		.byte	0x52
 9107 1ded 05       		.uleb128 0x5
 9108 1dee 03       		.byte	0x3
 9109 1def E4010000 		.4byte	.LC83
 9110 1df3 1E       		.uleb128 0x1e
 9111 1df4 01       		.uleb128 0x1
 9112 1df5 51       		.byte	0x51
 9113 1df6 02       		.uleb128 0x2
 9114 1df7 74       		.byte	0x74
 9115 1df8 00       		.sleb128 0
 9116 1df9 00       		.byte	0
 9117 1dfa 21       		.uleb128 0x21
 9118 1dfb 24050000 		.4byte	.LVL497
 9119 1dff 0C060000 		.4byte	0x60c
 9120 1e03 0E1E0000 		.4byte	0x1e0e
 9121 1e07 1E       		.uleb128 0x1e
 9122 1e08 01       		.uleb128 0x1
 9123 1e09 50       		.byte	0x50
 9124 1e0a 02       		.uleb128 0x2
 9125 1e0b 75       		.byte	0x75
 9126 1e0c 00       		.sleb128 0
 9127 1e0d 00       		.byte	0
 9128 1e0e 21       		.uleb128 0x21
 9129 1e0f 4E050000 		.4byte	.LVL503
 9130 1e13 D0240000 		.4byte	0x24d0
 9131 1e17 281E0000 		.4byte	0x1e28
 9132 1e1b 1E       		.uleb128 0x1e
 9133 1e1c 01       		.uleb128 0x1
 9134 1e1d 51       		.byte	0x51
 9135 1e1e 02       		.uleb128 0x2
 9136 1e1f 08       		.byte	0x8
 9137 1e20 2C       		.byte	0x2c
 9138 1e21 1E       		.uleb128 0x1e
 9139 1e22 01       		.uleb128 0x1
 9140 1e23 50       		.byte	0x50
 9141 1e24 02       		.uleb128 0x2
 9142 1e25 75       		.byte	0x75
 9143 1e26 00       		.sleb128 0
 9144 1e27 00       		.byte	0
 9145 1e28 21       		.uleb128 0x21
 9146 1e29 5C050000 		.4byte	.LVL505
 9147 1e2d B8070000 		.4byte	0x7b8
 9148 1e31 451E0000 		.4byte	0x1e45
 9149 1e35 1E       		.uleb128 0x1e
 9150 1e36 01       		.uleb128 0x1
 9151 1e37 52       		.byte	0x52
 9152 1e38 05       		.uleb128 0x5
 9153 1e39 03       		.byte	0x3
 9154 1e3a E4010000 		.4byte	.LC83
ARM GAS  C:\Users\BG1026~1\AppData\Local\Temp\cc2n2B4u.s 			page 200


 9155 1e3e 1E       		.uleb128 0x1e
 9156 1e3f 01       		.uleb128 0x1
 9157 1e40 51       		.byte	0x51
 9158 1e41 02       		.uleb128 0x2
 9159 1e42 74       		.byte	0x74
 9160 1e43 00       		.sleb128 0
 9161 1e44 00       		.byte	0
 9162 1e45 21       		.uleb128 0x21
 9163 1e46 68050000 		.4byte	.LVL508
 9164 1e4a D0240000 		.4byte	0x24d0
 9165 1e4e 591E0000 		.4byte	0x1e59
 9166 1e52 1E       		.uleb128 0x1e
 9167 1e53 01       		.uleb128 0x1
 9168 1e54 51       		.byte	0x51
 9169 1e55 02       		.uleb128 0x2
 9170 1e56 08       		.byte	0x8
 9171 1e57 3A       		.byte	0x3a
 9172 1e58 00       		.byte	0
 9173 1e59 21       		.uleb128 0x21
 9174 1e5a 76050000 		.4byte	.LVL510
 9175 1e5e B8070000 		.4byte	0x7b8
 9176 1e62 761E0000 		.4byte	0x1e76
 9177 1e66 1E       		.uleb128 0x1e
 9178 1e67 01       		.uleb128 0x1
 9179 1e68 52       		.byte	0x52
 9180 1e69 05       		.uleb128 0x5
 9181 1e6a 03       		.byte	0x3
 9182 1e6b E4010000 		.4byte	.LC83
 9183 1e6f 1E       		.uleb128 0x1e
 9184 1e70 01       		.uleb128 0x1
 9185 1e71 51       		.byte	0x51
 9186 1e72 02       		.uleb128 0x2
 9187 1e73 74       		.byte	0x74
 9188 1e74 00       		.sleb128 0
 9189 1e75 00       		.byte	0
 9190 1e76 27       		.uleb128 0x27
 9191 1e77 80050000 		.4byte	.LVL513
 9192 1e7b 56050000 		.4byte	0x556
 9193 1e7f 21       		.uleb128 0x21
 9194 1e80 92050000 		.4byte	.LVL516
 9195 1e84 B8070000 		.4byte	0x7b8
 9196 1e88 A11E0000 		.4byte	0x1ea1
 9197 1e8c 1E       		.uleb128 0x1e
 9198 1e8d 01       		.uleb128 0x1
 9199 1e8e 52       		.byte	0x52
 9200 1e8f 05       		.uleb128 0x5
 9201 1e90 03       		.byte	0x3
 9202 1e91 E4010000 		.4byte	.LC83
 9203 1e95 1E       		.uleb128 0x1e
 9204 1e96 01       		.uleb128 0x1
 9205 1e97 51       		.byte	0x51
 9206 1e98 02       		.uleb128 0x2
 9207 1e99 74       		.byte	0x74
 9208 1e9a 00       		.sleb128 0
 9209 1e9b 1E       		.uleb128 0x1e
 9210 1e9c 01       		.uleb128 0x1
 9211 1e9d 50       		.byte	0x50
ARM GAS  C:\Users\BG1026~1\AppData\Local\Temp\cc2n2B4u.s 			page 201


 9212 1e9e 01       		.uleb128 0x1
 9213 1e9f 32       		.byte	0x32
 9214 1ea0 00       		.byte	0
 9215 1ea1 21       		.uleb128 0x21
 9216 1ea2 A0050000 		.4byte	.LVL518
 9217 1ea6 B8070000 		.4byte	0x7b8
 9218 1eaa C61E0000 		.4byte	0x1ec6
 9219 1eae 1E       		.uleb128 0x1e
 9220 1eaf 01       		.uleb128 0x1
 9221 1eb0 52       		.byte	0x52
 9222 1eb1 05       		.uleb128 0x5
 9223 1eb2 03       		.byte	0x3
 9224 1eb3 08020000 		.4byte	.LC87
 9225 1eb7 1E       		.uleb128 0x1e
 9226 1eb8 01       		.uleb128 0x1
 9227 1eb9 51       		.byte	0x51
 9228 1eba 05       		.uleb128 0x5
 9229 1ebb 03       		.byte	0x3
 9230 1ebc 00020000 		.4byte	.LC85
 9231 1ec0 1E       		.uleb128 0x1e
 9232 1ec1 01       		.uleb128 0x1
 9233 1ec2 50       		.byte	0x50
 9234 1ec3 01       		.uleb128 0x1
 9235 1ec4 31       		.byte	0x31
 9236 1ec5 00       		.byte	0
 9237 1ec6 1D       		.uleb128 0x1d
 9238 1ec7 AE050000 		.4byte	.LVL521
 9239 1ecb B8070000 		.4byte	0x7b8
 9240 1ecf 1E       		.uleb128 0x1e
 9241 1ed0 01       		.uleb128 0x1
 9242 1ed1 52       		.byte	0x52
 9243 1ed2 05       		.uleb128 0x5
 9244 1ed3 03       		.byte	0x3
 9245 1ed4 10020000 		.4byte	.LC89
 9246 1ed8 1E       		.uleb128 0x1e
 9247 1ed9 01       		.uleb128 0x1
 9248 1eda 51       		.byte	0x51
 9249 1edb 02       		.uleb128 0x2
 9250 1edc 74       		.byte	0x74
 9251 1edd 00       		.sleb128 0
 9252 1ede 1E       		.uleb128 0x1e
 9253 1edf 01       		.uleb128 0x1
 9254 1ee0 50       		.byte	0x50
 9255 1ee1 01       		.uleb128 0x1
 9256 1ee2 32       		.byte	0x32
 9257 1ee3 00       		.byte	0
 9258 1ee4 00       		.byte	0
 9259 1ee5 15       		.uleb128 0x15
 9260 1ee6 77000000 		.4byte	0x77
 9261 1eea F51E0000 		.4byte	0x1ef5
 9262 1eee 16       		.uleb128 0x16
 9263 1eef CE000000 		.4byte	0xce
 9264 1ef3 17       		.byte	0x17
 9265 1ef4 00       		.byte	0
 9266 1ef5 28       		.uleb128 0x28
 9267 1ef6 AC0C0000 		.4byte	.LASF187
 9268 1efa 01       		.byte	0x1
ARM GAS  C:\Users\BG1026~1\AppData\Local\Temp\cc2n2B4u.s 			page 202


 9269 1efb 2A01     		.2byte	0x12a
 9270 1efd 5D000000 		.4byte	0x5d
 9271 1f01 00000000 		.4byte	.LFB37
 9272 1f05 94010000 		.4byte	.LFE37-.LFB37
 9273 1f09 01       		.uleb128 0x1
 9274 1f0a 9C       		.byte	0x9c
 9275 1f0b 48210000 		.4byte	0x2148
 9276 1f0f 19       		.uleb128 0x19
 9277 1f10 0C060000 		.4byte	.LASF188
 9278 1f14 01       		.byte	0x1
 9279 1f15 2C01     		.2byte	0x12c
 9280 1f17 6B000000 		.4byte	0x6b
 9281 1f1b 76130000 		.4byte	.LLST56
 9282 1f1f 19       		.uleb128 0x19
 9283 1f20 49050000 		.4byte	.LASF189
 9284 1f24 01       		.byte	0x1
 9285 1f25 2D01     		.2byte	0x12d
 9286 1f27 6B000000 		.4byte	0x6b
 9287 1f2b 95130000 		.4byte	.LLST57
 9288 1f2f 19       		.uleb128 0x19
 9289 1f30 AD090000 		.4byte	.LASF190
 9290 1f34 01       		.byte	0x1
 9291 1f35 2E01     		.2byte	0x12e
 9292 1f37 A9000000 		.4byte	0xa9
 9293 1f3b CA130000 		.4byte	.LLST58
 9294 1f3f 19       		.uleb128 0x19
 9295 1f40 36060000 		.4byte	.LASF191
 9296 1f44 01       		.byte	0x1
 9297 1f45 2F01     		.2byte	0x12f
 9298 1f47 5D000000 		.4byte	0x5d
 9299 1f4b 03140000 		.4byte	.LLST59
 9300 1f4f 25       		.uleb128 0x25
 9301 1f50 1F0C0000 		.4byte	.LASF192
 9302 1f54 01       		.byte	0x1
 9303 1f55 3001     		.2byte	0x130
 9304 1f57 D7000000 		.4byte	0xd7
 9305 1f5b 00       		.byte	0
 9306 1f5c 20       		.uleb128 0x20
 9307 1f5d 500B0000 		.4byte	.LASF193
 9308 1f61 01       		.byte	0x1
 9309 1f62 3101     		.2byte	0x131
 9310 1f64 48210000 		.4byte	0x2148
 9311 1f68 03       		.uleb128 0x3
 9312 1f69 91       		.byte	0x91
 9313 1f6a F07B     		.sleb128 -528
 9314 1f6c 27       		.uleb128 0x27
 9315 1f6d 08000000 		.4byte	.LVL524
 9316 1f71 EA240000 		.4byte	0x24ea
 9317 1f75 21       		.uleb128 0x21
 9318 1f76 0E000000 		.4byte	.LVL525
 9319 1f7a F1240000 		.4byte	0x24f1
 9320 1f7e 881F0000 		.4byte	0x1f88
 9321 1f82 1E       		.uleb128 0x1e
 9322 1f83 01       		.uleb128 0x1
 9323 1f84 50       		.byte	0x50
 9324 1f85 01       		.uleb128 0x1
 9325 1f86 30       		.byte	0x30
ARM GAS  C:\Users\BG1026~1\AppData\Local\Temp\cc2n2B4u.s 			page 203


 9326 1f87 00       		.byte	0
 9327 1f88 21       		.uleb128 0x21
 9328 1f89 14000000 		.4byte	.LVL526
 9329 1f8d AE240000 		.4byte	0x24ae
 9330 1f91 9B1F0000 		.4byte	0x1f9b
 9331 1f95 1E       		.uleb128 0x1e
 9332 1f96 01       		.uleb128 0x1
 9333 1f97 50       		.byte	0x50
 9334 1f98 01       		.uleb128 0x1
 9335 1f99 30       		.byte	0x30
 9336 1f9a 00       		.byte	0
 9337 1f9b 21       		.uleb128 0x21
 9338 1f9c 1A000000 		.4byte	.LVL527
 9339 1fa0 BF240000 		.4byte	0x24bf
 9340 1fa4 AE1F0000 		.4byte	0x1fae
 9341 1fa8 1E       		.uleb128 0x1e
 9342 1fa9 01       		.uleb128 0x1
 9343 1faa 50       		.byte	0x50
 9344 1fab 01       		.uleb128 0x1
 9345 1fac 31       		.byte	0x31
 9346 1fad 00       		.byte	0
 9347 1fae 27       		.uleb128 0x27
 9348 1faf 20000000 		.4byte	.LVL528
 9349 1fb3 15140000 		.4byte	0x1415
 9350 1fb7 27       		.uleb128 0x27
 9351 1fb8 24000000 		.4byte	.LVL529
 9352 1fbc 02250000 		.4byte	0x2502
 9353 1fc0 27       		.uleb128 0x27
 9354 1fc1 28000000 		.4byte	.LVL530
 9355 1fc5 09250000 		.4byte	0x2509
 9356 1fc9 27       		.uleb128 0x27
 9357 1fca 2C000000 		.4byte	.LVL531
 9358 1fce 14250000 		.4byte	0x2514
 9359 1fd2 21       		.uleb128 0x21
 9360 1fd3 38000000 		.4byte	.LVL532
 9361 1fd7 1F240000 		.4byte	0x241f
 9362 1fdb F21F0000 		.4byte	0x1ff2
 9363 1fdf 1E       		.uleb128 0x1e
 9364 1fe0 01       		.uleb128 0x1
 9365 1fe1 52       		.byte	0x52
 9366 1fe2 03       		.uleb128 0x3
 9367 1fe3 0A       		.byte	0xa
 9368 1fe4 0002     		.2byte	0x200
 9369 1fe6 1E       		.uleb128 0x1e
 9370 1fe7 01       		.uleb128 0x1
 9371 1fe8 51       		.byte	0x51
 9372 1fe9 01       		.uleb128 0x1
 9373 1fea 30       		.byte	0x30
 9374 1feb 1E       		.uleb128 0x1e
 9375 1fec 01       		.uleb128 0x1
 9376 1fed 50       		.byte	0x50
 9377 1fee 02       		.uleb128 0x2
 9378 1fef 7D       		.byte	0x7d
 9379 1ff0 00       		.sleb128 0
 9380 1ff1 00       		.byte	0
 9381 1ff2 27       		.uleb128 0x27
 9382 1ff3 40000000 		.4byte	.LVL534
ARM GAS  C:\Users\BG1026~1\AppData\Local\Temp\cc2n2B4u.s 			page 204


 9383 1ff7 1F250000 		.4byte	0x251f
 9384 1ffb 27       		.uleb128 0x27
 9385 1ffc 48000000 		.4byte	.LVL535
 9386 2000 2A250000 		.4byte	0x252a
 9387 2004 21       		.uleb128 0x21
 9388 2005 4E000000 		.4byte	.LVL536
 9389 2009 35250000 		.4byte	0x2535
 9390 200d 17200000 		.4byte	0x2017
 9391 2011 1E       		.uleb128 0x1e
 9392 2012 01       		.uleb128 0x1
 9393 2013 50       		.byte	0x50
 9394 2014 01       		.uleb128 0x1
 9395 2015 30       		.byte	0x30
 9396 2016 00       		.byte	0
 9397 2017 21       		.uleb128 0x21
 9398 2018 8A000000 		.4byte	.LVL538
 9399 201c 6E0A0000 		.4byte	0xa6e
 9400 2020 2E200000 		.4byte	0x202e
 9401 2024 1E       		.uleb128 0x1e
 9402 2025 01       		.uleb128 0x1
 9403 2026 51       		.byte	0x51
 9404 2027 05       		.uleb128 0x5
 9405 2028 03       		.byte	0x3
 9406 2029 24020000 		.4byte	.LC92
 9407 202d 00       		.byte	0
 9408 202e 27       		.uleb128 0x27
 9409 202f 9C000000 		.4byte	.LVL541
 9410 2033 15140000 		.4byte	0x1415
 9411 2037 21       		.uleb128 0x21
 9412 2038 A4000000 		.4byte	.LVL542
 9413 203c 55090000 		.4byte	0x955
 9414 2040 4E200000 		.4byte	0x204e
 9415 2044 1E       		.uleb128 0x1e
 9416 2045 01       		.uleb128 0x1
 9417 2046 51       		.byte	0x51
 9418 2047 05       		.uleb128 0x5
 9419 2048 03       		.byte	0x3
 9420 2049 28020000 		.4byte	.LC95
 9421 204d 00       		.byte	0
 9422 204e 27       		.uleb128 0x27
 9423 204f C8000000 		.4byte	.LVL545
 9424 2053 15140000 		.4byte	0x1415
 9425 2057 21       		.uleb128 0x21
 9426 2058 D2000000 		.4byte	.LVL546
 9427 205c 6E0A0000 		.4byte	0xa6e
 9428 2060 6E200000 		.4byte	0x206e
 9429 2064 1E       		.uleb128 0x1e
 9430 2065 01       		.uleb128 0x1
 9431 2066 51       		.byte	0x51
 9432 2067 05       		.uleb128 0x5
 9433 2068 03       		.byte	0x3
 9434 2069 24020000 		.4byte	.LC92
 9435 206d 00       		.byte	0
 9436 206e 21       		.uleb128 0x21
 9437 206f E4000000 		.4byte	.LVL547
 9438 2073 55090000 		.4byte	0x955
 9439 2077 85200000 		.4byte	0x2085
ARM GAS  C:\Users\BG1026~1\AppData\Local\Temp\cc2n2B4u.s 			page 205


 9440 207b 1E       		.uleb128 0x1e
 9441 207c 01       		.uleb128 0x1
 9442 207d 51       		.byte	0x51
 9443 207e 05       		.uleb128 0x5
 9444 207f 03       		.byte	0x3
 9445 2080 34020000 		.4byte	.LC98
 9446 2084 00       		.byte	0
 9447 2085 27       		.uleb128 0x27
 9448 2086 E8000000 		.4byte	.LVL548
 9449 208a 660D0000 		.4byte	0xd66
 9450 208e 27       		.uleb128 0x27
 9451 208f EC000000 		.4byte	.LVL549
 9452 2093 4B250000 		.4byte	0x254b
 9453 2097 21       		.uleb128 0x21
 9454 2098 16010000 		.4byte	.LVL554
 9455 209c 57250000 		.4byte	0x2557
 9456 20a0 AB200000 		.4byte	0x20ab
 9457 20a4 1E       		.uleb128 0x1e
 9458 20a5 01       		.uleb128 0x1
 9459 20a6 50       		.byte	0x50
 9460 20a7 02       		.uleb128 0x2
 9461 20a8 7D       		.byte	0x7d
 9462 20a9 00       		.sleb128 0
 9463 20aa 00       		.byte	0
 9464 20ab 21       		.uleb128 0x21
 9465 20ac 2A010000 		.4byte	.LVL555
 9466 20b0 B8070000 		.4byte	0x7b8
 9467 20b4 CD200000 		.4byte	0x20cd
 9468 20b8 1E       		.uleb128 0x1e
 9469 20b9 01       		.uleb128 0x1
 9470 20ba 52       		.byte	0x52
 9471 20bb 05       		.uleb128 0x5
 9472 20bc 03       		.byte	0x3
 9473 20bd 40020000 		.4byte	.LC100
 9474 20c1 1E       		.uleb128 0x1e
 9475 20c2 01       		.uleb128 0x1
 9476 20c3 51       		.byte	0x51
 9477 20c4 02       		.uleb128 0x2
 9478 20c5 7D       		.byte	0x7d
 9479 20c6 00       		.sleb128 0
 9480 20c7 1E       		.uleb128 0x1e
 9481 20c8 01       		.uleb128 0x1
 9482 20c9 50       		.byte	0x50
 9483 20ca 01       		.uleb128 0x1
 9484 20cb 32       		.byte	0x32
 9485 20cc 00       		.byte	0
 9486 20cd 21       		.uleb128 0x21
 9487 20ce 38010000 		.4byte	.LVL556
 9488 20d2 7D140000 		.4byte	0x147d
 9489 20d6 E1200000 		.4byte	0x20e1
 9490 20da 1E       		.uleb128 0x1e
 9491 20db 01       		.uleb128 0x1
 9492 20dc 50       		.byte	0x50
 9493 20dd 02       		.uleb128 0x2
 9494 20de 7D       		.byte	0x7d
 9495 20df 01       		.sleb128 1
 9496 20e0 00       		.byte	0
ARM GAS  C:\Users\BG1026~1\AppData\Local\Temp\cc2n2B4u.s 			page 206


 9497 20e1 21       		.uleb128 0x21
 9498 20e2 46010000 		.4byte	.LVL557
 9499 20e6 B8070000 		.4byte	0x7b8
 9500 20ea FD200000 		.4byte	0x20fd
 9501 20ee 1E       		.uleb128 0x1e
 9502 20ef 01       		.uleb128 0x1
 9503 20f0 52       		.byte	0x52
 9504 20f1 05       		.uleb128 0x5
 9505 20f2 03       		.byte	0x3
 9506 20f3 60020000 		.4byte	.LC102
 9507 20f7 1E       		.uleb128 0x1e
 9508 20f8 01       		.uleb128 0x1
 9509 20f9 51       		.byte	0x51
 9510 20fa 01       		.uleb128 0x1
 9511 20fb 30       		.byte	0x30
 9512 20fc 00       		.byte	0
 9513 20fd 21       		.uleb128 0x21
 9514 20fe 52010000 		.4byte	.LVL558
 9515 2102 B8070000 		.4byte	0x7b8
 9516 2106 1E210000 		.4byte	0x211e
 9517 210a 1E       		.uleb128 0x1e
 9518 210b 01       		.uleb128 0x1
 9519 210c 52       		.byte	0x52
 9520 210d 05       		.uleb128 0x5
 9521 210e 03       		.byte	0x3
 9522 210f 80020000 		.4byte	.LC104
 9523 2113 1E       		.uleb128 0x1e
 9524 2114 01       		.uleb128 0x1
 9525 2115 51       		.byte	0x51
 9526 2116 01       		.uleb128 0x1
 9527 2117 30       		.byte	0x30
 9528 2118 1E       		.uleb128 0x1e
 9529 2119 01       		.uleb128 0x1
 9530 211a 50       		.byte	0x50
 9531 211b 01       		.uleb128 0x1
 9532 211c 30       		.byte	0x30
 9533 211d 00       		.byte	0
 9534 211e 21       		.uleb128 0x21
 9535 211f 5E010000 		.4byte	.LVL559
 9536 2123 1F240000 		.4byte	0x241f
 9537 2127 3E210000 		.4byte	0x213e
 9538 212b 1E       		.uleb128 0x1e
 9539 212c 01       		.uleb128 0x1
 9540 212d 52       		.byte	0x52
 9541 212e 03       		.uleb128 0x3
 9542 212f 0A       		.byte	0xa
 9543 2130 0002     		.2byte	0x200
 9544 2132 1E       		.uleb128 0x1e
 9545 2133 01       		.uleb128 0x1
 9546 2134 51       		.byte	0x51
 9547 2135 01       		.uleb128 0x1
 9548 2136 30       		.byte	0x30
 9549 2137 1E       		.uleb128 0x1e
 9550 2138 01       		.uleb128 0x1
 9551 2139 50       		.byte	0x50
 9552 213a 02       		.uleb128 0x2
 9553 213b 7D       		.byte	0x7d
ARM GAS  C:\Users\BG1026~1\AppData\Local\Temp\cc2n2B4u.s 			page 207


 9554 213c 00       		.sleb128 0
 9555 213d 00       		.byte	0
 9556 213e 27       		.uleb128 0x27
 9557 213f 68010000 		.4byte	.LVL562
 9558 2143 14250000 		.4byte	0x2514
 9559 2147 00       		.byte	0
 9560 2148 15       		.uleb128 0x15
 9561 2149 A9000000 		.4byte	0xa9
 9562 214d 59210000 		.4byte	0x2159
 9563 2151 29       		.uleb128 0x29
 9564 2152 CE000000 		.4byte	0xce
 9565 2156 FF01     		.2byte	0x1ff
 9566 2158 00       		.byte	0
 9567 2159 23       		.uleb128 0x23
 9568 215a 58010000 		.4byte	.LASF194
 9569 215e 01       		.byte	0x1
 9570 215f 2505     		.2byte	0x525
 9571 2161 00000000 		.4byte	.LFB60
 9572 2165 74000000 		.4byte	.LFE60-.LFB60
 9573 2169 01       		.uleb128 0x1
 9574 216a 9C       		.byte	0x9c
 9575 216b F5210000 		.4byte	0x21f5
 9576 216f 20       		.uleb128 0x20
 9577 2170 FE090000 		.4byte	.LASF169
 9578 2174 01       		.byte	0x1
 9579 2175 2705     		.2byte	0x527
 9580 2177 77000000 		.4byte	0x77
 9581 217b 05       		.uleb128 0x5
 9582 217c 03       		.byte	0x3
 9583 217d 58000000 		.4byte	cycle.6209
 9584 2181 20       		.uleb128 0x20
 9585 2182 96020000 		.4byte	.LASF195
 9586 2186 01       		.byte	0x1
 9587 2187 2805     		.2byte	0x528
 9588 2189 77000000 		.4byte	0x77
 9589 218d 05       		.uleb128 0x5
 9590 218e 03       		.byte	0x3
 9591 218f 10000000 		.4byte	right_led.6210
 9592 2193 20       		.uleb128 0x20
 9593 2194 BE080000 		.4byte	.LASF196
 9594 2198 01       		.byte	0x1
 9595 2199 2905     		.2byte	0x529
 9596 219b 77000000 		.4byte	0x77
 9597 219f 05       		.uleb128 0x5
 9598 21a0 03       		.byte	0x3
 9599 21a1 0E000000 		.4byte	left_led.6211
 9600 21a5 20       		.uleb128 0x20
 9601 21a6 C0050000 		.4byte	.LASF197
 9602 21aa 01       		.byte	0x1
 9603 21ab 2A05     		.2byte	0x52a
 9604 21ad 6B000000 		.4byte	0x6b
 9605 21b1 05       		.uleb128 0x5
 9606 21b2 03       		.byte	0x3
 9607 21b3 12000000 		.4byte	outward.6212
 9608 21b7 19       		.uleb128 0x19
 9609 21b8 BB000000 		.4byte	.LASF172
 9610 21bc 01       		.byte	0x1
ARM GAS  C:\Users\BG1026~1\AppData\Local\Temp\cc2n2B4u.s 			page 208


 9611 21bd 2B05     		.2byte	0x52b
 9612 21bf 6B000000 		.4byte	0x6b
 9613 21c3 5C140000 		.4byte	.LLST60
 9614 21c7 27       		.uleb128 0x27
 9615 21c8 1E000000 		.4byte	.LVL565
 9616 21cc 15140000 		.4byte	0x1415
 9617 21d0 21       		.uleb128 0x21
 9618 21d1 2A000000 		.4byte	.LVL566
 9619 21d5 FF0B0000 		.4byte	0xbff
 9620 21d9 E4210000 		.4byte	0x21e4
 9621 21dd 1E       		.uleb128 0x1e
 9622 21de 01       		.uleb128 0x1
 9623 21df 51       		.byte	0x51
 9624 21e0 02       		.uleb128 0x2
 9625 21e1 75       		.byte	0x75
 9626 21e2 00       		.sleb128 0
 9627 21e3 00       		.byte	0
 9628 21e4 1D       		.uleb128 0x1d
 9629 21e5 32000000 		.4byte	.LVL567
 9630 21e9 FF0B0000 		.4byte	0xbff
 9631 21ed 1E       		.uleb128 0x1e
 9632 21ee 01       		.uleb128 0x1
 9633 21ef 51       		.byte	0x51
 9634 21f0 02       		.uleb128 0x2
 9635 21f1 75       		.byte	0x75
 9636 21f2 00       		.sleb128 0
 9637 21f3 00       		.byte	0
 9638 21f4 00       		.byte	0
 9639 21f5 1F       		.uleb128 0x1f
 9640 21f6 680B0000 		.4byte	.LASF198
 9641 21fa 01       		.byte	0x1
 9642 21fb A805     		.2byte	0x5a8
 9643 21fd 00000000 		.4byte	.LFB63
 9644 2201 20010000 		.4byte	.LFE63-.LFB63
 9645 2205 01       		.uleb128 0x1
 9646 2206 9C       		.byte	0x9c
 9647 2207 86220000 		.4byte	0x2286
 9648 220b 1B       		.uleb128 0x1b
 9649 220c 39030000 		.4byte	.LASF145
 9650 2210 01       		.byte	0x1
 9651 2211 A805     		.2byte	0x5a8
 9652 2213 77000000 		.4byte	0x77
 9653 2217 6F140000 		.4byte	.LLST61
 9654 221b 19       		.uleb128 0x19
 9655 221c 28040000 		.4byte	.LASF146
 9656 2220 01       		.byte	0x1
 9657 2221 AA05     		.2byte	0x5aa
 9658 2223 77000000 		.4byte	0x77
 9659 2227 90140000 		.4byte	.LLST62
 9660 222b 27       		.uleb128 0x27
 9661 222c 08000000 		.4byte	.LVL570
 9662 2230 15140000 		.4byte	0x1415
 9663 2234 21       		.uleb128 0x21
 9664 2235 06010000 		.4byte	.LVL571
 9665 2239 8C240000 		.4byte	0x248c
 9666 223d 50220000 		.4byte	0x2250
 9667 2241 1E       		.uleb128 0x1e
ARM GAS  C:\Users\BG1026~1\AppData\Local\Temp\cc2n2B4u.s 			page 209


 9668 2242 01       		.uleb128 0x1
 9669 2243 51       		.byte	0x51
 9670 2244 01       		.uleb128 0x1
 9671 2245 48       		.byte	0x48
 9672 2246 1E       		.uleb128 0x1e
 9673 2247 01       		.uleb128 0x1
 9674 2248 50       		.byte	0x50
 9675 2249 05       		.uleb128 0x5
 9676 224a 03       		.byte	0x3
 9677 224b 10000000 		.4byte	.LANCHOR0+16
 9678 224f 00       		.byte	0
 9679 2250 21       		.uleb128 0x21
 9680 2251 0C010000 		.4byte	.LVL572
 9681 2255 AE240000 		.4byte	0x24ae
 9682 2259 63220000 		.4byte	0x2263
 9683 225d 1E       		.uleb128 0x1e
 9684 225e 01       		.uleb128 0x1
 9685 225f 50       		.byte	0x50
 9686 2260 01       		.uleb128 0x1
 9687 2261 31       		.byte	0x31
 9688 2262 00       		.byte	0
 9689 2263 21       		.uleb128 0x21
 9690 2264 12010000 		.4byte	.LVL573
 9691 2268 BF240000 		.4byte	0x24bf
 9692 226c 76220000 		.4byte	0x2276
 9693 2270 1E       		.uleb128 0x1e
 9694 2271 01       		.uleb128 0x1
 9695 2272 50       		.byte	0x50
 9696 2273 01       		.uleb128 0x1
 9697 2274 31       		.byte	0x31
 9698 2275 00       		.byte	0
 9699 2276 1D       		.uleb128 0x1d
 9700 2277 18010000 		.4byte	.LVL574
 9701 227b AE240000 		.4byte	0x24ae
 9702 227f 1E       		.uleb128 0x1e
 9703 2280 01       		.uleb128 0x1
 9704 2281 50       		.byte	0x50
 9705 2282 01       		.uleb128 0x1
 9706 2283 30       		.byte	0x30
 9707 2284 00       		.byte	0
 9708 2285 00       		.byte	0
 9709 2286 2A       		.uleb128 0x2a
 9710 2287 F6080000 		.4byte	.LASF199
 9711 228b 01       		.byte	0x1
 9712 228c C1       		.byte	0xc1
 9713 228d F6040000 		.4byte	0x4f6
 9714 2291 05       		.uleb128 0x5
 9715 2292 03       		.byte	0x3
 9716 2293 10000000 		.4byte	led_buffer
 9717 2297 2A       		.uleb128 0x2a
 9718 2298 61050000 		.4byte	.LASF200
 9719 229c 01       		.byte	0x1
 9720 229d C2       		.byte	0xc2
 9721 229e 6B000000 		.4byte	0x6b
 9722 22a2 05       		.uleb128 0x5
 9723 22a3 03       		.byte	0x3
 9724 22a4 50000000 		.4byte	stop_anim
ARM GAS  C:\Users\BG1026~1\AppData\Local\Temp\cc2n2B4u.s 			page 210


 9725 22a8 2A       		.uleb128 0x2a
 9726 22a9 9D0A0000 		.4byte	.LASF201
 9727 22ad 01       		.byte	0x1
 9728 22ae C3       		.byte	0xc3
 9729 22af 6B000000 		.4byte	0x6b
 9730 22b3 05       		.uleb128 0x5
 9731 22b4 03       		.byte	0x3
 9732 22b5 0C000000 		.4byte	auto_anim
 9733 22b9 2A       		.uleb128 0x2a
 9734 22ba 02010000 		.4byte	.LASF202
 9735 22be 01       		.byte	0x1
 9736 22bf C4       		.byte	0xc4
 9737 22c0 6B000000 		.4byte	0x6b
 9738 22c4 05       		.uleb128 0x5
 9739 22c5 03       		.byte	0x3
 9740 22c6 08000000 		.4byte	tracker_enable
 9741 22ca 2A       		.uleb128 0x2a
 9742 22cb FF040000 		.4byte	.LASF203
 9743 22cf 01       		.byte	0x1
 9744 22d0 C5       		.byte	0xc5
 9745 22d1 5D000000 		.4byte	0x5d
 9746 22d5 05       		.uleb128 0x5
 9747 22d6 03       		.byte	0x3
 9748 22d7 54000000 		.4byte	current_callback_anim
 9749 22db 2A       		.uleb128 0x2a
 9750 22dc B2020000 		.4byte	.LASF204
 9751 22e0 01       		.byte	0x1
 9752 22e1 C6       		.byte	0xc6
 9753 22e2 77000000 		.4byte	0x77
 9754 22e6 05       		.uleb128 0x5
 9755 22e7 03       		.byte	0x3
 9756 22e8 02000000 		.4byte	cap_cur_pos
 9757 22ec 2A       		.uleb128 0x2a
 9758 22ed A6020000 		.4byte	.LASF205
 9759 22f1 01       		.byte	0x1
 9760 22f2 C7       		.byte	0xc7
 9761 22f3 77000000 		.4byte	0x77
 9762 22f7 05       		.uleb128 0x5
 9763 22f8 03       		.byte	0x3
 9764 22f9 04000000 		.4byte	cap_old_pos
 9765 22fd 2A       		.uleb128 0x2a
 9766 22fe 2F090000 		.4byte	.LASF206
 9767 2302 01       		.byte	0x1
 9768 2303 C8       		.byte	0xc8
 9769 2304 77000000 		.4byte	0x77
 9770 2308 05       		.uleb128 0x5
 9771 2309 03       		.byte	0x3
 9772 230a 06000000 		.4byte	led_pos
 9773 230e 2A       		.uleb128 0x2a
 9774 230f 930C0000 		.4byte	.LASF207
 9775 2313 01       		.byte	0x1
 9776 2314 C9       		.byte	0xc9
 9777 2315 77000000 		.4byte	0x77
 9778 2319 05       		.uleb128 0x5
 9779 231a 03       		.byte	0x3
 9780 231b 00000000 		.4byte	number_of_buttons
 9781 231f 15       		.uleb128 0x15
ARM GAS  C:\Users\BG1026~1\AppData\Local\Temp\cc2n2B4u.s 			page 211


 9782 2320 76030000 		.4byte	0x376
 9783 2324 2F230000 		.4byte	0x232f
 9784 2328 16       		.uleb128 0x16
 9785 2329 CE000000 		.4byte	0xce
 9786 232d 08       		.byte	0x8
 9787 232e 00       		.byte	0
 9788 232f 2A       		.uleb128 0x2a
 9789 2330 67030000 		.4byte	.LASF208
 9790 2334 01       		.byte	0x1
 9791 2335 CB       		.byte	0xcb
 9792 2336 40230000 		.4byte	0x2340
 9793 233a 05       		.uleb128 0x5
 9794 233b 03       		.byte	0x3
 9795 233c 28010000 		.4byte	vec_call_back_anim
 9796 2340 09       		.uleb128 0x9
 9797 2341 1F230000 		.4byte	0x231f
 9798 2345 15       		.uleb128 0x15
 9799 2346 30030000 		.4byte	0x330
 9800 234a 55230000 		.4byte	0x2355
 9801 234e 16       		.uleb128 0x16
 9802 234f CE000000 		.4byte	0xce
 9803 2353 03       		.byte	0x3
 9804 2354 00       		.byte	0
 9805 2355 2A       		.uleb128 0x2a
 9806 2356 16040000 		.4byte	.LASF209
 9807 235a 01       		.byte	0x1
 9808 235b D4       		.byte	0xd4
 9809 235c 66230000 		.4byte	0x2366
 9810 2360 05       		.uleb128 0x5
 9811 2361 03       		.byte	0x3
 9812 2362 F8000000 		.4byte	vec_anim_commands
 9813 2366 09       		.uleb128 0x9
 9814 2367 45230000 		.4byte	0x2345
 9815 236b 15       		.uleb128 0x15
 9816 236c 30030000 		.4byte	0x330
 9817 2370 7B230000 		.4byte	0x237b
 9818 2374 16       		.uleb128 0x16
 9819 2375 CE000000 		.4byte	0xce
 9820 2379 02       		.byte	0x2
 9821 237a 00       		.byte	0
 9822 237b 2A       		.uleb128 0x2a
 9823 237c C0040000 		.4byte	.LASF210
 9824 2380 01       		.byte	0x1
 9825 2381 D8       		.byte	0xd8
 9826 2382 8C230000 		.4byte	0x238c
 9827 2386 05       		.uleb128 0x5
 9828 2387 03       		.byte	0x3
 9829 2388 D4000000 		.4byte	vec_tracker_commands
 9830 238c 09       		.uleb128 0x9
 9831 238d 6B230000 		.4byte	0x236b
 9832 2391 15       		.uleb128 0x15
 9833 2392 30030000 		.4byte	0x330
 9834 2396 A1230000 		.4byte	0x23a1
 9835 239a 16       		.uleb128 0x16
 9836 239b CE000000 		.4byte	0xce
 9837 239f 04       		.byte	0x4
 9838 23a0 00       		.byte	0
ARM GAS  C:\Users\BG1026~1\AppData\Local\Temp\cc2n2B4u.s 			page 212


 9839 23a1 2A       		.uleb128 0x2a
 9840 23a2 CA0B0000 		.4byte	.LASF211
 9841 23a6 01       		.byte	0x1
 9842 23a7 DB       		.byte	0xdb
 9843 23a8 B2230000 		.4byte	0x23b2
 9844 23ac 05       		.uleb128 0x5
 9845 23ad 03       		.byte	0x3
 9846 23ae 94010000 		.4byte	vec_led_commands
 9847 23b2 09       		.uleb128 0x9
 9848 23b3 91230000 		.4byte	0x2391
 9849 23b7 15       		.uleb128 0x15
 9850 23b8 30030000 		.4byte	0x330
 9851 23bc C7230000 		.4byte	0x23c7
 9852 23c0 16       		.uleb128 0x16
 9853 23c1 CE000000 		.4byte	0xce
 9854 23c5 05       		.byte	0x5
 9855 23c6 00       		.byte	0
 9856 23c7 2A       		.uleb128 0x2a
 9857 23c8 860C0000 		.4byte	.LASF212
 9858 23cc 01       		.byte	0x1
 9859 23cd E0       		.byte	0xe0
 9860 23ce D8230000 		.4byte	0x23d8
 9861 23d2 05       		.uleb128 0x5
 9862 23d3 03       		.byte	0x3
 9863 23d4 8C000000 		.4byte	vec_commands
 9864 23d8 09       		.uleb128 0x9
 9865 23d9 B7230000 		.4byte	0x23b7
 9866 23dd 2B       		.uleb128 0x2b
 9867 23de 40080000 		.4byte	.LASF235
 9868 23e2 0F       		.byte	0xf
 9869 23e3 2D       		.byte	0x2d
 9870 23e4 DD000000 		.4byte	0xdd
 9871 23e8 2C       		.uleb128 0x2c
 9872 23e9 270B0000 		.4byte	.LASF215
 9873 23ed 04       		.byte	0x4
 9874 23ee 28       		.byte	0x28
 9875 23ef D7000000 		.4byte	0xd7
 9876 23f3 02240000 		.4byte	0x2402
 9877 23f7 2D       		.uleb128 0x2d
 9878 23f8 DD000000 		.4byte	0xdd
 9879 23fc 2D       		.uleb128 0x2d
 9880 23fd DD000000 		.4byte	0xdd
 9881 2401 00       		.byte	0
 9882 2402 2E       		.uleb128 0x2e
 9883 2403 0D020000 		.4byte	.LASF213
 9884 2407 05       		.byte	0x5
 9885 2408 2103     		.2byte	0x321
 9886 240a 14240000 		.4byte	0x2414
 9887 240e 2D       		.uleb128 0x2d
 9888 240f 14240000 		.4byte	0x2414
 9889 2413 00       		.byte	0
 9890 2414 05       		.uleb128 0x5
 9891 2415 04       		.byte	0x4
 9892 2416 1A240000 		.4byte	0x241a
 9893 241a 09       		.uleb128 0x9
 9894 241b 9D000000 		.4byte	0x9d
 9895 241f 2F       		.uleb128 0x2f
ARM GAS  C:\Users\BG1026~1\AppData\Local\Temp\cc2n2B4u.s 			page 213


 9896 2420 5B070000 		.4byte	.LASF214
 9897 2424 D5000000 		.4byte	0xd5
 9898 2428 3C240000 		.4byte	0x243c
 9899 242c 2D       		.uleb128 0x2d
 9900 242d D5000000 		.4byte	0xd5
 9901 2431 2D       		.uleb128 0x2d
 9902 2432 5D000000 		.4byte	0x5d
 9903 2436 2D       		.uleb128 0x2d
 9904 2437 CE000000 		.4byte	0xce
 9905 243b 00       		.byte	0
 9906 243c 2C       		.uleb128 0x2c
 9907 243d 8F020000 		.4byte	.LASF216
 9908 2441 04       		.byte	0x4
 9909 2442 1A       		.byte	0x1a
 9910 2443 D7000000 		.4byte	0xd7
 9911 2447 56240000 		.4byte	0x2456
 9912 244b 2D       		.uleb128 0x2d
 9913 244c D7000000 		.4byte	0xd7
 9914 2450 2D       		.uleb128 0x2d
 9915 2451 DD000000 		.4byte	0xdd
 9916 2455 00       		.byte	0
 9917 2456 30       		.uleb128 0x30
 9918 2457 14030000 		.4byte	.LASF236
 9919 245b 10       		.byte	0x10
 9920 245c 00       		.byte	0
 9921 245d FB000000 		.4byte	.LASF231
 9922 2461 64000000 		.4byte	0x64
 9923 2465 6F240000 		.4byte	0x246f
 9924 2469 2D       		.uleb128 0x2d
 9925 246a DD000000 		.4byte	0xdd
 9926 246e 00       		.byte	0
 9927 246f 2F       		.uleb128 0x2f
 9928 2470 A50C0000 		.4byte	.LASF217
 9929 2474 D5000000 		.4byte	0xd5
 9930 2478 8C240000 		.4byte	0x248c
 9931 247c 2D       		.uleb128 0x2d
 9932 247d D5000000 		.4byte	0xd5
 9933 2481 2D       		.uleb128 0x2d
 9934 2482 EE000000 		.4byte	0xee
 9935 2486 2D       		.uleb128 0x2d
 9936 2487 CE000000 		.4byte	0xce
 9937 248b 00       		.byte	0
 9938 248c 2E       		.uleb128 0x2e
 9939 248d 0F0D0000 		.4byte	.LASF218
 9940 2491 06       		.byte	0x6
 9941 2492 3B03     		.2byte	0x33b
 9942 2494 A3240000 		.4byte	0x24a3
 9943 2498 2D       		.uleb128 0x2d
 9944 2499 A3240000 		.4byte	0x24a3
 9945 249d 2D       		.uleb128 0x2d
 9946 249e 83000000 		.4byte	0x83
 9947 24a2 00       		.byte	0
 9948 24a3 05       		.uleb128 0x5
 9949 24a4 04       		.byte	0x4
 9950 24a5 A9240000 		.4byte	0x24a9
 9951 24a9 09       		.uleb128 0x9
 9952 24aa 77000000 		.4byte	0x77
ARM GAS  C:\Users\BG1026~1\AppData\Local\Temp\cc2n2B4u.s 			page 214


 9953 24ae 31       		.uleb128 0x31
 9954 24af A3030000 		.4byte	.LASF219
 9955 24b3 07       		.byte	0x7
 9956 24b4 33       		.byte	0x33
 9957 24b5 BF240000 		.4byte	0x24bf
 9958 24b9 2D       		.uleb128 0x2d
 9959 24ba 6B000000 		.4byte	0x6b
 9960 24be 00       		.byte	0
 9961 24bf 31       		.uleb128 0x31
 9962 24c0 BE020000 		.4byte	.LASF220
 9963 24c4 08       		.byte	0x8
 9964 24c5 DA       		.byte	0xda
 9965 24c6 D0240000 		.4byte	0x24d0
 9966 24ca 2D       		.uleb128 0x2d
 9967 24cb 77000000 		.4byte	0x77
 9968 24cf 00       		.byte	0
 9969 24d0 2C       		.uleb128 0x2c
 9970 24d1 28090000 		.4byte	.LASF221
 9971 24d5 04       		.byte	0x4
 9972 24d6 1B       		.byte	0x1b
 9973 24d7 D7000000 		.4byte	0xd7
 9974 24db EA240000 		.4byte	0x24ea
 9975 24df 2D       		.uleb128 0x2d
 9976 24e0 DD000000 		.4byte	0xdd
 9977 24e4 2D       		.uleb128 0x2d
 9978 24e5 5D000000 		.4byte	0x5d
 9979 24e9 00       		.byte	0
 9980 24ea 32       		.uleb128 0x32
 9981 24eb 040D0000 		.4byte	.LASF223
 9982 24ef 0A       		.byte	0xa
 9983 24f0 6E       		.byte	0x6e
 9984 24f1 31       		.uleb128 0x31
 9985 24f2 DA0A0000 		.4byte	.LASF222
 9986 24f6 09       		.byte	0x9
 9987 24f7 33       		.byte	0x33
 9988 24f8 02250000 		.4byte	0x2502
 9989 24fc 2D       		.uleb128 0x2d
 9990 24fd 6B000000 		.4byte	0x6b
 9991 2501 00       		.byte	0
 9992 2502 32       		.uleb128 0x32
 9993 2503 C10A0000 		.4byte	.LASF224
 9994 2507 0B       		.byte	0xb
 9995 2508 6E       		.byte	0x6e
 9996 2509 33       		.uleb128 0x33
 9997 250a CF010000 		.4byte	.LASF225
 9998 250e 0C       		.byte	0xc
 9999 250f 39       		.byte	0x39
 10000 2510 B0000000 		.4byte	0xb0
 10001 2514 33       		.uleb128 0x33
 10002 2515 070C0000 		.4byte	.LASF226
 10003 2519 0D       		.byte	0xd
 10004 251a 5C       		.byte	0x5c
 10005 251b B0000000 		.4byte	0xb0
 10006 251f 33       		.uleb128 0x33
 10007 2520 22020000 		.4byte	.LASF227
 10008 2524 0D       		.byte	0xd
 10009 2525 5D       		.byte	0x5d
ARM GAS  C:\Users\BG1026~1\AppData\Local\Temp\cc2n2B4u.s 			page 215


 10010 2526 83000000 		.4byte	0x83
 10011 252a 33       		.uleb128 0x33
 10012 252b EB070000 		.4byte	.LASF228
 10013 252f 0C       		.byte	0xc
 10014 2530 3D       		.byte	0x3d
 10015 2531 B0000000 		.4byte	0xb0
 10016 2535 34       		.uleb128 0x34
 10017 2536 10090000 		.4byte	.LASF229
 10018 253a 0E       		.byte	0xe
 10019 253b FF03     		.2byte	0x3ff
 10020 253d 83000000 		.4byte	0x83
 10021 2541 4B250000 		.4byte	0x254b
 10022 2545 2D       		.uleb128 0x2d
 10023 2546 83000000 		.4byte	0x83
 10024 254a 00       		.byte	0
 10025 254b 35       		.uleb128 0x35
 10026 254c 89090000 		.4byte	.LASF230
 10027 2550 05       		.byte	0x5
 10028 2551 0603     		.2byte	0x306
 10029 2553 83000000 		.4byte	0x83
 10030 2557 36       		.uleb128 0x36
 10031 2558 FB000000 		.4byte	.LASF231
 10032 255c 04       		.byte	0x4
 10033 255d 21       		.byte	0x21
 10034 255e C3000000 		.4byte	0xc3
 10035 2562 2D       		.uleb128 0x2d
 10036 2563 DD000000 		.4byte	0xdd
 10037 2567 00       		.byte	0
 10038 2568 00       		.byte	0
 10039              		.section	.debug_abbrev,"",%progbits
 10040              	.Ldebug_abbrev0:
 10041 0000 01       		.uleb128 0x1
 10042 0001 11       		.uleb128 0x11
 10043 0002 01       		.byte	0x1
 10044 0003 25       		.uleb128 0x25
 10045 0004 0E       		.uleb128 0xe
 10046 0005 13       		.uleb128 0x13
 10047 0006 0B       		.uleb128 0xb
 10048 0007 03       		.uleb128 0x3
 10049 0008 0E       		.uleb128 0xe
 10050 0009 1B       		.uleb128 0x1b
 10051 000a 0E       		.uleb128 0xe
 10052 000b 55       		.uleb128 0x55
 10053 000c 17       		.uleb128 0x17
 10054 000d 11       		.uleb128 0x11
 10055 000e 01       		.uleb128 0x1
 10056 000f 10       		.uleb128 0x10
 10057 0010 17       		.uleb128 0x17
 10058 0011 00       		.byte	0
 10059 0012 00       		.byte	0
 10060 0013 02       		.uleb128 0x2
 10061 0014 24       		.uleb128 0x24
 10062 0015 00       		.byte	0
 10063 0016 0B       		.uleb128 0xb
 10064 0017 0B       		.uleb128 0xb
 10065 0018 3E       		.uleb128 0x3e
 10066 0019 0B       		.uleb128 0xb
ARM GAS  C:\Users\BG1026~1\AppData\Local\Temp\cc2n2B4u.s 			page 216


 10067 001a 03       		.uleb128 0x3
 10068 001b 0E       		.uleb128 0xe
 10069 001c 00       		.byte	0
 10070 001d 00       		.byte	0
 10071 001e 03       		.uleb128 0x3
 10072 001f 24       		.uleb128 0x24
 10073 0020 00       		.byte	0
 10074 0021 0B       		.uleb128 0xb
 10075 0022 0B       		.uleb128 0xb
 10076 0023 3E       		.uleb128 0x3e
 10077 0024 0B       		.uleb128 0xb
 10078 0025 03       		.uleb128 0x3
 10079 0026 08       		.uleb128 0x8
 10080 0027 00       		.byte	0
 10081 0028 00       		.byte	0
 10082 0029 04       		.uleb128 0x4
 10083 002a 16       		.uleb128 0x16
 10084 002b 00       		.byte	0
 10085 002c 03       		.uleb128 0x3
 10086 002d 0E       		.uleb128 0xe
 10087 002e 3A       		.uleb128 0x3a
 10088 002f 0B       		.uleb128 0xb
 10089 0030 3B       		.uleb128 0x3b
 10090 0031 05       		.uleb128 0x5
 10091 0032 49       		.uleb128 0x49
 10092 0033 13       		.uleb128 0x13
 10093 0034 00       		.byte	0
 10094 0035 00       		.byte	0
 10095 0036 05       		.uleb128 0x5
 10096 0037 0F       		.uleb128 0xf
 10097 0038 00       		.byte	0
 10098 0039 0B       		.uleb128 0xb
 10099 003a 0B       		.uleb128 0xb
 10100 003b 49       		.uleb128 0x49
 10101 003c 13       		.uleb128 0x13
 10102 003d 00       		.byte	0
 10103 003e 00       		.byte	0
 10104 003f 06       		.uleb128 0x6
 10105 0040 15       		.uleb128 0x15
 10106 0041 00       		.byte	0
 10107 0042 27       		.uleb128 0x27
 10108 0043 19       		.uleb128 0x19
 10109 0044 00       		.byte	0
 10110 0045 00       		.byte	0
 10111 0046 07       		.uleb128 0x7
 10112 0047 16       		.uleb128 0x16
 10113 0048 00       		.byte	0
 10114 0049 03       		.uleb128 0x3
 10115 004a 0E       		.uleb128 0xe
 10116 004b 3A       		.uleb128 0x3a
 10117 004c 0B       		.uleb128 0xb
 10118 004d 3B       		.uleb128 0x3b
 10119 004e 0B       		.uleb128 0xb
 10120 004f 49       		.uleb128 0x49
 10121 0050 13       		.uleb128 0x13
 10122 0051 00       		.byte	0
 10123 0052 00       		.byte	0
ARM GAS  C:\Users\BG1026~1\AppData\Local\Temp\cc2n2B4u.s 			page 217


 10124 0053 08       		.uleb128 0x8
 10125 0054 0F       		.uleb128 0xf
 10126 0055 00       		.byte	0
 10127 0056 0B       		.uleb128 0xb
 10128 0057 0B       		.uleb128 0xb
 10129 0058 00       		.byte	0
 10130 0059 00       		.byte	0
 10131 005a 09       		.uleb128 0x9
 10132 005b 26       		.uleb128 0x26
 10133 005c 00       		.byte	0
 10134 005d 49       		.uleb128 0x49
 10135 005e 13       		.uleb128 0x13
 10136 005f 00       		.byte	0
 10137 0060 00       		.byte	0
 10138 0061 0A       		.uleb128 0xa
 10139 0062 26       		.uleb128 0x26
 10140 0063 00       		.byte	0
 10141 0064 00       		.byte	0
 10142 0065 00       		.byte	0
 10143 0066 0B       		.uleb128 0xb
 10144 0067 13       		.uleb128 0x13
 10145 0068 01       		.byte	0x1
 10146 0069 03       		.uleb128 0x3
 10147 006a 0E       		.uleb128 0xe
 10148 006b 0B       		.uleb128 0xb
 10149 006c 0B       		.uleb128 0xb
 10150 006d 3A       		.uleb128 0x3a
 10151 006e 0B       		.uleb128 0xb
 10152 006f 3B       		.uleb128 0x3b
 10153 0070 0B       		.uleb128 0xb
 10154 0071 01       		.uleb128 0x1
 10155 0072 13       		.uleb128 0x13
 10156 0073 00       		.byte	0
 10157 0074 00       		.byte	0
 10158 0075 0C       		.uleb128 0xc
 10159 0076 0D       		.uleb128 0xd
 10160 0077 00       		.byte	0
 10161 0078 03       		.uleb128 0x3
 10162 0079 08       		.uleb128 0x8
 10163 007a 3A       		.uleb128 0x3a
 10164 007b 0B       		.uleb128 0xb
 10165 007c 3B       		.uleb128 0x3b
 10166 007d 0B       		.uleb128 0xb
 10167 007e 49       		.uleb128 0x49
 10168 007f 13       		.uleb128 0x13
 10169 0080 38       		.uleb128 0x38
 10170 0081 0B       		.uleb128 0xb
 10171 0082 00       		.byte	0
 10172 0083 00       		.byte	0
 10173 0084 0D       		.uleb128 0xd
 10174 0085 0D       		.uleb128 0xd
 10175 0086 00       		.byte	0
 10176 0087 03       		.uleb128 0x3
 10177 0088 0E       		.uleb128 0xe
 10178 0089 3A       		.uleb128 0x3a
 10179 008a 0B       		.uleb128 0xb
 10180 008b 3B       		.uleb128 0x3b
ARM GAS  C:\Users\BG1026~1\AppData\Local\Temp\cc2n2B4u.s 			page 218


 10181 008c 0B       		.uleb128 0xb
 10182 008d 49       		.uleb128 0x49
 10183 008e 13       		.uleb128 0x13
 10184 008f 38       		.uleb128 0x38
 10185 0090 0B       		.uleb128 0xb
 10186 0091 00       		.byte	0
 10187 0092 00       		.byte	0
 10188 0093 0E       		.uleb128 0xe
 10189 0094 04       		.uleb128 0x4
 10190 0095 01       		.byte	0x1
 10191 0096 03       		.uleb128 0x3
 10192 0097 0E       		.uleb128 0xe
 10193 0098 0B       		.uleb128 0xb
 10194 0099 0B       		.uleb128 0xb
 10195 009a 3A       		.uleb128 0x3a
 10196 009b 0B       		.uleb128 0xb
 10197 009c 3B       		.uleb128 0x3b
 10198 009d 0B       		.uleb128 0xb
 10199 009e 01       		.uleb128 0x1
 10200 009f 13       		.uleb128 0x13
 10201 00a0 00       		.byte	0
 10202 00a1 00       		.byte	0
 10203 00a2 0F       		.uleb128 0xf
 10204 00a3 28       		.uleb128 0x28
 10205 00a4 00       		.byte	0
 10206 00a5 03       		.uleb128 0x3
 10207 00a6 0E       		.uleb128 0xe
 10208 00a7 1C       		.uleb128 0x1c
 10209 00a8 0D       		.uleb128 0xd
 10210 00a9 00       		.byte	0
 10211 00aa 00       		.byte	0
 10212 00ab 10       		.uleb128 0x10
 10213 00ac 0D       		.uleb128 0xd
 10214 00ad 00       		.byte	0
 10215 00ae 03       		.uleb128 0x3
 10216 00af 0E       		.uleb128 0xe
 10217 00b0 3A       		.uleb128 0x3a
 10218 00b1 0B       		.uleb128 0xb
 10219 00b2 3B       		.uleb128 0x3b
 10220 00b3 0B       		.uleb128 0xb
 10221 00b4 49       		.uleb128 0x49
 10222 00b5 13       		.uleb128 0x13
 10223 00b6 0B       		.uleb128 0xb
 10224 00b7 0B       		.uleb128 0xb
 10225 00b8 0D       		.uleb128 0xd
 10226 00b9 0B       		.uleb128 0xb
 10227 00ba 0C       		.uleb128 0xc
 10228 00bb 0B       		.uleb128 0xb
 10229 00bc 38       		.uleb128 0x38
 10230 00bd 0B       		.uleb128 0xb
 10231 00be 00       		.byte	0
 10232 00bf 00       		.byte	0
 10233 00c0 11       		.uleb128 0x11
 10234 00c1 2E       		.uleb128 0x2e
 10235 00c2 01       		.byte	0x1
 10236 00c3 3F       		.uleb128 0x3f
 10237 00c4 19       		.uleb128 0x19
ARM GAS  C:\Users\BG1026~1\AppData\Local\Temp\cc2n2B4u.s 			page 219


 10238 00c5 03       		.uleb128 0x3
 10239 00c6 0E       		.uleb128 0xe
 10240 00c7 3A       		.uleb128 0x3a
 10241 00c8 0B       		.uleb128 0xb
 10242 00c9 3B       		.uleb128 0x3b
 10243 00ca 0B       		.uleb128 0xb
 10244 00cb 27       		.uleb128 0x27
 10245 00cc 19       		.uleb128 0x19
 10246 00cd 49       		.uleb128 0x49
 10247 00ce 13       		.uleb128 0x13
 10248 00cf 11       		.uleb128 0x11
 10249 00d0 01       		.uleb128 0x1
 10250 00d1 12       		.uleb128 0x12
 10251 00d2 06       		.uleb128 0x6
 10252 00d3 40       		.uleb128 0x40
 10253 00d4 18       		.uleb128 0x18
 10254 00d5 9642     		.uleb128 0x2116
 10255 00d7 19       		.uleb128 0x19
 10256 00d8 01       		.uleb128 0x1
 10257 00d9 13       		.uleb128 0x13
 10258 00da 00       		.byte	0
 10259 00db 00       		.byte	0
 10260 00dc 12       		.uleb128 0x12
 10261 00dd 05       		.uleb128 0x5
 10262 00de 00       		.byte	0
 10263 00df 03       		.uleb128 0x3
 10264 00e0 08       		.uleb128 0x8
 10265 00e1 3A       		.uleb128 0x3a
 10266 00e2 0B       		.uleb128 0xb
 10267 00e3 3B       		.uleb128 0x3b
 10268 00e4 0B       		.uleb128 0xb
 10269 00e5 49       		.uleb128 0x49
 10270 00e6 13       		.uleb128 0x13
 10271 00e7 02       		.uleb128 0x2
 10272 00e8 17       		.uleb128 0x17
 10273 00e9 00       		.byte	0
 10274 00ea 00       		.byte	0
 10275 00eb 13       		.uleb128 0x13
 10276 00ec 34       		.uleb128 0x34
 10277 00ed 00       		.byte	0
 10278 00ee 03       		.uleb128 0x3
 10279 00ef 08       		.uleb128 0x8
 10280 00f0 3A       		.uleb128 0x3a
 10281 00f1 0B       		.uleb128 0xb
 10282 00f2 3B       		.uleb128 0x3b
 10283 00f3 0B       		.uleb128 0xb
 10284 00f4 49       		.uleb128 0x49
 10285 00f5 13       		.uleb128 0x13
 10286 00f6 02       		.uleb128 0x2
 10287 00f7 18       		.uleb128 0x18
 10288 00f8 00       		.byte	0
 10289 00f9 00       		.byte	0
 10290 00fa 14       		.uleb128 0x14
 10291 00fb 34       		.uleb128 0x34
 10292 00fc 00       		.byte	0
 10293 00fd 03       		.uleb128 0x3
 10294 00fe 08       		.uleb128 0x8
ARM GAS  C:\Users\BG1026~1\AppData\Local\Temp\cc2n2B4u.s 			page 220


 10295 00ff 3A       		.uleb128 0x3a
 10296 0100 0B       		.uleb128 0xb
 10297 0101 3B       		.uleb128 0x3b
 10298 0102 0B       		.uleb128 0xb
 10299 0103 49       		.uleb128 0x49
 10300 0104 13       		.uleb128 0x13
 10301 0105 02       		.uleb128 0x2
 10302 0106 17       		.uleb128 0x17
 10303 0107 00       		.byte	0
 10304 0108 00       		.byte	0
 10305 0109 15       		.uleb128 0x15
 10306 010a 01       		.uleb128 0x1
 10307 010b 01       		.byte	0x1
 10308 010c 49       		.uleb128 0x49
 10309 010d 13       		.uleb128 0x13
 10310 010e 01       		.uleb128 0x1
 10311 010f 13       		.uleb128 0x13
 10312 0110 00       		.byte	0
 10313 0111 00       		.byte	0
 10314 0112 16       		.uleb128 0x16
 10315 0113 21       		.uleb128 0x21
 10316 0114 00       		.byte	0
 10317 0115 49       		.uleb128 0x49
 10318 0116 13       		.uleb128 0x13
 10319 0117 2F       		.uleb128 0x2f
 10320 0118 0B       		.uleb128 0xb
 10321 0119 00       		.byte	0
 10322 011a 00       		.byte	0
 10323 011b 17       		.uleb128 0x17
 10324 011c 2E       		.uleb128 0x2e
 10325 011d 01       		.byte	0x1
 10326 011e 3F       		.uleb128 0x3f
 10327 011f 19       		.uleb128 0x19
 10328 0120 03       		.uleb128 0x3
 10329 0121 0E       		.uleb128 0xe
 10330 0122 3A       		.uleb128 0x3a
 10331 0123 0B       		.uleb128 0xb
 10332 0124 3B       		.uleb128 0x3b
 10333 0125 0B       		.uleb128 0xb
 10334 0126 27       		.uleb128 0x27
 10335 0127 19       		.uleb128 0x19
 10336 0128 49       		.uleb128 0x49
 10337 0129 13       		.uleb128 0x13
 10338 012a 11       		.uleb128 0x11
 10339 012b 01       		.uleb128 0x1
 10340 012c 12       		.uleb128 0x12
 10341 012d 06       		.uleb128 0x6
 10342 012e 40       		.uleb128 0x40
 10343 012f 18       		.uleb128 0x18
 10344 0130 9742     		.uleb128 0x2117
 10345 0132 19       		.uleb128 0x19
 10346 0133 01       		.uleb128 0x1
 10347 0134 13       		.uleb128 0x13
 10348 0135 00       		.byte	0
 10349 0136 00       		.byte	0
 10350 0137 18       		.uleb128 0x18
 10351 0138 05       		.uleb128 0x5
ARM GAS  C:\Users\BG1026~1\AppData\Local\Temp\cc2n2B4u.s 			page 221


 10352 0139 00       		.byte	0
 10353 013a 03       		.uleb128 0x3
 10354 013b 0E       		.uleb128 0xe
 10355 013c 3A       		.uleb128 0x3a
 10356 013d 0B       		.uleb128 0xb
 10357 013e 3B       		.uleb128 0x3b
 10358 013f 0B       		.uleb128 0xb
 10359 0140 49       		.uleb128 0x49
 10360 0141 13       		.uleb128 0x13
 10361 0142 02       		.uleb128 0x2
 10362 0143 17       		.uleb128 0x17
 10363 0144 00       		.byte	0
 10364 0145 00       		.byte	0
 10365 0146 19       		.uleb128 0x19
 10366 0147 34       		.uleb128 0x34
 10367 0148 00       		.byte	0
 10368 0149 03       		.uleb128 0x3
 10369 014a 0E       		.uleb128 0xe
 10370 014b 3A       		.uleb128 0x3a
 10371 014c 0B       		.uleb128 0xb
 10372 014d 3B       		.uleb128 0x3b
 10373 014e 05       		.uleb128 0x5
 10374 014f 49       		.uleb128 0x49
 10375 0150 13       		.uleb128 0x13
 10376 0151 02       		.uleb128 0x2
 10377 0152 17       		.uleb128 0x17
 10378 0153 00       		.byte	0
 10379 0154 00       		.byte	0
 10380 0155 1A       		.uleb128 0x1a
 10381 0156 2E       		.uleb128 0x2e
 10382 0157 01       		.byte	0x1
 10383 0158 3F       		.uleb128 0x3f
 10384 0159 19       		.uleb128 0x19
 10385 015a 03       		.uleb128 0x3
 10386 015b 0E       		.uleb128 0xe
 10387 015c 3A       		.uleb128 0x3a
 10388 015d 0B       		.uleb128 0xb
 10389 015e 3B       		.uleb128 0x3b
 10390 015f 05       		.uleb128 0x5
 10391 0160 27       		.uleb128 0x27
 10392 0161 19       		.uleb128 0x19
 10393 0162 49       		.uleb128 0x49
 10394 0163 13       		.uleb128 0x13
 10395 0164 11       		.uleb128 0x11
 10396 0165 01       		.uleb128 0x1
 10397 0166 12       		.uleb128 0x12
 10398 0167 06       		.uleb128 0x6
 10399 0168 40       		.uleb128 0x40
 10400 0169 18       		.uleb128 0x18
 10401 016a 9742     		.uleb128 0x2117
 10402 016c 19       		.uleb128 0x19
 10403 016d 01       		.uleb128 0x1
 10404 016e 13       		.uleb128 0x13
 10405 016f 00       		.byte	0
 10406 0170 00       		.byte	0
 10407 0171 1B       		.uleb128 0x1b
 10408 0172 05       		.uleb128 0x5
ARM GAS  C:\Users\BG1026~1\AppData\Local\Temp\cc2n2B4u.s 			page 222


 10409 0173 00       		.byte	0
 10410 0174 03       		.uleb128 0x3
 10411 0175 0E       		.uleb128 0xe
 10412 0176 3A       		.uleb128 0x3a
 10413 0177 0B       		.uleb128 0xb
 10414 0178 3B       		.uleb128 0x3b
 10415 0179 05       		.uleb128 0x5
 10416 017a 49       		.uleb128 0x49
 10417 017b 13       		.uleb128 0x13
 10418 017c 02       		.uleb128 0x2
 10419 017d 17       		.uleb128 0x17
 10420 017e 00       		.byte	0
 10421 017f 00       		.byte	0
 10422 0180 1C       		.uleb128 0x1c
 10423 0181 34       		.uleb128 0x34
 10424 0182 00       		.byte	0
 10425 0183 03       		.uleb128 0x3
 10426 0184 08       		.uleb128 0x8
 10427 0185 3A       		.uleb128 0x3a
 10428 0186 0B       		.uleb128 0xb
 10429 0187 3B       		.uleb128 0x3b
 10430 0188 05       		.uleb128 0x5
 10431 0189 49       		.uleb128 0x49
 10432 018a 13       		.uleb128 0x13
 10433 018b 02       		.uleb128 0x2
 10434 018c 17       		.uleb128 0x17
 10435 018d 00       		.byte	0
 10436 018e 00       		.byte	0
 10437 018f 1D       		.uleb128 0x1d
 10438 0190 898201   		.uleb128 0x4109
 10439 0193 01       		.byte	0x1
 10440 0194 11       		.uleb128 0x11
 10441 0195 01       		.uleb128 0x1
 10442 0196 31       		.uleb128 0x31
 10443 0197 13       		.uleb128 0x13
 10444 0198 00       		.byte	0
 10445 0199 00       		.byte	0
 10446 019a 1E       		.uleb128 0x1e
 10447 019b 8A8201   		.uleb128 0x410a
 10448 019e 00       		.byte	0
 10449 019f 02       		.uleb128 0x2
 10450 01a0 18       		.uleb128 0x18
 10451 01a1 9142     		.uleb128 0x2111
 10452 01a3 18       		.uleb128 0x18
 10453 01a4 00       		.byte	0
 10454 01a5 00       		.byte	0
 10455 01a6 1F       		.uleb128 0x1f
 10456 01a7 2E       		.uleb128 0x2e
 10457 01a8 01       		.byte	0x1
 10458 01a9 3F       		.uleb128 0x3f
 10459 01aa 19       		.uleb128 0x19
 10460 01ab 03       		.uleb128 0x3
 10461 01ac 0E       		.uleb128 0xe
 10462 01ad 3A       		.uleb128 0x3a
 10463 01ae 0B       		.uleb128 0xb
 10464 01af 3B       		.uleb128 0x3b
 10465 01b0 05       		.uleb128 0x5
ARM GAS  C:\Users\BG1026~1\AppData\Local\Temp\cc2n2B4u.s 			page 223


 10466 01b1 27       		.uleb128 0x27
 10467 01b2 19       		.uleb128 0x19
 10468 01b3 11       		.uleb128 0x11
 10469 01b4 01       		.uleb128 0x1
 10470 01b5 12       		.uleb128 0x12
 10471 01b6 06       		.uleb128 0x6
 10472 01b7 40       		.uleb128 0x40
 10473 01b8 18       		.uleb128 0x18
 10474 01b9 9742     		.uleb128 0x2117
 10475 01bb 19       		.uleb128 0x19
 10476 01bc 01       		.uleb128 0x1
 10477 01bd 13       		.uleb128 0x13
 10478 01be 00       		.byte	0
 10479 01bf 00       		.byte	0
 10480 01c0 20       		.uleb128 0x20
 10481 01c1 34       		.uleb128 0x34
 10482 01c2 00       		.byte	0
 10483 01c3 03       		.uleb128 0x3
 10484 01c4 0E       		.uleb128 0xe
 10485 01c5 3A       		.uleb128 0x3a
 10486 01c6 0B       		.uleb128 0xb
 10487 01c7 3B       		.uleb128 0x3b
 10488 01c8 05       		.uleb128 0x5
 10489 01c9 49       		.uleb128 0x49
 10490 01ca 13       		.uleb128 0x13
 10491 01cb 02       		.uleb128 0x2
 10492 01cc 18       		.uleb128 0x18
 10493 01cd 00       		.byte	0
 10494 01ce 00       		.byte	0
 10495 01cf 21       		.uleb128 0x21
 10496 01d0 898201   		.uleb128 0x4109
 10497 01d3 01       		.byte	0x1
 10498 01d4 11       		.uleb128 0x11
 10499 01d5 01       		.uleb128 0x1
 10500 01d6 31       		.uleb128 0x31
 10501 01d7 13       		.uleb128 0x13
 10502 01d8 01       		.uleb128 0x1
 10503 01d9 13       		.uleb128 0x13
 10504 01da 00       		.byte	0
 10505 01db 00       		.byte	0
 10506 01dc 22       		.uleb128 0x22
 10507 01dd 05       		.uleb128 0x5
 10508 01de 00       		.byte	0
 10509 01df 03       		.uleb128 0x3
 10510 01e0 08       		.uleb128 0x8
 10511 01e1 3A       		.uleb128 0x3a
 10512 01e2 0B       		.uleb128 0xb
 10513 01e3 3B       		.uleb128 0x3b
 10514 01e4 05       		.uleb128 0x5
 10515 01e5 49       		.uleb128 0x49
 10516 01e6 13       		.uleb128 0x13
 10517 01e7 02       		.uleb128 0x2
 10518 01e8 17       		.uleb128 0x17
 10519 01e9 00       		.byte	0
 10520 01ea 00       		.byte	0
 10521 01eb 23       		.uleb128 0x23
 10522 01ec 2E       		.uleb128 0x2e
ARM GAS  C:\Users\BG1026~1\AppData\Local\Temp\cc2n2B4u.s 			page 224


 10523 01ed 01       		.byte	0x1
 10524 01ee 3F       		.uleb128 0x3f
 10525 01ef 19       		.uleb128 0x19
 10526 01f0 03       		.uleb128 0x3
 10527 01f1 0E       		.uleb128 0xe
 10528 01f2 3A       		.uleb128 0x3a
 10529 01f3 0B       		.uleb128 0xb
 10530 01f4 3B       		.uleb128 0x3b
 10531 01f5 05       		.uleb128 0x5
 10532 01f6 27       		.uleb128 0x27
 10533 01f7 19       		.uleb128 0x19
 10534 01f8 11       		.uleb128 0x11
 10535 01f9 01       		.uleb128 0x1
 10536 01fa 12       		.uleb128 0x12
 10537 01fb 06       		.uleb128 0x6
 10538 01fc 40       		.uleb128 0x40
 10539 01fd 18       		.uleb128 0x18
 10540 01fe 9642     		.uleb128 0x2116
 10541 0200 19       		.uleb128 0x19
 10542 0201 01       		.uleb128 0x1
 10543 0202 13       		.uleb128 0x13
 10544 0203 00       		.byte	0
 10545 0204 00       		.byte	0
 10546 0205 24       		.uleb128 0x24
 10547 0206 34       		.uleb128 0x34
 10548 0207 00       		.byte	0
 10549 0208 03       		.uleb128 0x3
 10550 0209 08       		.uleb128 0x8
 10551 020a 3A       		.uleb128 0x3a
 10552 020b 0B       		.uleb128 0xb
 10553 020c 3B       		.uleb128 0x3b
 10554 020d 05       		.uleb128 0x5
 10555 020e 49       		.uleb128 0x49
 10556 020f 13       		.uleb128 0x13
 10557 0210 02       		.uleb128 0x2
 10558 0211 18       		.uleb128 0x18
 10559 0212 00       		.byte	0
 10560 0213 00       		.byte	0
 10561 0214 25       		.uleb128 0x25
 10562 0215 34       		.uleb128 0x34
 10563 0216 00       		.byte	0
 10564 0217 03       		.uleb128 0x3
 10565 0218 0E       		.uleb128 0xe
 10566 0219 3A       		.uleb128 0x3a
 10567 021a 0B       		.uleb128 0xb
 10568 021b 3B       		.uleb128 0x3b
 10569 021c 05       		.uleb128 0x5
 10570 021d 49       		.uleb128 0x49
 10571 021e 13       		.uleb128 0x13
 10572 021f 1C       		.uleb128 0x1c
 10573 0220 0B       		.uleb128 0xb
 10574 0221 00       		.byte	0
 10575 0222 00       		.byte	0
 10576 0223 26       		.uleb128 0x26
 10577 0224 34       		.uleb128 0x34
 10578 0225 00       		.byte	0
 10579 0226 03       		.uleb128 0x3
ARM GAS  C:\Users\BG1026~1\AppData\Local\Temp\cc2n2B4u.s 			page 225


 10580 0227 0E       		.uleb128 0xe
 10581 0228 3A       		.uleb128 0x3a
 10582 0229 0B       		.uleb128 0xb
 10583 022a 3B       		.uleb128 0x3b
 10584 022b 05       		.uleb128 0x5
 10585 022c 49       		.uleb128 0x49
 10586 022d 13       		.uleb128 0x13
 10587 022e 1C       		.uleb128 0x1c
 10588 022f 05       		.uleb128 0x5
 10589 0230 00       		.byte	0
 10590 0231 00       		.byte	0
 10591 0232 27       		.uleb128 0x27
 10592 0233 898201   		.uleb128 0x4109
 10593 0236 00       		.byte	0
 10594 0237 11       		.uleb128 0x11
 10595 0238 01       		.uleb128 0x1
 10596 0239 31       		.uleb128 0x31
 10597 023a 13       		.uleb128 0x13
 10598 023b 00       		.byte	0
 10599 023c 00       		.byte	0
 10600 023d 28       		.uleb128 0x28
 10601 023e 2E       		.uleb128 0x2e
 10602 023f 01       		.byte	0x1
 10603 0240 3F       		.uleb128 0x3f
 10604 0241 19       		.uleb128 0x19
 10605 0242 03       		.uleb128 0x3
 10606 0243 0E       		.uleb128 0xe
 10607 0244 3A       		.uleb128 0x3a
 10608 0245 0B       		.uleb128 0xb
 10609 0246 3B       		.uleb128 0x3b
 10610 0247 05       		.uleb128 0x5
 10611 0248 49       		.uleb128 0x49
 10612 0249 13       		.uleb128 0x13
 10613 024a 11       		.uleb128 0x11
 10614 024b 01       		.uleb128 0x1
 10615 024c 12       		.uleb128 0x12
 10616 024d 06       		.uleb128 0x6
 10617 024e 40       		.uleb128 0x40
 10618 024f 18       		.uleb128 0x18
 10619 0250 9642     		.uleb128 0x2116
 10620 0252 19       		.uleb128 0x19
 10621 0253 01       		.uleb128 0x1
 10622 0254 13       		.uleb128 0x13
 10623 0255 00       		.byte	0
 10624 0256 00       		.byte	0
 10625 0257 29       		.uleb128 0x29
 10626 0258 21       		.uleb128 0x21
 10627 0259 00       		.byte	0
 10628 025a 49       		.uleb128 0x49
 10629 025b 13       		.uleb128 0x13
 10630 025c 2F       		.uleb128 0x2f
 10631 025d 05       		.uleb128 0x5
 10632 025e 00       		.byte	0
 10633 025f 00       		.byte	0
 10634 0260 2A       		.uleb128 0x2a
 10635 0261 34       		.uleb128 0x34
 10636 0262 00       		.byte	0
ARM GAS  C:\Users\BG1026~1\AppData\Local\Temp\cc2n2B4u.s 			page 226


 10637 0263 03       		.uleb128 0x3
 10638 0264 0E       		.uleb128 0xe
 10639 0265 3A       		.uleb128 0x3a
 10640 0266 0B       		.uleb128 0xb
 10641 0267 3B       		.uleb128 0x3b
 10642 0268 0B       		.uleb128 0xb
 10643 0269 49       		.uleb128 0x49
 10644 026a 13       		.uleb128 0x13
 10645 026b 02       		.uleb128 0x2
 10646 026c 18       		.uleb128 0x18
 10647 026d 00       		.byte	0
 10648 026e 00       		.byte	0
 10649 026f 2B       		.uleb128 0x2b
 10650 0270 34       		.uleb128 0x34
 10651 0271 00       		.byte	0
 10652 0272 03       		.uleb128 0x3
 10653 0273 0E       		.uleb128 0xe
 10654 0274 3A       		.uleb128 0x3a
 10655 0275 0B       		.uleb128 0xb
 10656 0276 3B       		.uleb128 0x3b
 10657 0277 0B       		.uleb128 0xb
 10658 0278 49       		.uleb128 0x49
 10659 0279 13       		.uleb128 0x13
 10660 027a 3F       		.uleb128 0x3f
 10661 027b 19       		.uleb128 0x19
 10662 027c 3C       		.uleb128 0x3c
 10663 027d 19       		.uleb128 0x19
 10664 027e 00       		.byte	0
 10665 027f 00       		.byte	0
 10666 0280 2C       		.uleb128 0x2c
 10667 0281 2E       		.uleb128 0x2e
 10668 0282 01       		.byte	0x1
 10669 0283 3F       		.uleb128 0x3f
 10670 0284 19       		.uleb128 0x19
 10671 0285 03       		.uleb128 0x3
 10672 0286 0E       		.uleb128 0xe
 10673 0287 3A       		.uleb128 0x3a
 10674 0288 0B       		.uleb128 0xb
 10675 0289 3B       		.uleb128 0x3b
 10676 028a 0B       		.uleb128 0xb
 10677 028b 27       		.uleb128 0x27
 10678 028c 19       		.uleb128 0x19
 10679 028d 49       		.uleb128 0x49
 10680 028e 13       		.uleb128 0x13
 10681 028f 3C       		.uleb128 0x3c
 10682 0290 19       		.uleb128 0x19
 10683 0291 01       		.uleb128 0x1
 10684 0292 13       		.uleb128 0x13
 10685 0293 00       		.byte	0
 10686 0294 00       		.byte	0
 10687 0295 2D       		.uleb128 0x2d
 10688 0296 05       		.uleb128 0x5
 10689 0297 00       		.byte	0
 10690 0298 49       		.uleb128 0x49
 10691 0299 13       		.uleb128 0x13
 10692 029a 00       		.byte	0
 10693 029b 00       		.byte	0
ARM GAS  C:\Users\BG1026~1\AppData\Local\Temp\cc2n2B4u.s 			page 227


 10694 029c 2E       		.uleb128 0x2e
 10695 029d 2E       		.uleb128 0x2e
 10696 029e 01       		.byte	0x1
 10697 029f 3F       		.uleb128 0x3f
 10698 02a0 19       		.uleb128 0x19
 10699 02a1 03       		.uleb128 0x3
 10700 02a2 0E       		.uleb128 0xe
 10701 02a3 3A       		.uleb128 0x3a
 10702 02a4 0B       		.uleb128 0xb
 10703 02a5 3B       		.uleb128 0x3b
 10704 02a6 05       		.uleb128 0x5
 10705 02a7 27       		.uleb128 0x27
 10706 02a8 19       		.uleb128 0x19
 10707 02a9 3C       		.uleb128 0x3c
 10708 02aa 19       		.uleb128 0x19
 10709 02ab 01       		.uleb128 0x1
 10710 02ac 13       		.uleb128 0x13
 10711 02ad 00       		.byte	0
 10712 02ae 00       		.byte	0
 10713 02af 2F       		.uleb128 0x2f
 10714 02b0 2E       		.uleb128 0x2e
 10715 02b1 01       		.byte	0x1
 10716 02b2 3F       		.uleb128 0x3f
 10717 02b3 19       		.uleb128 0x19
 10718 02b4 03       		.uleb128 0x3
 10719 02b5 0E       		.uleb128 0xe
 10720 02b6 27       		.uleb128 0x27
 10721 02b7 19       		.uleb128 0x19
 10722 02b8 49       		.uleb128 0x49
 10723 02b9 13       		.uleb128 0x13
 10724 02ba 34       		.uleb128 0x34
 10725 02bb 19       		.uleb128 0x19
 10726 02bc 3C       		.uleb128 0x3c
 10727 02bd 19       		.uleb128 0x19
 10728 02be 01       		.uleb128 0x1
 10729 02bf 13       		.uleb128 0x13
 10730 02c0 00       		.byte	0
 10731 02c1 00       		.byte	0
 10732 02c2 30       		.uleb128 0x30
 10733 02c3 2E       		.uleb128 0x2e
 10734 02c4 01       		.byte	0x1
 10735 02c5 3F       		.uleb128 0x3f
 10736 02c6 19       		.uleb128 0x19
 10737 02c7 03       		.uleb128 0x3
 10738 02c8 0E       		.uleb128 0xe
 10739 02c9 3A       		.uleb128 0x3a
 10740 02ca 0B       		.uleb128 0xb
 10741 02cb 3B       		.uleb128 0x3b
 10742 02cc 0B       		.uleb128 0xb
 10743 02cd 6E       		.uleb128 0x6e
 10744 02ce 0E       		.uleb128 0xe
 10745 02cf 27       		.uleb128 0x27
 10746 02d0 19       		.uleb128 0x19
 10747 02d1 49       		.uleb128 0x49
 10748 02d2 13       		.uleb128 0x13
 10749 02d3 3C       		.uleb128 0x3c
 10750 02d4 19       		.uleb128 0x19
ARM GAS  C:\Users\BG1026~1\AppData\Local\Temp\cc2n2B4u.s 			page 228


 10751 02d5 01       		.uleb128 0x1
 10752 02d6 13       		.uleb128 0x13
 10753 02d7 00       		.byte	0
 10754 02d8 00       		.byte	0
 10755 02d9 31       		.uleb128 0x31
 10756 02da 2E       		.uleb128 0x2e
 10757 02db 01       		.byte	0x1
 10758 02dc 3F       		.uleb128 0x3f
 10759 02dd 19       		.uleb128 0x19
 10760 02de 03       		.uleb128 0x3
 10761 02df 0E       		.uleb128 0xe
 10762 02e0 3A       		.uleb128 0x3a
 10763 02e1 0B       		.uleb128 0xb
 10764 02e2 3B       		.uleb128 0x3b
 10765 02e3 0B       		.uleb128 0xb
 10766 02e4 27       		.uleb128 0x27
 10767 02e5 19       		.uleb128 0x19
 10768 02e6 3C       		.uleb128 0x3c
 10769 02e7 19       		.uleb128 0x19
 10770 02e8 01       		.uleb128 0x1
 10771 02e9 13       		.uleb128 0x13
 10772 02ea 00       		.byte	0
 10773 02eb 00       		.byte	0
 10774 02ec 32       		.uleb128 0x32
 10775 02ed 2E       		.uleb128 0x2e
 10776 02ee 00       		.byte	0
 10777 02ef 3F       		.uleb128 0x3f
 10778 02f0 19       		.uleb128 0x19
 10779 02f1 03       		.uleb128 0x3
 10780 02f2 0E       		.uleb128 0xe
 10781 02f3 3A       		.uleb128 0x3a
 10782 02f4 0B       		.uleb128 0xb
 10783 02f5 3B       		.uleb128 0x3b
 10784 02f6 0B       		.uleb128 0xb
 10785 02f7 27       		.uleb128 0x27
 10786 02f8 19       		.uleb128 0x19
 10787 02f9 3C       		.uleb128 0x3c
 10788 02fa 19       		.uleb128 0x19
 10789 02fb 00       		.byte	0
 10790 02fc 00       		.byte	0
 10791 02fd 33       		.uleb128 0x33
 10792 02fe 2E       		.uleb128 0x2e
 10793 02ff 00       		.byte	0
 10794 0300 3F       		.uleb128 0x3f
 10795 0301 19       		.uleb128 0x19
 10796 0302 03       		.uleb128 0x3
 10797 0303 0E       		.uleb128 0xe
 10798 0304 3A       		.uleb128 0x3a
 10799 0305 0B       		.uleb128 0xb
 10800 0306 3B       		.uleb128 0x3b
 10801 0307 0B       		.uleb128 0xb
 10802 0308 27       		.uleb128 0x27
 10803 0309 19       		.uleb128 0x19
 10804 030a 49       		.uleb128 0x49
 10805 030b 13       		.uleb128 0x13
 10806 030c 3C       		.uleb128 0x3c
 10807 030d 19       		.uleb128 0x19
ARM GAS  C:\Users\BG1026~1\AppData\Local\Temp\cc2n2B4u.s 			page 229


 10808 030e 00       		.byte	0
 10809 030f 00       		.byte	0
 10810 0310 34       		.uleb128 0x34
 10811 0311 2E       		.uleb128 0x2e
 10812 0312 01       		.byte	0x1
 10813 0313 3F       		.uleb128 0x3f
 10814 0314 19       		.uleb128 0x19
 10815 0315 03       		.uleb128 0x3
 10816 0316 0E       		.uleb128 0xe
 10817 0317 3A       		.uleb128 0x3a
 10818 0318 0B       		.uleb128 0xb
 10819 0319 3B       		.uleb128 0x3b
 10820 031a 05       		.uleb128 0x5
 10821 031b 27       		.uleb128 0x27
 10822 031c 19       		.uleb128 0x19
 10823 031d 49       		.uleb128 0x49
 10824 031e 13       		.uleb128 0x13
 10825 031f 3C       		.uleb128 0x3c
 10826 0320 19       		.uleb128 0x19
 10827 0321 01       		.uleb128 0x1
 10828 0322 13       		.uleb128 0x13
 10829 0323 00       		.byte	0
 10830 0324 00       		.byte	0
 10831 0325 35       		.uleb128 0x35
 10832 0326 2E       		.uleb128 0x2e
 10833 0327 00       		.byte	0
 10834 0328 3F       		.uleb128 0x3f
 10835 0329 19       		.uleb128 0x19
 10836 032a 03       		.uleb128 0x3
 10837 032b 0E       		.uleb128 0xe
 10838 032c 3A       		.uleb128 0x3a
 10839 032d 0B       		.uleb128 0xb
 10840 032e 3B       		.uleb128 0x3b
 10841 032f 05       		.uleb128 0x5
 10842 0330 27       		.uleb128 0x27
 10843 0331 19       		.uleb128 0x19
 10844 0332 49       		.uleb128 0x49
 10845 0333 13       		.uleb128 0x13
 10846 0334 3C       		.uleb128 0x3c
 10847 0335 19       		.uleb128 0x19
 10848 0336 00       		.byte	0
 10849 0337 00       		.byte	0
 10850 0338 36       		.uleb128 0x36
 10851 0339 2E       		.uleb128 0x2e
 10852 033a 01       		.byte	0x1
 10853 033b 3F       		.uleb128 0x3f
 10854 033c 19       		.uleb128 0x19
 10855 033d 03       		.uleb128 0x3
 10856 033e 0E       		.uleb128 0xe
 10857 033f 3A       		.uleb128 0x3a
 10858 0340 0B       		.uleb128 0xb
 10859 0341 3B       		.uleb128 0x3b
 10860 0342 0B       		.uleb128 0xb
 10861 0343 27       		.uleb128 0x27
 10862 0344 19       		.uleb128 0x19
 10863 0345 49       		.uleb128 0x49
 10864 0346 13       		.uleb128 0x13
ARM GAS  C:\Users\BG1026~1\AppData\Local\Temp\cc2n2B4u.s 			page 230


 10865 0347 3C       		.uleb128 0x3c
 10866 0348 19       		.uleb128 0x19
 10867 0349 00       		.byte	0
 10868 034a 00       		.byte	0
 10869 034b 00       		.byte	0
 10870              		.section	.debug_loc,"",%progbits
 10871              	.Ldebug_loc0:
 10872              	.LLST0:
 10873 0000 00000000 		.4byte	.LVL0
 10874 0004 13000000 		.4byte	.LVL4-1
 10875 0008 0100     		.2byte	0x1
 10876 000a 50       		.byte	0x50
 10877 000b 13000000 		.4byte	.LVL4-1
 10878 000f 22000000 		.4byte	.LVL6
 10879 0013 0100     		.2byte	0x1
 10880 0015 54       		.byte	0x54
 10881 0016 22000000 		.4byte	.LVL6
 10882 001a 26000000 		.4byte	.LVL7
 10883 001e 0100     		.2byte	0x1
 10884 0020 50       		.byte	0x50
 10885 0021 26000000 		.4byte	.LVL7
 10886 0025 28000000 		.4byte	.LVL8
 10887 0029 0100     		.2byte	0x1
 10888 002b 54       		.byte	0x54
 10889 002c 28000000 		.4byte	.LVL8
 10890 0030 35000000 		.4byte	.LVL11-1
 10891 0034 0100     		.2byte	0x1
 10892 0036 50       		.byte	0x50
 10893 0037 35000000 		.4byte	.LVL11-1
 10894 003b 46000000 		.4byte	.LVL13
 10895 003f 0100     		.2byte	0x1
 10896 0041 54       		.byte	0x54
 10897 0042 46000000 		.4byte	.LVL13
 10898 0046 50000000 		.4byte	.LVL15
 10899 004a 0100     		.2byte	0x1
 10900 004c 50       		.byte	0x50
 10901 004d 50000000 		.4byte	.LVL15
 10902 0051 50000000 		.4byte	.LVL16
 10903 0055 0100     		.2byte	0x1
 10904 0057 54       		.byte	0x54
 10905 0058 00000000 		.4byte	0
 10906 005c 00000000 		.4byte	0
 10907              	.LLST1:
 10908 0060 04000000 		.4byte	.LVL1
 10909 0064 0A000000 		.4byte	.LVL2
 10910 0068 0600     		.2byte	0x6
 10911 006a 03       		.byte	0x3
 10912 006b 0C000000 		.4byte	buf.5999+12
 10913 006f 9F       		.byte	0x9f
 10914 0070 0A000000 		.4byte	.LVL2
 10915 0074 28000000 		.4byte	.LVL8
 10916 0078 0100     		.2byte	0x1
 10917 007a 55       		.byte	0x55
 10918 007b 28000000 		.4byte	.LVL8
 10919 007f 2C000000 		.4byte	.LVL9
 10920 0083 0600     		.2byte	0x6
 10921 0085 03       		.byte	0x3
ARM GAS  C:\Users\BG1026~1\AppData\Local\Temp\cc2n2B4u.s 			page 231


 10922 0086 0C000000 		.4byte	buf.5999+12
 10923 008a 9F       		.byte	0x9f
 10924 008b 2C000000 		.4byte	.LVL9
 10925 008f 50000000 		.4byte	.LVL15
 10926 0093 0100     		.2byte	0x1
 10927 0095 55       		.byte	0x55
 10928 0096 50000000 		.4byte	.LVL15
 10929 009a 58000000 		.4byte	.LFE35
 10930 009e 0100     		.2byte	0x1
 10931 00a0 50       		.byte	0x50
 10932 00a1 00000000 		.4byte	0
 10933 00a5 00000000 		.4byte	0
 10934              	.LLST2:
 10935 00a9 00000000 		.4byte	.LVL17
 10936 00ad 06000000 		.4byte	.LVL19
 10937 00b1 0100     		.2byte	0x1
 10938 00b3 50       		.byte	0x50
 10939 00b4 06000000 		.4byte	.LVL19
 10940 00b8 46000000 		.4byte	.LVL30
 10941 00bc 0100     		.2byte	0x1
 10942 00be 50       		.byte	0x50
 10943 00bf 48000000 		.4byte	.LVL31
 10944 00c3 4A000000 		.4byte	.LVL32
 10945 00c7 0100     		.2byte	0x1
 10946 00c9 50       		.byte	0x50
 10947 00ca 00000000 		.4byte	0
 10948 00ce 00000000 		.4byte	0
 10949              	.LLST3:
 10950 00d2 02000000 		.4byte	.LVL18
 10951 00d6 2C000000 		.4byte	.LVL25
 10952 00da 0200     		.2byte	0x2
 10953 00dc 30       		.byte	0x30
 10954 00dd 9F       		.byte	0x9f
 10955 00de 2C000000 		.4byte	.LVL25
 10956 00e2 38000000 		.4byte	.LVL27
 10957 00e6 0100     		.2byte	0x1
 10958 00e8 53       		.byte	0x53
 10959 00e9 3C000000 		.4byte	.LVL28
 10960 00ed 50000000 		.4byte	.LFE36
 10961 00f1 0100     		.2byte	0x1
 10962 00f3 53       		.byte	0x53
 10963 00f4 00000000 		.4byte	0
 10964 00f8 00000000 		.4byte	0
 10965              	.LLST4:
 10966 00fc 02000000 		.4byte	.LVL18
 10967 0100 2C000000 		.4byte	.LVL25
 10968 0104 0200     		.2byte	0x2
 10969 0106 30       		.byte	0x30
 10970 0107 9F       		.byte	0x9f
 10971 0108 30000000 		.4byte	.LVL26
 10972 010c 50000000 		.4byte	.LFE36
 10973 0110 0100     		.2byte	0x1
 10974 0112 52       		.byte	0x52
 10975 0113 00000000 		.4byte	0
 10976 0117 00000000 		.4byte	0
 10977              	.LLST5:
 10978 011b 02000000 		.4byte	.LVL18
ARM GAS  C:\Users\BG1026~1\AppData\Local\Temp\cc2n2B4u.s 			page 232


 10979 011f 18000000 		.4byte	.LVL20
 10980 0123 0200     		.2byte	0x2
 10981 0125 30       		.byte	0x30
 10982 0126 9F       		.byte	0x9f
 10983 0127 18000000 		.4byte	.LVL20
 10984 012b 1E000000 		.4byte	.LVL22
 10985 012f 0200     		.2byte	0x2
 10986 0131 31       		.byte	0x31
 10987 0132 9F       		.byte	0x9f
 10988 0133 1E000000 		.4byte	.LVL22
 10989 0137 2A000000 		.4byte	.LVL24
 10990 013b 0200     		.2byte	0x2
 10991 013d 30       		.byte	0x30
 10992 013e 9F       		.byte	0x9f
 10993 013f 2C000000 		.4byte	.LVL25
 10994 0143 4A000000 		.4byte	.LVL33
 10995 0147 0100     		.2byte	0x1
 10996 0149 54       		.byte	0x54
 10997 014a 00000000 		.4byte	0
 10998 014e 00000000 		.4byte	0
 10999              	.LLST6:
 11000 0152 00000000 		.4byte	.LVL34
 11001 0156 08000000 		.4byte	.LVL36
 11002 015a 0100     		.2byte	0x1
 11003 015c 50       		.byte	0x50
 11004 015d 08000000 		.4byte	.LVL36
 11005 0161 32000000 		.4byte	.LVL42
 11006 0165 0100     		.2byte	0x1
 11007 0167 54       		.byte	0x54
 11008 0168 32000000 		.4byte	.LVL42
 11009 016c 38000000 		.4byte	.LFE38
 11010 0170 0400     		.2byte	0x4
 11011 0172 F3       		.byte	0xf3
 11012 0173 01       		.uleb128 0x1
 11013 0174 50       		.byte	0x50
 11014 0175 9F       		.byte	0x9f
 11015 0176 00000000 		.4byte	0
 11016 017a 00000000 		.4byte	0
 11017              	.LLST7:
 11018 017e 04000000 		.4byte	.LVL35
 11019 0182 08000000 		.4byte	.LVL36
 11020 0186 0200     		.2byte	0x2
 11021 0188 30       		.byte	0x30
 11022 0189 9F       		.byte	0x9f
 11023 018a 08000000 		.4byte	.LVL36
 11024 018e 22000000 		.4byte	.LVL38
 11025 0192 0100     		.2byte	0x1
 11026 0194 55       		.byte	0x55
 11027 0195 2A000000 		.4byte	.LVL39
 11028 0199 32000000 		.4byte	.LVL41
 11029 019d 0100     		.2byte	0x1
 11030 019f 55       		.byte	0x55
 11031 01a0 00000000 		.4byte	0
 11032 01a4 00000000 		.4byte	0
 11033              	.LLST8:
 11034 01a8 00000000 		.4byte	.LVL43
 11035 01ac 08000000 		.4byte	.LVL45
ARM GAS  C:\Users\BG1026~1\AppData\Local\Temp\cc2n2B4u.s 			page 233


 11036 01b0 0100     		.2byte	0x1
 11037 01b2 50       		.byte	0x50
 11038 01b3 08000000 		.4byte	.LVL45
 11039 01b7 36000000 		.4byte	.LVL51
 11040 01bb 0100     		.2byte	0x1
 11041 01bd 54       		.byte	0x54
 11042 01be 36000000 		.4byte	.LVL51
 11043 01c2 3C000000 		.4byte	.LFE39
 11044 01c6 0400     		.2byte	0x4
 11045 01c8 F3       		.byte	0xf3
 11046 01c9 01       		.uleb128 0x1
 11047 01ca 50       		.byte	0x50
 11048 01cb 9F       		.byte	0x9f
 11049 01cc 00000000 		.4byte	0
 11050 01d0 00000000 		.4byte	0
 11051              	.LLST9:
 11052 01d4 04000000 		.4byte	.LVL44
 11053 01d8 08000000 		.4byte	.LVL45
 11054 01dc 0200     		.2byte	0x2
 11055 01de 30       		.byte	0x30
 11056 01df 9F       		.byte	0x9f
 11057 01e0 08000000 		.4byte	.LVL45
 11058 01e4 22000000 		.4byte	.LVL47
 11059 01e8 0100     		.2byte	0x1
 11060 01ea 55       		.byte	0x55
 11061 01eb 2E000000 		.4byte	.LVL48
 11062 01ef 36000000 		.4byte	.LVL50
 11063 01f3 0100     		.2byte	0x1
 11064 01f5 55       		.byte	0x55
 11065 01f6 00000000 		.4byte	0
 11066 01fa 00000000 		.4byte	0
 11067              	.LLST10:
 11068 01fe 00000000 		.4byte	.LVL52
 11069 0202 08000000 		.4byte	.LVL54
 11070 0206 0100     		.2byte	0x1
 11071 0208 50       		.byte	0x50
 11072 0209 08000000 		.4byte	.LVL54
 11073 020d 36000000 		.4byte	.LVL60
 11074 0211 0100     		.2byte	0x1
 11075 0213 54       		.byte	0x54
 11076 0214 36000000 		.4byte	.LVL60
 11077 0218 3C000000 		.4byte	.LFE40
 11078 021c 0400     		.2byte	0x4
 11079 021e F3       		.byte	0xf3
 11080 021f 01       		.uleb128 0x1
 11081 0220 50       		.byte	0x50
 11082 0221 9F       		.byte	0x9f
 11083 0222 00000000 		.4byte	0
 11084 0226 00000000 		.4byte	0
 11085              	.LLST11:
 11086 022a 04000000 		.4byte	.LVL53
 11087 022e 08000000 		.4byte	.LVL54
 11088 0232 0200     		.2byte	0x2
 11089 0234 30       		.byte	0x30
 11090 0235 9F       		.byte	0x9f
 11091 0236 08000000 		.4byte	.LVL54
 11092 023a 22000000 		.4byte	.LVL56
ARM GAS  C:\Users\BG1026~1\AppData\Local\Temp\cc2n2B4u.s 			page 234


 11093 023e 0100     		.2byte	0x1
 11094 0240 55       		.byte	0x55
 11095 0241 2E000000 		.4byte	.LVL57
 11096 0245 36000000 		.4byte	.LVL59
 11097 0249 0100     		.2byte	0x1
 11098 024b 55       		.byte	0x55
 11099 024c 00000000 		.4byte	0
 11100 0250 00000000 		.4byte	0
 11101              	.LLST12:
 11102 0254 00000000 		.4byte	.LVL61
 11103 0258 08000000 		.4byte	.LVL63
 11104 025c 0100     		.2byte	0x1
 11105 025e 50       		.byte	0x50
 11106 025f 08000000 		.4byte	.LVL63
 11107 0263 34000000 		.4byte	.LVL69
 11108 0267 0100     		.2byte	0x1
 11109 0269 54       		.byte	0x54
 11110 026a 34000000 		.4byte	.LVL69
 11111 026e 3C000000 		.4byte	.LFE41
 11112 0272 0400     		.2byte	0x4
 11113 0274 F3       		.byte	0xf3
 11114 0275 01       		.uleb128 0x1
 11115 0276 50       		.byte	0x50
 11116 0277 9F       		.byte	0x9f
 11117 0278 00000000 		.4byte	0
 11118 027c 00000000 		.4byte	0
 11119              	.LLST13:
 11120 0280 04000000 		.4byte	.LVL62
 11121 0284 08000000 		.4byte	.LVL63
 11122 0288 0200     		.2byte	0x2
 11123 028a 30       		.byte	0x30
 11124 028b 9F       		.byte	0x9f
 11125 028c 08000000 		.4byte	.LVL63
 11126 0290 22000000 		.4byte	.LVL65
 11127 0294 0100     		.2byte	0x1
 11128 0296 55       		.byte	0x55
 11129 0297 2C000000 		.4byte	.LVL66
 11130 029b 34000000 		.4byte	.LVL68
 11131 029f 0100     		.2byte	0x1
 11132 02a1 55       		.byte	0x55
 11133 02a2 00000000 		.4byte	0
 11134 02a6 00000000 		.4byte	0
 11135              	.LLST14:
 11136 02aa 00000000 		.4byte	.LVL70
 11137 02ae 08000000 		.4byte	.LVL72
 11138 02b2 0100     		.2byte	0x1
 11139 02b4 50       		.byte	0x50
 11140 02b5 08000000 		.4byte	.LVL72
 11141 02b9 34000000 		.4byte	.LVL78
 11142 02bd 0100     		.2byte	0x1
 11143 02bf 54       		.byte	0x54
 11144 02c0 34000000 		.4byte	.LVL78
 11145 02c4 3C000000 		.4byte	.LFE42
 11146 02c8 0400     		.2byte	0x4
 11147 02ca F3       		.byte	0xf3
 11148 02cb 01       		.uleb128 0x1
 11149 02cc 50       		.byte	0x50
ARM GAS  C:\Users\BG1026~1\AppData\Local\Temp\cc2n2B4u.s 			page 235


 11150 02cd 9F       		.byte	0x9f
 11151 02ce 00000000 		.4byte	0
 11152 02d2 00000000 		.4byte	0
 11153              	.LLST15:
 11154 02d6 04000000 		.4byte	.LVL71
 11155 02da 08000000 		.4byte	.LVL72
 11156 02de 0200     		.2byte	0x2
 11157 02e0 30       		.byte	0x30
 11158 02e1 9F       		.byte	0x9f
 11159 02e2 08000000 		.4byte	.LVL72
 11160 02e6 22000000 		.4byte	.LVL74
 11161 02ea 0100     		.2byte	0x1
 11162 02ec 55       		.byte	0x55
 11163 02ed 2C000000 		.4byte	.LVL75
 11164 02f1 34000000 		.4byte	.LVL77
 11165 02f5 0100     		.2byte	0x1
 11166 02f7 55       		.byte	0x55
 11167 02f8 00000000 		.4byte	0
 11168 02fc 00000000 		.4byte	0
 11169              	.LLST16:
 11170 0300 00000000 		.4byte	.LVL79
 11171 0304 05000000 		.4byte	.LVL80-1
 11172 0308 0100     		.2byte	0x1
 11173 030a 50       		.byte	0x50
 11174 030b 05000000 		.4byte	.LVL80-1
 11175 030f 08000000 		.4byte	.LFE47
 11176 0313 0400     		.2byte	0x4
 11177 0315 F3       		.byte	0xf3
 11178 0316 01       		.uleb128 0x1
 11179 0317 50       		.byte	0x50
 11180 0318 9F       		.byte	0x9f
 11181 0319 00000000 		.4byte	0
 11182 031d 00000000 		.4byte	0
 11183              	.LLST17:
 11184 0321 00000000 		.4byte	.LVL81
 11185 0325 1A000000 		.4byte	.LVL83
 11186 0329 0100     		.2byte	0x1
 11187 032b 50       		.byte	0x50
 11188 032c 1A000000 		.4byte	.LVL83
 11189 0330 B0000000 		.4byte	.LFE44
 11190 0334 0400     		.2byte	0x4
 11191 0336 F3       		.byte	0xf3
 11192 0337 01       		.uleb128 0x1
 11193 0338 50       		.byte	0x50
 11194 0339 9F       		.byte	0x9f
 11195 033a 00000000 		.4byte	0
 11196 033e 00000000 		.4byte	0
 11197              	.LLST18:
 11198 0342 00000000 		.4byte	.LVL81
 11199 0346 1A000000 		.4byte	.LVL83
 11200 034a 0100     		.2byte	0x1
 11201 034c 51       		.byte	0x51
 11202 034d 1A000000 		.4byte	.LVL83
 11203 0351 96000000 		.4byte	.LVL95
 11204 0355 0100     		.2byte	0x1
 11205 0357 56       		.byte	0x56
 11206 0358 96000000 		.4byte	.LVL95
ARM GAS  C:\Users\BG1026~1\AppData\Local\Temp\cc2n2B4u.s 			page 236


 11207 035c B0000000 		.4byte	.LFE44
 11208 0360 0400     		.2byte	0x4
 11209 0362 F3       		.byte	0xf3
 11210 0363 01       		.uleb128 0x1
 11211 0364 51       		.byte	0x51
 11212 0365 9F       		.byte	0x9f
 11213 0366 00000000 		.4byte	0
 11214 036a 00000000 		.4byte	0
 11215              	.LLST19:
 11216 036e 00000000 		.4byte	.LVL81
 11217 0372 12000000 		.4byte	.LVL82
 11218 0376 0100     		.2byte	0x1
 11219 0378 52       		.byte	0x52
 11220 0379 12000000 		.4byte	.LVL82
 11221 037d B0000000 		.4byte	.LFE44
 11222 0381 0300     		.2byte	0x3
 11223 0383 91       		.byte	0x91
 11224 0384 CC7D     		.sleb128 -308
 11225 0386 00000000 		.4byte	0
 11226 038a 00000000 		.4byte	0
 11227              	.LLST20:
 11228 038e 00000000 		.4byte	.LVL96
 11229 0392 0C000000 		.4byte	.LVL97
 11230 0396 0100     		.2byte	0x1
 11231 0398 50       		.byte	0x50
 11232 0399 0C000000 		.4byte	.LVL97
 11233 039d 72000000 		.4byte	.LVL108
 11234 03a1 0100     		.2byte	0x1
 11235 03a3 56       		.byte	0x56
 11236 03a4 72000000 		.4byte	.LVL108
 11237 03a8 84000000 		.4byte	.LFE45
 11238 03ac 0400     		.2byte	0x4
 11239 03ae F3       		.byte	0xf3
 11240 03af 01       		.uleb128 0x1
 11241 03b0 50       		.byte	0x50
 11242 03b1 9F       		.byte	0x9f
 11243 03b2 00000000 		.4byte	0
 11244 03b6 00000000 		.4byte	0
 11245              	.LLST21:
 11246 03ba 00000000 		.4byte	.LVL96
 11247 03be 0E000000 		.4byte	.LVL98
 11248 03c2 0100     		.2byte	0x1
 11249 03c4 51       		.byte	0x51
 11250 03c5 0E000000 		.4byte	.LVL98
 11251 03c9 72000000 		.4byte	.LVL107
 11252 03cd 0100     		.2byte	0x1
 11253 03cf 55       		.byte	0x55
 11254 03d0 72000000 		.4byte	.LVL107
 11255 03d4 84000000 		.4byte	.LFE45
 11256 03d8 0400     		.2byte	0x4
 11257 03da F3       		.byte	0xf3
 11258 03db 01       		.uleb128 0x1
 11259 03dc 51       		.byte	0x51
 11260 03dd 9F       		.byte	0x9f
 11261 03de 00000000 		.4byte	0
 11262 03e2 00000000 		.4byte	0
 11263              	.LLST22:
ARM GAS  C:\Users\BG1026~1\AppData\Local\Temp\cc2n2B4u.s 			page 237


 11264 03e6 00000000 		.4byte	.LVL109
 11265 03ea 0C000000 		.4byte	.LVL110
 11266 03ee 0100     		.2byte	0x1
 11267 03f0 50       		.byte	0x50
 11268 03f1 0C000000 		.4byte	.LVL110
 11269 03f5 66000000 		.4byte	.LVL122
 11270 03f9 0100     		.2byte	0x1
 11271 03fb 56       		.byte	0x56
 11272 03fc 66000000 		.4byte	.LVL122
 11273 0400 74000000 		.4byte	.LFE46
 11274 0404 0400     		.2byte	0x4
 11275 0406 F3       		.byte	0xf3
 11276 0407 01       		.uleb128 0x1
 11277 0408 50       		.byte	0x50
 11278 0409 9F       		.byte	0x9f
 11279 040a 00000000 		.4byte	0
 11280 040e 00000000 		.4byte	0
 11281              	.LLST23:
 11282 0412 00000000 		.4byte	.LVL109
 11283 0416 0E000000 		.4byte	.LVL111
 11284 041a 0100     		.2byte	0x1
 11285 041c 51       		.byte	0x51
 11286 041d 0E000000 		.4byte	.LVL111
 11287 0421 66000000 		.4byte	.LVL121
 11288 0425 0100     		.2byte	0x1
 11289 0427 55       		.byte	0x55
 11290 0428 66000000 		.4byte	.LVL121
 11291 042c 74000000 		.4byte	.LFE46
 11292 0430 0400     		.2byte	0x4
 11293 0432 F3       		.byte	0xf3
 11294 0433 01       		.uleb128 0x1
 11295 0434 51       		.byte	0x51
 11296 0435 9F       		.byte	0x9f
 11297 0436 00000000 		.4byte	0
 11298 043a 00000000 		.4byte	0
 11299              	.LLST24:
 11300 043e 00000000 		.4byte	.LVL123
 11301 0442 88010000 		.4byte	.LVL124
 11302 0446 0100     		.2byte	0x1
 11303 0448 50       		.byte	0x50
 11304 0449 88010000 		.4byte	.LVL124
 11305 044d A8010000 		.4byte	.LFE61
 11306 0451 0400     		.2byte	0x4
 11307 0453 F3       		.byte	0xf3
 11308 0454 01       		.uleb128 0x1
 11309 0455 50       		.byte	0x50
 11310 0456 9F       		.byte	0x9f
 11311 0457 00000000 		.4byte	0
 11312 045b 00000000 		.4byte	0
 11313              	.LLST25:
 11314 045f 00000000 		.4byte	.LVL129
 11315 0463 08000000 		.4byte	.LVL131
 11316 0467 0100     		.2byte	0x1
 11317 0469 50       		.byte	0x50
 11318 046a 08000000 		.4byte	.LVL131
 11319 046e 0A000000 		.4byte	.LVL132
 11320 0472 0400     		.2byte	0x4
ARM GAS  C:\Users\BG1026~1\AppData\Local\Temp\cc2n2B4u.s 			page 238


 11321 0474 F3       		.byte	0xf3
 11322 0475 01       		.uleb128 0x1
 11323 0476 50       		.byte	0x50
 11324 0477 9F       		.byte	0x9f
 11325 0478 0A000000 		.4byte	.LVL132
 11326 047c 0C000000 		.4byte	.LVL133
 11327 0480 0100     		.2byte	0x1
 11328 0482 50       		.byte	0x50
 11329 0483 0C000000 		.4byte	.LVL133
 11330 0487 F0010000 		.4byte	.LFE62
 11331 048b 0400     		.2byte	0x4
 11332 048d F3       		.byte	0xf3
 11333 048e 01       		.uleb128 0x1
 11334 048f 50       		.byte	0x50
 11335 0490 9F       		.byte	0x9f
 11336 0491 00000000 		.4byte	0
 11337 0495 00000000 		.4byte	0
 11338              	.LLST26:
 11339 0499 00000000 		.4byte	.LVL129
 11340 049d 1E000000 		.4byte	.LVL135
 11341 04a1 0100     		.2byte	0x1
 11342 04a3 51       		.byte	0x51
 11343 04a4 1E000000 		.4byte	.LVL135
 11344 04a8 2C000000 		.4byte	.LVL136
 11345 04ac 0400     		.2byte	0x4
 11346 04ae F3       		.byte	0xf3
 11347 04af 01       		.uleb128 0x1
 11348 04b0 51       		.byte	0x51
 11349 04b1 9F       		.byte	0x9f
 11350 04b2 2C000000 		.4byte	.LVL136
 11351 04b6 30000000 		.4byte	.LVL137
 11352 04ba 0100     		.2byte	0x1
 11353 04bc 51       		.byte	0x51
 11354 04bd 30000000 		.4byte	.LVL137
 11355 04c1 3E000000 		.4byte	.LVL138
 11356 04c5 0400     		.2byte	0x4
 11357 04c7 F3       		.byte	0xf3
 11358 04c8 01       		.uleb128 0x1
 11359 04c9 51       		.byte	0x51
 11360 04ca 9F       		.byte	0x9f
 11361 04cb 3E000000 		.4byte	.LVL138
 11362 04cf 42000000 		.4byte	.LVL139
 11363 04d3 0100     		.2byte	0x1
 11364 04d5 51       		.byte	0x51
 11365 04d6 42000000 		.4byte	.LVL139
 11366 04da 50000000 		.4byte	.LVL140
 11367 04de 0400     		.2byte	0x4
 11368 04e0 F3       		.byte	0xf3
 11369 04e1 01       		.uleb128 0x1
 11370 04e2 51       		.byte	0x51
 11371 04e3 9F       		.byte	0x9f
 11372 04e4 50000000 		.4byte	.LVL140
 11373 04e8 54000000 		.4byte	.LVL141
 11374 04ec 0100     		.2byte	0x1
 11375 04ee 51       		.byte	0x51
 11376 04ef 54000000 		.4byte	.LVL141
 11377 04f3 62000000 		.4byte	.LVL142
ARM GAS  C:\Users\BG1026~1\AppData\Local\Temp\cc2n2B4u.s 			page 239


 11378 04f7 0400     		.2byte	0x4
 11379 04f9 F3       		.byte	0xf3
 11380 04fa 01       		.uleb128 0x1
 11381 04fb 51       		.byte	0x51
 11382 04fc 9F       		.byte	0x9f
 11383 04fd 62000000 		.4byte	.LVL142
 11384 0501 66000000 		.4byte	.LVL143
 11385 0505 0100     		.2byte	0x1
 11386 0507 51       		.byte	0x51
 11387 0508 66000000 		.4byte	.LVL143
 11388 050c 74000000 		.4byte	.LVL144
 11389 0510 0400     		.2byte	0x4
 11390 0512 F3       		.byte	0xf3
 11391 0513 01       		.uleb128 0x1
 11392 0514 51       		.byte	0x51
 11393 0515 9F       		.byte	0x9f
 11394 0516 74000000 		.4byte	.LVL144
 11395 051a 78000000 		.4byte	.LVL145
 11396 051e 0100     		.2byte	0x1
 11397 0520 51       		.byte	0x51
 11398 0521 78000000 		.4byte	.LVL145
 11399 0525 86000000 		.4byte	.LVL146
 11400 0529 0400     		.2byte	0x4
 11401 052b F3       		.byte	0xf3
 11402 052c 01       		.uleb128 0x1
 11403 052d 51       		.byte	0x51
 11404 052e 9F       		.byte	0x9f
 11405 052f 86000000 		.4byte	.LVL146
 11406 0533 8A000000 		.4byte	.LVL147
 11407 0537 0100     		.2byte	0x1
 11408 0539 51       		.byte	0x51
 11409 053a 8A000000 		.4byte	.LVL147
 11410 053e 98000000 		.4byte	.LVL148
 11411 0542 0400     		.2byte	0x4
 11412 0544 F3       		.byte	0xf3
 11413 0545 01       		.uleb128 0x1
 11414 0546 51       		.byte	0x51
 11415 0547 9F       		.byte	0x9f
 11416 0548 98000000 		.4byte	.LVL148
 11417 054c 9C000000 		.4byte	.LVL149
 11418 0550 0100     		.2byte	0x1
 11419 0552 51       		.byte	0x51
 11420 0553 9C000000 		.4byte	.LVL149
 11421 0557 AA000000 		.4byte	.LVL150
 11422 055b 0400     		.2byte	0x4
 11423 055d F3       		.byte	0xf3
 11424 055e 01       		.uleb128 0x1
 11425 055f 51       		.byte	0x51
 11426 0560 9F       		.byte	0x9f
 11427 0561 AA000000 		.4byte	.LVL150
 11428 0565 AE000000 		.4byte	.LVL151
 11429 0569 0100     		.2byte	0x1
 11430 056b 51       		.byte	0x51
 11431 056c AE000000 		.4byte	.LVL151
 11432 0570 BC000000 		.4byte	.LVL152
 11433 0574 0400     		.2byte	0x4
 11434 0576 F3       		.byte	0xf3
ARM GAS  C:\Users\BG1026~1\AppData\Local\Temp\cc2n2B4u.s 			page 240


 11435 0577 01       		.uleb128 0x1
 11436 0578 51       		.byte	0x51
 11437 0579 9F       		.byte	0x9f
 11438 057a BC000000 		.4byte	.LVL152
 11439 057e C0000000 		.4byte	.LVL153
 11440 0582 0100     		.2byte	0x1
 11441 0584 51       		.byte	0x51
 11442 0585 C0000000 		.4byte	.LVL153
 11443 0589 CE000000 		.4byte	.LVL154
 11444 058d 0400     		.2byte	0x4
 11445 058f F3       		.byte	0xf3
 11446 0590 01       		.uleb128 0x1
 11447 0591 51       		.byte	0x51
 11448 0592 9F       		.byte	0x9f
 11449 0593 CE000000 		.4byte	.LVL154
 11450 0597 D2000000 		.4byte	.LVL155
 11451 059b 0100     		.2byte	0x1
 11452 059d 51       		.byte	0x51
 11453 059e D2000000 		.4byte	.LVL155
 11454 05a2 E0000000 		.4byte	.LVL156
 11455 05a6 0400     		.2byte	0x4
 11456 05a8 F3       		.byte	0xf3
 11457 05a9 01       		.uleb128 0x1
 11458 05aa 51       		.byte	0x51
 11459 05ab 9F       		.byte	0x9f
 11460 05ac E0000000 		.4byte	.LVL156
 11461 05b0 E4000000 		.4byte	.LVL157
 11462 05b4 0100     		.2byte	0x1
 11463 05b6 51       		.byte	0x51
 11464 05b7 E4000000 		.4byte	.LVL157
 11465 05bb F2000000 		.4byte	.LVL158
 11466 05bf 0400     		.2byte	0x4
 11467 05c1 F3       		.byte	0xf3
 11468 05c2 01       		.uleb128 0x1
 11469 05c3 51       		.byte	0x51
 11470 05c4 9F       		.byte	0x9f
 11471 05c5 F2000000 		.4byte	.LVL158
 11472 05c9 F6000000 		.4byte	.LVL159
 11473 05cd 0100     		.2byte	0x1
 11474 05cf 51       		.byte	0x51
 11475 05d0 F6000000 		.4byte	.LVL159
 11476 05d4 04010000 		.4byte	.LVL160
 11477 05d8 0400     		.2byte	0x4
 11478 05da F3       		.byte	0xf3
 11479 05db 01       		.uleb128 0x1
 11480 05dc 51       		.byte	0x51
 11481 05dd 9F       		.byte	0x9f
 11482 05de 04010000 		.4byte	.LVL160
 11483 05e2 08010000 		.4byte	.LVL161
 11484 05e6 0100     		.2byte	0x1
 11485 05e8 51       		.byte	0x51
 11486 05e9 08010000 		.4byte	.LVL161
 11487 05ed 16010000 		.4byte	.LVL162
 11488 05f1 0400     		.2byte	0x4
 11489 05f3 F3       		.byte	0xf3
 11490 05f4 01       		.uleb128 0x1
 11491 05f5 51       		.byte	0x51
ARM GAS  C:\Users\BG1026~1\AppData\Local\Temp\cc2n2B4u.s 			page 241


 11492 05f6 9F       		.byte	0x9f
 11493 05f7 16010000 		.4byte	.LVL162
 11494 05fb 1A010000 		.4byte	.LVL163
 11495 05ff 0100     		.2byte	0x1
 11496 0601 51       		.byte	0x51
 11497 0602 1A010000 		.4byte	.LVL163
 11498 0606 28010000 		.4byte	.LVL164
 11499 060a 0400     		.2byte	0x4
 11500 060c F3       		.byte	0xf3
 11501 060d 01       		.uleb128 0x1
 11502 060e 51       		.byte	0x51
 11503 060f 9F       		.byte	0x9f
 11504 0610 28010000 		.4byte	.LVL164
 11505 0614 2C010000 		.4byte	.LVL165
 11506 0618 0100     		.2byte	0x1
 11507 061a 51       		.byte	0x51
 11508 061b 2C010000 		.4byte	.LVL165
 11509 061f 3A010000 		.4byte	.LVL166
 11510 0623 0400     		.2byte	0x4
 11511 0625 F3       		.byte	0xf3
 11512 0626 01       		.uleb128 0x1
 11513 0627 51       		.byte	0x51
 11514 0628 9F       		.byte	0x9f
 11515 0629 3A010000 		.4byte	.LVL166
 11516 062d 3E010000 		.4byte	.LVL167
 11517 0631 0100     		.2byte	0x1
 11518 0633 51       		.byte	0x51
 11519 0634 3E010000 		.4byte	.LVL167
 11520 0638 4C010000 		.4byte	.LVL168
 11521 063c 0400     		.2byte	0x4
 11522 063e F3       		.byte	0xf3
 11523 063f 01       		.uleb128 0x1
 11524 0640 51       		.byte	0x51
 11525 0641 9F       		.byte	0x9f
 11526 0642 4C010000 		.4byte	.LVL168
 11527 0646 50010000 		.4byte	.LVL169
 11528 064a 0100     		.2byte	0x1
 11529 064c 51       		.byte	0x51
 11530 064d 50010000 		.4byte	.LVL169
 11531 0651 5E010000 		.4byte	.LVL170
 11532 0655 0400     		.2byte	0x4
 11533 0657 F3       		.byte	0xf3
 11534 0658 01       		.uleb128 0x1
 11535 0659 51       		.byte	0x51
 11536 065a 9F       		.byte	0x9f
 11537 065b 5E010000 		.4byte	.LVL170
 11538 065f 62010000 		.4byte	.LVL171
 11539 0663 0100     		.2byte	0x1
 11540 0665 51       		.byte	0x51
 11541 0666 62010000 		.4byte	.LVL171
 11542 066a 70010000 		.4byte	.LVL172
 11543 066e 0400     		.2byte	0x4
 11544 0670 F3       		.byte	0xf3
 11545 0671 01       		.uleb128 0x1
 11546 0672 51       		.byte	0x51
 11547 0673 9F       		.byte	0x9f
 11548 0674 70010000 		.4byte	.LVL172
ARM GAS  C:\Users\BG1026~1\AppData\Local\Temp\cc2n2B4u.s 			page 242


 11549 0678 74010000 		.4byte	.LVL173
 11550 067c 0100     		.2byte	0x1
 11551 067e 51       		.byte	0x51
 11552 067f 74010000 		.4byte	.LVL173
 11553 0683 82010000 		.4byte	.LVL174
 11554 0687 0400     		.2byte	0x4
 11555 0689 F3       		.byte	0xf3
 11556 068a 01       		.uleb128 0x1
 11557 068b 51       		.byte	0x51
 11558 068c 9F       		.byte	0x9f
 11559 068d 82010000 		.4byte	.LVL174
 11560 0691 86010000 		.4byte	.LVL175
 11561 0695 0100     		.2byte	0x1
 11562 0697 51       		.byte	0x51
 11563 0698 86010000 		.4byte	.LVL175
 11564 069c 94010000 		.4byte	.LVL176
 11565 06a0 0400     		.2byte	0x4
 11566 06a2 F3       		.byte	0xf3
 11567 06a3 01       		.uleb128 0x1
 11568 06a4 51       		.byte	0x51
 11569 06a5 9F       		.byte	0x9f
 11570 06a6 94010000 		.4byte	.LVL176
 11571 06aa 98010000 		.4byte	.LVL177
 11572 06ae 0100     		.2byte	0x1
 11573 06b0 51       		.byte	0x51
 11574 06b1 98010000 		.4byte	.LVL177
 11575 06b5 A6010000 		.4byte	.LVL178
 11576 06b9 0400     		.2byte	0x4
 11577 06bb F3       		.byte	0xf3
 11578 06bc 01       		.uleb128 0x1
 11579 06bd 51       		.byte	0x51
 11580 06be 9F       		.byte	0x9f
 11581 06bf A6010000 		.4byte	.LVL178
 11582 06c3 AA010000 		.4byte	.LVL179
 11583 06c7 0100     		.2byte	0x1
 11584 06c9 51       		.byte	0x51
 11585 06ca AA010000 		.4byte	.LVL179
 11586 06ce B8010000 		.4byte	.LVL180
 11587 06d2 0400     		.2byte	0x4
 11588 06d4 F3       		.byte	0xf3
 11589 06d5 01       		.uleb128 0x1
 11590 06d6 51       		.byte	0x51
 11591 06d7 9F       		.byte	0x9f
 11592 06d8 B8010000 		.4byte	.LVL180
 11593 06dc BC010000 		.4byte	.LVL181
 11594 06e0 0100     		.2byte	0x1
 11595 06e2 51       		.byte	0x51
 11596 06e3 BC010000 		.4byte	.LVL181
 11597 06e7 F0010000 		.4byte	.LFE62
 11598 06eb 0400     		.2byte	0x4
 11599 06ed F3       		.byte	0xf3
 11600 06ee 01       		.uleb128 0x1
 11601 06ef 51       		.byte	0x51
 11602 06f0 9F       		.byte	0x9f
 11603 06f1 00000000 		.4byte	0
 11604 06f5 00000000 		.4byte	0
 11605              	.LLST27:
ARM GAS  C:\Users\BG1026~1\AppData\Local\Temp\cc2n2B4u.s 			page 243


 11606 06f9 02000000 		.4byte	.LVL130
 11607 06fd 1E000000 		.4byte	.LVL135
 11608 0701 0100     		.2byte	0x1
 11609 0703 51       		.byte	0x51
 11610 0704 1E000000 		.4byte	.LVL135
 11611 0708 2C000000 		.4byte	.LVL136
 11612 070c 0400     		.2byte	0x4
 11613 070e F3       		.byte	0xf3
 11614 070f 01       		.uleb128 0x1
 11615 0710 51       		.byte	0x51
 11616 0711 9F       		.byte	0x9f
 11617 0712 2C000000 		.4byte	.LVL136
 11618 0716 30000000 		.4byte	.LVL137
 11619 071a 0100     		.2byte	0x1
 11620 071c 51       		.byte	0x51
 11621 071d 30000000 		.4byte	.LVL137
 11622 0721 3E000000 		.4byte	.LVL138
 11623 0725 0400     		.2byte	0x4
 11624 0727 F3       		.byte	0xf3
 11625 0728 01       		.uleb128 0x1
 11626 0729 51       		.byte	0x51
 11627 072a 9F       		.byte	0x9f
 11628 072b 3E000000 		.4byte	.LVL138
 11629 072f 42000000 		.4byte	.LVL139
 11630 0733 0100     		.2byte	0x1
 11631 0735 51       		.byte	0x51
 11632 0736 42000000 		.4byte	.LVL139
 11633 073a 50000000 		.4byte	.LVL140
 11634 073e 0400     		.2byte	0x4
 11635 0740 F3       		.byte	0xf3
 11636 0741 01       		.uleb128 0x1
 11637 0742 51       		.byte	0x51
 11638 0743 9F       		.byte	0x9f
 11639 0744 50000000 		.4byte	.LVL140
 11640 0748 54000000 		.4byte	.LVL141
 11641 074c 0100     		.2byte	0x1
 11642 074e 51       		.byte	0x51
 11643 074f 54000000 		.4byte	.LVL141
 11644 0753 62000000 		.4byte	.LVL142
 11645 0757 0400     		.2byte	0x4
 11646 0759 F3       		.byte	0xf3
 11647 075a 01       		.uleb128 0x1
 11648 075b 51       		.byte	0x51
 11649 075c 9F       		.byte	0x9f
 11650 075d 62000000 		.4byte	.LVL142
 11651 0761 66000000 		.4byte	.LVL143
 11652 0765 0100     		.2byte	0x1
 11653 0767 51       		.byte	0x51
 11654 0768 66000000 		.4byte	.LVL143
 11655 076c 74000000 		.4byte	.LVL144
 11656 0770 0400     		.2byte	0x4
 11657 0772 F3       		.byte	0xf3
 11658 0773 01       		.uleb128 0x1
 11659 0774 51       		.byte	0x51
 11660 0775 9F       		.byte	0x9f
 11661 0776 74000000 		.4byte	.LVL144
 11662 077a 78000000 		.4byte	.LVL145
ARM GAS  C:\Users\BG1026~1\AppData\Local\Temp\cc2n2B4u.s 			page 244


 11663 077e 0100     		.2byte	0x1
 11664 0780 51       		.byte	0x51
 11665 0781 78000000 		.4byte	.LVL145
 11666 0785 86000000 		.4byte	.LVL146
 11667 0789 0400     		.2byte	0x4
 11668 078b F3       		.byte	0xf3
 11669 078c 01       		.uleb128 0x1
 11670 078d 51       		.byte	0x51
 11671 078e 9F       		.byte	0x9f
 11672 078f 86000000 		.4byte	.LVL146
 11673 0793 8A000000 		.4byte	.LVL147
 11674 0797 0100     		.2byte	0x1
 11675 0799 51       		.byte	0x51
 11676 079a 8A000000 		.4byte	.LVL147
 11677 079e 98000000 		.4byte	.LVL148
 11678 07a2 0400     		.2byte	0x4
 11679 07a4 F3       		.byte	0xf3
 11680 07a5 01       		.uleb128 0x1
 11681 07a6 51       		.byte	0x51
 11682 07a7 9F       		.byte	0x9f
 11683 07a8 98000000 		.4byte	.LVL148
 11684 07ac 9C000000 		.4byte	.LVL149
 11685 07b0 0100     		.2byte	0x1
 11686 07b2 51       		.byte	0x51
 11687 07b3 9C000000 		.4byte	.LVL149
 11688 07b7 AA000000 		.4byte	.LVL150
 11689 07bb 0400     		.2byte	0x4
 11690 07bd F3       		.byte	0xf3
 11691 07be 01       		.uleb128 0x1
 11692 07bf 51       		.byte	0x51
 11693 07c0 9F       		.byte	0x9f
 11694 07c1 AA000000 		.4byte	.LVL150
 11695 07c5 AE000000 		.4byte	.LVL151
 11696 07c9 0100     		.2byte	0x1
 11697 07cb 51       		.byte	0x51
 11698 07cc AE000000 		.4byte	.LVL151
 11699 07d0 BC000000 		.4byte	.LVL152
 11700 07d4 0400     		.2byte	0x4
 11701 07d6 F3       		.byte	0xf3
 11702 07d7 01       		.uleb128 0x1
 11703 07d8 51       		.byte	0x51
 11704 07d9 9F       		.byte	0x9f
 11705 07da BC000000 		.4byte	.LVL152
 11706 07de C0000000 		.4byte	.LVL153
 11707 07e2 0100     		.2byte	0x1
 11708 07e4 51       		.byte	0x51
 11709 07e5 C0000000 		.4byte	.LVL153
 11710 07e9 CE000000 		.4byte	.LVL154
 11711 07ed 0400     		.2byte	0x4
 11712 07ef F3       		.byte	0xf3
 11713 07f0 01       		.uleb128 0x1
 11714 07f1 51       		.byte	0x51
 11715 07f2 9F       		.byte	0x9f
 11716 07f3 CE000000 		.4byte	.LVL154
 11717 07f7 D2000000 		.4byte	.LVL155
 11718 07fb 0100     		.2byte	0x1
 11719 07fd 51       		.byte	0x51
ARM GAS  C:\Users\BG1026~1\AppData\Local\Temp\cc2n2B4u.s 			page 245


 11720 07fe D2000000 		.4byte	.LVL155
 11721 0802 E0000000 		.4byte	.LVL156
 11722 0806 0400     		.2byte	0x4
 11723 0808 F3       		.byte	0xf3
 11724 0809 01       		.uleb128 0x1
 11725 080a 51       		.byte	0x51
 11726 080b 9F       		.byte	0x9f
 11727 080c E0000000 		.4byte	.LVL156
 11728 0810 E4000000 		.4byte	.LVL157
 11729 0814 0100     		.2byte	0x1
 11730 0816 51       		.byte	0x51
 11731 0817 E4000000 		.4byte	.LVL157
 11732 081b F2000000 		.4byte	.LVL158
 11733 081f 0400     		.2byte	0x4
 11734 0821 F3       		.byte	0xf3
 11735 0822 01       		.uleb128 0x1
 11736 0823 51       		.byte	0x51
 11737 0824 9F       		.byte	0x9f
 11738 0825 F2000000 		.4byte	.LVL158
 11739 0829 F6000000 		.4byte	.LVL159
 11740 082d 0100     		.2byte	0x1
 11741 082f 51       		.byte	0x51
 11742 0830 F6000000 		.4byte	.LVL159
 11743 0834 04010000 		.4byte	.LVL160
 11744 0838 0400     		.2byte	0x4
 11745 083a F3       		.byte	0xf3
 11746 083b 01       		.uleb128 0x1
 11747 083c 51       		.byte	0x51
 11748 083d 9F       		.byte	0x9f
 11749 083e 04010000 		.4byte	.LVL160
 11750 0842 08010000 		.4byte	.LVL161
 11751 0846 0100     		.2byte	0x1
 11752 0848 51       		.byte	0x51
 11753 0849 08010000 		.4byte	.LVL161
 11754 084d 16010000 		.4byte	.LVL162
 11755 0851 0400     		.2byte	0x4
 11756 0853 F3       		.byte	0xf3
 11757 0854 01       		.uleb128 0x1
 11758 0855 51       		.byte	0x51
 11759 0856 9F       		.byte	0x9f
 11760 0857 16010000 		.4byte	.LVL162
 11761 085b 1A010000 		.4byte	.LVL163
 11762 085f 0100     		.2byte	0x1
 11763 0861 51       		.byte	0x51
 11764 0862 1A010000 		.4byte	.LVL163
 11765 0866 28010000 		.4byte	.LVL164
 11766 086a 0400     		.2byte	0x4
 11767 086c F3       		.byte	0xf3
 11768 086d 01       		.uleb128 0x1
 11769 086e 51       		.byte	0x51
 11770 086f 9F       		.byte	0x9f
 11771 0870 28010000 		.4byte	.LVL164
 11772 0874 2C010000 		.4byte	.LVL165
 11773 0878 0100     		.2byte	0x1
 11774 087a 51       		.byte	0x51
 11775 087b 2C010000 		.4byte	.LVL165
 11776 087f 3A010000 		.4byte	.LVL166
ARM GAS  C:\Users\BG1026~1\AppData\Local\Temp\cc2n2B4u.s 			page 246


 11777 0883 0400     		.2byte	0x4
 11778 0885 F3       		.byte	0xf3
 11779 0886 01       		.uleb128 0x1
 11780 0887 51       		.byte	0x51
 11781 0888 9F       		.byte	0x9f
 11782 0889 3A010000 		.4byte	.LVL166
 11783 088d 3E010000 		.4byte	.LVL167
 11784 0891 0100     		.2byte	0x1
 11785 0893 51       		.byte	0x51
 11786 0894 3E010000 		.4byte	.LVL167
 11787 0898 4C010000 		.4byte	.LVL168
 11788 089c 0400     		.2byte	0x4
 11789 089e F3       		.byte	0xf3
 11790 089f 01       		.uleb128 0x1
 11791 08a0 51       		.byte	0x51
 11792 08a1 9F       		.byte	0x9f
 11793 08a2 4C010000 		.4byte	.LVL168
 11794 08a6 50010000 		.4byte	.LVL169
 11795 08aa 0100     		.2byte	0x1
 11796 08ac 51       		.byte	0x51
 11797 08ad 50010000 		.4byte	.LVL169
 11798 08b1 5E010000 		.4byte	.LVL170
 11799 08b5 0400     		.2byte	0x4
 11800 08b7 F3       		.byte	0xf3
 11801 08b8 01       		.uleb128 0x1
 11802 08b9 51       		.byte	0x51
 11803 08ba 9F       		.byte	0x9f
 11804 08bb 5E010000 		.4byte	.LVL170
 11805 08bf 62010000 		.4byte	.LVL171
 11806 08c3 0100     		.2byte	0x1
 11807 08c5 51       		.byte	0x51
 11808 08c6 62010000 		.4byte	.LVL171
 11809 08ca 70010000 		.4byte	.LVL172
 11810 08ce 0400     		.2byte	0x4
 11811 08d0 F3       		.byte	0xf3
 11812 08d1 01       		.uleb128 0x1
 11813 08d2 51       		.byte	0x51
 11814 08d3 9F       		.byte	0x9f
 11815 08d4 70010000 		.4byte	.LVL172
 11816 08d8 74010000 		.4byte	.LVL173
 11817 08dc 0100     		.2byte	0x1
 11818 08de 51       		.byte	0x51
 11819 08df 74010000 		.4byte	.LVL173
 11820 08e3 82010000 		.4byte	.LVL174
 11821 08e7 0400     		.2byte	0x4
 11822 08e9 F3       		.byte	0xf3
 11823 08ea 01       		.uleb128 0x1
 11824 08eb 51       		.byte	0x51
 11825 08ec 9F       		.byte	0x9f
 11826 08ed 82010000 		.4byte	.LVL174
 11827 08f1 86010000 		.4byte	.LVL175
 11828 08f5 0100     		.2byte	0x1
 11829 08f7 51       		.byte	0x51
 11830 08f8 86010000 		.4byte	.LVL175
 11831 08fc 94010000 		.4byte	.LVL176
 11832 0900 0400     		.2byte	0x4
 11833 0902 F3       		.byte	0xf3
ARM GAS  C:\Users\BG1026~1\AppData\Local\Temp\cc2n2B4u.s 			page 247


 11834 0903 01       		.uleb128 0x1
 11835 0904 51       		.byte	0x51
 11836 0905 9F       		.byte	0x9f
 11837 0906 94010000 		.4byte	.LVL176
 11838 090a 98010000 		.4byte	.LVL177
 11839 090e 0100     		.2byte	0x1
 11840 0910 51       		.byte	0x51
 11841 0911 98010000 		.4byte	.LVL177
 11842 0915 A6010000 		.4byte	.LVL178
 11843 0919 0400     		.2byte	0x4
 11844 091b F3       		.byte	0xf3
 11845 091c 01       		.uleb128 0x1
 11846 091d 51       		.byte	0x51
 11847 091e 9F       		.byte	0x9f
 11848 091f A6010000 		.4byte	.LVL178
 11849 0923 AA010000 		.4byte	.LVL179
 11850 0927 0100     		.2byte	0x1
 11851 0929 51       		.byte	0x51
 11852 092a AA010000 		.4byte	.LVL179
 11853 092e B8010000 		.4byte	.LVL180
 11854 0932 0400     		.2byte	0x4
 11855 0934 F3       		.byte	0xf3
 11856 0935 01       		.uleb128 0x1
 11857 0936 51       		.byte	0x51
 11858 0937 9F       		.byte	0x9f
 11859 0938 B8010000 		.4byte	.LVL180
 11860 093c BC010000 		.4byte	.LVL181
 11861 0940 0100     		.2byte	0x1
 11862 0942 51       		.byte	0x51
 11863 0943 BC010000 		.4byte	.LVL181
 11864 0947 F0010000 		.4byte	.LFE62
 11865 094b 0400     		.2byte	0x4
 11866 094d F3       		.byte	0xf3
 11867 094e 01       		.uleb128 0x1
 11868 094f 51       		.byte	0x51
 11869 0950 9F       		.byte	0x9f
 11870 0951 00000000 		.4byte	0
 11871 0955 00000000 		.4byte	0
 11872              	.LLST28:
 11873 0959 0C000000 		.4byte	.LVL133
 11874 095d 14000000 		.4byte	.LVL134
 11875 0961 0100     		.2byte	0x1
 11876 0963 50       		.byte	0x50
 11877 0964 00000000 		.4byte	0
 11878 0968 00000000 		.4byte	0
 11879              	.LLST29:
 11880 096c 00000000 		.4byte	.LVL186
 11881 0970 06000000 		.4byte	.LVL187
 11882 0974 0100     		.2byte	0x1
 11883 0976 50       		.byte	0x50
 11884 0977 06000000 		.4byte	.LVL187
 11885 097b 3A000000 		.4byte	.LFE48
 11886 097f 0400     		.2byte	0x4
 11887 0981 F3       		.byte	0xf3
 11888 0982 01       		.uleb128 0x1
 11889 0983 50       		.byte	0x50
 11890 0984 9F       		.byte	0x9f
ARM GAS  C:\Users\BG1026~1\AppData\Local\Temp\cc2n2B4u.s 			page 248


 11891 0985 00000000 		.4byte	0
 11892 0989 00000000 		.4byte	0
 11893              	.LLST30:
 11894 098d 00000000 		.4byte	.LVL186
 11895 0991 16000000 		.4byte	.LVL192
 11896 0995 0100     		.2byte	0x1
 11897 0997 51       		.byte	0x51
 11898 0998 16000000 		.4byte	.LVL192
 11899 099c 3A000000 		.4byte	.LFE48
 11900 09a0 0400     		.2byte	0x4
 11901 09a2 F3       		.byte	0xf3
 11902 09a3 01       		.uleb128 0x1
 11903 09a4 51       		.byte	0x51
 11904 09a5 9F       		.byte	0x9f
 11905 09a6 00000000 		.4byte	0
 11906 09aa 00000000 		.4byte	0
 11907              	.LLST31:
 11908 09ae 00000000 		.4byte	.LVL186
 11909 09b2 0E000000 		.4byte	.LVL189
 11910 09b6 0100     		.2byte	0x1
 11911 09b8 52       		.byte	0x52
 11912 09b9 0E000000 		.4byte	.LVL189
 11913 09bd 3A000000 		.4byte	.LFE48
 11914 09c1 0400     		.2byte	0x4
 11915 09c3 F3       		.byte	0xf3
 11916 09c4 01       		.uleb128 0x1
 11917 09c5 52       		.byte	0x52
 11918 09c6 9F       		.byte	0x9f
 11919 09c7 00000000 		.4byte	0
 11920 09cb 00000000 		.4byte	0
 11921              	.LLST32:
 11922 09cf 0C000000 		.4byte	.LVL188
 11923 09d3 14000000 		.4byte	.LVL191
 11924 09d7 0100     		.2byte	0x1
 11925 09d9 50       		.byte	0x50
 11926 09da 14000000 		.4byte	.LVL191
 11927 09de 24000000 		.4byte	.LVL195
 11928 09e2 0300     		.2byte	0x3
 11929 09e4 74       		.byte	0x74
 11930 09e5 01       		.sleb128 1
 11931 09e6 9F       		.byte	0x9f
 11932 09e7 24000000 		.4byte	.LVL195
 11933 09eb 26000000 		.4byte	.LVL196
 11934 09ef 0300     		.2byte	0x3
 11935 09f1 74       		.byte	0x74
 11936 09f2 7F       		.sleb128 -1
 11937 09f3 9F       		.byte	0x9f
 11938 09f4 00000000 		.4byte	0
 11939 09f8 00000000 		.4byte	0
 11940              	.LLST33:
 11941 09fc 10000000 		.4byte	.LVL190
 11942 0a00 38000000 		.4byte	.LVL201
 11943 0a04 0100     		.2byte	0x1
 11944 0a06 56       		.byte	0x56
 11945 0a07 00000000 		.4byte	0
 11946 0a0b 00000000 		.4byte	0
 11947              	.LLST34:
ARM GAS  C:\Users\BG1026~1\AppData\Local\Temp\cc2n2B4u.s 			page 249


 11948 0a0f 26000000 		.4byte	.LVL196
 11949 0a13 32000000 		.4byte	.LVL198
 11950 0a17 0100     		.2byte	0x1
 11951 0a19 54       		.byte	0x54
 11952 0a1a 34000000 		.4byte	.LVL199
 11953 0a1e 38000000 		.4byte	.LVL200
 11954 0a22 0100     		.2byte	0x1
 11955 0a24 54       		.byte	0x54
 11956 0a25 00000000 		.4byte	0
 11957 0a29 00000000 		.4byte	0
 11958              	.LLST35:
 11959 0a2d 02000000 		.4byte	.LVL202
 11960 0a31 2E000000 		.4byte	.LVL208
 11961 0a35 0200     		.2byte	0x2
 11962 0a37 30       		.byte	0x30
 11963 0a38 9F       		.byte	0x9f
 11964 0a39 2E000000 		.4byte	.LVL208
 11965 0a3d 78000000 		.4byte	.LVL213
 11966 0a41 0100     		.2byte	0x1
 11967 0a43 55       		.byte	0x55
 11968 0a44 00000000 		.4byte	0
 11969 0a48 00000000 		.4byte	0
 11970              	.LLST36:
 11971 0a4c 10000000 		.4byte	.LVL204
 11972 0a50 78000000 		.4byte	.LVL214
 11973 0a54 0100     		.2byte	0x1
 11974 0a56 56       		.byte	0x56
 11975 0a57 00000000 		.4byte	0
 11976 0a5b 00000000 		.4byte	0
 11977              	.LLST37:
 11978 0a5f 1A000000 		.4byte	.LVL206
 11979 0a63 78000000 		.4byte	.LVL215
 11980 0a67 0100     		.2byte	0x1
 11981 0a69 57       		.byte	0x57
 11982 0a6a 00000000 		.4byte	0
 11983 0a6e 00000000 		.4byte	0
 11984              	.LLST38:
 11985 0a72 00000000 		.4byte	.LVL246
 11986 0a76 18000000 		.4byte	.LVL248
 11987 0a7a 0100     		.2byte	0x1
 11988 0a7c 50       		.byte	0x50
 11989 0a7d 18000000 		.4byte	.LVL248
 11990 0a81 26000000 		.4byte	.LVL251
 11991 0a85 0400     		.2byte	0x4
 11992 0a87 F3       		.byte	0xf3
 11993 0a88 01       		.uleb128 0x1
 11994 0a89 50       		.byte	0x50
 11995 0a8a 9F       		.byte	0x9f
 11996 0a8b 26000000 		.4byte	.LVL251
 11997 0a8f 2E000000 		.4byte	.LVL252
 11998 0a93 0100     		.2byte	0x1
 11999 0a95 50       		.byte	0x50
 12000 0a96 2E000000 		.4byte	.LVL252
 12001 0a9a 3C000000 		.4byte	.LVL255
 12002 0a9e 0400     		.2byte	0x4
 12003 0aa0 F3       		.byte	0xf3
 12004 0aa1 01       		.uleb128 0x1
ARM GAS  C:\Users\BG1026~1\AppData\Local\Temp\cc2n2B4u.s 			page 250


 12005 0aa2 50       		.byte	0x50
 12006 0aa3 9F       		.byte	0x9f
 12007 0aa4 3C000000 		.4byte	.LVL255
 12008 0aa8 44000000 		.4byte	.LVL256
 12009 0aac 0100     		.2byte	0x1
 12010 0aae 50       		.byte	0x50
 12011 0aaf 44000000 		.4byte	.LVL256
 12012 0ab3 98000000 		.4byte	.LFE56
 12013 0ab7 0400     		.2byte	0x4
 12014 0ab9 F3       		.byte	0xf3
 12015 0aba 01       		.uleb128 0x1
 12016 0abb 50       		.byte	0x50
 12017 0abc 9F       		.byte	0x9f
 12018 0abd 00000000 		.4byte	0
 12019 0ac1 00000000 		.4byte	0
 12020              	.LLST39:
 12021 0ac5 08000000 		.4byte	.LVL259
 12022 0ac9 10000000 		.4byte	.LVL260
 12023 0acd 0600     		.2byte	0x6
 12024 0acf 73       		.byte	0x73
 12025 0ad0 00       		.sleb128 0
 12026 0ad1 08       		.byte	0x8
 12027 0ad2 3F       		.byte	0x3f
 12028 0ad3 1A       		.byte	0x1a
 12029 0ad4 9F       		.byte	0x9f
 12030 0ad5 10000000 		.4byte	.LVL260
 12031 0ad9 16000000 		.4byte	.LVL261
 12032 0add 0600     		.2byte	0x6
 12033 0adf 70       		.byte	0x70
 12034 0ae0 7F       		.sleb128 -1
 12035 0ae1 08       		.byte	0x8
 12036 0ae2 3F       		.byte	0x3f
 12037 0ae3 1A       		.byte	0x1a
 12038 0ae4 9F       		.byte	0x9f
 12039 0ae5 16000000 		.4byte	.LVL261
 12040 0ae9 45000000 		.4byte	.LVL262-1
 12041 0aed 0B00     		.2byte	0xb
 12042 0aef 03       		.byte	0x3
 12043 0af0 48000000 		.4byte	cycle.6190
 12044 0af4 94       		.byte	0x94
 12045 0af5 02       		.byte	0x2
 12046 0af6 08       		.byte	0x8
 12047 0af7 3F       		.byte	0x3f
 12048 0af8 1A       		.byte	0x1a
 12049 0af9 9F       		.byte	0x9f
 12050 0afa 00000000 		.4byte	0
 12051 0afe 00000000 		.4byte	0
 12052              	.LLST40:
 12053 0b02 12000000 		.4byte	.LVL269
 12054 0b06 21000000 		.4byte	.LVL270-1
 12055 0b0a 0100     		.2byte	0x1
 12056 0b0c 51       		.byte	0x51
 12057 0b0d 00000000 		.4byte	0
 12058 0b11 00000000 		.4byte	0
 12059              	.LLST41:
 12060 0b15 02000000 		.4byte	.LVL273
 12061 0b19 06000000 		.4byte	.LVL274
ARM GAS  C:\Users\BG1026~1\AppData\Local\Temp\cc2n2B4u.s 			page 251


 12062 0b1d 0200     		.2byte	0x2
 12063 0b1f 30       		.byte	0x30
 12064 0b20 9F       		.byte	0x9f
 12065 0b21 06000000 		.4byte	.LVL274
 12066 0b25 4E000000 		.4byte	.LVL277
 12067 0b29 0100     		.2byte	0x1
 12068 0b2b 54       		.byte	0x54
 12069 0b2c 00000000 		.4byte	0
 12070 0b30 00000000 		.4byte	0
 12071              	.LLST42:
 12072 0b34 00000000 		.4byte	.LVL282
 12073 0b38 0B000000 		.4byte	.LVL284-1
 12074 0b3c 0100     		.2byte	0x1
 12075 0b3e 50       		.byte	0x50
 12076 0b3f 0B000000 		.4byte	.LVL284-1
 12077 0b43 40000000 		.4byte	.LVL292
 12078 0b47 0100     		.2byte	0x1
 12079 0b49 54       		.byte	0x54
 12080 0b4a 40000000 		.4byte	.LVL292
 12081 0b4e 58000000 		.4byte	.LVL295
 12082 0b52 0400     		.2byte	0x4
 12083 0b54 F3       		.byte	0xf3
 12084 0b55 01       		.uleb128 0x1
 12085 0b56 50       		.byte	0x50
 12086 0b57 9F       		.byte	0x9f
 12087 0b58 58000000 		.4byte	.LVL295
 12088 0b5c 5A000000 		.4byte	.LVL296
 12089 0b60 0100     		.2byte	0x1
 12090 0b62 54       		.byte	0x54
 12091 0b63 5A000000 		.4byte	.LVL296
 12092 0b67 80000000 		.4byte	.LVL301
 12093 0b6b 0400     		.2byte	0x4
 12094 0b6d F3       		.byte	0xf3
 12095 0b6e 01       		.uleb128 0x1
 12096 0b6f 50       		.byte	0x50
 12097 0b70 9F       		.byte	0x9f
 12098 0b71 80000000 		.4byte	.LVL301
 12099 0b75 16020000 		.4byte	.LVL374
 12100 0b79 0100     		.2byte	0x1
 12101 0b7b 54       		.byte	0x54
 12102 0b7c 16020000 		.4byte	.LVL374
 12103 0b80 56020000 		.4byte	.LVL384
 12104 0b84 0400     		.2byte	0x4
 12105 0b86 F3       		.byte	0xf3
 12106 0b87 01       		.uleb128 0x1
 12107 0b88 50       		.byte	0x50
 12108 0b89 9F       		.byte	0x9f
 12109 0b8a 56020000 		.4byte	.LVL384
 12110 0b8e B0050000 		.4byte	.LVL522
 12111 0b92 0100     		.2byte	0x1
 12112 0b94 54       		.byte	0x54
 12113 0b95 B0050000 		.4byte	.LVL522
 12114 0b99 D0050000 		.4byte	.LFE43
 12115 0b9d 0400     		.2byte	0x4
 12116 0b9f F3       		.byte	0xf3
 12117 0ba0 01       		.uleb128 0x1
 12118 0ba1 50       		.byte	0x50
ARM GAS  C:\Users\BG1026~1\AppData\Local\Temp\cc2n2B4u.s 			page 252


 12119 0ba2 9F       		.byte	0x9f
 12120 0ba3 00000000 		.4byte	0
 12121 0ba7 00000000 		.4byte	0
 12122              	.LLST43:
 12123 0bab 06000000 		.4byte	.LVL283
 12124 0baf 24000000 		.4byte	.LVL289
 12125 0bb3 0200     		.2byte	0x2
 12126 0bb5 36       		.byte	0x36
 12127 0bb6 9F       		.byte	0x9f
 12128 0bb7 24000000 		.4byte	.LVL289
 12129 0bbb 2C000000 		.4byte	.LVL290
 12130 0bbf 0100     		.2byte	0x1
 12131 0bc1 50       		.byte	0x50
 12132 0bc2 A4050000 		.4byte	.LVL519
 12133 0bc6 A6050000 		.4byte	.LVL520
 12134 0bca 0100     		.2byte	0x1
 12135 0bcc 50       		.byte	0x50
 12136 0bcd 00000000 		.4byte	0
 12137 0bd1 00000000 		.4byte	0
 12138              	.LLST44:
 12139 0bd5 06000000 		.4byte	.LVL283
 12140 0bd9 BC000000 		.4byte	.LVL312
 12141 0bdd 0200     		.2byte	0x2
 12142 0bdf 34       		.byte	0x34
 12143 0be0 9F       		.byte	0x9f
 12144 0be1 BC000000 		.4byte	.LVL312
 12145 0be5 D6000000 		.4byte	.LVL313
 12146 0be9 0100     		.2byte	0x1
 12147 0beb 50       		.byte	0x50
 12148 0bec D8000000 		.4byte	.LVL314
 12149 0bf0 E0000000 		.4byte	.LVL315
 12150 0bf4 0100     		.2byte	0x1
 12151 0bf6 50       		.byte	0x50
 12152 0bf7 E2000000 		.4byte	.LVL316
 12153 0bfb EC000000 		.4byte	.LVL317
 12154 0bff 0100     		.2byte	0x1
 12155 0c01 50       		.byte	0x50
 12156 0c02 EE000000 		.4byte	.LVL318
 12157 0c06 F8000000 		.4byte	.LVL319
 12158 0c0a 0100     		.2byte	0x1
 12159 0c0c 50       		.byte	0x50
 12160 0c0d FA000000 		.4byte	.LVL320
 12161 0c11 FC000000 		.4byte	.LVL321
 12162 0c15 0100     		.2byte	0x1
 12163 0c17 50       		.byte	0x50
 12164 0c18 1A010000 		.4byte	.LVL327
 12165 0c1c B0050000 		.4byte	.LVL522
 12166 0c20 0200     		.2byte	0x2
 12167 0c22 34       		.byte	0x34
 12168 0c23 9F       		.byte	0x9f
 12169 0c24 00000000 		.4byte	0
 12170 0c28 00000000 		.4byte	0
 12171              	.LLST45:
 12172 0c2c 06000000 		.4byte	.LVL283
 12173 0c30 00010000 		.4byte	.LVL322
 12174 0c34 0200     		.2byte	0x2
 12175 0c36 39       		.byte	0x39
ARM GAS  C:\Users\BG1026~1\AppData\Local\Temp\cc2n2B4u.s 			page 253


 12176 0c37 9F       		.byte	0x9f
 12177 0c38 00010000 		.4byte	.LVL322
 12178 0c3c 0A010000 		.4byte	.LVL323
 12179 0c40 0100     		.2byte	0x1
 12180 0c42 50       		.byte	0x50
 12181 0c43 0C010000 		.4byte	.LVL324
 12182 0c47 0E010000 		.4byte	.LVL325
 12183 0c4b 0100     		.2byte	0x1
 12184 0c4d 50       		.byte	0x50
 12185 0c4e 1A010000 		.4byte	.LVL327
 12186 0c52 B0050000 		.4byte	.LVL522
 12187 0c56 0200     		.2byte	0x2
 12188 0c58 39       		.byte	0x39
 12189 0c59 9F       		.byte	0x9f
 12190 0c5a 00000000 		.4byte	0
 12191 0c5e 00000000 		.4byte	0
 12192              	.LLST46:
 12193 0c62 06000000 		.4byte	.LVL283
 12194 0c66 22010000 		.4byte	.LVL329
 12195 0c6a 0200     		.2byte	0x2
 12196 0c6c 35       		.byte	0x35
 12197 0c6d 9F       		.byte	0x9f
 12198 0c6e 22010000 		.4byte	.LVL329
 12199 0c72 2A010000 		.4byte	.LVL330
 12200 0c76 0100     		.2byte	0x1
 12201 0c78 50       		.byte	0x50
 12202 0c79 DA040000 		.4byte	.LVL483
 12203 0c7d DC040000 		.4byte	.LVL484
 12204 0c81 0100     		.2byte	0x1
 12205 0c83 50       		.byte	0x50
 12206 0c84 E8040000 		.4byte	.LVL486
 12207 0c88 B0050000 		.4byte	.LVL522
 12208 0c8c 0200     		.2byte	0x2
 12209 0c8e 35       		.byte	0x35
 12210 0c8f 9F       		.byte	0x9f
 12211 0c90 00000000 		.4byte	0
 12212 0c94 00000000 		.4byte	0
 12213              	.LLST47:
 12214 0c98 06000000 		.4byte	.LVL283
 12215 0c9c 24050000 		.4byte	.LVL497
 12216 0ca0 0200     		.2byte	0x2
 12217 0ca2 33       		.byte	0x33
 12218 0ca3 9F       		.byte	0x9f
 12219 0ca4 24050000 		.4byte	.LVL497
 12220 0ca8 3A050000 		.4byte	.LVL498
 12221 0cac 0100     		.2byte	0x1
 12222 0cae 50       		.byte	0x50
 12223 0caf 3C050000 		.4byte	.LVL499
 12224 0cb3 44050000 		.4byte	.LVL500
 12225 0cb7 0100     		.2byte	0x1
 12226 0cb9 50       		.byte	0x50
 12227 0cba 46050000 		.4byte	.LVL501
 12228 0cbe 48050000 		.4byte	.LVL502
 12229 0cc2 0100     		.2byte	0x1
 12230 0cc4 50       		.byte	0x50
 12231 0cc5 88050000 		.4byte	.LVL514
 12232 0cc9 8A050000 		.4byte	.LVL515
ARM GAS  C:\Users\BG1026~1\AppData\Local\Temp\cc2n2B4u.s 			page 254


 12233 0ccd 0100     		.2byte	0x1
 12234 0ccf 50       		.byte	0x50
 12235 0cd0 96050000 		.4byte	.LVL517
 12236 0cd4 B0050000 		.4byte	.LVL522
 12237 0cd8 0200     		.2byte	0x2
 12238 0cda 33       		.byte	0x33
 12239 0cdb 9F       		.byte	0x9f
 12240 0cdc 00000000 		.4byte	0
 12241 0ce0 00000000 		.4byte	0
 12242              	.LLST48:
 12243 0ce4 0C000000 		.4byte	.LVL284
 12244 0ce8 12000000 		.4byte	.LVL285
 12245 0cec 0100     		.2byte	0x1
 12246 0cee 50       		.byte	0x50
 12247 0cef 12000000 		.4byte	.LVL285
 12248 0cf3 19000000 		.4byte	.LVL286-1
 12249 0cf7 0300     		.2byte	0x3
 12250 0cf9 70       		.byte	0x70
 12251 0cfa 7E       		.sleb128 -2
 12252 0cfb 9F       		.byte	0x9f
 12253 0cfc 1E000000 		.4byte	.LVL287
 12254 0d00 20000000 		.4byte	.LVL288
 12255 0d04 0100     		.2byte	0x1
 12256 0d06 50       		.byte	0x50
 12257 0d07 20000000 		.4byte	.LVL288
 12258 0d0b 88000000 		.4byte	.LVL302
 12259 0d0f 0100     		.2byte	0x1
 12260 0d11 55       		.byte	0x55
 12261 0d12 88000000 		.4byte	.LVL302
 12262 0d16 8E000000 		.4byte	.LVL303
 12263 0d1a 0100     		.2byte	0x1
 12264 0d1c 50       		.byte	0x50
 12265 0d1d 8E000000 		.4byte	.LVL303
 12266 0d21 95000000 		.4byte	.LVL304-1
 12267 0d25 0300     		.2byte	0x3
 12268 0d27 70       		.byte	0x70
 12269 0d28 7E       		.sleb128 -2
 12270 0d29 9F       		.byte	0x9f
 12271 0d2a 9A000000 		.4byte	.LVL305
 12272 0d2e A1000000 		.4byte	.LVL307-1
 12273 0d32 0100     		.2byte	0x1
 12274 0d34 50       		.byte	0x50
 12275 0d35 A2000000 		.4byte	.LVL307
 12276 0d39 A8000000 		.4byte	.LVL308
 12277 0d3d 0100     		.2byte	0x1
 12278 0d3f 50       		.byte	0x50
 12279 0d40 A8000000 		.4byte	.LVL308
 12280 0d44 AF000000 		.4byte	.LVL309-1
 12281 0d48 0300     		.2byte	0x3
 12282 0d4a 70       		.byte	0x70
 12283 0d4b 7E       		.sleb128 -2
 12284 0d4c 9F       		.byte	0x9f
 12285 0d4d B4000000 		.4byte	.LVL310
 12286 0d51 B6000000 		.4byte	.LVL311
 12287 0d55 0100     		.2byte	0x1
 12288 0d57 50       		.byte	0x50
 12289 0d58 B6000000 		.4byte	.LVL311
ARM GAS  C:\Users\BG1026~1\AppData\Local\Temp\cc2n2B4u.s 			page 255


 12290 0d5c 40010000 		.4byte	.LVL332
 12291 0d60 0100     		.2byte	0x1
 12292 0d62 55       		.byte	0x55
 12293 0d63 40010000 		.4byte	.LVL332
 12294 0d67 46010000 		.4byte	.LVL333
 12295 0d6b 0100     		.2byte	0x1
 12296 0d6d 50       		.byte	0x50
 12297 0d6e 46010000 		.4byte	.LVL333
 12298 0d72 4D010000 		.4byte	.LVL334-1
 12299 0d76 0300     		.2byte	0x3
 12300 0d78 70       		.byte	0x70
 12301 0d79 7E       		.sleb128 -2
 12302 0d7a 9F       		.byte	0x9f
 12303 0d7b 52010000 		.4byte	.LVL335
 12304 0d7f 59010000 		.4byte	.LVL337-1
 12305 0d83 0100     		.2byte	0x1
 12306 0d85 50       		.byte	0x50
 12307 0d86 5A010000 		.4byte	.LVL337
 12308 0d8a 60010000 		.4byte	.LVL338
 12309 0d8e 0100     		.2byte	0x1
 12310 0d90 50       		.byte	0x50
 12311 0d91 60010000 		.4byte	.LVL338
 12312 0d95 67010000 		.4byte	.LVL339-1
 12313 0d99 0300     		.2byte	0x3
 12314 0d9b 70       		.byte	0x70
 12315 0d9c 7E       		.sleb128 -2
 12316 0d9d 9F       		.byte	0x9f
 12317 0d9e 6C010000 		.4byte	.LVL340
 12318 0da2 73010000 		.4byte	.LVL342-1
 12319 0da6 0100     		.2byte	0x1
 12320 0da8 50       		.byte	0x50
 12321 0da9 74010000 		.4byte	.LVL342
 12322 0dad 7A010000 		.4byte	.LVL343
 12323 0db1 0100     		.2byte	0x1
 12324 0db3 50       		.byte	0x50
 12325 0db4 7A010000 		.4byte	.LVL343
 12326 0db8 81010000 		.4byte	.LVL344-1
 12327 0dbc 0300     		.2byte	0x3
 12328 0dbe 70       		.byte	0x70
 12329 0dbf 7E       		.sleb128 -2
 12330 0dc0 9F       		.byte	0x9f
 12331 0dc1 86010000 		.4byte	.LVL345
 12332 0dc5 88010000 		.4byte	.LVL346
 12333 0dc9 0100     		.2byte	0x1
 12334 0dcb 50       		.byte	0x50
 12335 0dcc 88010000 		.4byte	.LVL346
 12336 0dd0 B8010000 		.4byte	.LVL355
 12337 0dd4 0100     		.2byte	0x1
 12338 0dd6 55       		.byte	0x55
 12339 0dd7 B8010000 		.4byte	.LVL355
 12340 0ddb BE010000 		.4byte	.LVL356
 12341 0ddf 0100     		.2byte	0x1
 12342 0de1 50       		.byte	0x50
 12343 0de2 BE010000 		.4byte	.LVL356
 12344 0de6 C5010000 		.4byte	.LVL357-1
 12345 0dea 0300     		.2byte	0x3
 12346 0dec 70       		.byte	0x70
ARM GAS  C:\Users\BG1026~1\AppData\Local\Temp\cc2n2B4u.s 			page 256


 12347 0ded 7E       		.sleb128 -2
 12348 0dee 9F       		.byte	0x9f
 12349 0def CA010000 		.4byte	.LVL358
 12350 0df3 CC010000 		.4byte	.LVL359
 12351 0df7 0100     		.2byte	0x1
 12352 0df9 50       		.byte	0x50
 12353 0dfa CC010000 		.4byte	.LVL359
 12354 0dfe F4010000 		.4byte	.LVL366
 12355 0e02 0100     		.2byte	0x1
 12356 0e04 57       		.byte	0x57
 12357 0e05 FC010000 		.4byte	.LVL368
 12358 0e09 02020000 		.4byte	.LVL369
 12359 0e0d 0100     		.2byte	0x1
 12360 0e0f 50       		.byte	0x50
 12361 0e10 02020000 		.4byte	.LVL369
 12362 0e14 09020000 		.4byte	.LVL370-1
 12363 0e18 0300     		.2byte	0x3
 12364 0e1a 70       		.byte	0x70
 12365 0e1b 7E       		.sleb128 -2
 12366 0e1c 9F       		.byte	0x9f
 12367 0e1d 0E020000 		.4byte	.LVL371
 12368 0e21 10020000 		.4byte	.LVL372
 12369 0e25 0300     		.2byte	0x3
 12370 0e27 70       		.byte	0x70
 12371 0e28 01       		.sleb128 1
 12372 0e29 9F       		.byte	0x9f
 12373 0e2a 10020000 		.4byte	.LVL372
 12374 0e2e 13020000 		.4byte	.LVL373-1
 12375 0e32 0100     		.2byte	0x1
 12376 0e34 50       		.byte	0x50
 12377 0e35 56020000 		.4byte	.LVL384
 12378 0e39 5E020000 		.4byte	.LVL385
 12379 0e3d 0100     		.2byte	0x1
 12380 0e3f 55       		.byte	0x55
 12381 0e40 5E020000 		.4byte	.LVL385
 12382 0e44 64020000 		.4byte	.LVL386
 12383 0e48 0100     		.2byte	0x1
 12384 0e4a 50       		.byte	0x50
 12385 0e4b 64020000 		.4byte	.LVL386
 12386 0e4f 6B020000 		.4byte	.LVL387-1
 12387 0e53 0300     		.2byte	0x3
 12388 0e55 70       		.byte	0x70
 12389 0e56 7E       		.sleb128 -2
 12390 0e57 9F       		.byte	0x9f
 12391 0e58 70020000 		.4byte	.LVL388
 12392 0e5c 77020000 		.4byte	.LVL390-1
 12393 0e60 0100     		.2byte	0x1
 12394 0e62 50       		.byte	0x50
 12395 0e63 78020000 		.4byte	.LVL390
 12396 0e67 7E020000 		.4byte	.LVL391
 12397 0e6b 0100     		.2byte	0x1
 12398 0e6d 50       		.byte	0x50
 12399 0e6e 7E020000 		.4byte	.LVL391
 12400 0e72 85020000 		.4byte	.LVL392-1
 12401 0e76 0300     		.2byte	0x3
 12402 0e78 70       		.byte	0x70
 12403 0e79 7E       		.sleb128 -2
ARM GAS  C:\Users\BG1026~1\AppData\Local\Temp\cc2n2B4u.s 			page 257


 12404 0e7a 9F       		.byte	0x9f
 12405 0e7b 8A020000 		.4byte	.LVL393
 12406 0e7f 91020000 		.4byte	.LVL395-1
 12407 0e83 0100     		.2byte	0x1
 12408 0e85 50       		.byte	0x50
 12409 0e86 92020000 		.4byte	.LVL395
 12410 0e8a 98020000 		.4byte	.LVL396
 12411 0e8e 0100     		.2byte	0x1
 12412 0e90 50       		.byte	0x50
 12413 0e91 98020000 		.4byte	.LVL396
 12414 0e95 9F020000 		.4byte	.LVL397-1
 12415 0e99 0300     		.2byte	0x3
 12416 0e9b 70       		.byte	0x70
 12417 0e9c 7E       		.sleb128 -2
 12418 0e9d 9F       		.byte	0x9f
 12419 0e9e A4020000 		.4byte	.LVL398
 12420 0ea2 A6020000 		.4byte	.LVL399
 12421 0ea6 0100     		.2byte	0x1
 12422 0ea8 50       		.byte	0x50
 12423 0ea9 A6020000 		.4byte	.LVL399
 12424 0ead CE020000 		.4byte	.LVL406
 12425 0eb1 0100     		.2byte	0x1
 12426 0eb3 56       		.byte	0x56
 12427 0eb4 E8020000 		.4byte	.LVL411
 12428 0eb8 EE020000 		.4byte	.LVL412
 12429 0ebc 0100     		.2byte	0x1
 12430 0ebe 50       		.byte	0x50
 12431 0ebf EE020000 		.4byte	.LVL412
 12432 0ec3 F5020000 		.4byte	.LVL413-1
 12433 0ec7 0300     		.2byte	0x3
 12434 0ec9 70       		.byte	0x70
 12435 0eca 7E       		.sleb128 -2
 12436 0ecb 9F       		.byte	0x9f
 12437 0ecc FA020000 		.4byte	.LVL414
 12438 0ed0 FC020000 		.4byte	.LVL415
 12439 0ed4 0300     		.2byte	0x3
 12440 0ed6 70       		.byte	0x70
 12441 0ed7 01       		.sleb128 1
 12442 0ed8 9F       		.byte	0x9f
 12443 0ed9 FC020000 		.4byte	.LVL415
 12444 0edd FF020000 		.4byte	.LVL416-1
 12445 0ee1 0100     		.2byte	0x1
 12446 0ee3 50       		.byte	0x50
 12447 0ee4 0E030000 		.4byte	.LVL421
 12448 0ee8 16030000 		.4byte	.LVL422
 12449 0eec 0100     		.2byte	0x1
 12450 0eee 55       		.byte	0x55
 12451 0eef 16030000 		.4byte	.LVL422
 12452 0ef3 1C030000 		.4byte	.LVL423
 12453 0ef7 0100     		.2byte	0x1
 12454 0ef9 50       		.byte	0x50
 12455 0efa 1C030000 		.4byte	.LVL423
 12456 0efe 23030000 		.4byte	.LVL424-1
 12457 0f02 0300     		.2byte	0x3
 12458 0f04 70       		.byte	0x70
 12459 0f05 7E       		.sleb128 -2
 12460 0f06 9F       		.byte	0x9f
ARM GAS  C:\Users\BG1026~1\AppData\Local\Temp\cc2n2B4u.s 			page 258


 12461 0f07 28030000 		.4byte	.LVL425
 12462 0f0b 2F030000 		.4byte	.LVL427-1
 12463 0f0f 0100     		.2byte	0x1
 12464 0f11 50       		.byte	0x50
 12465 0f12 30030000 		.4byte	.LVL427
 12466 0f16 36030000 		.4byte	.LVL428
 12467 0f1a 0100     		.2byte	0x1
 12468 0f1c 50       		.byte	0x50
 12469 0f1d 36030000 		.4byte	.LVL428
 12470 0f21 3D030000 		.4byte	.LVL429-1
 12471 0f25 0300     		.2byte	0x3
 12472 0f27 70       		.byte	0x70
 12473 0f28 7E       		.sleb128 -2
 12474 0f29 9F       		.byte	0x9f
 12475 0f2a 88030000 		.4byte	.LVL430
 12476 0f2e 8F030000 		.4byte	.LVL432-1
 12477 0f32 0100     		.2byte	0x1
 12478 0f34 50       		.byte	0x50
 12479 0f35 90030000 		.4byte	.LVL432
 12480 0f39 96030000 		.4byte	.LVL433
 12481 0f3d 0100     		.2byte	0x1
 12482 0f3f 50       		.byte	0x50
 12483 0f40 96030000 		.4byte	.LVL433
 12484 0f44 9D030000 		.4byte	.LVL434-1
 12485 0f48 0300     		.2byte	0x3
 12486 0f4a 70       		.byte	0x70
 12487 0f4b 7E       		.sleb128 -2
 12488 0f4c 9F       		.byte	0x9f
 12489 0f4d A2030000 		.4byte	.LVL435
 12490 0f51 C3030000 		.4byte	.LVL437-1
 12491 0f55 0100     		.2byte	0x1
 12492 0f57 50       		.byte	0x50
 12493 0f58 C4030000 		.4byte	.LVL437
 12494 0f5c CA030000 		.4byte	.LVL438
 12495 0f60 0100     		.2byte	0x1
 12496 0f62 50       		.byte	0x50
 12497 0f63 CA030000 		.4byte	.LVL438
 12498 0f67 D1030000 		.4byte	.LVL439-1
 12499 0f6b 0300     		.2byte	0x3
 12500 0f6d 70       		.byte	0x70
 12501 0f6e 7E       		.sleb128 -2
 12502 0f6f 9F       		.byte	0x9f
 12503 0f70 D6030000 		.4byte	.LVL440
 12504 0f74 D8030000 		.4byte	.LVL441
 12505 0f78 0100     		.2byte	0x1
 12506 0f7a 50       		.byte	0x50
 12507 0f7b D8030000 		.4byte	.LVL441
 12508 0f7f EA030000 		.4byte	.LVL443
 12509 0f83 0100     		.2byte	0x1
 12510 0f85 55       		.byte	0x55
 12511 0f86 EA030000 		.4byte	.LVL443
 12512 0f8a F0030000 		.4byte	.LVL444
 12513 0f8e 0100     		.2byte	0x1
 12514 0f90 50       		.byte	0x50
 12515 0f91 F0030000 		.4byte	.LVL444
 12516 0f95 F7030000 		.4byte	.LVL445-1
 12517 0f99 0300     		.2byte	0x3
ARM GAS  C:\Users\BG1026~1\AppData\Local\Temp\cc2n2B4u.s 			page 259


 12518 0f9b 70       		.byte	0x70
 12519 0f9c 7E       		.sleb128 -2
 12520 0f9d 9F       		.byte	0x9f
 12521 0f9e FC030000 		.4byte	.LVL446
 12522 0fa2 FE030000 		.4byte	.LVL447
 12523 0fa6 0100     		.2byte	0x1
 12524 0fa8 50       		.byte	0x50
 12525 0fa9 FE030000 		.4byte	.LVL447
 12526 0fad 10040000 		.4byte	.LVL449
 12527 0fb1 0100     		.2byte	0x1
 12528 0fb3 55       		.byte	0x55
 12529 0fb4 10040000 		.4byte	.LVL449
 12530 0fb8 16040000 		.4byte	.LVL450
 12531 0fbc 0100     		.2byte	0x1
 12532 0fbe 50       		.byte	0x50
 12533 0fbf 16040000 		.4byte	.LVL450
 12534 0fc3 1D040000 		.4byte	.LVL451-1
 12535 0fc7 0300     		.2byte	0x3
 12536 0fc9 70       		.byte	0x70
 12537 0fca 7E       		.sleb128 -2
 12538 0fcb 9F       		.byte	0x9f
 12539 0fcc 22040000 		.4byte	.LVL452
 12540 0fd0 24040000 		.4byte	.LVL453
 12541 0fd4 0100     		.2byte	0x1
 12542 0fd6 50       		.byte	0x50
 12543 0fd7 24040000 		.4byte	.LVL453
 12544 0fdb 3A040000 		.4byte	.LVL457
 12545 0fdf 0100     		.2byte	0x1
 12546 0fe1 55       		.byte	0x55
 12547 0fe2 3A040000 		.4byte	.LVL457
 12548 0fe6 40040000 		.4byte	.LVL458
 12549 0fea 0100     		.2byte	0x1
 12550 0fec 50       		.byte	0x50
 12551 0fed 40040000 		.4byte	.LVL458
 12552 0ff1 47040000 		.4byte	.LVL459-1
 12553 0ff5 0300     		.2byte	0x3
 12554 0ff7 70       		.byte	0x70
 12555 0ff8 7E       		.sleb128 -2
 12556 0ff9 9F       		.byte	0x9f
 12557 0ffa 4C040000 		.4byte	.LVL460
 12558 0ffe 4E040000 		.4byte	.LVL461
 12559 1002 0100     		.2byte	0x1
 12560 1004 50       		.byte	0x50
 12561 1005 4E040000 		.4byte	.LVL461
 12562 1009 68040000 		.4byte	.LVL464
 12563 100d 0100     		.2byte	0x1
 12564 100f 55       		.byte	0x55
 12565 1010 68040000 		.4byte	.LVL464
 12566 1014 6E040000 		.4byte	.LVL465
 12567 1018 0100     		.2byte	0x1
 12568 101a 50       		.byte	0x50
 12569 101b 6E040000 		.4byte	.LVL465
 12570 101f 75040000 		.4byte	.LVL466-1
 12571 1023 0300     		.2byte	0x3
 12572 1025 70       		.byte	0x70
 12573 1026 7E       		.sleb128 -2
 12574 1027 9F       		.byte	0x9f
ARM GAS  C:\Users\BG1026~1\AppData\Local\Temp\cc2n2B4u.s 			page 260


 12575 1028 7A040000 		.4byte	.LVL467
 12576 102c 7C040000 		.4byte	.LVL468
 12577 1030 0100     		.2byte	0x1
 12578 1032 50       		.byte	0x50
 12579 1033 7C040000 		.4byte	.LVL468
 12580 1037 8E040000 		.4byte	.LVL470
 12581 103b 0100     		.2byte	0x1
 12582 103d 55       		.byte	0x55
 12583 103e 8E040000 		.4byte	.LVL470
 12584 1042 94040000 		.4byte	.LVL471
 12585 1046 0100     		.2byte	0x1
 12586 1048 50       		.byte	0x50
 12587 1049 94040000 		.4byte	.LVL471
 12588 104d 9B040000 		.4byte	.LVL472-1
 12589 1051 0300     		.2byte	0x3
 12590 1053 70       		.byte	0x70
 12591 1054 7E       		.sleb128 -2
 12592 1055 9F       		.byte	0x9f
 12593 1056 A0040000 		.4byte	.LVL473
 12594 105a A2040000 		.4byte	.LVL474
 12595 105e 0100     		.2byte	0x1
 12596 1060 50       		.byte	0x50
 12597 1061 A2040000 		.4byte	.LVL474
 12598 1065 B4040000 		.4byte	.LVL476
 12599 1069 0100     		.2byte	0x1
 12600 106b 55       		.byte	0x55
 12601 106c B4040000 		.4byte	.LVL476
 12602 1070 BA040000 		.4byte	.LVL477
 12603 1074 0100     		.2byte	0x1
 12604 1076 50       		.byte	0x50
 12605 1077 BA040000 		.4byte	.LVL477
 12606 107b C1040000 		.4byte	.LVL478-1
 12607 107f 0300     		.2byte	0x3
 12608 1081 70       		.byte	0x70
 12609 1082 7E       		.sleb128 -2
 12610 1083 9F       		.byte	0x9f
 12611 1084 C6040000 		.4byte	.LVL479
 12612 1088 CB040000 		.4byte	.LVL481-1
 12613 108c 0100     		.2byte	0x1
 12614 108e 50       		.byte	0x50
 12615 108f DA040000 		.4byte	.LVL483
 12616 1093 F0040000 		.4byte	.LVL487
 12617 1097 0100     		.2byte	0x1
 12618 1099 55       		.byte	0x55
 12619 109a F0040000 		.4byte	.LVL487
 12620 109e F6040000 		.4byte	.LVL488
 12621 10a2 0100     		.2byte	0x1
 12622 10a4 50       		.byte	0x50
 12623 10a5 F6040000 		.4byte	.LVL488
 12624 10a9 FD040000 		.4byte	.LVL489-1
 12625 10ad 0300     		.2byte	0x3
 12626 10af 70       		.byte	0x70
 12627 10b0 7E       		.sleb128 -2
 12628 10b1 9F       		.byte	0x9f
 12629 10b2 02050000 		.4byte	.LVL490
 12630 10b6 09050000 		.4byte	.LVL492-1
 12631 10ba 0100     		.2byte	0x1
ARM GAS  C:\Users\BG1026~1\AppData\Local\Temp\cc2n2B4u.s 			page 261


 12632 10bc 50       		.byte	0x50
 12633 10bd 0A050000 		.4byte	.LVL492
 12634 10c1 10050000 		.4byte	.LVL493
 12635 10c5 0100     		.2byte	0x1
 12636 10c7 50       		.byte	0x50
 12637 10c8 10050000 		.4byte	.LVL493
 12638 10cc 17050000 		.4byte	.LVL494-1
 12639 10d0 0300     		.2byte	0x3
 12640 10d2 70       		.byte	0x70
 12641 10d3 7E       		.sleb128 -2
 12642 10d4 9F       		.byte	0x9f
 12643 10d5 1C050000 		.4byte	.LVL495
 12644 10d9 1E050000 		.4byte	.LVL496
 12645 10dd 0100     		.2byte	0x1
 12646 10df 50       		.byte	0x50
 12647 10e0 1E050000 		.4byte	.LVL496
 12648 10e4 4E050000 		.4byte	.LVL503
 12649 10e8 0100     		.2byte	0x1
 12650 10ea 55       		.byte	0x55
 12651 10eb 4E050000 		.4byte	.LVL503
 12652 10ef 54050000 		.4byte	.LVL504
 12653 10f3 0100     		.2byte	0x1
 12654 10f5 50       		.byte	0x50
 12655 10f6 54050000 		.4byte	.LVL504
 12656 10fa 5B050000 		.4byte	.LVL505-1
 12657 10fe 0300     		.2byte	0x3
 12658 1100 70       		.byte	0x70
 12659 1101 7E       		.sleb128 -2
 12660 1102 9F       		.byte	0x9f
 12661 1103 60050000 		.4byte	.LVL506
 12662 1107 67050000 		.4byte	.LVL508-1
 12663 110b 0100     		.2byte	0x1
 12664 110d 50       		.byte	0x50
 12665 110e 68050000 		.4byte	.LVL508
 12666 1112 6E050000 		.4byte	.LVL509
 12667 1116 0100     		.2byte	0x1
 12668 1118 50       		.byte	0x50
 12669 1119 6E050000 		.4byte	.LVL509
 12670 111d 75050000 		.4byte	.LVL510-1
 12671 1121 0300     		.2byte	0x3
 12672 1123 70       		.byte	0x70
 12673 1124 7E       		.sleb128 -2
 12674 1125 9F       		.byte	0x9f
 12675 1126 7A050000 		.4byte	.LVL511
 12676 112a 7F050000 		.4byte	.LVL513-1
 12677 112e 0100     		.2byte	0x1
 12678 1130 50       		.byte	0x50
 12679 1131 88050000 		.4byte	.LVL514
 12680 1135 B0050000 		.4byte	.LVL522
 12681 1139 0100     		.2byte	0x1
 12682 113b 55       		.byte	0x55
 12683 113c 00000000 		.4byte	0
 12684 1140 00000000 		.4byte	0
 12685              	.LLST49:
 12686 1144 0C000000 		.4byte	.LVL284
 12687 1148 90010000 		.4byte	.LVL347
 12688 114c 0200     		.2byte	0x2
ARM GAS  C:\Users\BG1026~1\AppData\Local\Temp\cc2n2B4u.s 			page 262


 12689 114e 30       		.byte	0x30
 12690 114f 9F       		.byte	0x9f
 12691 1150 90010000 		.4byte	.LVL347
 12692 1154 96010000 		.4byte	.LVL348
 12693 1158 0100     		.2byte	0x1
 12694 115a 50       		.byte	0x50
 12695 115b 96010000 		.4byte	.LVL348
 12696 115f 9D010000 		.4byte	.LVL349-1
 12697 1163 0300     		.2byte	0x3
 12698 1165 70       		.byte	0x70
 12699 1166 7E       		.sleb128 -2
 12700 1167 9F       		.byte	0x9f
 12701 1168 A2010000 		.4byte	.LVL350
 12702 116c A8010000 		.4byte	.LVL351
 12703 1170 0100     		.2byte	0x1
 12704 1172 50       		.byte	0x50
 12705 1173 A8010000 		.4byte	.LVL351
 12706 1177 CC010000 		.4byte	.LVL359
 12707 117b 0100     		.2byte	0x1
 12708 117d 57       		.byte	0x57
 12709 117e D4010000 		.4byte	.LVL360
 12710 1182 DA010000 		.4byte	.LVL361
 12711 1186 0100     		.2byte	0x1
 12712 1188 50       		.byte	0x50
 12713 1189 DA010000 		.4byte	.LVL361
 12714 118d E1010000 		.4byte	.LVL362-1
 12715 1191 0300     		.2byte	0x3
 12716 1193 70       		.byte	0x70
 12717 1194 7E       		.sleb128 -2
 12718 1195 9F       		.byte	0x9f
 12719 1196 E6010000 		.4byte	.LVL363
 12720 119a EC010000 		.4byte	.LVL364
 12721 119e 0100     		.2byte	0x1
 12722 11a0 50       		.byte	0x50
 12723 11a1 EC010000 		.4byte	.LVL364
 12724 11a5 56020000 		.4byte	.LVL384
 12725 11a9 0100     		.2byte	0x1
 12726 11ab 55       		.byte	0x55
 12727 11ac 56020000 		.4byte	.LVL384
 12728 11b0 AE020000 		.4byte	.LVL400
 12729 11b4 0200     		.2byte	0x2
 12730 11b6 30       		.byte	0x30
 12731 11b7 9F       		.byte	0x9f
 12732 11b8 AE020000 		.4byte	.LVL400
 12733 11bc B4020000 		.4byte	.LVL401
 12734 11c0 0100     		.2byte	0x1
 12735 11c2 50       		.byte	0x50
 12736 11c3 B4020000 		.4byte	.LVL401
 12737 11c7 BB020000 		.4byte	.LVL402-1
 12738 11cb 0300     		.2byte	0x3
 12739 11cd 70       		.byte	0x70
 12740 11ce 7E       		.sleb128 -2
 12741 11cf 9F       		.byte	0x9f
 12742 11d0 C0020000 		.4byte	.LVL403
 12743 11d4 C6020000 		.4byte	.LVL404
 12744 11d8 0100     		.2byte	0x1
 12745 11da 50       		.byte	0x50
ARM GAS  C:\Users\BG1026~1\AppData\Local\Temp\cc2n2B4u.s 			page 263


 12746 11db C6020000 		.4byte	.LVL404
 12747 11df 0E030000 		.4byte	.LVL421
 12748 11e3 0100     		.2byte	0x1
 12749 11e5 55       		.byte	0x55
 12750 11e6 0E030000 		.4byte	.LVL421
 12751 11ea B0050000 		.4byte	.LVL522
 12752 11ee 0200     		.2byte	0x2
 12753 11f0 30       		.byte	0x30
 12754 11f1 9F       		.byte	0x9f
 12755 11f2 00000000 		.4byte	0
 12756 11f6 00000000 		.4byte	0
 12757              	.LLST50:
 12758 11fa 0C000000 		.4byte	.LVL284
 12759 11fe B0010000 		.4byte	.LVL353
 12760 1202 0200     		.2byte	0x2
 12761 1204 30       		.byte	0x30
 12762 1205 9F       		.byte	0x9f
 12763 1206 B0010000 		.4byte	.LVL353
 12764 120a B2010000 		.4byte	.LVL354
 12765 120e 0100     		.2byte	0x1
 12766 1210 50       		.byte	0x50
 12767 1211 B2010000 		.4byte	.LVL354
 12768 1215 56020000 		.4byte	.LVL384
 12769 1219 0300     		.2byte	0x3
 12770 121b 91       		.byte	0x91
 12771 121c B47F     		.sleb128 -76
 12772 121e 56020000 		.4byte	.LVL384
 12773 1222 B0050000 		.4byte	.LVL522
 12774 1226 0200     		.2byte	0x2
 12775 1228 30       		.byte	0x30
 12776 1229 9F       		.byte	0x9f
 12777 122a 00000000 		.4byte	0
 12778 122e 00000000 		.4byte	0
 12779              	.LLST51:
 12780 1232 0C000000 		.4byte	.LVL284
 12781 1236 F4010000 		.4byte	.LVL366
 12782 123a 0200     		.2byte	0x2
 12783 123c 30       		.byte	0x30
 12784 123d 9F       		.byte	0x9f
 12785 123e F4010000 		.4byte	.LVL366
 12786 1242 F6010000 		.4byte	.LVL367
 12787 1246 0100     		.2byte	0x1
 12788 1248 50       		.byte	0x50
 12789 1249 F6010000 		.4byte	.LVL367
 12790 124d 56020000 		.4byte	.LVL384
 12791 1251 0100     		.2byte	0x1
 12792 1253 57       		.byte	0x57
 12793 1254 56020000 		.4byte	.LVL384
 12794 1258 B0050000 		.4byte	.LVL522
 12795 125c 0200     		.2byte	0x2
 12796 125e 30       		.byte	0x30
 12797 125f 9F       		.byte	0x9f
 12798 1260 00000000 		.4byte	0
 12799 1264 00000000 		.4byte	0
 12800              	.LLST52:
 12801 1268 0C000000 		.4byte	.LVL284
 12802 126c 16020000 		.4byte	.LVL374
ARM GAS  C:\Users\BG1026~1\AppData\Local\Temp\cc2n2B4u.s 			page 264


 12803 1270 0200     		.2byte	0x2
 12804 1272 30       		.byte	0x30
 12805 1273 9F       		.byte	0x9f
 12806 1274 16020000 		.4byte	.LVL374
 12807 1278 20020000 		.4byte	.LVL375
 12808 127c 0100     		.2byte	0x1
 12809 127e 50       		.byte	0x50
 12810 127f 20020000 		.4byte	.LVL375
 12811 1283 38020000 		.4byte	.LVL379
 12812 1287 0100     		.2byte	0x1
 12813 1289 54       		.byte	0x54
 12814 128a 38020000 		.4byte	.LVL379
 12815 128e 3E020000 		.4byte	.LVL380
 12816 1292 0100     		.2byte	0x1
 12817 1294 50       		.byte	0x50
 12818 1295 3E020000 		.4byte	.LVL380
 12819 1299 56020000 		.4byte	.LVL384
 12820 129d 0100     		.2byte	0x1
 12821 129f 54       		.byte	0x54
 12822 12a0 56020000 		.4byte	.LVL384
 12823 12a4 B0050000 		.4byte	.LVL522
 12824 12a8 0200     		.2byte	0x2
 12825 12aa 30       		.byte	0x30
 12826 12ab 9F       		.byte	0x9f
 12827 12ac 00000000 		.4byte	0
 12828 12b0 00000000 		.4byte	0
 12829              	.LLST53:
 12830 12b4 0C000000 		.4byte	.LVL284
 12831 12b8 CE020000 		.4byte	.LVL406
 12832 12bc 0200     		.2byte	0x2
 12833 12be 30       		.byte	0x30
 12834 12bf 9F       		.byte	0x9f
 12835 12c0 CE020000 		.4byte	.LVL406
 12836 12c4 D4020000 		.4byte	.LVL407
 12837 12c8 0100     		.2byte	0x1
 12838 12ca 50       		.byte	0x50
 12839 12cb D4020000 		.4byte	.LVL407
 12840 12cf E0020000 		.4byte	.LVL409
 12841 12d3 0100     		.2byte	0x1
 12842 12d5 56       		.byte	0x56
 12843 12d6 E0020000 		.4byte	.LVL409
 12844 12da E2020000 		.4byte	.LVL410
 12845 12de 0100     		.2byte	0x1
 12846 12e0 50       		.byte	0x50
 12847 12e1 E2020000 		.4byte	.LVL410
 12848 12e5 0E030000 		.4byte	.LVL421
 12849 12e9 0100     		.2byte	0x1
 12850 12eb 56       		.byte	0x56
 12851 12ec 0E030000 		.4byte	.LVL421
 12852 12f0 B0050000 		.4byte	.LVL522
 12853 12f4 0200     		.2byte	0x2
 12854 12f6 30       		.byte	0x30
 12855 12f7 9F       		.byte	0x9f
 12856 12f8 00000000 		.4byte	0
 12857 12fc 00000000 		.4byte	0
 12858              	.LLST54:
 12859 1300 0C000000 		.4byte	.LVL284
ARM GAS  C:\Users\BG1026~1\AppData\Local\Temp\cc2n2B4u.s 			page 265


 12860 1304 02030000 		.4byte	.LVL417
 12861 1308 0200     		.2byte	0x2
 12862 130a 30       		.byte	0x30
 12863 130b 9F       		.byte	0x9f
 12864 130c 02030000 		.4byte	.LVL417
 12865 1310 04030000 		.4byte	.LVL418
 12866 1314 0100     		.2byte	0x1
 12867 1316 50       		.byte	0x50
 12868 1317 04030000 		.4byte	.LVL418
 12869 131b 06030000 		.4byte	.LVL419
 12870 131f 0100     		.2byte	0x1
 12871 1321 51       		.byte	0x51
 12872 1322 0E030000 		.4byte	.LVL421
 12873 1326 B0050000 		.4byte	.LVL522
 12874 132a 0200     		.2byte	0x2
 12875 132c 30       		.byte	0x30
 12876 132d 9F       		.byte	0x9f
 12877 132e 00000000 		.4byte	0
 12878 1332 00000000 		.4byte	0
 12879              	.LLST55:
 12880 1336 40000000 		.4byte	.LVL292
 12881 133a 58000000 		.4byte	.LVL295
 12882 133e 0100     		.2byte	0x1
 12883 1340 54       		.byte	0x54
 12884 1341 5A000000 		.4byte	.LVL296
 12885 1345 60000000 		.4byte	.LVL297
 12886 1349 0100     		.2byte	0x1
 12887 134b 54       		.byte	0x54
 12888 134c 62000000 		.4byte	.LVL298
 12889 1350 80000000 		.4byte	.LVL301
 12890 1354 0100     		.2byte	0x1
 12891 1356 54       		.byte	0x54
 12892 1357 2E040000 		.4byte	.LVL455
 12893 135b 32040000 		.4byte	.LVL456
 12894 135f 0200     		.2byte	0x2
 12895 1361 30       		.byte	0x30
 12896 1362 9F       		.byte	0x9f
 12897 1363 32040000 		.4byte	.LVL456
 12898 1367 DA040000 		.4byte	.LVL483
 12899 136b 0100     		.2byte	0x1
 12900 136d 56       		.byte	0x56
 12901 136e 00000000 		.4byte	0
 12902 1372 00000000 		.4byte	0
 12903              	.LLST56:
 12904 1376 04000000 		.4byte	.LVL523
 12905 137a 3C000000 		.4byte	.LVL533
 12906 137e 0200     		.2byte	0x2
 12907 1380 31       		.byte	0x31
 12908 1381 9F       		.byte	0x9f
 12909 1382 70000000 		.4byte	.LVL537
 12910 1386 94010000 		.4byte	.LFE37
 12911 138a 0100     		.2byte	0x1
 12912 138c 54       		.byte	0x54
 12913 138d 00000000 		.4byte	0
 12914 1391 00000000 		.4byte	0
 12915              	.LLST57:
 12916 1395 04000000 		.4byte	.LVL523
ARM GAS  C:\Users\BG1026~1\AppData\Local\Temp\cc2n2B4u.s 			page 266


 12917 1399 3C000000 		.4byte	.LVL533
 12918 139d 0200     		.2byte	0x2
 12919 139f 31       		.byte	0x31
 12920 13a0 9F       		.byte	0x9f
 12921 13a1 3C000000 		.4byte	.LVL533
 12922 13a5 8C000000 		.4byte	.LVL539
 12923 13a9 0100     		.2byte	0x1
 12924 13ab 55       		.byte	0x55
 12925 13ac C0000000 		.4byte	.LVL544
 12926 13b0 E8000000 		.4byte	.LVL548
 12927 13b4 0100     		.2byte	0x1
 12928 13b6 55       		.byte	0x55
 12929 13b7 E8000000 		.4byte	.LVL548
 12930 13bb 94010000 		.4byte	.LFE37
 12931 13bf 0100     		.2byte	0x1
 12932 13c1 54       		.byte	0x54
 12933 13c2 00000000 		.4byte	0
 12934 13c6 00000000 		.4byte	0
 12935              	.LLST58:
 12936 13ca 04000000 		.4byte	.LVL523
 12937 13ce 3C000000 		.4byte	.LVL533
 12938 13d2 0200     		.2byte	0x2
 12939 13d4 30       		.byte	0x30
 12940 13d5 9F       		.byte	0x9f
 12941 13d6 EE000000 		.4byte	.LVL550
 12942 13da 12010000 		.4byte	.LVL553
 12943 13de 0100     		.2byte	0x1
 12944 13e0 50       		.byte	0x50
 12945 13e1 12010000 		.4byte	.LVL553
 12946 13e5 15010000 		.4byte	.LVL554-1
 12947 13e9 0500     		.2byte	0x5
 12948 13eb 7D       		.byte	0x7d
 12949 13ec 00       		.sleb128 0
 12950 13ed 76       		.byte	0x76
 12951 13ee 00       		.sleb128 0
 12952 13ef 22       		.byte	0x22
 12953 13f0 62010000 		.4byte	.LVL560
 12954 13f4 64010000 		.4byte	.LVL561
 12955 13f8 0100     		.2byte	0x1
 12956 13fa 50       		.byte	0x50
 12957 13fb 00000000 		.4byte	0
 12958 13ff 00000000 		.4byte	0
 12959              	.LLST59:
 12960 1403 04000000 		.4byte	.LVL523
 12961 1407 3C000000 		.4byte	.LVL533
 12962 140b 0200     		.2byte	0x2
 12963 140d 30       		.byte	0x30
 12964 140e 9F       		.byte	0x9f
 12965 140f 3C000000 		.4byte	.LVL533
 12966 1413 F8000000 		.4byte	.LVL551
 12967 1417 0100     		.2byte	0x1
 12968 1419 56       		.byte	0x56
 12969 141a F8000000 		.4byte	.LVL551
 12970 141e 0A010000 		.4byte	.LVL552
 12971 1422 0100     		.2byte	0x1
 12972 1424 53       		.byte	0x53
 12973 1425 0A010000 		.4byte	.LVL552
ARM GAS  C:\Users\BG1026~1\AppData\Local\Temp\cc2n2B4u.s 			page 267


 12974 1429 5E010000 		.4byte	.LVL559
 12975 142d 0300     		.2byte	0x3
 12976 142f 76       		.byte	0x76
 12977 1430 01       		.sleb128 1
 12978 1431 9F       		.byte	0x9f
 12979 1432 5E010000 		.4byte	.LVL559
 12980 1436 62010000 		.4byte	.LVL560
 12981 143a 0200     		.2byte	0x2
 12982 143c 30       		.byte	0x30
 12983 143d 9F       		.byte	0x9f
 12984 143e 62010000 		.4byte	.LVL560
 12985 1442 64010000 		.4byte	.LVL561
 12986 1446 0100     		.2byte	0x1
 12987 1448 53       		.byte	0x53
 12988 1449 64010000 		.4byte	.LVL561
 12989 144d 94010000 		.4byte	.LFE37
 12990 1451 0100     		.2byte	0x1
 12991 1453 56       		.byte	0x56
 12992 1454 00000000 		.4byte	0
 12993 1458 00000000 		.4byte	0
 12994              	.LLST60:
 12995 145c 12000000 		.4byte	.LVL564
 12996 1460 1D000000 		.4byte	.LVL565-1
 12997 1464 0100     		.2byte	0x1
 12998 1466 51       		.byte	0x51
 12999 1467 00000000 		.4byte	0
 13000 146b 00000000 		.4byte	0
 13001              	.LLST61:
 13002 146f 00000000 		.4byte	.LVL568
 13003 1473 07000000 		.4byte	.LVL570-1
 13004 1477 0100     		.2byte	0x1
 13005 1479 50       		.byte	0x50
 13006 147a 07000000 		.4byte	.LVL570-1
 13007 147e 20010000 		.4byte	.LFE63
 13008 1482 0400     		.2byte	0x4
 13009 1484 F3       		.byte	0xf3
 13010 1485 01       		.uleb128 0x1
 13011 1486 50       		.byte	0x50
 13012 1487 9F       		.byte	0x9f
 13013 1488 00000000 		.4byte	0
 13014 148c 00000000 		.4byte	0
 13015              	.LLST62:
 13016 1490 04000000 		.4byte	.LVL569
 13017 1494 18010000 		.4byte	.LVL575
 13018 1498 0100     		.2byte	0x1
 13019 149a 54       		.byte	0x54
 13020 149b 00000000 		.4byte	0
 13021 149f 00000000 		.4byte	0
 13022              		.section	.debug_aranges,"",%progbits
 13023 0000 04010000 		.4byte	0x104
 13024 0004 0200     		.2byte	0x2
 13025 0006 00000000 		.4byte	.Ldebug_info0
 13026 000a 04       		.byte	0x4
 13027 000b 00       		.byte	0
 13028 000c 0000     		.2byte	0
 13029 000e 0000     		.2byte	0
 13030 0010 00000000 		.4byte	.LFB35
ARM GAS  C:\Users\BG1026~1\AppData\Local\Temp\cc2n2B4u.s 			page 268


 13031 0014 58000000 		.4byte	.LFE35-.LFB35
 13032 0018 00000000 		.4byte	.LFB36
 13033 001c 50000000 		.4byte	.LFE36-.LFB36
 13034 0020 00000000 		.4byte	.LFB38
 13035 0024 38000000 		.4byte	.LFE38-.LFB38
 13036 0028 00000000 		.4byte	.LFB39
 13037 002c 3C000000 		.4byte	.LFE39-.LFB39
 13038 0030 00000000 		.4byte	.LFB40
 13039 0034 3C000000 		.4byte	.LFE40-.LFB40
 13040 0038 00000000 		.4byte	.LFB41
 13041 003c 3C000000 		.4byte	.LFE41-.LFB41
 13042 0040 00000000 		.4byte	.LFB42
 13043 0044 3C000000 		.4byte	.LFE42-.LFB42
 13044 0048 00000000 		.4byte	.LFB47
 13045 004c 08000000 		.4byte	.LFE47-.LFB47
 13046 0050 00000000 		.4byte	.LFB44
 13047 0054 B0000000 		.4byte	.LFE44-.LFB44
 13048 0058 00000000 		.4byte	.LFB45
 13049 005c 84000000 		.4byte	.LFE45-.LFB45
 13050 0060 00000000 		.4byte	.LFB46
 13051 0064 74000000 		.4byte	.LFE46-.LFB46
 13052 0068 00000000 		.4byte	.LFB61
 13053 006c A8010000 		.4byte	.LFE61-.LFB61
 13054 0070 00000000 		.4byte	.LFB62
 13055 0074 F0010000 		.4byte	.LFE62-.LFB62
 13056 0078 00000000 		.4byte	.LFB48
 13057 007c 3A000000 		.4byte	.LFE48-.LFB48
 13058 0080 00000000 		.4byte	.LFB49
 13059 0084 88000000 		.4byte	.LFE49-.LFB49
 13060 0088 00000000 		.4byte	.LFB50
 13061 008c 10010000 		.4byte	.LFE50-.LFB50
 13062 0090 00000000 		.4byte	.LFB51
 13063 0094 2C000000 		.4byte	.LFE51-.LFB51
 13064 0098 00000000 		.4byte	.LFB52
 13065 009c 10000000 		.4byte	.LFE52-.LFB52
 13066 00a0 00000000 		.4byte	.LFB53
 13067 00a4 3C000000 		.4byte	.LFE53-.LFB53
 13068 00a8 00000000 		.4byte	.LFB54
 13069 00ac 3C000000 		.4byte	.LFE54-.LFB54
 13070 00b0 00000000 		.4byte	.LFB55
 13071 00b4 3C000000 		.4byte	.LFE55-.LFB55
 13072 00b8 00000000 		.4byte	.LFB56
 13073 00bc 98000000 		.4byte	.LFE56-.LFB56
 13074 00c0 00000000 		.4byte	.LFB57
 13075 00c4 A4000000 		.4byte	.LFE57-.LFB57
 13076 00c8 00000000 		.4byte	.LFB58
 13077 00cc 48000000 		.4byte	.LFE58-.LFB58
 13078 00d0 00000000 		.4byte	.LFB59
 13079 00d4 58000000 		.4byte	.LFE59-.LFB59
 13080 00d8 00000000 		.4byte	.LFB64
 13081 00dc 40000000 		.4byte	.LFE64-.LFB64
 13082 00e0 00000000 		.4byte	.LFB43
 13083 00e4 D0050000 		.4byte	.LFE43-.LFB43
 13084 00e8 00000000 		.4byte	.LFB37
 13085 00ec 94010000 		.4byte	.LFE37-.LFB37
 13086 00f0 00000000 		.4byte	.LFB60
 13087 00f4 74000000 		.4byte	.LFE60-.LFB60
ARM GAS  C:\Users\BG1026~1\AppData\Local\Temp\cc2n2B4u.s 			page 269


 13088 00f8 00000000 		.4byte	.LFB63
 13089 00fc 20010000 		.4byte	.LFE63-.LFB63
 13090 0100 00000000 		.4byte	0
 13091 0104 00000000 		.4byte	0
 13092              		.section	.debug_ranges,"",%progbits
 13093              	.Ldebug_ranges0:
 13094 0000 00000000 		.4byte	.LFB35
 13095 0004 58000000 		.4byte	.LFE35
 13096 0008 00000000 		.4byte	.LFB36
 13097 000c 50000000 		.4byte	.LFE36
 13098 0010 00000000 		.4byte	.LFB38
 13099 0014 38000000 		.4byte	.LFE38
 13100 0018 00000000 		.4byte	.LFB39
 13101 001c 3C000000 		.4byte	.LFE39
 13102 0020 00000000 		.4byte	.LFB40
 13103 0024 3C000000 		.4byte	.LFE40
 13104 0028 00000000 		.4byte	.LFB41
 13105 002c 3C000000 		.4byte	.LFE41
 13106 0030 00000000 		.4byte	.LFB42
 13107 0034 3C000000 		.4byte	.LFE42
 13108 0038 00000000 		.4byte	.LFB47
 13109 003c 08000000 		.4byte	.LFE47
 13110 0040 00000000 		.4byte	.LFB44
 13111 0044 B0000000 		.4byte	.LFE44
 13112 0048 00000000 		.4byte	.LFB45
 13113 004c 84000000 		.4byte	.LFE45
 13114 0050 00000000 		.4byte	.LFB46
 13115 0054 74000000 		.4byte	.LFE46
 13116 0058 00000000 		.4byte	.LFB61
 13117 005c A8010000 		.4byte	.LFE61
 13118 0060 00000000 		.4byte	.LFB62
 13119 0064 F0010000 		.4byte	.LFE62
 13120 0068 00000000 		.4byte	.LFB48
 13121 006c 3A000000 		.4byte	.LFE48
 13122 0070 00000000 		.4byte	.LFB49
 13123 0074 88000000 		.4byte	.LFE49
 13124 0078 00000000 		.4byte	.LFB50
 13125 007c 10010000 		.4byte	.LFE50
 13126 0080 00000000 		.4byte	.LFB51
 13127 0084 2C000000 		.4byte	.LFE51
 13128 0088 00000000 		.4byte	.LFB52
 13129 008c 10000000 		.4byte	.LFE52
 13130 0090 00000000 		.4byte	.LFB53
 13131 0094 3C000000 		.4byte	.LFE53
 13132 0098 00000000 		.4byte	.LFB54
 13133 009c 3C000000 		.4byte	.LFE54
 13134 00a0 00000000 		.4byte	.LFB55
 13135 00a4 3C000000 		.4byte	.LFE55
 13136 00a8 00000000 		.4byte	.LFB56
 13137 00ac 98000000 		.4byte	.LFE56
 13138 00b0 00000000 		.4byte	.LFB57
 13139 00b4 A4000000 		.4byte	.LFE57
 13140 00b8 00000000 		.4byte	.LFB58
 13141 00bc 48000000 		.4byte	.LFE58
 13142 00c0 00000000 		.4byte	.LFB59
 13143 00c4 58000000 		.4byte	.LFE59
 13144 00c8 00000000 		.4byte	.LFB64
ARM GAS  C:\Users\BG1026~1\AppData\Local\Temp\cc2n2B4u.s 			page 270


 13145 00cc 40000000 		.4byte	.LFE64
 13146 00d0 00000000 		.4byte	.LFB43
 13147 00d4 D0050000 		.4byte	.LFE43
 13148 00d8 00000000 		.4byte	.LFB37
 13149 00dc 94010000 		.4byte	.LFE37
 13150 00e0 00000000 		.4byte	.LFB60
 13151 00e4 74000000 		.4byte	.LFE60
 13152 00e8 00000000 		.4byte	.LFB63
 13153 00ec 20010000 		.4byte	.LFE63
 13154 00f0 00000000 		.4byte	0
 13155 00f4 00000000 		.4byte	0
 13156              		.section	.debug_line,"",%progbits
 13157              	.Ldebug_line0:
 13158 0000 6C070000 		.section	.debug_str,"MS",%progbits,1
 13158      0200F301 
 13158      00000201 
 13158      FB0E0D00 
 13158      01010101 
 13159              	.LASF173:
 13160 0000 616E696D 		.ascii	"animate_left_right\000"
 13160      6174655F 
 13160      6C656674 
 13160      5F726967 
 13160      687400
 13161              	.LASF126:
 13162 0013 636D645F 		.ascii	"cmd_str\000"
 13162      73747200 
 13163              	.LASF54:
 13164 001b 434D445F 		.ascii	"CMD_ANIM_STOP\000"
 13164      414E494D 
 13164      5F53544F 
 13164      5000
 13165              	.LASF232:
 13166 0029 474E5520 		.ascii	"GNU C 4.9.3 20150303 (release) [ARM/embedded-4_9-br"
 13166      4320342E 
 13166      392E3320 
 13166      32303135 
 13166      30333033 
 13167 005c 616E6368 		.ascii	"anch revision 221220] -mcpu=cortex-m0plus -mthumb -"
 13167      20726576 
 13167      6973696F 
 13167      6E203232 
 13167      31323230 
 13168 008f 67202D4F 		.ascii	"g -Og -ffunction-sections -ffat-lto-objects\000"
 13168      67202D66 
 13168      66756E63 
 13168      74696F6E 
 13168      2D736563 
 13169              	.LASF172:
 13170 00bb 736B6970 		.ascii	"skip_cycle\000"
 13170      5F637963 
 13170      6C6500
 13171              	.LASF38:
 13172 00c6 414C4152 		.ascii	"ALARM_ERROR\000"
 13172      4D5F4552 
 13172      524F5200 
 13173              	.LASF233:
ARM GAS  C:\Users\BG1026~1\AppData\Local\Temp\cc2n2B4u.s 			page 271


 13174 00d2 6D61696E 		.ascii	"main.c\000"
 13174      2E6300
 13175              	.LASF82:
 13176 00d9 414E494D 		.ascii	"ANIM_UNKNOWN\000"
 13176      5F554E4B 
 13176      4E4F574E 
 13176      00
 13177              	.LASF25:
 13178 00e6 745F656E 		.ascii	"t_enum_primary_color\000"
 13178      756D5F70 
 13178      72696D61 
 13178      72795F63 
 13178      6F6C6F72 
 13179              	.LASF231:
 13180 00fb 7374726C 		.ascii	"strlen\000"
 13180      656E00
 13181              	.LASF202:
 13182 0102 74726163 		.ascii	"tracker_enable\000"
 13182      6B65725F 
 13182      656E6162 
 13182      6C6500
 13183              	.LASF36:
 13184 0111 414C4152 		.ascii	"ALARM_INFO\000"
 13184      4D5F494E 
 13184      464F00
 13185              	.LASF41:
 13186 011c 745F656E 		.ascii	"t_enum_alarm_type\000"
 13186      756D5F61 
 13186      6C61726D 
 13186      5F747970 
 13186      6500
 13187              	.LASF142:
 13188 012e 7365745F 		.ascii	"set_led_strip\000"
 13188      6C65645F 
 13188      73747269 
 13188      7000
 13189              	.LASF55:
 13190 013c 434D445F 		.ascii	"CMD_ANIM_RESUME\000"
 13190      414E494D 
 13190      5F524553 
 13190      554D4500 
 13191              	.LASF179:
 13192 014c 616E696D 		.ascii	"anim_cmd_id\000"
 13192      5F636D64 
 13192      5F696400 
 13193              	.LASF194:
 13194 0158 616E696D 		.ascii	"animate_2_leds\000"
 13194      6174655F 
 13194      325F6C65 
 13194      647300
 13195              	.LASF163:
 13196 0167 616E696D 		.ascii	"animate_green_intensity\000"
 13196      6174655F 
 13196      67726565 
 13196      6E5F696E 
 13196      74656E73 
 13197              	.LASF180:
ARM GAS  C:\Users\BG1026~1\AppData\Local\Temp\cc2n2B4u.s 			page 272


 13198 017f 616E696D 		.ascii	"anim_id\000"
 13198      5F696400 
 13199              	.LASF8:
 13200 0187 756E7369 		.ascii	"unsigned int\000"
 13200      676E6564 
 13200      20696E74 
 13200      00
 13201              	.LASF72:
 13202 0194 656E756D 		.ascii	"enum_animation\000"
 13202      5F616E69 
 13202      6D617469 
 13202      6F6E00
 13203              	.LASF147:
 13204 01a3 6C65645F 		.ascii	"led_min\000"
 13204      6D696E00 
 13205              	.LASF26:
 13206 01ab 656E756D 		.ascii	"enum_primaty_color\000"
 13206      5F707269 
 13206      6D617479 
 13206      5F636F6C 
 13206      6F7200
 13207              	.LASF90:
 13208 01be 73747275 		.ascii	"struct_animation\000"
 13208      63745F61 
 13208      6E696D61 
 13208      74696F6E 
 13208      00
 13209              	.LASF225:
 13210 01cf 43617053 		.ascii	"CapSense_Start\000"
 13210      656E7365 
 13210      5F537461 
 13210      727400
 13211              	.LASF44:
 13212 01de 434D445F 		.ascii	"CMD_CAPSENSE\000"
 13212      43415053 
 13212      454E5345 
 13212      00
 13213              	.LASF174:
 13214 01eb 616E696D 		.ascii	"animate_intensity\000"
 13214      6174655F 
 13214      696E7465 
 13214      6E736974 
 13214      7900
 13215              	.LASF89:
 13216 01fd 745F6361 		.ascii	"t_callback_anim\000"
 13216      6C6C6261 
 13216      636B5F61 
 13216      6E696D00 
 13217              	.LASF213:
 13218 020d 55415254 		.ascii	"UART_1_UartPutString\000"
 13218      5F315F55 
 13218      61727450 
 13218      75745374 
 13218      72696E67 
 13219              	.LASF227:
 13220 0222 43617053 		.ascii	"CapSense_IsBusy\000"
 13220      656E7365 
ARM GAS  C:\Users\BG1026~1\AppData\Local\Temp\cc2n2B4u.s 			page 273


 13220      5F497342 
 13220      75737900 
 13221              	.LASF42:
 13222 0232 656E756D 		.ascii	"enum_command\000"
 13222      5F636F6D 
 13222      6D616E64 
 13222      00
 13223              	.LASF153:
 13224 023f 6E65775F 		.ascii	"new_led_pos\000"
 13224      6C65645F 
 13224      706F7300 
 13225              	.LASF51:
 13226 024b 656E756D 		.ascii	"enum_anim_command\000"
 13226      5F616E69 
 13226      6D5F636F 
 13226      6D6D616E 
 13226      6400
 13227              	.LASF151:
 13228 025d 6C65645F 		.ascii	"led_stop\000"
 13228      73746F70 
 13228      00
 13229              	.LASF49:
 13230 0266 434D445F 		.ascii	"CMD_UNKNOWN\000"
 13230      554E4B4E 
 13230      4F574E00 
 13231              	.LASF185:
 13232 0272 6C65645F 		.ascii	"led_index\000"
 13232      696E6465 
 13232      7800
 13233              	.LASF71:
 13234 027c 745F656E 		.ascii	"t_enum_led_command\000"
 13234      756D5F6C 
 13234      65645F63 
 13234      6F6D6D61 
 13234      6E6400
 13235              	.LASF216:
 13236 028f 73747263 		.ascii	"strcat\000"
 13236      617400
 13237              	.LASF195:
 13238 0296 72696768 		.ascii	"right_led\000"
 13238      745F6C65 
 13238      6400
 13239              	.LASF12:
 13240 02a0 666C6F61 		.ascii	"float\000"
 13240      7400
 13241              	.LASF205:
 13242 02a6 6361705F 		.ascii	"cap_old_pos\000"
 13242      6F6C645F 
 13242      706F7300 
 13243              	.LASF204:
 13244 02b2 6361705F 		.ascii	"cap_cur_pos\000"
 13244      6375725F 
 13244      706F7300 
 13245              	.LASF220:
 13246 02be 43794465 		.ascii	"CyDelayUs\000"
 13246      6C617955 
 13246      7300
ARM GAS  C:\Users\BG1026~1\AppData\Local\Temp\cc2n2B4u.s 			page 274


 13247              	.LASF122:
 13248 02c8 72657375 		.ascii	"result\000"
 13248      6C7400
 13249              	.LASF7:
 13250 02cf 6C6F6E67 		.ascii	"long long unsigned int\000"
 13250      206C6F6E 
 13250      6720756E 
 13250      7369676E 
 13250      65642069 
 13251              	.LASF62:
 13252 02e6 434D445F 		.ascii	"CMD_TRACKER_UNKNOWN\000"
 13252      54524143 
 13252      4B45525F 
 13252      554E4B4E 
 13252      4F574E00 
 13253              	.LASF50:
 13254 02fa 745F656E 		.ascii	"t_enum_command\000"
 13254      756D5F63 
 13254      6F6D6D61 
 13254      6E6400
 13255              	.LASF134:
 13256 0309 616C6172 		.ascii	"alarm_type\000"
 13256      6D5F7479 
 13256      706500
 13257              	.LASF236:
 13258 0314 5F5F6275 		.ascii	"__builtin_strlen\000"
 13258      696C7469 
 13258      6E5F7374 
 13258      726C656E 
 13258      00
 13259              	.LASF60:
 13260 0325 434D445F 		.ascii	"CMD_TRACKER_DISABLE\000"
 13260      54524143 
 13260      4B45525F 
 13260      44495341 
 13260      424C4500 
 13261              	.LASF145:
 13262 0339 696E7465 		.ascii	"intensity\000"
 13262      6E736974 
 13262      7900
 13263              	.LASF64:
 13264 0343 656E756D 		.ascii	"enum_led_command\000"
 13264      5F6C6564 
 13264      5F636F6D 
 13264      6D616E64 
 13264      00
 13265              	.LASF161:
 13266 0354 616E696D 		.ascii	"animate_fix_led_14\000"
 13266      6174655F 
 13266      6669785F 
 13266      6C65645F 
 13266      313400
 13267              	.LASF208:
 13268 0367 7665635F 		.ascii	"vec_call_back_anim\000"
 13268      63616C6C 
 13268      5F626163 
 13268      6B5F616E 
ARM GAS  C:\Users\BG1026~1\AppData\Local\Temp\cc2n2B4u.s 			page 275


 13268      696D00
 13269              	.LASF27:
 13270 037a 656E756D 		.ascii	"enum_color_led_pos\000"
 13270      5F636F6C 
 13270      6F725F6C 
 13270      65645F70 
 13270      6F7300
 13271              	.LASF118:
 13272 038d 745F746C 		.ascii	"t_tlc_5947_led_driver\000"
 13272      635F3539 
 13272      34375F6C 
 13272      65645F64 
 13272      72697665 
 13273              	.LASF219:
 13274 03a3 4C617463 		.ascii	"Latch_Write\000"
 13274      685F5772 
 13274      69746500 
 13275              	.LASF158:
 13276 03af 67726565 		.ascii	"green_increment\000"
 13276      6E5F696E 
 13276      6372656D 
 13276      656E7400 
 13277              	.LASF29:
 13278 03bf 455F4C45 		.ascii	"E_LED_RIGHT_GREEN\000"
 13278      445F5249 
 13278      4748545F 
 13278      47524545 
 13278      4E00
 13279              	.LASF33:
 13280 03d1 455F4C45 		.ascii	"E_LED_LEFT_BLUE\000"
 13280      445F4C45 
 13280      46545F42 
 13280      4C554500 
 13281              	.LASF31:
 13282 03e1 455F4C45 		.ascii	"E_LED_LEFT_RED\000"
 13282      445F4C45 
 13282      46545F52 
 13282      454400
 13283              	.LASF128:
 13284 03f0 6765745F 		.ascii	"get_anim_cmd_id_from_cmd_string\000"
 13284      616E696D 
 13284      5F636D64 
 13284      5F69645F 
 13284      66726F6D 
 13285              	.LASF166:
 13286 0410 636F6C6F 		.ascii	"color\000"
 13286      7200
 13287              	.LASF209:
 13288 0416 7665635F 		.ascii	"vec_anim_commands\000"
 13288      616E696D 
 13288      5F636F6D 
 13288      6D616E64 
 13288      7300
 13289              	.LASF146:
 13290 0428 7365745F 		.ascii	"set_value\000"
 13290      76616C75 
 13290      6500
ARM GAS  C:\Users\BG1026~1\AppData\Local\Temp\cc2n2B4u.s 			page 276


 13291              	.LASF39:
 13292 0432 414C4152 		.ascii	"ALARM_FATAL\000"
 13292      4D5F4641 
 13292      54414C00 
 13293              	.LASF57:
 13294 043e 745F656E 		.ascii	"t_enum_anim_command\000"
 13294      756D5F61 
 13294      6E696D5F 
 13294      636F6D6D 
 13294      616E6400 
 13295              	.LASF132:
 13296 0452 73656E64 		.ascii	"send_telemetry\000"
 13296      5F74656C 
 13296      656D6574 
 13296      727900
 13297              	.LASF67:
 13298 0461 434D445F 		.ascii	"CMD_LED_SET_COLOR_RIGHT\000"
 13298      4C45445F 
 13298      5345545F 
 13298      434F4C4F 
 13298      525F5249 
 13299              	.LASF77:
 13300 0479 414E494D 		.ascii	"ANIM_GREEN_INTENSITY\000"
 13300      5F475245 
 13300      454E5F49 
 13300      4E54454E 
 13300      53495459 
 13301              	.LASF76:
 13302 048e 414E494D 		.ascii	"ANIM_RED_INTENSITY\000"
 13302      5F524544 
 13302      5F494E54 
 13302      454E5349 
 13302      545900
 13303              	.LASF17:
 13304 04a1 73697A65 		.ascii	"size_t\000"
 13304      5F7400
 13305              	.LASF124:
 13306 04a8 7369676E 		.ascii	"sign\000"
 13306      00
 13307              	.LASF181:
 13308 04ad 6C65645F 		.ascii	"led_cmd_id\000"
 13308      636D645F 
 13308      696400
 13309              	.LASF23:
 13310 04b8 455F4752 		.ascii	"E_GREEN\000"
 13310      45454E00 
 13311              	.LASF210:
 13312 04c0 7665635F 		.ascii	"vec_tracker_commands\000"
 13312      74726163 
 13312      6B65725F 
 13312      636F6D6D 
 13312      616E6473 
 13313              	.LASF127:
 13314 04d5 6765745F 		.ascii	"get_tracker_cmd_id_from_cmd_string\000"
 13314      74726163 
 13314      6B65725F 
 13314      636D645F 
ARM GAS  C:\Users\BG1026~1\AppData\Local\Temp\cc2n2B4u.s 			page 277


 13314      69645F66 
 13315              	.LASF141:
 13316 04f8 62757474 		.ascii	"button\000"
 13316      6F6E00
 13317              	.LASF203:
 13318 04ff 63757272 		.ascii	"current_callback_anim\000"
 13318      656E745F 
 13318      63616C6C 
 13318      6261636B 
 13318      5F616E69 
 13319              	.LASF45:
 13320 0515 434D445F 		.ascii	"CMD_LED\000"
 13320      4C454400 
 13321              	.LASF167:
 13322 051d 696E6372 		.ascii	"increment\000"
 13322      656D656E 
 13322      7400
 13323              	.LASF52:
 13324 0527 434D445F 		.ascii	"CMD_ANIM_AUTO\000"
 13324      414E494D 
 13324      5F415554 
 13324      4F00
 13325              	.LASF78:
 13326 0535 414E494D 		.ascii	"ANIM_BLUE_INTENSITY\000"
 13326      5F424C55 
 13326      455F494E 
 13326      54454E53 
 13326      49545900 
 13327              	.LASF189:
 13328 0549 6361705F 		.ascii	"cap_sense_was_untouched\000"
 13328      73656E73 
 13328      655F7761 
 13328      735F756E 
 13328      746F7563 
 13329              	.LASF200:
 13330 0561 73746F70 		.ascii	"stop_anim\000"
 13330      5F616E69 
 13330      6D00
 13331              	.LASF70:
 13332 056b 434D445F 		.ascii	"CMD_LED_UNKNOWN\000"
 13332      4C45445F 
 13332      554E4B4E 
 13332      4F574E00 
 13333              	.LASF61:
 13334 057b 434D445F 		.ascii	"CMD_TRACKER_SET_BUTTON\000"
 13334      54524143 
 13334      4B45525F 
 13334      5345545F 
 13334      42555454 
 13335              	.LASF92:
 13336 0592 73747275 		.ascii	"struct_animation_t\000"
 13336      63745F61 
 13336      6E696D61 
 13336      74696F6E 
 13336      5F7400
 13337              	.LASF125:
 13338 05a5 6765745F 		.ascii	"get_cmd_id_from_cmd_string\000"
ARM GAS  C:\Users\BG1026~1\AppData\Local\Temp\cc2n2B4u.s 			page 278


 13338      636D645F 
 13338      69645F66 
 13338      726F6D5F 
 13338      636D645F 
 13339              	.LASF197:
 13340 05c0 6F757477 		.ascii	"outward\000"
 13340      61726400 
 13341              	.LASF143:
 13342 05c8 6C65645F 		.ascii	"led_vec\000"
 13342      76656300 
 13343              	.LASF157:
 13344 05d0 626C7565 		.ascii	"blue_increment\000"
 13344      5F696E63 
 13344      72656D65 
 13344      6E7400
 13345              	.LASF88:
 13346 05df 745F7374 		.ascii	"t_struct_command\000"
 13346      72756374 
 13346      5F636F6D 
 13346      6D616E64 
 13346      00
 13347              	.LASF164:
 13348 05f0 616E696D 		.ascii	"animate_blue_intensity\000"
 13348      6174655F 
 13348      626C7565 
 13348      5F696E74 
 13348      656E7369 
 13349              	.LASF15:
 13350 0607 63686172 		.ascii	"char\000"
 13350      00
 13351              	.LASF188:
 13352 060c 6361705F 		.ascii	"cap_sense_is_untouched\000"
 13352      73656E73 
 13352      655F6973 
 13352      5F756E74 
 13352      6F756368 
 13353              	.LASF59:
 13354 0623 434D445F 		.ascii	"CMD_TRACKER_ENABLE\000"
 13354      54524143 
 13354      4B45525F 
 13354      454E4142 
 13354      4C4500
 13355              	.LASF191:
 13356 0636 72656365 		.ascii	"receive_pos\000"
 13356      6976655F 
 13356      706F7300 
 13357              	.LASF121:
 13358 0642 73747269 		.ascii	"string\000"
 13358      6E6700
 13359              	.LASF63:
 13360 0649 745F656E 		.ascii	"t_enum_tracker_command\000"
 13360      756D5F74 
 13360      7261636B 
 13360      65725F63 
 13360      6F6D6D61 
 13361              	.LASF10:
 13362 0660 75696E74 		.ascii	"uint16\000"
ARM GAS  C:\Users\BG1026~1\AppData\Local\Temp\cc2n2B4u.s 			page 279


 13362      313600
 13363              	.LASF131:
 13364 0667 74656C65 		.ascii	"telemetry\000"
 13364      6D657472 
 13364      7900
 13365              	.LASF47:
 13366 0671 434D445F 		.ascii	"CMD_TRACKER\000"
 13366      54524143 
 13366      4B455200 
 13367              	.LASF73:
 13368 067d 414E494D 		.ascii	"ANIM_LEFT_RIGHT\000"
 13368      5F4C4546 
 13368      545F5249 
 13368      47485400 
 13369              	.LASF14:
 13370 068d 63686172 		.ascii	"char8\000"
 13370      3800
 13371              	.LASF37:
 13372 0693 414C4152 		.ascii	"ALARM_WARNING\000"
 13372      4D5F5741 
 13372      524E494E 
 13372      4700
 13373              	.LASF168:
 13374 06a1 616E696D 		.ascii	"animate_rainbow_colors\000"
 13374      6174655F 
 13374      7261696E 
 13374      626F775F 
 13374      636F6C6F 
 13375              	.LASF152:
 13376 06b8 64697370 		.ascii	"display_state\000"
 13376      6C61795F 
 13376      73746174 
 13376      6500
 13377              	.LASF6:
 13378 06c6 6C6F6E67 		.ascii	"long long int\000"
 13378      206C6F6E 
 13378      6720696E 
 13378      7400
 13379              	.LASF87:
 13380 06d4 64657363 		.ascii	"description\000"
 13380      72697074 
 13380      696F6E00 
 13381              	.LASF104:
 13382 06e0 6C656431 		.ascii	"led10\000"
 13382      3000
 13383              	.LASF105:
 13384 06e6 6C656431 		.ascii	"led11\000"
 13384      3100
 13385              	.LASF106:
 13386 06ec 6C656431 		.ascii	"led12\000"
 13386      3200
 13387              	.LASF107:
 13388 06f2 6C656431 		.ascii	"led13\000"
 13388      3300
 13389              	.LASF108:
 13390 06f8 6C656431 		.ascii	"led14\000"
 13390      3400
ARM GAS  C:\Users\BG1026~1\AppData\Local\Temp\cc2n2B4u.s 			page 280


 13391              	.LASF109:
 13392 06fe 6C656431 		.ascii	"led15\000"
 13392      3500
 13393              	.LASF110:
 13394 0704 6C656431 		.ascii	"led16\000"
 13394      3600
 13395              	.LASF111:
 13396 070a 6C656431 		.ascii	"led17\000"
 13396      3700
 13397              	.LASF112:
 13398 0710 6C656431 		.ascii	"led18\000"
 13398      3800
 13399              	.LASF113:
 13400 0716 6C656431 		.ascii	"led19\000"
 13400      3900
 13401              	.LASF81:
 13402 071c 414E494D 		.ascii	"ANIM_FIX_WHITE\000"
 13402      5F464958 
 13402      5F574849 
 13402      544500
 13403              	.LASF21:
 13404 072b 745F7374 		.ascii	"t_struct_rgb_color\000"
 13404      72756374 
 13404      5F726762 
 13404      5F636F6C 
 13404      6F7200
 13405              	.LASF119:
 13406 073e 69746F61 		.ascii	"itoa\000"
 13406      00
 13407              	.LASF123:
 13408 0743 64696769 		.ascii	"digit\000"
 13408      7400
 13409              	.LASF68:
 13410 0749 434D445F 		.ascii	"CMD_LED_SET_WHITE\000"
 13410      4C45445F 
 13410      5345545F 
 13410      57484954 
 13410      4500
 13411              	.LASF214:
 13412 075b 6D656D73 		.ascii	"memset\000"
 13412      657400
 13413              	.LASF94:
 13414 0762 6C656430 		.ascii	"led0\000"
 13414      00
 13415              	.LASF95:
 13416 0767 6C656431 		.ascii	"led1\000"
 13416      00
 13417              	.LASF96:
 13418 076c 6C656432 		.ascii	"led2\000"
 13418      00
 13419              	.LASF97:
 13420 0771 6C656433 		.ascii	"led3\000"
 13420      00
 13421              	.LASF98:
 13422 0776 6C656434 		.ascii	"led4\000"
 13422      00
 13423              	.LASF99:
ARM GAS  C:\Users\BG1026~1\AppData\Local\Temp\cc2n2B4u.s 			page 281


 13424 077b 6C656435 		.ascii	"led5\000"
 13424      00
 13425              	.LASF100:
 13426 0780 6C656436 		.ascii	"led6\000"
 13426      00
 13427              	.LASF101:
 13428 0785 6C656437 		.ascii	"led7\000"
 13428      00
 13429              	.LASF102:
 13430 078a 6C656438 		.ascii	"led8\000"
 13430      00
 13431              	.LASF103:
 13432 078f 6C656439 		.ascii	"led9\000"
 13432      00
 13433              	.LASF182:
 13434 0794 74726163 		.ascii	"tracker_cmd_id\000"
 13434      6B65725F 
 13434      636D645F 
 13434      696400
 13435              	.LASF165:
 13436 07a3 616E696D 		.ascii	"animate_color_intensity\000"
 13436      6174655F 
 13436      636F6C6F 
 13436      725F696E 
 13436      74656E73 
 13437              	.LASF11:
 13438 07bb 75696E74 		.ascii	"uint32\000"
 13438      333200
 13439              	.LASF32:
 13440 07c2 455F4C45 		.ascii	"E_LED_LEFT_GREEN\000"
 13440      445F4C45 
 13440      46545F47 
 13440      5245454E 
 13440      00
 13441              	.LASF114:
 13442 07d3 6C656432 		.ascii	"led20\000"
 13442      3000
 13443              	.LASF115:
 13444 07d9 6C656432 		.ascii	"led21\000"
 13444      3100
 13445              	.LASF116:
 13446 07df 6C656432 		.ascii	"led22\000"
 13446      3200
 13447              	.LASF117:
 13448 07e5 6C656432 		.ascii	"led23\000"
 13448      3300
 13449              	.LASF228:
 13450 07eb 43617053 		.ascii	"CapSense_ProcessAllWidgets\000"
 13450      656E7365 
 13450      5F50726F 
 13450      63657373 
 13450      416C6C57 
 13451              	.LASF35:
 13452 0806 414C4152 		.ascii	"ALARM_LOG\000"
 13452      4D5F4C4F 
 13452      4700
 13453              	.LASF234:
ARM GAS  C:\Users\BG1026~1\AppData\Local\Temp\cc2n2B4u.s 			page 282


 13454 0810 433A5C42 		.ascii	"C:\\Bruno\\Slider_WS.Bundle05\\Slider\\Slider.cydsn"
 13454      72756E6F 
 13454      5C536C69 
 13454      6465725F 
 13454      57532E42 
 13455 083f 00       		.ascii	"\000"
 13456              	.LASF235:
 13457 0840 5F5F6374 		.ascii	"__ctype_ptr__\000"
 13457      7970655F 
 13457      7074725F 
 13457      5F00
 13458              	.LASF148:
 13459 084e 64697370 		.ascii	"display_button\000"
 13459      6C61795F 
 13459      62757474 
 13459      6F6E00
 13460              	.LASF19:
 13461 085d 67726565 		.ascii	"green\000"
 13461      6E00
 13462              	.LASF28:
 13463 0863 455F4C45 		.ascii	"E_LED_RIGHT_RED\000"
 13463      445F5249 
 13463      4748545F 
 13463      52454400 
 13464              	.LASF137:
 13465 0873 73656E64 		.ascii	"send_animation_telemetry\000"
 13465      5F616E69 
 13465      6D617469 
 13465      6F6E5F74 
 13465      656C656D 
 13466              	.LASF40:
 13467 088c 414C4152 		.ascii	"ALARM_UNKNOWN\000"
 13467      4D5F554E 
 13467      4B4E4F57 
 13467      4E00
 13468              	.LASF175:
 13469 089a 636C6561 		.ascii	"clear_all_leds\000"
 13469      725F616C 
 13469      6C5F6C65 
 13469      647300
 13470              	.LASF58:
 13471 08a9 656E756D 		.ascii	"enum_tracker_command\000"
 13471      5F747261 
 13471      636B6572 
 13471      5F636F6D 
 13471      6D616E64 
 13472              	.LASF196:
 13473 08be 6C656674 		.ascii	"left_led\000"
 13473      5F6C6564 
 13473      00
 13474              	.LASF79:
 13475 08c7 414E494D 		.ascii	"ANIM_COLORS_INTENSITY\000"
 13475      5F434F4C 
 13475      4F52535F 
 13475      494E5445 
 13475      4E534954 
 13476              	.LASF136:
ARM GAS  C:\Users\BG1026~1\AppData\Local\Temp\cc2n2B4u.s 			page 283


 13477 08dd 616C6172 		.ascii	"alarm_string\000"
 13477      6D5F7374 
 13477      72696E67 
 13477      00
 13478              	.LASF171:
 13479 08ea 7665635F 		.ascii	"vec_rainbow\000"
 13479      7261696E 
 13479      626F7700 
 13480              	.LASF199:
 13481 08f6 6C65645F 		.ascii	"led_buffer\000"
 13481      62756666 
 13481      657200
 13482              	.LASF184:
 13483 0901 6E657874 		.ascii	"next_param_str\000"
 13483      5F706172 
 13483      616D5F73 
 13483      747200
 13484              	.LASF229:
 13485 0910 43617053 		.ascii	"CapSense_GetCentroidPos\000"
 13485      656E7365 
 13485      5F476574 
 13485      43656E74 
 13485      726F6964 
 13486              	.LASF221:
 13487 0928 73747263 		.ascii	"strchr\000"
 13487      687200
 13488              	.LASF206:
 13489 092f 6C65645F 		.ascii	"led_pos\000"
 13489      706F7300 
 13490              	.LASF85:
 13491 0937 73747275 		.ascii	"struct_command\000"
 13491      63745F63 
 13491      6F6D6D61 
 13491      6E6400
 13492              	.LASF159:
 13493 0946 7265645F 		.ascii	"red_increment\000"
 13493      696E6372 
 13493      656D656E 
 13493      7400
 13494              	.LASF2:
 13495 0954 73686F72 		.ascii	"short int\000"
 13495      7420696E 
 13495      7400
 13496              	.LASF144:
 13497 095e 7365745F 		.ascii	"set_led\000"
 13497      6C656400 
 13498              	.LASF43:
 13499 0966 434D445F 		.ascii	"CMD_ANIMATION\000"
 13499      414E494D 
 13499      4154494F 
 13499      4E00
 13500              	.LASF4:
 13501 0974 6C6F6E67 		.ascii	"long int\000"
 13501      20696E74 
 13501      00
 13502              	.LASF170:
 13503 097d 636F6C6F 		.ascii	"color_index\000"
ARM GAS  C:\Users\BG1026~1\AppData\Local\Temp\cc2n2B4u.s 			page 284


 13503      725F696E 
 13503      64657800 
 13504              	.LASF230:
 13505 0989 55415254 		.ascii	"UART_1_UartGetChar\000"
 13505      5F315F55 
 13505      61727447 
 13505      65744368 
 13505      617200
 13506              	.LASF84:
 13507 099c 73747275 		.ascii	"struct_rgb_color\000"
 13507      63745F72 
 13507      67625F63 
 13507      6F6C6F72 
 13507      00
 13508              	.LASF190:
 13509 09ad 75617274 		.ascii	"uart_char_in\000"
 13509      5F636861 
 13509      725F696E 
 13509      00
 13510              	.LASF93:
 13511 09ba 746C635F 		.ascii	"tlc_5947_led_driver\000"
 13511      35393437 
 13511      5F6C6564 
 13511      5F647269 
 13511      76657200 
 13512              	.LASF138:
 13513 09ce 616E696D 		.ascii	"animation_index\000"
 13513      6174696F 
 13513      6E5F696E 
 13513      64657800 
 13514              	.LASF34:
 13515 09de 656E756D 		.ascii	"enum_alarm_type\000"
 13515      5F616C61 
 13515      726D5F74 
 13515      79706500 
 13516              	.LASF53:
 13517 09ee 434D445F 		.ascii	"CMD_ANIM_MANUAL\000"
 13517      414E494D 
 13517      5F4D414E 
 13517      55414C00 
 13518              	.LASF169:
 13519 09fe 6379636C 		.ascii	"cycle\000"
 13519      6500
 13520              	.LASF69:
 13521 0a04 434D445F 		.ascii	"CMD_LED_SET_STRIP\000"
 13521      4C45445F 
 13521      5345545F 
 13521      53545249 
 13521      5000
 13522              	.LASF149:
 13523 0a16 62757474 		.ascii	"button_width\000"
 13523      6F6E5F77 
 13523      69647468 
 13523      00
 13524              	.LASF20:
 13525 0a23 626C7565 		.ascii	"blue\000"
 13525      00
ARM GAS  C:\Users\BG1026~1\AppData\Local\Temp\cc2n2B4u.s 			page 285


 13526              	.LASF139:
 13527 0a28 61637469 		.ascii	"action\000"
 13527      6F6E00
 13528              	.LASF162:
 13529 0a2f 616E696D 		.ascii	"animate_red_intensity\000"
 13529      6174655F 
 13529      7265645F 
 13529      696E7465 
 13529      6E736974 
 13530              	.LASF56:
 13531 0a45 434D445F 		.ascii	"CMD_ANIM_UNKNOWN\000"
 13531      414E494D 
 13531      5F554E4B 
 13531      4E4F574E 
 13531      00
 13532              	.LASF66:
 13533 0a56 434D445F 		.ascii	"CMD_LED_SET_COLOR_LEFT\000"
 13533      4C45445F 
 13533      5345545F 
 13533      434F4C4F 
 13533      525F4C45 
 13534              	.LASF46:
 13535 0a6d 434D445F 		.ascii	"CMD_HELP\000"
 13535      48454C50 
 13535      00
 13536              	.LASF74:
 13537 0a76 414E494D 		.ascii	"ANIM_INTENSITY\000"
 13537      5F494E54 
 13537      454E5349 
 13537      545900
 13538              	.LASF135:
 13539 0a85 736F7572 		.ascii	"source\000"
 13539      636500
 13540              	.LASF48:
 13541 0a8c 434D445F 		.ascii	"CMD_VERSION\000"
 13541      56455253 
 13541      494F4E00 
 13542              	.LASF86:
 13543 0a98 6E616D65 		.ascii	"name\000"
 13543      00
 13544              	.LASF201:
 13545 0a9d 6175746F 		.ascii	"auto_anim\000"
 13545      5F616E69 
 13545      6D00
 13546              	.LASF176:
 13547 0aa7 70617273 		.ascii	"parse_and_execute_command\000"
 13547      655F616E 
 13547      645F6578 
 13547      65637574 
 13547      655F636F 
 13548              	.LASF224:
 13549 0ac1 55415254 		.ascii	"UART_1_Start\000"
 13549      5F315F53 
 13549      74617274 
 13549      00
 13550              	.LASF154:
 13551 0ace 6C65645F 		.ascii	"led_buckets\000"
ARM GAS  C:\Users\BG1026~1\AppData\Local\Temp\cc2n2B4u.s 			page 286


 13551      6275636B 
 13551      65747300 
 13552              	.LASF222:
 13553 0ada 426C616E 		.ascii	"Blank_Write\000"
 13553      6B5F5772 
 13553      69746500 
 13554              	.LASF160:
 13555 0ae6 616E696D 		.ascii	"animate_fix_white\000"
 13555      6174655F 
 13555      6669785F 
 13555      77686974 
 13555      6500
 13556              	.LASF18:
 13557 0af8 73697A65 		.ascii	"sizetype\000"
 13557      74797065 
 13557      00
 13558              	.LASF5:
 13559 0b01 6C6F6E67 		.ascii	"long unsigned int\000"
 13559      20756E73 
 13559      69676E65 
 13559      6420696E 
 13559      7400
 13560              	.LASF80:
 13561 0b13 414E494D 		.ascii	"ANIM_RAINBOW_COLORS\000"
 13561      5F524149 
 13561      4E424F57 
 13561      5F434F4C 
 13561      4F525300 
 13562              	.LASF215:
 13563 0b27 73747273 		.ascii	"strstr\000"
 13563      747200
 13564              	.LASF183:
 13565 0b2e 70617261 		.ascii	"param_str\000"
 13565      6D5F7374 
 13565      7200
 13566              	.LASF178:
 13567 0b38 636D645F 		.ascii	"cmd_id\000"
 13567      696400
 13568              	.LASF83:
 13569 0b3f 745F656E 		.ascii	"t_enum_animation\000"
 13569      756D5F61 
 13569      6E696D61 
 13569      74696F6E 
 13569      00
 13570              	.LASF193:
 13571 0b50 72656365 		.ascii	"receive_string\000"
 13571      6976655F 
 13571      73747269 
 13571      6E6700
 13572              	.LASF16:
 13573 0b5f 63797374 		.ascii	"cystatus\000"
 13573      61747573 
 13573      00
 13574              	.LASF198:
 13575 0b68 7365745F 		.ascii	"set_all_leds_intensity\000"
 13575      616C6C5F 
 13575      6C656473 
ARM GAS  C:\Users\BG1026~1\AppData\Local\Temp\cc2n2B4u.s 			page 287


 13575      5F696E74 
 13575      656E7369 
 13576              	.LASF130:
 13577 0b7f 6765745F 		.ascii	"get_led_cmd_id_from_cmd_string\000"
 13577      6C65645F 
 13577      636D645F 
 13577      69645F66 
 13577      726F6D5F 
 13578              	.LASF1:
 13579 0b9e 756E7369 		.ascii	"unsigned char\000"
 13579      676E6564 
 13579      20636861 
 13579      7200
 13580              	.LASF22:
 13581 0bac 455F5245 		.ascii	"E_RED\000"
 13581      4400
 13582              	.LASF150:
 13583 0bb2 6C65645F 		.ascii	"led_start\000"
 13583      73746172 
 13583      7400
 13584              	.LASF186:
 13585 0bbc 6C65645F 		.ascii	"led_intensity\000"
 13585      696E7465 
 13585      6E736974 
 13585      7900
 13586              	.LASF211:
 13587 0bca 7665635F 		.ascii	"vec_led_commands\000"
 13587      6C65645F 
 13587      636F6D6D 
 13587      616E6473 
 13587      00
 13588              	.LASF30:
 13589 0bdb 455F4C45 		.ascii	"E_LED_RIGHT_BLUE\000"
 13589      445F5249 
 13589      4748545F 
 13589      424C5545 
 13589      00
 13590              	.LASF91:
 13591 0bec 63616C6C 		.ascii	"callback\000"
 13591      6261636B 
 13591      00
 13592              	.LASF177:
 13593 0bf5 636D645F 		.ascii	"cmd_str_and_param\000"
 13593      7374725F 
 13593      616E645F 
 13593      70617261 
 13593      6D00
 13594              	.LASF226:
 13595 0c07 43617053 		.ascii	"CapSense_ScanAllWidgets\000"
 13595      656E7365 
 13595      5F536361 
 13595      6E416C6C 
 13595      57696467 
 13596              	.LASF192:
 13597 0c1f 636F6D6D 		.ascii	"command\000"
 13597      616E6400 
 13598              	.LASF140:
ARM GAS  C:\Users\BG1026~1\AppData\Local\Temp\cc2n2B4u.s 			page 288


 13599 0c27 73656E64 		.ascii	"send_button_telemetry\000"
 13599      5F627574 
 13599      746F6E5F 
 13599      74656C65 
 13599      6D657472 
 13600              	.LASF65:
 13601 0c3d 434D445F 		.ascii	"CMD_LED_CLEAR\000"
 13601      4C45445F 
 13601      434C4541 
 13601      5200
 13602              	.LASF129:
 13603 0c4b 6765745F 		.ascii	"get_anim_id_from_cmd_string\000"
 13603      616E696D 
 13603      5F69645F 
 13603      66726F6D 
 13603      5F636D64 
 13604              	.LASF0:
 13605 0c67 7369676E 		.ascii	"signed char\000"
 13605      65642063 
 13605      68617200 
 13606              	.LASF3:
 13607 0c73 73686F72 		.ascii	"short unsigned int\000"
 13607      7420756E 
 13607      7369676E 
 13607      65642069 
 13607      6E7400
 13608              	.LASF212:
 13609 0c86 7665635F 		.ascii	"vec_commands\000"
 13609      636F6D6D 
 13609      616E6473 
 13609      00
 13610              	.LASF207:
 13611 0c93 6E756D62 		.ascii	"number_of_buttons\000"
 13611      65725F6F 
 13611      665F6275 
 13611      74746F6E 
 13611      7300
 13612              	.LASF217:
 13613 0ca5 6D656D63 		.ascii	"memcpy\000"
 13613      707900
 13614              	.LASF187:
 13615 0cac 6D61696E 		.ascii	"main\000"
 13615      00
 13616              	.LASF120:
 13617 0cb1 61746F69 		.ascii	"atoi\000"
 13617      00
 13618              	.LASF156:
 13619 0cb6 696E7465 		.ascii	"intensity_up\000"
 13619      6E736974 
 13619      795F7570 
 13619      00
 13620              	.LASF9:
 13621 0cc3 75696E74 		.ascii	"uint8\000"
 13621      3800
 13622              	.LASF13:
 13623 0cc9 646F7562 		.ascii	"double\000"
 13623      6C6500
ARM GAS  C:\Users\BG1026~1\AppData\Local\Temp\cc2n2B4u.s 			page 289


 13624              	.LASF133:
 13625 0cd0 73656E64 		.ascii	"send_alarm_telemetry\000"
 13625      5F616C61 
 13625      726D5F74 
 13625      656C656D 
 13625      65747279 
 13626              	.LASF75:
 13627 0ce5 414E494D 		.ascii	"ANIM_2_LEDS\000"
 13627      5F325F4C 
 13627      45445300 
 13628              	.LASF155:
 13629 0cf1 616E696D 		.ascii	"animate_all_colors\000"
 13629      6174655F 
 13629      616C6C5F 
 13629      636F6C6F 
 13629      727300
 13630              	.LASF223:
 13631 0d04 5350494D 		.ascii	"SPIM_Start\000"
 13631      5F537461 
 13631      727400
 13632              	.LASF218:
 13633 0d0f 5350494D 		.ascii	"SPIM_SpiUartPutArray\000"
 13633      5F537069 
 13633      55617274 
 13633      50757441 
 13633      72726179 
 13634              	.LASF24:
 13635 0d24 455F424C 		.ascii	"E_BLUE\000"
 13635      554500
 13636              		.ident	"GCC: (GNU Tools for ARM Embedded Processors) 4.9.3 20150303 (release) [ARM/embedded-4_9-br
