ARM GAS  C:\Users\MM1005~1\AppData\Local\Temp\ccDYJIra.s 			page 1


   1              		.cpu cortex-m0plus
   2              		.fpu softvfp
   3              		.eabi_attribute 20, 1
   4              		.eabi_attribute 21, 1
   5              		.eabi_attribute 23, 3
   6              		.eabi_attribute 24, 1
   7              		.eabi_attribute 25, 1
   8              		.eabi_attribute 26, 1
   9              		.eabi_attribute 30, 1
  10              		.eabi_attribute 34, 0
  11              		.eabi_attribute 18, 4
  12              		.code	16
  13              		.file	"CapSense_Processing.c"
  14              		.text
  15              	.Ltext0:
  16              		.cfi_sections	.debug_frame
  17              		.section	.text.CapSense_DpInitialize,"ax",%progbits
  18              		.align	2
  19              		.global	CapSense_DpInitialize
  20              		.code	16
  21              		.thumb_func
  22              		.type	CapSense_DpInitialize, %function
  23              	CapSense_DpInitialize:
  24              	.LFB2:
  25              		.file 1 "Generated_Source\\PSoC4\\CapSense_Processing.c"
   1:Generated_Source\PSoC4/CapSense_Processing.c **** /***************************************************************************//**
   2:Generated_Source\PSoC4/CapSense_Processing.c **** * \file CapSense_Processing.c
   3:Generated_Source\PSoC4/CapSense_Processing.c **** * \version 3.10
   4:Generated_Source\PSoC4/CapSense_Processing.c **** *
   5:Generated_Source\PSoC4/CapSense_Processing.c **** * \brief
   6:Generated_Source\PSoC4/CapSense_Processing.c **** * This file provides the source code for the Data Processing module APIs
   7:Generated_Source\PSoC4/CapSense_Processing.c **** * of the component. The Data Processing module is responsible for the
   8:Generated_Source\PSoC4/CapSense_Processing.c **** * low level raw counts processing provided by the sensing module, maintaining
   9:Generated_Source\PSoC4/CapSense_Processing.c **** * baseline and difference values and performing high-level widget processing
  10:Generated_Source\PSoC4/CapSense_Processing.c **** * like updating button status or calculating slider position.
  11:Generated_Source\PSoC4/CapSense_Processing.c **** *
  12:Generated_Source\PSoC4/CapSense_Processing.c **** * \see CapSense P4 v3.10 Datasheet
  13:Generated_Source\PSoC4/CapSense_Processing.c **** *
  14:Generated_Source\PSoC4/CapSense_Processing.c **** *//*****************************************************************************
  15:Generated_Source\PSoC4/CapSense_Processing.c **** * Copyright (2016), Cypress Semiconductor Corporation.
  16:Generated_Source\PSoC4/CapSense_Processing.c **** ********************************************************************************
  17:Generated_Source\PSoC4/CapSense_Processing.c **** * This software is owned by Cypress Semiconductor Corporation (Cypress) and is
  18:Generated_Source\PSoC4/CapSense_Processing.c **** * protected by and subject to worldwide patent protection (United States and
  19:Generated_Source\PSoC4/CapSense_Processing.c **** * foreign), United States copyright laws and international treaty provisions.
  20:Generated_Source\PSoC4/CapSense_Processing.c **** * Cypress hereby grants to licensee a personal, non-exclusive, non-transferable
  21:Generated_Source\PSoC4/CapSense_Processing.c **** * license to copy, use, modify, create derivative works of, and compile the
  22:Generated_Source\PSoC4/CapSense_Processing.c **** * Cypress Source Code and derivative works for the sole purpose of creating
  23:Generated_Source\PSoC4/CapSense_Processing.c **** * custom software in support of licensee product to be used only in conjunction
  24:Generated_Source\PSoC4/CapSense_Processing.c **** * with a Cypress integrated circuit as specified in the applicable agreement.
  25:Generated_Source\PSoC4/CapSense_Processing.c **** * Any reproduction, modification, translation, compilation, or representation of
  26:Generated_Source\PSoC4/CapSense_Processing.c **** * this software except as specified above is prohibited without the express
  27:Generated_Source\PSoC4/CapSense_Processing.c **** * written permission of Cypress.
  28:Generated_Source\PSoC4/CapSense_Processing.c **** *
  29:Generated_Source\PSoC4/CapSense_Processing.c **** * Disclaimer: CYPRESS MAKES NO WARRANTY OF ANY KIND, EXPRESS OR IMPLIED, WITH
  30:Generated_Source\PSoC4/CapSense_Processing.c **** * REGARD TO THIS MATERIAL, INCLUDING, BUT NOT LIMITED TO, THE IMPLIED
  31:Generated_Source\PSoC4/CapSense_Processing.c **** * WARRANTIES OF MERCHANTABILITY AND FITNESS FOR A PARTICULAR PURPOSE.
  32:Generated_Source\PSoC4/CapSense_Processing.c **** * Cypress reserves the right to make changes without further notice to the
ARM GAS  C:\Users\MM1005~1\AppData\Local\Temp\ccDYJIra.s 			page 2


  33:Generated_Source\PSoC4/CapSense_Processing.c **** * materials described herein. Cypress does not assume any liability arising out
  34:Generated_Source\PSoC4/CapSense_Processing.c **** * of the application or use of any product or circuit described herein. Cypress
  35:Generated_Source\PSoC4/CapSense_Processing.c **** * does not authorize its products for use as critical components in life-support
  36:Generated_Source\PSoC4/CapSense_Processing.c **** * systems where a malfunction or failure may reasonably be expected to result in
  37:Generated_Source\PSoC4/CapSense_Processing.c **** * significant injury to the user. The inclusion of Cypress' product in a life-
  38:Generated_Source\PSoC4/CapSense_Processing.c **** * support systems application implies that the manufacturer assumes all risk of
  39:Generated_Source\PSoC4/CapSense_Processing.c **** * such use and in doing so indemnifies Cypress against all charges. Use may be
  40:Generated_Source\PSoC4/CapSense_Processing.c **** * limited by and subject to the applicable Cypress software license agreement.
  41:Generated_Source\PSoC4/CapSense_Processing.c **** *******************************************************************************/
  42:Generated_Source\PSoC4/CapSense_Processing.c **** 
  43:Generated_Source\PSoC4/CapSense_Processing.c **** #include "cytypes.h"
  44:Generated_Source\PSoC4/CapSense_Processing.c **** #include "CapSense_Configuration.h"
  45:Generated_Source\PSoC4/CapSense_Processing.c **** #include "CapSense_Processing.h"
  46:Generated_Source\PSoC4/CapSense_Processing.c **** #include "CapSense_Filter.h"
  47:Generated_Source\PSoC4/CapSense_Processing.c **** 
  48:Generated_Source\PSoC4/CapSense_Processing.c **** #if (0u != CapSense_CENTROID_EN)
  49:Generated_Source\PSoC4/CapSense_Processing.c ****     #include "CapSense_Centroid_LL.h"
  50:Generated_Source\PSoC4/CapSense_Processing.c **** #endif /* (0 != CapSense_CENTROID_EN) */
  51:Generated_Source\PSoC4/CapSense_Processing.c **** 
  52:Generated_Source\PSoC4/CapSense_Processing.c **** #if (0 != (CapSense_CSD_AUTOTUNE & CapSense_CSD_SS_TH_EN))
  53:Generated_Source\PSoC4/CapSense_Processing.c ****     #include "CapSense_SmartSense_LL.h"
  54:Generated_Source\PSoC4/CapSense_Processing.c **** #endif /* (0 != (CapSense_CSD_AUTOTUNE & CapSense_CSD_SS_TH_EN)) */
  55:Generated_Source\PSoC4/CapSense_Processing.c **** 
  56:Generated_Source\PSoC4/CapSense_Processing.c **** #if (CapSense_ENABLE == CapSense_SELF_TEST_EN)
  57:Generated_Source\PSoC4/CapSense_Processing.c ****     #include "CapSense_SelfTest.h"
  58:Generated_Source\PSoC4/CapSense_Processing.c **** #endif
  59:Generated_Source\PSoC4/CapSense_Processing.c **** 
  60:Generated_Source\PSoC4/CapSense_Processing.c **** #include "CyLib.h"
  61:Generated_Source\PSoC4/CapSense_Processing.c **** 
  62:Generated_Source\PSoC4/CapSense_Processing.c **** /**************************************************************************************************
  63:Generated_Source\PSoC4/CapSense_Processing.c **** * Local definition
  64:Generated_Source\PSoC4/CapSense_Processing.c **** ***************************************************************************************************
  65:Generated_Source\PSoC4/CapSense_Processing.c **** 
  66:Generated_Source\PSoC4/CapSense_Processing.c **** /* This definition resolves to TRUE if any of the FW filters for raw counts are enabled */
  67:Generated_Source\PSoC4/CapSense_Processing.c **** #define DP_FW_FILTER_EN                                 \
  68:Generated_Source\PSoC4/CapSense_Processing.c ****             (CapSense_REGULAR_RC_FILTER_EN |  \
  69:Generated_Source\PSoC4/CapSense_Processing.c ****              CapSense_PROX_RC_FILTER_EN)
  70:Generated_Source\PSoC4/CapSense_Processing.c **** 
  71:Generated_Source\PSoC4/CapSense_Processing.c **** /* This definition resolves to TRUE if any of the position filters are enabled */
  72:Generated_Source\PSoC4/CapSense_Processing.c **** #define DP_POSITION_FILTER_EN                           \
  73:Generated_Source\PSoC4/CapSense_Processing.c ****             (CapSense_POS_IIR_FILTER_EN      || \
  74:Generated_Source\PSoC4/CapSense_Processing.c ****              CapSense_POS_MEDIAN_FILTER_EN   || \
  75:Generated_Source\PSoC4/CapSense_Processing.c ****              CapSense_POS_AVERAGE_FILTER_EN  || \
  76:Generated_Source\PSoC4/CapSense_Processing.c ****              CapSense_POS_JITTER_FILTER_EN)
  77:Generated_Source\PSoC4/CapSense_Processing.c **** 
  78:Generated_Source\PSoC4/CapSense_Processing.c **** /* This definition resolves to TRUE if any of position filters are enabled and component has slider
  79:Generated_Source\PSoC4/CapSense_Processing.c ****  * The processing function of the CSD touchpad reuses the filtering function of the slider widget. 
  80:Generated_Source\PSoC4/CapSense_Processing.c **** #define DP_LINEAR_SLIDER_FILTER_EN                                             \
  81:Generated_Source\PSoC4/CapSense_Processing.c ****            (DP_POSITION_FILTER_EN && (CapSense_TOTAL_LINEAR_SLIDERS || \
  82:Generated_Source\PSoC4/CapSense_Processing.c ****                                       CapSense_CSD_TOUCHPAD_WIDGET_EN))
  83:Generated_Source\PSoC4/CapSense_Processing.c **** 
  84:Generated_Source\PSoC4/CapSense_Processing.c **** /* UINT32 constant with all odd bits set. It is used by the processing function of the Proximity wi
  85:Generated_Source\PSoC4/CapSense_Processing.c **** *  determine type of the status bit: odd bits report proximity status; even bits report touch statu
  86:Generated_Source\PSoC4/CapSense_Processing.c ****  */
  87:Generated_Source\PSoC4/CapSense_Processing.c **** #define UINT32_ODD_BITS_CONST       (0x55555555u)
  88:Generated_Source\PSoC4/CapSense_Processing.c **** 
  89:Generated_Source\PSoC4/CapSense_Processing.c **** /* Default value for the Off Debounce counter when the Off Debounce is disabled */
ARM GAS  C:\Users\MM1005~1\AppData\Local\Temp\ccDYJIra.s 			page 3


  90:Generated_Source\PSoC4/CapSense_Processing.c **** #define DEFAULT_OFF_DEBOUNCE_VALUE  (1u)
  91:Generated_Source\PSoC4/CapSense_Processing.c **** #define PERCENTAGE_100              (0x00000064Lu)
  92:Generated_Source\PSoC4/CapSense_Processing.c **** #define TEMP_BUFFER_MSB_SHIFT       (16)
  93:Generated_Source\PSoC4/CapSense_Processing.c **** 
  94:Generated_Source\PSoC4/CapSense_Processing.c **** /**************************************************************************************************
  95:Generated_Source\PSoC4/CapSense_Processing.c **** * Local variables
  96:Generated_Source\PSoC4/CapSense_Processing.c **** ***************************************************************************************************
  97:Generated_Source\PSoC4/CapSense_Processing.c **** #if (0u != CapSense_CSX_MULTIPHASE_TX_EN)
  98:Generated_Source\PSoC4/CapSense_Processing.c ****     static uint16 deconvRowData[CapSense_CSX_MAX_TX_PHASE_LENGTH];
  99:Generated_Source\PSoC4/CapSense_Processing.c **** #endif
 100:Generated_Source\PSoC4/CapSense_Processing.c **** 
 101:Generated_Source\PSoC4/CapSense_Processing.c **** 
 102:Generated_Source\PSoC4/CapSense_Processing.c **** /**************************************************************************************************
 103:Generated_Source\PSoC4/CapSense_Processing.c **** * Static Function Prototypes
 104:Generated_Source\PSoC4/CapSense_Processing.c **** ***************************************************************************************************
 105:Generated_Source\PSoC4/CapSense_Processing.c **** /**
 106:Generated_Source\PSoC4/CapSense_Processing.c **** * \if SECTION_CAPSENSE_INTERNAL
 107:Generated_Source\PSoC4/CapSense_Processing.c **** * \addtogroup group_capsense_internal
 108:Generated_Source\PSoC4/CapSense_Processing.c **** * \{
 109:Generated_Source\PSoC4/CapSense_Processing.c **** */
 110:Generated_Source\PSoC4/CapSense_Processing.c **** #if (0u != CapSense_TOTAL_LINEAR_SLIDERS)
 111:Generated_Source\PSoC4/CapSense_Processing.c ****     static CY_INLINE void DpUpdateLinSlider(
 112:Generated_Source\PSoC4/CapSense_Processing.c ****                         const uint16 newPos[], uint32 numTouches,
 113:Generated_Source\PSoC4/CapSense_Processing.c ****                         CapSense_FLASH_WD_STRUCT const *ptrFlashWdgt,
 114:Generated_Source\PSoC4/CapSense_Processing.c ****                         CapSense_RAM_WD_SLIDER_STRUCT *ptrRamWdgt);
 115:Generated_Source\PSoC4/CapSense_Processing.c **** #endif /* #if (0u != CapSense_TOTAL_LINEAR_SLIDERS) */
 116:Generated_Source\PSoC4/CapSense_Processing.c **** 
 117:Generated_Source\PSoC4/CapSense_Processing.c **** #if (0u != DP_LINEAR_SLIDER_FILTER_EN)
 118:Generated_Source\PSoC4/CapSense_Processing.c ****     static CY_INLINE void DpFilterLinSlider(
 119:Generated_Source\PSoC4/CapSense_Processing.c ****                         uint16 newPos, uint32 staticConfig, uint16 *ptrCurrPos,
 120:Generated_Source\PSoC4/CapSense_Processing.c ****                         CapSense_SLIDER_POS_HISTORY_STRUCT *ptrHistory);
 121:Generated_Source\PSoC4/CapSense_Processing.c **** #endif /* #if (0u != DP_LINEAR_SLIDER_FILTER_EN) */
 122:Generated_Source\PSoC4/CapSense_Processing.c **** 
 123:Generated_Source\PSoC4/CapSense_Processing.c **** #if (0u != CapSense_TOTAL_RADIAL_SLIDERS)
 124:Generated_Source\PSoC4/CapSense_Processing.c ****     static CY_INLINE void DpUpdateRadSlider(
 125:Generated_Source\PSoC4/CapSense_Processing.c ****                         const uint16 newPos[], uint32 numTouches,
 126:Generated_Source\PSoC4/CapSense_Processing.c ****                         CapSense_FLASH_WD_STRUCT const * ptrFlashWdgt,
 127:Generated_Source\PSoC4/CapSense_Processing.c ****                         CapSense_RAM_WD_SLIDER_STRUCT *ptrRamWdgt);
 128:Generated_Source\PSoC4/CapSense_Processing.c **** #endif /* #if (0u != CapSense_TOTAL_RADIAL_SLIDERS) */
 129:Generated_Source\PSoC4/CapSense_Processing.c **** 
 130:Generated_Source\PSoC4/CapSense_Processing.c **** #if (0u != CapSense_CSD_TOUCHPAD_WIDGET_EN)
 131:Generated_Source\PSoC4/CapSense_Processing.c ****     static CY_INLINE void CapSense_DpInitCsdTouchpad(CapSense_FLASH_WD_STRUCT const * ptrFlashWdgt)
 132:Generated_Source\PSoC4/CapSense_Processing.c **** #endif /* #if (0u != CapSense_CSD_TOUCHPAD_WIDGET_EN) */
 133:Generated_Source\PSoC4/CapSense_Processing.c **** 
 134:Generated_Source\PSoC4/CapSense_Processing.c **** #if (0u != CapSense_CSX_TOUCHPAD_WIDGET_EN)
 135:Generated_Source\PSoC4/CapSense_Processing.c ****     static CY_INLINE void CapSense_DpInitCsxTouchpad(CapSense_FLASH_WD_STRUCT const * ptrFlashWdgt)
 136:Generated_Source\PSoC4/CapSense_Processing.c **** #endif /* #if (0u != CapSense_CSX_TOUCHPAD_WIDGET_EN) */
 137:Generated_Source\PSoC4/CapSense_Processing.c **** 
 138:Generated_Source\PSoC4/CapSense_Processing.c **** #if (0u != CapSense_SLIDER_WIDGET_EN)
 139:Generated_Source\PSoC4/CapSense_Processing.c ****     static CY_INLINE void CapSense_DpInitSlider(CapSense_FLASH_WD_STRUCT const * ptrFlashWdgt);
 140:Generated_Source\PSoC4/CapSense_Processing.c **** #endif /* #if (0u != CapSense_SLIDER_WIDGET_EN) */
 141:Generated_Source\PSoC4/CapSense_Processing.c **** 
 142:Generated_Source\PSoC4/CapSense_Processing.c **** #if (0u != CapSense_CSD_MATRIX_WIDGET_EN)
 143:Generated_Source\PSoC4/CapSense_Processing.c ****     static CY_INLINE void CapSense_DpInitCsdMatrix(CapSense_FLASH_WD_STRUCT const * ptrFlashWdgt);
 144:Generated_Source\PSoC4/CapSense_Processing.c **** #endif /* #if (0u != CapSense_CSD_MATRIX_WIDGET_EN) */
 145:Generated_Source\PSoC4/CapSense_Processing.c **** 
 146:Generated_Source\PSoC4/CapSense_Processing.c **** /** \}
ARM GAS  C:\Users\MM1005~1\AppData\Local\Temp\ccDYJIra.s 			page 4


 147:Generated_Source\PSoC4/CapSense_Processing.c **** * \endif */
 148:Generated_Source\PSoC4/CapSense_Processing.c **** 
 149:Generated_Source\PSoC4/CapSense_Processing.c **** #if (0u != CapSense_CSD_TOUCHPAD_WIDGET_EN)
 150:Generated_Source\PSoC4/CapSense_Processing.c **** /*******************************************************************************
 151:Generated_Source\PSoC4/CapSense_Processing.c **** * Function Name: CapSense_DpInitCsdTouchpad
 152:Generated_Source\PSoC4/CapSense_Processing.c **** ****************************************************************************//**
 153:Generated_Source\PSoC4/CapSense_Processing.c **** *
 154:Generated_Source\PSoC4/CapSense_Processing.c **** * \brief
 155:Generated_Source\PSoC4/CapSense_Processing.c **** *  Performs initialization of the CSD touchpad widget.
 156:Generated_Source\PSoC4/CapSense_Processing.c **** *   - Resets the position data to NONE
 157:Generated_Source\PSoC4/CapSense_Processing.c **** *   - Initializes the median filter history if the appropriate position filter is enabled.
 158:Generated_Source\PSoC4/CapSense_Processing.c **** *
 159:Generated_Source\PSoC4/CapSense_Processing.c **** * \details
 160:Generated_Source\PSoC4/CapSense_Processing.c **** *  The position data is always reset to the CapSense_TOUCHPAD_POS_NONE value.
 161:Generated_Source\PSoC4/CapSense_Processing.c **** *  The same happens to the median filter history data if this type of filter is enabled.
 162:Generated_Source\PSoC4/CapSense_Processing.c **** *
 163:Generated_Source\PSoC4/CapSense_Processing.c **** *******************************************************************************/
 164:Generated_Source\PSoC4/CapSense_Processing.c **** static CY_INLINE void CapSense_DpInitCsdTouchpad(CapSense_FLASH_WD_STRUCT const * ptrFlashWdgt)
 165:Generated_Source\PSoC4/CapSense_Processing.c **** {
 166:Generated_Source\PSoC4/CapSense_Processing.c ****     CapSense_RAM_WD_CSD_TOUCHPAD_STRUCT *ptrWdTouchpad;
 167:Generated_Source\PSoC4/CapSense_Processing.c **** 
 168:Generated_Source\PSoC4/CapSense_Processing.c ****     #if (0u != CapSense_POS_MEDIAN_FILTER_EN)
 169:Generated_Source\PSoC4/CapSense_Processing.c ****         CapSense_TOUCHPAD_POS_HISTORY_STRUCT *ptrHistory;
 170:Generated_Source\PSoC4/CapSense_Processing.c ****     #endif  /* #if (0u != CapSense_POS_MEDIAN_FILTER_EN) */
 171:Generated_Source\PSoC4/CapSense_Processing.c **** 
 172:Generated_Source\PSoC4/CapSense_Processing.c ****     ptrWdTouchpad = ptrFlashWdgt->ptr2WdgtRam;
 173:Generated_Source\PSoC4/CapSense_Processing.c **** 
 174:Generated_Source\PSoC4/CapSense_Processing.c ****     /* Reset position data */
 175:Generated_Source\PSoC4/CapSense_Processing.c ****     ptrWdTouchpad->posX = CapSense_TOUCHPAD_POS_NONE;
 176:Generated_Source\PSoC4/CapSense_Processing.c ****     ptrWdTouchpad->posY = CapSense_TOUCHPAD_POS_NONE;
 177:Generated_Source\PSoC4/CapSense_Processing.c **** 
 178:Generated_Source\PSoC4/CapSense_Processing.c ****     /* Reset median filter */
 179:Generated_Source\PSoC4/CapSense_Processing.c ****     #if (0u != CapSense_POS_MEDIAN_FILTER_EN)
 180:Generated_Source\PSoC4/CapSense_Processing.c ****         ptrHistory = ptrFlashWdgt->ptr2PosHistory;
 181:Generated_Source\PSoC4/CapSense_Processing.c **** 
 182:Generated_Source\PSoC4/CapSense_Processing.c ****         if (NULL != ptrHistory)
 183:Generated_Source\PSoC4/CapSense_Processing.c ****         {
 184:Generated_Source\PSoC4/CapSense_Processing.c ****             ptrHistory->xPos.posMedianZ1 = CapSense_TOUCHPAD_POS_NONE;
 185:Generated_Source\PSoC4/CapSense_Processing.c ****             ptrHistory->xPos.posMedianZ2 = CapSense_TOUCHPAD_POS_NONE;
 186:Generated_Source\PSoC4/CapSense_Processing.c **** 
 187:Generated_Source\PSoC4/CapSense_Processing.c ****             ptrHistory->yPos.posMedianZ1 = CapSense_TOUCHPAD_POS_NONE;
 188:Generated_Source\PSoC4/CapSense_Processing.c ****             ptrHistory->yPos.posMedianZ2 = CapSense_TOUCHPAD_POS_NONE;
 189:Generated_Source\PSoC4/CapSense_Processing.c ****         }
 190:Generated_Source\PSoC4/CapSense_Processing.c ****     #endif /* #if (0u != CapSense_POS_MEDIAN_FILTER_EN) */
 191:Generated_Source\PSoC4/CapSense_Processing.c **** }
 192:Generated_Source\PSoC4/CapSense_Processing.c **** #endif /* #if (0u != CapSense_CSD_TOUCHPAD_WIDGET_EN) */
 193:Generated_Source\PSoC4/CapSense_Processing.c **** 
 194:Generated_Source\PSoC4/CapSense_Processing.c **** #if (0u != CapSense_CSX_TOUCHPAD_WIDGET_EN)
 195:Generated_Source\PSoC4/CapSense_Processing.c **** /*******************************************************************************
 196:Generated_Source\PSoC4/CapSense_Processing.c **** * Function Name: CapSense_DpInitCsxTouchpad
 197:Generated_Source\PSoC4/CapSense_Processing.c **** ****************************************************************************//**
 198:Generated_Source\PSoC4/CapSense_Processing.c **** *
 199:Generated_Source\PSoC4/CapSense_Processing.c **** * \brief
 200:Generated_Source\PSoC4/CapSense_Processing.c **** *  Performs initialization of the CSX touchpad widget i.e. Resets the position data to NONE.
 201:Generated_Source\PSoC4/CapSense_Processing.c **** *
 202:Generated_Source\PSoC4/CapSense_Processing.c **** * \details
 203:Generated_Source\PSoC4/CapSense_Processing.c **** *  The position data is always reset to the CapSense_TOUCHPAD_POS_NONE value.
ARM GAS  C:\Users\MM1005~1\AppData\Local\Temp\ccDYJIra.s 			page 5


 204:Generated_Source\PSoC4/CapSense_Processing.c **** *
 205:Generated_Source\PSoC4/CapSense_Processing.c **** *******************************************************************************/
 206:Generated_Source\PSoC4/CapSense_Processing.c **** static CY_INLINE void CapSense_DpInitCsxTouchpad(CapSense_FLASH_WD_STRUCT const * ptrFlashWdgt)
 207:Generated_Source\PSoC4/CapSense_Processing.c **** {
 208:Generated_Source\PSoC4/CapSense_Processing.c ****     CapSense_RAM_WD_CSX_TOUCHPAD_STRUCT *ptrWdTouchpad;
 209:Generated_Source\PSoC4/CapSense_Processing.c **** 
 210:Generated_Source\PSoC4/CapSense_Processing.c ****     ptrWdTouchpad = ptrFlashWdgt->ptr2WdgtRam;
 211:Generated_Source\PSoC4/CapSense_Processing.c **** 
 212:Generated_Source\PSoC4/CapSense_Processing.c ****     /* Reset position data for finger */
 213:Generated_Source\PSoC4/CapSense_Processing.c ****     ptrWdTouchpad->touch[0u].x = CapSense_TOUCHPAD_POS_NONE;
 214:Generated_Source\PSoC4/CapSense_Processing.c ****     ptrWdTouchpad->touch[0u].y = CapSense_TOUCHPAD_POS_NONE;
 215:Generated_Source\PSoC4/CapSense_Processing.c ****     ptrWdTouchpad->touch[0u].z = LO8(CapSense_TOUCHPAD_POS_NONE);
 216:Generated_Source\PSoC4/CapSense_Processing.c **** 
 217:Generated_Source\PSoC4/CapSense_Processing.c ****     #if (CapSense_CSX_MAX_FINGERS > 1u)
 218:Generated_Source\PSoC4/CapSense_Processing.c ****         ptrWdTouchpad->touch[1u].x = CapSense_TOUCHPAD_POS_NONE;
 219:Generated_Source\PSoC4/CapSense_Processing.c ****         ptrWdTouchpad->touch[1u].y = CapSense_TOUCHPAD_POS_NONE;
 220:Generated_Source\PSoC4/CapSense_Processing.c ****         ptrWdTouchpad->touch[1u].z = LO8(CapSense_TOUCHPAD_POS_NONE);
 221:Generated_Source\PSoC4/CapSense_Processing.c ****     #endif /* #if (CapSense_CSX_MAX_FINGERS > 1u) */
 222:Generated_Source\PSoC4/CapSense_Processing.c **** 
 223:Generated_Source\PSoC4/CapSense_Processing.c ****     #if (CapSense_CSX_MAX_FINGERS > 2u)
 224:Generated_Source\PSoC4/CapSense_Processing.c ****         ptrWdTouchpad->touch[2u].x = CapSense_TOUCHPAD_POS_NONE;
 225:Generated_Source\PSoC4/CapSense_Processing.c ****         ptrWdTouchpad->touch[2u].y = CapSense_TOUCHPAD_POS_NONE;
 226:Generated_Source\PSoC4/CapSense_Processing.c ****         ptrWdTouchpad->touch[2u].z = LO8(CapSense_TOUCHPAD_POS_NONE);
 227:Generated_Source\PSoC4/CapSense_Processing.c ****     #endif /* #if (CapSense_CSX_MAX_FINGERS > 2u) */
 228:Generated_Source\PSoC4/CapSense_Processing.c **** }
 229:Generated_Source\PSoC4/CapSense_Processing.c **** #endif /* #if (0u != CapSense_CSX_TOUCHPAD_WIDGET_EN) */
 230:Generated_Source\PSoC4/CapSense_Processing.c **** 
 231:Generated_Source\PSoC4/CapSense_Processing.c **** #if (0u != CapSense_SLIDER_WIDGET_EN)
 232:Generated_Source\PSoC4/CapSense_Processing.c **** /*******************************************************************************
 233:Generated_Source\PSoC4/CapSense_Processing.c **** * Function Name: CapSense_DpInitSlider
 234:Generated_Source\PSoC4/CapSense_Processing.c **** ****************************************************************************//**
 235:Generated_Source\PSoC4/CapSense_Processing.c **** *
 236:Generated_Source\PSoC4/CapSense_Processing.c **** * \brief
 237:Generated_Source\PSoC4/CapSense_Processing.c **** *  Performs initialization of the Radial and Linear Slider widget.
 238:Generated_Source\PSoC4/CapSense_Processing.c **** *   - Resets the position data to NONE
 239:Generated_Source\PSoC4/CapSense_Processing.c **** *   - Initializes the median filter history to NONE if it is enabled.
 240:Generated_Source\PSoC4/CapSense_Processing.c **** *
 241:Generated_Source\PSoC4/CapSense_Processing.c **** * \details
 242:Generated_Source\PSoC4/CapSense_Processing.c **** *  Position data is always reset to the CapSense_SLIDER_POS_NONE value.
 243:Generated_Source\PSoC4/CapSense_Processing.c **** *  The same happens to the median filter history data.
 244:Generated_Source\PSoC4/CapSense_Processing.c **** *
 245:Generated_Source\PSoC4/CapSense_Processing.c **** *******************************************************************************/
 246:Generated_Source\PSoC4/CapSense_Processing.c **** static CY_INLINE void CapSense_DpInitSlider(CapSense_FLASH_WD_STRUCT const * ptrFlashWdgt)
 247:Generated_Source\PSoC4/CapSense_Processing.c **** {
 248:Generated_Source\PSoC4/CapSense_Processing.c ****     uint32 idx;
 249:Generated_Source\PSoC4/CapSense_Processing.c ****     CapSense_RAM_WD_SLIDER_STRUCT *ptrWdSlider;
 250:Generated_Source\PSoC4/CapSense_Processing.c **** 
 251:Generated_Source\PSoC4/CapSense_Processing.c ****     #if (0u != CapSense_POS_MEDIAN_FILTER_EN)
 252:Generated_Source\PSoC4/CapSense_Processing.c ****         CapSense_SLIDER_POS_HISTORY_STRUCT *ptrHistory;
 253:Generated_Source\PSoC4/CapSense_Processing.c ****     #endif /* #if (0u != CapSense_POS_MEDIAN_FILTER_EN) */
 254:Generated_Source\PSoC4/CapSense_Processing.c **** 
 255:Generated_Source\PSoC4/CapSense_Processing.c ****     ptrWdSlider = ptrFlashWdgt->ptr2WdgtRam;
 256:Generated_Source\PSoC4/CapSense_Processing.c **** 
 257:Generated_Source\PSoC4/CapSense_Processing.c ****     /* Reset slider position data to NONE */
 258:Generated_Source\PSoC4/CapSense_Processing.c ****     for (idx = 0u; idx < CapSense_NUM_CENTROIDS; idx++)
 259:Generated_Source\PSoC4/CapSense_Processing.c ****     {
 260:Generated_Source\PSoC4/CapSense_Processing.c ****         ptrWdSlider->position[idx] = CapSense_SLIDER_POS_NONE;
ARM GAS  C:\Users\MM1005~1\AppData\Local\Temp\ccDYJIra.s 			page 6


 261:Generated_Source\PSoC4/CapSense_Processing.c **** 
 262:Generated_Source\PSoC4/CapSense_Processing.c ****         #if (0u != CapSense_POS_MEDIAN_FILTER_EN)
 263:Generated_Source\PSoC4/CapSense_Processing.c ****             ptrHistory = ptrFlashWdgt->ptr2PosHistory;
 264:Generated_Source\PSoC4/CapSense_Processing.c ****             
 265:Generated_Source\PSoC4/CapSense_Processing.c ****             if (NULL != ptrHistory)
 266:Generated_Source\PSoC4/CapSense_Processing.c ****             {
 267:Generated_Source\PSoC4/CapSense_Processing.c ****                 ptrHistory[idx].posMedianZ1 = CapSense_SLIDER_POS_NONE;
 268:Generated_Source\PSoC4/CapSense_Processing.c ****                 ptrHistory[idx].posMedianZ2 = CapSense_SLIDER_POS_NONE;
 269:Generated_Source\PSoC4/CapSense_Processing.c ****             }
 270:Generated_Source\PSoC4/CapSense_Processing.c ****         #endif /* #if (0u != CapSense_POS_MEDIAN_FILTER_EN) */
 271:Generated_Source\PSoC4/CapSense_Processing.c ****     }
 272:Generated_Source\PSoC4/CapSense_Processing.c **** }
 273:Generated_Source\PSoC4/CapSense_Processing.c **** #endif /* #if (0u != CapSense_SLIDER_WIDGET_EN) */
 274:Generated_Source\PSoC4/CapSense_Processing.c **** 
 275:Generated_Source\PSoC4/CapSense_Processing.c **** #if (0u != CapSense_CSD_MATRIX_WIDGET_EN)
 276:Generated_Source\PSoC4/CapSense_Processing.c **** /*******************************************************************************
 277:Generated_Source\PSoC4/CapSense_Processing.c **** * Function Name: CapSense_DpInitCsdMatrix
 278:Generated_Source\PSoC4/CapSense_Processing.c **** ****************************************************************************//**
 279:Generated_Source\PSoC4/CapSense_Processing.c **** *
 280:Generated_Source\PSoC4/CapSense_Processing.c **** * \brief
 281:Generated_Source\PSoC4/CapSense_Processing.c **** *  Performs initialization of the CSD Matrix Buttons widget.
 282:Generated_Source\PSoC4/CapSense_Processing.c **** *   - Resets the active button position data to NONE.
 283:Generated_Source\PSoC4/CapSense_Processing.c **** *
 284:Generated_Source\PSoC4/CapSense_Processing.c **** * \details
 285:Generated_Source\PSoC4/CapSense_Processing.c **** *  Position data is always reset to the CapSense_MATRIX_POS_NONE value.
 286:Generated_Source\PSoC4/CapSense_Processing.c **** *
 287:Generated_Source\PSoC4/CapSense_Processing.c **** *******************************************************************************/
 288:Generated_Source\PSoC4/CapSense_Processing.c **** static CY_INLINE void CapSense_DpInitCsdMatrix(CapSense_FLASH_WD_STRUCT const * ptrFlashWdgt)
 289:Generated_Source\PSoC4/CapSense_Processing.c **** {
 290:Generated_Source\PSoC4/CapSense_Processing.c ****     CapSense_RAM_WD_CSD_MATRIX_STRUCT *ptrRamWdgt;
 291:Generated_Source\PSoC4/CapSense_Processing.c **** 
 292:Generated_Source\PSoC4/CapSense_Processing.c ****     ptrRamWdgt = ptrFlashWdgt->ptr2WdgtRam;
 293:Generated_Source\PSoC4/CapSense_Processing.c **** 
 294:Generated_Source\PSoC4/CapSense_Processing.c ****     /* Reset sensor id, row and col registers in data structure */
 295:Generated_Source\PSoC4/CapSense_Processing.c ****     ptrRamWdgt->posRow   = CapSense_MATRIX_POS_NONE;
 296:Generated_Source\PSoC4/CapSense_Processing.c ****     ptrRamWdgt->posCol   = CapSense_MATRIX_POS_NONE;
 297:Generated_Source\PSoC4/CapSense_Processing.c ****     ptrRamWdgt->posSnsId = CapSense_MATRIX_POS_NONE;
 298:Generated_Source\PSoC4/CapSense_Processing.c **** }
 299:Generated_Source\PSoC4/CapSense_Processing.c **** #endif /* #if (0u != CapSense_CSD_MATRIX_WIDGET_EN) */
 300:Generated_Source\PSoC4/CapSense_Processing.c **** 
 301:Generated_Source\PSoC4/CapSense_Processing.c **** /*******************************************************************************
 302:Generated_Source\PSoC4/CapSense_Processing.c **** * Function Name: CapSense_DpInitialize
 303:Generated_Source\PSoC4/CapSense_Processing.c **** ****************************************************************************//**
 304:Generated_Source\PSoC4/CapSense_Processing.c **** *
 305:Generated_Source\PSoC4/CapSense_Processing.c **** * \brief
 306:Generated_Source\PSoC4/CapSense_Processing.c **** *  Performs initialization of the data processing FW module:
 307:Generated_Source\PSoC4/CapSense_Processing.c **** *   - Resets the de-bounce counters of all widgets
 308:Generated_Source\PSoC4/CapSense_Processing.c **** *   - Resets the position filter history for slider and touchpad widgets
 309:Generated_Source\PSoC4/CapSense_Processing.c **** *   - Clears widget and sensor statuses
 310:Generated_Source\PSoC4/CapSense_Processing.c **** *   - Enables all widgets.
 311:Generated_Source\PSoC4/CapSense_Processing.c **** *
 312:Generated_Source\PSoC4/CapSense_Processing.c **** * \details
 313:Generated_Source\PSoC4/CapSense_Processing.c **** *  The Button and Matrix Button widgets have individual de-bounce counter per
 314:Generated_Source\PSoC4/CapSense_Processing.c **** *  sensor for the CSD widgets and per node for the CSX widgets.
 315:Generated_Source\PSoC4/CapSense_Processing.c **** *
 316:Generated_Source\PSoC4/CapSense_Processing.c **** *  The Slider and Touchpad widgets have a single de-bounce counter per widget.
 317:Generated_Source\PSoC4/CapSense_Processing.c **** *
ARM GAS  C:\Users\MM1005~1\AppData\Local\Temp\ccDYJIra.s 			page 7


 318:Generated_Source\PSoC4/CapSense_Processing.c **** *  The Proximity widget has two de-bounce counters per sensor. One for the
 319:Generated_Source\PSoC4/CapSense_Processing.c **** *  proximity event and second for the touch event.
 320:Generated_Source\PSoC4/CapSense_Processing.c **** *
 321:Generated_Source\PSoC4/CapSense_Processing.c **** *  All debounce counters during initialization are set to the value of the
 322:Generated_Source\PSoC4/CapSense_Processing.c **** *  onDebounce widget parameter.
 323:Generated_Source\PSoC4/CapSense_Processing.c **** *
 324:Generated_Source\PSoC4/CapSense_Processing.c **** *******************************************************************************/
 325:Generated_Source\PSoC4/CapSense_Processing.c **** void CapSense_DpInitialize(void)
 326:Generated_Source\PSoC4/CapSense_Processing.c **** {
  26              		.loc 1 326 0
  27              		.cfi_startproc
  28 0000 70B5     		push	{r4, r5, r6, lr}
  29              		.cfi_def_cfa_offset 16
  30              		.cfi_offset 4, -16
  31              		.cfi_offset 5, -12
  32              		.cfi_offset 6, -8
  33              		.cfi_offset 14, -4
  34              	.LVL0:
 327:Generated_Source\PSoC4/CapSense_Processing.c ****     uint32 wdgtId;
 328:Generated_Source\PSoC4/CapSense_Processing.c ****     CapSense_WD_TYPE_ENUM widgetType;
 329:Generated_Source\PSoC4/CapSense_Processing.c ****     CapSense_RAM_WD_BASE_STRUCT * ptrRamWdgt;
 330:Generated_Source\PSoC4/CapSense_Processing.c ****     CapSense_FLASH_WD_STRUCT const * ptrFlashWdgt;
 331:Generated_Source\PSoC4/CapSense_Processing.c **** 
 332:Generated_Source\PSoC4/CapSense_Processing.c ****     for (wdgtId = 0u; wdgtId < CapSense_WDGT_STATUS_WORDS; wdgtId++)
  35              		.loc 1 332 0
  36 0002 0023     		mov	r3, #0
  37 0004 0BE0     		b	.L2
  38              	.LVL1:
  39              	.L3:
 333:Generated_Source\PSoC4/CapSense_Processing.c ****     {
 334:Generated_Source\PSoC4/CapSense_Processing.c ****         /* Clear widget status */
 335:Generated_Source\PSoC4/CapSense_Processing.c ****         CapSense_dsRam.wdgtStatus[wdgtId] = 0u;
  40              		.loc 1 335 0 discriminator 3
  41 0006 1F48     		ldr	r0, .L13
  42 0008 191D     		add	r1, r3, #4
  43 000a 8900     		lsl	r1, r1, #2
  44 000c 0022     		mov	r2, #0
  45 000e 0A50     		str	r2, [r1, r0]
 336:Generated_Source\PSoC4/CapSense_Processing.c **** 
 337:Generated_Source\PSoC4/CapSense_Processing.c ****         /* Enable all widgets */
 338:Generated_Source\PSoC4/CapSense_Processing.c ****         CapSense_dsRam.wdgtEnable[wdgtId] = 0xFFFFFFFFLu;
  46              		.loc 1 338 0 discriminator 3
  47 0010 9A1C     		add	r2, r3, #2
  48 0012 9200     		lsl	r2, r2, #2
  49 0014 8218     		add	r2, r0, r2
  50 0016 0121     		mov	r1, #1
  51 0018 4942     		neg	r1, r1
  52 001a 5160     		str	r1, [r2, #4]
 332:Generated_Source\PSoC4/CapSense_Processing.c ****     {
  53              		.loc 1 332 0 discriminator 3
  54 001c 0133     		add	r3, r3, #1
  55              	.LVL2:
  56              	.L2:
 332:Generated_Source\PSoC4/CapSense_Processing.c ****     {
  57              		.loc 1 332 0 is_stmt 0 discriminator 1
  58 001e 002B     		cmp	r3, #0
  59 0020 F1D0     		beq	.L3
ARM GAS  C:\Users\MM1005~1\AppData\Local\Temp\ccDYJIra.s 			page 8


  60 0022 194C     		ldr	r4, .L13+4
  61 0024 0823     		mov	r3, #8
  62              	.LVL3:
  63 0026 28E0     		b	.L4
  64              	.LVL4:
  65              	.L11:
 339:Generated_Source\PSoC4/CapSense_Processing.c **** 
 340:Generated_Source\PSoC4/CapSense_Processing.c ****         /* Set all widgets to working state if the Self-Test is not enabled */
 341:Generated_Source\PSoC4/CapSense_Processing.c ****         #if (0u != CapSense_SELF_TEST_EN)
 342:Generated_Source\PSoC4/CapSense_Processing.c ****             CapSense_dsRam.wdgtWorking[wdgtId] = 0xFFFFFFFFLu;
 343:Generated_Source\PSoC4/CapSense_Processing.c ****         #endif /* #if (0u == CapSense_SELF_TEST_EN) */
 344:Generated_Source\PSoC4/CapSense_Processing.c ****     }
 345:Generated_Source\PSoC4/CapSense_Processing.c **** 
 346:Generated_Source\PSoC4/CapSense_Processing.c ****     ptrFlashWdgt = CapSense_dsFlash.wdgtArray;
 347:Generated_Source\PSoC4/CapSense_Processing.c **** 
 348:Generated_Source\PSoC4/CapSense_Processing.c ****     for (wdgtId = CapSense_TOTAL_WIDGETS; wdgtId-- > 0u; )
 349:Generated_Source\PSoC4/CapSense_Processing.c ****     {
 350:Generated_Source\PSoC4/CapSense_Processing.c ****         ptrRamWdgt = ptrFlashWdgt->ptr2WdgtRam;
  66              		.loc 1 350 0 is_stmt 1
  67 0028 6668     		ldr	r6, [r4, #4]
  68              	.LVL5:
 351:Generated_Source\PSoC4/CapSense_Processing.c ****         widgetType = (CapSense_WD_TYPE_ENUM)ptrFlashWdgt->wdgtType;
  69              		.loc 1 351 0
  70 002a 227E     		ldrb	r2, [r4, #24]
  71              	.LVL6:
 352:Generated_Source\PSoC4/CapSense_Processing.c **** 
 353:Generated_Source\PSoC4/CapSense_Processing.c ****         /* Clear all sensor statuses */
 354:Generated_Source\PSoC4/CapSense_Processing.c ****         CapSense_dsRam.snsStatus[wdgtId] = 0u;
  72              		.loc 1 354 0
  73 002c 154B     		ldr	r3, .L13
  74 002e 5B19     		add	r3, r3, r5
  75 0030 0021     		mov	r1, #0
  76 0032 1975     		strb	r1, [r3, #20]
 355:Generated_Source\PSoC4/CapSense_Processing.c **** 
 356:Generated_Source\PSoC4/CapSense_Processing.c ****         /* Reset de-bounce counters */
 357:Generated_Source\PSoC4/CapSense_Processing.c ****         switch (widgetType)
  77              		.loc 1 357 0
  78 0034 012A     		cmp	r2, #1
  79 0036 04D0     		beq	.L6
  80 0038 002A     		cmp	r2, #0
  81 003a 1CD0     		beq	.L5
  82 003c 032A     		cmp	r2, #3
  83 003e 08D9     		bls	.L12
  84 0040 19E0     		b	.L5
  85              	.L6:
 358:Generated_Source\PSoC4/CapSense_Processing.c ****         {
 359:Generated_Source\PSoC4/CapSense_Processing.c ****         #if (0u != CapSense_MATRIX_WIDGET_EN)
 360:Generated_Source\PSoC4/CapSense_Processing.c ****             case CapSense_WD_MATRIX_BUTTON_E:
 361:Generated_Source\PSoC4/CapSense_Processing.c ****                 #if (0u != CapSense_CSD_MATRIX_WIDGET_EN)
 362:Generated_Source\PSoC4/CapSense_Processing.c ****                     if (CapSense_SENSE_METHOD_CSD_E == CapSense_GET_SENSE_METHOD(ptrFlashWdgt))
 363:Generated_Source\PSoC4/CapSense_Processing.c ****                     {
 364:Generated_Source\PSoC4/CapSense_Processing.c ****                         CapSense_DpInitCsdMatrix(ptrFlashWdgt);
 365:Generated_Source\PSoC4/CapSense_Processing.c ****                     }
 366:Generated_Source\PSoC4/CapSense_Processing.c ****                 #endif /* #if (0u != CapSense_CSD_MATRIX_WIDGET_EN) */
 367:Generated_Source\PSoC4/CapSense_Processing.c ****                 
 368:Generated_Source\PSoC4/CapSense_Processing.c ****                 if (NULL != ptrFlashWdgt->ptr2DebounceArr)
 369:Generated_Source\PSoC4/CapSense_Processing.c ****                 {
ARM GAS  C:\Users\MM1005~1\AppData\Local\Temp\ccDYJIra.s 			page 9


 370:Generated_Source\PSoC4/CapSense_Processing.c ****                     /* Initialize array of debounce counters */
 371:Generated_Source\PSoC4/CapSense_Processing.c ****                     (void)memset(ptrFlashWdgt->ptr2DebounceArr, 
 372:Generated_Source\PSoC4/CapSense_Processing.c ****                                  (int32)ptrRamWdgt->onDebounce, 
 373:Generated_Source\PSoC4/CapSense_Processing.c ****                                  (size_t)ptrFlashWdgt->totalNumSns);
 374:Generated_Source\PSoC4/CapSense_Processing.c ****                 }
 375:Generated_Source\PSoC4/CapSense_Processing.c ****                 break;
 376:Generated_Source\PSoC4/CapSense_Processing.c ****         #endif /* #if (0u != CapSense_MATRIX_WIDGET_EN) */
 377:Generated_Source\PSoC4/CapSense_Processing.c ****         
 378:Generated_Source\PSoC4/CapSense_Processing.c ****         #if (0u != CapSense_BUTTON_WIDGET_EN)
 379:Generated_Source\PSoC4/CapSense_Processing.c ****             case CapSense_WD_BUTTON_E:
 380:Generated_Source\PSoC4/CapSense_Processing.c ****                 if (NULL != ptrFlashWdgt->ptr2DebounceArr)
  86              		.loc 1 380 0
  87 0042 2069     		ldr	r0, [r4, #16]
  88 0044 0028     		cmp	r0, #0
  89 0046 16D0     		beq	.L5
 381:Generated_Source\PSoC4/CapSense_Processing.c ****                 {
 382:Generated_Source\PSoC4/CapSense_Processing.c ****                     /* Initialize array of debounce counters */
 383:Generated_Source\PSoC4/CapSense_Processing.c ****                     (void)memset(ptrFlashWdgt->ptr2DebounceArr, 
 384:Generated_Source\PSoC4/CapSense_Processing.c ****                                  (int32)ptrRamWdgt->onDebounce, 
  90              		.loc 1 384 0
  91 0048 F179     		ldrb	r1, [r6, #7]
 385:Generated_Source\PSoC4/CapSense_Processing.c ****                                  (size_t)ptrFlashWdgt->totalNumSns);
  92              		.loc 1 385 0
  93 004a E28A     		ldrh	r2, [r4, #22]
  94              	.LVL7:
 383:Generated_Source\PSoC4/CapSense_Processing.c ****                                  (int32)ptrRamWdgt->onDebounce, 
  95              		.loc 1 383 0
  96 004c FFF7FEFF 		bl	memset
  97              	.LVL8:
  98 0050 11E0     		b	.L5
  99              	.LVL9:
 100              	.L12:
 386:Generated_Source\PSoC4/CapSense_Processing.c ****                 }
 387:Generated_Source\PSoC4/CapSense_Processing.c ****                 break;
 388:Generated_Source\PSoC4/CapSense_Processing.c ****         #endif /* #if (0u != CapSense_BUTTON_WIDGET_EN) */
 389:Generated_Source\PSoC4/CapSense_Processing.c **** 
 390:Generated_Source\PSoC4/CapSense_Processing.c ****         #if (0u != CapSense_SLIDER_WIDGET_EN)
 391:Generated_Source\PSoC4/CapSense_Processing.c ****             case CapSense_WD_LINEAR_SLIDER_E:
 392:Generated_Source\PSoC4/CapSense_Processing.c ****             case CapSense_WD_RADIAL_SLIDER_E:
 393:Generated_Source\PSoC4/CapSense_Processing.c ****                 if (NULL != ptrFlashWdgt->ptr2DebounceArr)
 101              		.loc 1 393 0
 102 0052 2369     		ldr	r3, [r4, #16]
 103 0054 002B     		cmp	r3, #0
 104 0056 01D0     		beq	.L8
 394:Generated_Source\PSoC4/CapSense_Processing.c ****                 {
 395:Generated_Source\PSoC4/CapSense_Processing.c ****                     /* Initialize single debounce counter of slider */
 396:Generated_Source\PSoC4/CapSense_Processing.c ****                     *(uint8 *)(ptrFlashWdgt->ptr2DebounceArr) = ptrRamWdgt->onDebounce;
 105              		.loc 1 396 0
 106 0058 F279     		ldrb	r2, [r6, #7]
 107              	.LVL10:
 108 005a 1A70     		strb	r2, [r3]
 109              	.L8:
 110              	.LVL11:
 111              	.LBB6:
 112              	.LBB7:
 255:Generated_Source\PSoC4/CapSense_Processing.c **** 
 113              		.loc 1 255 0
ARM GAS  C:\Users\MM1005~1\AppData\Local\Temp\ccDYJIra.s 			page 10


 114 005c 6168     		ldr	r1, [r4, #4]
 115              	.LVL12:
 258:Generated_Source\PSoC4/CapSense_Processing.c ****     {
 116              		.loc 1 258 0
 117 005e 0023     		mov	r3, #0
 118 0060 07E0     		b	.L9
 119              	.LVL13:
 120              	.L10:
 260:Generated_Source\PSoC4/CapSense_Processing.c **** 
 121              		.loc 1 260 0
 122 0062 1A1C     		mov	r2, r3
 123 0064 0832     		add	r2, r2, #8
 124 0066 5200     		lsl	r2, r2, #1
 125 0068 8A18     		add	r2, r1, r2
 126 006a 0120     		mov	r0, #1
 127 006c 4042     		neg	r0, r0
 128 006e 5080     		strh	r0, [r2, #2]
 258:Generated_Source\PSoC4/CapSense_Processing.c ****     {
 129              		.loc 1 258 0
 130 0070 0133     		add	r3, r3, #1
 131              	.LVL14:
 132              	.L9:
 133 0072 002B     		cmp	r3, #0
 134 0074 F5D0     		beq	.L10
 135              	.LVL15:
 136              	.L5:
 137              	.LBE7:
 138              	.LBE6:
 397:Generated_Source\PSoC4/CapSense_Processing.c ****                 }
 398:Generated_Source\PSoC4/CapSense_Processing.c **** 
 399:Generated_Source\PSoC4/CapSense_Processing.c ****                 CapSense_DpInitSlider(ptrFlashWdgt);
 400:Generated_Source\PSoC4/CapSense_Processing.c **** 
 401:Generated_Source\PSoC4/CapSense_Processing.c ****                 break;
 402:Generated_Source\PSoC4/CapSense_Processing.c ****         #endif /* #if (0u != CapSense_SLIDER_WIDGET_EN) */
 403:Generated_Source\PSoC4/CapSense_Processing.c **** 
 404:Generated_Source\PSoC4/CapSense_Processing.c ****         #if (0u != CapSense_TOUCHPAD_WIDGET_EN)
 405:Generated_Source\PSoC4/CapSense_Processing.c ****             case CapSense_WD_TOUCHPAD_E:
 406:Generated_Source\PSoC4/CapSense_Processing.c ****                 if (NULL != ptrFlashWdgt->ptr2DebounceArr)
 407:Generated_Source\PSoC4/CapSense_Processing.c ****                 {
 408:Generated_Source\PSoC4/CapSense_Processing.c ****                     /* Initialize single debounce counter of touchpad */
 409:Generated_Source\PSoC4/CapSense_Processing.c ****                     *(uint8 *)(ptrFlashWdgt->ptr2DebounceArr) = ptrRamWdgt->onDebounce;
 410:Generated_Source\PSoC4/CapSense_Processing.c ****                 }
 411:Generated_Source\PSoC4/CapSense_Processing.c **** 
 412:Generated_Source\PSoC4/CapSense_Processing.c ****                 #if (0u != CapSense_CSD_TOUCHPAD_WIDGET_EN)
 413:Generated_Source\PSoC4/CapSense_Processing.c ****                     if (CapSense_SENSE_METHOD_CSD_E == CapSense_GET_SENSE_METHOD(ptrFlashWdgt))
 414:Generated_Source\PSoC4/CapSense_Processing.c ****                     {
 415:Generated_Source\PSoC4/CapSense_Processing.c ****                         CapSense_DpInitCsdTouchpad(ptrFlashWdgt);
 416:Generated_Source\PSoC4/CapSense_Processing.c ****                     }
 417:Generated_Source\PSoC4/CapSense_Processing.c ****                 #endif /* #if (0u != CapSense_CSD_TOUCHPAD_WIDGET_EN) */
 418:Generated_Source\PSoC4/CapSense_Processing.c **** 
 419:Generated_Source\PSoC4/CapSense_Processing.c ****                 #if (0u != CapSense_CSX_TOUCHPAD_WIDGET_EN)
 420:Generated_Source\PSoC4/CapSense_Processing.c ****                     if (CapSense_SENSE_METHOD_CSX_E == CapSense_GET_SENSE_METHOD(ptrFlashWdgt))
 421:Generated_Source\PSoC4/CapSense_Processing.c ****                     {
 422:Generated_Source\PSoC4/CapSense_Processing.c ****                         CapSense_DpInitCsxTouchpad(ptrFlashWdgt);
 423:Generated_Source\PSoC4/CapSense_Processing.c ****                     }
 424:Generated_Source\PSoC4/CapSense_Processing.c ****                 #endif /* #if (0u != CapSense_CSX_TOUCHPAD_WIDGET_EN) */
 425:Generated_Source\PSoC4/CapSense_Processing.c **** 
ARM GAS  C:\Users\MM1005~1\AppData\Local\Temp\ccDYJIra.s 			page 11


 426:Generated_Source\PSoC4/CapSense_Processing.c ****                 break;
 427:Generated_Source\PSoC4/CapSense_Processing.c ****         #endif /* #if (0u != CapSense_TOUCHPAD_WIDGET_EN) */
 428:Generated_Source\PSoC4/CapSense_Processing.c **** 
 429:Generated_Source\PSoC4/CapSense_Processing.c ****         #if (0u != CapSense_PROXIMITY_WIDGET_EN)
 430:Generated_Source\PSoC4/CapSense_Processing.c ****             case CapSense_WD_PROXIMITY_E:
 431:Generated_Source\PSoC4/CapSense_Processing.c ****                 if (NULL != ptrFlashWdgt->ptr2DebounceArr)
 432:Generated_Source\PSoC4/CapSense_Processing.c ****                 {
 433:Generated_Source\PSoC4/CapSense_Processing.c ****                     /* Proximity widgets have 2 de-bounce counters per sensor. 
 434:Generated_Source\PSoC4/CapSense_Processing.c ****                      * Therefore the number of sensors is multiplied by 2. 
 435:Generated_Source\PSoC4/CapSense_Processing.c ****                      */
 436:Generated_Source\PSoC4/CapSense_Processing.c ****                    (void)memset(ptrFlashWdgt->ptr2DebounceArr, 
 437:Generated_Source\PSoC4/CapSense_Processing.c ****                                 (int32)ptrRamWdgt->onDebounce, 
 438:Generated_Source\PSoC4/CapSense_Processing.c ****                                 (size_t)ptrFlashWdgt->totalNumSns * 2u);
 439:Generated_Source\PSoC4/CapSense_Processing.c ****                 }
 440:Generated_Source\PSoC4/CapSense_Processing.c ****                 break;
 441:Generated_Source\PSoC4/CapSense_Processing.c ****         #endif /* #if (0u != CapSense_PROXIMITY_WIDGET_EN) */
 442:Generated_Source\PSoC4/CapSense_Processing.c ****                 
 443:Generated_Source\PSoC4/CapSense_Processing.c ****             default:
 444:Generated_Source\PSoC4/CapSense_Processing.c ****                 break;
 445:Generated_Source\PSoC4/CapSense_Processing.c ****         }
 446:Generated_Source\PSoC4/CapSense_Processing.c **** 
 447:Generated_Source\PSoC4/CapSense_Processing.c ****         /* Move to next widget */
 448:Generated_Source\PSoC4/CapSense_Processing.c ****         ptrFlashWdgt++;
 139              		.loc 1 448 0
 140 0076 2C34     		add	r4, r4, #44
 141              	.LVL16:
 348:Generated_Source\PSoC4/CapSense_Processing.c ****     {
 142              		.loc 1 348 0
 143 0078 2B1C     		mov	r3, r5
 144              	.LVL17:
 145              	.L4:
 348:Generated_Source\PSoC4/CapSense_Processing.c ****     {
 146              		.loc 1 348 0 is_stmt 0 discriminator 1
 147 007a 5D1E     		sub	r5, r3, #1
 148              	.LVL18:
 149 007c 002B     		cmp	r3, #0
 150 007e D3D1     		bne	.L11
 449:Generated_Source\PSoC4/CapSense_Processing.c ****     }
 450:Generated_Source\PSoC4/CapSense_Processing.c **** }
 151              		.loc 1 450 0 is_stmt 1
 152              		@ sp needed
 153              	.LVL19:
 154              	.LVL20:
 155 0080 70BD     		pop	{r4, r5, r6, pc}
 156              	.L14:
 157 0082 C046     		.align	2
 158              	.L13:
 159 0084 00000000 		.word	CapSense_dsRam
 160 0088 00000000 		.word	CapSense_dsFlash
 161              		.cfi_endproc
 162              	.LFE2:
 163              		.size	CapSense_DpInitialize, .-CapSense_DpInitialize
 164              		.section	.text.CapSense_DpUpdateThresholds,"ax",%progbits
 165              		.align	2
 166              		.global	CapSense_DpUpdateThresholds
 167              		.code	16
 168              		.thumb_func
ARM GAS  C:\Users\MM1005~1\AppData\Local\Temp\ccDYJIra.s 			page 12


 169              		.type	CapSense_DpUpdateThresholds, %function
 170              	CapSense_DpUpdateThresholds:
 171              	.LFB9:
 451:Generated_Source\PSoC4/CapSense_Processing.c **** 
 452:Generated_Source\PSoC4/CapSense_Processing.c **** #if (0u != CapSense_TOTAL_CSX_WIDGETS)
 453:Generated_Source\PSoC4/CapSense_Processing.c **** /*******************************************************************************
 454:Generated_Source\PSoC4/CapSense_Processing.c **** * Function Name: CapSense_DpProcessCsxWidgetRawCounts
 455:Generated_Source\PSoC4/CapSense_Processing.c **** ****************************************************************************//**
 456:Generated_Source\PSoC4/CapSense_Processing.c **** *
 457:Generated_Source\PSoC4/CapSense_Processing.c **** * \brief
 458:Generated_Source\PSoC4/CapSense_Processing.c **** *  Performs default processing of the CSX raw counts.
 459:Generated_Source\PSoC4/CapSense_Processing.c **** *
 460:Generated_Source\PSoC4/CapSense_Processing.c **** * \details
 461:Generated_Source\PSoC4/CapSense_Processing.c **** *  Performs default processing of the CSX raw counts:
 462:Generated_Source\PSoC4/CapSense_Processing.c **** *   - Run Filters
 463:Generated_Source\PSoC4/CapSense_Processing.c **** *   - Update Baselines
 464:Generated_Source\PSoC4/CapSense_Processing.c **** *   - Update Differences
 465:Generated_Source\PSoC4/CapSense_Processing.c **** *   - Update Status.
 466:Generated_Source\PSoC4/CapSense_Processing.c **** *  The same process is applied to all sensors of the specified widget.
 467:Generated_Source\PSoC4/CapSense_Processing.c **** *
 468:Generated_Source\PSoC4/CapSense_Processing.c **** * \param ptrFlashWdgt The pointer to the Flash widget structure.
 469:Generated_Source\PSoC4/CapSense_Processing.c **** *
 470:Generated_Source\PSoC4/CapSense_Processing.c **** * \return   
 471:Generated_Source\PSoC4/CapSense_Processing.c **** *  Returns the status of the specified widget processing operation:
 472:Generated_Source\PSoC4/CapSense_Processing.c **** *  - CYRET_SUCCESS if operation was successfully completed;
 473:Generated_Source\PSoC4/CapSense_Processing.c **** *  - CapSense_PROCESS_BASELINE_FAILED if baseline processing of any 
 474:Generated_Source\PSoC4/CapSense_Processing.c **** *    sensor of the specified widget failed. The result is concatenated with the index
 475:Generated_Source\PSoC4/CapSense_Processing.c **** *    of failed sensor.
 476:Generated_Source\PSoC4/CapSense_Processing.c **** *
 477:Generated_Source\PSoC4/CapSense_Processing.c **** *******************************************************************************/
 478:Generated_Source\PSoC4/CapSense_Processing.c **** uint32 CapSense_DpProcessCsxWidgetRawCounts(CapSense_FLASH_WD_STRUCT const *ptrFlashWdgt)
 479:Generated_Source\PSoC4/CapSense_Processing.c **** {
 480:Generated_Source\PSoC4/CapSense_Processing.c ****     uint32 result = CYRET_SUCCESS;
 481:Generated_Source\PSoC4/CapSense_Processing.c ****     uint32 widgetType;
 482:Generated_Source\PSoC4/CapSense_Processing.c ****     uint32 snsCount;
 483:Generated_Source\PSoC4/CapSense_Processing.c ****     CapSense_RAM_SNS_STRUCT *ptrSns;
 484:Generated_Source\PSoC4/CapSense_Processing.c ****     CapSense_RAM_WD_BASE_STRUCT *ptrRamWdgt;
 485:Generated_Source\PSoC4/CapSense_Processing.c **** 
 486:Generated_Source\PSoC4/CapSense_Processing.c ****     #if (0u != DP_FW_FILTER_EN)
 487:Generated_Source\PSoC4/CapSense_Processing.c ****         CapSense_PTR_FILTER_VARIANT fltrHistV;
 488:Generated_Source\PSoC4/CapSense_Processing.c ****         
 489:Generated_Source\PSoC4/CapSense_Processing.c ****         fltrHistV.ptr = ptrFlashWdgt->ptr2FltrHistory;
 490:Generated_Source\PSoC4/CapSense_Processing.c ****     #endif /* #if (0u != DP_FW_FILTER_EN) */
 491:Generated_Source\PSoC4/CapSense_Processing.c **** 
 492:Generated_Source\PSoC4/CapSense_Processing.c ****     ptrSns = ptrFlashWdgt->ptr2SnsRam;
 493:Generated_Source\PSoC4/CapSense_Processing.c ****     snsCount = ptrFlashWdgt->totalNumSns;
 494:Generated_Source\PSoC4/CapSense_Processing.c ****     ptrRamWdgt = ptrFlashWdgt->ptr2WdgtRam;
 495:Generated_Source\PSoC4/CapSense_Processing.c ****     widgetType = ptrFlashWdgt->wdgtType;
 496:Generated_Source\PSoC4/CapSense_Processing.c **** 
 497:Generated_Source\PSoC4/CapSense_Processing.c ****     /* Run deconvolution algorithm for the widgets with multiphase TX support */
 498:Generated_Source\PSoC4/CapSense_Processing.c ****     #if (0u != CapSense_CSX_MULTIPHASE_TX_EN)
 499:Generated_Source\PSoC4/CapSense_Processing.c ****         if (0u != (ptrFlashWdgt->staticConfig & CapSense_MULTIPHASE_TX_MASK))
 500:Generated_Source\PSoC4/CapSense_Processing.c ****         {
 501:Generated_Source\PSoC4/CapSense_Processing.c ****             CapSense_DpDeconvolution(ptrFlashWdgt);
 502:Generated_Source\PSoC4/CapSense_Processing.c ****         }
 503:Generated_Source\PSoC4/CapSense_Processing.c ****     #endif  /* #if (0u != CapSense_CSX_MULTIPHASE_TX_EN) */   
 504:Generated_Source\PSoC4/CapSense_Processing.c ****     
ARM GAS  C:\Users\MM1005~1\AppData\Local\Temp\ccDYJIra.s 			page 13


 505:Generated_Source\PSoC4/CapSense_Processing.c ****     for (;snsCount-- > 0u;)
 506:Generated_Source\PSoC4/CapSense_Processing.c ****     {
 507:Generated_Source\PSoC4/CapSense_Processing.c ****         #if (0u != CapSense_CSX_SKIP_OVSMPL_SPECIFIC_NODES)
 508:Generated_Source\PSoC4/CapSense_Processing.c ****             if (0u != ptrSns->resolution)
 509:Generated_Source\PSoC4/CapSense_Processing.c ****         #endif
 510:Generated_Source\PSoC4/CapSense_Processing.c ****         {
 511:Generated_Source\PSoC4/CapSense_Processing.c ****             #if (0u != DP_FW_FILTER_EN)
 512:Generated_Source\PSoC4/CapSense_Processing.c ****                 CapSense_FtRunEnabledFiltersInternal(fltrHistV, ptrSns, widgetType);
 513:Generated_Source\PSoC4/CapSense_Processing.c ****             #endif /* #if (0u != DP_FW_FILTER_EN) */
 514:Generated_Source\PSoC4/CapSense_Processing.c **** 
 515:Generated_Source\PSoC4/CapSense_Processing.c ****             result = CapSense_FtUpdateBaseline(ptrRamWdgt, ptrSns, widgetType);
 516:Generated_Source\PSoC4/CapSense_Processing.c ****             
 517:Generated_Source\PSoC4/CapSense_Processing.c ****             #if (CapSense_ENABLE == CapSense_TST_BSLN_DUPLICATION_EN)
 518:Generated_Source\PSoC4/CapSense_Processing.c ****                 if (CYRET_SUCCESS != result)
 519:Generated_Source\PSoC4/CapSense_Processing.c ****                 {
 520:Generated_Source\PSoC4/CapSense_Processing.c ****                     result = snsCount | CapSense_PROCESS_BASELINE_FAILED;
 521:Generated_Source\PSoC4/CapSense_Processing.c ****                 }
 522:Generated_Source\PSoC4/CapSense_Processing.c ****             #endif /* (CapSense_ENABLE == CapSense_TST_BSLN_DUPLICATION_EN) */
 523:Generated_Source\PSoC4/CapSense_Processing.c **** 
 524:Generated_Source\PSoC4/CapSense_Processing.c ****             CapSense_DpUpdateDifferences(ptrRamWdgt, ptrSns);
 525:Generated_Source\PSoC4/CapSense_Processing.c ****         }
 526:Generated_Source\PSoC4/CapSense_Processing.c ****         /* Move pointers to the next sensor and filter history objects */
 527:Generated_Source\PSoC4/CapSense_Processing.c ****         ptrSns++;
 528:Generated_Source\PSoC4/CapSense_Processing.c ****             
 529:Generated_Source\PSoC4/CapSense_Processing.c ****         #if (0u != DP_FW_FILTER_EN)
 530:Generated_Source\PSoC4/CapSense_Processing.c ****             CapSense_INC_FLTR_OBJ_VARIANT(0u, fltrHistV);
 531:Generated_Source\PSoC4/CapSense_Processing.c ****         #endif /* #if (0u != DP_FW_FILTER_EN) */
 532:Generated_Source\PSoC4/CapSense_Processing.c ****     }
 533:Generated_Source\PSoC4/CapSense_Processing.c ****     return result;
 534:Generated_Source\PSoC4/CapSense_Processing.c **** }
 535:Generated_Source\PSoC4/CapSense_Processing.c **** 
 536:Generated_Source\PSoC4/CapSense_Processing.c **** /*******************************************************************************
 537:Generated_Source\PSoC4/CapSense_Processing.c **** * Function Name: CapSense_DpProcessCsxSensorRawCountsExt
 538:Generated_Source\PSoC4/CapSense_Processing.c **** ****************************************************************************//**
 539:Generated_Source\PSoC4/CapSense_Processing.c **** *
 540:Generated_Source\PSoC4/CapSense_Processing.c **** * \brief
 541:Generated_Source\PSoC4/CapSense_Processing.c **** *   Performs customized processing of the CSX sensor raw counts.
 542:Generated_Source\PSoC4/CapSense_Processing.c **** *
 543:Generated_Source\PSoC4/CapSense_Processing.c **** * \details
 544:Generated_Source\PSoC4/CapSense_Processing.c **** *   Performs customized processing of the CSX sensor raw counts.
 545:Generated_Source\PSoC4/CapSense_Processing.c **** *
 546:Generated_Source\PSoC4/CapSense_Processing.c **** *   If all bits are set at once the default processing order will take place.
 547:Generated_Source\PSoC4/CapSense_Processing.c **** *   For the custom order this API can be called multiple times and execute one task at a time.
 548:Generated_Source\PSoC4/CapSense_Processing.c **** *
 549:Generated_Source\PSoC4/CapSense_Processing.c **** * \param ptrFlashWdgt The pointer to the Flash Widget Object.
 550:Generated_Source\PSoC4/CapSense_Processing.c **** * \param ptrSns       The pointer to the specific RAM Sensor Object.
 551:Generated_Source\PSoC4/CapSense_Processing.c **** * \param fltrHistV    The pointer to the Filter History Object in RAM associated with specific sens
 552:Generated_Source\PSoC4/CapSense_Processing.c **** * \param mode         The bit-mask with the data processing tasks to be executed.
 553:Generated_Source\PSoC4/CapSense_Processing.c **** *   The mode parameters can take the following values:
 554:Generated_Source\PSoC4/CapSense_Processing.c **** *    - CapSense_PROCESS_FILTER     (0x01) Run Firmware Filter
 555:Generated_Source\PSoC4/CapSense_Processing.c **** *    - CapSense_PROCESS_BASELINE   (0x02) Update Baselines
 556:Generated_Source\PSoC4/CapSense_Processing.c **** *    - CapSense_PROCESS_DIFFCOUNTS (0x04) Update Difference Counts
 557:Generated_Source\PSoC4/CapSense_Processing.c **** *    - CapSense_PROCESS_ALL               Execute all tasks
 558:Generated_Source\PSoC4/CapSense_Processing.c **** *
 559:Generated_Source\PSoC4/CapSense_Processing.c **** * \return   
 560:Generated_Source\PSoC4/CapSense_Processing.c **** *  Returns the status of the specified sensor processing operation:
 561:Generated_Source\PSoC4/CapSense_Processing.c **** *  - CYRET_SUCCESS if operation was successfully completed;
ARM GAS  C:\Users\MM1005~1\AppData\Local\Temp\ccDYJIra.s 			page 14


 562:Generated_Source\PSoC4/CapSense_Processing.c **** *  - CapSense_PROCESS_BASELINE_FAILED if baseline processing of any 
 563:Generated_Source\PSoC4/CapSense_Processing.c **** *    sensor of the specified widget failed. The result is concatenated with the index
 564:Generated_Source\PSoC4/CapSense_Processing.c **** *    of failed sensor.
 565:Generated_Source\PSoC4/CapSense_Processing.c **** *
 566:Generated_Source\PSoC4/CapSense_Processing.c **** *******************************************************************************/
 567:Generated_Source\PSoC4/CapSense_Processing.c **** uint32 CapSense_DpProcessCsxSensorRawCountsExt(
 568:Generated_Source\PSoC4/CapSense_Processing.c ****                 CapSense_FLASH_WD_STRUCT const *ptrFlashWdgt,
 569:Generated_Source\PSoC4/CapSense_Processing.c ****                 CapSense_RAM_SNS_STRUCT *ptrSns,
 570:Generated_Source\PSoC4/CapSense_Processing.c ****                 CapSense_PTR_FILTER_VARIANT fltrHistV,
 571:Generated_Source\PSoC4/CapSense_Processing.c ****                 uint32 mode)
 572:Generated_Source\PSoC4/CapSense_Processing.c **** {
 573:Generated_Source\PSoC4/CapSense_Processing.c ****     uint32  result = CYRET_SUCCESS;
 574:Generated_Source\PSoC4/CapSense_Processing.c ****     uint32  widgetType;
 575:Generated_Source\PSoC4/CapSense_Processing.c ****     CapSense_RAM_WD_BASE_STRUCT *ptrRamWdgt;
 576:Generated_Source\PSoC4/CapSense_Processing.c **** 
 577:Generated_Source\PSoC4/CapSense_Processing.c ****     widgetType = ptrFlashWdgt->wdgtType;
 578:Generated_Source\PSoC4/CapSense_Processing.c ****     ptrRamWdgt = ptrFlashWdgt->ptr2WdgtRam;
 579:Generated_Source\PSoC4/CapSense_Processing.c ****     
 580:Generated_Source\PSoC4/CapSense_Processing.c ****     #if (0u != DP_FW_FILTER_EN)
 581:Generated_Source\PSoC4/CapSense_Processing.c ****         if (0u != (mode & CapSense_PROCESS_FILTER))
 582:Generated_Source\PSoC4/CapSense_Processing.c ****         {
 583:Generated_Source\PSoC4/CapSense_Processing.c ****             CapSense_FtRunEnabledFiltersInternal(fltrHistV, ptrSns, widgetType);
 584:Generated_Source\PSoC4/CapSense_Processing.c ****         }
 585:Generated_Source\PSoC4/CapSense_Processing.c ****     #else
 586:Generated_Source\PSoC4/CapSense_Processing.c ****         (void)fltrHistV; /* This parameter is unused in such configurations */
 587:Generated_Source\PSoC4/CapSense_Processing.c ****     #endif /* #if (0u != DP_FW_FILTER_EN) */
 588:Generated_Source\PSoC4/CapSense_Processing.c **** 
 589:Generated_Source\PSoC4/CapSense_Processing.c ****     if (0u != (mode & CapSense_PROCESS_BASELINE))
 590:Generated_Source\PSoC4/CapSense_Processing.c ****     {
 591:Generated_Source\PSoC4/CapSense_Processing.c ****         result = CapSense_FtUpdateBaseline(ptrRamWdgt, ptrSns, widgetType);
 592:Generated_Source\PSoC4/CapSense_Processing.c ****     }
 593:Generated_Source\PSoC4/CapSense_Processing.c **** 
 594:Generated_Source\PSoC4/CapSense_Processing.c ****     if (0u != (mode & CapSense_PROCESS_DIFFCOUNTS))
 595:Generated_Source\PSoC4/CapSense_Processing.c ****     {
 596:Generated_Source\PSoC4/CapSense_Processing.c ****         CapSense_DpUpdateDifferences(ptrRamWdgt, ptrSns);
 597:Generated_Source\PSoC4/CapSense_Processing.c ****     }
 598:Generated_Source\PSoC4/CapSense_Processing.c ****     return result;
 599:Generated_Source\PSoC4/CapSense_Processing.c **** }
 600:Generated_Source\PSoC4/CapSense_Processing.c **** 
 601:Generated_Source\PSoC4/CapSense_Processing.c **** 
 602:Generated_Source\PSoC4/CapSense_Processing.c **** /*******************************************************************************
 603:Generated_Source\PSoC4/CapSense_Processing.c **** * Function Name: CapSense_DpProcessCsxWidgetStatus
 604:Generated_Source\PSoC4/CapSense_Processing.c **** ****************************************************************************//**
 605:Generated_Source\PSoC4/CapSense_Processing.c **** *
 606:Generated_Source\PSoC4/CapSense_Processing.c **** * \brief
 607:Generated_Source\PSoC4/CapSense_Processing.c **** *   Updates the status of the CSX widget in the Data Structure.
 608:Generated_Source\PSoC4/CapSense_Processing.c **** *
 609:Generated_Source\PSoC4/CapSense_Processing.c **** * \details
 610:Generated_Source\PSoC4/CapSense_Processing.c **** *  This API determines the type of widget and runs the appropriate function
 611:Generated_Source\PSoC4/CapSense_Processing.c **** *  that implements the status update algorithm for this type of widget.
 612:Generated_Source\PSoC4/CapSense_Processing.c **** *
 613:Generated_Source\PSoC4/CapSense_Processing.c **** *  When the widget-specific processing completes this API updates the snsStatus
 614:Generated_Source\PSoC4/CapSense_Processing.c **** *  and wdgtStatus registers in the data structure. The wdgtStatus register
 615:Generated_Source\PSoC4/CapSense_Processing.c **** *  is a bitmask were each bit corresponds to the specific widget identified by
 616:Generated_Source\PSoC4/CapSense_Processing.c **** *  the widget index. When the bit is set the widget is active (touched);
 617:Generated_Source\PSoC4/CapSense_Processing.c **** *
 618:Generated_Source\PSoC4/CapSense_Processing.c **** *  Depending on the type of widget the snsStatus register may contain either
ARM GAS  C:\Users\MM1005~1\AppData\Local\Temp\ccDYJIra.s 			page 15


 619:Generated_Source\PSoC4/CapSense_Processing.c **** *  status of each widget node (active/non-active) or in case of the CSX Touchpad
 620:Generated_Source\PSoC4/CapSense_Processing.c **** *  is contains the number of touches. In both cases 0 means that widget is not
 621:Generated_Source\PSoC4/CapSense_Processing.c **** *  active.
 622:Generated_Source\PSoC4/CapSense_Processing.c **** *
 623:Generated_Source\PSoC4/CapSense_Processing.c **** * \param wdgtId       The widget index number.
 624:Generated_Source\PSoC4/CapSense_Processing.c **** * \param ptrFlashWdgt The pointer to the Flash Widget Object.
 625:Generated_Source\PSoC4/CapSense_Processing.c **** *
 626:Generated_Source\PSoC4/CapSense_Processing.c **** *******************************************************************************/
 627:Generated_Source\PSoC4/CapSense_Processing.c **** void CapSense_DpProcessCsxWidgetStatus(uint32 wdgtId, CapSense_FLASH_WD_STRUCT const *ptrFlashWdgt)
 628:Generated_Source\PSoC4/CapSense_Processing.c **** {
 629:Generated_Source\PSoC4/CapSense_Processing.c ****     uint32 sensorStatus;
 630:Generated_Source\PSoC4/CapSense_Processing.c ****     uint32 wdStatusIndex;
 631:Generated_Source\PSoC4/CapSense_Processing.c ****     uint32 wdStatusMask;
 632:Generated_Source\PSoC4/CapSense_Processing.c ****     CapSense_WD_TYPE_ENUM widgetType;
 633:Generated_Source\PSoC4/CapSense_Processing.c **** 
 634:Generated_Source\PSoC4/CapSense_Processing.c ****     widgetType = (CapSense_WD_TYPE_ENUM)ptrFlashWdgt->wdgtType;
 635:Generated_Source\PSoC4/CapSense_Processing.c ****     sensorStatus = CapSense_dsRam.snsStatus[wdgtId];
 636:Generated_Source\PSoC4/CapSense_Processing.c **** 
 637:Generated_Source\PSoC4/CapSense_Processing.c ****     switch (widgetType)
 638:Generated_Source\PSoC4/CapSense_Processing.c ****     {
 639:Generated_Source\PSoC4/CapSense_Processing.c ****     #if (0u != CapSense_BUTTON_WIDGET_EN)
 640:Generated_Source\PSoC4/CapSense_Processing.c ****         case CapSense_WD_BUTTON_E:
 641:Generated_Source\PSoC4/CapSense_Processing.c ****             sensorStatus = CapSense_DpProcessButton(sensorStatus, ptrFlashWdgt);
 642:Generated_Source\PSoC4/CapSense_Processing.c ****             break;
 643:Generated_Source\PSoC4/CapSense_Processing.c ****     #endif /* #if (0u != CapSense_BUTTON_WIDGET_EN) */
 644:Generated_Source\PSoC4/CapSense_Processing.c **** 
 645:Generated_Source\PSoC4/CapSense_Processing.c ****     #if (0u != CapSense_CSX_MATRIX_WIDGET_EN)
 646:Generated_Source\PSoC4/CapSense_Processing.c ****         case CapSense_WD_MATRIX_BUTTON_E:
 647:Generated_Source\PSoC4/CapSense_Processing.c ****             sensorStatus = CapSense_DpProcessButton(sensorStatus, ptrFlashWdgt);
 648:Generated_Source\PSoC4/CapSense_Processing.c ****             break;
 649:Generated_Source\PSoC4/CapSense_Processing.c ****     #endif /* #if (0u != CapSense_CSX_MATRIX_WIDGET_EN) */
 650:Generated_Source\PSoC4/CapSense_Processing.c **** 
 651:Generated_Source\PSoC4/CapSense_Processing.c ****     #if (0u != CapSense_CSX_TOUCHPAD_WIDGET_EN)
 652:Generated_Source\PSoC4/CapSense_Processing.c ****         case CapSense_WD_TOUCHPAD_E:
 653:Generated_Source\PSoC4/CapSense_Processing.c ****             sensorStatus = CapSense_DpProcessCsxTouchpad(sensorStatus, ptrFlashWdgt);
 654:Generated_Source\PSoC4/CapSense_Processing.c ****             break;
 655:Generated_Source\PSoC4/CapSense_Processing.c ****     #endif /* #if (0u != CapSense_CSX_TOUCHPAD_WIDGET_EN) */
 656:Generated_Source\PSoC4/CapSense_Processing.c **** 
 657:Generated_Source\PSoC4/CapSense_Processing.c ****     default:
 658:Generated_Source\PSoC4/CapSense_Processing.c ****         CYASSERT(0u);
 659:Generated_Source\PSoC4/CapSense_Processing.c ****         break;
 660:Generated_Source\PSoC4/CapSense_Processing.c ****     }
 661:Generated_Source\PSoC4/CapSense_Processing.c **** 
 662:Generated_Source\PSoC4/CapSense_Processing.c ****     /* Update sensor status in the data structure */
 663:Generated_Source\PSoC4/CapSense_Processing.c ****     CapSense_dsRam.snsStatus[wdgtId] = (CapSense_SNS_STS_TYPE)sensorStatus;
 664:Generated_Source\PSoC4/CapSense_Processing.c **** 
 665:Generated_Source\PSoC4/CapSense_Processing.c ****     /* The next two lines calculate index and bitmask of the widget status bit in the wdgtStatus ar
 666:Generated_Source\PSoC4/CapSense_Processing.c ****     wdStatusIndex = CapSense_GET_WDGT_STATUS_INDEX(wdgtId);
 667:Generated_Source\PSoC4/CapSense_Processing.c ****     wdStatusMask = CapSense_GET_WDGT_STATUS_MASK(wdgtId);
 668:Generated_Source\PSoC4/CapSense_Processing.c **** 
 669:Generated_Source\PSoC4/CapSense_Processing.c ****     /* Check if there are active sensors and update widget status accordingly */
 670:Generated_Source\PSoC4/CapSense_Processing.c ****     if (0u == sensorStatus)
 671:Generated_Source\PSoC4/CapSense_Processing.c ****     {
 672:Generated_Source\PSoC4/CapSense_Processing.c ****         CapSense_dsRam.wdgtStatus[wdStatusIndex] &= ~wdStatusMask;
 673:Generated_Source\PSoC4/CapSense_Processing.c ****     }
 674:Generated_Source\PSoC4/CapSense_Processing.c ****     else
 675:Generated_Source\PSoC4/CapSense_Processing.c ****     {
ARM GAS  C:\Users\MM1005~1\AppData\Local\Temp\ccDYJIra.s 			page 16


 676:Generated_Source\PSoC4/CapSense_Processing.c ****         CapSense_dsRam.wdgtStatus[wdStatusIndex] |= wdStatusMask;
 677:Generated_Source\PSoC4/CapSense_Processing.c ****     }
 678:Generated_Source\PSoC4/CapSense_Processing.c **** }
 679:Generated_Source\PSoC4/CapSense_Processing.c **** #endif /* #if CapSense_TOTAL_CSX_WIDGETS */
 680:Generated_Source\PSoC4/CapSense_Processing.c **** 
 681:Generated_Source\PSoC4/CapSense_Processing.c **** #if (0u != CapSense_TOTAL_CSD_WIDGETS)
 682:Generated_Source\PSoC4/CapSense_Processing.c **** /*******************************************************************************
 683:Generated_Source\PSoC4/CapSense_Processing.c **** * Function Name: CapSense_DpProcessCsdWidgetRawCounts
 684:Generated_Source\PSoC4/CapSense_Processing.c **** ****************************************************************************//**
 685:Generated_Source\PSoC4/CapSense_Processing.c **** *
 686:Generated_Source\PSoC4/CapSense_Processing.c **** * \brief
 687:Generated_Source\PSoC4/CapSense_Processing.c **** *   Performs default processing for the CSD widget raw counts.
 688:Generated_Source\PSoC4/CapSense_Processing.c **** *
 689:Generated_Source\PSoC4/CapSense_Processing.c **** * \details
 690:Generated_Source\PSoC4/CapSense_Processing.c **** *   Performs default processing for the CSD widget raw counts:
 691:Generated_Source\PSoC4/CapSense_Processing.c **** *    - Run Filters
 692:Generated_Source\PSoC4/CapSense_Processing.c **** *    - Update Thresholds (FW Auto-tuning)
 693:Generated_Source\PSoC4/CapSense_Processing.c **** *    - Update Baselines
 694:Generated_Source\PSoC4/CapSense_Processing.c **** *    - Update Differences.
 695:Generated_Source\PSoC4/CapSense_Processing.c **** *   The process is applied to all widget's sensors.
 696:Generated_Source\PSoC4/CapSense_Processing.c **** *
 697:Generated_Source\PSoC4/CapSense_Processing.c **** * \param ptrFlashWdgt The pointer to the Flash Widget Object.
 698:Generated_Source\PSoC4/CapSense_Processing.c **** *
 699:Generated_Source\PSoC4/CapSense_Processing.c **** * \return   
 700:Generated_Source\PSoC4/CapSense_Processing.c **** *  Returns the status of the specified widget processing operation:
 701:Generated_Source\PSoC4/CapSense_Processing.c **** *  - CYRET_SUCCESS if operation was successfully completed;
 702:Generated_Source\PSoC4/CapSense_Processing.c **** *  - CapSense_PROCESS_BASELINE_FAILED if baseline processing of any 
 703:Generated_Source\PSoC4/CapSense_Processing.c **** *    sensor of the specified widget failed. The result is concatenated with the index
 704:Generated_Source\PSoC4/CapSense_Processing.c **** *    of failed sensor.
 705:Generated_Source\PSoC4/CapSense_Processing.c **** *
 706:Generated_Source\PSoC4/CapSense_Processing.c **** *******************************************************************************/
 707:Generated_Source\PSoC4/CapSense_Processing.c **** uint32 CapSense_DpProcessCsdWidgetRawCounts(CapSense_FLASH_WD_STRUCT const *ptrFlashWdgt)
 708:Generated_Source\PSoC4/CapSense_Processing.c **** {
 709:Generated_Source\PSoC4/CapSense_Processing.c ****     uint32  result = CYRET_SUCCESS;
 710:Generated_Source\PSoC4/CapSense_Processing.c ****     
 711:Generated_Source\PSoC4/CapSense_Processing.c ****     #if (CapSense_ENABLE == CapSense_TST_BSLN_DUPLICATION_EN)    
 712:Generated_Source\PSoC4/CapSense_Processing.c ****         uint32 bslnTstResult = CYRET_SUCCESS;
 713:Generated_Source\PSoC4/CapSense_Processing.c ****     #endif /* (CapSense_ENABLE == CapSense_TST_BSLN_DUPLICATION_EN) */
 714:Generated_Source\PSoC4/CapSense_Processing.c **** 
 715:Generated_Source\PSoC4/CapSense_Processing.c ****     uint32  widgetType;
 716:Generated_Source\PSoC4/CapSense_Processing.c ****     uint32  snsId;
 717:Generated_Source\PSoC4/CapSense_Processing.c ****     CapSense_RAM_SNS_STRUCT *ptrSns;
 718:Generated_Source\PSoC4/CapSense_Processing.c ****     CapSense_RAM_WD_BASE_STRUCT *ptrRamWdgt;
 719:Generated_Source\PSoC4/CapSense_Processing.c **** 
 720:Generated_Source\PSoC4/CapSense_Processing.c ****     #if (0u != (CapSense_CSD_AUTOTUNE & CapSense_CSD_SS_TH_EN))
 721:Generated_Source\PSoC4/CapSense_Processing.c ****         /* The noise envelope data is available only when Full CSD Auto-Tuning is enabled */
 722:Generated_Source\PSoC4/CapSense_Processing.c ****         SMARTSENSE_CSD_NOISE_ENVELOPE_STRUCT *ptrNoiseEnvelope;
 723:Generated_Source\PSoC4/CapSense_Processing.c ****         #if (CapSense_ENABLE == CapSense_PROXIMITY_WIDGET_EN)
 724:Generated_Source\PSoC4/CapSense_Processing.c ****             uint32  proximityThreshold;
 725:Generated_Source\PSoC4/CapSense_Processing.c ****         #endif /* (0 != CapSense_PROXIMITY_WIDGET_EN) */
 726:Generated_Source\PSoC4/CapSense_Processing.c ****     #endif /* #if (0u != (CapSense_CSD_AUTOTUNE & CapSense_CSD_SS_TH_EN)) */
 727:Generated_Source\PSoC4/CapSense_Processing.c **** 
 728:Generated_Source\PSoC4/CapSense_Processing.c ****     #if (0u != DP_FW_FILTER_EN)
 729:Generated_Source\PSoC4/CapSense_Processing.c ****         CapSense_PTR_FILTER_VARIANT fltrHistV;
 730:Generated_Source\PSoC4/CapSense_Processing.c ****     
 731:Generated_Source\PSoC4/CapSense_Processing.c ****         /* Determine if widget type is proximity */
 732:Generated_Source\PSoC4/CapSense_Processing.c ****         uint32 isProxWdgt = 
ARM GAS  C:\Users\MM1005~1\AppData\Local\Temp\ccDYJIra.s 			page 17


 733:Generated_Source\PSoC4/CapSense_Processing.c ****                     (CapSense_GET_WIDGET_TYPE(ptrFlashWdgt) == CapSense_WD_PROXIMITY_E) ? 1u : 0u;
 734:Generated_Source\PSoC4/CapSense_Processing.c ****                     
 735:Generated_Source\PSoC4/CapSense_Processing.c ****         /* Get pointer to the filter history object */
 736:Generated_Source\PSoC4/CapSense_Processing.c ****         fltrHistV.ptr = ptrFlashWdgt->ptr2FltrHistory;
 737:Generated_Source\PSoC4/CapSense_Processing.c ****     #endif /* #if (0u != DP_FW_FILTER_EN) */
 738:Generated_Source\PSoC4/CapSense_Processing.c ****     
 739:Generated_Source\PSoC4/CapSense_Processing.c ****     ptrSns = ptrFlashWdgt->ptr2SnsRam;
 740:Generated_Source\PSoC4/CapSense_Processing.c ****     ptrRamWdgt = ptrFlashWdgt->ptr2WdgtRam;
 741:Generated_Source\PSoC4/CapSense_Processing.c ****     widgetType = ptrFlashWdgt->wdgtType;
 742:Generated_Source\PSoC4/CapSense_Processing.c **** 
 743:Generated_Source\PSoC4/CapSense_Processing.c ****     #if (0u != (CapSense_CSD_AUTOTUNE & CapSense_CSD_SS_TH_EN))
 744:Generated_Source\PSoC4/CapSense_Processing.c ****         ptrNoiseEnvelope = ptrFlashWdgt->ptr2NoiseEnvlp;
 745:Generated_Source\PSoC4/CapSense_Processing.c ****     #endif /* #if (0u != (CapSense_CSD_AUTOTUNE & CapSense_CSD_SS_TH_EN)) */
 746:Generated_Source\PSoC4/CapSense_Processing.c **** 
 747:Generated_Source\PSoC4/CapSense_Processing.c ****     /* Iterate through all widget's sensors */
 748:Generated_Source\PSoC4/CapSense_Processing.c ****     for(snsId = 0u; snsId < ptrFlashWdgt->totalNumSns; snsId++)
 749:Generated_Source\PSoC4/CapSense_Processing.c ****     {
 750:Generated_Source\PSoC4/CapSense_Processing.c ****         /* Run all enabled filter on specified widget's sensor */
 751:Generated_Source\PSoC4/CapSense_Processing.c ****         #if (0u != DP_FW_FILTER_EN)
 752:Generated_Source\PSoC4/CapSense_Processing.c ****             CapSense_FtRunEnabledFiltersInternal(fltrHistV, ptrSns, widgetType);
 753:Generated_Source\PSoC4/CapSense_Processing.c ****         #endif /* #if (0u != DP_FW_FILTER_EN) */
 754:Generated_Source\PSoC4/CapSense_Processing.c **** 
 755:Generated_Source\PSoC4/CapSense_Processing.c ****         /* Run auto-tuning activities */
 756:Generated_Source\PSoC4/CapSense_Processing.c ****         #if (0u != (CapSense_CSD_AUTOTUNE & CapSense_CSD_SS_TH_EN))
 757:Generated_Source\PSoC4/CapSense_Processing.c ****             SmartSense_RunNoiseEnvelope(ptrSns->raw[0u], ptrRamWdgt->sigPFC, ptrNoiseEnvelope);
 758:Generated_Source\PSoC4/CapSense_Processing.c ****             CapSense_DpUpdateThresholds(ptrRamWdgt, ptrNoiseEnvelope, snsId);
 759:Generated_Source\PSoC4/CapSense_Processing.c **** 
 760:Generated_Source\PSoC4/CapSense_Processing.c ****             /* Calculate Proximity Touch Threshold in SmartSense mode based on Finger Threshold and
 761:Generated_Source\PSoC4/CapSense_Processing.c ****             #if (CapSense_ENABLE == CapSense_PROXIMITY_WIDGET_EN)
 762:Generated_Source\PSoC4/CapSense_Processing.c ****                 if (CapSense_WD_PROXIMITY_E == CapSense_GET_WIDGET_TYPE(ptrFlashWdgt))
 763:Generated_Source\PSoC4/CapSense_Processing.c ****                 {
 764:Generated_Source\PSoC4/CapSense_Processing.c ****                     proximityThreshold = ((uint32)ptrRamWdgt->fingerTh * CapSense_PROX_TOUCH_COEFF)
 765:Generated_Source\PSoC4/CapSense_Processing.c ****                     if ((((1Lu) << CapSense_THRESHOLD_SIZE) - 1u) < proximityThreshold)
 766:Generated_Source\PSoC4/CapSense_Processing.c ****                     {
 767:Generated_Source\PSoC4/CapSense_Processing.c ****                         proximityThreshold = ((1Lu) << CapSense_THRESHOLD_SIZE) - 1u;
 768:Generated_Source\PSoC4/CapSense_Processing.c ****                     }
 769:Generated_Source\PSoC4/CapSense_Processing.c ****                     ((CapSense_RAM_WD_PROXIMITY_STRUCT *)ptrFlashWdgt->ptr2WdgtRam)->proxTouchTh = 
 770:Generated_Source\PSoC4/CapSense_Processing.c ****                         (CapSense_THRESHOLD_TYPE)proximityThreshold;
 771:Generated_Source\PSoC4/CapSense_Processing.c ****                 }
 772:Generated_Source\PSoC4/CapSense_Processing.c ****             #endif /* (0 != CapSense_PROXIMITY_WIDGET_EN) */
 773:Generated_Source\PSoC4/CapSense_Processing.c ****             
 774:Generated_Source\PSoC4/CapSense_Processing.c ****             /* Move to next noise-envelope object */
 775:Generated_Source\PSoC4/CapSense_Processing.c ****             ptrNoiseEnvelope++;
 776:Generated_Source\PSoC4/CapSense_Processing.c ****         #endif /* (0u != (CapSense_CSD_AUTOTUNE & CapSense_CSD_SS_TH_EN)) */
 777:Generated_Source\PSoC4/CapSense_Processing.c **** 
 778:Generated_Source\PSoC4/CapSense_Processing.c ****         #if (CapSense_ENABLE == CapSense_TST_BSLN_DUPLICATION_EN)
 779:Generated_Source\PSoC4/CapSense_Processing.c ****             bslnTstResult = CapSense_FtUpdateBaseline(ptrRamWdgt, ptrSns, widgetType);
 780:Generated_Source\PSoC4/CapSense_Processing.c ****             if (CYRET_SUCCESS != bslnTstResult)
 781:Generated_Source\PSoC4/CapSense_Processing.c ****             {
 782:Generated_Source\PSoC4/CapSense_Processing.c ****                 if (CYRET_SUCCESS == result)
 783:Generated_Source\PSoC4/CapSense_Processing.c ****                 {
 784:Generated_Source\PSoC4/CapSense_Processing.c ****                     result = snsId | CapSense_PROCESS_BASELINE_FAILED;
 785:Generated_Source\PSoC4/CapSense_Processing.c ****                 }
 786:Generated_Source\PSoC4/CapSense_Processing.c ****             }
 787:Generated_Source\PSoC4/CapSense_Processing.c ****         #else /* (CapSense_ENABLE == CapSense_TST_BSLN_DUPLICATION_EN) */
 788:Generated_Source\PSoC4/CapSense_Processing.c ****             result = CapSense_FtUpdateBaseline(ptrRamWdgt, ptrSns, widgetType);
 789:Generated_Source\PSoC4/CapSense_Processing.c ****         #endif /* (CapSense_ENABLE == CapSense_TST_BSLN_DUPLICATION_EN) */
ARM GAS  C:\Users\MM1005~1\AppData\Local\Temp\ccDYJIra.s 			page 18


 790:Generated_Source\PSoC4/CapSense_Processing.c **** 
 791:Generated_Source\PSoC4/CapSense_Processing.c ****         CapSense_DpUpdateDifferences(ptrRamWdgt, ptrSns);
 792:Generated_Source\PSoC4/CapSense_Processing.c **** 
 793:Generated_Source\PSoC4/CapSense_Processing.c ****         /* Move to next sensor object */
 794:Generated_Source\PSoC4/CapSense_Processing.c ****         ptrSns++;
 795:Generated_Source\PSoC4/CapSense_Processing.c **** 
 796:Generated_Source\PSoC4/CapSense_Processing.c ****         #if (0u != DP_FW_FILTER_EN)
 797:Generated_Source\PSoC4/CapSense_Processing.c ****             /* Move to the next filter history object */
 798:Generated_Source\PSoC4/CapSense_Processing.c ****             CapSense_INC_FLTR_OBJ_VARIANT(isProxWdgt, fltrHistV);
 799:Generated_Source\PSoC4/CapSense_Processing.c ****         #endif /* #if (0u != DP_FW_FILTER_EN) */
 800:Generated_Source\PSoC4/CapSense_Processing.c ****     }
 801:Generated_Source\PSoC4/CapSense_Processing.c ****     return result;
 802:Generated_Source\PSoC4/CapSense_Processing.c **** }
 803:Generated_Source\PSoC4/CapSense_Processing.c **** 
 804:Generated_Source\PSoC4/CapSense_Processing.c **** 
 805:Generated_Source\PSoC4/CapSense_Processing.c **** /*******************************************************************************
 806:Generated_Source\PSoC4/CapSense_Processing.c **** * Function Name: CapSense_DpProcessCsdSensorRawCountsExt
 807:Generated_Source\PSoC4/CapSense_Processing.c **** ****************************************************************************//**
 808:Generated_Source\PSoC4/CapSense_Processing.c **** *
 809:Generated_Source\PSoC4/CapSense_Processing.c **** * \brief
 810:Generated_Source\PSoC4/CapSense_Processing.c **** *   Performs customized processing of the CSD sensor raw counts.
 811:Generated_Source\PSoC4/CapSense_Processing.c **** *
 812:Generated_Source\PSoC4/CapSense_Processing.c **** * \details
 813:Generated_Source\PSoC4/CapSense_Processing.c **** *   Performs customized processing of the CSD sensor raw counts.
 814:Generated_Source\PSoC4/CapSense_Processing.c **** *
 815:Generated_Source\PSoC4/CapSense_Processing.c **** *   Note that this API updates data associated only with the sensor. It cannot be used to update
 816:Generated_Source\PSoC4/CapSense_Processing.c **** *   widget status.
 817:Generated_Source\PSoC4/CapSense_Processing.c **** *
 818:Generated_Source\PSoC4/CapSense_Processing.c **** * \param ptrFlashWdgt The pointer to the Flash widget structure.
 819:Generated_Source\PSoC4/CapSense_Processing.c **** * \param ptrSns       The pointer to the sensor object in RAM.
 820:Generated_Source\PSoC4/CapSense_Processing.c **** * \param fltrHistV    The pointer to the Filter History Object in RAM.
 821:Generated_Source\PSoC4/CapSense_Processing.c **** * \param mode         The bit-mask with the data processing tasks to be executed.
 822:Generated_Source\PSoC4/CapSense_Processing.c **** *   The mode parameters can take the following values:
 823:Generated_Source\PSoC4/CapSense_Processing.c **** *    - CapSense_PROCESS_FILTER     (0x01) Run Firmware Filter
 824:Generated_Source\PSoC4/CapSense_Processing.c **** *    - CapSense_PROCESS_BASELINE   (0x02) Update Baselines
 825:Generated_Source\PSoC4/CapSense_Processing.c **** *    - CapSense_PROCESS_DIFFCOUNTS (0x04) Update Difference Counts
 826:Generated_Source\PSoC4/CapSense_Processing.c **** *    - CapSense_PROCESS_CALC_NOISE (0x08) Calculate Noise (only if FW Tuning is enabled)
 827:Generated_Source\PSoC4/CapSense_Processing.c **** *    - CapSense_PROCESS_THRESHOLDS (0x10) Update Thresholds (only if FW Tuning is enabled)
 828:Generated_Source\PSoC4/CapSense_Processing.c **** *    - CapSense_PROCESS_ALL               Execute all tasks
 829:Generated_Source\PSoC4/CapSense_Processing.c **** *
 830:Generated_Source\PSoC4/CapSense_Processing.c **** * \return   
 831:Generated_Source\PSoC4/CapSense_Processing.c **** *  Returns the status of the specified sensor processing operation:
 832:Generated_Source\PSoC4/CapSense_Processing.c **** *  - CYRET_SUCCESS if operation was successfully completed;
 833:Generated_Source\PSoC4/CapSense_Processing.c **** *  - CapSense_PROCESS_BASELINE_FAILED if baseline processing of any 
 834:Generated_Source\PSoC4/CapSense_Processing.c **** *    sensor of the specified widget failed. The result is concatenated with the index
 835:Generated_Source\PSoC4/CapSense_Processing.c **** *    of failed sensor.
 836:Generated_Source\PSoC4/CapSense_Processing.c **** *
 837:Generated_Source\PSoC4/CapSense_Processing.c **** *******************************************************************************/
 838:Generated_Source\PSoC4/CapSense_Processing.c **** uint32 CapSense_DpProcessCsdSensorRawCountsExt(
 839:Generated_Source\PSoC4/CapSense_Processing.c ****                 CapSense_FLASH_WD_STRUCT const *ptrFlashWdgt,
 840:Generated_Source\PSoC4/CapSense_Processing.c ****                 CapSense_RAM_SNS_STRUCT *ptrSns,
 841:Generated_Source\PSoC4/CapSense_Processing.c ****                 CapSense_PTR_FILTER_VARIANT fltrHistV,
 842:Generated_Source\PSoC4/CapSense_Processing.c ****                  uint32 mode)
 843:Generated_Source\PSoC4/CapSense_Processing.c **** {
 844:Generated_Source\PSoC4/CapSense_Processing.c ****     uint32 result = CYRET_SUCCESS;
 845:Generated_Source\PSoC4/CapSense_Processing.c ****     uint32  widgetType;
 846:Generated_Source\PSoC4/CapSense_Processing.c ****     CapSense_RAM_WD_BASE_STRUCT *ptrRamWdgt;
ARM GAS  C:\Users\MM1005~1\AppData\Local\Temp\ccDYJIra.s 			page 19


 847:Generated_Source\PSoC4/CapSense_Processing.c **** 
 848:Generated_Source\PSoC4/CapSense_Processing.c ****     #if (0u != (CapSense_CSD_AUTOTUNE & CapSense_CSD_SS_TH_EN))
 849:Generated_Source\PSoC4/CapSense_Processing.c ****         SMARTSENSE_CSD_NOISE_ENVELOPE_STRUCT *ptrNoiseEnvelope;
 850:Generated_Source\PSoC4/CapSense_Processing.c ****         #if (CapSense_ENABLE == CapSense_PROXIMITY_WIDGET_EN)
 851:Generated_Source\PSoC4/CapSense_Processing.c ****             uint32  proximityThreshold;
 852:Generated_Source\PSoC4/CapSense_Processing.c ****         #endif /* (0 != CapSense_PROXIMITY_WIDGET_EN) */
 853:Generated_Source\PSoC4/CapSense_Processing.c **** 
 854:Generated_Source\PSoC4/CapSense_Processing.c ****         /* Need to specify pointer to corresponding sensor's noise-envelope object.*/
 855:Generated_Source\PSoC4/CapSense_Processing.c ****         ptrNoiseEnvelope = ptrFlashWdgt->ptr2NoiseEnvlp;
 856:Generated_Source\PSoC4/CapSense_Processing.c ****     #endif /* (0u != (CapSense_CSD_AUTOTUNE & CapSense_CSD_SS_TH_EN)) */
 857:Generated_Source\PSoC4/CapSense_Processing.c **** 
 858:Generated_Source\PSoC4/CapSense_Processing.c ****     widgetType = ptrFlashWdgt->wdgtType;
 859:Generated_Source\PSoC4/CapSense_Processing.c ****     ptrRamWdgt = ptrFlashWdgt->ptr2WdgtRam;
 860:Generated_Source\PSoC4/CapSense_Processing.c **** 
 861:Generated_Source\PSoC4/CapSense_Processing.c ****     #if (0u != DP_FW_FILTER_EN)
 862:Generated_Source\PSoC4/CapSense_Processing.c ****         if (0u != (mode & CapSense_PROCESS_FILTER))
 863:Generated_Source\PSoC4/CapSense_Processing.c ****         {
 864:Generated_Source\PSoC4/CapSense_Processing.c ****             CapSense_FtRunEnabledFiltersInternal(fltrHistV, ptrSns, widgetType);
 865:Generated_Source\PSoC4/CapSense_Processing.c ****         }
 866:Generated_Source\PSoC4/CapSense_Processing.c ****     #else
 867:Generated_Source\PSoC4/CapSense_Processing.c ****         (void)fltrHistV; /* This parameter is unused in such configurations */
 868:Generated_Source\PSoC4/CapSense_Processing.c ****     #endif /* #if (0u != DP_FW_FILTER_EN) */
 869:Generated_Source\PSoC4/CapSense_Processing.c **** 
 870:Generated_Source\PSoC4/CapSense_Processing.c ****     #if (0u != (CapSense_CSD_AUTOTUNE & CapSense_CSD_SS_TH_EN))
 871:Generated_Source\PSoC4/CapSense_Processing.c ****         if (0u != (mode & CapSense_PROCESS_CALC_NOISE))
 872:Generated_Source\PSoC4/CapSense_Processing.c ****         {
 873:Generated_Source\PSoC4/CapSense_Processing.c ****             SmartSense_RunNoiseEnvelope(ptrSns->raw[0u], ptrRamWdgt->sigPFC, ptrNoiseEnvelope);
 874:Generated_Source\PSoC4/CapSense_Processing.c ****         }
 875:Generated_Source\PSoC4/CapSense_Processing.c **** 
 876:Generated_Source\PSoC4/CapSense_Processing.c ****         if (0u != (mode & CapSense_PROCESS_THRESHOLDS))
 877:Generated_Source\PSoC4/CapSense_Processing.c ****         {            
 878:Generated_Source\PSoC4/CapSense_Processing.c ****             CapSense_DpUpdateThresholds(ptrRamWdgt, ptrNoiseEnvelope, 0u);
 879:Generated_Source\PSoC4/CapSense_Processing.c ****             
 880:Generated_Source\PSoC4/CapSense_Processing.c ****             /* Calculate Proximity Touch Threshold in SmartSense mode based on Finger Threshold and
 881:Generated_Source\PSoC4/CapSense_Processing.c ****             #if (CapSense_ENABLE == CapSense_PROXIMITY_WIDGET_EN)
 882:Generated_Source\PSoC4/CapSense_Processing.c ****                 if (CapSense_WD_PROXIMITY_E == CapSense_GET_WIDGET_TYPE(ptrFlashWdgt))
 883:Generated_Source\PSoC4/CapSense_Processing.c ****                 {
 884:Generated_Source\PSoC4/CapSense_Processing.c ****                     proximityThreshold = ((uint32)ptrRamWdgt->fingerTh * CapSense_PROX_TOUCH_COEFF)
 885:Generated_Source\PSoC4/CapSense_Processing.c ****                     if ((((1Lu) << CapSense_THRESHOLD_SIZE) - 1u) < proximityThreshold)
 886:Generated_Source\PSoC4/CapSense_Processing.c ****                     {
 887:Generated_Source\PSoC4/CapSense_Processing.c ****                         proximityThreshold = ((1Lu) << CapSense_THRESHOLD_SIZE) - 1u;
 888:Generated_Source\PSoC4/CapSense_Processing.c ****                     }
 889:Generated_Source\PSoC4/CapSense_Processing.c ****                     ((CapSense_RAM_WD_PROXIMITY_STRUCT *)ptrFlashWdgt->ptr2WdgtRam)->proxTouchTh = 
 890:Generated_Source\PSoC4/CapSense_Processing.c ****                         (CapSense_THRESHOLD_TYPE)proximityThreshold;
 891:Generated_Source\PSoC4/CapSense_Processing.c ****                 }
 892:Generated_Source\PSoC4/CapSense_Processing.c ****             #endif /* (0 != CapSense_PROXIMITY_WIDGET_EN) */
 893:Generated_Source\PSoC4/CapSense_Processing.c ****         }
 894:Generated_Source\PSoC4/CapSense_Processing.c ****     #endif /* #if (0u != (CapSense_CSD_AUTOTUNE & CapSense_CSD_SS_TH_EN)) */
 895:Generated_Source\PSoC4/CapSense_Processing.c **** 
 896:Generated_Source\PSoC4/CapSense_Processing.c ****     if (0u != (mode & CapSense_PROCESS_BASELINE))
 897:Generated_Source\PSoC4/CapSense_Processing.c ****     {
 898:Generated_Source\PSoC4/CapSense_Processing.c ****         result = CapSense_FtUpdateBaseline(ptrRamWdgt, ptrSns, widgetType);
 899:Generated_Source\PSoC4/CapSense_Processing.c ****     }
 900:Generated_Source\PSoC4/CapSense_Processing.c **** 
 901:Generated_Source\PSoC4/CapSense_Processing.c ****     if (0u != (mode & CapSense_PROCESS_DIFFCOUNTS))
 902:Generated_Source\PSoC4/CapSense_Processing.c ****     {
 903:Generated_Source\PSoC4/CapSense_Processing.c ****         CapSense_DpUpdateDifferences(ptrRamWdgt, ptrSns);
ARM GAS  C:\Users\MM1005~1\AppData\Local\Temp\ccDYJIra.s 			page 20


 904:Generated_Source\PSoC4/CapSense_Processing.c ****     }
 905:Generated_Source\PSoC4/CapSense_Processing.c ****     return result;
 906:Generated_Source\PSoC4/CapSense_Processing.c **** }
 907:Generated_Source\PSoC4/CapSense_Processing.c **** 
 908:Generated_Source\PSoC4/CapSense_Processing.c **** /*******************************************************************************
 909:Generated_Source\PSoC4/CapSense_Processing.c **** * Function Name: CapSense_DpProcessCsdWidgetStatus
 910:Generated_Source\PSoC4/CapSense_Processing.c **** ****************************************************************************//**
 911:Generated_Source\PSoC4/CapSense_Processing.c **** *
 912:Generated_Source\PSoC4/CapSense_Processing.c **** * \brief
 913:Generated_Source\PSoC4/CapSense_Processing.c **** *  Runs the status processing of the CSD widget and updates it in the Data Structure.
 914:Generated_Source\PSoC4/CapSense_Processing.c **** *
 915:Generated_Source\PSoC4/CapSense_Processing.c **** * \details
 916:Generated_Source\PSoC4/CapSense_Processing.c **** *  This API determines the widget type and calls the appropriate low-level processing
 917:Generated_Source\PSoC4/CapSense_Processing.c **** *  function. Based on the returned results it updates the widget and sensor
 918:Generated_Source\PSoC4/CapSense_Processing.c **** *  status in the data structure. Any widget specific registers like the centroid
 919:Generated_Source\PSoC4/CapSense_Processing.c **** *  position are updated directly in the low-level processing function.
 920:Generated_Source\PSoC4/CapSense_Processing.c **** *
 921:Generated_Source\PSoC4/CapSense_Processing.c **** *  When the widget-specific processing completes this API updates the snsStatus
 922:Generated_Source\PSoC4/CapSense_Processing.c **** *  and wdgtStatus registers in the data structure. The wdgtStatus register
 923:Generated_Source\PSoC4/CapSense_Processing.c **** *  is a bitmask were each bit corresponds to the specific widget identified by
 924:Generated_Source\PSoC4/CapSense_Processing.c **** *  the widget index. When the bit is set the widget is active (touched);
 925:Generated_Source\PSoC4/CapSense_Processing.c **** *
 926:Generated_Source\PSoC4/CapSense_Processing.c **** *  The snsStatus register for CSD widgets contains status of each widget sensor
 927:Generated_Source\PSoC4/CapSense_Processing.c **** *  (active/non-active). Each bit corresponds to one sensor. In case of the
 928:Generated_Source\PSoC4/CapSense_Processing.c **** *  Proximity widget two bits are used per sensor: one for proximity status and
 929:Generated_Source\PSoC4/CapSense_Processing.c **** *  second for the touch status.
 930:Generated_Source\PSoC4/CapSense_Processing.c **** *
 931:Generated_Source\PSoC4/CapSense_Processing.c **** * \param wdgtId        The widget index number.
 932:Generated_Source\PSoC4/CapSense_Processing.c **** * \param ptrFlashWdgt  The pointer to the Flash widget structure.
 933:Generated_Source\PSoC4/CapSense_Processing.c **** *
 934:Generated_Source\PSoC4/CapSense_Processing.c **** *******************************************************************************/
 935:Generated_Source\PSoC4/CapSense_Processing.c **** void CapSense_DpProcessCsdWidgetStatus(uint32 wdgtId, CapSense_FLASH_WD_STRUCT const *ptrFlashWdgt)
 936:Generated_Source\PSoC4/CapSense_Processing.c **** {
 937:Generated_Source\PSoC4/CapSense_Processing.c ****     uint32 sensorStatus;
 938:Generated_Source\PSoC4/CapSense_Processing.c ****     uint32 wdStatusIndex;
 939:Generated_Source\PSoC4/CapSense_Processing.c ****     uint32 wdStatusMask;
 940:Generated_Source\PSoC4/CapSense_Processing.c ****     CapSense_WD_TYPE_ENUM widgetType;
 941:Generated_Source\PSoC4/CapSense_Processing.c **** 
 942:Generated_Source\PSoC4/CapSense_Processing.c ****     widgetType = (CapSense_WD_TYPE_ENUM)ptrFlashWdgt->wdgtType;
 943:Generated_Source\PSoC4/CapSense_Processing.c ****     sensorStatus = CapSense_dsRam.snsStatus[wdgtId];
 944:Generated_Source\PSoC4/CapSense_Processing.c **** 
 945:Generated_Source\PSoC4/CapSense_Processing.c ****     switch (widgetType)
 946:Generated_Source\PSoC4/CapSense_Processing.c ****     {
 947:Generated_Source\PSoC4/CapSense_Processing.c ****     #if (0u != CapSense_BUTTON_WIDGET_EN)
 948:Generated_Source\PSoC4/CapSense_Processing.c ****         case CapSense_WD_BUTTON_E:
 949:Generated_Source\PSoC4/CapSense_Processing.c ****             sensorStatus = CapSense_DpProcessButton(sensorStatus, ptrFlashWdgt);
 950:Generated_Source\PSoC4/CapSense_Processing.c ****             break;
 951:Generated_Source\PSoC4/CapSense_Processing.c ****     #endif /* #if (0u != CapSense_BUTTON_WIDGET_EN) */
 952:Generated_Source\PSoC4/CapSense_Processing.c **** 
 953:Generated_Source\PSoC4/CapSense_Processing.c ****     #if (0u != CapSense_SLIDER_WIDGET_EN)
 954:Generated_Source\PSoC4/CapSense_Processing.c ****         case CapSense_WD_LINEAR_SLIDER_E:
 955:Generated_Source\PSoC4/CapSense_Processing.c ****         case CapSense_WD_RADIAL_SLIDER_E:
 956:Generated_Source\PSoC4/CapSense_Processing.c ****             sensorStatus = CapSense_DpProcessSlider(sensorStatus, ptrFlashWdgt);
 957:Generated_Source\PSoC4/CapSense_Processing.c ****             break;
 958:Generated_Source\PSoC4/CapSense_Processing.c ****     #endif /* #if (0u != CapSense_SLIDER_WIDGET_EN) */
 959:Generated_Source\PSoC4/CapSense_Processing.c **** 
 960:Generated_Source\PSoC4/CapSense_Processing.c ****     #if (0u != CapSense_CSD_MATRIX_WIDGET_EN)
ARM GAS  C:\Users\MM1005~1\AppData\Local\Temp\ccDYJIra.s 			page 21


 961:Generated_Source\PSoC4/CapSense_Processing.c ****         case CapSense_WD_MATRIX_BUTTON_E:
 962:Generated_Source\PSoC4/CapSense_Processing.c ****             sensorStatus = CapSense_DpProcessCsdMatrix(sensorStatus, ptrFlashWdgt);
 963:Generated_Source\PSoC4/CapSense_Processing.c ****             break;
 964:Generated_Source\PSoC4/CapSense_Processing.c ****     #endif /* #if (0u != CapSense_CSD_MATRIX_WIDGET_EN) */
 965:Generated_Source\PSoC4/CapSense_Processing.c **** 
 966:Generated_Source\PSoC4/CapSense_Processing.c ****     #if (0u != CapSense_CSD_TOUCHPAD_WIDGET_EN)
 967:Generated_Source\PSoC4/CapSense_Processing.c ****         case CapSense_WD_TOUCHPAD_E:
 968:Generated_Source\PSoC4/CapSense_Processing.c ****             sensorStatus = CapSense_DpProcessCsdTouchpad(sensorStatus, ptrFlashWdgt);
 969:Generated_Source\PSoC4/CapSense_Processing.c ****             break;
 970:Generated_Source\PSoC4/CapSense_Processing.c ****     #endif /* #if (0u != CapSense_CSD_TOUCHPAD_WIDGET_EN) */
 971:Generated_Source\PSoC4/CapSense_Processing.c **** 
 972:Generated_Source\PSoC4/CapSense_Processing.c ****     #if (0u != CapSense_PROXIMITY_WIDGET_EN)
 973:Generated_Source\PSoC4/CapSense_Processing.c ****         case CapSense_WD_PROXIMITY_E:
 974:Generated_Source\PSoC4/CapSense_Processing.c ****             sensorStatus = CapSense_DpProcessProximity(sensorStatus, ptrFlashWdgt);
 975:Generated_Source\PSoC4/CapSense_Processing.c ****             break;
 976:Generated_Source\PSoC4/CapSense_Processing.c ****     #endif /* #if (0u != CapSense_PROXIMITY_WIDGET_EN) */
 977:Generated_Source\PSoC4/CapSense_Processing.c **** 
 978:Generated_Source\PSoC4/CapSense_Processing.c ****     default:
 979:Generated_Source\PSoC4/CapSense_Processing.c ****         CYASSERT(0u);
 980:Generated_Source\PSoC4/CapSense_Processing.c ****         break;
 981:Generated_Source\PSoC4/CapSense_Processing.c ****     }
 982:Generated_Source\PSoC4/CapSense_Processing.c **** 
 983:Generated_Source\PSoC4/CapSense_Processing.c ****     CapSense_dsRam.snsStatus[wdgtId] = (CapSense_SNS_STS_TYPE)sensorStatus;
 984:Generated_Source\PSoC4/CapSense_Processing.c **** 
 985:Generated_Source\PSoC4/CapSense_Processing.c ****     /* The next two lines calculate index and bitmask of the widget status bit in the wdgtStatus ar
 986:Generated_Source\PSoC4/CapSense_Processing.c ****     wdStatusIndex = CapSense_GET_WDGT_STATUS_INDEX(wdgtId);
 987:Generated_Source\PSoC4/CapSense_Processing.c ****     wdStatusMask = CapSense_GET_WDGT_STATUS_MASK(wdgtId);
 988:Generated_Source\PSoC4/CapSense_Processing.c **** 
 989:Generated_Source\PSoC4/CapSense_Processing.c ****     /* Check if there are active sensors and update widget status accordingly */
 990:Generated_Source\PSoC4/CapSense_Processing.c ****     if (0u == sensorStatus)
 991:Generated_Source\PSoC4/CapSense_Processing.c ****     {
 992:Generated_Source\PSoC4/CapSense_Processing.c ****         CapSense_dsRam.wdgtStatus[wdStatusIndex] &= ~wdStatusMask;
 993:Generated_Source\PSoC4/CapSense_Processing.c ****     }
 994:Generated_Source\PSoC4/CapSense_Processing.c ****     else
 995:Generated_Source\PSoC4/CapSense_Processing.c ****     {
 996:Generated_Source\PSoC4/CapSense_Processing.c ****         CapSense_dsRam.wdgtStatus[wdStatusIndex] |= wdStatusMask;
 997:Generated_Source\PSoC4/CapSense_Processing.c ****     }
 998:Generated_Source\PSoC4/CapSense_Processing.c **** }
 999:Generated_Source\PSoC4/CapSense_Processing.c **** #endif /* #if (0u != CapSense_TOTAL_CSD_WIDGETS) */
1000:Generated_Source\PSoC4/CapSense_Processing.c **** 
1001:Generated_Source\PSoC4/CapSense_Processing.c **** 
1002:Generated_Source\PSoC4/CapSense_Processing.c **** #if (0 != (CapSense_CSD_AUTOTUNE & CapSense_CSD_SS_TH_EN))
1003:Generated_Source\PSoC4/CapSense_Processing.c **** /*******************************************************************************
1004:Generated_Source\PSoC4/CapSense_Processing.c **** * Function Name: CapSense_DpUpdateThresholds
1005:Generated_Source\PSoC4/CapSense_Processing.c **** ****************************************************************************//**
1006:Generated_Source\PSoC4/CapSense_Processing.c **** *
1007:Generated_Source\PSoC4/CapSense_Processing.c **** * \brief
1008:Generated_Source\PSoC4/CapSense_Processing.c **** *   Updates noise and finger thresholds for a specified widget.
1009:Generated_Source\PSoC4/CapSense_Processing.c **** *
1010:Generated_Source\PSoC4/CapSense_Processing.c **** * \details
1011:Generated_Source\PSoC4/CapSense_Processing.c **** *   Updates noise and finger thresholds for a specified widget.
1012:Generated_Source\PSoC4/CapSense_Processing.c **** *   This algorithm is a part of Auto-tuning feature.
1013:Generated_Source\PSoC4/CapSense_Processing.c **** *
1014:Generated_Source\PSoC4/CapSense_Processing.c **** * \param ptrRamWdgt       The pointer to the RAM widget object.
1015:Generated_Source\PSoC4/CapSense_Processing.c **** * \param ptrNoiseEnvelope The pointer to the noise-envelope object in RAM.
1016:Generated_Source\PSoC4/CapSense_Processing.c **** * \param startFlag        The flag indicates when new widget is processed.
1017:Generated_Source\PSoC4/CapSense_Processing.c **** *
ARM GAS  C:\Users\MM1005~1\AppData\Local\Temp\ccDYJIra.s 			page 22


1018:Generated_Source\PSoC4/CapSense_Processing.c **** *******************************************************************************/
1019:Generated_Source\PSoC4/CapSense_Processing.c **** void CapSense_DpUpdateThresholds(CapSense_RAM_WD_BASE_STRUCT *ptrRamWdgt,
1020:Generated_Source\PSoC4/CapSense_Processing.c ****                                          SMARTSENSE_CSD_NOISE_ENVELOPE_STRUCT *ptrNoiseEnvelope,
1021:Generated_Source\PSoC4/CapSense_Processing.c ****                                          uint32 startFlag)
1022:Generated_Source\PSoC4/CapSense_Processing.c **** {
 172              		.loc 1 1022 0
 173              		.cfi_startproc
 174              	.LVL21:
 175 0000 10B5     		push	{r4, lr}
 176              		.cfi_def_cfa_offset 8
 177              		.cfi_offset 4, -8
 178              		.cfi_offset 14, -4
 179 0002 82B0     		sub	sp, sp, #8
 180              		.cfi_def_cfa_offset 16
 181 0004 041C     		mov	r4, r0
 182 0006 131C     		mov	r3, r2
 183              	.LVL22:
1023:Generated_Source\PSoC4/CapSense_Processing.c ****     SMARTSENSE_UPDATE_THRESHOLDS_STRUCT thresholds;    
1024:Generated_Source\PSoC4/CapSense_Processing.c ****     SMARTSENSE_UPDATE_THRESHOLDS_STRUCT *ptrThresholds = &thresholds;
1025:Generated_Source\PSoC4/CapSense_Processing.c ****     ptrThresholds->fingerTh = ptrRamWdgt->fingerTh;
 184              		.loc 1 1025 0
 185 0008 4288     		ldrh	r2, [r0, #2]
 186              	.LVL23:
 187 000a 6846     		mov	r0, sp
 188              	.LVL24:
 189 000c 0280     		strh	r2, [r0]
1026:Generated_Source\PSoC4/CapSense_Processing.c **** 
1027:Generated_Source\PSoC4/CapSense_Processing.c ****     SmartSense_UpdateThresholds(ptrNoiseEnvelope, ptrThresholds, ptrRamWdgt->sigPFC, startFlag);
 190              		.loc 1 1027 0
 191 000e 228A     		ldrh	r2, [r4, #16]
 192 0010 081C     		mov	r0, r1
 193 0012 6946     		mov	r1, sp
 194              	.LVL25:
 195 0014 FFF7FEFF 		bl	SmartSense_UpdateThresholds
 196              	.LVL26:
1028:Generated_Source\PSoC4/CapSense_Processing.c **** 
1029:Generated_Source\PSoC4/CapSense_Processing.c ****     ptrRamWdgt->fingerTh = ptrThresholds->fingerTh;
 197              		.loc 1 1029 0
 198 0018 6B46     		mov	r3, sp
 199 001a 1B88     		ldrh	r3, [r3]
 200 001c 6380     		strh	r3, [r4, #2]
1030:Generated_Source\PSoC4/CapSense_Processing.c ****     ptrRamWdgt->noiseTh = ptrThresholds->noiseTh;
 201              		.loc 1 1030 0
 202 001e 6B46     		mov	r3, sp
 203 0020 9B78     		ldrb	r3, [r3, #2]
 204 0022 2371     		strb	r3, [r4, #4]
1031:Generated_Source\PSoC4/CapSense_Processing.c ****     ptrRamWdgt->nNoiseTh = ptrThresholds->nNoiseTh;
 205              		.loc 1 1031 0
 206 0024 6B46     		mov	r3, sp
 207 0026 DB78     		ldrb	r3, [r3, #3]
 208 0028 6371     		strb	r3, [r4, #5]
1032:Generated_Source\PSoC4/CapSense_Processing.c ****     ptrRamWdgt->hysteresis = ptrThresholds->hysteresis;    
 209              		.loc 1 1032 0
 210 002a 6B46     		mov	r3, sp
 211 002c 1B79     		ldrb	r3, [r3, #4]
 212 002e A371     		strb	r3, [r4, #6]
1033:Generated_Source\PSoC4/CapSense_Processing.c **** }
ARM GAS  C:\Users\MM1005~1\AppData\Local\Temp\ccDYJIra.s 			page 23


 213              		.loc 1 1033 0
 214 0030 02B0     		add	sp, sp, #8
 215              	.LVL27:
 216              		@ sp needed
 217              	.LVL28:
 218 0032 10BD     		pop	{r4, pc}
 219              		.cfi_endproc
 220              	.LFE9:
 221              		.size	CapSense_DpUpdateThresholds, .-CapSense_DpUpdateThresholds
 222              		.section	.text.CapSense_DpUpdateDifferences,"ax",%progbits
 223              		.align	2
 224              		.global	CapSense_DpUpdateDifferences
 225              		.code	16
 226              		.thumb_func
 227              		.type	CapSense_DpUpdateDifferences, %function
 228              	CapSense_DpUpdateDifferences:
 229              	.LFB10:
1034:Generated_Source\PSoC4/CapSense_Processing.c **** #endif /* #if (0u != (CapSense_CSD_AUTOTUNE & CapSense_CSD_SS_TH_EN)) */
1035:Generated_Source\PSoC4/CapSense_Processing.c **** 
1036:Generated_Source\PSoC4/CapSense_Processing.c **** 
1037:Generated_Source\PSoC4/CapSense_Processing.c **** /*******************************************************************************
1038:Generated_Source\PSoC4/CapSense_Processing.c **** * Function Name: CapSense_DpUpdateDifferences
1039:Generated_Source\PSoC4/CapSense_Processing.c **** ****************************************************************************//**
1040:Generated_Source\PSoC4/CapSense_Processing.c **** *
1041:Generated_Source\PSoC4/CapSense_Processing.c **** * \brief
1042:Generated_Source\PSoC4/CapSense_Processing.c **** *   Calculates new difference values.
1043:Generated_Source\PSoC4/CapSense_Processing.c **** *   Also, executes the frequency hopping algorithm if it is enabled.
1044:Generated_Source\PSoC4/CapSense_Processing.c **** *
1045:Generated_Source\PSoC4/CapSense_Processing.c **** * \details
1046:Generated_Source\PSoC4/CapSense_Processing.c **** *   This API calculates the difference between the baseline and raw counts.
1047:Generated_Source\PSoC4/CapSense_Processing.c **** *   If the difference is positive (raw > baseline), and higher than the widget
1048:Generated_Source\PSoC4/CapSense_Processing.c **** *   noise threshold, it is saved into the data structure for further processing.
1049:Generated_Source\PSoC4/CapSense_Processing.c **** *   Otherwise the difference is set to zero. The final difference value is saved
1050:Generated_Source\PSoC4/CapSense_Processing.c **** *   with the subtracted noise threshold value.
1051:Generated_Source\PSoC4/CapSense_Processing.c **** *
1052:Generated_Source\PSoC4/CapSense_Processing.c **** *   If the frequency hopping algorithm is enabled, the difference is calculated
1053:Generated_Source\PSoC4/CapSense_Processing.c **** *   for the three sets of data available for each sensor. Then
1054:Generated_Source\PSoC4/CapSense_Processing.c **** *   the median filter selects the final difference value.
1055:Generated_Source\PSoC4/CapSense_Processing.c **** *
1056:Generated_Source\PSoC4/CapSense_Processing.c **** * \param ptrRamWdgt The pointer to the RAR Widget Object.
1057:Generated_Source\PSoC4/CapSense_Processing.c **** * \param ptrSns     The pointer to the sensor object in RAM.
1058:Generated_Source\PSoC4/CapSense_Processing.c **** *
1059:Generated_Source\PSoC4/CapSense_Processing.c **** *******************************************************************************/
1060:Generated_Source\PSoC4/CapSense_Processing.c **** void CapSense_DpUpdateDifferences(
1061:Generated_Source\PSoC4/CapSense_Processing.c ****                         CapSense_RAM_WD_BASE_STRUCT *ptrRamWdgt,
1062:Generated_Source\PSoC4/CapSense_Processing.c ****                         CapSense_RAM_SNS_STRUCT *ptrSns)
1063:Generated_Source\PSoC4/CapSense_Processing.c **** {
 230              		.loc 1 1063 0
 231              		.cfi_startproc
 232              	.LVL29:
1064:Generated_Source\PSoC4/CapSense_Processing.c ****     register int32 diffValue = 0;
1065:Generated_Source\PSoC4/CapSense_Processing.c **** 
1066:Generated_Source\PSoC4/CapSense_Processing.c ****     #if (0u != CapSense_MULTI_FREQ_SCAN_EN)
1067:Generated_Source\PSoC4/CapSense_Processing.c ****         register int32 diffValue_0 = 0;
1068:Generated_Source\PSoC4/CapSense_Processing.c ****         register int32 diffValue_2 = 0;
1069:Generated_Source\PSoC4/CapSense_Processing.c ****     #endif /* #if (0u != CapSense_MULTI_FREQ_SCAN_EN) */
1070:Generated_Source\PSoC4/CapSense_Processing.c **** 
ARM GAS  C:\Users\MM1005~1\AppData\Local\Temp\ccDYJIra.s 			page 24


1071:Generated_Source\PSoC4/CapSense_Processing.c ****     /* Calculate difference */
1072:Generated_Source\PSoC4/CapSense_Processing.c ****     diffValue = (int32)ptrSns->raw[0u] - (int32)ptrSns->bsln[0u];
 233              		.loc 1 1072 0
 234 0000 0B88     		ldrh	r3, [r1]
 235 0002 4A88     		ldrh	r2, [r1, #2]
 236 0004 9B1A     		sub	r3, r3, r2
 237              	.LVL30:
1073:Generated_Source\PSoC4/CapSense_Processing.c **** 
1074:Generated_Source\PSoC4/CapSense_Processing.c ****     #if (0u != CapSense_MULTI_FREQ_SCAN_EN)
1075:Generated_Source\PSoC4/CapSense_Processing.c ****         diffValue_0 = (int32)ptrSns->raw[1u] - (int32)ptrSns->bsln[1u];
1076:Generated_Source\PSoC4/CapSense_Processing.c ****         diffValue_2 = (int32)ptrSns->raw[2u] - (int32)ptrSns->bsln[2u];
1077:Generated_Source\PSoC4/CapSense_Processing.c **** 
1078:Generated_Source\PSoC4/CapSense_Processing.c ****         /* Find median and put it into [0u] element */
1079:Generated_Source\PSoC4/CapSense_Processing.c ****         if (diffValue_0 > diffValue)
1080:Generated_Source\PSoC4/CapSense_Processing.c ****         {
1081:Generated_Source\PSoC4/CapSense_Processing.c ****             register int32 swapv = diffValue_0;
1082:Generated_Source\PSoC4/CapSense_Processing.c ****             diffValue_0 = diffValue;
1083:Generated_Source\PSoC4/CapSense_Processing.c ****             diffValue = swapv;
1084:Generated_Source\PSoC4/CapSense_Processing.c ****         }
1085:Generated_Source\PSoC4/CapSense_Processing.c **** 
1086:Generated_Source\PSoC4/CapSense_Processing.c ****         if (diffValue > diffValue_2)
1087:Generated_Source\PSoC4/CapSense_Processing.c ****         {
1088:Generated_Source\PSoC4/CapSense_Processing.c ****             register int32 swapv = diffValue;
1089:Generated_Source\PSoC4/CapSense_Processing.c ****             diffValue = diffValue_2;
1090:Generated_Source\PSoC4/CapSense_Processing.c ****             diffValue_2 = swapv;
1091:Generated_Source\PSoC4/CapSense_Processing.c ****         }
1092:Generated_Source\PSoC4/CapSense_Processing.c **** 
1093:Generated_Source\PSoC4/CapSense_Processing.c ****         if (diffValue_0 > diffValue)
1094:Generated_Source\PSoC4/CapSense_Processing.c ****         {
1095:Generated_Source\PSoC4/CapSense_Processing.c ****             register int32 swapv = diffValue_0;
1096:Generated_Source\PSoC4/CapSense_Processing.c ****             diffValue_0 = diffValue;
1097:Generated_Source\PSoC4/CapSense_Processing.c ****             diffValue = swapv;
1098:Generated_Source\PSoC4/CapSense_Processing.c ****         }
1099:Generated_Source\PSoC4/CapSense_Processing.c ****     #endif /* #if (0u != CapSense_MULTI_FREQ_SCAN_EN) */
1100:Generated_Source\PSoC4/CapSense_Processing.c **** 
1101:Generated_Source\PSoC4/CapSense_Processing.c ****     ptrSns->diff = 0u;
 238              		.loc 1 1101 0
 239 0006 0022     		mov	r2, #0
 240 0008 CA80     		strh	r2, [r1, #6]
1102:Generated_Source\PSoC4/CapSense_Processing.c **** 
1103:Generated_Source\PSoC4/CapSense_Processing.c ****     if (diffValue > (int32)ptrRamWdgt->noiseTh)
 241              		.loc 1 1103 0
 242 000a 0279     		ldrb	r2, [r0, #4]
 243 000c 9A42     		cmp	r2, r3
 244 000e 00DA     		bge	.L16
1104:Generated_Source\PSoC4/CapSense_Processing.c ****     {
1105:Generated_Source\PSoC4/CapSense_Processing.c ****         ptrSns->diff = (CapSense_THRESHOLD_TYPE) diffValue;
 245              		.loc 1 1105 0
 246 0010 CB80     		strh	r3, [r1, #6]
 247              	.L16:
1106:Generated_Source\PSoC4/CapSense_Processing.c ****     }
1107:Generated_Source\PSoC4/CapSense_Processing.c **** }
 248              		.loc 1 1107 0
 249              		@ sp needed
 250 0012 7047     		bx	lr
 251              		.cfi_endproc
 252              	.LFE10:
ARM GAS  C:\Users\MM1005~1\AppData\Local\Temp\ccDYJIra.s 			page 25


 253              		.size	CapSense_DpUpdateDifferences, .-CapSense_DpUpdateDifferences
 254              		.section	.text.CapSense_DpProcessCsxWidgetRawCounts,"ax",%progbits
 255              		.align	2
 256              		.global	CapSense_DpProcessCsxWidgetRawCounts
 257              		.code	16
 258              		.thumb_func
 259              		.type	CapSense_DpProcessCsxWidgetRawCounts, %function
 260              	CapSense_DpProcessCsxWidgetRawCounts:
 261              	.LFB3:
 479:Generated_Source\PSoC4/CapSense_Processing.c ****     uint32 result = CYRET_SUCCESS;
 262              		.loc 1 479 0
 263              		.cfi_startproc
 264              	.LVL31:
 265 0000 F0B5     		push	{r4, r5, r6, r7, lr}
 266              		.cfi_def_cfa_offset 20
 267              		.cfi_offset 4, -20
 268              		.cfi_offset 5, -16
 269              		.cfi_offset 6, -12
 270              		.cfi_offset 7, -8
 271              		.cfi_offset 14, -4
 272 0002 83B0     		sub	sp, sp, #12
 273              		.cfi_def_cfa_offset 32
 274              	.LVL32:
 489:Generated_Source\PSoC4/CapSense_Processing.c ****     #endif /* #if (0u != DP_FW_FILTER_EN) */
 275              		.loc 1 489 0
 276 0004 C768     		ldr	r7, [r0, #12]
 277              	.LVL33:
 492:Generated_Source\PSoC4/CapSense_Processing.c ****     snsCount = ptrFlashWdgt->totalNumSns;
 278              		.loc 1 492 0
 279 0006 8468     		ldr	r4, [r0, #8]
 280              	.LVL34:
 493:Generated_Source\PSoC4/CapSense_Processing.c ****     ptrRamWdgt = ptrFlashWdgt->ptr2WdgtRam;
 281              		.loc 1 493 0
 282 0008 C38A     		ldrh	r3, [r0, #22]
 283              	.LVL35:
 494:Generated_Source\PSoC4/CapSense_Processing.c ****     widgetType = ptrFlashWdgt->wdgtType;
 284              		.loc 1 494 0
 285 000a 4668     		ldr	r6, [r0, #4]
 286              	.LVL36:
 495:Generated_Source\PSoC4/CapSense_Processing.c **** 
 287              		.loc 1 495 0
 288 000c 027E     		ldrb	r2, [r0, #24]
 289 000e 0092     		str	r2, [sp]
 290              	.LVL37:
 480:Generated_Source\PSoC4/CapSense_Processing.c ****     uint32 widgetType;
 291              		.loc 1 480 0
 292 0010 0022     		mov	r2, #0
 293              	.LVL38:
 294 0012 0192     		str	r2, [sp, #4]
 505:Generated_Source\PSoC4/CapSense_Processing.c ****     {
 295              		.loc 1 505 0
 296 0014 11E0     		b	.L19
 297              	.LVL39:
 298              	.L20:
 512:Generated_Source\PSoC4/CapSense_Processing.c ****             #endif /* #if (0u != DP_FW_FILTER_EN) */
 299              		.loc 1 512 0
 300 0016 381C     		mov	r0, r7
ARM GAS  C:\Users\MM1005~1\AppData\Local\Temp\ccDYJIra.s 			page 26


 301 0018 211C     		mov	r1, r4
 302 001a 009A     		ldr	r2, [sp]
 303 001c FFF7FEFF 		bl	CapSense_FtRunEnabledFiltersInternal
 304              	.LVL40:
 515:Generated_Source\PSoC4/CapSense_Processing.c ****             
 305              		.loc 1 515 0
 306 0020 301C     		mov	r0, r6
 307 0022 211C     		mov	r1, r4
 308 0024 009A     		ldr	r2, [sp]
 309 0026 FFF7FEFF 		bl	CapSense_FtUpdateBaseline
 310              	.LVL41:
 311 002a 0190     		str	r0, [sp, #4]
 312              	.LVL42:
 524:Generated_Source\PSoC4/CapSense_Processing.c ****         }
 313              		.loc 1 524 0
 314 002c 301C     		mov	r0, r6
 315              	.LVL43:
 316 002e 211C     		mov	r1, r4
 317 0030 FFF7FEFF 		bl	CapSense_DpUpdateDifferences
 318              	.LVL44:
 527:Generated_Source\PSoC4/CapSense_Processing.c ****             
 319              		.loc 1 527 0
 320 0034 0A34     		add	r4, r4, #10
 321              	.LVL45:
 530:Generated_Source\PSoC4/CapSense_Processing.c ****         #endif /* #if (0u != DP_FW_FILTER_EN) */
 322              		.loc 1 530 0
 323 0036 0237     		add	r7, r7, #2
 324              	.LVL46:
 505:Generated_Source\PSoC4/CapSense_Processing.c ****     {
 325              		.loc 1 505 0
 326 0038 2B1C     		mov	r3, r5
 327              	.LVL47:
 328              	.L19:
 329 003a 5D1E     		sub	r5, r3, #1
 330              	.LVL48:
 331 003c 002B     		cmp	r3, #0
 332 003e EAD1     		bne	.L20
 534:Generated_Source\PSoC4/CapSense_Processing.c **** 
 333              		.loc 1 534 0
 334 0040 0198     		ldr	r0, [sp, #4]
 335 0042 03B0     		add	sp, sp, #12
 336              	.LVL49:
 337              		@ sp needed
 338              	.LVL50:
 339              	.LVL51:
 340              	.LVL52:
 341 0044 F0BD     		pop	{r4, r5, r6, r7, pc}
 342              		.cfi_endproc
 343              	.LFE3:
 344              		.size	CapSense_DpProcessCsxWidgetRawCounts, .-CapSense_DpProcessCsxWidgetRawCounts
 345 0046 C046     		.section	.text.CapSense_DpProcessCsxSensorRawCountsExt,"ax",%progbits
 346              		.align	2
 347              		.global	CapSense_DpProcessCsxSensorRawCountsExt
 348              		.code	16
 349              		.thumb_func
 350              		.type	CapSense_DpProcessCsxSensorRawCountsExt, %function
 351              	CapSense_DpProcessCsxSensorRawCountsExt:
ARM GAS  C:\Users\MM1005~1\AppData\Local\Temp\ccDYJIra.s 			page 27


 352              	.LFB4:
 572:Generated_Source\PSoC4/CapSense_Processing.c ****     uint32  result = CYRET_SUCCESS;
 353              		.loc 1 572 0
 354              		.cfi_startproc
 355              	.LVL53:
 356 0000 F8B5     		push	{r3, r4, r5, r6, r7, lr}
 357              		.cfi_def_cfa_offset 24
 358              		.cfi_offset 3, -24
 359              		.cfi_offset 4, -20
 360              		.cfi_offset 5, -16
 361              		.cfi_offset 6, -12
 362              		.cfi_offset 7, -8
 363              		.cfi_offset 14, -4
 364 0002 0E1C     		mov	r6, r1
 365 0004 1C1C     		mov	r4, r3
 366              	.LVL54:
 577:Generated_Source\PSoC4/CapSense_Processing.c ****     ptrRamWdgt = ptrFlashWdgt->ptr2WdgtRam;
 367              		.loc 1 577 0
 368 0006 057E     		ldrb	r5, [r0, #24]
 369              	.LVL55:
 578:Generated_Source\PSoC4/CapSense_Processing.c ****     
 370              		.loc 1 578 0
 371 0008 4768     		ldr	r7, [r0, #4]
 372              	.LVL56:
 581:Generated_Source\PSoC4/CapSense_Processing.c ****         {
 373              		.loc 1 581 0
 374 000a E307     		lsl	r3, r4, #31
 375 000c 03D5     		bpl	.L22
 376              	.LVL57:
 583:Generated_Source\PSoC4/CapSense_Processing.c ****         }
 377              		.loc 1 583 0
 378 000e 101C     		mov	r0, r2
 379              	.LVL58:
 380 0010 2A1C     		mov	r2, r5
 381              	.LVL59:
 382 0012 FFF7FEFF 		bl	CapSense_FtRunEnabledFiltersInternal
 383              	.LVL60:
 384              	.L22:
 589:Generated_Source\PSoC4/CapSense_Processing.c ****     {
 385              		.loc 1 589 0
 386 0016 A307     		lsl	r3, r4, #30
 387 0018 06D5     		bpl	.L25
 591:Generated_Source\PSoC4/CapSense_Processing.c ****     }
 388              		.loc 1 591 0
 389 001a 381C     		mov	r0, r7
 390 001c 311C     		mov	r1, r6
 391 001e 2A1C     		mov	r2, r5
 392              	.LVL61:
 393 0020 FFF7FEFF 		bl	CapSense_FtUpdateBaseline
 394              	.LVL62:
 395 0024 051C     		mov	r5, r0
 396              	.LVL63:
 397 0026 00E0     		b	.L23
 398              	.LVL64:
 399              	.L25:
 573:Generated_Source\PSoC4/CapSense_Processing.c ****     uint32  widgetType;
 400              		.loc 1 573 0
ARM GAS  C:\Users\MM1005~1\AppData\Local\Temp\ccDYJIra.s 			page 28


 401 0028 0025     		mov	r5, #0
 402              	.LVL65:
 403              	.L23:
 594:Generated_Source\PSoC4/CapSense_Processing.c ****     {
 404              		.loc 1 594 0
 405 002a 6307     		lsl	r3, r4, #29
 406 002c 03D5     		bpl	.L24
 596:Generated_Source\PSoC4/CapSense_Processing.c ****     }
 407              		.loc 1 596 0
 408 002e 381C     		mov	r0, r7
 409 0030 311C     		mov	r1, r6
 410 0032 FFF7FEFF 		bl	CapSense_DpUpdateDifferences
 411              	.LVL66:
 412              	.L24:
 599:Generated_Source\PSoC4/CapSense_Processing.c **** 
 413              		.loc 1 599 0
 414 0036 281C     		mov	r0, r5
 415              		@ sp needed
 416              	.LVL67:
 417              	.LVL68:
 418              	.LVL69:
 419              	.LVL70:
 420 0038 F8BD     		pop	{r3, r4, r5, r6, r7, pc}
 421              		.cfi_endproc
 422              	.LFE4:
 423              		.size	CapSense_DpProcessCsxSensorRawCountsExt, .-CapSense_DpProcessCsxSensorRawCountsExt
 424 003a C046     		.section	.text.CapSense_DpProcessCsdWidgetRawCounts,"ax",%progbits
 425              		.align	2
 426              		.global	CapSense_DpProcessCsdWidgetRawCounts
 427              		.code	16
 428              		.thumb_func
 429              		.type	CapSense_DpProcessCsdWidgetRawCounts, %function
 430              	CapSense_DpProcessCsdWidgetRawCounts:
 431              	.LFB6:
 708:Generated_Source\PSoC4/CapSense_Processing.c ****     uint32  result = CYRET_SUCCESS;
 432              		.loc 1 708 0
 433              		.cfi_startproc
 434              	.LVL71:
 435 0000 F0B5     		push	{r4, r5, r6, r7, lr}
 436              		.cfi_def_cfa_offset 20
 437              		.cfi_offset 4, -20
 438              		.cfi_offset 5, -16
 439              		.cfi_offset 6, -12
 440              		.cfi_offset 7, -8
 441              		.cfi_offset 14, -4
 442 0002 5F46     		mov	r7, fp
 443 0004 5646     		mov	r6, r10
 444 0006 4D46     		mov	r5, r9
 445 0008 E0B4     		push	{r5, r6, r7}
 446              		.cfi_def_cfa_offset 32
 447              		.cfi_offset 9, -32
 448              		.cfi_offset 10, -28
 449              		.cfi_offset 11, -24
 450 000a 82B0     		sub	sp, sp, #8
 451              		.cfi_def_cfa_offset 40
 452 000c 8246     		mov	r10, r0
 453              	.LVL72:
ARM GAS  C:\Users\MM1005~1\AppData\Local\Temp\ccDYJIra.s 			page 29


 733:Generated_Source\PSoC4/CapSense_Processing.c ****                     
 454              		.loc 1 733 0
 455 000e 037E     		ldrb	r3, [r0, #24]
 732:Generated_Source\PSoC4/CapSense_Processing.c ****                     (CapSense_GET_WIDGET_TYPE(ptrFlashWdgt) == CapSense_WD_PROXIMITY_E) ? 1u : 0u;
 456              		.loc 1 732 0
 457 0010 062B     		cmp	r3, #6
 458 0012 02D1     		bne	.L31
 459 0014 0122     		mov	r2, #1
 460 0016 9346     		mov	fp, r2
 461 0018 01E0     		b	.L27
 462              	.L31:
 463 001a 0022     		mov	r2, #0
 464 001c 9346     		mov	fp, r2
 465              	.L27:
 466              	.LVL73:
 736:Generated_Source\PSoC4/CapSense_Processing.c ****     #endif /* #if (0u != DP_FW_FILTER_EN) */
 467              		.loc 1 736 0 discriminator 4
 468 001e 5246     		mov	r2, r10
 469 0020 D268     		ldr	r2, [r2, #12]
 470              	.LVL74:
 471 0022 9146     		mov	r9, r2
 739:Generated_Source\PSoC4/CapSense_Processing.c ****     ptrRamWdgt = ptrFlashWdgt->ptr2WdgtRam;
 472              		.loc 1 739 0 discriminator 4
 473 0024 5246     		mov	r2, r10
 474              	.LVL75:
 475 0026 9468     		ldr	r4, [r2, #8]
 476              	.LVL76:
 740:Generated_Source\PSoC4/CapSense_Processing.c ****     widgetType = ptrFlashWdgt->wdgtType;
 477              		.loc 1 740 0 discriminator 4
 478 0028 5668     		ldr	r6, [r2, #4]
 479              	.LVL77:
 741:Generated_Source\PSoC4/CapSense_Processing.c **** 
 480              		.loc 1 741 0 discriminator 4
 481 002a 0093     		str	r3, [sp]
 482              	.LVL78:
 744:Generated_Source\PSoC4/CapSense_Processing.c ****     #endif /* #if (0u != (CapSense_CSD_AUTOTUNE & CapSense_CSD_SS_TH_EN)) */
 483              		.loc 1 744 0 discriminator 4
 484 002c 576A     		ldr	r7, [r2, #36]
 485              	.LVL79:
 748:Generated_Source\PSoC4/CapSense_Processing.c ****     {
 486              		.loc 1 748 0 discriminator 4
 487 002e 0025     		mov	r5, #0
 709:Generated_Source\PSoC4/CapSense_Processing.c ****     
 488              		.loc 1 709 0 discriminator 4
 489 0030 0023     		mov	r3, #0
 490 0032 0193     		str	r3, [sp, #4]
 748:Generated_Source\PSoC4/CapSense_Processing.c ****     {
 491              		.loc 1 748 0 discriminator 4
 492 0034 21E0     		b	.L28
 493              	.LVL80:
 494              	.L30:
 752:Generated_Source\PSoC4/CapSense_Processing.c ****         #endif /* #if (0u != DP_FW_FILTER_EN) */
 495              		.loc 1 752 0
 496 0036 4846     		mov	r0, r9
 497 0038 211C     		mov	r1, r4
 498 003a 009A     		ldr	r2, [sp]
 499 003c FFF7FEFF 		bl	CapSense_FtRunEnabledFiltersInternal
ARM GAS  C:\Users\MM1005~1\AppData\Local\Temp\ccDYJIra.s 			page 30


 500              	.LVL81:
 757:Generated_Source\PSoC4/CapSense_Processing.c ****             CapSense_DpUpdateThresholds(ptrRamWdgt, ptrNoiseEnvelope, snsId);
 501              		.loc 1 757 0
 502 0040 2088     		ldrh	r0, [r4]
 503 0042 318A     		ldrh	r1, [r6, #16]
 504 0044 3A1C     		mov	r2, r7
 505 0046 FFF7FEFF 		bl	SmartSense_RunNoiseEnvelope
 506              	.LVL82:
 758:Generated_Source\PSoC4/CapSense_Processing.c **** 
 507              		.loc 1 758 0
 508 004a 301C     		mov	r0, r6
 509 004c 391C     		mov	r1, r7
 510 004e 2A1C     		mov	r2, r5
 511 0050 FFF7FEFF 		bl	CapSense_DpUpdateThresholds
 512              	.LVL83:
 775:Generated_Source\PSoC4/CapSense_Processing.c ****         #endif /* (0u != (CapSense_CSD_AUTOTUNE & CapSense_CSD_SS_TH_EN)) */
 513              		.loc 1 775 0
 514 0054 0C37     		add	r7, r7, #12
 515              	.LVL84:
 788:Generated_Source\PSoC4/CapSense_Processing.c ****         #endif /* (CapSense_ENABLE == CapSense_TST_BSLN_DUPLICATION_EN) */
 516              		.loc 1 788 0
 517 0056 301C     		mov	r0, r6
 518 0058 211C     		mov	r1, r4
 519 005a 009A     		ldr	r2, [sp]
 520 005c FFF7FEFF 		bl	CapSense_FtUpdateBaseline
 521              	.LVL85:
 522 0060 0190     		str	r0, [sp, #4]
 523              	.LVL86:
 791:Generated_Source\PSoC4/CapSense_Processing.c **** 
 524              		.loc 1 791 0
 525 0062 301C     		mov	r0, r6
 526              	.LVL87:
 527 0064 211C     		mov	r1, r4
 528 0066 FFF7FEFF 		bl	CapSense_DpUpdateDifferences
 529              	.LVL88:
 794:Generated_Source\PSoC4/CapSense_Processing.c **** 
 530              		.loc 1 794 0
 531 006a 0A34     		add	r4, r4, #10
 532              	.LVL89:
 798:Generated_Source\PSoC4/CapSense_Processing.c ****         #endif /* #if (0u != DP_FW_FILTER_EN) */
 533              		.loc 1 798 0
 534 006c 5B46     		mov	r3, fp
 535 006e 002B     		cmp	r3, #0
 536 0070 02D1     		bne	.L29
 537              	.LVL90:
 798:Generated_Source\PSoC4/CapSense_Processing.c ****         #endif /* #if (0u != DP_FW_FILTER_EN) */
 538              		.loc 1 798 0 is_stmt 0 discriminator 1
 539 0072 0233     		add	r3, r3, #2
 540              	.LVL91:
 541 0074 9C46     		mov	ip, r3
 542 0076 E144     		add	r9, r9, ip
 543              	.LVL92:
 544              	.L29:
 748:Generated_Source\PSoC4/CapSense_Processing.c ****     {
 545              		.loc 1 748 0 is_stmt 1 discriminator 2
 546 0078 0135     		add	r5, r5, #1
 547              	.LVL93:
ARM GAS  C:\Users\MM1005~1\AppData\Local\Temp\ccDYJIra.s 			page 31


 548              	.L28:
 748:Generated_Source\PSoC4/CapSense_Processing.c ****     {
 549              		.loc 1 748 0 is_stmt 0 discriminator 1
 550 007a 5346     		mov	r3, r10
 551 007c DB8A     		ldrh	r3, [r3, #22]
 552 007e AB42     		cmp	r3, r5
 553 0080 D9D8     		bhi	.L30
 802:Generated_Source\PSoC4/CapSense_Processing.c **** 
 554              		.loc 1 802 0 is_stmt 1
 555 0082 0198     		ldr	r0, [sp, #4]
 556 0084 02B0     		add	sp, sp, #8
 557              	.LVL94:
 558              		@ sp needed
 559              	.LVL95:
 560              	.LVL96:
 561              	.LVL97:
 562              	.LVL98:
 563              	.LVL99:
 564              	.LVL100:
 565              	.LVL101:
 566 0086 1CBC     		pop	{r2, r3, r4}
 567 0088 9146     		mov	r9, r2
 568 008a 9A46     		mov	r10, r3
 569 008c A346     		mov	fp, r4
 570 008e F0BD     		pop	{r4, r5, r6, r7, pc}
 571              		.cfi_endproc
 572              	.LFE6:
 573              		.size	CapSense_DpProcessCsdWidgetRawCounts, .-CapSense_DpProcessCsdWidgetRawCounts
 574              		.section	.text.CapSense_DpProcessCsdSensorRawCountsExt,"ax",%progbits
 575              		.align	2
 576              		.global	CapSense_DpProcessCsdSensorRawCountsExt
 577              		.code	16
 578              		.thumb_func
 579              		.type	CapSense_DpProcessCsdSensorRawCountsExt, %function
 580              	CapSense_DpProcessCsdSensorRawCountsExt:
 581              	.LFB7:
 843:Generated_Source\PSoC4/CapSense_Processing.c ****     uint32 result = CYRET_SUCCESS;
 582              		.loc 1 843 0
 583              		.cfi_startproc
 584              	.LVL102:
 585 0000 F0B5     		push	{r4, r5, r6, r7, lr}
 586              		.cfi_def_cfa_offset 20
 587              		.cfi_offset 4, -20
 588              		.cfi_offset 5, -16
 589              		.cfi_offset 6, -12
 590              		.cfi_offset 7, -8
 591              		.cfi_offset 14, -4
 592 0002 83B0     		sub	sp, sp, #12
 593              		.cfi_def_cfa_offset 32
 594 0004 0191     		str	r1, [sp, #4]
 595 0006 1C1C     		mov	r4, r3
 596              	.LVL103:
 855:Generated_Source\PSoC4/CapSense_Processing.c ****     #endif /* (0u != (CapSense_CSD_AUTOTUNE & CapSense_CSD_SS_TH_EN)) */
 597              		.loc 1 855 0
 598 0008 456A     		ldr	r5, [r0, #36]
 599              	.LVL104:
 858:Generated_Source\PSoC4/CapSense_Processing.c ****     ptrRamWdgt = ptrFlashWdgt->ptr2WdgtRam;
ARM GAS  C:\Users\MM1005~1\AppData\Local\Temp\ccDYJIra.s 			page 32


 600              		.loc 1 858 0
 601 000a 077E     		ldrb	r7, [r0, #24]
 602              	.LVL105:
 859:Generated_Source\PSoC4/CapSense_Processing.c **** 
 603              		.loc 1 859 0
 604 000c 4668     		ldr	r6, [r0, #4]
 605              	.LVL106:
 862:Generated_Source\PSoC4/CapSense_Processing.c ****         {
 606              		.loc 1 862 0
 607 000e E307     		lsl	r3, r4, #31
 608 0010 03D5     		bpl	.L33
 609              	.LVL107:
 864:Generated_Source\PSoC4/CapSense_Processing.c ****         }
 610              		.loc 1 864 0
 611 0012 101C     		mov	r0, r2
 612              	.LVL108:
 613 0014 3A1C     		mov	r2, r7
 614              	.LVL109:
 615 0016 FFF7FEFF 		bl	CapSense_FtRunEnabledFiltersInternal
 616              	.LVL110:
 617              	.L33:
 871:Generated_Source\PSoC4/CapSense_Processing.c ****         {
 618              		.loc 1 871 0
 619 001a 2307     		lsl	r3, r4, #28
 620 001c 05D5     		bpl	.L34
 873:Generated_Source\PSoC4/CapSense_Processing.c ****         }
 621              		.loc 1 873 0
 622 001e 019B     		ldr	r3, [sp, #4]
 623 0020 1888     		ldrh	r0, [r3]
 624 0022 318A     		ldrh	r1, [r6, #16]
 625 0024 2A1C     		mov	r2, r5
 626              	.LVL111:
 627 0026 FFF7FEFF 		bl	SmartSense_RunNoiseEnvelope
 628              	.LVL112:
 629              	.L34:
 876:Generated_Source\PSoC4/CapSense_Processing.c ****         {            
 630              		.loc 1 876 0
 631 002a E306     		lsl	r3, r4, #27
 632 002c 04D5     		bpl	.L35
 878:Generated_Source\PSoC4/CapSense_Processing.c ****             
 633              		.loc 1 878 0
 634 002e 301C     		mov	r0, r6
 635 0030 291C     		mov	r1, r5
 636 0032 0022     		mov	r2, #0
 637              	.LVL113:
 638 0034 FFF7FEFF 		bl	CapSense_DpUpdateThresholds
 639              	.LVL114:
 640              	.L35:
 896:Generated_Source\PSoC4/CapSense_Processing.c ****     {
 641              		.loc 1 896 0
 642 0038 A307     		lsl	r3, r4, #30
 643 003a 06D5     		bpl	.L38
 898:Generated_Source\PSoC4/CapSense_Processing.c ****     }
 644              		.loc 1 898 0
 645 003c 301C     		mov	r0, r6
 646 003e 0199     		ldr	r1, [sp, #4]
 647 0040 3A1C     		mov	r2, r7
ARM GAS  C:\Users\MM1005~1\AppData\Local\Temp\ccDYJIra.s 			page 33


 648              	.LVL115:
 649 0042 FFF7FEFF 		bl	CapSense_FtUpdateBaseline
 650              	.LVL116:
 651 0046 071C     		mov	r7, r0
 652              	.LVL117:
 653 0048 00E0     		b	.L36
 654              	.LVL118:
 655              	.L38:
 844:Generated_Source\PSoC4/CapSense_Processing.c ****     uint32  widgetType;
 656              		.loc 1 844 0
 657 004a 0027     		mov	r7, #0
 658              	.LVL119:
 659              	.L36:
 901:Generated_Source\PSoC4/CapSense_Processing.c ****     {
 660              		.loc 1 901 0
 661 004c 6307     		lsl	r3, r4, #29
 662 004e 03D5     		bpl	.L37
 903:Generated_Source\PSoC4/CapSense_Processing.c ****     }
 663              		.loc 1 903 0
 664 0050 301C     		mov	r0, r6
 665 0052 0199     		ldr	r1, [sp, #4]
 666 0054 FFF7FEFF 		bl	CapSense_DpUpdateDifferences
 667              	.LVL120:
 668              	.L37:
 906:Generated_Source\PSoC4/CapSense_Processing.c **** 
 669              		.loc 1 906 0
 670 0058 381C     		mov	r0, r7
 671 005a 03B0     		add	sp, sp, #12
 672              		@ sp needed
 673              	.LVL121:
 674              	.LVL122:
 675              	.LVL123:
 676              	.LVL124:
 677 005c F0BD     		pop	{r4, r5, r6, r7, pc}
 678              		.cfi_endproc
 679              	.LFE7:
 680              		.size	CapSense_DpProcessCsdSensorRawCountsExt, .-CapSense_DpProcessCsdSensorRawCountsExt
 681 005e C046     		.section	.text.CapSense_DpProcessButton,"ax",%progbits
 682              		.align	2
 683              		.global	CapSense_DpProcessButton
 684              		.code	16
 685              		.thumb_func
 686              		.type	CapSense_DpProcessButton, %function
 687              	CapSense_DpProcessButton:
 688              	.LFB11:
1108:Generated_Source\PSoC4/CapSense_Processing.c **** 
1109:Generated_Source\PSoC4/CapSense_Processing.c **** 
1110:Generated_Source\PSoC4/CapSense_Processing.c **** #if ((0u != CapSense_BUTTON_WIDGET_EN) || (0u != CapSense_CSX_MATRIX_WIDGET_EN))
1111:Generated_Source\PSoC4/CapSense_Processing.c **** /*******************************************************************************
1112:Generated_Source\PSoC4/CapSense_Processing.c **** * Function Name: CapSense_DpProcessButton
1113:Generated_Source\PSoC4/CapSense_Processing.c **** ****************************************************************************//**
1114:Generated_Source\PSoC4/CapSense_Processing.c **** *
1115:Generated_Source\PSoC4/CapSense_Processing.c **** * \brief
1116:Generated_Source\PSoC4/CapSense_Processing.c **** *   Processes the status of the Button widget.
1117:Generated_Source\PSoC4/CapSense_Processing.c **** *
1118:Generated_Source\PSoC4/CapSense_Processing.c **** * \details
1119:Generated_Source\PSoC4/CapSense_Processing.c **** *   This API processes the status of the CSD/CSX Button widget and
ARM GAS  C:\Users\MM1005~1\AppData\Local\Temp\ccDYJIra.s 			page 34


1120:Generated_Source\PSoC4/CapSense_Processing.c **** *   CSX Matrix Button widget. It applies the hysteresis and de-bounce algorithm
1121:Generated_Source\PSoC4/CapSense_Processing.c **** *   to each sensor difference value. This API is expected to be called
1122:Generated_Source\PSoC4/CapSense_Processing.c **** *   after each new widget scan. If it is called multiple times for the same
1123:Generated_Source\PSoC4/CapSense_Processing.c **** *   scan data, the de-bounce algorithm will not work properly.
1124:Generated_Source\PSoC4/CapSense_Processing.c **** *
1125:Generated_Source\PSoC4/CapSense_Processing.c **** *   This API does not update any Data Structure registers
1126:Generated_Source\PSoC4/CapSense_Processing.c **** *   except the de-bounce counters.
1127:Generated_Source\PSoC4/CapSense_Processing.c **** *
1128:Generated_Source\PSoC4/CapSense_Processing.c **** * \param currStatus   The current status of the widget sensors.
1129:Generated_Source\PSoC4/CapSense_Processing.c **** * \param ptrFlashWdgt The pointer to the Flash Widget Object.
1130:Generated_Source\PSoC4/CapSense_Processing.c **** *
1131:Generated_Source\PSoC4/CapSense_Processing.c **** * \return Returns the status of the widget's sensors. Bit #0 - corresponds to Sensor #0.
1132:Generated_Source\PSoC4/CapSense_Processing.c **** *
1133:Generated_Source\PSoC4/CapSense_Processing.c **** *******************************************************************************/
1134:Generated_Source\PSoC4/CapSense_Processing.c **** uint32 CapSense_DpProcessButton(uint32 currStatus, CapSense_FLASH_WD_STRUCT const *ptrFlashWdgt)
1135:Generated_Source\PSoC4/CapSense_Processing.c **** {
 689              		.loc 1 1135 0
 690              		.cfi_startproc
 691              	.LVL125:
 692 0000 F0B5     		push	{r4, r5, r6, r7, lr}
 693              		.cfi_def_cfa_offset 20
 694              		.cfi_offset 4, -20
 695              		.cfi_offset 5, -16
 696              		.cfi_offset 6, -12
 697              		.cfi_offset 7, -8
 698              		.cfi_offset 14, -4
1136:Generated_Source\PSoC4/CapSense_Processing.c ****     uint32 snsCnt;
1137:Generated_Source\PSoC4/CapSense_Processing.c ****     uint32 snsMask;
1138:Generated_Source\PSoC4/CapSense_Processing.c ****     uint32 newStatus;
1139:Generated_Source\PSoC4/CapSense_Processing.c ****     uint32 touchTh;
1140:Generated_Source\PSoC4/CapSense_Processing.c ****     CapSense_RAM_SNS_STRUCT *ptrSns;
1141:Generated_Source\PSoC4/CapSense_Processing.c ****     CapSense_RAM_WD_BASE_STRUCT *ptrRamWdgt;
1142:Generated_Source\PSoC4/CapSense_Processing.c ****     uint8 * ptrDebounceCnt;
1143:Generated_Source\PSoC4/CapSense_Processing.c **** 
1144:Generated_Source\PSoC4/CapSense_Processing.c ****     snsCnt = ptrFlashWdgt->totalNumSns;
 699              		.loc 1 1144 0
 700 0002 CA8A     		ldrh	r2, [r1, #22]
 701              	.LVL126:
1145:Generated_Source\PSoC4/CapSense_Processing.c ****     ptrSns = ptrFlashWdgt->ptr2SnsRam;
 702              		.loc 1 1145 0
 703 0004 8D68     		ldr	r5, [r1, #8]
 704              	.LVL127:
1146:Generated_Source\PSoC4/CapSense_Processing.c ****     ptrRamWdgt = ptrFlashWdgt->ptr2WdgtRam;
 705              		.loc 1 1146 0
 706 0006 4F68     		ldr	r7, [r1, #4]
 707              	.LVL128:
1147:Generated_Source\PSoC4/CapSense_Processing.c ****     ptrDebounceCnt = ptrFlashWdgt->ptr2DebounceArr;
 708              		.loc 1 1147 0
 709 0008 0B69     		ldr	r3, [r1, #16]
 710              	.LVL129:
1148:Generated_Source\PSoC4/CapSense_Processing.c **** 
1149:Generated_Source\PSoC4/CapSense_Processing.c ****     /* Go through all widget's sensors */
1150:Generated_Source\PSoC4/CapSense_Processing.c ****     snsMask = 1Lu;
 711              		.loc 1 1150 0
 712 000a 0121     		mov	r1, #1
 713              	.LVL130:
1151:Generated_Source\PSoC4/CapSense_Processing.c ****     for (; snsCnt-- > 0u; )
ARM GAS  C:\Users\MM1005~1\AppData\Local\Temp\ccDYJIra.s 			page 35


 714              		.loc 1 1151 0
 715 000c 25E0     		b	.L40
 716              	.LVL131:
 717              	.L48:
1152:Generated_Source\PSoC4/CapSense_Processing.c ****     {
1153:Generated_Source\PSoC4/CapSense_Processing.c ****         /* Calculate touch threshold taking into account hysteresis
1154:Generated_Source\PSoC4/CapSense_Processing.c ****            and current sensor state. */
1155:Generated_Source\PSoC4/CapSense_Processing.c ****         touchTh = (0u == (currStatus & snsMask)) ?
 718              		.loc 1 1155 0
 719 000e 0C1C     		mov	r4, r1
 720              	.LVL132:
 721 0010 0440     		and	r4, r0
1156:Generated_Source\PSoC4/CapSense_Processing.c ****                   ((uint32)ptrRamWdgt->fingerTh + ptrRamWdgt->hysteresis) :
 722              		.loc 1 1156 0
 723 0012 03D1     		bne	.L41
 724              		.loc 1 1156 0 is_stmt 0 discriminator 1
 725 0014 7E88     		ldrh	r6, [r7, #2]
 726 0016 BA79     		ldrb	r2, [r7, #6]
 727 0018 B218     		add	r2, r6, r2
 728 001a 02E0     		b	.L42
 729              	.L41:
1157:Generated_Source\PSoC4/CapSense_Processing.c ****                   ((uint32)ptrRamWdgt->fingerTh - ptrRamWdgt->hysteresis);
 730              		.loc 1 1157 0 is_stmt 1 discriminator 2
 731 001c 7A88     		ldrh	r2, [r7, #2]
 732 001e BE79     		ldrb	r6, [r7, #6]
1156:Generated_Source\PSoC4/CapSense_Processing.c ****                   ((uint32)ptrRamWdgt->fingerTh + ptrRamWdgt->hysteresis) :
 733              		.loc 1 1156 0 discriminator 2
 734 0020 921B     		sub	r2, r2, r6
 735              	.L42:
 736              	.LVL133:
1158:Generated_Source\PSoC4/CapSense_Processing.c **** 
1159:Generated_Source\PSoC4/CapSense_Processing.c ****         /* Determine new potential sensor state */
1160:Generated_Source\PSoC4/CapSense_Processing.c ****         newStatus = (ptrSns->diff > touchTh) ? snsMask : 0u;
 737              		.loc 1 1160 0
 738 0022 EE88     		ldrh	r6, [r5, #6]
 739 0024 B242     		cmp	r2, r6
 740 0026 01D3     		bcc	.L49
 741 0028 0022     		mov	r2, #0
 742              	.LVL134:
 743 002a 00E0     		b	.L43
 744              	.LVL135:
 745              	.L49:
 746 002c 0A1C     		mov	r2, r1
 747              	.LVL136:
 748              	.L43:
1161:Generated_Source\PSoC4/CapSense_Processing.c **** 
1162:Generated_Source\PSoC4/CapSense_Processing.c ****         /* Sensor state changed ? */
1163:Generated_Source\PSoC4/CapSense_Processing.c ****         if (newStatus != (currStatus & snsMask))
 749              		.loc 1 1163 0 discriminator 4
 750 002e A242     		cmp	r2, r4
 751 0030 02D0     		beq	.L44
1164:Generated_Source\PSoC4/CapSense_Processing.c ****         {
1165:Generated_Source\PSoC4/CapSense_Processing.c ****             /* Decrement de-bounce counter */
1166:Generated_Source\PSoC4/CapSense_Processing.c ****             (*ptrDebounceCnt)--;
 752              		.loc 1 1166 0
 753 0032 1E78     		ldrb	r6, [r3]
 754 0034 013E     		sub	r6, r6, #1
ARM GAS  C:\Users\MM1005~1\AppData\Local\Temp\ccDYJIra.s 			page 36


 755 0036 1E70     		strb	r6, [r3]
 756              	.L44:
1167:Generated_Source\PSoC4/CapSense_Processing.c ****         }
1168:Generated_Source\PSoC4/CapSense_Processing.c **** 
1169:Generated_Source\PSoC4/CapSense_Processing.c ****         /* This piece of code has two objectives:
1170:Generated_Source\PSoC4/CapSense_Processing.c ****            1. Reset de-bounce counter if the sensor state did not change.
1171:Generated_Source\PSoC4/CapSense_Processing.c ****               (It is possible that during previous processing cycles sensor
1172:Generated_Source\PSoC4/CapSense_Processing.c ****                was active and de-bounce counter was decremented.)
1173:Generated_Source\PSoC4/CapSense_Processing.c ****            2. Set new sensor state after successful de-bounce.
1174:Generated_Source\PSoC4/CapSense_Processing.c ****          */
1175:Generated_Source\PSoC4/CapSense_Processing.c ****         if ((newStatus == (currStatus & snsMask)) || (0u == (*ptrDebounceCnt)))
 757              		.loc 1 1175 0
 758 0038 A242     		cmp	r2, r4
 759 003a 02D0     		beq	.L45
 760              		.loc 1 1175 0 is_stmt 0 discriminator 1
 761 003c 1C78     		ldrb	r4, [r3]
 762 003e 002C     		cmp	r4, #0
 763 0040 07D1     		bne	.L46
 764              	.L45:
1176:Generated_Source\PSoC4/CapSense_Processing.c ****         {
1177:Generated_Source\PSoC4/CapSense_Processing.c ****             /* Set new sensor status */
1178:Generated_Source\PSoC4/CapSense_Processing.c ****             currStatus &= ~snsMask;
 765              		.loc 1 1178 0 is_stmt 1
 766 0042 8843     		bic	r0, r1
 767              	.LVL137:
1179:Generated_Source\PSoC4/CapSense_Processing.c ****             currStatus |= newStatus;
 768              		.loc 1 1179 0
 769 0044 1043     		orr	r0, r2
 770              	.LVL138:
1180:Generated_Source\PSoC4/CapSense_Processing.c **** 
1181:Generated_Source\PSoC4/CapSense_Processing.c ****             /* Reset de-bounce counter */
1182:Generated_Source\PSoC4/CapSense_Processing.c ****             #if (0u != CapSense_OFF_DEBOUNCE_EN)
1183:Generated_Source\PSoC4/CapSense_Processing.c ****                 *ptrDebounceCnt = (0Lu == newStatus) ? ptrRamWdgt->onDebounce : ptrRamWdgt->offDebo
1184:Generated_Source\PSoC4/CapSense_Processing.c ****             #else
1185:Generated_Source\PSoC4/CapSense_Processing.c ****                 *ptrDebounceCnt = (0Lu == newStatus) ? ptrRamWdgt->onDebounce : DEFAULT_OFF_DEBOUNC
 771              		.loc 1 1185 0
 772 0046 002A     		cmp	r2, #0
 773 0048 01D1     		bne	.L50
 774              		.loc 1 1185 0 is_stmt 0 discriminator 1
 775 004a FA79     		ldrb	r2, [r7, #7]
 776              	.LVL139:
 777 004c 00E0     		b	.L47
 778              	.LVL140:
 779              	.L50:
 780              		.loc 1 1185 0
 781 004e 0122     		mov	r2, #1
 782              	.LVL141:
 783              	.L47:
 784              		.loc 1 1185 0 discriminator 4
 785 0050 1A70     		strb	r2, [r3]
 786              	.L46:
1186:Generated_Source\PSoC4/CapSense_Processing.c ****             #endif /* #if (0u != CapSense_OFF_DEBOUNCE_EN) */
1187:Generated_Source\PSoC4/CapSense_Processing.c ****         }
1188:Generated_Source\PSoC4/CapSense_Processing.c ****         
1189:Generated_Source\PSoC4/CapSense_Processing.c ****         /* Move mask to the next sensor */
1190:Generated_Source\PSoC4/CapSense_Processing.c ****         snsMask <<= 1u;
 787              		.loc 1 1190 0 is_stmt 1
ARM GAS  C:\Users\MM1005~1\AppData\Local\Temp\ccDYJIra.s 			page 37


 788 0052 4900     		lsl	r1, r1, #1
 789              	.LVL142:
1191:Generated_Source\PSoC4/CapSense_Processing.c ****         
1192:Generated_Source\PSoC4/CapSense_Processing.c ****         ptrSns++;
 790              		.loc 1 1192 0
 791 0054 0A35     		add	r5, r5, #10
 792              	.LVL143:
1193:Generated_Source\PSoC4/CapSense_Processing.c ****         ptrDebounceCnt++;
 793              		.loc 1 1193 0
 794 0056 0133     		add	r3, r3, #1
 795              	.LVL144:
1151:Generated_Source\PSoC4/CapSense_Processing.c ****     {
 796              		.loc 1 1151 0
 797 0058 6246     		mov	r2, ip
 798              	.LVL145:
 799              	.L40:
 800 005a 541E     		sub	r4, r2, #1
 801 005c A446     		mov	ip, r4
 802              	.LVL146:
 803 005e 002A     		cmp	r2, #0
 804 0060 D5D1     		bne	.L48
1194:Generated_Source\PSoC4/CapSense_Processing.c ****     }
1195:Generated_Source\PSoC4/CapSense_Processing.c **** 
1196:Generated_Source\PSoC4/CapSense_Processing.c ****     return currStatus;
1197:Generated_Source\PSoC4/CapSense_Processing.c **** }
 805              		.loc 1 1197 0
 806              		@ sp needed
 807              	.LVL147:
 808              	.LVL148:
 809              	.LVL149:
 810 0062 F0BD     		pop	{r4, r5, r6, r7, pc}
 811              		.cfi_endproc
 812              	.LFE11:
 813              		.size	CapSense_DpProcessButton, .-CapSense_DpProcessButton
 814              		.section	.text.CapSense_DpProcessCsxWidgetStatus,"ax",%progbits
 815              		.align	2
 816              		.global	CapSense_DpProcessCsxWidgetStatus
 817              		.code	16
 818              		.thumb_func
 819              		.type	CapSense_DpProcessCsxWidgetStatus, %function
 820              	CapSense_DpProcessCsxWidgetStatus:
 821              	.LFB5:
 628:Generated_Source\PSoC4/CapSense_Processing.c ****     uint32 sensorStatus;
 822              		.loc 1 628 0
 823              		.cfi_startproc
 824              	.LVL150:
 825 0000 38B5     		push	{r3, r4, r5, lr}
 826              		.cfi_def_cfa_offset 16
 827              		.cfi_offset 3, -16
 828              		.cfi_offset 4, -12
 829              		.cfi_offset 5, -8
 830              		.cfi_offset 14, -4
 831 0002 041C     		mov	r4, r0
 634:Generated_Source\PSoC4/CapSense_Processing.c ****     sensorStatus = CapSense_dsRam.snsStatus[wdgtId];
 832              		.loc 1 634 0
 833 0004 0A7E     		ldrb	r2, [r1, #24]
 834              	.LVL151:
ARM GAS  C:\Users\MM1005~1\AppData\Local\Temp\ccDYJIra.s 			page 38


 635:Generated_Source\PSoC4/CapSense_Processing.c **** 
 835              		.loc 1 635 0
 836 0006 134B     		ldr	r3, .L58
 837 0008 1B18     		add	r3, r3, r0
 838 000a 1D7D     		ldrb	r5, [r3, #20]
 839              	.LVL152:
 637:Generated_Source\PSoC4/CapSense_Processing.c ****     {
 840              		.loc 1 637 0
 841 000c 012A     		cmp	r2, #1
 842 000e 04D1     		bne	.L57
 641:Generated_Source\PSoC4/CapSense_Processing.c ****             break;
 843              		.loc 1 641 0
 844 0010 281C     		mov	r0, r5
 845              	.LVL153:
 846 0012 FFF7FEFF 		bl	CapSense_DpProcessButton
 847              	.LVL154:
 848 0016 051C     		mov	r5, r0
 849              	.LVL155:
 642:Generated_Source\PSoC4/CapSense_Processing.c ****     #endif /* #if (0u != CapSense_BUTTON_WIDGET_EN) */
 850              		.loc 1 642 0
 851 0018 02E0     		b	.L54
 852              	.LVL156:
 853              	.L57:
 658:Generated_Source\PSoC4/CapSense_Processing.c ****         break;
 854              		.loc 1 658 0 discriminator 1
 855 001a 0020     		mov	r0, #0
 856              	.LVL157:
 857 001c FFF7FEFF 		bl	CyHalt
 858              	.LVL158:
 859              	.L54:
 663:Generated_Source\PSoC4/CapSense_Processing.c **** 
 860              		.loc 1 663 0
 861 0020 0C4B     		ldr	r3, .L58
 862 0022 1B19     		add	r3, r3, r4
 863 0024 1D75     		strb	r5, [r3, #20]
 666:Generated_Source\PSoC4/CapSense_Processing.c ****     wdStatusMask = CapSense_GET_WDGT_STATUS_MASK(wdgtId);
 864              		.loc 1 666 0
 865 0026 6309     		lsr	r3, r4, #5
 866              	.LVL159:
 667:Generated_Source\PSoC4/CapSense_Processing.c **** 
 867              		.loc 1 667 0
 868 0028 1F22     		mov	r2, #31
 869 002a 1440     		and	r4, r2
 870              	.LVL160:
 871 002c 1E3A     		sub	r2, r2, #30
 872 002e A240     		lsl	r2, r2, r4
 873 0030 141C     		mov	r4, r2
 874              	.LVL161:
 670:Generated_Source\PSoC4/CapSense_Processing.c ****     {
 875              		.loc 1 670 0
 876 0032 002D     		cmp	r5, #0
 877 0034 06D1     		bne	.L55
 672:Generated_Source\PSoC4/CapSense_Processing.c ****     }
 878              		.loc 1 672 0
 879 0036 0749     		ldr	r1, .L58
 880 0038 0433     		add	r3, r3, #4
 881              	.LVL162:
ARM GAS  C:\Users\MM1005~1\AppData\Local\Temp\ccDYJIra.s 			page 39


 882 003a 9B00     		lsl	r3, r3, #2
 883              	.LVL163:
 884 003c 5A58     		ldr	r2, [r3, r1]
 885              	.LVL164:
 886 003e A243     		bic	r2, r4
 887 0040 5A50     		str	r2, [r3, r1]
 888 0042 05E0     		b	.L51
 889              	.LVL165:
 890              	.L55:
 676:Generated_Source\PSoC4/CapSense_Processing.c ****     }
 891              		.loc 1 676 0
 892 0044 034A     		ldr	r2, .L58
 893              	.LVL166:
 894 0046 0433     		add	r3, r3, #4
 895              	.LVL167:
 896 0048 9B00     		lsl	r3, r3, #2
 897              	.LVL168:
 898 004a 9958     		ldr	r1, [r3, r2]
 899 004c 0C43     		orr	r4, r1
 900              	.LVL169:
 901 004e 9C50     		str	r4, [r3, r2]
 902              	.L51:
 678:Generated_Source\PSoC4/CapSense_Processing.c **** #endif /* #if CapSense_TOTAL_CSX_WIDGETS */
 903              		.loc 1 678 0
 904              		@ sp needed
 905              	.LVL170:
 906 0050 38BD     		pop	{r3, r4, r5, pc}
 907              	.L59:
 908 0052 C046     		.align	2
 909              	.L58:
 910 0054 00000000 		.word	CapSense_dsRam
 911              		.cfi_endproc
 912              	.LFE5:
 913              		.size	CapSense_DpProcessCsxWidgetStatus, .-CapSense_DpProcessCsxWidgetStatus
 914              		.section	.text.CapSense_DpProcessSlider,"ax",%progbits
 915              		.align	2
 916              		.global	CapSense_DpProcessSlider
 917              		.code	16
 918              		.thumb_func
 919              		.type	CapSense_DpProcessSlider, %function
 920              	CapSense_DpProcessSlider:
 921              	.LFB12:
1198:Generated_Source\PSoC4/CapSense_Processing.c **** #endif /* #if ((0u != CapSense_BUTTON_WIDGET_EN) || (0u != CapSense_CSX_MATRIX_WIDGET_EN)) */
1199:Generated_Source\PSoC4/CapSense_Processing.c **** 
1200:Generated_Source\PSoC4/CapSense_Processing.c **** 
1201:Generated_Source\PSoC4/CapSense_Processing.c **** #if (0u != CapSense_PROXIMITY_WIDGET_EN)
1202:Generated_Source\PSoC4/CapSense_Processing.c **** /*******************************************************************************
1203:Generated_Source\PSoC4/CapSense_Processing.c **** * Function Name: CapSense_DpProcessProximity
1204:Generated_Source\PSoC4/CapSense_Processing.c **** ****************************************************************************//**
1205:Generated_Source\PSoC4/CapSense_Processing.c **** *
1206:Generated_Source\PSoC4/CapSense_Processing.c **** * \brief
1207:Generated_Source\PSoC4/CapSense_Processing.c **** *   Processes the status of the Proximity widget.
1208:Generated_Source\PSoC4/CapSense_Processing.c **** *
1209:Generated_Source\PSoC4/CapSense_Processing.c **** * \details
1210:Generated_Source\PSoC4/CapSense_Processing.c **** *   This API processes the status of the CSD Proximity widget. It applies the
1211:Generated_Source\PSoC4/CapSense_Processing.c **** *   hysteresis and debounce algorithm to each sensor difference value.
1212:Generated_Source\PSoC4/CapSense_Processing.c **** *   The proximity and touch events are considered independently so debounce and
ARM GAS  C:\Users\MM1005~1\AppData\Local\Temp\ccDYJIra.s 			page 40


1213:Generated_Source\PSoC4/CapSense_Processing.c **** *   hysteresis are also applied independently.
1214:Generated_Source\PSoC4/CapSense_Processing.c **** *
1215:Generated_Source\PSoC4/CapSense_Processing.c **** *   This API is expected to be called after each new widget scan. If it is
1216:Generated_Source\PSoC4/CapSense_Processing.c **** *   called multiple times for the same scan data the debounce algorithm
1217:Generated_Source\PSoC4/CapSense_Processing.c **** *   will not work properly.
1218:Generated_Source\PSoC4/CapSense_Processing.c **** *
1219:Generated_Source\PSoC4/CapSense_Processing.c **** *   This API does not update any Data Structure registers
1220:Generated_Source\PSoC4/CapSense_Processing.c **** *   except the debounce counters.
1221:Generated_Source\PSoC4/CapSense_Processing.c **** *
1222:Generated_Source\PSoC4/CapSense_Processing.c **** * \param currStatus   The value with the current widget status.
1223:Generated_Source\PSoC4/CapSense_Processing.c **** * \param ptrFlashWdgt The pointer to the Flash Widget Object.
1224:Generated_Source\PSoC4/CapSense_Processing.c **** *
1225:Generated_Source\PSoC4/CapSense_Processing.c **** * \return
1226:Generated_Source\PSoC4/CapSense_Processing.c **** *  Returns the status of the proximity sensors. Each sensor is represented by two bits
1227:Generated_Source\PSoC4/CapSense_Processing.c **** *  that can take the following values:
1228:Generated_Source\PSoC4/CapSense_Processing.c **** *   - 00b not active
1229:Generated_Source\PSoC4/CapSense_Processing.c **** *   - 01b proximity is detected (signal is above finger threshold)
1230:Generated_Source\PSoC4/CapSense_Processing.c **** *   - 11b finger touch is detected (signal is above the touch threshold)
1231:Generated_Source\PSoC4/CapSense_Processing.c **** *
1232:Generated_Source\PSoC4/CapSense_Processing.c **** *******************************************************************************/
1233:Generated_Source\PSoC4/CapSense_Processing.c **** uint32 CapSense_DpProcessProximity(uint32 currStatus, CapSense_FLASH_WD_STRUCT const *ptrFlashWdgt)
1234:Generated_Source\PSoC4/CapSense_Processing.c **** {
1235:Generated_Source\PSoC4/CapSense_Processing.c ****     uint32 currTh;
1236:Generated_Source\PSoC4/CapSense_Processing.c ****     uint32 snsCnt;
1237:Generated_Source\PSoC4/CapSense_Processing.c ****     uint32 snsMask;
1238:Generated_Source\PSoC4/CapSense_Processing.c ****     uint32 newStatus;
1239:Generated_Source\PSoC4/CapSense_Processing.c ****     uint32 difference;
1240:Generated_Source\PSoC4/CapSense_Processing.c **** 
1241:Generated_Source\PSoC4/CapSense_Processing.c ****     uint8 *ptrDebounceCnt;
1242:Generated_Source\PSoC4/CapSense_Processing.c ****     CapSense_RAM_SNS_STRUCT *ptrSns;
1243:Generated_Source\PSoC4/CapSense_Processing.c ****     CapSense_RAM_WD_PROXIMITY_STRUCT *ptrRamWdgt;
1244:Generated_Source\PSoC4/CapSense_Processing.c **** 
1245:Generated_Source\PSoC4/CapSense_Processing.c ****     /* Mask for proximity status bits. (All odd bits.) */
1246:Generated_Source\PSoC4/CapSense_Processing.c ****     const uint32 proxMask = UINT32_ODD_BITS_CONST;
1247:Generated_Source\PSoC4/CapSense_Processing.c **** 
1248:Generated_Source\PSoC4/CapSense_Processing.c ****     ptrSns = ptrFlashWdgt->ptr2SnsRam;
1249:Generated_Source\PSoC4/CapSense_Processing.c ****     ptrRamWdgt = ptrFlashWdgt->ptr2WdgtRam;
1250:Generated_Source\PSoC4/CapSense_Processing.c ****     ptrDebounceCnt = ptrFlashWdgt->ptr2DebounceArr;
1251:Generated_Source\PSoC4/CapSense_Processing.c **** 
1252:Generated_Source\PSoC4/CapSense_Processing.c ****     /* Get number of sensors and multiply it by 2 - proximity and touch statuses per sensor. */
1253:Generated_Source\PSoC4/CapSense_Processing.c ****     snsCnt = (uint32)ptrFlashWdgt->totalNumSns << 1u;
1254:Generated_Source\PSoC4/CapSense_Processing.c **** 
1255:Generated_Source\PSoC4/CapSense_Processing.c ****     /* Go through all sensor's status bits */
1256:Generated_Source\PSoC4/CapSense_Processing.c ****     snsMask = 1Lu;
1257:Generated_Source\PSoC4/CapSense_Processing.c ****     for (; snsCnt-- > 0u;)
1258:Generated_Source\PSoC4/CapSense_Processing.c ****     {
1259:Generated_Source\PSoC4/CapSense_Processing.c ****         difference = ptrSns->diff;
1260:Generated_Source\PSoC4/CapSense_Processing.c **** 
1261:Generated_Source\PSoC4/CapSense_Processing.c ****         /* Determine current event (proximity - odd; touch - even) and get appropriate threshold. *
1262:Generated_Source\PSoC4/CapSense_Processing.c ****         currTh = ptrRamWdgt->fingerTh;
1263:Generated_Source\PSoC4/CapSense_Processing.c **** 
1264:Generated_Source\PSoC4/CapSense_Processing.c ****         if (0u == (snsMask & proxMask))
1265:Generated_Source\PSoC4/CapSense_Processing.c ****         {
1266:Generated_Source\PSoC4/CapSense_Processing.c ****             currTh = ptrRamWdgt->proxTouchTh;
1267:Generated_Source\PSoC4/CapSense_Processing.c ****             ptrSns++;
1268:Generated_Source\PSoC4/CapSense_Processing.c ****         }
1269:Generated_Source\PSoC4/CapSense_Processing.c **** 
ARM GAS  C:\Users\MM1005~1\AppData\Local\Temp\ccDYJIra.s 			page 41


1270:Generated_Source\PSoC4/CapSense_Processing.c ****         /* Calculate finger threshold applying hysteresis based on current sensor state. */
1271:Generated_Source\PSoC4/CapSense_Processing.c ****         currTh = (0u == (currStatus & snsMask)) ? (currTh + ptrRamWdgt->hysteresis) : (currTh - ptr
1272:Generated_Source\PSoC4/CapSense_Processing.c **** 
1273:Generated_Source\PSoC4/CapSense_Processing.c ****         /* Determine new potential sensor state before de-bounce */
1274:Generated_Source\PSoC4/CapSense_Processing.c ****         newStatus = (difference > currTh) ? snsMask : 0Lu;
1275:Generated_Source\PSoC4/CapSense_Processing.c **** 
1276:Generated_Source\PSoC4/CapSense_Processing.c ****         /* Sensor state changed ? */
1277:Generated_Source\PSoC4/CapSense_Processing.c ****         if (newStatus != (currStatus & snsMask))
1278:Generated_Source\PSoC4/CapSense_Processing.c ****         {
1279:Generated_Source\PSoC4/CapSense_Processing.c ****             /* Decrement de-bounce counter */
1280:Generated_Source\PSoC4/CapSense_Processing.c ****             (*ptrDebounceCnt)--;
1281:Generated_Source\PSoC4/CapSense_Processing.c ****         }
1282:Generated_Source\PSoC4/CapSense_Processing.c **** 
1283:Generated_Source\PSoC4/CapSense_Processing.c ****         /* This piece of code has two objectives:
1284:Generated_Source\PSoC4/CapSense_Processing.c ****            1. Reset de-bounce counter if new sensor state has not changed.
1285:Generated_Source\PSoC4/CapSense_Processing.c ****               (It is possible that during previous processing cycles the sensor
1286:Generated_Source\PSoC4/CapSense_Processing.c ****                state was different which caused de-bounce counter change.)
1287:Generated_Source\PSoC4/CapSense_Processing.c ****            2. Set new sensor state after successful de-bounce.
1288:Generated_Source\PSoC4/CapSense_Processing.c ****          */
1289:Generated_Source\PSoC4/CapSense_Processing.c ****         if ((newStatus == (currStatus & snsMask)) || (0u == (*ptrDebounceCnt)))
1290:Generated_Source\PSoC4/CapSense_Processing.c ****         {
1291:Generated_Source\PSoC4/CapSense_Processing.c ****             /* Set new sensor status */
1292:Generated_Source\PSoC4/CapSense_Processing.c ****             currStatus &= ~snsMask;
1293:Generated_Source\PSoC4/CapSense_Processing.c ****             currStatus |= newStatus;
1294:Generated_Source\PSoC4/CapSense_Processing.c **** 
1295:Generated_Source\PSoC4/CapSense_Processing.c ****             /* Reset de-bounce counter */
1296:Generated_Source\PSoC4/CapSense_Processing.c ****             #if (0u != CapSense_OFF_DEBOUNCE_EN)
1297:Generated_Source\PSoC4/CapSense_Processing.c ****                 *ptrDebounceCnt = (0Lu == newStatus) ? ptrRamWdgt->onDebounce : ptrRamWdgt->offDebo
1298:Generated_Source\PSoC4/CapSense_Processing.c ****             #else
1299:Generated_Source\PSoC4/CapSense_Processing.c ****                 *ptrDebounceCnt = (0Lu == newStatus) ? ptrRamWdgt->onDebounce : DEFAULT_OFF_DEBOUNC
1300:Generated_Source\PSoC4/CapSense_Processing.c ****             #endif /* #if (0u != CapSense_OFF_DEBOUNCE_EN) */
1301:Generated_Source\PSoC4/CapSense_Processing.c ****         }
1302:Generated_Source\PSoC4/CapSense_Processing.c **** 
1303:Generated_Source\PSoC4/CapSense_Processing.c ****         ptrDebounceCnt++;
1304:Generated_Source\PSoC4/CapSense_Processing.c ****         
1305:Generated_Source\PSoC4/CapSense_Processing.c ****         /* Move sensor mask to the next sensor */
1306:Generated_Source\PSoC4/CapSense_Processing.c ****         snsMask <<= 1u;
1307:Generated_Source\PSoC4/CapSense_Processing.c ****     }
1308:Generated_Source\PSoC4/CapSense_Processing.c **** 
1309:Generated_Source\PSoC4/CapSense_Processing.c ****     return currStatus;
1310:Generated_Source\PSoC4/CapSense_Processing.c **** }
1311:Generated_Source\PSoC4/CapSense_Processing.c **** #endif /* #if (0u != CapSense_PROXIMITY_WIDGET_EN) */
1312:Generated_Source\PSoC4/CapSense_Processing.c **** 
1313:Generated_Source\PSoC4/CapSense_Processing.c **** 
1314:Generated_Source\PSoC4/CapSense_Processing.c **** #if (0u != CapSense_SLIDER_WIDGET_EN)
1315:Generated_Source\PSoC4/CapSense_Processing.c **** /*******************************************************************************
1316:Generated_Source\PSoC4/CapSense_Processing.c **** * Function Name: CapSense_DpProcessSlider
1317:Generated_Source\PSoC4/CapSense_Processing.c **** ****************************************************************************//**
1318:Generated_Source\PSoC4/CapSense_Processing.c **** *
1319:Generated_Source\PSoC4/CapSense_Processing.c **** * \brief
1320:Generated_Source\PSoC4/CapSense_Processing.c **** *   Processes the status of the Linear/Radial Slider widget.
1321:Generated_Source\PSoC4/CapSense_Processing.c **** *   The process involves running the Linear/Radial Centroid algorithm.
1322:Generated_Source\PSoC4/CapSense_Processing.c **** *
1323:Generated_Source\PSoC4/CapSense_Processing.c **** * \details
1324:Generated_Source\PSoC4/CapSense_Processing.c **** *   This API processes the status of the CSD Slider widget (Linear and Radial).
1325:Generated_Source\PSoC4/CapSense_Processing.c **** *   It applies the hysteresis and de-bounce algorithm to the widget ignoring
1326:Generated_Source\PSoC4/CapSense_Processing.c **** *   the individual states of the sensors.
ARM GAS  C:\Users\MM1005~1\AppData\Local\Temp\ccDYJIra.s 			page 42


1327:Generated_Source\PSoC4/CapSense_Processing.c **** *
1328:Generated_Source\PSoC4/CapSense_Processing.c **** *   This API is expected to be called after each new widget scan. If it is
1329:Generated_Source\PSoC4/CapSense_Processing.c **** *   called multiple times for the same scan data, the debounce algorithm
1330:Generated_Source\PSoC4/CapSense_Processing.c **** *   will not work properly.
1331:Generated_Source\PSoC4/CapSense_Processing.c **** *
1332:Generated_Source\PSoC4/CapSense_Processing.c **** *   Slider widgets do not support the ON to OFF debounce.
1333:Generated_Source\PSoC4/CapSense_Processing.c **** *
1334:Generated_Source\PSoC4/CapSense_Processing.c **** *   This API does not update any Data Structure registers
1335:Generated_Source\PSoC4/CapSense_Processing.c **** *   except the debounce counters.
1336:Generated_Source\PSoC4/CapSense_Processing.c **** *
1337:Generated_Source\PSoC4/CapSense_Processing.c **** * \param currStatus   The current sensor status of the Slider widget.
1338:Generated_Source\PSoC4/CapSense_Processing.c **** * \param ptrFlashWdgt The pointer to the Flash Widget Object.
1339:Generated_Source\PSoC4/CapSense_Processing.c **** *
1340:Generated_Source\PSoC4/CapSense_Processing.c **** * \return Returns the status of the widget's sensors. Bit #0 - corresponds to Sensor #0.
1341:Generated_Source\PSoC4/CapSense_Processing.c **** *
1342:Generated_Source\PSoC4/CapSense_Processing.c **** *******************************************************************************/
1343:Generated_Source\PSoC4/CapSense_Processing.c **** uint32 CapSense_DpProcessSlider(uint32 currStatus, CapSense_FLASH_WD_STRUCT const *ptrFlashWdgt)
1344:Generated_Source\PSoC4/CapSense_Processing.c **** {
 922              		.loc 1 1344 0
 923              		.cfi_startproc
 924              	.LVL171:
 925 0000 F0B5     		push	{r4, r5, r6, r7, lr}
 926              		.cfi_def_cfa_offset 20
 927              		.cfi_offset 4, -20
 928              		.cfi_offset 5, -16
 929              		.cfi_offset 6, -12
 930              		.cfi_offset 7, -8
 931              		.cfi_offset 14, -4
 932 0002 4746     		mov	r7, r8
 933 0004 80B4     		push	{r7}
 934              		.cfi_def_cfa_offset 24
 935              		.cfi_offset 8, -24
 936 0006 82B0     		sub	sp, sp, #8
 937              		.cfi_def_cfa_offset 32
 938 0008 8446     		mov	ip, r0
 939              	.LVL172:
1345:Generated_Source\PSoC4/CapSense_Processing.c ****     uint32 snsCnt;
1346:Generated_Source\PSoC4/CapSense_Processing.c ****     uint32 snsMask;
1347:Generated_Source\PSoC4/CapSense_Processing.c ****     uint32 touchTh;
1348:Generated_Source\PSoC4/CapSense_Processing.c ****     uint32 newStatus = 0Lu;
1349:Generated_Source\PSoC4/CapSense_Processing.c ****     uint8 * ptrDebounceCnt;
1350:Generated_Source\PSoC4/CapSense_Processing.c ****     CapSense_RAM_SNS_STRUCT *ptrSns;
1351:Generated_Source\PSoC4/CapSense_Processing.c ****     CapSense_RAM_WD_SLIDER_STRUCT *ptrRamWdgt;
1352:Generated_Source\PSoC4/CapSense_Processing.c **** 
1353:Generated_Source\PSoC4/CapSense_Processing.c ****     #if (0u != CapSense_POS_MEDIAN_FILTER_EN)
1354:Generated_Source\PSoC4/CapSense_Processing.c ****         CapSense_SLIDER_POS_HISTORY_STRUCT *ptrHistory;
1355:Generated_Source\PSoC4/CapSense_Processing.c ****     #endif /* #if (0u != CapSense_POS_MEDIAN_FILTER_EN) */
1356:Generated_Source\PSoC4/CapSense_Processing.c **** 
1357:Generated_Source\PSoC4/CapSense_Processing.c ****     uint32 touchIdx;
1358:Generated_Source\PSoC4/CapSense_Processing.c ****     uint32 touchCnt = 0Lu;
1359:Generated_Source\PSoC4/CapSense_Processing.c ****     uint16 newPos[CapSense_NUM_CENTROIDS];
1360:Generated_Source\PSoC4/CapSense_Processing.c **** 
1361:Generated_Source\PSoC4/CapSense_Processing.c ****     snsCnt = ptrFlashWdgt->totalNumSns;
 940              		.loc 1 1361 0
 941 000a CB8A     		ldrh	r3, [r1, #22]
 942              	.LVL173:
1362:Generated_Source\PSoC4/CapSense_Processing.c ****     ptrSns = ptrFlashWdgt->ptr2SnsRam;
ARM GAS  C:\Users\MM1005~1\AppData\Local\Temp\ccDYJIra.s 			page 43


 943              		.loc 1 1362 0
 944 000c 8A68     		ldr	r2, [r1, #8]
 945              	.LVL174:
1363:Generated_Source\PSoC4/CapSense_Processing.c ****     ptrRamWdgt = ptrFlashWdgt->ptr2WdgtRam;
 946              		.loc 1 1363 0
 947 000e 4D68     		ldr	r5, [r1, #4]
 948              	.LVL175:
1364:Generated_Source\PSoC4/CapSense_Processing.c ****     ptrDebounceCnt = ptrFlashWdgt->ptr2DebounceArr;
 949              		.loc 1 1364 0
 950 0010 0869     		ldr	r0, [r1, #16]
 951              	.LVL176:
 952 0012 8046     		mov	r8, r0
 953              	.LVL177:
1365:Generated_Source\PSoC4/CapSense_Processing.c ****     
1366:Generated_Source\PSoC4/CapSense_Processing.c ****     #if (0u != CapSense_POS_MEDIAN_FILTER_EN)
1367:Generated_Source\PSoC4/CapSense_Processing.c ****         ptrHistory = ptrFlashWdgt->ptr2PosHistory;
1368:Generated_Source\PSoC4/CapSense_Processing.c ****     #endif /* #if (0u != CapSense_POS_MEDIAN_FILTER_EN) */
1369:Generated_Source\PSoC4/CapSense_Processing.c **** 
1370:Generated_Source\PSoC4/CapSense_Processing.c ****     /* Calculate touch threshold based on current slider state */
1371:Generated_Source\PSoC4/CapSense_Processing.c ****     touchTh = (0Lu == currStatus ) ?
1372:Generated_Source\PSoC4/CapSense_Processing.c ****               ((uint32)ptrRamWdgt->fingerTh + ptrRamWdgt->hysteresis) :
 954              		.loc 1 1372 0
 955 0014 6046     		mov	r0, ip
 956              	.LVL178:
 957 0016 0028     		cmp	r0, #0
 958 0018 03D1     		bne	.L61
 959              		.loc 1 1372 0 is_stmt 0 discriminator 1
 960 001a 6C88     		ldrh	r4, [r5, #2]
 961 001c A879     		ldrb	r0, [r5, #6]
 962 001e 2018     		add	r0, r4, r0
 963 0020 02E0     		b	.L62
 964              	.LVL179:
 965              	.L61:
1373:Generated_Source\PSoC4/CapSense_Processing.c ****               ((uint32)ptrRamWdgt->fingerTh - ptrRamWdgt->hysteresis);
 966              		.loc 1 1373 0 is_stmt 1 discriminator 2
 967 0022 6C88     		ldrh	r4, [r5, #2]
 968 0024 A879     		ldrb	r0, [r5, #6]
 969              	.LVL180:
1372:Generated_Source\PSoC4/CapSense_Processing.c ****               ((uint32)ptrRamWdgt->fingerTh - ptrRamWdgt->hysteresis);
 970              		.loc 1 1372 0 discriminator 2
 971 0026 201A     		sub	r0, r4, r0
 972              	.L62:
 973              	.LVL181:
1348:Generated_Source\PSoC4/CapSense_Processing.c ****     uint8 * ptrDebounceCnt;
 974              		.loc 1 1348 0
 975 0028 0024     		mov	r4, #0
1374:Generated_Source\PSoC4/CapSense_Processing.c **** 
1375:Generated_Source\PSoC4/CapSense_Processing.c ****     /* Go through all widget's sensors */
1376:Generated_Source\PSoC4/CapSense_Processing.c ****     snsMask = 1Lu;
 976              		.loc 1 1376 0
 977 002a 0126     		mov	r6, #1
1377:Generated_Source\PSoC4/CapSense_Processing.c ****     for (; snsCnt-- > 0Lu; )
 978              		.loc 1 1377 0
 979 002c 09E0     		b	.L63
 980              	.LVL182:
 981              	.L65:
1378:Generated_Source\PSoC4/CapSense_Processing.c ****     {
ARM GAS  C:\Users\MM1005~1\AppData\Local\Temp\ccDYJIra.s 			page 44


1379:Generated_Source\PSoC4/CapSense_Processing.c ****         /* Determine new potential sensor state */
1380:Generated_Source\PSoC4/CapSense_Processing.c ****         newStatus |= (ptrSns->diff > touchTh) ? snsMask : 0Lu;
 982              		.loc 1 1380 0
 983 002e D388     		ldrh	r3, [r2, #6]
 984 0030 9842     		cmp	r0, r3
 985 0032 01D3     		bcc	.L74
 986 0034 0023     		mov	r3, #0
 987 0036 00E0     		b	.L64
 988              	.L74:
 989 0038 331C     		mov	r3, r6
 990              	.L64:
 991              		.loc 1 1380 0 is_stmt 0 discriminator 4
 992 003a 1C43     		orr	r4, r3
 993              	.LVL183:
1381:Generated_Source\PSoC4/CapSense_Processing.c ****         ptrSns++;
 994              		.loc 1 1381 0 is_stmt 1 discriminator 4
 995 003c 0A32     		add	r2, r2, #10
 996              	.LVL184:
1382:Generated_Source\PSoC4/CapSense_Processing.c **** 
1383:Generated_Source\PSoC4/CapSense_Processing.c ****         snsMask <<= 1u;
 997              		.loc 1 1383 0 discriminator 4
 998 003e 7600     		lsl	r6, r6, #1
 999              	.LVL185:
1377:Generated_Source\PSoC4/CapSense_Processing.c ****     {
 1000              		.loc 1 1377 0 discriminator 4
 1001 0040 3B1C     		mov	r3, r7
 1002              	.LVL186:
 1003              	.L63:
1377:Generated_Source\PSoC4/CapSense_Processing.c ****     {
 1004              		.loc 1 1377 0 is_stmt 0
 1005 0042 5F1E     		sub	r7, r3, #1
 1006              	.LVL187:
 1007 0044 002B     		cmp	r3, #0
 1008 0046 F2D1     		bne	.L65
1384:Generated_Source\PSoC4/CapSense_Processing.c ****     }
1385:Generated_Source\PSoC4/CapSense_Processing.c **** 
1386:Generated_Source\PSoC4/CapSense_Processing.c ****     /* If widget is active, check whether debounce is needed */
1387:Generated_Source\PSoC4/CapSense_Processing.c ****     if (0Lu != newStatus)
 1009              		.loc 1 1387 0 is_stmt 1
 1010 0048 002C     		cmp	r4, #0
 1011 004a 0BD0     		beq	.L66
1388:Generated_Source\PSoC4/CapSense_Processing.c ****     {
1389:Generated_Source\PSoC4/CapSense_Processing.c ****         if (0u < (*ptrDebounceCnt))
 1012              		.loc 1 1389 0
 1013 004c 4346     		mov	r3, r8
 1014 004e 1B78     		ldrb	r3, [r3]
 1015 0050 002B     		cmp	r3, #0
 1016 0052 02D0     		beq	.L67
1390:Generated_Source\PSoC4/CapSense_Processing.c ****         {
1391:Generated_Source\PSoC4/CapSense_Processing.c ****             /* Decrement debounce counter */
1392:Generated_Source\PSoC4/CapSense_Processing.c ****             (*ptrDebounceCnt)--;
 1017              		.loc 1 1392 0
 1018 0054 013B     		sub	r3, r3, #1
 1019 0056 4246     		mov	r2, r8
 1020              	.LVL188:
 1021 0058 1370     		strb	r3, [r2]
 1022              	.L67:
ARM GAS  C:\Users\MM1005~1\AppData\Local\Temp\ccDYJIra.s 			page 45


1393:Generated_Source\PSoC4/CapSense_Processing.c ****         }
1394:Generated_Source\PSoC4/CapSense_Processing.c **** 
1395:Generated_Source\PSoC4/CapSense_Processing.c ****         if (0u == (*ptrDebounceCnt))
 1023              		.loc 1 1395 0
 1024 005a 4346     		mov	r3, r8
 1025 005c 1B78     		ldrb	r3, [r3]
 1026 005e 002B     		cmp	r3, #0
 1027 0060 04D1     		bne	.L75
 1028 0062 04E0     		b	.L68
 1029              	.LVL189:
 1030              	.L66:
1396:Generated_Source\PSoC4/CapSense_Processing.c ****         {
1397:Generated_Source\PSoC4/CapSense_Processing.c ****             /* Update slider sensor state when debounce completes */
1398:Generated_Source\PSoC4/CapSense_Processing.c ****             currStatus = newStatus;
1399:Generated_Source\PSoC4/CapSense_Processing.c ****         }
1400:Generated_Source\PSoC4/CapSense_Processing.c ****     }
1401:Generated_Source\PSoC4/CapSense_Processing.c ****     else
1402:Generated_Source\PSoC4/CapSense_Processing.c ****     {
1403:Generated_Source\PSoC4/CapSense_Processing.c ****         /* Reset debounce counter */
1404:Generated_Source\PSoC4/CapSense_Processing.c ****         *ptrDebounceCnt = ptrRamWdgt->onDebounce;
 1031              		.loc 1 1404 0
 1032 0064 EB79     		ldrb	r3, [r5, #7]
 1033 0066 4246     		mov	r2, r8
 1034              	.LVL190:
 1035 0068 1370     		strb	r3, [r2]
 1036              	.LVL191:
 1037 006a 00E0     		b	.L68
 1038              	.LVL192:
 1039              	.L75:
 1040 006c 6446     		mov	r4, ip
 1041              	.LVL193:
 1042              	.L68:
1405:Generated_Source\PSoC4/CapSense_Processing.c **** 
1406:Generated_Source\PSoC4/CapSense_Processing.c ****         /* Clear slider sensor state */
1407:Generated_Source\PSoC4/CapSense_Processing.c ****         currStatus = 0Lu;
1408:Generated_Source\PSoC4/CapSense_Processing.c ****     }
1409:Generated_Source\PSoC4/CapSense_Processing.c **** 
1410:Generated_Source\PSoC4/CapSense_Processing.c ****     /* Centroid processing */
1411:Generated_Source\PSoC4/CapSense_Processing.c **** 
1412:Generated_Source\PSoC4/CapSense_Processing.c ****     /* If there are active sensors after debounce run the centroid algorithm */
1413:Generated_Source\PSoC4/CapSense_Processing.c ****     if (0u != currStatus)
 1043              		.loc 1 1413 0
 1044 006e 002C     		cmp	r4, #0
 1045 0070 23D0     		beq	.L76
 1046 0072 0E1C     		mov	r6, r1
 1047              	.LVL194:
1414:Generated_Source\PSoC4/CapSense_Processing.c ****     {
1415:Generated_Source\PSoC4/CapSense_Processing.c ****         /* Centroid always uses the lowest finger threshold (minus hysteresis)
1416:Generated_Source\PSoC4/CapSense_Processing.c ****          * to produce same results for first and all consecutive invocations */
1417:Generated_Source\PSoC4/CapSense_Processing.c ****         touchTh = (uint32)ptrRamWdgt->fingerTh - ptrRamWdgt->hysteresis;
 1048              		.loc 1 1417 0
 1049 0074 6B88     		ldrh	r3, [r5, #2]
 1050 0076 AA79     		ldrb	r2, [r5, #6]
 1051 0078 9A1A     		sub	r2, r3, r2
 1052              	.LVL195:
1418:Generated_Source\PSoC4/CapSense_Processing.c ****         snsCnt = ptrFlashWdgt->totalNumSns;
 1053              		.loc 1 1418 0
ARM GAS  C:\Users\MM1005~1\AppData\Local\Temp\ccDYJIra.s 			page 46


 1054 007a CF8A     		ldrh	r7, [r1, #22]
 1055              	.LVL196:
1419:Generated_Source\PSoC4/CapSense_Processing.c **** 
1420:Generated_Source\PSoC4/CapSense_Processing.c ****         #if (0u != CapSense_TOTAL_DIPLEXED_SLIDERS)
1421:Generated_Source\PSoC4/CapSense_Processing.c ****             if ((0u != (ptrFlashWdgt->staticConfig & CapSense_DIPLEXING_MASK)))
1422:Generated_Source\PSoC4/CapSense_Processing.c ****             {
1423:Generated_Source\PSoC4/CapSense_Processing.c ****                 /* Run local maximum search for duplexed slider */
1424:Generated_Source\PSoC4/CapSense_Processing.c ****                 touchCnt = CapSense_DpFindLocalMaxDiplex(
1425:Generated_Source\PSoC4/CapSense_Processing.c ****                                 ptrFlashWdgt->ptr2SnsRam, snsCnt, ptrFlashWdgt->ptr2DiplexTable, to
1426:Generated_Source\PSoC4/CapSense_Processing.c **** 
1427:Generated_Source\PSoC4/CapSense_Processing.c ****                 /* Centroid calculation API requires double sensor count for the diplexed sliders. 
1428:Generated_Source\PSoC4/CapSense_Processing.c ****                 snsCnt *= 2u;
1429:Generated_Source\PSoC4/CapSense_Processing.c ****             }
1430:Generated_Source\PSoC4/CapSense_Processing.c ****             else
1431:Generated_Source\PSoC4/CapSense_Processing.c ****             {
1432:Generated_Source\PSoC4/CapSense_Processing.c ****                 /* Run local maximum search for NON-duplexed slider */
1433:Generated_Source\PSoC4/CapSense_Processing.c ****                 touchCnt = CapSense_DpFindLocalMaxSd(ptrFlashWdgt->ptr2SnsRam, snsCnt, touchTh);
1434:Generated_Source\PSoC4/CapSense_Processing.c ****             }
1435:Generated_Source\PSoC4/CapSense_Processing.c ****         #else
1436:Generated_Source\PSoC4/CapSense_Processing.c ****             /* Run local maximum search for NON-duplexed slider */
1437:Generated_Source\PSoC4/CapSense_Processing.c ****             touchCnt = CapSense_DpFindLocalMaxSd(ptrFlashWdgt->ptr2SnsRam, snsCnt, touchTh);
 1056              		.loc 1 1437 0
 1057 007c 8868     		ldr	r0, [r1, #8]
 1058 007e 391C     		mov	r1, r7
 1059              	.LVL197:
 1060 0080 FFF7FEFF 		bl	CapSense_DpFindLocalMaxSd
 1061              	.LVL198:
1438:Generated_Source\PSoC4/CapSense_Processing.c ****         #endif /* #if (0u != CapSense_TOTAL_DIPLEXED_SLIDERS) */
1439:Generated_Source\PSoC4/CapSense_Processing.c ****         
1440:Generated_Source\PSoC4/CapSense_Processing.c ****         /* If at least one touch is detected */
1441:Generated_Source\PSoC4/CapSense_Processing.c ****         if (0u != touchCnt)
 1062              		.loc 1 1441 0
 1063 0084 0028     		cmp	r0, #0
 1064 0086 22D0     		beq	.L72
1442:Generated_Source\PSoC4/CapSense_Processing.c ****         {
1443:Generated_Source\PSoC4/CapSense_Processing.c ****             /* Determine slider type and calculate new position(s) */
1444:Generated_Source\PSoC4/CapSense_Processing.c ****             #if (0u != CapSense_TOTAL_LINEAR_SLIDERS)
1445:Generated_Source\PSoC4/CapSense_Processing.c ****                 if ((CapSense_WD_TYPE_ENUM)ptrFlashWdgt->wdgtType == CapSense_WD_LINEAR_SLIDER_E)
 1065              		.loc 1 1445 0
 1066 0088 337E     		ldrb	r3, [r6, #24]
 1067 008a 022B     		cmp	r3, #2
 1068 008c 1FD1     		bne	.L72
1446:Generated_Source\PSoC4/CapSense_Processing.c ****                 {
1447:Generated_Source\PSoC4/CapSense_Processing.c ****                     touchCnt = CapSense_DpCalcLinearCentroid(
 1069              		.loc 1 1447 0
 1070 008e 316A     		ldr	r1, [r6, #32]
 1071 0090 01A8     		add	r0, sp, #4
 1072              	.LVL199:
 1073 0092 3A1C     		mov	r2, r7
 1074 0094 FFF7FEFF 		bl	CapSense_DpCalcLinearCentroid
 1075              	.LVL200:
 1076              	.LBB8:
 1077              	.LBB9:
1448:Generated_Source\PSoC4/CapSense_Processing.c ****                                     newPos, (uint32)ptrFlashWdgt->xCentroidMultiplier, snsCnt);
1449:Generated_Source\PSoC4/CapSense_Processing.c **** 
1450:Generated_Source\PSoC4/CapSense_Processing.c ****                     DpUpdateLinSlider(newPos, touchCnt, ptrFlashWdgt, ptrRamWdgt);
1451:Generated_Source\PSoC4/CapSense_Processing.c ****                 }
ARM GAS  C:\Users\MM1005~1\AppData\Local\Temp\ccDYJIra.s 			page 47


1452:Generated_Source\PSoC4/CapSense_Processing.c ****             #endif /* #if (0u != CapSense_TOTAL_LINEAR_SLIDERS) */
1453:Generated_Source\PSoC4/CapSense_Processing.c **** 
1454:Generated_Source\PSoC4/CapSense_Processing.c ****             #if (0u != CapSense_TOTAL_RADIAL_SLIDERS)
1455:Generated_Source\PSoC4/CapSense_Processing.c ****                 if ((CapSense_WD_TYPE_ENUM)ptrFlashWdgt->wdgtType == CapSense_WD_RADIAL_SLIDER_E)
1456:Generated_Source\PSoC4/CapSense_Processing.c ****                 {
1457:Generated_Source\PSoC4/CapSense_Processing.c ****                     touchCnt = CapSense_DpCalcRadialCentroid(
1458:Generated_Source\PSoC4/CapSense_Processing.c ****                                     newPos, (uint32)ptrFlashWdgt->xCentroidMultiplier, snsCnt);
1459:Generated_Source\PSoC4/CapSense_Processing.c **** 
1460:Generated_Source\PSoC4/CapSense_Processing.c ****                     DpUpdateRadSlider(newPos, touchCnt, ptrFlashWdgt, ptrRamWdgt);
1461:Generated_Source\PSoC4/CapSense_Processing.c ****                 }
1462:Generated_Source\PSoC4/CapSense_Processing.c ****             #endif /* #if (0u != CapSense_TOTAL_RADIAL_SLIDERS) */
1463:Generated_Source\PSoC4/CapSense_Processing.c ****         }
1464:Generated_Source\PSoC4/CapSense_Processing.c ****     }
1465:Generated_Source\PSoC4/CapSense_Processing.c ****     
1466:Generated_Source\PSoC4/CapSense_Processing.c ****     /* Clear not active position data slots */
1467:Generated_Source\PSoC4/CapSense_Processing.c ****     for (touchIdx = touchCnt; touchIdx < CapSense_NUM_CENTROIDS; touchIdx++)
1468:Generated_Source\PSoC4/CapSense_Processing.c ****     {
1469:Generated_Source\PSoC4/CapSense_Processing.c ****         ptrRamWdgt->position[touchIdx] = CapSense_SLIDER_POS_NONE;
1470:Generated_Source\PSoC4/CapSense_Processing.c **** 
1471:Generated_Source\PSoC4/CapSense_Processing.c ****         #if (0u != CapSense_POS_MEDIAN_FILTER_EN)
1472:Generated_Source\PSoC4/CapSense_Processing.c ****             if (NULL != ptrHistory)
1473:Generated_Source\PSoC4/CapSense_Processing.c ****             {
1474:Generated_Source\PSoC4/CapSense_Processing.c ****                 ptrHistory[touchIdx].posMedianZ1 = CapSense_SLIDER_POS_NONE;
1475:Generated_Source\PSoC4/CapSense_Processing.c ****                 ptrHistory[touchIdx].posMedianZ2 = CapSense_SLIDER_POS_NONE;
1476:Generated_Source\PSoC4/CapSense_Processing.c ****             }
1477:Generated_Source\PSoC4/CapSense_Processing.c ****         #endif /* #if (0u != CapSense_POS_MEDIAN_FILTER_EN) */
1478:Generated_Source\PSoC4/CapSense_Processing.c ****     }
1479:Generated_Source\PSoC4/CapSense_Processing.c **** 
1480:Generated_Source\PSoC4/CapSense_Processing.c ****     return currStatus;
1481:Generated_Source\PSoC4/CapSense_Processing.c **** }
1482:Generated_Source\PSoC4/CapSense_Processing.c **** #endif /* #if (0u != CapSense_SLIDER_WIDGET_EN) */
1483:Generated_Source\PSoC4/CapSense_Processing.c **** 
1484:Generated_Source\PSoC4/CapSense_Processing.c **** #if (0u != CapSense_TOTAL_LINEAR_SLIDERS)
1485:Generated_Source\PSoC4/CapSense_Processing.c **** /*******************************************************************************
1486:Generated_Source\PSoC4/CapSense_Processing.c **** * Function Name: DpUpdateLinSlider
1487:Generated_Source\PSoC4/CapSense_Processing.c **** ****************************************************************************//**
1488:Generated_Source\PSoC4/CapSense_Processing.c **** *
1489:Generated_Source\PSoC4/CapSense_Processing.c **** * \brief
1490:Generated_Source\PSoC4/CapSense_Processing.c **** *   Updates the touch status of the Linear Slider widget.
1491:Generated_Source\PSoC4/CapSense_Processing.c **** *
1492:Generated_Source\PSoC4/CapSense_Processing.c **** * \details
1493:Generated_Source\PSoC4/CapSense_Processing.c **** *   This function updates the position data of the Linear Slider
1494:Generated_Source\PSoC4/CapSense_Processing.c **** *   in the Data Structure. Also, this function runs position filters for the
1495:Generated_Source\PSoC4/CapSense_Processing.c **** *   position data if any enabled.
1496:Generated_Source\PSoC4/CapSense_Processing.c **** *
1497:Generated_Source\PSoC4/CapSense_Processing.c **** * \param newPos       The pointer to the array with the new finger position coordinates.
1498:Generated_Source\PSoC4/CapSense_Processing.c **** * \param numTouches   The number of the coordinates in the newPos array.
1499:Generated_Source\PSoC4/CapSense_Processing.c **** * \param ptrFlashWdgt The pointer to the Flash Widget Object.
1500:Generated_Source\PSoC4/CapSense_Processing.c **** * \param ptrRamWdgt   The pointer to the RAM Widget Object.
1501:Generated_Source\PSoC4/CapSense_Processing.c **** *
1502:Generated_Source\PSoC4/CapSense_Processing.c **** *******************************************************************************/
1503:Generated_Source\PSoC4/CapSense_Processing.c **** static CY_INLINE void DpUpdateLinSlider(
1504:Generated_Source\PSoC4/CapSense_Processing.c ****                         const uint16 newPos[],
1505:Generated_Source\PSoC4/CapSense_Processing.c ****                         uint32 numTouches,
1506:Generated_Source\PSoC4/CapSense_Processing.c ****                         CapSense_FLASH_WD_STRUCT const *ptrFlashWdgt,
1507:Generated_Source\PSoC4/CapSense_Processing.c ****                         CapSense_RAM_WD_SLIDER_STRUCT *ptrRamWdgt)
1508:Generated_Source\PSoC4/CapSense_Processing.c **** {
ARM GAS  C:\Users\MM1005~1\AppData\Local\Temp\ccDYJIra.s 			page 48


1509:Generated_Source\PSoC4/CapSense_Processing.c ****     uint32 touchIdx;
1510:Generated_Source\PSoC4/CapSense_Processing.c **** 
1511:Generated_Source\PSoC4/CapSense_Processing.c ****     #if (0u == DP_LINEAR_SLIDER_FILTER_EN)
1512:Generated_Source\PSoC4/CapSense_Processing.c ****         /* This parameter is unused in such configurations */
1513:Generated_Source\PSoC4/CapSense_Processing.c ****         (void)ptrFlashWdgt;
1514:Generated_Source\PSoC4/CapSense_Processing.c ****     #else
1515:Generated_Source\PSoC4/CapSense_Processing.c ****         /* Get bitmask with the enabled filters */
1516:Generated_Source\PSoC4/CapSense_Processing.c ****         uint32 filterConfig = (uint32)ptrFlashWdgt->staticConfig;
1517:Generated_Source\PSoC4/CapSense_Processing.c ****         
1518:Generated_Source\PSoC4/CapSense_Processing.c ****         #if (0u != CapSense_POS_MEDIAN_FILTER_EN)
1519:Generated_Source\PSoC4/CapSense_Processing.c ****             /* Get median filter history */
1520:Generated_Source\PSoC4/CapSense_Processing.c ****             CapSense_SLIDER_POS_HISTORY_STRUCT *ptrHistory = ptrFlashWdgt->ptr2PosHistory;
1521:Generated_Source\PSoC4/CapSense_Processing.c ****         #endif /* #if (0u != CapSense_POS_MEDIAN_FILTER_EN) */
1522:Generated_Source\PSoC4/CapSense_Processing.c ****     #endif /* #if (0u == DP_LINEAR_SLIDER_FILTER_EN) */
1523:Generated_Source\PSoC4/CapSense_Processing.c ****     
1524:Generated_Source\PSoC4/CapSense_Processing.c ****     /* Run Filter and update the position registers with the filtered data */
1525:Generated_Source\PSoC4/CapSense_Processing.c ****     for (touchIdx = 0u; touchIdx < numTouches; touchIdx++)
 1078              		.loc 1 1525 0
 1079 0098 0022     		mov	r2, #0
 1080 009a 0BE0     		b	.L70
 1081              	.LVL201:
 1082              	.L71:
1526:Generated_Source\PSoC4/CapSense_Processing.c ****     {
1527:Generated_Source\PSoC4/CapSense_Processing.c ****         #if (0u == DP_LINEAR_SLIDER_FILTER_EN)
1528:Generated_Source\PSoC4/CapSense_Processing.c ****             /* If filters are not enabled just copy the position data */
1529:Generated_Source\PSoC4/CapSense_Processing.c ****             ptrRamWdgt->position[touchIdx] = newPos[touchIdx];
 1083              		.loc 1 1529 0
 1084 009c 5300     		lsl	r3, r2, #1
 1085 009e 02A9     		add	r1, sp, #8
 1086 00a0 8C46     		mov	ip, r1
 1087 00a2 6344     		add	r3, r3, ip
 1088 00a4 043B     		sub	r3, r3, #4
 1089 00a6 1988     		ldrh	r1, [r3]
 1090 00a8 131C     		mov	r3, r2
 1091 00aa 0833     		add	r3, r3, #8
 1092 00ac 5B00     		lsl	r3, r3, #1
 1093 00ae EB18     		add	r3, r5, r3
 1094 00b0 5980     		strh	r1, [r3, #2]
1525:Generated_Source\PSoC4/CapSense_Processing.c ****     {
 1095              		.loc 1 1525 0
 1096 00b2 0132     		add	r2, r2, #1
 1097              	.LVL202:
 1098              	.L70:
 1099 00b4 9042     		cmp	r0, r2
 1100 00b6 F1D8     		bhi	.L71
 1101 00b8 09E0     		b	.L72
 1102              	.LVL203:
 1103              	.L76:
 1104              	.LBE9:
 1105              	.LBE8:
1358:Generated_Source\PSoC4/CapSense_Processing.c ****     uint16 newPos[CapSense_NUM_CENTROIDS];
 1106              		.loc 1 1358 0
 1107 00ba 0020     		mov	r0, #0
 1108              	.LVL204:
1467:Generated_Source\PSoC4/CapSense_Processing.c ****     {
 1109              		.loc 1 1467 0
 1110 00bc 07E0     		b	.L72
ARM GAS  C:\Users\MM1005~1\AppData\Local\Temp\ccDYJIra.s 			page 49


 1111              	.LVL205:
 1112              	.L73:
1469:Generated_Source\PSoC4/CapSense_Processing.c **** 
 1113              		.loc 1 1469 0 discriminator 3
 1114 00be 031C     		mov	r3, r0
 1115 00c0 0833     		add	r3, r3, #8
 1116 00c2 5B00     		lsl	r3, r3, #1
 1117 00c4 EB18     		add	r3, r5, r3
 1118 00c6 0122     		mov	r2, #1
 1119 00c8 5242     		neg	r2, r2
 1120 00ca 5A80     		strh	r2, [r3, #2]
1467:Generated_Source\PSoC4/CapSense_Processing.c ****     {
 1121              		.loc 1 1467 0 discriminator 3
 1122 00cc 0130     		add	r0, r0, #1
 1123              	.LVL206:
 1124              	.L72:
1467:Generated_Source\PSoC4/CapSense_Processing.c ****     {
 1125              		.loc 1 1467 0 is_stmt 0 discriminator 1
 1126 00ce 0028     		cmp	r0, #0
 1127 00d0 F5D0     		beq	.L73
1481:Generated_Source\PSoC4/CapSense_Processing.c **** #endif /* #if (0u != CapSense_SLIDER_WIDGET_EN) */
 1128              		.loc 1 1481 0 is_stmt 1
 1129 00d2 201C     		mov	r0, r4
 1130              	.LVL207:
 1131 00d4 02B0     		add	sp, sp, #8
 1132              		@ sp needed
 1133              	.LVL208:
 1134              	.LVL209:
 1135              	.LVL210:
 1136              	.LVL211:
 1137 00d6 04BC     		pop	{r2}
 1138 00d8 9046     		mov	r8, r2
 1139 00da F0BD     		pop	{r4, r5, r6, r7, pc}
 1140              		.cfi_endproc
 1141              	.LFE12:
 1142              		.size	CapSense_DpProcessSlider, .-CapSense_DpProcessSlider
 1143              		.section	.text.CapSense_DpProcessCsdWidgetStatus,"ax",%progbits
 1144              		.align	2
 1145              		.global	CapSense_DpProcessCsdWidgetStatus
 1146              		.code	16
 1147              		.thumb_func
 1148              		.type	CapSense_DpProcessCsdWidgetStatus, %function
 1149              	CapSense_DpProcessCsdWidgetStatus:
 1150              	.LFB8:
 936:Generated_Source\PSoC4/CapSense_Processing.c ****     uint32 sensorStatus;
 1151              		.loc 1 936 0
 1152              		.cfi_startproc
 1153              	.LVL212:
 1154 0000 38B5     		push	{r3, r4, r5, lr}
 1155              		.cfi_def_cfa_offset 16
 1156              		.cfi_offset 3, -16
 1157              		.cfi_offset 4, -12
 1158              		.cfi_offset 5, -8
 1159              		.cfi_offset 14, -4
 1160 0002 041C     		mov	r4, r0
 942:Generated_Source\PSoC4/CapSense_Processing.c ****     sensorStatus = CapSense_dsRam.snsStatus[wdgtId];
 1161              		.loc 1 942 0
ARM GAS  C:\Users\MM1005~1\AppData\Local\Temp\ccDYJIra.s 			page 50


 1162 0004 0A7E     		ldrb	r2, [r1, #24]
 1163              	.LVL213:
 943:Generated_Source\PSoC4/CapSense_Processing.c **** 
 1164              		.loc 1 943 0
 1165 0006 184B     		ldr	r3, .L85
 1166 0008 1B18     		add	r3, r3, r0
 1167 000a 1D7D     		ldrb	r5, [r3, #20]
 1168              	.LVL214:
 945:Generated_Source\PSoC4/CapSense_Processing.c ****     {
 1169              		.loc 1 945 0
 1170 000c 012A     		cmp	r2, #1
 1171 000e 04D0     		beq	.L79
 1172 0010 002A     		cmp	r2, #0
 1173 0012 0CD0     		beq	.L78
 1174 0014 032A     		cmp	r2, #3
 1175 0016 05D9     		bls	.L84
 1176 0018 09E0     		b	.L78
 1177              	.L79:
 949:Generated_Source\PSoC4/CapSense_Processing.c ****             break;
 1178              		.loc 1 949 0
 1179 001a 281C     		mov	r0, r5
 1180              	.LVL215:
 1181 001c FFF7FEFF 		bl	CapSense_DpProcessButton
 1182              	.LVL216:
 1183 0020 051C     		mov	r5, r0
 1184              	.LVL217:
 950:Generated_Source\PSoC4/CapSense_Processing.c ****     #endif /* #if (0u != CapSense_BUTTON_WIDGET_EN) */
 1185              		.loc 1 950 0
 1186 0022 07E0     		b	.L81
 1187              	.LVL218:
 1188              	.L84:
 956:Generated_Source\PSoC4/CapSense_Processing.c ****             break;
 1189              		.loc 1 956 0
 1190 0024 281C     		mov	r0, r5
 1191              	.LVL219:
 1192 0026 FFF7FEFF 		bl	CapSense_DpProcessSlider
 1193              	.LVL220:
 1194 002a 051C     		mov	r5, r0
 1195              	.LVL221:
 957:Generated_Source\PSoC4/CapSense_Processing.c ****     #endif /* #if (0u != CapSense_SLIDER_WIDGET_EN) */
 1196              		.loc 1 957 0
 1197 002c 02E0     		b	.L81
 1198              	.LVL222:
 1199              	.L78:
 979:Generated_Source\PSoC4/CapSense_Processing.c ****         break;
 1200              		.loc 1 979 0 discriminator 1
 1201 002e 0020     		mov	r0, #0
 1202              	.LVL223:
 1203 0030 FFF7FEFF 		bl	CyHalt
 1204              	.LVL224:
 1205              	.L81:
 983:Generated_Source\PSoC4/CapSense_Processing.c **** 
 1206              		.loc 1 983 0
 1207 0034 0C4B     		ldr	r3, .L85
 1208 0036 1B19     		add	r3, r3, r4
 1209 0038 1D75     		strb	r5, [r3, #20]
 986:Generated_Source\PSoC4/CapSense_Processing.c ****     wdStatusMask = CapSense_GET_WDGT_STATUS_MASK(wdgtId);
ARM GAS  C:\Users\MM1005~1\AppData\Local\Temp\ccDYJIra.s 			page 51


 1210              		.loc 1 986 0
 1211 003a 6309     		lsr	r3, r4, #5
 1212              	.LVL225:
 987:Generated_Source\PSoC4/CapSense_Processing.c **** 
 1213              		.loc 1 987 0
 1214 003c 1F22     		mov	r2, #31
 1215 003e 1440     		and	r4, r2
 1216              	.LVL226:
 1217 0040 1E3A     		sub	r2, r2, #30
 1218 0042 A240     		lsl	r2, r2, r4
 1219 0044 141C     		mov	r4, r2
 1220              	.LVL227:
 990:Generated_Source\PSoC4/CapSense_Processing.c ****     {
 1221              		.loc 1 990 0
 1222 0046 002D     		cmp	r5, #0
 1223 0048 06D1     		bne	.L82
 992:Generated_Source\PSoC4/CapSense_Processing.c ****     }
 1224              		.loc 1 992 0
 1225 004a 0749     		ldr	r1, .L85
 1226 004c 0433     		add	r3, r3, #4
 1227              	.LVL228:
 1228 004e 9B00     		lsl	r3, r3, #2
 1229              	.LVL229:
 1230 0050 5A58     		ldr	r2, [r3, r1]
 1231              	.LVL230:
 1232 0052 A243     		bic	r2, r4
 1233 0054 5A50     		str	r2, [r3, r1]
 1234 0056 05E0     		b	.L77
 1235              	.LVL231:
 1236              	.L82:
 996:Generated_Source\PSoC4/CapSense_Processing.c ****     }
 1237              		.loc 1 996 0
 1238 0058 034A     		ldr	r2, .L85
 1239              	.LVL232:
 1240 005a 0433     		add	r3, r3, #4
 1241              	.LVL233:
 1242 005c 9B00     		lsl	r3, r3, #2
 1243              	.LVL234:
 1244 005e 9958     		ldr	r1, [r3, r2]
 1245 0060 0C43     		orr	r4, r1
 1246              	.LVL235:
 1247 0062 9C50     		str	r4, [r3, r2]
 1248              	.L77:
 998:Generated_Source\PSoC4/CapSense_Processing.c **** #endif /* #if (0u != CapSense_TOTAL_CSD_WIDGETS) */
 1249              		.loc 1 998 0
 1250              		@ sp needed
 1251              	.LVL236:
 1252 0064 38BD     		pop	{r3, r4, r5, pc}
 1253              	.L86:
 1254 0066 C046     		.align	2
 1255              	.L85:
 1256 0068 00000000 		.word	CapSense_dsRam
 1257              		.cfi_endproc
 1258              	.LFE8:
 1259              		.size	CapSense_DpProcessCsdWidgetStatus, .-CapSense_DpProcessCsdWidgetStatus
 1260              		.text
 1261              	.Letext0:
ARM GAS  C:\Users\MM1005~1\AppData\Local\Temp\ccDYJIra.s 			page 52


 1262              		.file 2 "Generated_Source\\PSoC4\\cytypes.h"
 1263              		.file 3 "Generated_Source\\PSoC4\\CapSense_Configuration.h"
 1264              		.file 4 "Generated_Source\\PSoC4\\CapSense_SmartSense_LL.h"
 1265              		.file 5 "Generated_Source\\PSoC4\\CapSense_Structure.h"
 1266              		.file 6 "c:\\program files (x86)\\cypress\\psoc creator\\4.0\\psoc creator\\import\\gnu\\arm\\4.9.
 1267              		.file 7 "Generated_Source\\PSoC4\\CapSense_Filter.h"
 1268              		.file 8 "c:\\program files (x86)\\cypress\\psoc creator\\4.0\\psoc creator\\import\\gnu\\arm\\4.9.
 1269              		.file 9 "Generated_Source\\PSoC4\\CyLib.h"
 1270              		.file 10 "Generated_Source\\PSoC4\\CapSense_Centroid_LL.h"