ARM GAS  C:\Users\TB1014~1\AppData\Local\Temp\ccLivewv.s 			page 1


   1              		.cpu cortex-m0plus
   2              		.fpu softvfp
   3              		.eabi_attribute 20, 1
   4              		.eabi_attribute 21, 1
   5              		.eabi_attribute 23, 3
   6              		.eabi_attribute 24, 1
   7              		.eabi_attribute 25, 1
   8              		.eabi_attribute 26, 1
   9              		.eabi_attribute 30, 1
  10              		.eabi_attribute 34, 0
  11              		.eabi_attribute 18, 4
  12              		.code	16
  13              		.file	"CapSense_Filter.c"
  14              		.text
  15              	.Ltext0:
  16              		.cfi_sections	.debug_frame
  17              		.section	.text.CapSense_FtInitializeBaselineChannel,"ax",%progbits
  18              		.align	2
  19              		.global	CapSense_FtInitializeBaselineChannel
  20              		.code	16
  21              		.thumb_func
  22              		.type	CapSense_FtInitializeBaselineChannel, %function
  23              	CapSense_FtInitializeBaselineChannel:
  24              	.LFB10:
  25              		.file 1 "Generated_Source\\PSoC4\\CapSense_Filter.c"
   1:Generated_Source\PSoC4/CapSense_Filter.c **** /***************************************************************************//**
   2:Generated_Source\PSoC4/CapSense_Filter.c **** * \file     CapSense_Filter.c
   3:Generated_Source\PSoC4/CapSense_Filter.c **** * \version  3.10
   4:Generated_Source\PSoC4/CapSense_Filter.c **** *
   5:Generated_Source\PSoC4/CapSense_Filter.c **** * \brief    This file contains the implementation source code to implement all 
   6:Generated_Source\PSoC4/CapSense_Filter.c **** *           firmware filters.
   7:Generated_Source\PSoC4/CapSense_Filter.c **** *
   8:Generated_Source\PSoC4/CapSense_Filter.c **** * \see      CapSense P4 v3.10 Datasheet
   9:Generated_Source\PSoC4/CapSense_Filter.c **** * 
  10:Generated_Source\PSoC4/CapSense_Filter.c **** *//*****************************************************************************
  11:Generated_Source\PSoC4/CapSense_Filter.c **** * Copyright (2016), Cypress Semiconductor Corporation.
  12:Generated_Source\PSoC4/CapSense_Filter.c **** ********************************************************************************
  13:Generated_Source\PSoC4/CapSense_Filter.c **** * This software is owned by Cypress Semiconductor Corporation (Cypress) and is
  14:Generated_Source\PSoC4/CapSense_Filter.c **** * protected by and subject to worldwide patent protection (United States and
  15:Generated_Source\PSoC4/CapSense_Filter.c **** * foreign), United States copyright laws and international treaty provisions.
  16:Generated_Source\PSoC4/CapSense_Filter.c **** * Cypress hereby grants to licensee a personal, non-exclusive, non-transferable
  17:Generated_Source\PSoC4/CapSense_Filter.c **** * license to copy, use, modify, create derivative works of, and compile the
  18:Generated_Source\PSoC4/CapSense_Filter.c **** * Cypress Source Code and derivative works for the sole purpose of creating
  19:Generated_Source\PSoC4/CapSense_Filter.c **** * custom software in support of licensee product to be used only in conjunction
  20:Generated_Source\PSoC4/CapSense_Filter.c **** * with a Cypress integrated circuit as specified in the applicable agreement.
  21:Generated_Source\PSoC4/CapSense_Filter.c **** * Any reproduction, modification, translation, compilation, or representation of
  22:Generated_Source\PSoC4/CapSense_Filter.c **** * this software except as specified above is prohibited without the express
  23:Generated_Source\PSoC4/CapSense_Filter.c **** * written permission of Cypress.
  24:Generated_Source\PSoC4/CapSense_Filter.c **** *
  25:Generated_Source\PSoC4/CapSense_Filter.c **** * Disclaimer: CYPRESS MAKES NO WARRANTY OF ANY KIND, EXPRESS OR IMPLIED, WITH
  26:Generated_Source\PSoC4/CapSense_Filter.c **** * REGARD TO THIS MATERIAL, INCLUDING, BUT NOT LIMITED TO, THE IMPLIED
  27:Generated_Source\PSoC4/CapSense_Filter.c **** * WARRANTIES OF MERCHANTABILITY AND FITNESS FOR A PARTICULAR PURPOSE.
  28:Generated_Source\PSoC4/CapSense_Filter.c **** * Cypress reserves the right to make changes without further notice to the
  29:Generated_Source\PSoC4/CapSense_Filter.c **** * materials described herein. Cypress does not assume any liability arising out
  30:Generated_Source\PSoC4/CapSense_Filter.c **** * of the application or use of any product or circuit described herein. Cypress
  31:Generated_Source\PSoC4/CapSense_Filter.c **** * does not authorize its products for use as critical components in life-support
  32:Generated_Source\PSoC4/CapSense_Filter.c **** * systems where a malfunction or failure may reasonably be expected to result in
ARM GAS  C:\Users\TB1014~1\AppData\Local\Temp\ccLivewv.s 			page 2


  33:Generated_Source\PSoC4/CapSense_Filter.c **** * significant injury to the user. The inclusion of Cypress' product in a life-
  34:Generated_Source\PSoC4/CapSense_Filter.c **** * support systems application implies that the manufacturer assumes all risk of
  35:Generated_Source\PSoC4/CapSense_Filter.c **** * such use and in doing so indemnifies Cypress against all charges. Use may be
  36:Generated_Source\PSoC4/CapSense_Filter.c **** * limited by and subject to the applicable Cypress software license agreement.
  37:Generated_Source\PSoC4/CapSense_Filter.c **** *******************************************************************************/
  38:Generated_Source\PSoC4/CapSense_Filter.c **** 
  39:Generated_Source\PSoC4/CapSense_Filter.c **** #include "CapSense_Filter.h"
  40:Generated_Source\PSoC4/CapSense_Filter.c **** #include "CapSense_Configuration.h"
  41:Generated_Source\PSoC4/CapSense_Filter.c **** 
  42:Generated_Source\PSoC4/CapSense_Filter.c **** #if (0 != (CapSense_CSD_AUTOTUNE & CapSense_CSD_SS_TH_EN))
  43:Generated_Source\PSoC4/CapSense_Filter.c ****     #include "CapSense_SmartSense_LL.h"
  44:Generated_Source\PSoC4/CapSense_Filter.c **** #endif /* (0 != (CapSense_CSD_AUTOTUNE & CapSense_CSD_SS_TH_EN)) */
  45:Generated_Source\PSoC4/CapSense_Filter.c **** 
  46:Generated_Source\PSoC4/CapSense_Filter.c **** #if (CapSense_ENABLE == CapSense_SELF_TEST_EN)
  47:Generated_Source\PSoC4/CapSense_Filter.c ****     #include "CapSense_SelfTest.h"
  48:Generated_Source\PSoC4/CapSense_Filter.c **** #endif
  49:Generated_Source\PSoC4/CapSense_Filter.c **** 
  50:Generated_Source\PSoC4/CapSense_Filter.c **** /*******************************************************************************
  51:Generated_Source\PSoC4/CapSense_Filter.c **** * Function Name: CapSense_FtInitialize
  52:Generated_Source\PSoC4/CapSense_Filter.c **** ****************************************************************************//**
  53:Generated_Source\PSoC4/CapSense_Filter.c **** *
  54:Generated_Source\PSoC4/CapSense_Filter.c **** * \brief
  55:Generated_Source\PSoC4/CapSense_Filter.c **** *    Initializes all the firmware filter history, except the baseline filter.
  56:Generated_Source\PSoC4/CapSense_Filter.c **** *
  57:Generated_Source\PSoC4/CapSense_Filter.c **** * \details
  58:Generated_Source\PSoC4/CapSense_Filter.c **** *    Initializes all the firmware filter history, except the baseline filter.
  59:Generated_Source\PSoC4/CapSense_Filter.c **** *
  60:Generated_Source\PSoC4/CapSense_Filter.c **** *******************************************************************************/
  61:Generated_Source\PSoC4/CapSense_Filter.c **** void CapSense_FtInitialize(void)
  62:Generated_Source\PSoC4/CapSense_Filter.c **** {
  63:Generated_Source\PSoC4/CapSense_Filter.c ****     uint32 widgetId;
  64:Generated_Source\PSoC4/CapSense_Filter.c ****     uint32 sensorId;
  65:Generated_Source\PSoC4/CapSense_Filter.c ****     uint32 sensorsNumber;
  66:Generated_Source\PSoC4/CapSense_Filter.c **** 
  67:Generated_Source\PSoC4/CapSense_Filter.c ****     CapSense_FLASH_WD_STRUCT const *ptrWidget;
  68:Generated_Source\PSoC4/CapSense_Filter.c ****     CapSense_RAM_SNS_STRUCT *ptrSensor = NULL;
  69:Generated_Source\PSoC4/CapSense_Filter.c ****     CapSense_PTR_FILTER_VARIANT ptrFilterHistObj;
  70:Generated_Source\PSoC4/CapSense_Filter.c ****     
  71:Generated_Source\PSoC4/CapSense_Filter.c ****     #if CapSense_CSD_AUTOTUNE & CapSense_CSD_SS_TH_EN
  72:Generated_Source\PSoC4/CapSense_Filter.c ****         CapSense_RAM_WD_BASE_STRUCT *ptrWidgetRam;
  73:Generated_Source\PSoC4/CapSense_Filter.c ****         SMARTSENSE_CSD_NOISE_ENVELOPE_STRUCT *ptrNoiseEnvelope = NULL;
  74:Generated_Source\PSoC4/CapSense_Filter.c ****     #endif /* #if CapSense_CSD_AUTOTUNE & CapSense_CSD_SS_TH_EN */
  75:Generated_Source\PSoC4/CapSense_Filter.c ****     
  76:Generated_Source\PSoC4/CapSense_Filter.c ****     for (widgetId = CapSense_TOTAL_WIDGETS; widgetId-- > 0u;)
  77:Generated_Source\PSoC4/CapSense_Filter.c ****     {
  78:Generated_Source\PSoC4/CapSense_Filter.c ****         ptrWidget = &CapSense_dsFlash.wdgtArray[widgetId];
  79:Generated_Source\PSoC4/CapSense_Filter.c ****         
  80:Generated_Source\PSoC4/CapSense_Filter.c ****         #if CapSense_CSD_AUTOTUNE & CapSense_CSD_SS_TH_EN
  81:Generated_Source\PSoC4/CapSense_Filter.c ****             ptrWidgetRam = ptrWidget->ptr2WdgtRam;
  82:Generated_Source\PSoC4/CapSense_Filter.c ****         #endif /* #if CapSense_CSD_AUTOTUNE & CapSense_CSD_SS_TH_EN */
  83:Generated_Source\PSoC4/CapSense_Filter.c **** 
  84:Generated_Source\PSoC4/CapSense_Filter.c ****         /* Find total amount of sensors in specified widget */   
  85:Generated_Source\PSoC4/CapSense_Filter.c ****         sensorsNumber = CapSense_GET_SNS_CNT_BY_PTR(ptrWidget);    
  86:Generated_Source\PSoC4/CapSense_Filter.c ****     
  87:Generated_Source\PSoC4/CapSense_Filter.c ****         for (sensorId = sensorsNumber; sensorId-- > 0u;) 
  88:Generated_Source\PSoC4/CapSense_Filter.c ****         {
  89:Generated_Source\PSoC4/CapSense_Filter.c ****             /* Find pointer to specified sensor object */
ARM GAS  C:\Users\TB1014~1\AppData\Local\Temp\ccLivewv.s 			page 3


  90:Generated_Source\PSoC4/CapSense_Filter.c ****             ptrSensor = ptrWidget->ptr2SnsRam;
  91:Generated_Source\PSoC4/CapSense_Filter.c ****             ptrSensor = &ptrSensor[sensorId];
  92:Generated_Source\PSoC4/CapSense_Filter.c ****                         
  93:Generated_Source\PSoC4/CapSense_Filter.c ****             /* Find pointer to to specified filter sensor object */
  94:Generated_Source\PSoC4/CapSense_Filter.c ****             ptrFilterHistObj.ptr = ptrWidget->ptr2FltrHistory;
  95:Generated_Source\PSoC4/CapSense_Filter.c **** 
  96:Generated_Source\PSoC4/CapSense_Filter.c ****             #if CapSense_CSD_AUTOTUNE & CapSense_CSD_SS_TH_EN
  97:Generated_Source\PSoC4/CapSense_Filter.c ****                 /* Find pointer to specified noise envelope sensor object */
  98:Generated_Source\PSoC4/CapSense_Filter.c ****                 ptrNoiseEnvelope = ptrWidget->ptr2NoiseEnvlp;
  99:Generated_Source\PSoC4/CapSense_Filter.c ****                 ptrNoiseEnvelope = &ptrNoiseEnvelope[sensorId];    
 100:Generated_Source\PSoC4/CapSense_Filter.c ****             #endif /* #if CapSense_CSD_AUTOTUNE & CapSense_CSD_SS_TH_EN */
 101:Generated_Source\PSoC4/CapSense_Filter.c ****             
 102:Generated_Source\PSoC4/CapSense_Filter.c ****             if ((CapSense_WD_TYPE_ENUM)ptrWidget->wdgtType != CapSense_WD_PROXIMITY_E)
 103:Generated_Source\PSoC4/CapSense_Filter.c ****             {
 104:Generated_Source\PSoC4/CapSense_Filter.c ****                 #if (CapSense_REGULAR_SENSOR_EN)             
 105:Generated_Source\PSoC4/CapSense_Filter.c ****                     ptrFilterHistObj.ptrRegular = &ptrFilterHistObj.ptrRegular[sensorId];
 106:Generated_Source\PSoC4/CapSense_Filter.c ****                 #endif /* (CapSense_REGULAR_SENSOR_EN) */
 107:Generated_Source\PSoC4/CapSense_Filter.c ****             }
 108:Generated_Source\PSoC4/CapSense_Filter.c ****             else
 109:Generated_Source\PSoC4/CapSense_Filter.c ****             {
 110:Generated_Source\PSoC4/CapSense_Filter.c ****                 #if (CapSense_PROXIMITY_SENSOR_EN)             
 111:Generated_Source\PSoC4/CapSense_Filter.c ****                     ptrFilterHistObj.ptrProx = &ptrFilterHistObj.ptrProx[sensorId];
 112:Generated_Source\PSoC4/CapSense_Filter.c ****                 #endif /* (CapSense_PROXIMITY_SENSOR_EN) */
 113:Generated_Source\PSoC4/CapSense_Filter.c ****             }
 114:Generated_Source\PSoC4/CapSense_Filter.c ****             
 115:Generated_Source\PSoC4/CapSense_Filter.c ****             #if (CapSense_REGULAR_RC_IIR_FILTER_EN || CapSense_PROX_RC_IIR_FILTER_EN)
 116:Generated_Source\PSoC4/CapSense_Filter.c ****                 CapSense_InitializeIIRInternal(ptrFilterHistObj, ptrSensor, (uint32)ptrWidget->wdgt
 117:Generated_Source\PSoC4/CapSense_Filter.c ****             #endif /* (CapSense_REGULAR_RC_IIR_FILTER_EN || CapSense_PROX_RC_IIR_FILTER_EN) */     
 118:Generated_Source\PSoC4/CapSense_Filter.c **** 
 119:Generated_Source\PSoC4/CapSense_Filter.c ****             #if (CapSense_REGULAR_RC_MEDIAN_FILTER_EN || CapSense_PROX_RC_MEDIAN_FILTER_EN)
 120:Generated_Source\PSoC4/CapSense_Filter.c ****                 CapSense_InitializeMedianInternal(ptrFilterHistObj, ptrSensor, (uint32)ptrWidget->w
 121:Generated_Source\PSoC4/CapSense_Filter.c ****             #endif /* (CapSense_REGULAR_RC_MEDIAN_FILTER_EN || CapSense_PROX_RC_MEDIAN_FILTER_EN) *
 122:Generated_Source\PSoC4/CapSense_Filter.c **** 
 123:Generated_Source\PSoC4/CapSense_Filter.c ****             #if (CapSense_REGULAR_RC_AVERAGE_FILTER_EN || CapSense_PROX_RC_AVERAGE_FILTER_EN)
 124:Generated_Source\PSoC4/CapSense_Filter.c ****                 CapSense_InitializeAverageInternal(ptrFilterHistObj, ptrSensor, (uint32)ptrWidget->
 125:Generated_Source\PSoC4/CapSense_Filter.c ****             #endif /* (CapSense_REGULAR_RC_AVERAGE_FILTER_EN || CapSense_PROX_RC_AVERAGE_FILTER_EN)
 126:Generated_Source\PSoC4/CapSense_Filter.c ****             
 127:Generated_Source\PSoC4/CapSense_Filter.c ****             #if (CapSense_CSD_AUTOTUNE & CapSense_CSD_SS_TH_EN)
 128:Generated_Source\PSoC4/CapSense_Filter.c ****                 if (CapSense_SENSE_METHOD_CSD_E ==
 129:Generated_Source\PSoC4/CapSense_Filter.c ****                     CapSense_GET_SENSE_METHOD(&CapSense_dsFlash.wdgtArray[widgetId]))
 130:Generated_Source\PSoC4/CapSense_Filter.c ****                 {
 131:Generated_Source\PSoC4/CapSense_Filter.c ****                     SmartSense_InitializeNoiseEnvelope(ptrSensor->raw[0u], ptrWidgetRam->sigPFC, pt
 132:Generated_Source\PSoC4/CapSense_Filter.c ****                 }
 133:Generated_Source\PSoC4/CapSense_Filter.c ****             #endif /* #if CapSense_CSD_AUTOTUNE & CapSense_CSD_SS_TH_EN */
 134:Generated_Source\PSoC4/CapSense_Filter.c ****         }
 135:Generated_Source\PSoC4/CapSense_Filter.c ****     }   
 136:Generated_Source\PSoC4/CapSense_Filter.c **** }
 137:Generated_Source\PSoC4/CapSense_Filter.c **** 
 138:Generated_Source\PSoC4/CapSense_Filter.c **** 
 139:Generated_Source\PSoC4/CapSense_Filter.c **** /*******************************************************************************
 140:Generated_Source\PSoC4/CapSense_Filter.c **** * Function Name: CapSense_UpdateAllBaselines
 141:Generated_Source\PSoC4/CapSense_Filter.c **** ****************************************************************************//**
 142:Generated_Source\PSoC4/CapSense_Filter.c **** *
 143:Generated_Source\PSoC4/CapSense_Filter.c **** * \brief    
 144:Generated_Source\PSoC4/CapSense_Filter.c **** *  Updates the baseline for all sensors in all widgets.
 145:Generated_Source\PSoC4/CapSense_Filter.c **** *
 146:Generated_Source\PSoC4/CapSense_Filter.c **** * \details
ARM GAS  C:\Users\TB1014~1\AppData\Local\Temp\ccLivewv.s 			page 4


 147:Generated_Source\PSoC4/CapSense_Filter.c **** *  Updates the baseline for all sensors in all widgets. Baseline updating is a 
 148:Generated_Source\PSoC4/CapSense_Filter.c **** *  part of data processing performed by the process functions. So, no need to 
 149:Generated_Source\PSoC4/CapSense_Filter.c **** *  call this function except a specific process flow is implemented.
 150:Generated_Source\PSoC4/CapSense_Filter.c **** *  
 151:Generated_Source\PSoC4/CapSense_Filter.c **** *  This function ignores the value of the wdgtEnable register. Multiple calling 
 152:Generated_Source\PSoC4/CapSense_Filter.c **** *  of this function (or any other function with a baseline updating task) 
 153:Generated_Source\PSoC4/CapSense_Filter.c **** *  without scanning leads to unexpected behavior.
 154:Generated_Source\PSoC4/CapSense_Filter.c **** *
 155:Generated_Source\PSoC4/CapSense_Filter.c **** *  If Self-test library is enabled this function executes baseline duplication
 156:Generated_Source\PSoC4/CapSense_Filter.c **** *  test. Refer to CapSense_CheckBaselineDuplication() for details.
 157:Generated_Source\PSoC4/CapSense_Filter.c **** *
 158:Generated_Source\PSoC4/CapSense_Filter.c **** * \return   
 159:Generated_Source\PSoC4/CapSense_Filter.c **** *  Returns the status of the update baseline operation of all widgets:
 160:Generated_Source\PSoC4/CapSense_Filter.c **** *  - CYRET_SUCCESS if operation was successfully completed
 161:Generated_Source\PSoC4/CapSense_Filter.c **** *  - CYRET_BAD_DATA if baseline processing failed
 162:Generated_Source\PSoC4/CapSense_Filter.c **** *
 163:Generated_Source\PSoC4/CapSense_Filter.c **** *******************************************************************************/
 164:Generated_Source\PSoC4/CapSense_Filter.c **** cystatus CapSense_UpdateAllBaselines(void)
 165:Generated_Source\PSoC4/CapSense_Filter.c **** {
 166:Generated_Source\PSoC4/CapSense_Filter.c ****     uint32 widgetId; 
 167:Generated_Source\PSoC4/CapSense_Filter.c ****     cystatus bslnStatus = CYRET_SUCCESS;
 168:Generated_Source\PSoC4/CapSense_Filter.c ****     
 169:Generated_Source\PSoC4/CapSense_Filter.c ****     for(widgetId = CapSense_TOTAL_WIDGETS; widgetId-- > 0u;)
 170:Generated_Source\PSoC4/CapSense_Filter.c ****     {            
 171:Generated_Source\PSoC4/CapSense_Filter.c ****         bslnStatus |= CapSense_UpdateWidgetBaseline(widgetId);       
 172:Generated_Source\PSoC4/CapSense_Filter.c ****     }      
 173:Generated_Source\PSoC4/CapSense_Filter.c ****     
 174:Generated_Source\PSoC4/CapSense_Filter.c ****     return(bslnStatus);
 175:Generated_Source\PSoC4/CapSense_Filter.c **** }
 176:Generated_Source\PSoC4/CapSense_Filter.c ****   
 177:Generated_Source\PSoC4/CapSense_Filter.c **** 
 178:Generated_Source\PSoC4/CapSense_Filter.c **** /*******************************************************************************
 179:Generated_Source\PSoC4/CapSense_Filter.c **** * Function Name: CapSense_UpdateWidgetBaseline
 180:Generated_Source\PSoC4/CapSense_Filter.c **** ****************************************************************************//**
 181:Generated_Source\PSoC4/CapSense_Filter.c **** *
 182:Generated_Source\PSoC4/CapSense_Filter.c **** * \brief    
 183:Generated_Source\PSoC4/CapSense_Filter.c **** *  Updates the baseline for all sensors in a widget specified by input parameter.
 184:Generated_Source\PSoC4/CapSense_Filter.c **** *
 185:Generated_Source\PSoC4/CapSense_Filter.c **** * \details  
 186:Generated_Source\PSoC4/CapSense_Filter.c **** *  This function performs exactly the same tasks as 
 187:Generated_Source\PSoC4/CapSense_Filter.c **** *  CapSense_UpdateAllBaselines(), but only for a specified widget.
 188:Generated_Source\PSoC4/CapSense_Filter.c **** *  
 189:Generated_Source\PSoC4/CapSense_Filter.c **** *  This function ignores the value of the wdgtEnable register. Multiple calling
 190:Generated_Source\PSoC4/CapSense_Filter.c **** *  of this function (or any other function with a baseline updating task) 
 191:Generated_Source\PSoC4/CapSense_Filter.c **** *  without scanning leads to unexpected behavior.
 192:Generated_Source\PSoC4/CapSense_Filter.c **** *
 193:Generated_Source\PSoC4/CapSense_Filter.c **** *  If Self-test library is enabled this function executes baseline duplication
 194:Generated_Source\PSoC4/CapSense_Filter.c **** *  test. Refer to CapSense_CheckBaselineDuplication() for details.
 195:Generated_Source\PSoC4/CapSense_Filter.c **** *
 196:Generated_Source\PSoC4/CapSense_Filter.c **** * \param widgetId 
 197:Generated_Source\PSoC4/CapSense_Filter.c **** *  Specify the ID number of the widget to update the baseline of all sensors
 198:Generated_Source\PSoC4/CapSense_Filter.c **** *  in the widget.
 199:Generated_Source\PSoC4/CapSense_Filter.c **** *  A macro for the widget ID can be found in the 
 200:Generated_Source\PSoC4/CapSense_Filter.c **** *  CapSense Configuration header file defined as 
 201:Generated_Source\PSoC4/CapSense_Filter.c **** *  CapSense_<WidgetName>_WDGT_ID.
 202:Generated_Source\PSoC4/CapSense_Filter.c **** *
 203:Generated_Source\PSoC4/CapSense_Filter.c **** * \return   
ARM GAS  C:\Users\TB1014~1\AppData\Local\Temp\ccLivewv.s 			page 5


 204:Generated_Source\PSoC4/CapSense_Filter.c **** *  Returns the status of the specified widget update baseline operation:
 205:Generated_Source\PSoC4/CapSense_Filter.c **** *  - CYRET_SUCCESS if operation was successfully completed
 206:Generated_Source\PSoC4/CapSense_Filter.c **** *  - CYRET_BAD_DATA if baseline processing failed
 207:Generated_Source\PSoC4/CapSense_Filter.c **** *
 208:Generated_Source\PSoC4/CapSense_Filter.c **** *******************************************************************************/
 209:Generated_Source\PSoC4/CapSense_Filter.c **** cystatus CapSense_UpdateWidgetBaseline(uint32 widgetId)
 210:Generated_Source\PSoC4/CapSense_Filter.c **** {
 211:Generated_Source\PSoC4/CapSense_Filter.c ****     uint32 sensorId;       
 212:Generated_Source\PSoC4/CapSense_Filter.c ****     uint32 sensorsNumber;  
 213:Generated_Source\PSoC4/CapSense_Filter.c **** 
 214:Generated_Source\PSoC4/CapSense_Filter.c ****     CapSense_FLASH_WD_STRUCT const *ptrWidget = &CapSense_dsFlash.wdgtArray[widgetId];    
 215:Generated_Source\PSoC4/CapSense_Filter.c ****     cystatus bslnStatus = CYRET_SUCCESS;    
 216:Generated_Source\PSoC4/CapSense_Filter.c ****     
 217:Generated_Source\PSoC4/CapSense_Filter.c ****     /* Find total amount of sensors in specified widget */   
 218:Generated_Source\PSoC4/CapSense_Filter.c ****     sensorsNumber = CapSense_GET_SNS_CNT_BY_PTR(ptrWidget);    
 219:Generated_Source\PSoC4/CapSense_Filter.c ****     
 220:Generated_Source\PSoC4/CapSense_Filter.c ****     for(sensorId = sensorsNumber; sensorId-- > 0u;)
 221:Generated_Source\PSoC4/CapSense_Filter.c ****     {
 222:Generated_Source\PSoC4/CapSense_Filter.c ****         bslnStatus |= CapSense_UpdateSensorBaseline(widgetId, sensorId);    
 223:Generated_Source\PSoC4/CapSense_Filter.c ****     }
 224:Generated_Source\PSoC4/CapSense_Filter.c **** 
 225:Generated_Source\PSoC4/CapSense_Filter.c ****     return(bslnStatus);
 226:Generated_Source\PSoC4/CapSense_Filter.c **** }
 227:Generated_Source\PSoC4/CapSense_Filter.c **** 
 228:Generated_Source\PSoC4/CapSense_Filter.c **** 
 229:Generated_Source\PSoC4/CapSense_Filter.c **** /*******************************************************************************
 230:Generated_Source\PSoC4/CapSense_Filter.c **** * Function Name: CapSense_UpdateSensorBaseline
 231:Generated_Source\PSoC4/CapSense_Filter.c **** ****************************************************************************//**
 232:Generated_Source\PSoC4/CapSense_Filter.c **** *
 233:Generated_Source\PSoC4/CapSense_Filter.c **** * \brief    
 234:Generated_Source\PSoC4/CapSense_Filter.c **** *  Updates the baseline for a sensor in a widget specified by input parameters.
 235:Generated_Source\PSoC4/CapSense_Filter.c **** *
 236:Generated_Source\PSoC4/CapSense_Filter.c **** * \details  
 237:Generated_Source\PSoC4/CapSense_Filter.c **** *  This function performs exactly the same tasks as
 238:Generated_Source\PSoC4/CapSense_Filter.c **** *  CapSense_UpdateAllBaselines() and 
 239:Generated_Source\PSoC4/CapSense_Filter.c **** *  CapSense_UpdateWidgetBaseline() but only for a specified sensor.
 240:Generated_Source\PSoC4/CapSense_Filter.c **** *  
 241:Generated_Source\PSoC4/CapSense_Filter.c **** *  This function ignores the value of the wdgtEnable register. Multiple calling 
 242:Generated_Source\PSoC4/CapSense_Filter.c **** *  of this function (or any other function with a baseline updating task) 
 243:Generated_Source\PSoC4/CapSense_Filter.c **** *  without scanning leads to unexpected behavior.
 244:Generated_Source\PSoC4/CapSense_Filter.c **** *
 245:Generated_Source\PSoC4/CapSense_Filter.c **** *  If Self-test library is enabled this function executes baseline duplication
 246:Generated_Source\PSoC4/CapSense_Filter.c **** *  test. Refer to CapSense_CheckBaselineDuplication() for details.
 247:Generated_Source\PSoC4/CapSense_Filter.c **** *
 248:Generated_Source\PSoC4/CapSense_Filter.c **** * \param   widgetId 
 249:Generated_Source\PSoC4/CapSense_Filter.c **** *  Specify the ID number of the widget to update the baseline of the sensor 
 250:Generated_Source\PSoC4/CapSense_Filter.c **** *  specified by the sensorId argument.
 251:Generated_Source\PSoC4/CapSense_Filter.c **** *  A macro for the widget ID can be found in the CapSense Configuration header 
 252:Generated_Source\PSoC4/CapSense_Filter.c **** *  file defined as CapSense_<WidgetName>_WDGT_ID. 
 253:Generated_Source\PSoC4/CapSense_Filter.c **** *
 254:Generated_Source\PSoC4/CapSense_Filter.c **** * \param   sensorId 
 255:Generated_Source\PSoC4/CapSense_Filter.c **** *  Specify the ID number of the sensor within the widget to update its baseline.
 256:Generated_Source\PSoC4/CapSense_Filter.c **** *  A macro for the sensor ID within a specified widget can be found in the 
 257:Generated_Source\PSoC4/CapSense_Filter.c **** *  CapSense Configuration header file defined as 
 258:Generated_Source\PSoC4/CapSense_Filter.c **** *  CapSense_<WidgetName>_SNS<SensorNumber>_ID
 259:Generated_Source\PSoC4/CapSense_Filter.c **** *
 260:Generated_Source\PSoC4/CapSense_Filter.c **** * \return   
ARM GAS  C:\Users\TB1014~1\AppData\Local\Temp\ccLivewv.s 			page 6


 261:Generated_Source\PSoC4/CapSense_Filter.c **** *  Returns the status of the specified sensor update baseline operation:
 262:Generated_Source\PSoC4/CapSense_Filter.c **** *  - CYRET_SUCCESS if operation was successfully completed
 263:Generated_Source\PSoC4/CapSense_Filter.c **** *  - CYRET_BAD_DATA if baseline processing failed
 264:Generated_Source\PSoC4/CapSense_Filter.c **** *
 265:Generated_Source\PSoC4/CapSense_Filter.c **** *******************************************************************************/
 266:Generated_Source\PSoC4/CapSense_Filter.c **** cystatus CapSense_UpdateSensorBaseline(uint32 widgetId, uint32 sensorId)
 267:Generated_Source\PSoC4/CapSense_Filter.c **** {    
 268:Generated_Source\PSoC4/CapSense_Filter.c ****     uint32 result = CYRET_SUCCESS;
 269:Generated_Source\PSoC4/CapSense_Filter.c ****     
 270:Generated_Source\PSoC4/CapSense_Filter.c ****     CapSense_RAM_SNS_STRUCT *ptrSensor = NULL;    
 271:Generated_Source\PSoC4/CapSense_Filter.c ****     CapSense_FLASH_WD_STRUCT const *ptrWidget = &CapSense_dsFlash.wdgtArray[widgetId];    
 272:Generated_Source\PSoC4/CapSense_Filter.c ****     CapSense_RAM_WD_BASE_STRUCT *ptrWidgetRam = ptrWidget->ptr2WdgtRam;   
 273:Generated_Source\PSoC4/CapSense_Filter.c **** 
 274:Generated_Source\PSoC4/CapSense_Filter.c ****     /* Find pointer to specified sensor object */     
 275:Generated_Source\PSoC4/CapSense_Filter.c ****     ptrSensor = ptrWidget->ptr2SnsRam;
 276:Generated_Source\PSoC4/CapSense_Filter.c ****     ptrSensor = &ptrSensor[sensorId];
 277:Generated_Source\PSoC4/CapSense_Filter.c ****     result = CapSense_FtUpdateBaseline(ptrWidgetRam, ptrSensor, (uint32)ptrWidget->wdgtType);
 278:Generated_Source\PSoC4/CapSense_Filter.c ****     
 279:Generated_Source\PSoC4/CapSense_Filter.c ****     #if (CapSense_ENABLE == CapSense_TST_BSLN_DUPLICATION_EN)
 280:Generated_Source\PSoC4/CapSense_Filter.c ****         if (CYRET_SUCCESS != result)
 281:Generated_Source\PSoC4/CapSense_Filter.c ****         {
 282:Generated_Source\PSoC4/CapSense_Filter.c ****             result = CYRET_BAD_DATA;
 283:Generated_Source\PSoC4/CapSense_Filter.c ****             CapSense_UpdateTestResultBaselineDuplication(widgetId, sensorId);           
 284:Generated_Source\PSoC4/CapSense_Filter.c ****         }
 285:Generated_Source\PSoC4/CapSense_Filter.c ****     #endif /* (CapSense_ENABLE == CapSense_TST_BSLN_DUPLICATION_EN) */
 286:Generated_Source\PSoC4/CapSense_Filter.c **** 
 287:Generated_Source\PSoC4/CapSense_Filter.c ****     return result;
 288:Generated_Source\PSoC4/CapSense_Filter.c **** }
 289:Generated_Source\PSoC4/CapSense_Filter.c **** 
 290:Generated_Source\PSoC4/CapSense_Filter.c **** /*******************************************************************************
 291:Generated_Source\PSoC4/CapSense_Filter.c **** * Function Name: CapSense_FtUpdateBaseline
 292:Generated_Source\PSoC4/CapSense_Filter.c **** ****************************************************************************//**
 293:Generated_Source\PSoC4/CapSense_Filter.c **** *
 294:Generated_Source\PSoC4/CapSense_Filter.c **** * \brief
 295:Generated_Source\PSoC4/CapSense_Filter.c **** *  Updates the baseline for a sensor specified by an input parameter.
 296:Generated_Source\PSoC4/CapSense_Filter.c **** *
 297:Generated_Source\PSoC4/CapSense_Filter.c **** * \details
 298:Generated_Source\PSoC4/CapSense_Filter.c **** *  Check a matching of present baseline and its inverse duplication. If they 
 299:Generated_Source\PSoC4/CapSense_Filter.c **** *  match then updates the baseline for a sensor specified by an input parameter.  
 300:Generated_Source\PSoC4/CapSense_Filter.c **** *  If don't match the function return CapSense_TST_BSLN_DUPLICATION
 301:Generated_Source\PSoC4/CapSense_Filter.c **** *  result and don't update baseline.
 302:Generated_Source\PSoC4/CapSense_Filter.c **** *
 303:Generated_Source\PSoC4/CapSense_Filter.c **** * \param    ptrWidgetRam
 304:Generated_Source\PSoC4/CapSense_Filter.c **** *  The pointer to the widget RAM structure where all the widget parameters
 305:Generated_Source\PSoC4/CapSense_Filter.c **** *  are stored.
 306:Generated_Source\PSoC4/CapSense_Filter.c **** *
 307:Generated_Source\PSoC4/CapSense_Filter.c **** * \param    ptrSensor
 308:Generated_Source\PSoC4/CapSense_Filter.c **** *  The pointer to the sensor RAM structure where all the sensor parameters
 309:Generated_Source\PSoC4/CapSense_Filter.c **** *  are stored.
 310:Generated_Source\PSoC4/CapSense_Filter.c **** *
 311:Generated_Source\PSoC4/CapSense_Filter.c **** * \param    wdType
 312:Generated_Source\PSoC4/CapSense_Filter.c **** *  Specifies the type of a widget.
 313:Generated_Source\PSoC4/CapSense_Filter.c **** *
 314:Generated_Source\PSoC4/CapSense_Filter.c **** * \return   
 315:Generated_Source\PSoC4/CapSense_Filter.c **** *  Returns a status indicating whether the baseline has been updated:
 316:Generated_Source\PSoC4/CapSense_Filter.c **** *  - CYRET_SUCCESS if baseline updating was successful;
 317:Generated_Source\PSoC4/CapSense_Filter.c **** *  - CapSense_PROCESS_BASELINE_FAILED if present sensor's any channel
ARM GAS  C:\Users\TB1014~1\AppData\Local\Temp\ccLivewv.s 			page 7


 318:Generated_Source\PSoC4/CapSense_Filter.c **** *    baseline and its inversion doesn't matched
 319:Generated_Source\PSoC4/CapSense_Filter.c **** *
 320:Generated_Source\PSoC4/CapSense_Filter.c **** *******************************************************************************/
 321:Generated_Source\PSoC4/CapSense_Filter.c **** uint32 CapSense_FtUpdateBaseline(
 322:Generated_Source\PSoC4/CapSense_Filter.c ****                                 CapSense_RAM_WD_BASE_STRUCT *ptrWidgetRam,
 323:Generated_Source\PSoC4/CapSense_Filter.c ****                                 CapSense_RAM_SNS_STRUCT *ptrSensor, 
 324:Generated_Source\PSoC4/CapSense_Filter.c ****                                 uint32 wdType)
 325:Generated_Source\PSoC4/CapSense_Filter.c **** {         
 326:Generated_Source\PSoC4/CapSense_Filter.c ****     uint32 sign;
 327:Generated_Source\PSoC4/CapSense_Filter.c ****     uint32 difference;        
 328:Generated_Source\PSoC4/CapSense_Filter.c ****     uint32 channel;
 329:Generated_Source\PSoC4/CapSense_Filter.c ****     uint32 result = CYRET_SUCCESS;
 330:Generated_Source\PSoC4/CapSense_Filter.c ****     
 331:Generated_Source\PSoC4/CapSense_Filter.c ****     #if (CapSense_TOTAL_WIDGETS)  
 332:Generated_Source\PSoC4/CapSense_Filter.c ****         uint32 history;
 333:Generated_Source\PSoC4/CapSense_Filter.c ****     #endif /* (CapSense_TOTAL_WIDGETS) */    
 334:Generated_Source\PSoC4/CapSense_Filter.c ****     
 335:Generated_Source\PSoC4/CapSense_Filter.c ****     /* Apply baseline to every channel in sensor */
 336:Generated_Source\PSoC4/CapSense_Filter.c ****     for(channel = CapSense_NUM_SCAN_FREQS; channel-- > 0u;) 
 337:Generated_Source\PSoC4/CapSense_Filter.c ****     {               
 338:Generated_Source\PSoC4/CapSense_Filter.c ****         #if (CapSense_ENABLE == CapSense_TST_BSLN_DUPLICATION_EN)
 339:Generated_Source\PSoC4/CapSense_Filter.c ****             if (ptrSensor->bslnInv[channel] != ((uint16) ~(ptrSensor->bsln[channel])))
 340:Generated_Source\PSoC4/CapSense_Filter.c ****             {
 341:Generated_Source\PSoC4/CapSense_Filter.c ****                 result = CapSense_PROCESS_BASELINE_FAILED;
 342:Generated_Source\PSoC4/CapSense_Filter.c ****             }
 343:Generated_Source\PSoC4/CapSense_Filter.c ****             else
 344:Generated_Source\PSoC4/CapSense_Filter.c ****             {
 345:Generated_Source\PSoC4/CapSense_Filter.c ****         #endif /* (CapSense_ENABLE == CapSense_TST_BSLN_DUPLICATION_EN) */
 346:Generated_Source\PSoC4/CapSense_Filter.c **** 
 347:Generated_Source\PSoC4/CapSense_Filter.c ****         /* Calculate signal value and its sign */
 348:Generated_Source\PSoC4/CapSense_Filter.c ****         if(ptrSensor->raw[channel] >= ptrSensor->bsln[channel])
 349:Generated_Source\PSoC4/CapSense_Filter.c ****         {
 350:Generated_Source\PSoC4/CapSense_Filter.c ****             difference = (uint32)ptrSensor->raw[channel] - (uint32)ptrSensor->bsln[channel];
 351:Generated_Source\PSoC4/CapSense_Filter.c ****             sign = 1u;
 352:Generated_Source\PSoC4/CapSense_Filter.c ****             ptrSensor->negBslnRstCnt[channel] = 0u;
 353:Generated_Source\PSoC4/CapSense_Filter.c ****         }
 354:Generated_Source\PSoC4/CapSense_Filter.c ****         else
 355:Generated_Source\PSoC4/CapSense_Filter.c ****         {
 356:Generated_Source\PSoC4/CapSense_Filter.c ****             difference = (uint32)ptrSensor->bsln[channel] - (uint32)ptrSensor->raw[channel];
 357:Generated_Source\PSoC4/CapSense_Filter.c ****             sign = 0u;
 358:Generated_Source\PSoC4/CapSense_Filter.c ****         }     
 359:Generated_Source\PSoC4/CapSense_Filter.c ****         
 360:Generated_Source\PSoC4/CapSense_Filter.c ****         /* Reset baseline if condition is met */ 
 361:Generated_Source\PSoC4/CapSense_Filter.c ****         if((sign == 0u) && (difference > (uint32) ptrWidgetRam->nNoiseTh))
 362:Generated_Source\PSoC4/CapSense_Filter.c ****         {
 363:Generated_Source\PSoC4/CapSense_Filter.c ****             if(ptrSensor->negBslnRstCnt[channel] >= ptrWidgetRam->lowBslnRst)
 364:Generated_Source\PSoC4/CapSense_Filter.c ****             {                
 365:Generated_Source\PSoC4/CapSense_Filter.c ****                 CapSense_FtInitializeBaselineChannel(ptrSensor, wdType, channel);             
 366:Generated_Source\PSoC4/CapSense_Filter.c ****             }
 367:Generated_Source\PSoC4/CapSense_Filter.c ****             else
 368:Generated_Source\PSoC4/CapSense_Filter.c ****             {
 369:Generated_Source\PSoC4/CapSense_Filter.c ****                 ptrSensor->negBslnRstCnt[channel]++;
 370:Generated_Source\PSoC4/CapSense_Filter.c ****             }
 371:Generated_Source\PSoC4/CapSense_Filter.c ****         }
 372:Generated_Source\PSoC4/CapSense_Filter.c ****         else
 373:Generated_Source\PSoC4/CapSense_Filter.c ****         {
 374:Generated_Source\PSoC4/CapSense_Filter.c ****             #if (!CapSense_SENSOR_AUTO_RESET_EN)
ARM GAS  C:\Users\TB1014~1\AppData\Local\Temp\ccLivewv.s 			page 8


 375:Generated_Source\PSoC4/CapSense_Filter.c ****                 /* Update baseline only if signal is in range between noiseThreshold and negativeno
 376:Generated_Source\PSoC4/CapSense_Filter.c ****                 if ((difference <= (uint32)ptrWidgetRam->noiseTh) ||
 377:Generated_Source\PSoC4/CapSense_Filter.c ****                     ((difference < (uint32) ptrWidgetRam->nNoiseTh) && (sign == 0u)))
 378:Generated_Source\PSoC4/CapSense_Filter.c ****                 {
 379:Generated_Source\PSoC4/CapSense_Filter.c ****             #endif /* (CapSense_CSD_AUTO_RESET == CapSense_CSD_AUTO_RESET_DISABLE) */
 380:Generated_Source\PSoC4/CapSense_Filter.c ****             
 381:Generated_Source\PSoC4/CapSense_Filter.c ****             #if (CapSense_BASELINE_TYPE == CapSense_IIR_BASELINE)  
 382:Generated_Source\PSoC4/CapSense_Filter.c ****                 /* Calculate baseline value */
 383:Generated_Source\PSoC4/CapSense_Filter.c ****                 if ((CapSense_WD_TYPE_ENUM)wdType != CapSense_WD_PROXIMITY_E)
 384:Generated_Source\PSoC4/CapSense_Filter.c ****                 {
 385:Generated_Source\PSoC4/CapSense_Filter.c ****                     #if (CapSense_REGULAR_SENSOR_EN) 
 386:Generated_Source\PSoC4/CapSense_Filter.c ****                         #if (CapSense_REGULAR_IIR_BL_TYPE == CapSense_IIR_FILTER_PERFORMANCE)      
 387:Generated_Source\PSoC4/CapSense_Filter.c ****                             history = (uint32) ptrSensor->bsln[channel] << 8u; 
 388:Generated_Source\PSoC4/CapSense_Filter.c ****                             history |= ptrSensor->bslnExt[channel];
 389:Generated_Source\PSoC4/CapSense_Filter.c ****                         #else
 390:Generated_Source\PSoC4/CapSense_Filter.c ****                             history = ptrSensor->bsln[channel];                                    
 391:Generated_Source\PSoC4/CapSense_Filter.c ****                         #endif /* (CapSense_REGULAR_IIR_BL_TYPE == CapSense_IIR_FILTER_PERFORMANCE)
 392:Generated_Source\PSoC4/CapSense_Filter.c ****                     
 393:Generated_Source\PSoC4/CapSense_Filter.c ****                         history =  CapSense_FtIIR1stOrder(
 394:Generated_Source\PSoC4/CapSense_Filter.c ****                                         (uint32)ptrSensor->raw[channel],
 395:Generated_Source\PSoC4/CapSense_Filter.c ****                                         history, 
 396:Generated_Source\PSoC4/CapSense_Filter.c ****                                         CapSense_REGULAR_IIR_BL_N, 
 397:Generated_Source\PSoC4/CapSense_Filter.c ****                                         CapSense_REGULAR_IIR_BL_SHIFT);
 398:Generated_Source\PSoC4/CapSense_Filter.c ****                                                    
 399:Generated_Source\PSoC4/CapSense_Filter.c ****                         #if (CapSense_REGULAR_IIR_BL_TYPE == CapSense_IIR_FILTER_PERFORMANCE)      
 400:Generated_Source\PSoC4/CapSense_Filter.c ****                             ptrSensor->bsln[channel] = LO16(history >> 8u);
 401:Generated_Source\PSoC4/CapSense_Filter.c ****                             ptrSensor->bslnExt[channel] = LO8(history);
 402:Generated_Source\PSoC4/CapSense_Filter.c ****                         #else
 403:Generated_Source\PSoC4/CapSense_Filter.c ****                             ptrSensor->bsln[channel] = LO16(history);
 404:Generated_Source\PSoC4/CapSense_Filter.c ****                         #endif /* (CapSense_REGULAR_IIR_BL_TYPE == CapSense_IIR_FILTER_PERFORMANCE)
 405:Generated_Source\PSoC4/CapSense_Filter.c ****                     #endif /* (CapSense_REGULAR_SENSOR_EN) */
 406:Generated_Source\PSoC4/CapSense_Filter.c ****                 }
 407:Generated_Source\PSoC4/CapSense_Filter.c ****                 else 
 408:Generated_Source\PSoC4/CapSense_Filter.c ****                 {
 409:Generated_Source\PSoC4/CapSense_Filter.c ****                     #if (CapSense_PROXIMITY_SENSOR_EN)     
 410:Generated_Source\PSoC4/CapSense_Filter.c ****                         #if (CapSense_PROX_IIR_BL_TYPE == CapSense_IIR_FILTER_PERFORMANCE)         
 411:Generated_Source\PSoC4/CapSense_Filter.c ****                             history = (uint32) ptrSensor->bsln[channel] << 8u; 
 412:Generated_Source\PSoC4/CapSense_Filter.c ****                             history |= ptrSensor->bslnExt[channel];
 413:Generated_Source\PSoC4/CapSense_Filter.c ****                         #else
 414:Generated_Source\PSoC4/CapSense_Filter.c ****                             history = (uint32) ptrSensor->bsln[channel];                           
 415:Generated_Source\PSoC4/CapSense_Filter.c ****                         #endif /* (CapSense_PROX_IIR_BL_TYPE == CapSense_IIR_FILTER_PERFORMANCE) */
 416:Generated_Source\PSoC4/CapSense_Filter.c ****                         
 417:Generated_Source\PSoC4/CapSense_Filter.c ****                         history = CapSense_FtIIR1stOrder((uint32)ptrSensor->raw[channel], history, 
 418:Generated_Source\PSoC4/CapSense_Filter.c ****                         
 419:Generated_Source\PSoC4/CapSense_Filter.c ****                         #if (CapSense_PROX_IIR_BL_TYPE == CapSense_IIR_FILTER_PERFORMANCE)         
 420:Generated_Source\PSoC4/CapSense_Filter.c ****                             ptrSensor->bsln[channel] = LO16(history >> 8u);
 421:Generated_Source\PSoC4/CapSense_Filter.c ****                             ptrSensor->bslnExt[channel] = LO8(history);
 422:Generated_Source\PSoC4/CapSense_Filter.c ****                         #else
 423:Generated_Source\PSoC4/CapSense_Filter.c ****                             ptrSensor->bsln[channel] = LO16(history);
 424:Generated_Source\PSoC4/CapSense_Filter.c ****                         #endif /* (CapSense_PROX_IIR_BL_TYPE == CapSense_IIR_FILTER_PERFORMANCE) */
 425:Generated_Source\PSoC4/CapSense_Filter.c ****                     #endif /* (CapSense_PROX_SENSOR_EN)   */
 426:Generated_Source\PSoC4/CapSense_Filter.c ****                 }
 427:Generated_Source\PSoC4/CapSense_Filter.c ****             #else /* (CapSense_CSD_BASELINE_TYPE == CapSense_IIR_BASELINE)  */
 428:Generated_Source\PSoC4/CapSense_Filter.c ****                 
 429:Generated_Source\PSoC4/CapSense_Filter.c ****                 /******************************************************************
 430:Generated_Source\PSoC4/CapSense_Filter.c ****                 * This is the place where the bucket algorithm should be implemented.
 431:Generated_Source\PSoC4/CapSense_Filter.c ****                 * The bucket method will be implemented in future component version.
ARM GAS  C:\Users\TB1014~1\AppData\Local\Temp\ccLivewv.s 			page 9


 432:Generated_Source\PSoC4/CapSense_Filter.c ****                 *******************************************************************/
 433:Generated_Source\PSoC4/CapSense_Filter.c ****                 
 434:Generated_Source\PSoC4/CapSense_Filter.c ****             #endif /* (CapSense_CSD_BASELINE_TYPE == CapSense_IIR_BASELINE)  */
 435:Generated_Source\PSoC4/CapSense_Filter.c ****                     
 436:Generated_Source\PSoC4/CapSense_Filter.c ****             #if (!CapSense_SENSOR_AUTO_RESET_EN)
 437:Generated_Source\PSoC4/CapSense_Filter.c ****                 }
 438:Generated_Source\PSoC4/CapSense_Filter.c ****             #endif /* (!CapSense_SENSOR_AUTO_RESET_EN) */
 439:Generated_Source\PSoC4/CapSense_Filter.c ****         }
 440:Generated_Source\PSoC4/CapSense_Filter.c ****                 
 441:Generated_Source\PSoC4/CapSense_Filter.c ****         #if (CapSense_ENABLE == CapSense_TST_BSLN_DUPLICATION_EN)
 442:Generated_Source\PSoC4/CapSense_Filter.c ****             /* Update baseline inversion of every channel in sensor */    
 443:Generated_Source\PSoC4/CapSense_Filter.c ****             ptrSensor->bslnInv[channel] = ~(ptrSensor->bsln[channel]);
 444:Generated_Source\PSoC4/CapSense_Filter.c ****             }
 445:Generated_Source\PSoC4/CapSense_Filter.c ****         #endif /* (CapSense_ENABLE == CapSense_TST_BSLN_DUPLICATION_EN) */
 446:Generated_Source\PSoC4/CapSense_Filter.c **** 
 447:Generated_Source\PSoC4/CapSense_Filter.c ****     }
 448:Generated_Source\PSoC4/CapSense_Filter.c ****     return result;    
 449:Generated_Source\PSoC4/CapSense_Filter.c **** }
 450:Generated_Source\PSoC4/CapSense_Filter.c **** 
 451:Generated_Source\PSoC4/CapSense_Filter.c **** 
 452:Generated_Source\PSoC4/CapSense_Filter.c **** /*******************************************************************************
 453:Generated_Source\PSoC4/CapSense_Filter.c **** * Function Name: CapSense_InitializeAllBaselines
 454:Generated_Source\PSoC4/CapSense_Filter.c **** ****************************************************************************//**
 455:Generated_Source\PSoC4/CapSense_Filter.c **** *
 456:Generated_Source\PSoC4/CapSense_Filter.c **** * \brief    
 457:Generated_Source\PSoC4/CapSense_Filter.c **** *  Initializes (or re-initialize) the baseline of all sensors of all widgets.
 458:Generated_Source\PSoC4/CapSense_Filter.c **** *
 459:Generated_Source\PSoC4/CapSense_Filter.c **** * \details  
 460:Generated_Source\PSoC4/CapSense_Filter.c **** *  Initializes the baseline for all sensors of all widgets. Also, this function
 461:Generated_Source\PSoC4/CapSense_Filter.c **** *  can be used to re-initialize baselines. CapSense_Start() calls this 
 462:Generated_Source\PSoC4/CapSense_Filter.c **** *  API as part of CapSense operation initialization.
 463:Generated_Source\PSoC4/CapSense_Filter.c **** *
 464:Generated_Source\PSoC4/CapSense_Filter.c **** *******************************************************************************/
 465:Generated_Source\PSoC4/CapSense_Filter.c **** void CapSense_InitializeAllBaselines(void)
 466:Generated_Source\PSoC4/CapSense_Filter.c **** {
 467:Generated_Source\PSoC4/CapSense_Filter.c ****     uint32 widgetId;    
 468:Generated_Source\PSoC4/CapSense_Filter.c ****     
 469:Generated_Source\PSoC4/CapSense_Filter.c ****     for(widgetId = CapSense_TOTAL_WIDGETS; widgetId-- > 0u;)
 470:Generated_Source\PSoC4/CapSense_Filter.c ****     {
 471:Generated_Source\PSoC4/CapSense_Filter.c ****         CapSense_InitializeWidgetBaseline(widgetId); 
 472:Generated_Source\PSoC4/CapSense_Filter.c ****     }
 473:Generated_Source\PSoC4/CapSense_Filter.c **** }
 474:Generated_Source\PSoC4/CapSense_Filter.c **** 
 475:Generated_Source\PSoC4/CapSense_Filter.c **** 
 476:Generated_Source\PSoC4/CapSense_Filter.c **** /*******************************************************************************
 477:Generated_Source\PSoC4/CapSense_Filter.c **** * Function Name: CapSense_InitializeWidgetBaseline
 478:Generated_Source\PSoC4/CapSense_Filter.c **** ****************************************************************************//**
 479:Generated_Source\PSoC4/CapSense_Filter.c **** *
 480:Generated_Source\PSoC4/CapSense_Filter.c **** * \brief    
 481:Generated_Source\PSoC4/CapSense_Filter.c **** *  Initializes (or re-initialize) the baseline of all sensors in a widget 
 482:Generated_Source\PSoC4/CapSense_Filter.c **** *  specified by input parameter. 
 483:Generated_Source\PSoC4/CapSense_Filter.c **** *
 484:Generated_Source\PSoC4/CapSense_Filter.c **** * \details  
 485:Generated_Source\PSoC4/CapSense_Filter.c **** *  Initializes (or re-initializes) the baseline for all sensors of the 
 486:Generated_Source\PSoC4/CapSense_Filter.c **** *  specified widget.
 487:Generated_Source\PSoC4/CapSense_Filter.c **** *
 488:Generated_Source\PSoC4/CapSense_Filter.c **** * \param  widgetId 
ARM GAS  C:\Users\TB1014~1\AppData\Local\Temp\ccLivewv.s 			page 10


 489:Generated_Source\PSoC4/CapSense_Filter.c **** *  Specify the ID number of a widget to initialize the baseline of all sensors
 490:Generated_Source\PSoC4/CapSense_Filter.c **** *  in the widget. 
 491:Generated_Source\PSoC4/CapSense_Filter.c **** *  A macro for the widget ID can be found in the 
 492:Generated_Source\PSoC4/CapSense_Filter.c **** *  CapSense Configuration header file defined as 
 493:Generated_Source\PSoC4/CapSense_Filter.c **** *  CapSense_<WidgetName>_WDGT_ID.
 494:Generated_Source\PSoC4/CapSense_Filter.c **** *
 495:Generated_Source\PSoC4/CapSense_Filter.c **** *******************************************************************************/
 496:Generated_Source\PSoC4/CapSense_Filter.c **** void CapSense_InitializeWidgetBaseline(uint32 widgetId)
 497:Generated_Source\PSoC4/CapSense_Filter.c **** {   
 498:Generated_Source\PSoC4/CapSense_Filter.c ****     uint32 sensorId;
 499:Generated_Source\PSoC4/CapSense_Filter.c ****     uint32 sensorsNumber;
 500:Generated_Source\PSoC4/CapSense_Filter.c ****   
 501:Generated_Source\PSoC4/CapSense_Filter.c ****     CapSense_FLASH_WD_STRUCT const *ptrWidget = &CapSense_dsFlash.wdgtArray[widgetId];
 502:Generated_Source\PSoC4/CapSense_Filter.c **** 
 503:Generated_Source\PSoC4/CapSense_Filter.c ****     /* Find total amount of sensors in specified widget */   
 504:Generated_Source\PSoC4/CapSense_Filter.c ****     sensorsNumber = CapSense_GET_SNS_CNT_BY_PTR(ptrWidget);    
 505:Generated_Source\PSoC4/CapSense_Filter.c ****     
 506:Generated_Source\PSoC4/CapSense_Filter.c ****     for(sensorId = sensorsNumber; sensorId-- > 0u;)
 507:Generated_Source\PSoC4/CapSense_Filter.c ****     {
 508:Generated_Source\PSoC4/CapSense_Filter.c ****         CapSense_InitializeSensorBaseline(widgetId, sensorId);   
 509:Generated_Source\PSoC4/CapSense_Filter.c ****     }
 510:Generated_Source\PSoC4/CapSense_Filter.c **** }
 511:Generated_Source\PSoC4/CapSense_Filter.c **** 
 512:Generated_Source\PSoC4/CapSense_Filter.c **** 
 513:Generated_Source\PSoC4/CapSense_Filter.c **** /*******************************************************************************
 514:Generated_Source\PSoC4/CapSense_Filter.c **** * Function Name: CapSense_InitializeSensorBaseline
 515:Generated_Source\PSoC4/CapSense_Filter.c **** ****************************************************************************//**
 516:Generated_Source\PSoC4/CapSense_Filter.c **** *
 517:Generated_Source\PSoC4/CapSense_Filter.c **** * \brief
 518:Generated_Source\PSoC4/CapSense_Filter.c **** *  Initializes (or re-initialize) the baseline of a sensor in a widget specified
 519:Generated_Source\PSoC4/CapSense_Filter.c **** *  by input parameters.
 520:Generated_Source\PSoC4/CapSense_Filter.c **** *
 521:Generated_Source\PSoC4/CapSense_Filter.c **** * \details  
 522:Generated_Source\PSoC4/CapSense_Filter.c **** *  Initializes (or re-initializes) the baseline for a specified sensor within
 523:Generated_Source\PSoC4/CapSense_Filter.c **** *  a specified widget.
 524:Generated_Source\PSoC4/CapSense_Filter.c **** *
 525:Generated_Source\PSoC4/CapSense_Filter.c **** * \param    widgetId 
 526:Generated_Source\PSoC4/CapSense_Filter.c **** *  Specify the ID number of a widget to initialize the baseline of all sensors
 527:Generated_Source\PSoC4/CapSense_Filter.c **** *  in the widget.
 528:Generated_Source\PSoC4/CapSense_Filter.c **** *  A macro for the widget ID can be found in the 
 529:Generated_Source\PSoC4/CapSense_Filter.c **** *  CapSense Configuration header file defined as 
 530:Generated_Source\PSoC4/CapSense_Filter.c **** *  CapSense_<WidgetName>_WDGT_ID.
 531:Generated_Source\PSoC4/CapSense_Filter.c **** *  
 532:Generated_Source\PSoC4/CapSense_Filter.c **** * \param    sensorId 
 533:Generated_Source\PSoC4/CapSense_Filter.c **** *  Specify the ID number of the sensor within the widget to initialize its 
 534:Generated_Source\PSoC4/CapSense_Filter.c **** *  baseline.
 535:Generated_Source\PSoC4/CapSense_Filter.c **** *  A macro for the sensor ID within a specified widget can be found in the 
 536:Generated_Source\PSoC4/CapSense_Filter.c **** *  CapSense Configuration header file defined as 
 537:Generated_Source\PSoC4/CapSense_Filter.c **** *  CapSense_<WidgetName>_SNS<SensorNumber>_ID
 538:Generated_Source\PSoC4/CapSense_Filter.c **** *
 539:Generated_Source\PSoC4/CapSense_Filter.c **** *******************************************************************************/
 540:Generated_Source\PSoC4/CapSense_Filter.c **** void CapSense_InitializeSensorBaseline(uint32 widgetId, uint32 sensorId)
 541:Generated_Source\PSoC4/CapSense_Filter.c **** {      
 542:Generated_Source\PSoC4/CapSense_Filter.c ****     CapSense_RAM_SNS_STRUCT *ptrSensor = NULL;    
 543:Generated_Source\PSoC4/CapSense_Filter.c ****     CapSense_FLASH_WD_STRUCT const *ptrWidget = NULL;
 544:Generated_Source\PSoC4/CapSense_Filter.c ****     ptrWidget = &CapSense_dsFlash.wdgtArray[widgetId];
 545:Generated_Source\PSoC4/CapSense_Filter.c **** 
ARM GAS  C:\Users\TB1014~1\AppData\Local\Temp\ccLivewv.s 			page 11


 546:Generated_Source\PSoC4/CapSense_Filter.c ****     /* Find pointer to specified sensor object */     
 547:Generated_Source\PSoC4/CapSense_Filter.c ****     ptrSensor = ptrWidget->ptr2SnsRam;
 548:Generated_Source\PSoC4/CapSense_Filter.c ****     ptrSensor = &ptrSensor[sensorId];
 549:Generated_Source\PSoC4/CapSense_Filter.c **** 
 550:Generated_Source\PSoC4/CapSense_Filter.c ****     CapSense_FtInitializeBaseline(ptrSensor, (uint32)ptrWidget->wdgtType);
 551:Generated_Source\PSoC4/CapSense_Filter.c **** }
 552:Generated_Source\PSoC4/CapSense_Filter.c **** 
 553:Generated_Source\PSoC4/CapSense_Filter.c **** 
 554:Generated_Source\PSoC4/CapSense_Filter.c **** /*******************************************************************************
 555:Generated_Source\PSoC4/CapSense_Filter.c **** * Function Name: CapSense_FtInitializeBaseline
 556:Generated_Source\PSoC4/CapSense_Filter.c **** ****************************************************************************//**
 557:Generated_Source\PSoC4/CapSense_Filter.c **** *
 558:Generated_Source\PSoC4/CapSense_Filter.c **** * \brief    Initializes the baseline history for a sensor indicated by an input
 559:Generated_Source\PSoC4/CapSense_Filter.c **** *           parameter.
 560:Generated_Source\PSoC4/CapSense_Filter.c **** *
 561:Generated_Source\PSoC4/CapSense_Filter.c **** * \details  Initializes the baseline history for a sensor indicated by an input
 562:Generated_Source\PSoC4/CapSense_Filter.c **** *           parameter.
 563:Generated_Source\PSoC4/CapSense_Filter.c **** *
 564:Generated_Source\PSoC4/CapSense_Filter.c **** * \param    *ptrSensor The pointer to the sensor RAM object.
 565:Generated_Source\PSoC4/CapSense_Filter.c **** * \param    wdType     Specifies the type of a widget.
 566:Generated_Source\PSoC4/CapSense_Filter.c **** *
 567:Generated_Source\PSoC4/CapSense_Filter.c **** *******************************************************************************/
 568:Generated_Source\PSoC4/CapSense_Filter.c **** CY_INLINE void CapSense_FtInitializeBaseline(CapSense_RAM_SNS_STRUCT *ptrSensor, uint32 wdType) 
 569:Generated_Source\PSoC4/CapSense_Filter.c **** {
 570:Generated_Source\PSoC4/CapSense_Filter.c ****     uint32 channel;
 571:Generated_Source\PSoC4/CapSense_Filter.c **** 
 572:Generated_Source\PSoC4/CapSense_Filter.c ****     /* Apply baseline initialization to every channel in sensor */    
 573:Generated_Source\PSoC4/CapSense_Filter.c ****     for(channel = CapSense_NUM_SCAN_FREQS; channel-- > 0u;) 
 574:Generated_Source\PSoC4/CapSense_Filter.c ****     {
 575:Generated_Source\PSoC4/CapSense_Filter.c ****         CapSense_FtInitializeBaselineChannel(ptrSensor, wdType, channel); 
 576:Generated_Source\PSoC4/CapSense_Filter.c ****     }
 577:Generated_Source\PSoC4/CapSense_Filter.c **** }
 578:Generated_Source\PSoC4/CapSense_Filter.c **** 
 579:Generated_Source\PSoC4/CapSense_Filter.c **** 
 580:Generated_Source\PSoC4/CapSense_Filter.c **** /*******************************************************************************
 581:Generated_Source\PSoC4/CapSense_Filter.c **** * Function Name: CapSense_FtInitializeBaselineChannel
 582:Generated_Source\PSoC4/CapSense_Filter.c **** ****************************************************************************//**
 583:Generated_Source\PSoC4/CapSense_Filter.c **** *
 584:Generated_Source\PSoC4/CapSense_Filter.c **** * \brief    Initializes the baseline history for a sensor indicated by an input
 585:Generated_Source\PSoC4/CapSense_Filter.c **** *           parameter.
 586:Generated_Source\PSoC4/CapSense_Filter.c **** *
 587:Generated_Source\PSoC4/CapSense_Filter.c **** * \details  Initializes the baseline history for a sensor indicated by an input
 588:Generated_Source\PSoC4/CapSense_Filter.c **** *           parameter.
 589:Generated_Source\PSoC4/CapSense_Filter.c **** *
 590:Generated_Source\PSoC4/CapSense_Filter.c **** * \param    *ptrSensor The pointer to the sensor RAM object.
 591:Generated_Source\PSoC4/CapSense_Filter.c **** * \param    wdType     Specifies the type of a widget.
 592:Generated_Source\PSoC4/CapSense_Filter.c **** * \param    channel    Specifies the number of the channel to be initialized.
 593:Generated_Source\PSoC4/CapSense_Filter.c **** *
 594:Generated_Source\PSoC4/CapSense_Filter.c **** *******************************************************************************/
 595:Generated_Source\PSoC4/CapSense_Filter.c **** void CapSense_FtInitializeBaselineChannel(CapSense_RAM_SNS_STRUCT *ptrSensor, uint32 wdType, uint32
 596:Generated_Source\PSoC4/CapSense_Filter.c **** {
  26              		.loc 1 596 0
  27              		.cfi_startproc
  28              	.LVL0:
 597:Generated_Source\PSoC4/CapSense_Filter.c ****     #if (CapSense_BASELINE_TYPE == CapSense_IIR_BASELINE)  
 598:Generated_Source\PSoC4/CapSense_Filter.c ****         if ((CapSense_WD_TYPE_ENUM)wdType != CapSense_WD_PROXIMITY_E)
  29              		.loc 1 598 0
ARM GAS  C:\Users\TB1014~1\AppData\Local\Temp\ccLivewv.s 			page 12


  30 0000 C9B2     		uxtb	r1, r1
  31              	.LVL1:
  32 0002 0629     		cmp	r1, #6
  33 0004 02D0     		beq	.L2
 599:Generated_Source\PSoC4/CapSense_Filter.c ****         {
 600:Generated_Source\PSoC4/CapSense_Filter.c ****             #if (CapSense_REGULAR_SENSOR_EN)
 601:Generated_Source\PSoC4/CapSense_Filter.c ****                 #if (CapSense_REGULAR_IIR_BL_TYPE == CapSense_IIR_FILTER_PERFORMANCE)              
 602:Generated_Source\PSoC4/CapSense_Filter.c ****                     ptrSensor->bslnExt[channel] = 0u;                
  34              		.loc 1 602 0
  35 0006 8318     		add	r3, r0, r2
  36 0008 0021     		mov	r1, #0
  37 000a 1971     		strb	r1, [r3, #4]
  38              	.L2:
 603:Generated_Source\PSoC4/CapSense_Filter.c ****                 #endif /* (CapSense_REGULAR_IIR_BL_TYPE == CapSense_IIR_FILTER_PERFORMANCE) */
 604:Generated_Source\PSoC4/CapSense_Filter.c ****             #endif /* (CapSense_REGULAR_SENSOR_EN) */
 605:Generated_Source\PSoC4/CapSense_Filter.c ****         }
 606:Generated_Source\PSoC4/CapSense_Filter.c ****         else
 607:Generated_Source\PSoC4/CapSense_Filter.c ****         {
 608:Generated_Source\PSoC4/CapSense_Filter.c ****             #if (CapSense_PROXIMITY_SENSOR_EN)     
 609:Generated_Source\PSoC4/CapSense_Filter.c ****                 #if (CapSense_PROX_IIR_BL_TYPE == CapSense_IIR_FILTER_PERFORMANCE)                 
 610:Generated_Source\PSoC4/CapSense_Filter.c ****                     ptrSensor->bslnExt[channel] = 0u;               
 611:Generated_Source\PSoC4/CapSense_Filter.c ****                 #endif /* (CapSense_PROX_IIR_BL_TYPE == CapSense_IIR_FILTER_PERFORMANCE) */
 612:Generated_Source\PSoC4/CapSense_Filter.c ****             #endif /* (CapSense_PROX_SENSOR_EN) */
 613:Generated_Source\PSoC4/CapSense_Filter.c ****         }
 614:Generated_Source\PSoC4/CapSense_Filter.c ****     #else
 615:Generated_Source\PSoC4/CapSense_Filter.c ****         /* CapSense_BASELINE_TYPE == CapSense_BUCKET_BASELINE */        
 616:Generated_Source\PSoC4/CapSense_Filter.c ****         ptrSensor->bslnExt[channel] = 0u;        
 617:Generated_Source\PSoC4/CapSense_Filter.c ****     #endif /* (CapSense_BASELINE_TYPE == CapSense_IIR_BASELINE) */      
 618:Generated_Source\PSoC4/CapSense_Filter.c ****     
 619:Generated_Source\PSoC4/CapSense_Filter.c ****     ptrSensor->bsln[channel] = ptrSensor->raw[channel]; 
  39              		.loc 1 619 0
  40 000c 5300     		lsl	r3, r2, #1
  41 000e 195A     		ldrh	r1, [r3, r0]
  42 0010 C318     		add	r3, r0, r3
  43 0012 5980     		strh	r1, [r3, #2]
 620:Generated_Source\PSoC4/CapSense_Filter.c ****     
 621:Generated_Source\PSoC4/CapSense_Filter.c ****     #if (CapSense_ENABLE == CapSense_TST_BSLN_DUPLICATION_EN)
 622:Generated_Source\PSoC4/CapSense_Filter.c ****     /* Update baseline inversion of the channel in sensor */    
 623:Generated_Source\PSoC4/CapSense_Filter.c ****         ptrSensor->bslnInv[channel] = ~(ptrSensor->bsln[channel]);
 624:Generated_Source\PSoC4/CapSense_Filter.c ****     #endif /* (CapSense_ENABLE == CapSense_TST_BSLN_DUPLICATION_EN) */
 625:Generated_Source\PSoC4/CapSense_Filter.c **** 
 626:Generated_Source\PSoC4/CapSense_Filter.c ****     ptrSensor->negBslnRstCnt[channel] = 0u;
  44              		.loc 1 626 0
  45 0014 8218     		add	r2, r0, r2
  46              	.LVL2:
  47 0016 0023     		mov	r3, #0
  48 0018 1372     		strb	r3, [r2, #8]
 627:Generated_Source\PSoC4/CapSense_Filter.c **** }
  49              		.loc 1 627 0
  50              		@ sp needed
  51 001a 7047     		bx	lr
  52              		.cfi_endproc
  53              	.LFE10:
  54              		.size	CapSense_FtInitializeBaselineChannel, .-CapSense_FtInitializeBaselineChannel
  55              		.section	.text.CapSense_FtInitializeBaseline,"ax",%progbits
  56              		.align	2
  57              		.global	CapSense_FtInitializeBaseline
ARM GAS  C:\Users\TB1014~1\AppData\Local\Temp\ccLivewv.s 			page 13


  58              		.code	16
  59              		.thumb_func
  60              		.type	CapSense_FtInitializeBaseline, %function
  61              	CapSense_FtInitializeBaseline:
  62              	.LFB9:
 569:Generated_Source\PSoC4/CapSense_Filter.c ****     uint32 channel;
  63              		.loc 1 569 0
  64              		.cfi_startproc
  65              	.LVL3:
  66 0000 70B5     		push	{r4, r5, r6, lr}
  67              		.cfi_def_cfa_offset 16
  68              		.cfi_offset 4, -16
  69              		.cfi_offset 5, -12
  70              		.cfi_offset 6, -8
  71              		.cfi_offset 14, -4
  72 0002 061C     		mov	r6, r0
  73 0004 0D1C     		mov	r5, r1
  74              	.LVL4:
 573:Generated_Source\PSoC4/CapSense_Filter.c ****     {
  75              		.loc 1 573 0
  76 0006 0123     		mov	r3, #1
  77 0008 05E0     		b	.L4
  78              	.LVL5:
  79              	.L5:
 575:Generated_Source\PSoC4/CapSense_Filter.c ****     }
  80              		.loc 1 575 0
  81 000a 301C     		mov	r0, r6
  82 000c 291C     		mov	r1, r5
  83 000e 221C     		mov	r2, r4
  84 0010 FFF7FEFF 		bl	CapSense_FtInitializeBaselineChannel
  85              	.LVL6:
 573:Generated_Source\PSoC4/CapSense_Filter.c ****     {
  86              		.loc 1 573 0
  87 0014 231C     		mov	r3, r4
  88              	.LVL7:
  89              	.L4:
 573:Generated_Source\PSoC4/CapSense_Filter.c ****     {
  90              		.loc 1 573 0 is_stmt 0 discriminator 1
  91 0016 5C1E     		sub	r4, r3, #1
  92              	.LVL8:
  93 0018 002B     		cmp	r3, #0
  94 001a F6D1     		bne	.L5
 577:Generated_Source\PSoC4/CapSense_Filter.c **** 
  95              		.loc 1 577 0 is_stmt 1
  96              		@ sp needed
  97              	.LVL9:
  98              	.LVL10:
  99              	.LVL11:
 100 001c 70BD     		pop	{r4, r5, r6, pc}
 101              		.cfi_endproc
 102              	.LFE9:
 103              		.size	CapSense_FtInitializeBaseline, .-CapSense_FtInitializeBaseline
 104 001e C046     		.section	.text.CapSense_InitializeSensorBaseline,"ax",%progbits
 105              		.align	2
 106              		.global	CapSense_InitializeSensorBaseline
 107              		.code	16
 108              		.thumb_func
ARM GAS  C:\Users\TB1014~1\AppData\Local\Temp\ccLivewv.s 			page 14


 109              		.type	CapSense_InitializeSensorBaseline, %function
 110              	CapSense_InitializeSensorBaseline:
 111              	.LFB8:
 541:Generated_Source\PSoC4/CapSense_Filter.c ****     CapSense_RAM_SNS_STRUCT *ptrSensor = NULL;    
 112              		.loc 1 541 0
 113              		.cfi_startproc
 114              	.LVL12:
 115 0000 70B5     		push	{r4, r5, r6, lr}
 116              		.cfi_def_cfa_offset 16
 117              		.cfi_offset 4, -16
 118              		.cfi_offset 5, -12
 119              		.cfi_offset 6, -8
 120              		.cfi_offset 14, -4
 121              	.LVL13:
 547:Generated_Source\PSoC4/CapSense_Filter.c ****     ptrSensor = &ptrSensor[sensorId];
 122              		.loc 1 547 0
 123 0002 2C23     		mov	r3, #44
 124 0004 5843     		mul	r0, r3
 125              	.LVL14:
 126 0006 0A4B     		ldr	r3, .L9
 127 0008 1818     		add	r0, r3, r0
 128              	.LVL15:
 548:Generated_Source\PSoC4/CapSense_Filter.c **** 
 129              		.loc 1 548 0
 130 000a 8B00     		lsl	r3, r1, #2
 131 000c 5918     		add	r1, r3, r1
 132              	.LVL16:
 133 000e 4900     		lsl	r1, r1, #1
 134 0010 8368     		ldr	r3, [r0, #8]
 135 0012 5C18     		add	r4, r3, r1
 136              	.LVL17:
 550:Generated_Source\PSoC4/CapSense_Filter.c **** }
 137              		.loc 1 550 0
 138 0014 067E     		ldrb	r6, [r0, #24]
 139              	.LVL18:
 140              	.LBB4:
 141              	.LBB5:
 573:Generated_Source\PSoC4/CapSense_Filter.c ****     {
 142              		.loc 1 573 0
 143 0016 0123     		mov	r3, #1
 144 0018 05E0     		b	.L7
 145              	.LVL19:
 146              	.L8:
 575:Generated_Source\PSoC4/CapSense_Filter.c ****     }
 147              		.loc 1 575 0
 148 001a 201C     		mov	r0, r4
 149 001c 311C     		mov	r1, r6
 150 001e 2A1C     		mov	r2, r5
 151 0020 FFF7FEFF 		bl	CapSense_FtInitializeBaselineChannel
 152              	.LVL20:
 573:Generated_Source\PSoC4/CapSense_Filter.c ****     {
 153              		.loc 1 573 0
 154 0024 2B1C     		mov	r3, r5
 155              	.LVL21:
 156              	.L7:
 157 0026 5D1E     		sub	r5, r3, #1
 158              	.LVL22:
ARM GAS  C:\Users\TB1014~1\AppData\Local\Temp\ccLivewv.s 			page 15


 159 0028 002B     		cmp	r3, #0
 160 002a F6D1     		bne	.L8
 161              	.LBE5:
 162              	.LBE4:
 551:Generated_Source\PSoC4/CapSense_Filter.c **** 
 163              		.loc 1 551 0
 164              		@ sp needed
 165              	.LVL23:
 166              	.LVL24:
 167              	.LVL25:
 168 002c 70BD     		pop	{r4, r5, r6, pc}
 169              	.L10:
 170 002e C046     		.align	2
 171              	.L9:
 172 0030 00000000 		.word	CapSense_dsFlash
 173              		.cfi_endproc
 174              	.LFE8:
 175              		.size	CapSense_InitializeSensorBaseline, .-CapSense_InitializeSensorBaseline
 176              		.section	.text.CapSense_InitializeWidgetBaseline,"ax",%progbits
 177              		.align	2
 178              		.global	CapSense_InitializeWidgetBaseline
 179              		.code	16
 180              		.thumb_func
 181              		.type	CapSense_InitializeWidgetBaseline, %function
 182              	CapSense_InitializeWidgetBaseline:
 183              	.LFB7:
 497:Generated_Source\PSoC4/CapSense_Filter.c ****     uint32 sensorId;
 184              		.loc 1 497 0
 185              		.cfi_startproc
 186              	.LVL26:
 187 0000 38B5     		push	{r3, r4, r5, lr}
 188              		.cfi_def_cfa_offset 16
 189              		.cfi_offset 3, -16
 190              		.cfi_offset 4, -12
 191              		.cfi_offset 5, -8
 192              		.cfi_offset 14, -4
 193 0002 051C     		mov	r5, r0
 194              	.LVL27:
 504:Generated_Source\PSoC4/CapSense_Filter.c ****     
 195              		.loc 1 504 0
 196 0004 2C23     		mov	r3, #44
 197 0006 4343     		mul	r3, r0
 198 0008 064A     		ldr	r2, .L14
 199 000a D318     		add	r3, r2, r3
 200              	.LVL28:
 201 000c DB8A     		ldrh	r3, [r3, #22]
 202              	.LVL29:
 506:Generated_Source\PSoC4/CapSense_Filter.c ****     {
 203              		.loc 1 506 0
 204 000e 04E0     		b	.L12
 205              	.LVL30:
 206              	.L13:
 508:Generated_Source\PSoC4/CapSense_Filter.c ****     }
 207              		.loc 1 508 0
 208 0010 281C     		mov	r0, r5
 209 0012 211C     		mov	r1, r4
 210 0014 FFF7FEFF 		bl	CapSense_InitializeSensorBaseline
ARM GAS  C:\Users\TB1014~1\AppData\Local\Temp\ccLivewv.s 			page 16


 211              	.LVL31:
 506:Generated_Source\PSoC4/CapSense_Filter.c ****     {
 212              		.loc 1 506 0
 213 0018 231C     		mov	r3, r4
 214              	.LVL32:
 215              	.L12:
 506:Generated_Source\PSoC4/CapSense_Filter.c ****     {
 216              		.loc 1 506 0 is_stmt 0 discriminator 1
 217 001a 5C1E     		sub	r4, r3, #1
 218              	.LVL33:
 219 001c 002B     		cmp	r3, #0
 220 001e F7D1     		bne	.L13
 510:Generated_Source\PSoC4/CapSense_Filter.c **** 
 221              		.loc 1 510 0 is_stmt 1
 222              		@ sp needed
 223              	.LVL34:
 224              	.LVL35:
 225 0020 38BD     		pop	{r3, r4, r5, pc}
 226              	.L15:
 227 0022 C046     		.align	2
 228              	.L14:
 229 0024 00000000 		.word	CapSense_dsFlash
 230              		.cfi_endproc
 231              	.LFE7:
 232              		.size	CapSense_InitializeWidgetBaseline, .-CapSense_InitializeWidgetBaseline
 233              		.section	.text.CapSense_InitializeAllBaselines,"ax",%progbits
 234              		.align	2
 235              		.global	CapSense_InitializeAllBaselines
 236              		.code	16
 237              		.thumb_func
 238              		.type	CapSense_InitializeAllBaselines, %function
 239              	CapSense_InitializeAllBaselines:
 240              	.LFB6:
 466:Generated_Source\PSoC4/CapSense_Filter.c ****     uint32 widgetId;    
 241              		.loc 1 466 0
 242              		.cfi_startproc
 243 0000 10B5     		push	{r4, lr}
 244              		.cfi_def_cfa_offset 8
 245              		.cfi_offset 4, -8
 246              		.cfi_offset 14, -4
 247              	.LVL36:
 469:Generated_Source\PSoC4/CapSense_Filter.c ****     {
 248              		.loc 1 469 0
 249 0002 0823     		mov	r3, #8
 250 0004 03E0     		b	.L17
 251              	.LVL37:
 252              	.L18:
 471:Generated_Source\PSoC4/CapSense_Filter.c ****     }
 253              		.loc 1 471 0
 254 0006 201C     		mov	r0, r4
 255 0008 FFF7FEFF 		bl	CapSense_InitializeWidgetBaseline
 256              	.LVL38:
 469:Generated_Source\PSoC4/CapSense_Filter.c ****     {
 257              		.loc 1 469 0
 258 000c 231C     		mov	r3, r4
 259              	.LVL39:
 260              	.L17:
ARM GAS  C:\Users\TB1014~1\AppData\Local\Temp\ccLivewv.s 			page 17


 469:Generated_Source\PSoC4/CapSense_Filter.c ****     {
 261              		.loc 1 469 0 is_stmt 0 discriminator 1
 262 000e 5C1E     		sub	r4, r3, #1
 263              	.LVL40:
 264 0010 002B     		cmp	r3, #0
 265 0012 F8D1     		bne	.L18
 473:Generated_Source\PSoC4/CapSense_Filter.c **** 
 266              		.loc 1 473 0 is_stmt 1
 267              		@ sp needed
 268              	.LVL41:
 269 0014 10BD     		pop	{r4, pc}
 270              		.cfi_endproc
 271              	.LFE6:
 272              		.size	CapSense_InitializeAllBaselines, .-CapSense_InitializeAllBaselines
 273 0016 C046     		.section	.text.CapSense_InitializeIIRInternal,"ax",%progbits
 274              		.align	2
 275              		.global	CapSense_InitializeIIRInternal
 276              		.code	16
 277              		.thumb_func
 278              		.type	CapSense_InitializeIIRInternal, %function
 279              	CapSense_InitializeIIRInternal:
 280              	.LFB13:
 628:Generated_Source\PSoC4/CapSense_Filter.c **** 
 629:Generated_Source\PSoC4/CapSense_Filter.c **** 
 630:Generated_Source\PSoC4/CapSense_Filter.c **** #if (CapSense_REGULAR_RC_IIR_FILTER_EN || CapSense_PROX_RC_IIR_FILTER_EN)
 631:Generated_Source\PSoC4/CapSense_Filter.c **** 
 632:Generated_Source\PSoC4/CapSense_Filter.c **** /*******************************************************************************
 633:Generated_Source\PSoC4/CapSense_Filter.c **** * Function Name: CapSense_InitializeIIR
 634:Generated_Source\PSoC4/CapSense_Filter.c **** ****************************************************************************//**
 635:Generated_Source\PSoC4/CapSense_Filter.c **** *
 636:Generated_Source\PSoC4/CapSense_Filter.c **** * \brief    Initialize the IIR filter history.
 637:Generated_Source\PSoC4/CapSense_Filter.c **** *
 638:Generated_Source\PSoC4/CapSense_Filter.c **** * \details  Initialize the IIR filter history.
 639:Generated_Source\PSoC4/CapSense_Filter.c **** *
 640:Generated_Source\PSoC4/CapSense_Filter.c **** * \param    widgetId Specifies the ID number of the widget.
 641:Generated_Source\PSoC4/CapSense_Filter.c **** * \param    sensorId Specifies the ID number of the sensor in the widget.
 642:Generated_Source\PSoC4/CapSense_Filter.c **** *
 643:Generated_Source\PSoC4/CapSense_Filter.c **** *******************************************************************************/
 644:Generated_Source\PSoC4/CapSense_Filter.c **** void CapSense_InitializeIIR(uint32 widgetId, uint32 sensorId)
 645:Generated_Source\PSoC4/CapSense_Filter.c **** {   
 646:Generated_Source\PSoC4/CapSense_Filter.c ****     CapSense_FLASH_WD_STRUCT const *ptrWidget = &CapSense_dsFlash.wdgtArray[widgetId];      
 647:Generated_Source\PSoC4/CapSense_Filter.c ****     CapSense_RAM_SNS_STRUCT *ptrSensor = NULL;    
 648:Generated_Source\PSoC4/CapSense_Filter.c ****     CapSense_PTR_FILTER_VARIANT ptrFilterHistObj; 
 649:Generated_Source\PSoC4/CapSense_Filter.c ****               
 650:Generated_Source\PSoC4/CapSense_Filter.c ****     /* Find pointer to specified sensor object */     
 651:Generated_Source\PSoC4/CapSense_Filter.c ****     ptrSensor = ptrWidget->ptr2SnsRam;
 652:Generated_Source\PSoC4/CapSense_Filter.c ****     ptrSensor = &ptrSensor[sensorId];
 653:Generated_Source\PSoC4/CapSense_Filter.c ****         
 654:Generated_Source\PSoC4/CapSense_Filter.c ****     /* Find pointer to specified filter sensor object */     
 655:Generated_Source\PSoC4/CapSense_Filter.c ****     ptrFilterHistObj.ptr = ptrWidget->ptr2FltrHistory;
 656:Generated_Source\PSoC4/CapSense_Filter.c ****     
 657:Generated_Source\PSoC4/CapSense_Filter.c ****     if ((CapSense_WD_TYPE_ENUM)ptrWidget->wdgtType != CapSense_WD_PROXIMITY_E)
 658:Generated_Source\PSoC4/CapSense_Filter.c ****     {
 659:Generated_Source\PSoC4/CapSense_Filter.c ****         #if (CapSense_REGULAR_SENSOR_EN)
 660:Generated_Source\PSoC4/CapSense_Filter.c ****             ptrFilterHistObj.ptrRegular = &ptrFilterHistObj.ptrRegular[sensorId];
 661:Generated_Source\PSoC4/CapSense_Filter.c ****         #endif /* (CapSense_REGULAR_SENSOR_EN) */
 662:Generated_Source\PSoC4/CapSense_Filter.c ****     }
ARM GAS  C:\Users\TB1014~1\AppData\Local\Temp\ccLivewv.s 			page 18


 663:Generated_Source\PSoC4/CapSense_Filter.c ****     else
 664:Generated_Source\PSoC4/CapSense_Filter.c ****     {
 665:Generated_Source\PSoC4/CapSense_Filter.c ****         #if (CapSense_PROXIMITY_SENSOR_EN)
 666:Generated_Source\PSoC4/CapSense_Filter.c ****             ptrFilterHistObj.ptrProx = &ptrFilterHistObj.ptrProx[sensorId];
 667:Generated_Source\PSoC4/CapSense_Filter.c ****         #endif /* (CapSense_PROXIMITY_SENSOR_EN) */
 668:Generated_Source\PSoC4/CapSense_Filter.c ****     }    
 669:Generated_Source\PSoC4/CapSense_Filter.c ****     
 670:Generated_Source\PSoC4/CapSense_Filter.c ****     CapSense_InitializeIIRInternal(ptrFilterHistObj, ptrSensor, (uint32)ptrWidget->wdgtType);
 671:Generated_Source\PSoC4/CapSense_Filter.c **** }
 672:Generated_Source\PSoC4/CapSense_Filter.c **** 
 673:Generated_Source\PSoC4/CapSense_Filter.c **** 
 674:Generated_Source\PSoC4/CapSense_Filter.c **** /*******************************************************************************
 675:Generated_Source\PSoC4/CapSense_Filter.c **** * Function Name: CapSense_RunIIR
 676:Generated_Source\PSoC4/CapSense_Filter.c **** ****************************************************************************//**
 677:Generated_Source\PSoC4/CapSense_Filter.c **** *
 678:Generated_Source\PSoC4/CapSense_Filter.c **** * \brief    Executes the IIR filter algorithm on a sensor indicated by an input
 679:Generated_Source\PSoC4/CapSense_Filter.c **** *           parameter. 
 680:Generated_Source\PSoC4/CapSense_Filter.c **** *
 681:Generated_Source\PSoC4/CapSense_Filter.c **** * \details  Executes the IIR filter algorithm on a sensor indicated by an input
 682:Generated_Source\PSoC4/CapSense_Filter.c **** *           parameter. 
 683:Generated_Source\PSoC4/CapSense_Filter.c **** *
 684:Generated_Source\PSoC4/CapSense_Filter.c **** * \param    widgetId Specifies the ID number of the widget.
 685:Generated_Source\PSoC4/CapSense_Filter.c **** * \param    sensorId Specifies the ID number of the sensor in the widget.
 686:Generated_Source\PSoC4/CapSense_Filter.c **** *
 687:Generated_Source\PSoC4/CapSense_Filter.c **** *******************************************************************************/
 688:Generated_Source\PSoC4/CapSense_Filter.c **** void CapSense_RunIIR(uint32 widgetId, uint32 sensorId)
 689:Generated_Source\PSoC4/CapSense_Filter.c **** {
 690:Generated_Source\PSoC4/CapSense_Filter.c ****     CapSense_FLASH_WD_STRUCT const *ptrWidget = &CapSense_dsFlash.wdgtArray[widgetId];      
 691:Generated_Source\PSoC4/CapSense_Filter.c ****     CapSense_RAM_SNS_STRUCT *ptrSensor = NULL;    
 692:Generated_Source\PSoC4/CapSense_Filter.c ****     CapSense_PTR_FILTER_VARIANT ptrFilterHistObj; 
 693:Generated_Source\PSoC4/CapSense_Filter.c ****               
 694:Generated_Source\PSoC4/CapSense_Filter.c ****     /* Find pointer to specified sensor object */     
 695:Generated_Source\PSoC4/CapSense_Filter.c ****     ptrSensor = ptrWidget->ptr2SnsRam;
 696:Generated_Source\PSoC4/CapSense_Filter.c ****     ptrSensor = &ptrSensor[sensorId];
 697:Generated_Source\PSoC4/CapSense_Filter.c ****         
 698:Generated_Source\PSoC4/CapSense_Filter.c ****     /* Find pointer to specified filter sensor object */     
 699:Generated_Source\PSoC4/CapSense_Filter.c ****     ptrFilterHistObj.ptr = ptrWidget->ptr2FltrHistory;
 700:Generated_Source\PSoC4/CapSense_Filter.c ****     
 701:Generated_Source\PSoC4/CapSense_Filter.c ****     if ((CapSense_WD_TYPE_ENUM)ptrWidget->wdgtType != CapSense_WD_PROXIMITY_E)
 702:Generated_Source\PSoC4/CapSense_Filter.c ****     {
 703:Generated_Source\PSoC4/CapSense_Filter.c ****         #if (CapSense_REGULAR_SENSOR_EN)
 704:Generated_Source\PSoC4/CapSense_Filter.c ****             ptrFilterHistObj.ptrRegular = &ptrFilterHistObj.ptrRegular[sensorId];
 705:Generated_Source\PSoC4/CapSense_Filter.c ****         #endif /* (CapSense_REGULAR_SENSOR_EN) */
 706:Generated_Source\PSoC4/CapSense_Filter.c ****     }
 707:Generated_Source\PSoC4/CapSense_Filter.c ****     else
 708:Generated_Source\PSoC4/CapSense_Filter.c ****     {
 709:Generated_Source\PSoC4/CapSense_Filter.c ****         #if (CapSense_PROXIMITY_SENSOR_EN)
 710:Generated_Source\PSoC4/CapSense_Filter.c ****             ptrFilterHistObj.ptrProx = &ptrFilterHistObj.ptrProx[sensorId];
 711:Generated_Source\PSoC4/CapSense_Filter.c ****         #endif /* (CapSense_PROXIMITY_SENSOR_EN) */
 712:Generated_Source\PSoC4/CapSense_Filter.c ****     }    
 713:Generated_Source\PSoC4/CapSense_Filter.c ****     
 714:Generated_Source\PSoC4/CapSense_Filter.c ****     CapSense_RunIIRInternal(ptrFilterHistObj, ptrSensor, (uint32)ptrWidget->wdgtType);
 715:Generated_Source\PSoC4/CapSense_Filter.c **** }
 716:Generated_Source\PSoC4/CapSense_Filter.c ****     
 717:Generated_Source\PSoC4/CapSense_Filter.c **** /*******************************************************************************
 718:Generated_Source\PSoC4/CapSense_Filter.c **** * Function Name: CapSense_InitializeIIRInternal
 719:Generated_Source\PSoC4/CapSense_Filter.c **** ****************************************************************************//**
ARM GAS  C:\Users\TB1014~1\AppData\Local\Temp\ccLivewv.s 			page 19


 720:Generated_Source\PSoC4/CapSense_Filter.c **** *
 721:Generated_Source\PSoC4/CapSense_Filter.c **** * \brief    Initializes the IIR filter history.
 722:Generated_Source\PSoC4/CapSense_Filter.c **** *
 723:Generated_Source\PSoC4/CapSense_Filter.c **** * \details  Initializes the IIR filter history.
 724:Generated_Source\PSoC4/CapSense_Filter.c **** *
 725:Generated_Source\PSoC4/CapSense_Filter.c **** * \param    ptrFilterHistObj The pointer to the filter RAM object of the sensor.
 726:Generated_Source\PSoC4/CapSense_Filter.c **** * \param    ptrSensorObj     The pointer to the sensor RAM object of the sensor.
 727:Generated_Source\PSoC4/CapSense_Filter.c **** * \param    wdType           Specifies the type of a widget.                                  
 728:Generated_Source\PSoC4/CapSense_Filter.c **** *
 729:Generated_Source\PSoC4/CapSense_Filter.c **** *******************************************************************************/
 730:Generated_Source\PSoC4/CapSense_Filter.c **** void CapSense_InitializeIIRInternal(CapSense_PTR_FILTER_VARIANT ptrFilterHistObj,
 731:Generated_Source\PSoC4/CapSense_Filter.c ****                                             CapSense_RAM_SNS_STRUCT *ptrSensorObj, uint32 wdType)
 732:Generated_Source\PSoC4/CapSense_Filter.c **** {
 281              		.loc 1 732 0
 282              		.cfi_startproc
 283              	.LVL42:
 284 0000 30B5     		push	{r4, r5, lr}
 285              		.cfi_def_cfa_offset 12
 286              		.cfi_offset 4, -12
 287              		.cfi_offset 5, -8
 288              		.cfi_offset 14, -4
 289              	.LVL43:
 733:Generated_Source\PSoC4/CapSense_Filter.c ****     uint32 channel;
 734:Generated_Source\PSoC4/CapSense_Filter.c **** 
 735:Generated_Source\PSoC4/CapSense_Filter.c ****     for(channel = CapSense_NUM_SCAN_FREQS; channel-- > 0u;)
 290              		.loc 1 735 0
 291 0002 0123     		mov	r3, #1
 292 0004 06E0     		b	.L20
 293              	.LVL44:
 294              	.L22:
 736:Generated_Source\PSoC4/CapSense_Filter.c ****     {
 737:Generated_Source\PSoC4/CapSense_Filter.c ****         if ((CapSense_WD_TYPE_ENUM)wdType != CapSense_WD_PROXIMITY_E)
 295              		.loc 1 737 0
 296 0006 D3B2     		uxtb	r3, r2
 297 0008 062B     		cmp	r3, #6
 298 000a 02D0     		beq	.L21
 738:Generated_Source\PSoC4/CapSense_Filter.c ****         {
 739:Generated_Source\PSoC4/CapSense_Filter.c ****             #if (CapSense_REGULAR_SENSOR_EN && CapSense_REGULAR_RC_IIR_FILTER_EN)
 740:Generated_Source\PSoC4/CapSense_Filter.c ****                 #if (CapSense_REGULAR_IIR_RC_TYPE == CapSense_IIR_FILTER_PERFORMANCE)
 741:Generated_Source\PSoC4/CapSense_Filter.c ****                     ptrFilterHistObj.ptrRegular->regularChannel[channel].iirHistory = ptrSensorObj-
 742:Generated_Source\PSoC4/CapSense_Filter.c ****                     ptrFilterHistObj.ptrRegular->regularChannel[channel].iirHistoryLow = 0u;
 743:Generated_Source\PSoC4/CapSense_Filter.c ****                 #else
 744:Generated_Source\PSoC4/CapSense_Filter.c ****                     ptrFilterHistObj.ptrRegular->regularChannel[channel].iirHistory = ptrSensorObj-
 299              		.loc 1 744 0
 300 000c 6300     		lsl	r3, r4, #1
 301 000e 5D5A     		ldrh	r5, [r3, r1]
 302 0010 1D52     		strh	r5, [r3, r0]
 303              	.L21:
 732:Generated_Source\PSoC4/CapSense_Filter.c ****     uint32 channel;
 304              		.loc 1 732 0 discriminator 1
 305 0012 231C     		mov	r3, r4
 306              	.LVL45:
 307              	.L20:
 735:Generated_Source\PSoC4/CapSense_Filter.c ****     {
 308              		.loc 1 735 0 discriminator 1
 309 0014 5C1E     		sub	r4, r3, #1
 310              	.LVL46:
ARM GAS  C:\Users\TB1014~1\AppData\Local\Temp\ccLivewv.s 			page 20


 311 0016 002B     		cmp	r3, #0
 312 0018 F5D1     		bne	.L22
 745:Generated_Source\PSoC4/CapSense_Filter.c ****                 #endif /* (CapSense_REGULAR_IIR_RC_TYPE == CapSense_IIR_FILTER_PERFORMANCE) */
 746:Generated_Source\PSoC4/CapSense_Filter.c ****             #endif /* (CapSense_REGULAR_SENSOR_EN) */    
 747:Generated_Source\PSoC4/CapSense_Filter.c ****         }
 748:Generated_Source\PSoC4/CapSense_Filter.c ****         else
 749:Generated_Source\PSoC4/CapSense_Filter.c ****         {
 750:Generated_Source\PSoC4/CapSense_Filter.c ****             #if (CapSense_PROXIMITY_SENSOR_EN && CapSense_PROX_RC_IIR_FILTER_EN)
 751:Generated_Source\PSoC4/CapSense_Filter.c ****                 #if (CapSense_PROX_IIR_RC_TYPE == CapSense_IIR_FILTER_PERFORMANCE)
 752:Generated_Source\PSoC4/CapSense_Filter.c ****                     ptrFilterHistObj.ptrProx->proxChannel[channel].iirHistory = ptrSensorObj->raw[c
 753:Generated_Source\PSoC4/CapSense_Filter.c ****                     ptrFilterHistObj.ptrProx->proxChannel[channel].iirHistoryLow = 0u;    
 754:Generated_Source\PSoC4/CapSense_Filter.c ****                 #else
 755:Generated_Source\PSoC4/CapSense_Filter.c ****                     ptrFilterHistObj.ptrProx->proxChannel[channel].iirHistory = ptrSensorObj->raw[c
 756:Generated_Source\PSoC4/CapSense_Filter.c ****                 #endif /* (CapSense_PROX_IIR_RC_TYPE == CapSense_IIR_FILTER_PERFORMANCE) */
 757:Generated_Source\PSoC4/CapSense_Filter.c ****             #endif /* (CapSense_PROX_SENSOR_EN) */
 758:Generated_Source\PSoC4/CapSense_Filter.c ****         }    
 759:Generated_Source\PSoC4/CapSense_Filter.c ****     }    
 760:Generated_Source\PSoC4/CapSense_Filter.c **** }
 313              		.loc 1 760 0
 314              		@ sp needed
 315              	.LVL47:
 316 001a 30BD     		pop	{r4, r5, pc}
 317              		.cfi_endproc
 318              	.LFE13:
 319              		.size	CapSense_InitializeIIRInternal, .-CapSense_InitializeIIRInternal
 320              		.section	.text.CapSense_FtInitialize,"ax",%progbits
 321              		.align	2
 322              		.global	CapSense_FtInitialize
 323              		.code	16
 324              		.thumb_func
 325              		.type	CapSense_FtInitialize, %function
 326              	CapSense_FtInitialize:
 327              	.LFB1:
  62:Generated_Source\PSoC4/CapSense_Filter.c ****     uint32 widgetId;
 328              		.loc 1 62 0
 329              		.cfi_startproc
 330 0000 F0B5     		push	{r4, r5, r6, r7, lr}
 331              		.cfi_def_cfa_offset 20
 332              		.cfi_offset 4, -20
 333              		.cfi_offset 5, -16
 334              		.cfi_offset 6, -12
 335              		.cfi_offset 7, -8
 336              		.cfi_offset 14, -4
 337 0002 4746     		mov	r7, r8
 338 0004 80B4     		push	{r7}
 339              		.cfi_def_cfa_offset 24
 340              		.cfi_offset 8, -24
 341              	.LVL48:
  76:Generated_Source\PSoC4/CapSense_Filter.c ****     {
 342              		.loc 1 76 0
 343 0006 0823     		mov	r3, #8
 344 0008 33E0     		b	.L24
 345              	.LVL49:
 346              	.L29:
  81:Generated_Source\PSoC4/CapSense_Filter.c ****         #endif /* #if CapSense_CSD_AUTOTUNE & CapSense_CSD_SS_TH_EN */
 347              		.loc 1 81 0
 348 000a 2C23     		mov	r3, #44
ARM GAS  C:\Users\TB1014~1\AppData\Local\Temp\ccLivewv.s 			page 21


 349 000c 7B43     		mul	r3, r7
 350 000e 1C4A     		ldr	r2, .L30
 351 0010 D318     		add	r3, r2, r3
 352              	.LVL50:
 353 0012 5A68     		ldr	r2, [r3, #4]
 354 0014 9046     		mov	r8, r2
 355              	.LVL51:
  85:Generated_Source\PSoC4/CapSense_Filter.c ****     
 356              		.loc 1 85 0
 357 0016 DB8A     		ldrh	r3, [r3, #22]
 358              	.LVL52:
  87:Generated_Source\PSoC4/CapSense_Filter.c ****         {
 359              		.loc 1 87 0
 360 0018 27E0     		b	.L25
 361              	.LVL53:
 362              	.L28:
  90:Generated_Source\PSoC4/CapSense_Filter.c ****             ptrSensor = &ptrSensor[sensorId];
 363              		.loc 1 90 0
 364 001a 2C23     		mov	r3, #44
 365 001c 7B43     		mul	r3, r7
 366 001e 184A     		ldr	r2, .L30
 367 0020 D318     		add	r3, r2, r3
 368              	.LVL54:
  91:Generated_Source\PSoC4/CapSense_Filter.c ****                         
 369              		.loc 1 91 0
 370 0022 B400     		lsl	r4, r6, #2
 371 0024 A419     		add	r4, r4, r6
 372 0026 6400     		lsl	r4, r4, #1
 373 0028 9A68     		ldr	r2, [r3, #8]
 374 002a 9446     		mov	ip, r2
 375 002c 6444     		add	r4, r4, ip
 376              	.LVL55:
  94:Generated_Source\PSoC4/CapSense_Filter.c **** 
 377              		.loc 1 94 0
 378 002e D968     		ldr	r1, [r3, #12]
 379 0030 081C     		mov	r0, r1
 380              	.LVL56:
  99:Generated_Source\PSoC4/CapSense_Filter.c ****             #endif /* #if CapSense_CSD_AUTOTUNE & CapSense_CSD_SS_TH_EN */
 381              		.loc 1 99 0
 382 0032 7500     		lsl	r5, r6, #1
 383 0034 AD19     		add	r5, r5, r6
 384 0036 AD00     		lsl	r5, r5, #2
 385 0038 5A6A     		ldr	r2, [r3, #36]
 386 003a 9446     		mov	ip, r2
 387 003c 6544     		add	r5, r5, ip
 388              	.LVL57:
 102:Generated_Source\PSoC4/CapSense_Filter.c ****             {
 389              		.loc 1 102 0
 390 003e 1A7E     		ldrb	r2, [r3, #24]
 391 0040 062A     		cmp	r2, #6
 392 0042 01D0     		beq	.L26
 105:Generated_Source\PSoC4/CapSense_Filter.c ****                 #endif /* (CapSense_REGULAR_SENSOR_EN) */
 393              		.loc 1 105 0
 394 0044 7000     		lsl	r0, r6, #1
 395 0046 0818     		add	r0, r1, r0
 396              	.L26:
 116:Generated_Source\PSoC4/CapSense_Filter.c ****             #endif /* (CapSense_REGULAR_RC_IIR_FILTER_EN || CapSense_PROX_RC_IIR_FILTER_EN) */     
ARM GAS  C:\Users\TB1014~1\AppData\Local\Temp\ccLivewv.s 			page 22


 397              		.loc 1 116 0
 398 0048 211C     		mov	r1, r4
 399 004a FFF7FEFF 		bl	CapSense_InitializeIIRInternal
 400              	.LVL58:
 129:Generated_Source\PSoC4/CapSense_Filter.c ****                 {
 401              		.loc 1 129 0
 402 004e 2C23     		mov	r3, #44
 403 0050 7B43     		mul	r3, r7
 404 0052 0B4A     		ldr	r2, .L30
 405 0054 D318     		add	r3, r2, r3
 406 0056 5B7E     		ldrb	r3, [r3, #25]
 128:Generated_Source\PSoC4/CapSense_Filter.c ****                     CapSense_GET_SENSE_METHOD(&CapSense_dsFlash.wdgtArray[widgetId]))
 407              		.loc 1 128 0
 408 0058 012B     		cmp	r3, #1
 409 005a 05D1     		bne	.L27
 131:Generated_Source\PSoC4/CapSense_Filter.c ****                 }
 410              		.loc 1 131 0
 411 005c 2088     		ldrh	r0, [r4]
 412 005e 4346     		mov	r3, r8
 413 0060 198A     		ldrh	r1, [r3, #16]
 414 0062 2A1C     		mov	r2, r5
 415 0064 FFF7FEFF 		bl	SmartSense_InitializeNoiseEnvelope
 416              	.LVL59:
 417              	.L27:
 418 0068 331C     		mov	r3, r6
 419              	.LVL60:
 420              	.L25:
  87:Generated_Source\PSoC4/CapSense_Filter.c ****         {
 421              		.loc 1 87 0 discriminator 1
 422 006a 5E1E     		sub	r6, r3, #1
 423              	.LVL61:
 424 006c 002B     		cmp	r3, #0
 425 006e D4D1     		bne	.L28
  76:Generated_Source\PSoC4/CapSense_Filter.c ****     {
 426              		.loc 1 76 0
 427 0070 3B1C     		mov	r3, r7
 428              	.LVL62:
 429              	.L24:
  76:Generated_Source\PSoC4/CapSense_Filter.c ****     {
 430              		.loc 1 76 0 is_stmt 0 discriminator 1
 431 0072 5F1E     		sub	r7, r3, #1
 432              	.LVL63:
 433 0074 002B     		cmp	r3, #0
 434 0076 C8D1     		bne	.L29
 136:Generated_Source\PSoC4/CapSense_Filter.c **** 
 435              		.loc 1 136 0 is_stmt 1
 436              		@ sp needed
 437              	.LVL64:
 438 0078 04BC     		pop	{r2}
 439 007a 9046     		mov	r8, r2
 440 007c F0BD     		pop	{r4, r5, r6, r7, pc}
 441              	.L31:
 442 007e C046     		.align	2
 443              	.L30:
 444 0080 00000000 		.word	CapSense_dsFlash
 445              		.cfi_endproc
 446              	.LFE1:
ARM GAS  C:\Users\TB1014~1\AppData\Local\Temp\ccLivewv.s 			page 23


 447              		.size	CapSense_FtInitialize, .-CapSense_FtInitialize
 448              		.section	.text.CapSense_InitializeIIR,"ax",%progbits
 449              		.align	2
 450              		.global	CapSense_InitializeIIR
 451              		.code	16
 452              		.thumb_func
 453              		.type	CapSense_InitializeIIR, %function
 454              	CapSense_InitializeIIR:
 455              	.LFB11:
 645:Generated_Source\PSoC4/CapSense_Filter.c ****     CapSense_FLASH_WD_STRUCT const *ptrWidget = &CapSense_dsFlash.wdgtArray[widgetId];      
 456              		.loc 1 645 0
 457              		.cfi_startproc
 458              	.LVL65:
 459 0000 10B5     		push	{r4, lr}
 460              		.cfi_def_cfa_offset 8
 461              		.cfi_offset 4, -8
 462              		.cfi_offset 14, -4
 463              	.LVL66:
 651:Generated_Source\PSoC4/CapSense_Filter.c ****     ptrSensor = &ptrSensor[sensorId];
 464              		.loc 1 651 0
 465 0002 2C23     		mov	r3, #44
 466 0004 5843     		mul	r0, r3
 467              	.LVL67:
 468 0006 094A     		ldr	r2, .L34
 469 0008 1218     		add	r2, r2, r0
 470              	.LVL68:
 652:Generated_Source\PSoC4/CapSense_Filter.c ****         
 471              		.loc 1 652 0
 472 000a 8B00     		lsl	r3, r1, #2
 473 000c 5B18     		add	r3, r3, r1
 474 000e 5B00     		lsl	r3, r3, #1
 475 0010 9068     		ldr	r0, [r2, #8]
 476 0012 8446     		mov	ip, r0
 477 0014 6344     		add	r3, r3, ip
 478              	.LVL69:
 655:Generated_Source\PSoC4/CapSense_Filter.c ****     
 479              		.loc 1 655 0
 480 0016 D468     		ldr	r4, [r2, #12]
 481 0018 201C     		mov	r0, r4
 482              	.LVL70:
 657:Generated_Source\PSoC4/CapSense_Filter.c ****     {
 483              		.loc 1 657 0
 484 001a 127E     		ldrb	r2, [r2, #24]
 485              	.LVL71:
 486 001c 062A     		cmp	r2, #6
 487 001e 01D0     		beq	.L33
 660:Generated_Source\PSoC4/CapSense_Filter.c ****         #endif /* (CapSense_REGULAR_SENSOR_EN) */
 488              		.loc 1 660 0
 489 0020 4900     		lsl	r1, r1, #1
 490              	.LVL72:
 491 0022 6018     		add	r0, r4, r1
 492              	.L33:
 670:Generated_Source\PSoC4/CapSense_Filter.c **** }
 493              		.loc 1 670 0
 494 0024 191C     		mov	r1, r3
 495 0026 FFF7FEFF 		bl	CapSense_InitializeIIRInternal
 496              	.LVL73:
ARM GAS  C:\Users\TB1014~1\AppData\Local\Temp\ccLivewv.s 			page 24


 671:Generated_Source\PSoC4/CapSense_Filter.c **** 
 497              		.loc 1 671 0
 498              		@ sp needed
 499 002a 10BD     		pop	{r4, pc}
 500              	.L35:
 501              		.align	2
 502              	.L34:
 503 002c 00000000 		.word	CapSense_dsFlash
 504              		.cfi_endproc
 505              	.LFE11:
 506              		.size	CapSense_InitializeIIR, .-CapSense_InitializeIIR
 507              		.section	.text.CapSense_RunNoiseEnvelope,"ax",%progbits
 508              		.align	2
 509              		.global	CapSense_RunNoiseEnvelope
 510              		.code	16
 511              		.thumb_func
 512              		.type	CapSense_RunNoiseEnvelope, %function
 513              	CapSense_RunNoiseEnvelope:
 514              	.LFB17:
 761:Generated_Source\PSoC4/CapSense_Filter.c ****  
 762:Generated_Source\PSoC4/CapSense_Filter.c **** 
 763:Generated_Source\PSoC4/CapSense_Filter.c **** /*******************************************************************************
 764:Generated_Source\PSoC4/CapSense_Filter.c **** * Function Name: CapSense_RunIIRInternal
 765:Generated_Source\PSoC4/CapSense_Filter.c **** ****************************************************************************//**
 766:Generated_Source\PSoC4/CapSense_Filter.c **** *
 767:Generated_Source\PSoC4/CapSense_Filter.c **** * \brief    Run the IIR filter.
 768:Generated_Source\PSoC4/CapSense_Filter.c **** *
 769:Generated_Source\PSoC4/CapSense_Filter.c **** * \details  Run the IIR filter.
 770:Generated_Source\PSoC4/CapSense_Filter.c **** *
 771:Generated_Source\PSoC4/CapSense_Filter.c **** * \param    ptrFilterHistObj The pointer to the filter RAM object of the sensor.
 772:Generated_Source\PSoC4/CapSense_Filter.c **** * \param    ptrSensorObj     The pointer to the sensor RAM object of the sensor.
 773:Generated_Source\PSoC4/CapSense_Filter.c **** * \param    wdType           Specifies the type of a widget.
 774:Generated_Source\PSoC4/CapSense_Filter.c **** *
 775:Generated_Source\PSoC4/CapSense_Filter.c **** *******************************************************************************/    
 776:Generated_Source\PSoC4/CapSense_Filter.c **** void CapSense_RunIIRInternal(CapSense_PTR_FILTER_VARIANT ptrFilterHistObj, 
 777:Generated_Source\PSoC4/CapSense_Filter.c ****                                      CapSense_RAM_SNS_STRUCT *ptrSensorObj, uint32 wdType)
 778:Generated_Source\PSoC4/CapSense_Filter.c **** {        
 779:Generated_Source\PSoC4/CapSense_Filter.c ****     uint32 channel;
 780:Generated_Source\PSoC4/CapSense_Filter.c ****     uint32 temp;
 781:Generated_Source\PSoC4/CapSense_Filter.c **** 
 782:Generated_Source\PSoC4/CapSense_Filter.c ****     for(channel = CapSense_NUM_SCAN_FREQS; channel-- > 0u;)
 783:Generated_Source\PSoC4/CapSense_Filter.c ****     {
 784:Generated_Source\PSoC4/CapSense_Filter.c ****         if ((CapSense_WD_TYPE_ENUM)wdType != CapSense_WD_PROXIMITY_E)
 785:Generated_Source\PSoC4/CapSense_Filter.c ****         {
 786:Generated_Source\PSoC4/CapSense_Filter.c ****             #if (CapSense_REGULAR_SENSOR_EN && CapSense_REGULAR_RC_IIR_FILTER_EN)
 787:Generated_Source\PSoC4/CapSense_Filter.c ****                 #if (CapSense_REGULAR_IIR_RC_TYPE == CapSense_IIR_FILTER_PERFORMANCE)
 788:Generated_Source\PSoC4/CapSense_Filter.c ****                     temp = ((uint32)ptrFilterHistObj.ptrRegular->regularChannel[channel].iirHistory
 789:Generated_Source\PSoC4/CapSense_Filter.c ****                     temp |= ptrFilterHistObj.ptrRegular->regularChannel[channel].iirHistoryLow;
 790:Generated_Source\PSoC4/CapSense_Filter.c ****                     temp = CapSense_FtIIR1stOrder((uint32)ptrSensorObj->raw[channel],
 791:Generated_Source\PSoC4/CapSense_Filter.c ****                                                         temp,
 792:Generated_Source\PSoC4/CapSense_Filter.c ****                                                         CapSense_REGULAR_IIR_RC_N,
 793:Generated_Source\PSoC4/CapSense_Filter.c ****                                                         CapSense_REGULAR_IIR_RC_SHIFT);
 794:Generated_Source\PSoC4/CapSense_Filter.c ****                     ptrFilterHistObj.ptrRegular->regularChannel[channel].iirHistory = LO16(temp >>C
 795:Generated_Source\PSoC4/CapSense_Filter.c ****                     ptrFilterHistObj.ptrRegular->regularChannel[channel].iirHistoryLow = LO8(temp);
 796:Generated_Source\PSoC4/CapSense_Filter.c ****                     ptrSensorObj->raw[channel] = LO16(temp >>CapSense_REGULAR_IIR_RC_SHIFT);
 797:Generated_Source\PSoC4/CapSense_Filter.c ****                 #else
 798:Generated_Source\PSoC4/CapSense_Filter.c ****                     temp =CapSense_FtIIR1stOrder((uint32)ptrSensorObj->raw[channel],
ARM GAS  C:\Users\TB1014~1\AppData\Local\Temp\ccLivewv.s 			page 25


 799:Generated_Source\PSoC4/CapSense_Filter.c ****                                                         (uint32)ptrFilterHistObj.ptrRegular->regula
 800:Generated_Source\PSoC4/CapSense_Filter.c ****                                                         CapSense_REGULAR_IIR_RC_N,
 801:Generated_Source\PSoC4/CapSense_Filter.c ****                                                         CapSense_REGULAR_IIR_RC_SHIFT);
 802:Generated_Source\PSoC4/CapSense_Filter.c ****                     ptrFilterHistObj.ptrRegular->regularChannel[channel].iirHistory = LO16(temp);
 803:Generated_Source\PSoC4/CapSense_Filter.c ****                     ptrSensorObj->raw[channel] = LO16(temp >>CapSense_REGULAR_IIR_RC_SHIFT);
 804:Generated_Source\PSoC4/CapSense_Filter.c ****                 #endif /* (CapSense_REGULAR_IIR_RC_TYPE == CapSense_IIR_FILTER_PERFORMANCE) */
 805:Generated_Source\PSoC4/CapSense_Filter.c ****             #endif /* (CapSense_REGULAR_SENSOR_EN) */    
 806:Generated_Source\PSoC4/CapSense_Filter.c ****         }
 807:Generated_Source\PSoC4/CapSense_Filter.c ****         else
 808:Generated_Source\PSoC4/CapSense_Filter.c ****         {
 809:Generated_Source\PSoC4/CapSense_Filter.c ****             #if (CapSense_PROXIMITY_SENSOR_EN && CapSense_PROX_RC_IIR_FILTER_EN)
 810:Generated_Source\PSoC4/CapSense_Filter.c ****                 #if (CapSense_PROX_IIR_RC_TYPE == CapSense_IIR_FILTER_PERFORMANCE)
 811:Generated_Source\PSoC4/CapSense_Filter.c ****                     temp =  ptrFilterHistObj.ptrProx->proxChannel[channel].iirHistory << CapSense_P
 812:Generated_Source\PSoC4/CapSense_Filter.c ****                     temp |= ptrFilterHistObj.ptrProx->proxChannel[channel].iirHistoryLow;
 813:Generated_Source\PSoC4/CapSense_Filter.c ****                     temp =CapSense_FtIIR1stOrder((uint32)ptrSensorObj->raw[channel],
 814:Generated_Source\PSoC4/CapSense_Filter.c ****                                                         temp,
 815:Generated_Source\PSoC4/CapSense_Filter.c ****                                                         CapSense_PROX_IIR_RC_N,
 816:Generated_Source\PSoC4/CapSense_Filter.c ****                                                         CapSense_PROX_IIR_RC_SHIFT);
 817:Generated_Source\PSoC4/CapSense_Filter.c ****                     ptrFilterHistObj.ptrProx->proxChannel[channel].iirHistory = LO16(temp >>CapSens
 818:Generated_Source\PSoC4/CapSense_Filter.c ****                     ptrFilterHistObj.ptrProx->proxChannel[channel].iirHistoryLow = LO8(temp);
 819:Generated_Source\PSoC4/CapSense_Filter.c ****                     ptrSensorObj->raw[channel] = LO16(temp >>CapSense_PROX_IIR_RC_SHIFT);
 820:Generated_Source\PSoC4/CapSense_Filter.c ****                 #else
 821:Generated_Source\PSoC4/CapSense_Filter.c ****                     temp =CapSense_FtIIR1stOrder((uint32)ptrSensorObj->raw[channel],
 822:Generated_Source\PSoC4/CapSense_Filter.c ****                                                         (uint32)ptrFilterHistObj.ptrProx->proxChann
 823:Generated_Source\PSoC4/CapSense_Filter.c ****                                                         CapSense_PROX_IIR_RC_N,
 824:Generated_Source\PSoC4/CapSense_Filter.c ****                                                         CapSense_PROX_IIR_RC_SHIFT);
 825:Generated_Source\PSoC4/CapSense_Filter.c ****                     ptrFilterHistObj.ptrProx->proxChannel[channel].iirHistory = LO16(temp);
 826:Generated_Source\PSoC4/CapSense_Filter.c ****                     ptrSensorObj->raw[channel] = LO16(temp >>CapSense_PROX_IIR_RC_SHIFT);
 827:Generated_Source\PSoC4/CapSense_Filter.c ****                 #endif /* (CapSense_PROX_IIR_RC_TYPE == CapSense_IIR_FILTER_PERFORMANCE) */
 828:Generated_Source\PSoC4/CapSense_Filter.c ****             #endif /* (CapSense_PROX_SENSOR_EN) */
 829:Generated_Source\PSoC4/CapSense_Filter.c ****         }    
 830:Generated_Source\PSoC4/CapSense_Filter.c ****     }        
 831:Generated_Source\PSoC4/CapSense_Filter.c **** }    
 832:Generated_Source\PSoC4/CapSense_Filter.c **** #endif /* #if (CapSense_REGULAR_RC_IIR_FILTER_EN || CapSense_PROX_RC_IIR_FILTER_EN) */
 833:Generated_Source\PSoC4/CapSense_Filter.c **** 
 834:Generated_Source\PSoC4/CapSense_Filter.c **** 
 835:Generated_Source\PSoC4/CapSense_Filter.c **** #if (CapSense_REGULAR_RC_MEDIAN_FILTER_EN || CapSense_PROX_RC_MEDIAN_FILTER_EN)
 836:Generated_Source\PSoC4/CapSense_Filter.c **** 
 837:Generated_Source\PSoC4/CapSense_Filter.c **** /*******************************************************************************
 838:Generated_Source\PSoC4/CapSense_Filter.c **** * Function Name: CapSense_InitializeMedian
 839:Generated_Source\PSoC4/CapSense_Filter.c **** ****************************************************************************//**
 840:Generated_Source\PSoC4/CapSense_Filter.c **** *
 841:Generated_Source\PSoC4/CapSense_Filter.c **** * \brief    Initializes the Median filter history.
 842:Generated_Source\PSoC4/CapSense_Filter.c **** *
 843:Generated_Source\PSoC4/CapSense_Filter.c **** * \details  Initializes the Median filter history.
 844:Generated_Source\PSoC4/CapSense_Filter.c **** *
 845:Generated_Source\PSoC4/CapSense_Filter.c **** * \param    widgetId Specifies the ID number of the widget.
 846:Generated_Source\PSoC4/CapSense_Filter.c **** * \param    sensorId Specifies the ID number of the sensor in the widget.
 847:Generated_Source\PSoC4/CapSense_Filter.c **** *
 848:Generated_Source\PSoC4/CapSense_Filter.c **** *******************************************************************************/
 849:Generated_Source\PSoC4/CapSense_Filter.c **** void CapSense_InitializeMedian(uint32 widgetId, uint32 sensorId)
 850:Generated_Source\PSoC4/CapSense_Filter.c **** {
 851:Generated_Source\PSoC4/CapSense_Filter.c ****     CapSense_FLASH_WD_STRUCT const *ptrWidget = &CapSense_dsFlash.wdgtArray[widgetId];      
 852:Generated_Source\PSoC4/CapSense_Filter.c ****     CapSense_RAM_SNS_STRUCT *ptrSensor = NULL;    
 853:Generated_Source\PSoC4/CapSense_Filter.c ****     CapSense_PTR_FILTER_VARIANT ptrFilterHistObj; 
 854:Generated_Source\PSoC4/CapSense_Filter.c ****               
 855:Generated_Source\PSoC4/CapSense_Filter.c ****     /* Find pointer to specified sensor object */     
ARM GAS  C:\Users\TB1014~1\AppData\Local\Temp\ccLivewv.s 			page 26


 856:Generated_Source\PSoC4/CapSense_Filter.c ****     ptrSensor = ptrWidget->ptr2SnsRam;
 857:Generated_Source\PSoC4/CapSense_Filter.c ****     ptrSensor = &ptrSensor[sensorId];
 858:Generated_Source\PSoC4/CapSense_Filter.c ****     
 859:Generated_Source\PSoC4/CapSense_Filter.c ****     /* Find pointer to specified filter sensor object */     
 860:Generated_Source\PSoC4/CapSense_Filter.c ****     ptrFilterHistObj.ptr = ptrWidget->ptr2FltrHistory;
 861:Generated_Source\PSoC4/CapSense_Filter.c ****     
 862:Generated_Source\PSoC4/CapSense_Filter.c ****     if ((CapSense_WD_TYPE_ENUM)ptrWidget->wdgtType != CapSense_WD_PROXIMITY_E)
 863:Generated_Source\PSoC4/CapSense_Filter.c ****     {
 864:Generated_Source\PSoC4/CapSense_Filter.c ****         #if (CapSense_REGULAR_SENSOR_EN)
 865:Generated_Source\PSoC4/CapSense_Filter.c ****             ptrFilterHistObj.ptrRegular = &ptrFilterHistObj.ptrRegular[sensorId];
 866:Generated_Source\PSoC4/CapSense_Filter.c ****         #endif /* (CapSense_REGULAR_SENSOR_EN) */
 867:Generated_Source\PSoC4/CapSense_Filter.c ****     }
 868:Generated_Source\PSoC4/CapSense_Filter.c ****     else
 869:Generated_Source\PSoC4/CapSense_Filter.c ****     {
 870:Generated_Source\PSoC4/CapSense_Filter.c ****         #if (CapSense_PROXIMITY_SENSOR_EN)
 871:Generated_Source\PSoC4/CapSense_Filter.c ****             ptrFilterHistObj.ptrProx = &ptrFilterHistObj.ptrProx[sensorId];
 872:Generated_Source\PSoC4/CapSense_Filter.c ****         #endif /* (CapSense_PROXIMITY_SENSOR_EN) */
 873:Generated_Source\PSoC4/CapSense_Filter.c ****     }
 874:Generated_Source\PSoC4/CapSense_Filter.c ****     
 875:Generated_Source\PSoC4/CapSense_Filter.c ****     CapSense_InitializeMedianInternal(ptrFilterHistObj, ptrSensor, (uint32)ptrWidget->wdgtType);
 876:Generated_Source\PSoC4/CapSense_Filter.c **** }     
 877:Generated_Source\PSoC4/CapSense_Filter.c **** 
 878:Generated_Source\PSoC4/CapSense_Filter.c **** 
 879:Generated_Source\PSoC4/CapSense_Filter.c **** /*******************************************************************************
 880:Generated_Source\PSoC4/CapSense_Filter.c **** * Function Name: CapSense_RunMedian
 881:Generated_Source\PSoC4/CapSense_Filter.c **** ****************************************************************************//**
 882:Generated_Source\PSoC4/CapSense_Filter.c **** *
 883:Generated_Source\PSoC4/CapSense_Filter.c **** * \brief    Executes the Median filter algorithm on a sensor indicated by an input 
 884:Generated_Source\PSoC4/CapSense_Filter.c **** *           parameter. 
 885:Generated_Source\PSoC4/CapSense_Filter.c **** *
 886:Generated_Source\PSoC4/CapSense_Filter.c **** * \details  Executes the Median filter algorithm on a sensor indicated by an input 
 887:Generated_Source\PSoC4/CapSense_Filter.c **** *           parameter. 
 888:Generated_Source\PSoC4/CapSense_Filter.c **** *
 889:Generated_Source\PSoC4/CapSense_Filter.c **** * \param    widgetId Specifies the ID number of the widget.
 890:Generated_Source\PSoC4/CapSense_Filter.c **** * \param    sensorId Specifies the ID number of the sensor in the widget.
 891:Generated_Source\PSoC4/CapSense_Filter.c **** *
 892:Generated_Source\PSoC4/CapSense_Filter.c **** *******************************************************************************/
 893:Generated_Source\PSoC4/CapSense_Filter.c **** void CapSense_RunMedian(uint32 widgetId, uint32 sensorId)
 894:Generated_Source\PSoC4/CapSense_Filter.c **** {
 895:Generated_Source\PSoC4/CapSense_Filter.c ****     CapSense_FLASH_WD_STRUCT const *ptrWidget = &CapSense_dsFlash.wdgtArray[widgetId];      
 896:Generated_Source\PSoC4/CapSense_Filter.c ****     CapSense_RAM_SNS_STRUCT *ptrSensor = NULL;    
 897:Generated_Source\PSoC4/CapSense_Filter.c ****     CapSense_PTR_FILTER_VARIANT ptrFilterHistObj; 
 898:Generated_Source\PSoC4/CapSense_Filter.c ****               
 899:Generated_Source\PSoC4/CapSense_Filter.c ****     /* Find pointer to specified sensor object */     
 900:Generated_Source\PSoC4/CapSense_Filter.c ****     ptrSensor = ptrWidget->ptr2SnsRam;
 901:Generated_Source\PSoC4/CapSense_Filter.c ****     ptrSensor = &ptrSensor[sensorId];
 902:Generated_Source\PSoC4/CapSense_Filter.c ****     
 903:Generated_Source\PSoC4/CapSense_Filter.c ****     /* Find pointer to specified filter sensor object */     
 904:Generated_Source\PSoC4/CapSense_Filter.c ****     ptrFilterHistObj.ptr = ptrWidget->ptr2FltrHistory;
 905:Generated_Source\PSoC4/CapSense_Filter.c ****     
 906:Generated_Source\PSoC4/CapSense_Filter.c ****     if ((CapSense_WD_TYPE_ENUM)ptrWidget->wdgtType != CapSense_WD_PROXIMITY_E)
 907:Generated_Source\PSoC4/CapSense_Filter.c ****     {
 908:Generated_Source\PSoC4/CapSense_Filter.c ****         #if (CapSense_REGULAR_SENSOR_EN)
 909:Generated_Source\PSoC4/CapSense_Filter.c ****             ptrFilterHistObj.ptrRegular = &ptrFilterHistObj.ptrRegular[sensorId];
 910:Generated_Source\PSoC4/CapSense_Filter.c ****         #endif /* (CapSense_REGULAR_SENSOR_EN) */
 911:Generated_Source\PSoC4/CapSense_Filter.c ****     }
 912:Generated_Source\PSoC4/CapSense_Filter.c ****     else
ARM GAS  C:\Users\TB1014~1\AppData\Local\Temp\ccLivewv.s 			page 27


 913:Generated_Source\PSoC4/CapSense_Filter.c ****     {
 914:Generated_Source\PSoC4/CapSense_Filter.c ****         #if (CapSense_PROXIMITY_SENSOR_EN)
 915:Generated_Source\PSoC4/CapSense_Filter.c ****             ptrFilterHistObj.ptrProx = &ptrFilterHistObj.ptrProx[sensorId];
 916:Generated_Source\PSoC4/CapSense_Filter.c ****         #endif /* (CapSense_PROXIMITY_SENSOR_EN) */
 917:Generated_Source\PSoC4/CapSense_Filter.c ****     }
 918:Generated_Source\PSoC4/CapSense_Filter.c ****     
 919:Generated_Source\PSoC4/CapSense_Filter.c ****     CapSense_RunMedianInternal(ptrFilterHistObj, ptrSensor, (uint32)ptrWidget->wdgtType);
 920:Generated_Source\PSoC4/CapSense_Filter.c **** }
 921:Generated_Source\PSoC4/CapSense_Filter.c ****    
 922:Generated_Source\PSoC4/CapSense_Filter.c **** 
 923:Generated_Source\PSoC4/CapSense_Filter.c **** /*******************************************************************************
 924:Generated_Source\PSoC4/CapSense_Filter.c **** * Function Name: CapSense_InitializeMedianInternal
 925:Generated_Source\PSoC4/CapSense_Filter.c **** ****************************************************************************//**
 926:Generated_Source\PSoC4/CapSense_Filter.c **** *
 927:Generated_Source\PSoC4/CapSense_Filter.c **** * \brief    Initializes the Median filter.
 928:Generated_Source\PSoC4/CapSense_Filter.c **** *
 929:Generated_Source\PSoC4/CapSense_Filter.c **** * \details  Initializes the Median filter.
 930:Generated_Source\PSoC4/CapSense_Filter.c **** *
 931:Generated_Source\PSoC4/CapSense_Filter.c **** * \param    ptrFilterHistObj The pointer to the filter RAM object of the sensor.
 932:Generated_Source\PSoC4/CapSense_Filter.c **** * \param    ptrSensorObj     The pointer to the sensor RAM object of the sensor.
 933:Generated_Source\PSoC4/CapSense_Filter.c **** * \param    wdType           Specifies the type of a widget.
 934:Generated_Source\PSoC4/CapSense_Filter.c **** *
 935:Generated_Source\PSoC4/CapSense_Filter.c **** *******************************************************************************/
 936:Generated_Source\PSoC4/CapSense_Filter.c **** void CapSense_InitializeMedianInternal(CapSense_PTR_FILTER_VARIANT ptrFilterHistObj,
 937:Generated_Source\PSoC4/CapSense_Filter.c ****                                                CapSense_RAM_SNS_STRUCT *ptrSensorObj, uint32 wdType
 938:Generated_Source\PSoC4/CapSense_Filter.c **** {
 939:Generated_Source\PSoC4/CapSense_Filter.c ****     uint32 channel;
 940:Generated_Source\PSoC4/CapSense_Filter.c **** 
 941:Generated_Source\PSoC4/CapSense_Filter.c ****     for(channel = CapSense_NUM_SCAN_FREQS; channel-- > 0u;)
 942:Generated_Source\PSoC4/CapSense_Filter.c ****     {
 943:Generated_Source\PSoC4/CapSense_Filter.c ****         if ((CapSense_WD_TYPE_ENUM)wdType != CapSense_WD_PROXIMITY_E)
 944:Generated_Source\PSoC4/CapSense_Filter.c ****         {
 945:Generated_Source\PSoC4/CapSense_Filter.c ****             #if (CapSense_REGULAR_SENSOR_EN && CapSense_REGULAR_RC_MEDIAN_FILTER_EN)
 946:Generated_Source\PSoC4/CapSense_Filter.c ****                 ptrFilterHistObj.ptrRegular->regularChannel[channel].medHistory[0u] = ptrSensorObj-
 947:Generated_Source\PSoC4/CapSense_Filter.c ****                 ptrFilterHistObj.ptrRegular->regularChannel[channel].medHistory[1u] = ptrSensorObj-
 948:Generated_Source\PSoC4/CapSense_Filter.c ****             #endif /* (CapSense_REGULAR_SENSOR_EN) */
 949:Generated_Source\PSoC4/CapSense_Filter.c ****         }
 950:Generated_Source\PSoC4/CapSense_Filter.c ****         else
 951:Generated_Source\PSoC4/CapSense_Filter.c ****         {
 952:Generated_Source\PSoC4/CapSense_Filter.c ****             #if (CapSense_PROXIMITY_SENSOR_EN && CapSense_PROX_RC_MEDIAN_FILTER_EN)
 953:Generated_Source\PSoC4/CapSense_Filter.c ****                 ptrFilterHistObj.ptrProx->proxChannel[channel].medHistory[0u] = ptrSensorObj->raw[c
 954:Generated_Source\PSoC4/CapSense_Filter.c ****                 ptrFilterHistObj.ptrProx->proxChannel[channel].medHistory[1u] = ptrSensorObj->raw[c
 955:Generated_Source\PSoC4/CapSense_Filter.c ****             #endif /* (CapSense_PROXIMITY_SENSOR_EN) */               
 956:Generated_Source\PSoC4/CapSense_Filter.c ****         }
 957:Generated_Source\PSoC4/CapSense_Filter.c ****     }
 958:Generated_Source\PSoC4/CapSense_Filter.c **** }
 959:Generated_Source\PSoC4/CapSense_Filter.c **** 
 960:Generated_Source\PSoC4/CapSense_Filter.c **** 
 961:Generated_Source\PSoC4/CapSense_Filter.c **** /*******************************************************************************
 962:Generated_Source\PSoC4/CapSense_Filter.c **** * Function Name: CapSense_RunMedianInternal
 963:Generated_Source\PSoC4/CapSense_Filter.c **** ****************************************************************************//**
 964:Generated_Source\PSoC4/CapSense_Filter.c **** *
 965:Generated_Source\PSoC4/CapSense_Filter.c **** * \brief    Runs the Median filter.
 966:Generated_Source\PSoC4/CapSense_Filter.c **** *
 967:Generated_Source\PSoC4/CapSense_Filter.c **** * \details  Runs the Median filter.
 968:Generated_Source\PSoC4/CapSense_Filter.c **** *
 969:Generated_Source\PSoC4/CapSense_Filter.c **** * \param    ptrFilterHistObj The pointer to the filter RAM object of the sensor.
ARM GAS  C:\Users\TB1014~1\AppData\Local\Temp\ccLivewv.s 			page 28


 970:Generated_Source\PSoC4/CapSense_Filter.c **** * \param    ptrSensorObj     The pointer to the sensor RAM object of the sensor.
 971:Generated_Source\PSoC4/CapSense_Filter.c **** * \param    wdType           Specifies the type of a widget.
 972:Generated_Source\PSoC4/CapSense_Filter.c **** *
 973:Generated_Source\PSoC4/CapSense_Filter.c **** *******************************************************************************/
 974:Generated_Source\PSoC4/CapSense_Filter.c **** void CapSense_RunMedianInternal(CapSense_PTR_FILTER_VARIANT ptrFilterHistObj,
 975:Generated_Source\PSoC4/CapSense_Filter.c ****                                         CapSense_RAM_SNS_STRUCT *ptrSensorObj, uint32 wdType)
 976:Generated_Source\PSoC4/CapSense_Filter.c **** {
 977:Generated_Source\PSoC4/CapSense_Filter.c ****     uint32 channel;
 978:Generated_Source\PSoC4/CapSense_Filter.c ****     
 979:Generated_Source\PSoC4/CapSense_Filter.c ****     #if ((CapSense_REGULAR_SENSOR_EN && CapSense_REGULAR_RC_MEDIAN_FILTER_EN) || \
 980:Generated_Source\PSoC4/CapSense_Filter.c ****          (CapSense_PROXIMITY_SENSOR_EN && CapSense_PROX_RC_MEDIAN_FILTER_EN))
 981:Generated_Source\PSoC4/CapSense_Filter.c ****         uint32 temp;
 982:Generated_Source\PSoC4/CapSense_Filter.c ****     #endif
 983:Generated_Source\PSoC4/CapSense_Filter.c ****     
 984:Generated_Source\PSoC4/CapSense_Filter.c ****     for(channel = CapSense_NUM_SCAN_FREQS; channel-- > 0u;)
 985:Generated_Source\PSoC4/CapSense_Filter.c ****     {    
 986:Generated_Source\PSoC4/CapSense_Filter.c ****         if ((CapSense_WD_TYPE_ENUM)wdType != CapSense_WD_PROXIMITY_E)
 987:Generated_Source\PSoC4/CapSense_Filter.c ****         {                                             
 988:Generated_Source\PSoC4/CapSense_Filter.c ****             #if (CapSense_REGULAR_SENSOR_EN && CapSense_REGULAR_RC_MEDIAN_FILTER_EN)
 989:Generated_Source\PSoC4/CapSense_Filter.c ****                 temp = CapSense_FtMedian((uint32)ptrSensorObj->raw[channel],\
 990:Generated_Source\PSoC4/CapSense_Filter.c ****                                                  (uint32)ptrFilterHistObj.ptrRegular->regularChanne
 991:Generated_Source\PSoC4/CapSense_Filter.c ****                                                  (uint32)ptrFilterHistObj.ptrRegular->regularChanne
 992:Generated_Source\PSoC4/CapSense_Filter.c ****                 ptrFilterHistObj.ptrRegular->regularChannel[channel].medHistory[1u] = \
 993:Generated_Source\PSoC4/CapSense_Filter.c ****                 ptrFilterHistObj.ptrRegular->regularChannel[channel].medHistory[0u];
 994:Generated_Source\PSoC4/CapSense_Filter.c ****                 ptrFilterHistObj.ptrRegular->regularChannel[channel].medHistory[0u] = ptrSensorObj-
 995:Generated_Source\PSoC4/CapSense_Filter.c ****                 ptrSensorObj->raw[channel] = LO16(temp);
 996:Generated_Source\PSoC4/CapSense_Filter.c ****             #endif /* (CapSense_REGULAR_SENSOR_EN) */     
 997:Generated_Source\PSoC4/CapSense_Filter.c ****         }
 998:Generated_Source\PSoC4/CapSense_Filter.c ****         else 
 999:Generated_Source\PSoC4/CapSense_Filter.c ****         {                   
1000:Generated_Source\PSoC4/CapSense_Filter.c ****             #if (CapSense_PROXIMITY_SENSOR_EN && CapSense_PROX_RC_MEDIAN_FILTER_EN)
1001:Generated_Source\PSoC4/CapSense_Filter.c ****                 temp = CapSense_FtMedian((uint32)ptrSensorObj->raw[channel],\
1002:Generated_Source\PSoC4/CapSense_Filter.c ****                                                  (uint32)ptrFilterHistObj.ptrProx->proxChannel[chan
1003:Generated_Source\PSoC4/CapSense_Filter.c ****                                                  (uint32)ptrFilterHistObj.ptrProx->proxChannel[chan
1004:Generated_Source\PSoC4/CapSense_Filter.c ****                 ptrFilterHistObj.ptrProx->proxChannel[channel].medHistory[1u] = \
1005:Generated_Source\PSoC4/CapSense_Filter.c ****                 ptrFilterHistObj.ptrProx->proxChannel[channel].medHistory[0u];
1006:Generated_Source\PSoC4/CapSense_Filter.c ****                 ptrFilterHistObj.ptrProx->proxChannel[channel].medHistory[0u] = ptrSensorObj->raw[c
1007:Generated_Source\PSoC4/CapSense_Filter.c ****                 ptrSensorObj->raw[channel] = LO16(temp);
1008:Generated_Source\PSoC4/CapSense_Filter.c ****             #endif /* (CapSense_PROXIMITY_SENSOR_EN) */               
1009:Generated_Source\PSoC4/CapSense_Filter.c ****         }
1010:Generated_Source\PSoC4/CapSense_Filter.c ****     }
1011:Generated_Source\PSoC4/CapSense_Filter.c **** }
1012:Generated_Source\PSoC4/CapSense_Filter.c **** #endif /* (CapSense_REGULAR_RC_MEDIAN_FILTER_EN || CapSense_PROX_RC_MEDIAN_FILTER_EN) */
1013:Generated_Source\PSoC4/CapSense_Filter.c **** 
1014:Generated_Source\PSoC4/CapSense_Filter.c **** 
1015:Generated_Source\PSoC4/CapSense_Filter.c **** #if (CapSense_REGULAR_RC_AVERAGE_FILTER_EN || CapSense_PROX_RC_AVERAGE_FILTER_EN)
1016:Generated_Source\PSoC4/CapSense_Filter.c **** 
1017:Generated_Source\PSoC4/CapSense_Filter.c **** /*******************************************************************************
1018:Generated_Source\PSoC4/CapSense_Filter.c **** * Function Name: CapSense_InitializeAverage
1019:Generated_Source\PSoC4/CapSense_Filter.c **** ****************************************************************************//**
1020:Generated_Source\PSoC4/CapSense_Filter.c **** *
1021:Generated_Source\PSoC4/CapSense_Filter.c **** * \brief    Initializes the average filter history.
1022:Generated_Source\PSoC4/CapSense_Filter.c **** *
1023:Generated_Source\PSoC4/CapSense_Filter.c **** * \details  Initializes the average filter history.
1024:Generated_Source\PSoC4/CapSense_Filter.c **** *
1025:Generated_Source\PSoC4/CapSense_Filter.c **** * \param    widgetId Specifies the ID number of the widget.
1026:Generated_Source\PSoC4/CapSense_Filter.c **** * \param    sensorId Specifies the ID number of the sensor in the widget.
ARM GAS  C:\Users\TB1014~1\AppData\Local\Temp\ccLivewv.s 			page 29


1027:Generated_Source\PSoC4/CapSense_Filter.c **** *
1028:Generated_Source\PSoC4/CapSense_Filter.c **** *******************************************************************************/
1029:Generated_Source\PSoC4/CapSense_Filter.c **** void CapSense_InitializeAverage(uint32 widgetId, uint32 sensorId)
1030:Generated_Source\PSoC4/CapSense_Filter.c **** {
1031:Generated_Source\PSoC4/CapSense_Filter.c ****     CapSense_FLASH_WD_STRUCT const *ptrWidget = &CapSense_dsFlash.wdgtArray[widgetId];      
1032:Generated_Source\PSoC4/CapSense_Filter.c ****     CapSense_RAM_SNS_STRUCT *ptrSensor = NULL;
1033:Generated_Source\PSoC4/CapSense_Filter.c ****     CapSense_PTR_FILTER_VARIANT ptrFilterHistObj;
1034:Generated_Source\PSoC4/CapSense_Filter.c **** 
1035:Generated_Source\PSoC4/CapSense_Filter.c ****     /* Find pointer to specified sensor object */
1036:Generated_Source\PSoC4/CapSense_Filter.c ****     ptrSensor = ptrWidget->ptr2SnsRam;
1037:Generated_Source\PSoC4/CapSense_Filter.c ****     ptrSensor = &ptrSensor[sensorId];
1038:Generated_Source\PSoC4/CapSense_Filter.c ****     
1039:Generated_Source\PSoC4/CapSense_Filter.c ****     /* Find pointer to specified filter sensor object */
1040:Generated_Source\PSoC4/CapSense_Filter.c ****     ptrFilterHistObj.ptr = ptrWidget->ptr2FltrHistory;
1041:Generated_Source\PSoC4/CapSense_Filter.c **** 
1042:Generated_Source\PSoC4/CapSense_Filter.c ****     if ((CapSense_WD_TYPE_ENUM)ptrWidget->wdgtType != CapSense_WD_PROXIMITY_E)
1043:Generated_Source\PSoC4/CapSense_Filter.c ****     {
1044:Generated_Source\PSoC4/CapSense_Filter.c ****         #if (CapSense_REGULAR_SENSOR_EN)
1045:Generated_Source\PSoC4/CapSense_Filter.c ****             ptrFilterHistObj.ptrRegular = &ptrFilterHistObj.ptrRegular[sensorId];
1046:Generated_Source\PSoC4/CapSense_Filter.c ****         #endif /* (CapSense_REGULAR_SENSOR_EN) */
1047:Generated_Source\PSoC4/CapSense_Filter.c ****     }
1048:Generated_Source\PSoC4/CapSense_Filter.c ****     else
1049:Generated_Source\PSoC4/CapSense_Filter.c ****     {
1050:Generated_Source\PSoC4/CapSense_Filter.c ****         #if (CapSense_PROXIMITY_SENSOR_EN)
1051:Generated_Source\PSoC4/CapSense_Filter.c ****             ptrFilterHistObj.ptrProx = &ptrFilterHistObj.ptrProx[sensorId];
1052:Generated_Source\PSoC4/CapSense_Filter.c ****         #endif /* (CapSense_PROXIMITY_SENSOR_EN) */
1053:Generated_Source\PSoC4/CapSense_Filter.c ****     }
1054:Generated_Source\PSoC4/CapSense_Filter.c **** 
1055:Generated_Source\PSoC4/CapSense_Filter.c ****     CapSense_InitializeAverageInternal(ptrFilterHistObj, ptrSensor, (uint32)ptrWidget->wdgtType);
1056:Generated_Source\PSoC4/CapSense_Filter.c **** }
1057:Generated_Source\PSoC4/CapSense_Filter.c **** 
1058:Generated_Source\PSoC4/CapSense_Filter.c **** 
1059:Generated_Source\PSoC4/CapSense_Filter.c **** /*******************************************************************************
1060:Generated_Source\PSoC4/CapSense_Filter.c **** * Function Name: CapSense_RunAverage
1061:Generated_Source\PSoC4/CapSense_Filter.c **** ****************************************************************************//**
1062:Generated_Source\PSoC4/CapSense_Filter.c **** *
1063:Generated_Source\PSoC4/CapSense_Filter.c **** * \brief    Executes the average filter algorithm on a sensor indicated by an input 
1064:Generated_Source\PSoC4/CapSense_Filter.c **** *           parameter. 
1065:Generated_Source\PSoC4/CapSense_Filter.c **** *
1066:Generated_Source\PSoC4/CapSense_Filter.c **** * \details  Executes the average filter algorithm on a sensor indicated by an input 
1067:Generated_Source\PSoC4/CapSense_Filter.c **** *           parameter. 
1068:Generated_Source\PSoC4/CapSense_Filter.c **** *
1069:Generated_Source\PSoC4/CapSense_Filter.c **** * \param    widgetId Specifies the ID number of the widget.
1070:Generated_Source\PSoC4/CapSense_Filter.c **** * \param    sensorId Specifies the ID number of the sensor in the widget.
1071:Generated_Source\PSoC4/CapSense_Filter.c **** *
1072:Generated_Source\PSoC4/CapSense_Filter.c **** *******************************************************************************/
1073:Generated_Source\PSoC4/CapSense_Filter.c **** void CapSense_RunAverage(uint32 widgetId, uint32 sensorId)
1074:Generated_Source\PSoC4/CapSense_Filter.c **** {
1075:Generated_Source\PSoC4/CapSense_Filter.c ****     CapSense_FLASH_WD_STRUCT const *ptrWidget = &CapSense_dsFlash.wdgtArray[widgetId];      
1076:Generated_Source\PSoC4/CapSense_Filter.c ****     CapSense_RAM_SNS_STRUCT *ptrSensor = NULL;    
1077:Generated_Source\PSoC4/CapSense_Filter.c ****     CapSense_PTR_FILTER_VARIANT ptrFilterHistObj; 
1078:Generated_Source\PSoC4/CapSense_Filter.c ****               
1079:Generated_Source\PSoC4/CapSense_Filter.c ****     /* Find pointer to specified sensor object */     
1080:Generated_Source\PSoC4/CapSense_Filter.c ****     ptrSensor = ptrWidget->ptr2SnsRam;
1081:Generated_Source\PSoC4/CapSense_Filter.c ****     ptrSensor = &ptrSensor[sensorId];
1082:Generated_Source\PSoC4/CapSense_Filter.c ****     
1083:Generated_Source\PSoC4/CapSense_Filter.c ****     /* Find pointer to specified filter sensor object */     
ARM GAS  C:\Users\TB1014~1\AppData\Local\Temp\ccLivewv.s 			page 30


1084:Generated_Source\PSoC4/CapSense_Filter.c ****     ptrFilterHistObj.ptr = ptrWidget->ptr2FltrHistory;
1085:Generated_Source\PSoC4/CapSense_Filter.c ****     
1086:Generated_Source\PSoC4/CapSense_Filter.c ****     if ((CapSense_WD_TYPE_ENUM)ptrWidget->wdgtType != CapSense_WD_PROXIMITY_E)
1087:Generated_Source\PSoC4/CapSense_Filter.c ****     {
1088:Generated_Source\PSoC4/CapSense_Filter.c ****         #if (CapSense_REGULAR_SENSOR_EN)
1089:Generated_Source\PSoC4/CapSense_Filter.c ****             ptrFilterHistObj.ptrRegular = &ptrFilterHistObj.ptrRegular[sensorId];
1090:Generated_Source\PSoC4/CapSense_Filter.c ****         #endif /* (CapSense_REGULAR_SENSOR_EN) */
1091:Generated_Source\PSoC4/CapSense_Filter.c ****     }
1092:Generated_Source\PSoC4/CapSense_Filter.c ****     else
1093:Generated_Source\PSoC4/CapSense_Filter.c ****     {
1094:Generated_Source\PSoC4/CapSense_Filter.c ****         #if (CapSense_PROXIMITY_SENSOR_EN)
1095:Generated_Source\PSoC4/CapSense_Filter.c ****             ptrFilterHistObj.ptrProx = &ptrFilterHistObj.ptrProx[sensorId];
1096:Generated_Source\PSoC4/CapSense_Filter.c ****         #endif /* (CapSense_PROXIMITY_SENSOR_EN) */
1097:Generated_Source\PSoC4/CapSense_Filter.c ****     }
1098:Generated_Source\PSoC4/CapSense_Filter.c ****     
1099:Generated_Source\PSoC4/CapSense_Filter.c ****     CapSense_RunAverageInternal(ptrFilterHistObj, ptrSensor, (uint32)ptrWidget->wdgtType);
1100:Generated_Source\PSoC4/CapSense_Filter.c **** }
1101:Generated_Source\PSoC4/CapSense_Filter.c **** 
1102:Generated_Source\PSoC4/CapSense_Filter.c **** 
1103:Generated_Source\PSoC4/CapSense_Filter.c **** /*******************************************************************************
1104:Generated_Source\PSoC4/CapSense_Filter.c **** * Function Name: CapSense_InitializeAverageInternal
1105:Generated_Source\PSoC4/CapSense_Filter.c **** ****************************************************************************//**
1106:Generated_Source\PSoC4/CapSense_Filter.c **** *
1107:Generated_Source\PSoC4/CapSense_Filter.c **** * \brief    Initializes the average filter.
1108:Generated_Source\PSoC4/CapSense_Filter.c **** *
1109:Generated_Source\PSoC4/CapSense_Filter.c **** * \details  Initializes the average filter.
1110:Generated_Source\PSoC4/CapSense_Filter.c **** *
1111:Generated_Source\PSoC4/CapSense_Filter.c **** * \param    ptrFilterHistObj The pointer to the filter RAM object of the sensor.
1112:Generated_Source\PSoC4/CapSense_Filter.c **** * \param    ptrSensorObj     The pointer to the sensor RAM object of the sensor.
1113:Generated_Source\PSoC4/CapSense_Filter.c **** * \param    wdType           Specifies the type of a widget.
1114:Generated_Source\PSoC4/CapSense_Filter.c **** *
1115:Generated_Source\PSoC4/CapSense_Filter.c **** *******************************************************************************/
1116:Generated_Source\PSoC4/CapSense_Filter.c **** void CapSense_InitializeAverageInternal(CapSense_PTR_FILTER_VARIANT ptrFilterHistObj,\
1117:Generated_Source\PSoC4/CapSense_Filter.c ****                                                   CapSense_RAM_SNS_STRUCT *ptrSensorObj, uint32 wdT
1118:Generated_Source\PSoC4/CapSense_Filter.c **** {
1119:Generated_Source\PSoC4/CapSense_Filter.c ****     uint32 channel;
1120:Generated_Source\PSoC4/CapSense_Filter.c **** 
1121:Generated_Source\PSoC4/CapSense_Filter.c ****     for(channel = CapSense_NUM_SCAN_FREQS; channel-- > 0u;)
1122:Generated_Source\PSoC4/CapSense_Filter.c ****     {
1123:Generated_Source\PSoC4/CapSense_Filter.c ****         if ((CapSense_WD_TYPE_ENUM)wdType != CapSense_WD_PROXIMITY_E)
1124:Generated_Source\PSoC4/CapSense_Filter.c ****         {
1125:Generated_Source\PSoC4/CapSense_Filter.c ****             #if (CapSense_REGULAR_SENSOR_EN && CapSense_REGULAR_RC_AVERAGE_FILTER_EN)
1126:Generated_Source\PSoC4/CapSense_Filter.c ****                 ptrFilterHistObj.ptrRegular->regularChannel[channel].avgHistory[0] = ptrSensorObj->
1127:Generated_Source\PSoC4/CapSense_Filter.c ****                 #if (CapSense_REGULAR_AVERAGE_LEN == CapSense_AVERAGE_FILTER_LEN_4)
1128:Generated_Source\PSoC4/CapSense_Filter.c ****                     ptrFilterHistObj.ptrRegular->regularChannel[channel].avgHistory[1u] = ptrSensor
1129:Generated_Source\PSoC4/CapSense_Filter.c ****                     ptrFilterHistObj.ptrRegular->regularChannel[channel].avgHistory[2u] = ptrSensor
1130:Generated_Source\PSoC4/CapSense_Filter.c ****                 #endif /* CapSense_REGULAR_AVERAGE_LEN == CapSense_AVERAGE_FILTER_LEN_4 */
1131:Generated_Source\PSoC4/CapSense_Filter.c ****             #endif /* (CapSense_REGULAR_SENSOR_EN) */      
1132:Generated_Source\PSoC4/CapSense_Filter.c ****         }
1133:Generated_Source\PSoC4/CapSense_Filter.c ****         else
1134:Generated_Source\PSoC4/CapSense_Filter.c ****         {
1135:Generated_Source\PSoC4/CapSense_Filter.c ****             #if (CapSense_PROXIMITY_SENSOR_EN && CapSense_PROX_RC_AVERAGE_FILTER_EN)
1136:Generated_Source\PSoC4/CapSense_Filter.c ****                 ptrFilterHistObj.ptrProx->proxChannel[channel].avgHistory[0] = ptrSensorObj->raw[ch
1137:Generated_Source\PSoC4/CapSense_Filter.c ****                     #if (CapSense_PROX_AVERAGE_LEN == CapSense_AVERAGE_FILTER_LEN_4)
1138:Generated_Source\PSoC4/CapSense_Filter.c ****                         ptrFilterHistObj.ptrProx->proxChannel[channel].avgHistory[1u] = ptrSensorOb
1139:Generated_Source\PSoC4/CapSense_Filter.c ****                         ptrFilterHistObj.ptrProx->proxChannel[channel].avgHistory[2u] = ptrSensorOb
1140:Generated_Source\PSoC4/CapSense_Filter.c ****                     #endif /* CapSense_REGULAR_AVERAGE_LEN == CapSense_AVERAGE_FILTER_LEN_4 */
ARM GAS  C:\Users\TB1014~1\AppData\Local\Temp\ccLivewv.s 			page 31


1141:Generated_Source\PSoC4/CapSense_Filter.c ****             #endif /* (CapSense_PROXIMITY_SENSOR_EN) */
1142:Generated_Source\PSoC4/CapSense_Filter.c ****         }
1143:Generated_Source\PSoC4/CapSense_Filter.c ****     }
1144:Generated_Source\PSoC4/CapSense_Filter.c **** }
1145:Generated_Source\PSoC4/CapSense_Filter.c **** 
1146:Generated_Source\PSoC4/CapSense_Filter.c **** 
1147:Generated_Source\PSoC4/CapSense_Filter.c **** /*******************************************************************************
1148:Generated_Source\PSoC4/CapSense_Filter.c **** * Function Name: CapSense_RunAverageInternal
1149:Generated_Source\PSoC4/CapSense_Filter.c **** ****************************************************************************//**
1150:Generated_Source\PSoC4/CapSense_Filter.c **** *
1151:Generated_Source\PSoC4/CapSense_Filter.c **** * \brief    Runs the average filter.
1152:Generated_Source\PSoC4/CapSense_Filter.c **** *
1153:Generated_Source\PSoC4/CapSense_Filter.c **** * \details  Runs the average filter.
1154:Generated_Source\PSoC4/CapSense_Filter.c **** *
1155:Generated_Source\PSoC4/CapSense_Filter.c **** * \param    ptrFilterHistObj The pointer to the filter RAM object of the sensor.
1156:Generated_Source\PSoC4/CapSense_Filter.c **** * \param    ptrSensorObj     The pointer to the sensor RAM object of the sensor.
1157:Generated_Source\PSoC4/CapSense_Filter.c **** * \param    wdType           Specifies the type of a widget.
1158:Generated_Source\PSoC4/CapSense_Filter.c **** *
1159:Generated_Source\PSoC4/CapSense_Filter.c **** *******************************************************************************/
1160:Generated_Source\PSoC4/CapSense_Filter.c **** void CapSense_RunAverageInternal(CapSense_PTR_FILTER_VARIANT ptrFilterHistObj,\
1161:Generated_Source\PSoC4/CapSense_Filter.c ****                                            CapSense_RAM_SNS_STRUCT *ptrSensorObj, uint32 wdType)
1162:Generated_Source\PSoC4/CapSense_Filter.c **** {
1163:Generated_Source\PSoC4/CapSense_Filter.c ****     uint32 channel;
1164:Generated_Source\PSoC4/CapSense_Filter.c ****     uint32 temp;
1165:Generated_Source\PSoC4/CapSense_Filter.c **** 
1166:Generated_Source\PSoC4/CapSense_Filter.c ****     for(channel = CapSense_NUM_SCAN_FREQS; channel-- > 0u;)
1167:Generated_Source\PSoC4/CapSense_Filter.c ****     {
1168:Generated_Source\PSoC4/CapSense_Filter.c ****         if ((CapSense_WD_TYPE_ENUM)wdType != CapSense_WD_PROXIMITY_E)
1169:Generated_Source\PSoC4/CapSense_Filter.c ****         {
1170:Generated_Source\PSoC4/CapSense_Filter.c ****             #if (CapSense_REGULAR_SENSOR_EN && CapSense_REGULAR_RC_AVERAGE_FILTER_EN)
1171:Generated_Source\PSoC4/CapSense_Filter.c ****                 #if (CapSense_REGULAR_AVERAGE_LEN == CapSense_AVERAGE_FILTER_LEN_2)
1172:Generated_Source\PSoC4/CapSense_Filter.c ****                     temp = ((uint32)ptrSensorObj->raw[channel] + 
1173:Generated_Source\PSoC4/CapSense_Filter.c ****                             (uint32)ptrFilterHistObj.ptrRegular->regularChannel[channel].avgHistory
1174:Generated_Source\PSoC4/CapSense_Filter.c ****                     ptrFilterHistObj.ptrRegular->regularChannel[channel].avgHistory[0] = ptrSensorO
1175:Generated_Source\PSoC4/CapSense_Filter.c ****                     ptrSensorObj->raw[channel] = LO16(temp);
1176:Generated_Source\PSoC4/CapSense_Filter.c ****                 #else
1177:Generated_Source\PSoC4/CapSense_Filter.c ****                     temp = ((uint32)ptrSensorObj->raw[channel] + 
1178:Generated_Source\PSoC4/CapSense_Filter.c ****                             (uint32)ptrFilterHistObj.ptrRegular->regularChannel[channel].avgHistory
1179:Generated_Source\PSoC4/CapSense_Filter.c ****                             (uint32)ptrFilterHistObj.ptrRegular->regularChannel[channel].avgHistory
1180:Generated_Source\PSoC4/CapSense_Filter.c ****                             (uint32)ptrFilterHistObj.ptrRegular->regularChannel[channel].avgHistory
1181:Generated_Source\PSoC4/CapSense_Filter.c **** 
1182:Generated_Source\PSoC4/CapSense_Filter.c ****                     ptrFilterHistObj.ptrRegular->regularChannel[channel].avgHistory[2u] =
1183:Generated_Source\PSoC4/CapSense_Filter.c ****                     ptrFilterHistObj.ptrRegular->regularChannel[channel].avgHistory[1u];
1184:Generated_Source\PSoC4/CapSense_Filter.c ****                     ptrFilterHistObj.ptrRegular->regularChannel[channel].avgHistory[1u] =
1185:Generated_Source\PSoC4/CapSense_Filter.c ****                     ptrFilterHistObj.ptrRegular->regularChannel[channel].avgHistory[0];
1186:Generated_Source\PSoC4/CapSense_Filter.c ****                     ptrFilterHistObj.ptrRegular->regularChannel[channel].avgHistory[0] = ptrSensorO
1187:Generated_Source\PSoC4/CapSense_Filter.c ****                     ptrSensorObj->raw[channel] = LO16(temp);
1188:Generated_Source\PSoC4/CapSense_Filter.c ****                 #endif /* CapSense_REGULAR_AVERAGE_LEN == CapSense_AVERAGE_FILTER_LEN_4 */
1189:Generated_Source\PSoC4/CapSense_Filter.c ****             #endif /* (CapSense_REGULAR_SENSOR_EN) */
1190:Generated_Source\PSoC4/CapSense_Filter.c ****         }
1191:Generated_Source\PSoC4/CapSense_Filter.c ****         else 
1192:Generated_Source\PSoC4/CapSense_Filter.c ****         {
1193:Generated_Source\PSoC4/CapSense_Filter.c ****             #if (CapSense_PROXIMITY_SENSOR_EN && CapSense_PROX_RC_AVERAGE_FILTER_EN)
1194:Generated_Source\PSoC4/CapSense_Filter.c ****                 #if (CapSense_PROX_AVERAGE_LEN == CapSense_AVERAGE_FILTER_LEN_2)     
1195:Generated_Source\PSoC4/CapSense_Filter.c ****                     temp = ((uint32)ptrSensorObj->raw[channel] + 
1196:Generated_Source\PSoC4/CapSense_Filter.c ****                             (uint32)ptrFilterHistObj.ptrProx->proxChannel[channel].avgHistory[0]) >
1197:Generated_Source\PSoC4/CapSense_Filter.c ****                     ptrFilterHistObj.ptrProx->proxChannel[channel].avgHistory[0] = ptrSensorObj->ra
ARM GAS  C:\Users\TB1014~1\AppData\Local\Temp\ccLivewv.s 			page 32


1198:Generated_Source\PSoC4/CapSense_Filter.c ****                     ptrSensorObj->raw[channel] = LO16(temp);
1199:Generated_Source\PSoC4/CapSense_Filter.c ****                 #else
1200:Generated_Source\PSoC4/CapSense_Filter.c ****                     temp = ((uint32)ptrSensorObj->raw[channel] + 
1201:Generated_Source\PSoC4/CapSense_Filter.c ****                             (uint32)ptrFilterHistObj.ptrProx->proxChannel[channel].avgHistory[0] +
1202:Generated_Source\PSoC4/CapSense_Filter.c ****                             (uint32)ptrFilterHistObj.ptrProx->proxChannel[channel].avgHistory[1u] +
1203:Generated_Source\PSoC4/CapSense_Filter.c ****                             (uint32)ptrFilterHistObj.ptrProx->proxChannel[channel].avgHistory[2u]) 
1204:Generated_Source\PSoC4/CapSense_Filter.c ****                     
1205:Generated_Source\PSoC4/CapSense_Filter.c ****                     ptrFilterHistObj.ptrProx->proxChannel[channel].avgHistory[2u] =
1206:Generated_Source\PSoC4/CapSense_Filter.c ****                     ptrFilterHistObj.ptrProx->proxChannel[channel].avgHistory[1u];
1207:Generated_Source\PSoC4/CapSense_Filter.c ****                     ptrFilterHistObj.ptrProx->proxChannel[channel].avgHistory[1u] =
1208:Generated_Source\PSoC4/CapSense_Filter.c ****                     ptrFilterHistObj.ptrProx->proxChannel[channel].avgHistory[0];
1209:Generated_Source\PSoC4/CapSense_Filter.c ****                     ptrFilterHistObj.ptrProx->proxChannel[channel].avgHistory[0] = ptrSensorObj->ra
1210:Generated_Source\PSoC4/CapSense_Filter.c ****                     ptrSensorObj->raw[channel] = LO16(temp);
1211:Generated_Source\PSoC4/CapSense_Filter.c ****                 #endif /* CapSense_PROX_AVERAGE_LEN == CapSense_AVERAGE_FILTER_LEN_4 */
1212:Generated_Source\PSoC4/CapSense_Filter.c ****             #endif /* (CapSense_PROXIMITY_SENSOR_EN) */
1213:Generated_Source\PSoC4/CapSense_Filter.c ****         }
1214:Generated_Source\PSoC4/CapSense_Filter.c ****     }
1215:Generated_Source\PSoC4/CapSense_Filter.c **** }
1216:Generated_Source\PSoC4/CapSense_Filter.c **** #endif /* (CapSense_REGULAR_RC_AVERAGE_FILTER_EN || CapSense_PROX_RC_AVERAGE_FILTER_EN) */
1217:Generated_Source\PSoC4/CapSense_Filter.c **** 
1218:Generated_Source\PSoC4/CapSense_Filter.c **** 
1219:Generated_Source\PSoC4/CapSense_Filter.c **** #if ((CapSense_REGULAR_RC_FILTER_EN || CapSense_PROX_RC_FILTER_EN))
1220:Generated_Source\PSoC4/CapSense_Filter.c **** /*******************************************************************************
1221:Generated_Source\PSoC4/CapSense_Filter.c **** * Function Name: CapSense_FtRunEnabledFilters
1222:Generated_Source\PSoC4/CapSense_Filter.c **** ****************************************************************************//**
1223:Generated_Source\PSoC4/CapSense_Filter.c **** *
1224:Generated_Source\PSoC4/CapSense_Filter.c **** * \brief    Runs all enabled filters.
1225:Generated_Source\PSoC4/CapSense_Filter.c **** *
1226:Generated_Source\PSoC4/CapSense_Filter.c **** * \details  Runs all enabled filters.
1227:Generated_Source\PSoC4/CapSense_Filter.c **** *
1228:Generated_Source\PSoC4/CapSense_Filter.c **** * \param    widgetId Specifies the ID number of a widget to update the IIR filter history.*
1229:Generated_Source\PSoC4/CapSense_Filter.c **** * \param    sensorId Specifies the ID number of a sensor in the widget to update the IIR 
1230:Generated_Source\PSoC4/CapSense_Filter.c **** *           filter history.
1231:Generated_Source\PSoC4/CapSense_Filter.c **** *
1232:Generated_Source\PSoC4/CapSense_Filter.c **** *******************************************************************************/
1233:Generated_Source\PSoC4/CapSense_Filter.c **** void CapSense_FtRunEnabledFilters(uint32 widgetId, uint32 sensorId)
1234:Generated_Source\PSoC4/CapSense_Filter.c **** {
1235:Generated_Source\PSoC4/CapSense_Filter.c ****     CapSense_FLASH_WD_STRUCT const *ptrWidget = &CapSense_dsFlash.wdgtArray[widgetId];      
1236:Generated_Source\PSoC4/CapSense_Filter.c ****     CapSense_RAM_SNS_STRUCT *ptrSensor = NULL;    
1237:Generated_Source\PSoC4/CapSense_Filter.c ****     CapSense_PTR_FILTER_VARIANT ptrFilterHistObj; 
1238:Generated_Source\PSoC4/CapSense_Filter.c ****               
1239:Generated_Source\PSoC4/CapSense_Filter.c ****     /* Find pointer to specified sensor object */     
1240:Generated_Source\PSoC4/CapSense_Filter.c ****     ptrSensor = ptrWidget->ptr2SnsRam;
1241:Generated_Source\PSoC4/CapSense_Filter.c ****     ptrSensor = &ptrSensor[sensorId];
1242:Generated_Source\PSoC4/CapSense_Filter.c ****     
1243:Generated_Source\PSoC4/CapSense_Filter.c ****     /* Find pointer to specified filter sensor object */     
1244:Generated_Source\PSoC4/CapSense_Filter.c ****     ptrFilterHistObj.ptr = ptrWidget->ptr2FltrHistory;
1245:Generated_Source\PSoC4/CapSense_Filter.c ****     
1246:Generated_Source\PSoC4/CapSense_Filter.c ****     if ((CapSense_WD_TYPE_ENUM)ptrWidget->wdgtType != CapSense_WD_PROXIMITY_E)
1247:Generated_Source\PSoC4/CapSense_Filter.c ****     {
1248:Generated_Source\PSoC4/CapSense_Filter.c ****         #if (CapSense_REGULAR_SENSOR_EN)
1249:Generated_Source\PSoC4/CapSense_Filter.c ****             ptrFilterHistObj.ptrRegular = &ptrFilterHistObj.ptrRegular[sensorId];
1250:Generated_Source\PSoC4/CapSense_Filter.c ****         #endif /* (CapSense_REGULAR_SENSOR_EN) */
1251:Generated_Source\PSoC4/CapSense_Filter.c ****     }
1252:Generated_Source\PSoC4/CapSense_Filter.c ****     else
1253:Generated_Source\PSoC4/CapSense_Filter.c ****     {
1254:Generated_Source\PSoC4/CapSense_Filter.c ****         #if (CapSense_PROXIMITY_SENSOR_EN)
ARM GAS  C:\Users\TB1014~1\AppData\Local\Temp\ccLivewv.s 			page 33


1255:Generated_Source\PSoC4/CapSense_Filter.c ****             ptrFilterHistObj.ptrProx = &ptrFilterHistObj.ptrProx[sensorId];
1256:Generated_Source\PSoC4/CapSense_Filter.c ****         #endif /* (CapSense_PROXIMITY_SENSOR_EN) */
1257:Generated_Source\PSoC4/CapSense_Filter.c ****     }
1258:Generated_Source\PSoC4/CapSense_Filter.c ****     
1259:Generated_Source\PSoC4/CapSense_Filter.c ****     CapSense_FtRunEnabledFiltersInternal(ptrFilterHistObj, ptrSensor, (uint32)ptrWidget->wdgtType);
1260:Generated_Source\PSoC4/CapSense_Filter.c **** }
1261:Generated_Source\PSoC4/CapSense_Filter.c **** 
1262:Generated_Source\PSoC4/CapSense_Filter.c **** 
1263:Generated_Source\PSoC4/CapSense_Filter.c **** /*******************************************************************************
1264:Generated_Source\PSoC4/CapSense_Filter.c **** * Function Name: CapSense_FtRunEnabledFiltersInternal
1265:Generated_Source\PSoC4/CapSense_Filter.c **** ****************************************************************************//**
1266:Generated_Source\PSoC4/CapSense_Filter.c **** *
1267:Generated_Source\PSoC4/CapSense_Filter.c **** * \brief    Runs all enabled filters.
1268:Generated_Source\PSoC4/CapSense_Filter.c **** *
1269:Generated_Source\PSoC4/CapSense_Filter.c **** * \details  Runs all enabled filters.
1270:Generated_Source\PSoC4/CapSense_Filter.c **** *
1271:Generated_Source\PSoC4/CapSense_Filter.c **** * \param    ptrFilterHistObj The pointer to the filter RAM object of the sensor.
1272:Generated_Source\PSoC4/CapSense_Filter.c **** * \param    ptrSensorObj     The pointer to the sensor RAM object of the sensor.
1273:Generated_Source\PSoC4/CapSense_Filter.c **** * \param    wdType           Specifies the type of a widget.
1274:Generated_Source\PSoC4/CapSense_Filter.c **** *
1275:Generated_Source\PSoC4/CapSense_Filter.c **** *******************************************************************************/
1276:Generated_Source\PSoC4/CapSense_Filter.c **** void CapSense_FtRunEnabledFiltersInternal(CapSense_PTR_FILTER_VARIANT ptrFilterHistObj, 
1277:Generated_Source\PSoC4/CapSense_Filter.c ****                                                   CapSense_RAM_SNS_STRUCT *ptrSensorObj, uint32 wdT
1278:Generated_Source\PSoC4/CapSense_Filter.c **** {
1279:Generated_Source\PSoC4/CapSense_Filter.c ****     #if (CapSense_REGULAR_RC_MEDIAN_FILTER_EN || CapSense_PROX_RC_MEDIAN_FILTER_EN)
1280:Generated_Source\PSoC4/CapSense_Filter.c ****         CapSense_RunMedianInternal(ptrFilterHistObj, ptrSensorObj, wdType);
1281:Generated_Source\PSoC4/CapSense_Filter.c ****     #endif /* (CapSense_REGULAR_RC_MEDIAN_FILTER_EN || CapSense_PROX_RC_MEDIAN_FILTER_EN) */
1282:Generated_Source\PSoC4/CapSense_Filter.c ****     
1283:Generated_Source\PSoC4/CapSense_Filter.c ****     #if (CapSense_REGULAR_RC_IIR_FILTER_EN || CapSense_PROX_RC_IIR_FILTER_EN)    
1284:Generated_Source\PSoC4/CapSense_Filter.c ****         CapSense_RunIIRInternal(ptrFilterHistObj, ptrSensorObj, wdType);
1285:Generated_Source\PSoC4/CapSense_Filter.c ****     #endif /* (CapSense_REGULAR_RC_IIR_FILTER_EN || CapSense_PROX_RC_IIR_FILTER_EN) */ 
1286:Generated_Source\PSoC4/CapSense_Filter.c **** 
1287:Generated_Source\PSoC4/CapSense_Filter.c ****     #if (CapSense_REGULAR_RC_AVERAGE_FILTER_EN || CapSense_PROX_RC_AVERAGE_FILTER_EN)
1288:Generated_Source\PSoC4/CapSense_Filter.c ****         CapSense_RunAverageInternal(ptrFilterHistObj, ptrSensorObj, wdType);
1289:Generated_Source\PSoC4/CapSense_Filter.c ****     #endif /* (CapSense_REGULAR_RC_AVERAGE_FILTER_EN || CapSense_PROX_RC_AVERAGE_FILTER_EN) */     
1290:Generated_Source\PSoC4/CapSense_Filter.c **** }
1291:Generated_Source\PSoC4/CapSense_Filter.c **** #endif /* (CapSense_REGULAR_RC_FILTER_EN || CapSense_PROX_RC_FILTER_EN) */
1292:Generated_Source\PSoC4/CapSense_Filter.c **** 
1293:Generated_Source\PSoC4/CapSense_Filter.c **** 
1294:Generated_Source\PSoC4/CapSense_Filter.c **** #if (CapSense_CSD_AUTOTUNE & CapSense_CSD_SS_TH_EN)
1295:Generated_Source\PSoC4/CapSense_Filter.c **** /*******************************************************************************
1296:Generated_Source\PSoC4/CapSense_Filter.c **** * Function Name: CapSense_RunNoiseEnvelope
1297:Generated_Source\PSoC4/CapSense_Filter.c **** ****************************************************************************//**
1298:Generated_Source\PSoC4/CapSense_Filter.c **** *
1299:Generated_Source\PSoC4/CapSense_Filter.c **** * \brief    Executes the noise envelope  filter algorithm on a sensor indicated by 
1300:Generated_Source\PSoC4/CapSense_Filter.c **** *           an input parameter to measure the pk-to-pk noise in the sensor raw count.
1301:Generated_Source\PSoC4/CapSense_Filter.c **** *
1302:Generated_Source\PSoC4/CapSense_Filter.c **** * \details  Executes the noise envelope  filter algorithm on a sensor indicated by 
1303:Generated_Source\PSoC4/CapSense_Filter.c **** *           an input parameter to measure the pk-to-pk noise in the sensor raw count.
1304:Generated_Source\PSoC4/CapSense_Filter.c **** *
1305:Generated_Source\PSoC4/CapSense_Filter.c **** * \param    widgetId Specifies the ID number of the widget.
1306:Generated_Source\PSoC4/CapSense_Filter.c **** * \param    sensorId Specifies the ID number of the sensor in the widget.
1307:Generated_Source\PSoC4/CapSense_Filter.c **** *
1308:Generated_Source\PSoC4/CapSense_Filter.c **** *******************************************************************************/
1309:Generated_Source\PSoC4/CapSense_Filter.c **** void CapSense_RunNoiseEnvelope(uint32 widgetId, uint32 sensorId)
1310:Generated_Source\PSoC4/CapSense_Filter.c **** {
 515              		.loc 1 1310 0
ARM GAS  C:\Users\TB1014~1\AppData\Local\Temp\ccLivewv.s 			page 34


 516              		.cfi_startproc
 517              	.LVL74:
 518 0000 38B5     		push	{r3, r4, r5, lr}
 519              		.cfi_def_cfa_offset 16
 520              		.cfi_offset 3, -16
 521              		.cfi_offset 4, -12
 522              		.cfi_offset 5, -8
 523              		.cfi_offset 14, -4
 524              	.LVL75:
1311:Generated_Source\PSoC4/CapSense_Filter.c ****     CapSense_FLASH_WD_STRUCT const *ptrWidget = &CapSense_dsFlash.wdgtArray[widgetId];
1312:Generated_Source\PSoC4/CapSense_Filter.c ****     CapSense_RAM_WD_BASE_STRUCT *ptrWidgetRam = ptrWidget->ptr2WdgtRam;
 525              		.loc 1 1312 0
 526 0002 2C23     		mov	r3, #44
 527 0004 5843     		mul	r0, r3
 528              	.LVL76:
 529 0006 084B     		ldr	r3, .L37
 530 0008 1818     		add	r0, r3, r0
 531              	.LVL77:
 532 000a 4468     		ldr	r4, [r0, #4]
 533              	.LVL78:
1313:Generated_Source\PSoC4/CapSense_Filter.c ****     CapSense_RAM_SNS_STRUCT *ptrSensor = NULL;    
1314:Generated_Source\PSoC4/CapSense_Filter.c ****     SMARTSENSE_CSD_NOISE_ENVELOPE_STRUCT *ptrNoiseEnvelope = NULL;
1315:Generated_Source\PSoC4/CapSense_Filter.c **** 
1316:Generated_Source\PSoC4/CapSense_Filter.c ****     /* Find pointer to specified sensor object */
1317:Generated_Source\PSoC4/CapSense_Filter.c ****     ptrSensor = ptrWidget->ptr2SnsRam;
 534              		.loc 1 1317 0
 535 000c 8568     		ldr	r5, [r0, #8]
 536              	.LVL79:
1318:Generated_Source\PSoC4/CapSense_Filter.c ****     ptrSensor = &ptrSensor[sensorId];
 537              		.loc 1 1318 0
 538 000e 8B00     		lsl	r3, r1, #2
 539 0010 5B18     		add	r3, r3, r1
 540 0012 5B00     		lsl	r3, r3, #1
 541              	.LVL80:
1319:Generated_Source\PSoC4/CapSense_Filter.c ****     
1320:Generated_Source\PSoC4/CapSense_Filter.c ****     /* Find pointer to specified filter sensor object */
1321:Generated_Source\PSoC4/CapSense_Filter.c ****     ptrNoiseEnvelope = ptrWidget->ptr2NoiseEnvlp;
 542              		.loc 1 1321 0
 543 0014 426A     		ldr	r2, [r0, #36]
 544              	.LVL81:
1322:Generated_Source\PSoC4/CapSense_Filter.c ****     ptrNoiseEnvelope = &ptrNoiseEnvelope[sensorId];    
 545              		.loc 1 1322 0
 546 0016 4800     		lsl	r0, r1, #1
 547              	.LVL82:
 548 0018 4118     		add	r1, r0, r1
 549              	.LVL83:
 550 001a 8900     		lsl	r1, r1, #2
 551 001c 5218     		add	r2, r2, r1
 552              	.LVL84:
1323:Generated_Source\PSoC4/CapSense_Filter.c **** 
1324:Generated_Source\PSoC4/CapSense_Filter.c ****     SmartSense_RunNoiseEnvelope(ptrSensor->raw[0u], ptrWidgetRam->sigPFC, ptrNoiseEnvelope);
 553              		.loc 1 1324 0
 554 001e E85A     		ldrh	r0, [r5, r3]
 555 0020 218A     		ldrh	r1, [r4, #16]
 556 0022 FFF7FEFF 		bl	SmartSense_RunNoiseEnvelope
 557              	.LVL85:
1325:Generated_Source\PSoC4/CapSense_Filter.c **** }
ARM GAS  C:\Users\TB1014~1\AppData\Local\Temp\ccLivewv.s 			page 35


 558              		.loc 1 1325 0
 559              		@ sp needed
 560              	.LVL86:
 561              	.LVL87:
 562 0026 38BD     		pop	{r3, r4, r5, pc}
 563              	.L38:
 564              		.align	2
 565              	.L37:
 566 0028 00000000 		.word	CapSense_dsFlash
 567              		.cfi_endproc
 568              	.LFE17:
 569              		.size	CapSense_RunNoiseEnvelope, .-CapSense_RunNoiseEnvelope
 570              		.section	.text.CapSense_InitializeNoiseEnvelope,"ax",%progbits
 571              		.align	2
 572              		.global	CapSense_InitializeNoiseEnvelope
 573              		.code	16
 574              		.thumb_func
 575              		.type	CapSense_InitializeNoiseEnvelope, %function
 576              	CapSense_InitializeNoiseEnvelope:
 577              	.LFB18:
1326:Generated_Source\PSoC4/CapSense_Filter.c **** 
1327:Generated_Source\PSoC4/CapSense_Filter.c **** 
1328:Generated_Source\PSoC4/CapSense_Filter.c **** /*******************************************************************************
1329:Generated_Source\PSoC4/CapSense_Filter.c **** * Function Name: CapSense_InitializeNoiseEnvelope
1330:Generated_Source\PSoC4/CapSense_Filter.c **** ****************************************************************************//**
1331:Generated_Source\PSoC4/CapSense_Filter.c **** *
1332:Generated_Source\PSoC4/CapSense_Filter.c **** * \brief    Initializes the noise-envelope filter
1333:Generated_Source\PSoC4/CapSense_Filter.c **** *
1334:Generated_Source\PSoC4/CapSense_Filter.c **** * \details  Initializes the noise-envelope filter
1335:Generated_Source\PSoC4/CapSense_Filter.c **** *
1336:Generated_Source\PSoC4/CapSense_Filter.c **** * \param    widgetId Specifies the ID number of the widget.
1337:Generated_Source\PSoC4/CapSense_Filter.c **** * \param    sensorId Specifies the ID number of the sensor in the widget.
1338:Generated_Source\PSoC4/CapSense_Filter.c **** *
1339:Generated_Source\PSoC4/CapSense_Filter.c **** *******************************************************************************/
1340:Generated_Source\PSoC4/CapSense_Filter.c **** void CapSense_InitializeNoiseEnvelope(uint32 widgetId, uint32 sensorId)
1341:Generated_Source\PSoC4/CapSense_Filter.c **** {
 578              		.loc 1 1341 0
 579              		.cfi_startproc
 580              	.LVL88:
 581 0000 38B5     		push	{r3, r4, r5, lr}
 582              		.cfi_def_cfa_offset 16
 583              		.cfi_offset 3, -16
 584              		.cfi_offset 4, -12
 585              		.cfi_offset 5, -8
 586              		.cfi_offset 14, -4
 587              	.LVL89:
1342:Generated_Source\PSoC4/CapSense_Filter.c ****     CapSense_FLASH_WD_STRUCT const *ptrWidget = &CapSense_dsFlash.wdgtArray[widgetId];
1343:Generated_Source\PSoC4/CapSense_Filter.c ****     CapSense_RAM_WD_BASE_STRUCT *ptrWidgetRam = ptrWidget->ptr2WdgtRam;
 588              		.loc 1 1343 0
 589 0002 2C23     		mov	r3, #44
 590 0004 5843     		mul	r0, r3
 591              	.LVL90:
 592 0006 084B     		ldr	r3, .L40
 593 0008 1818     		add	r0, r3, r0
 594              	.LVL91:
 595 000a 4468     		ldr	r4, [r0, #4]
 596              	.LVL92:
ARM GAS  C:\Users\TB1014~1\AppData\Local\Temp\ccLivewv.s 			page 36


1344:Generated_Source\PSoC4/CapSense_Filter.c ****     CapSense_RAM_SNS_STRUCT *ptrSensor = NULL;    
1345:Generated_Source\PSoC4/CapSense_Filter.c ****     SMARTSENSE_CSD_NOISE_ENVELOPE_STRUCT *ptrNoiseEnvelope = NULL;
1346:Generated_Source\PSoC4/CapSense_Filter.c **** 
1347:Generated_Source\PSoC4/CapSense_Filter.c ****     /* Find pointer to specified sensor object */
1348:Generated_Source\PSoC4/CapSense_Filter.c ****     ptrSensor = ptrWidget->ptr2SnsRam;
 597              		.loc 1 1348 0
 598 000c 8568     		ldr	r5, [r0, #8]
 599              	.LVL93:
1349:Generated_Source\PSoC4/CapSense_Filter.c ****     ptrSensor = &ptrSensor[sensorId];
 600              		.loc 1 1349 0
 601 000e 8B00     		lsl	r3, r1, #2
 602 0010 5B18     		add	r3, r3, r1
 603 0012 5B00     		lsl	r3, r3, #1
 604              	.LVL94:
1350:Generated_Source\PSoC4/CapSense_Filter.c ****     
1351:Generated_Source\PSoC4/CapSense_Filter.c ****     /* Find pointer to specified filter sensor object */
1352:Generated_Source\PSoC4/CapSense_Filter.c ****     ptrNoiseEnvelope = ptrWidget->ptr2NoiseEnvlp;
 605              		.loc 1 1352 0
 606 0014 426A     		ldr	r2, [r0, #36]
 607              	.LVL95:
1353:Generated_Source\PSoC4/CapSense_Filter.c ****     ptrNoiseEnvelope = &ptrNoiseEnvelope[sensorId];    
 608              		.loc 1 1353 0
 609 0016 4800     		lsl	r0, r1, #1
 610              	.LVL96:
 611 0018 4118     		add	r1, r0, r1
 612              	.LVL97:
 613 001a 8900     		lsl	r1, r1, #2
 614 001c 5218     		add	r2, r2, r1
 615              	.LVL98:
1354:Generated_Source\PSoC4/CapSense_Filter.c **** 
1355:Generated_Source\PSoC4/CapSense_Filter.c ****     SmartSense_InitializeNoiseEnvelope(ptrSensor->raw[0u], ptrWidgetRam->sigPFC, ptrNoiseEnvelope);
 616              		.loc 1 1355 0
 617 001e E85A     		ldrh	r0, [r5, r3]
 618 0020 218A     		ldrh	r1, [r4, #16]
 619 0022 FFF7FEFF 		bl	SmartSense_InitializeNoiseEnvelope
 620              	.LVL99:
1356:Generated_Source\PSoC4/CapSense_Filter.c **** }
 621              		.loc 1 1356 0
 622              		@ sp needed
 623              	.LVL100:
 624              	.LVL101:
 625 0026 38BD     		pop	{r3, r4, r5, pc}
 626              	.L41:
 627              		.align	2
 628              	.L40:
 629 0028 00000000 		.word	CapSense_dsFlash
 630              		.cfi_endproc
 631              	.LFE18:
 632              		.size	CapSense_InitializeNoiseEnvelope, .-CapSense_InitializeNoiseEnvelope
 633              		.section	.text.CapSense_FtIIR1stOrder,"ax",%progbits
 634              		.align	2
 635              		.global	CapSense_FtIIR1stOrder
 636              		.code	16
 637              		.thumb_func
 638              		.type	CapSense_FtIIR1stOrder, %function
 639              	CapSense_FtIIR1stOrder:
 640              	.LFB19:
ARM GAS  C:\Users\TB1014~1\AppData\Local\Temp\ccLivewv.s 			page 37


1357:Generated_Source\PSoC4/CapSense_Filter.c **** #endif /* #if CapSense_CSD_AUTOTUNE & CapSense_CSD_SS_TH_EN */
1358:Generated_Source\PSoC4/CapSense_Filter.c **** 
1359:Generated_Source\PSoC4/CapSense_Filter.c **** 
1360:Generated_Source\PSoC4/CapSense_Filter.c **** #if (CapSense_POS_MEDIAN_FILTER_EN || CapSense_REGULAR_RC_MEDIAN_FILTER_EN || CapSense_PROX_RC_MEDI
1361:Generated_Source\PSoC4/CapSense_Filter.c **** /*******************************************************************************
1362:Generated_Source\PSoC4/CapSense_Filter.c **** * Function Name: CapSense_FtMedian
1363:Generated_Source\PSoC4/CapSense_Filter.c **** ****************************************************************************//**
1364:Generated_Source\PSoC4/CapSense_Filter.c **** *
1365:Generated_Source\PSoC4/CapSense_Filter.c **** * \brief    Return the median value from the three passed arguments.
1366:Generated_Source\PSoC4/CapSense_Filter.c **** *
1367:Generated_Source\PSoC4/CapSense_Filter.c **** * \details  Return the median value from the three passed arguments.
1368:Generated_Source\PSoC4/CapSense_Filter.c **** *
1369:Generated_Source\PSoC4/CapSense_Filter.c **** * \param    x1 The first value to be compared.
1370:Generated_Source\PSoC4/CapSense_Filter.c **** * \param    x2 The second value to be compared.
1371:Generated_Source\PSoC4/CapSense_Filter.c **** * \param    x3 The third value to be compared.
1372:Generated_Source\PSoC4/CapSense_Filter.c **** *
1373:Generated_Source\PSoC4/CapSense_Filter.c **** * \return   Returns the median value of input arguments.
1374:Generated_Source\PSoC4/CapSense_Filter.c **** *
1375:Generated_Source\PSoC4/CapSense_Filter.c **** *******************************************************************************/
1376:Generated_Source\PSoC4/CapSense_Filter.c **** uint32 CapSense_FtMedian(uint32 x1, uint32 x2, uint32 x3)
1377:Generated_Source\PSoC4/CapSense_Filter.c **** {
1378:Generated_Source\PSoC4/CapSense_Filter.c ****     uint32 tmp;
1379:Generated_Source\PSoC4/CapSense_Filter.c **** 
1380:Generated_Source\PSoC4/CapSense_Filter.c ****     if (x1 > x2)
1381:Generated_Source\PSoC4/CapSense_Filter.c ****     {
1382:Generated_Source\PSoC4/CapSense_Filter.c ****         tmp = x2;
1383:Generated_Source\PSoC4/CapSense_Filter.c ****         x2 = x1;
1384:Generated_Source\PSoC4/CapSense_Filter.c ****         x1 = tmp;
1385:Generated_Source\PSoC4/CapSense_Filter.c ****     }
1386:Generated_Source\PSoC4/CapSense_Filter.c **** 
1387:Generated_Source\PSoC4/CapSense_Filter.c ****     if (x2 > x3)
1388:Generated_Source\PSoC4/CapSense_Filter.c ****     {
1389:Generated_Source\PSoC4/CapSense_Filter.c ****         x2 = x3;
1390:Generated_Source\PSoC4/CapSense_Filter.c ****     }
1391:Generated_Source\PSoC4/CapSense_Filter.c **** 
1392:Generated_Source\PSoC4/CapSense_Filter.c ****     return ((x1 > x2) ? x1 : x2);
1393:Generated_Source\PSoC4/CapSense_Filter.c **** }
1394:Generated_Source\PSoC4/CapSense_Filter.c **** #endif /*CapSense_POS_MEDIAN_FILTER_EN || CapSense_REGULAR_RC_MEDIAN_FILTER_EN || CapSense_PROX_RC_
1395:Generated_Source\PSoC4/CapSense_Filter.c **** 
1396:Generated_Source\PSoC4/CapSense_Filter.c **** 
1397:Generated_Source\PSoC4/CapSense_Filter.c **** /*******************************************************************************
1398:Generated_Source\PSoC4/CapSense_Filter.c **** * Function Name: CapSense_FtIIR1stOrder
1399:Generated_Source\PSoC4/CapSense_Filter.c **** ****************************************************************************//**
1400:Generated_Source\PSoC4/CapSense_Filter.c **** *
1401:Generated_Source\PSoC4/CapSense_Filter.c **** * \brief    Return the filtered data by the IIR 1-st order algorithm
1402:Generated_Source\PSoC4/CapSense_Filter.c **** *
1403:Generated_Source\PSoC4/CapSense_Filter.c **** * \details  Return the filtered data by the IIR 1-st order algorithm
1404:Generated_Source\PSoC4/CapSense_Filter.c **** *
1405:Generated_Source\PSoC4/CapSense_Filter.c **** * \param    input      The data to be filtered.
1406:Generated_Source\PSoC4/CapSense_Filter.c **** * \param    prevOutput The previous filtered data.
1407:Generated_Source\PSoC4/CapSense_Filter.c **** * \param    n          The IIR filter coefficient (n/256).
1408:Generated_Source\PSoC4/CapSense_Filter.c **** * \param    shift      The parameter is used to shift input data to have free LSB 
1409:Generated_Source\PSoC4/CapSense_Filter.c **** *                       bits for a fraction storage of the filter output calculation.
1410:Generated_Source\PSoC4/CapSense_Filter.c **** *
1411:Generated_Source\PSoC4/CapSense_Filter.c **** * \return   Returns the filtered data.
1412:Generated_Source\PSoC4/CapSense_Filter.c **** *
1413:Generated_Source\PSoC4/CapSense_Filter.c **** *******************************************************************************/
ARM GAS  C:\Users\TB1014~1\AppData\Local\Temp\ccLivewv.s 			page 38


1414:Generated_Source\PSoC4/CapSense_Filter.c **** uint32 CapSense_FtIIR1stOrder(uint32 input, uint32 prevOutput, uint32 n, uint32 shift)
1415:Generated_Source\PSoC4/CapSense_Filter.c **** {   
 641              		.loc 1 1415 0
 642              		.cfi_startproc
 643              	.LVL102:
1416:Generated_Source\PSoC4/CapSense_Filter.c ****     uint32 output;
1417:Generated_Source\PSoC4/CapSense_Filter.c ****    
1418:Generated_Source\PSoC4/CapSense_Filter.c ****     /*
1419:Generated_Source\PSoC4/CapSense_Filter.c ****     * n - IIR filter coefficient (n/256)
1420:Generated_Source\PSoC4/CapSense_Filter.c ****     * shift - Used to shift input data to have free LSB bits
1421:Generated_Source\PSoC4/CapSense_Filter.c ****     * for fraction storage of filter output calculation
1422:Generated_Source\PSoC4/CapSense_Filter.c ****     */
1423:Generated_Source\PSoC4/CapSense_Filter.c ****     output = ((n * (input << shift)) + ((CapSense_IIR_COEFFICIENT_K - n) * prevOutput)) >> 8u;
 644              		.loc 1 1423 0
 645 0000 9840     		lsl	r0, r0, r3
 646              	.LVL103:
 647 0002 031C     		mov	r3, r0
 648              	.LVL104:
 649 0004 5343     		mul	r3, r2
 650 0006 8020     		mov	r0, #128
 651 0008 4000     		lsl	r0, r0, #1
 652 000a 801A     		sub	r0, r0, r2
 653 000c 4143     		mul	r1, r0
 654              	.LVL105:
 655 000e 5818     		add	r0, r3, r1
 656 0010 000A     		lsr	r0, r0, #8
 657              	.LVL106:
1424:Generated_Source\PSoC4/CapSense_Filter.c ****     
1425:Generated_Source\PSoC4/CapSense_Filter.c ****     /* Shift operation of output will be done in upper level API if needed */
1426:Generated_Source\PSoC4/CapSense_Filter.c ****     return output;
1427:Generated_Source\PSoC4/CapSense_Filter.c **** }
 658              		.loc 1 1427 0
 659              		@ sp needed
 660 0012 7047     		bx	lr
 661              		.cfi_endproc
 662              	.LFE19:
 663              		.size	CapSense_FtIIR1stOrder, .-CapSense_FtIIR1stOrder
 664              		.section	.text.CapSense_FtUpdateBaseline,"ax",%progbits
 665              		.align	2
 666              		.global	CapSense_FtUpdateBaseline
 667              		.code	16
 668              		.thumb_func
 669              		.type	CapSense_FtUpdateBaseline, %function
 670              	CapSense_FtUpdateBaseline:
 671              	.LFB5:
 325:Generated_Source\PSoC4/CapSense_Filter.c ****     uint32 sign;
 672              		.loc 1 325 0
 673              		.cfi_startproc
 674              	.LVL107:
 675 0000 F0B5     		push	{r4, r5, r6, r7, lr}
 676              		.cfi_def_cfa_offset 20
 677              		.cfi_offset 4, -20
 678              		.cfi_offset 5, -16
 679              		.cfi_offset 6, -12
 680              		.cfi_offset 7, -8
 681              		.cfi_offset 14, -4
 682 0002 83B0     		sub	sp, sp, #12
ARM GAS  C:\Users\TB1014~1\AppData\Local\Temp\ccLivewv.s 			page 39


 683              		.cfi_def_cfa_offset 32
 684 0004 071C     		mov	r7, r0
 685 0006 0E1C     		mov	r6, r1
 686 0008 0192     		str	r2, [sp, #4]
 687              	.LVL108:
 336:Generated_Source\PSoC4/CapSense_Filter.c ****     {               
 688              		.loc 1 336 0
 689 000a 0123     		mov	r3, #1
 690 000c 3BE0     		b	.L44
 691              	.LVL109:
 692              	.L51:
 348:Generated_Source\PSoC4/CapSense_Filter.c ****         {
 693              		.loc 1 348 0
 694 000e 6300     		lsl	r3, r4, #1
 695 0010 985B     		ldrh	r0, [r3, r6]
 696 0012 F318     		add	r3, r6, r3
 697 0014 5988     		ldrh	r1, [r3, #2]
 698 0016 8842     		cmp	r0, r1
 699 0018 05D3     		bcc	.L45
 350:Generated_Source\PSoC4/CapSense_Filter.c ****             sign = 1u;
 700              		.loc 1 350 0
 701 001a 431A     		sub	r3, r0, r1
 702              	.LVL110:
 352:Generated_Source\PSoC4/CapSense_Filter.c ****         }
 703              		.loc 1 352 0
 704 001c 3219     		add	r2, r6, r4
 705 001e 0025     		mov	r5, #0
 706 0020 1572     		strb	r5, [r2, #8]
 351:Generated_Source\PSoC4/CapSense_Filter.c ****             ptrSensor->negBslnRstCnt[channel] = 0u;
 707              		.loc 1 351 0
 708 0022 0122     		mov	r2, #1
 709 0024 01E0     		b	.L46
 710              	.LVL111:
 711              	.L45:
 356:Generated_Source\PSoC4/CapSense_Filter.c ****             sign = 0u;
 712              		.loc 1 356 0
 713 0026 0B1A     		sub	r3, r1, r0
 714              	.LVL112:
 357:Generated_Source\PSoC4/CapSense_Filter.c ****         }     
 715              		.loc 1 357 0
 716 0028 0022     		mov	r2, #0
 717              	.LVL113:
 718              	.L46:
 361:Generated_Source\PSoC4/CapSense_Filter.c ****         {
 719              		.loc 1 361 0
 720 002a 002A     		cmp	r2, #0
 721 002c 11D1     		bne	.L47
 361:Generated_Source\PSoC4/CapSense_Filter.c ****         {
 722              		.loc 1 361 0 is_stmt 0 discriminator 1
 723 002e 7D79     		ldrb	r5, [r7, #5]
 724 0030 9D42     		cmp	r5, r3
 725 0032 0ED2     		bcs	.L47
 363:Generated_Source\PSoC4/CapSense_Filter.c ****             {                
 726              		.loc 1 363 0 is_stmt 1
 727 0034 3319     		add	r3, r6, r4
 728              	.LVL114:
 729 0036 1B7A     		ldrb	r3, [r3, #8]
ARM GAS  C:\Users\TB1014~1\AppData\Local\Temp\ccLivewv.s 			page 40


 730 0038 3A7A     		ldrb	r2, [r7, #8]
 731              	.LVL115:
 732 003a 9342     		cmp	r3, r2
 733 003c 05D3     		bcc	.L48
 365:Generated_Source\PSoC4/CapSense_Filter.c ****             }
 734              		.loc 1 365 0
 735 003e 301C     		mov	r0, r6
 736 0040 0199     		ldr	r1, [sp, #4]
 737 0042 221C     		mov	r2, r4
 738 0044 FFF7FEFF 		bl	CapSense_FtInitializeBaselineChannel
 739              	.LVL116:
 740 0048 1CE0     		b	.L49
 741              	.L48:
 369:Generated_Source\PSoC4/CapSense_Filter.c ****             }
 742              		.loc 1 369 0
 743 004a 3219     		add	r2, r6, r4
 744 004c 0133     		add	r3, r3, #1
 745 004e 1372     		strb	r3, [r2, #8]
 746 0050 18E0     		b	.L49
 747              	.LVL117:
 748              	.L47:
 376:Generated_Source\PSoC4/CapSense_Filter.c ****                     ((difference < (uint32) ptrWidgetRam->nNoiseTh) && (sign == 0u)))
 749              		.loc 1 376 0
 750 0052 3D79     		ldrb	r5, [r7, #4]
 751 0054 9D42     		cmp	r5, r3
 752 0056 04D2     		bcs	.L50
 377:Generated_Source\PSoC4/CapSense_Filter.c ****                 {
 753              		.loc 1 377 0 discriminator 1
 754 0058 7D79     		ldrb	r5, [r7, #5]
 376:Generated_Source\PSoC4/CapSense_Filter.c ****                     ((difference < (uint32) ptrWidgetRam->nNoiseTh) && (sign == 0u)))
 755              		.loc 1 376 0 discriminator 1
 756 005a 9D42     		cmp	r5, r3
 757 005c 12D9     		bls	.L49
 377:Generated_Source\PSoC4/CapSense_Filter.c ****                 {
 758              		.loc 1 377 0
 759 005e 002A     		cmp	r2, #0
 760 0060 10D1     		bne	.L49
 761              	.L50:
 383:Generated_Source\PSoC4/CapSense_Filter.c ****                 {
 762              		.loc 1 383 0
 763 0062 6B46     		mov	r3, sp
 764              	.LVL118:
 765 0064 1B79     		ldrb	r3, [r3, #4]
 766 0066 062B     		cmp	r3, #6
 767 0068 0CD0     		beq	.L49
 387:Generated_Source\PSoC4/CapSense_Filter.c ****                             history |= ptrSensor->bslnExt[channel];
 768              		.loc 1 387 0
 769 006a 0902     		lsl	r1, r1, #8
 770              	.LVL119:
 388:Generated_Source\PSoC4/CapSense_Filter.c ****                         #else
 771              		.loc 1 388 0
 772 006c 3519     		add	r5, r6, r4
 773 006e 2B79     		ldrb	r3, [r5, #4]
 774 0070 1943     		orr	r1, r3
 775              	.LVL120:
 393:Generated_Source\PSoC4/CapSense_Filter.c ****                                         (uint32)ptrSensor->raw[channel],
 776              		.loc 1 393 0
ARM GAS  C:\Users\TB1014~1\AppData\Local\Temp\ccLivewv.s 			page 41


 777 0072 0222     		mov	r2, #2
 778              	.LVL121:
 779 0074 0823     		mov	r3, #8
 780 0076 FFF7FEFF 		bl	CapSense_FtIIR1stOrder
 781              	.LVL122:
 400:Generated_Source\PSoC4/CapSense_Filter.c ****                             ptrSensor->bslnExt[channel] = LO8(history);
 782              		.loc 1 400 0
 783 007a 020A     		lsr	r2, r0, #8
 784 007c 6300     		lsl	r3, r4, #1
 785 007e F318     		add	r3, r6, r3
 786 0080 5A80     		strh	r2, [r3, #2]
 401:Generated_Source\PSoC4/CapSense_Filter.c ****                         #else
 787              		.loc 1 401 0
 788 0082 2871     		strb	r0, [r5, #4]
 789              	.LVL123:
 790              	.L49:
 791 0084 231C     		mov	r3, r4
 792              	.LVL124:
 793              	.L44:
 336:Generated_Source\PSoC4/CapSense_Filter.c ****     {               
 794              		.loc 1 336 0 discriminator 1
 795 0086 5C1E     		sub	r4, r3, #1
 796              	.LVL125:
 797 0088 002B     		cmp	r3, #0
 798 008a C0D1     		bne	.L51
 449:Generated_Source\PSoC4/CapSense_Filter.c **** 
 799              		.loc 1 449 0
 800 008c 0020     		mov	r0, #0
 801 008e 03B0     		add	sp, sp, #12
 802              		@ sp needed
 803              	.LVL126:
 804              	.LVL127:
 805              	.LVL128:
 806 0090 F0BD     		pop	{r4, r5, r6, r7, pc}
 807              		.cfi_endproc
 808              	.LFE5:
 809              		.size	CapSense_FtUpdateBaseline, .-CapSense_FtUpdateBaseline
 810 0092 C046     		.section	.text.CapSense_UpdateSensorBaseline,"ax",%progbits
 811              		.align	2
 812              		.global	CapSense_UpdateSensorBaseline
 813              		.code	16
 814              		.thumb_func
 815              		.type	CapSense_UpdateSensorBaseline, %function
 816              	CapSense_UpdateSensorBaseline:
 817              	.LFB4:
 267:Generated_Source\PSoC4/CapSense_Filter.c ****     uint32 result = CYRET_SUCCESS;
 818              		.loc 1 267 0
 819              		.cfi_startproc
 820              	.LVL129:
 821 0000 08B5     		push	{r3, lr}
 822              		.cfi_def_cfa_offset 8
 823              		.cfi_offset 3, -8
 824              		.cfi_offset 14, -4
 825              	.LVL130:
 272:Generated_Source\PSoC4/CapSense_Filter.c **** 
 826              		.loc 1 272 0
 827 0002 2C23     		mov	r3, #44
ARM GAS  C:\Users\TB1014~1\AppData\Local\Temp\ccLivewv.s 			page 42


 828 0004 5843     		mul	r0, r3
 829              	.LVL131:
 830 0006 064B     		ldr	r3, .L53
 831 0008 1B18     		add	r3, r3, r0
 832              	.LVL132:
 833 000a 5868     		ldr	r0, [r3, #4]
 834              	.LVL133:
 276:Generated_Source\PSoC4/CapSense_Filter.c ****     result = CapSense_FtUpdateBaseline(ptrWidgetRam, ptrSensor, (uint32)ptrWidget->wdgtType);
 835              		.loc 1 276 0
 836 000c 8A00     		lsl	r2, r1, #2
 837 000e 5118     		add	r1, r2, r1
 838              	.LVL134:
 839 0010 4900     		lsl	r1, r1, #1
 840 0012 9A68     		ldr	r2, [r3, #8]
 841 0014 9446     		mov	ip, r2
 842 0016 6144     		add	r1, r1, ip
 843              	.LVL135:
 277:Generated_Source\PSoC4/CapSense_Filter.c ****     
 844              		.loc 1 277 0
 845 0018 1A7E     		ldrb	r2, [r3, #24]
 846 001a FFF7FEFF 		bl	CapSense_FtUpdateBaseline
 847              	.LVL136:
 288:Generated_Source\PSoC4/CapSense_Filter.c **** 
 848              		.loc 1 288 0
 849              		@ sp needed
 850 001e 08BD     		pop	{r3, pc}
 851              	.L54:
 852              		.align	2
 853              	.L53:
 854 0020 00000000 		.word	CapSense_dsFlash
 855              		.cfi_endproc
 856              	.LFE4:
 857              		.size	CapSense_UpdateSensorBaseline, .-CapSense_UpdateSensorBaseline
 858              		.section	.text.CapSense_UpdateWidgetBaseline,"ax",%progbits
 859              		.align	2
 860              		.global	CapSense_UpdateWidgetBaseline
 861              		.code	16
 862              		.thumb_func
 863              		.type	CapSense_UpdateWidgetBaseline, %function
 864              	CapSense_UpdateWidgetBaseline:
 865              	.LFB3:
 210:Generated_Source\PSoC4/CapSense_Filter.c ****     uint32 sensorId;       
 866              		.loc 1 210 0
 867              		.cfi_startproc
 868              	.LVL137:
 869 0000 70B5     		push	{r4, r5, r6, lr}
 870              		.cfi_def_cfa_offset 16
 871              		.cfi_offset 4, -16
 872              		.cfi_offset 5, -12
 873              		.cfi_offset 6, -8
 874              		.cfi_offset 14, -4
 875 0002 061C     		mov	r6, r0
 876              	.LVL138:
 218:Generated_Source\PSoC4/CapSense_Filter.c ****     
 877              		.loc 1 218 0
 878 0004 2C23     		mov	r3, #44
 879 0006 4343     		mul	r3, r0
ARM GAS  C:\Users\TB1014~1\AppData\Local\Temp\ccLivewv.s 			page 43


 880 0008 074A     		ldr	r2, .L58
 881 000a D318     		add	r3, r2, r3
 882              	.LVL139:
 883 000c DB8A     		ldrh	r3, [r3, #22]
 884              	.LVL140:
 215:Generated_Source\PSoC4/CapSense_Filter.c ****     
 885              		.loc 1 215 0
 886 000e 0025     		mov	r5, #0
 220:Generated_Source\PSoC4/CapSense_Filter.c ****     {
 887              		.loc 1 220 0
 888 0010 05E0     		b	.L56
 889              	.LVL141:
 890              	.L57:
 222:Generated_Source\PSoC4/CapSense_Filter.c ****     }
 891              		.loc 1 222 0
 892 0012 301C     		mov	r0, r6
 893 0014 211C     		mov	r1, r4
 894 0016 FFF7FEFF 		bl	CapSense_UpdateSensorBaseline
 895              	.LVL142:
 896 001a 0543     		orr	r5, r0
 897              	.LVL143:
 220:Generated_Source\PSoC4/CapSense_Filter.c ****     {
 898              		.loc 1 220 0
 899 001c 231C     		mov	r3, r4
 900              	.LVL144:
 901              	.L56:
 220:Generated_Source\PSoC4/CapSense_Filter.c ****     {
 902              		.loc 1 220 0 is_stmt 0 discriminator 1
 903 001e 5C1E     		sub	r4, r3, #1
 904              	.LVL145:
 905 0020 002B     		cmp	r3, #0
 906 0022 F6D1     		bne	.L57
 226:Generated_Source\PSoC4/CapSense_Filter.c **** 
 907              		.loc 1 226 0 is_stmt 1
 908 0024 281C     		mov	r0, r5
 909              		@ sp needed
 910              	.LVL146:
 911              	.LVL147:
 912              	.LVL148:
 913 0026 70BD     		pop	{r4, r5, r6, pc}
 914              	.L59:
 915              		.align	2
 916              	.L58:
 917 0028 00000000 		.word	CapSense_dsFlash
 918              		.cfi_endproc
 919              	.LFE3:
 920              		.size	CapSense_UpdateWidgetBaseline, .-CapSense_UpdateWidgetBaseline
 921              		.section	.text.CapSense_UpdateAllBaselines,"ax",%progbits
 922              		.align	2
 923              		.global	CapSense_UpdateAllBaselines
 924              		.code	16
 925              		.thumb_func
 926              		.type	CapSense_UpdateAllBaselines, %function
 927              	CapSense_UpdateAllBaselines:
 928              	.LFB2:
 165:Generated_Source\PSoC4/CapSense_Filter.c ****     uint32 widgetId; 
 929              		.loc 1 165 0
ARM GAS  C:\Users\TB1014~1\AppData\Local\Temp\ccLivewv.s 			page 44


 930              		.cfi_startproc
 931 0000 38B5     		push	{r3, r4, r5, lr}
 932              		.cfi_def_cfa_offset 16
 933              		.cfi_offset 3, -16
 934              		.cfi_offset 4, -12
 935              		.cfi_offset 5, -8
 936              		.cfi_offset 14, -4
 937              	.LVL149:
 167:Generated_Source\PSoC4/CapSense_Filter.c ****     
 938              		.loc 1 167 0
 939 0002 0025     		mov	r5, #0
 169:Generated_Source\PSoC4/CapSense_Filter.c ****     {            
 940              		.loc 1 169 0
 941 0004 0823     		mov	r3, #8
 942 0006 04E0     		b	.L61
 943              	.LVL150:
 944              	.L62:
 171:Generated_Source\PSoC4/CapSense_Filter.c ****     }      
 945              		.loc 1 171 0
 946 0008 201C     		mov	r0, r4
 947 000a FFF7FEFF 		bl	CapSense_UpdateWidgetBaseline
 948              	.LVL151:
 949 000e 0543     		orr	r5, r0
 950              	.LVL152:
 169:Generated_Source\PSoC4/CapSense_Filter.c ****     {            
 951              		.loc 1 169 0
 952 0010 231C     		mov	r3, r4
 953              	.LVL153:
 954              	.L61:
 169:Generated_Source\PSoC4/CapSense_Filter.c ****     {            
 955              		.loc 1 169 0 is_stmt 0 discriminator 1
 956 0012 5C1E     		sub	r4, r3, #1
 957              	.LVL154:
 958 0014 002B     		cmp	r3, #0
 959 0016 F7D1     		bne	.L62
 175:Generated_Source\PSoC4/CapSense_Filter.c ****   
 960              		.loc 1 175 0 is_stmt 1
 961 0018 281C     		mov	r0, r5
 962              		@ sp needed
 963              	.LVL155:
 964              	.LVL156:
 965 001a 38BD     		pop	{r3, r4, r5, pc}
 966              		.cfi_endproc
 967              	.LFE2:
 968              		.size	CapSense_UpdateAllBaselines, .-CapSense_UpdateAllBaselines
 969              		.section	.text.CapSense_RunIIRInternal,"ax",%progbits
 970              		.align	2
 971              		.global	CapSense_RunIIRInternal
 972              		.code	16
 973              		.thumb_func
 974              		.type	CapSense_RunIIRInternal, %function
 975              	CapSense_RunIIRInternal:
 976              	.LFB14:
 778:Generated_Source\PSoC4/CapSense_Filter.c ****     uint32 channel;
 977              		.loc 1 778 0
 978              		.cfi_startproc
 979              	.LVL157:
ARM GAS  C:\Users\TB1014~1\AppData\Local\Temp\ccLivewv.s 			page 45


 980 0000 F0B5     		push	{r4, r5, r6, r7, lr}
 981              		.cfi_def_cfa_offset 20
 982              		.cfi_offset 4, -20
 983              		.cfi_offset 5, -16
 984              		.cfi_offset 6, -12
 985              		.cfi_offset 7, -8
 986              		.cfi_offset 14, -4
 987 0002 83B0     		sub	sp, sp, #12
 988              		.cfi_def_cfa_offset 32
 989 0004 061C     		mov	r6, r0
 990 0006 0F1C     		mov	r7, r1
 991 0008 0192     		str	r2, [sp, #4]
 992              	.LVL158:
 782:Generated_Source\PSoC4/CapSense_Filter.c ****     {
 993              		.loc 1 782 0
 994 000a 0123     		mov	r3, #1
 995 000c 0EE0     		b	.L64
 996              	.LVL159:
 997              	.L66:
 784:Generated_Source\PSoC4/CapSense_Filter.c ****         {
 998              		.loc 1 784 0
 999 000e 6B46     		mov	r3, sp
 1000 0010 1B79     		ldrb	r3, [r3, #4]
 1001 0012 062B     		cmp	r3, #6
 1002 0014 09D0     		beq	.L65
 798:Generated_Source\PSoC4/CapSense_Filter.c ****                                                         (uint32)ptrFilterHistObj.ptrRegular->regula
 1003              		.loc 1 798 0
 1004 0016 6500     		lsl	r5, r4, #1
 1005 0018 E85B     		ldrh	r0, [r5, r7]
 1006              	.LVL160:
 799:Generated_Source\PSoC4/CapSense_Filter.c ****                                                         CapSense_REGULAR_IIR_RC_N,
 1007              		.loc 1 799 0
 1008 001a A95B     		ldrh	r1, [r5, r6]
 798:Generated_Source\PSoC4/CapSense_Filter.c ****                                                         (uint32)ptrFilterHistObj.ptrRegular->regula
 1009              		.loc 1 798 0
 1010 001c 8022     		mov	r2, #128
 1011 001e 0023     		mov	r3, #0
 1012 0020 FFF7FEFF 		bl	CapSense_FtIIR1stOrder
 1013              	.LVL161:
 802:Generated_Source\PSoC4/CapSense_Filter.c ****                     ptrSensorObj->raw[channel] = LO16(temp >>CapSense_REGULAR_IIR_RC_SHIFT);
 1014              		.loc 1 802 0
 1015 0024 80B2     		uxth	r0, r0
 1016              	.LVL162:
 1017 0026 A853     		strh	r0, [r5, r6]
 803:Generated_Source\PSoC4/CapSense_Filter.c ****                 #endif /* (CapSense_REGULAR_IIR_RC_TYPE == CapSense_IIR_FILTER_PERFORMANCE) */
 1018              		.loc 1 803 0
 1019 0028 E853     		strh	r0, [r5, r7]
 1020              	.L65:
 778:Generated_Source\PSoC4/CapSense_Filter.c ****     uint32 channel;
 1021              		.loc 1 778 0 discriminator 1
 1022 002a 231C     		mov	r3, r4
 1023              	.LVL163:
 1024              	.L64:
 782:Generated_Source\PSoC4/CapSense_Filter.c ****     {
 1025              		.loc 1 782 0 discriminator 1
 1026 002c 5C1E     		sub	r4, r3, #1
 1027              	.LVL164:
ARM GAS  C:\Users\TB1014~1\AppData\Local\Temp\ccLivewv.s 			page 46


 1028 002e 002B     		cmp	r3, #0
 1029 0030 EDD1     		bne	.L66
 831:Generated_Source\PSoC4/CapSense_Filter.c **** #endif /* #if (CapSense_REGULAR_RC_IIR_FILTER_EN || CapSense_PROX_RC_IIR_FILTER_EN) */
 1030              		.loc 1 831 0
 1031 0032 03B0     		add	sp, sp, #12
 1032              		@ sp needed
 1033              	.LVL165:
 1034              	.LVL166:
 1035 0034 F0BD     		pop	{r4, r5, r6, r7, pc}
 1036              		.cfi_endproc
 1037              	.LFE14:
 1038              		.size	CapSense_RunIIRInternal, .-CapSense_RunIIRInternal
 1039 0036 C046     		.section	.text.CapSense_RunIIR,"ax",%progbits
 1040              		.align	2
 1041              		.global	CapSense_RunIIR
 1042              		.code	16
 1043              		.thumb_func
 1044              		.type	CapSense_RunIIR, %function
 1045              	CapSense_RunIIR:
 1046              	.LFB12:
 689:Generated_Source\PSoC4/CapSense_Filter.c ****     CapSense_FLASH_WD_STRUCT const *ptrWidget = &CapSense_dsFlash.wdgtArray[widgetId];      
 1047              		.loc 1 689 0
 1048              		.cfi_startproc
 1049              	.LVL167:
 1050 0000 10B5     		push	{r4, lr}
 1051              		.cfi_def_cfa_offset 8
 1052              		.cfi_offset 4, -8
 1053              		.cfi_offset 14, -4
 1054              	.LVL168:
 695:Generated_Source\PSoC4/CapSense_Filter.c ****     ptrSensor = &ptrSensor[sensorId];
 1055              		.loc 1 695 0
 1056 0002 2C23     		mov	r3, #44
 1057 0004 5843     		mul	r0, r3
 1058              	.LVL169:
 1059 0006 094A     		ldr	r2, .L69
 1060 0008 1218     		add	r2, r2, r0
 1061              	.LVL170:
 696:Generated_Source\PSoC4/CapSense_Filter.c ****         
 1062              		.loc 1 696 0
 1063 000a 8B00     		lsl	r3, r1, #2
 1064 000c 5B18     		add	r3, r3, r1
 1065 000e 5B00     		lsl	r3, r3, #1
 1066 0010 9068     		ldr	r0, [r2, #8]
 1067 0012 8446     		mov	ip, r0
 1068 0014 6344     		add	r3, r3, ip
 1069              	.LVL171:
 699:Generated_Source\PSoC4/CapSense_Filter.c ****     
 1070              		.loc 1 699 0
 1071 0016 D468     		ldr	r4, [r2, #12]
 1072 0018 201C     		mov	r0, r4
 1073              	.LVL172:
 701:Generated_Source\PSoC4/CapSense_Filter.c ****     {
 1074              		.loc 1 701 0
 1075 001a 127E     		ldrb	r2, [r2, #24]
 1076              	.LVL173:
 1077 001c 062A     		cmp	r2, #6
 1078 001e 01D0     		beq	.L68
ARM GAS  C:\Users\TB1014~1\AppData\Local\Temp\ccLivewv.s 			page 47


 704:Generated_Source\PSoC4/CapSense_Filter.c ****         #endif /* (CapSense_REGULAR_SENSOR_EN) */
 1079              		.loc 1 704 0
 1080 0020 4900     		lsl	r1, r1, #1
 1081              	.LVL174:
 1082 0022 6018     		add	r0, r4, r1
 1083              	.L68:
 714:Generated_Source\PSoC4/CapSense_Filter.c **** }
 1084              		.loc 1 714 0
 1085 0024 191C     		mov	r1, r3
 1086 0026 FFF7FEFF 		bl	CapSense_RunIIRInternal
 1087              	.LVL175:
 715:Generated_Source\PSoC4/CapSense_Filter.c ****     
 1088              		.loc 1 715 0
 1089              		@ sp needed
 1090 002a 10BD     		pop	{r4, pc}
 1091              	.L70:
 1092              		.align	2
 1093              	.L69:
 1094 002c 00000000 		.word	CapSense_dsFlash
 1095              		.cfi_endproc
 1096              	.LFE12:
 1097              		.size	CapSense_RunIIR, .-CapSense_RunIIR
 1098              		.section	.text.CapSense_FtRunEnabledFiltersInternal,"ax",%progbits
 1099              		.align	2
 1100              		.global	CapSense_FtRunEnabledFiltersInternal
 1101              		.code	16
 1102              		.thumb_func
 1103              		.type	CapSense_FtRunEnabledFiltersInternal, %function
 1104              	CapSense_FtRunEnabledFiltersInternal:
 1105              	.LFB16:
1278:Generated_Source\PSoC4/CapSense_Filter.c ****     #if (CapSense_REGULAR_RC_MEDIAN_FILTER_EN || CapSense_PROX_RC_MEDIAN_FILTER_EN)
 1106              		.loc 1 1278 0
 1107              		.cfi_startproc
 1108              	.LVL176:
 1109 0000 08B5     		push	{r3, lr}
 1110              		.cfi_def_cfa_offset 8
 1111              		.cfi_offset 3, -8
 1112              		.cfi_offset 14, -4
1284:Generated_Source\PSoC4/CapSense_Filter.c ****     #endif /* (CapSense_REGULAR_RC_IIR_FILTER_EN || CapSense_PROX_RC_IIR_FILTER_EN) */ 
 1113              		.loc 1 1284 0
 1114 0002 FFF7FEFF 		bl	CapSense_RunIIRInternal
 1115              	.LVL177:
1290:Generated_Source\PSoC4/CapSense_Filter.c **** #endif /* (CapSense_REGULAR_RC_FILTER_EN || CapSense_PROX_RC_FILTER_EN) */
 1116              		.loc 1 1290 0
 1117              		@ sp needed
 1118 0006 08BD     		pop	{r3, pc}
 1119              		.cfi_endproc
 1120              	.LFE16:
 1121              		.size	CapSense_FtRunEnabledFiltersInternal, .-CapSense_FtRunEnabledFiltersInternal
 1122              		.section	.text.CapSense_FtRunEnabledFilters,"ax",%progbits
 1123              		.align	2
 1124              		.global	CapSense_FtRunEnabledFilters
 1125              		.code	16
 1126              		.thumb_func
 1127              		.type	CapSense_FtRunEnabledFilters, %function
 1128              	CapSense_FtRunEnabledFilters:
 1129              	.LFB15:
ARM GAS  C:\Users\TB1014~1\AppData\Local\Temp\ccLivewv.s 			page 48


1234:Generated_Source\PSoC4/CapSense_Filter.c ****     CapSense_FLASH_WD_STRUCT const *ptrWidget = &CapSense_dsFlash.wdgtArray[widgetId];      
 1130              		.loc 1 1234 0
 1131              		.cfi_startproc
 1132              	.LVL178:
 1133 0000 10B5     		push	{r4, lr}
 1134              		.cfi_def_cfa_offset 8
 1135              		.cfi_offset 4, -8
 1136              		.cfi_offset 14, -4
 1137              	.LVL179:
1240:Generated_Source\PSoC4/CapSense_Filter.c ****     ptrSensor = &ptrSensor[sensorId];
 1138              		.loc 1 1240 0
 1139 0002 2C23     		mov	r3, #44
 1140 0004 5843     		mul	r0, r3
 1141              	.LVL180:
 1142 0006 094A     		ldr	r2, .L74
 1143 0008 1218     		add	r2, r2, r0
 1144              	.LVL181:
1241:Generated_Source\PSoC4/CapSense_Filter.c ****     
 1145              		.loc 1 1241 0
 1146 000a 8B00     		lsl	r3, r1, #2
 1147 000c 5B18     		add	r3, r3, r1
 1148 000e 5B00     		lsl	r3, r3, #1
 1149 0010 9068     		ldr	r0, [r2, #8]
 1150 0012 8446     		mov	ip, r0
 1151 0014 6344     		add	r3, r3, ip
 1152              	.LVL182:
1244:Generated_Source\PSoC4/CapSense_Filter.c ****     
 1153              		.loc 1 1244 0
 1154 0016 D468     		ldr	r4, [r2, #12]
 1155 0018 201C     		mov	r0, r4
 1156              	.LVL183:
1246:Generated_Source\PSoC4/CapSense_Filter.c ****     {
 1157              		.loc 1 1246 0
 1158 001a 127E     		ldrb	r2, [r2, #24]
 1159              	.LVL184:
 1160 001c 062A     		cmp	r2, #6
 1161 001e 01D0     		beq	.L73
1249:Generated_Source\PSoC4/CapSense_Filter.c ****         #endif /* (CapSense_REGULAR_SENSOR_EN) */
 1162              		.loc 1 1249 0
 1163 0020 4900     		lsl	r1, r1, #1
 1164              	.LVL185:
 1165 0022 6018     		add	r0, r4, r1
 1166              	.L73:
1259:Generated_Source\PSoC4/CapSense_Filter.c **** }
 1167              		.loc 1 1259 0
 1168 0024 191C     		mov	r1, r3
 1169 0026 FFF7FEFF 		bl	CapSense_FtRunEnabledFiltersInternal
 1170              	.LVL186:
1260:Generated_Source\PSoC4/CapSense_Filter.c **** 
 1171              		.loc 1 1260 0
 1172              		@ sp needed
 1173 002a 10BD     		pop	{r4, pc}
 1174              	.L75:
 1175              		.align	2
 1176              	.L74:
 1177 002c 00000000 		.word	CapSense_dsFlash
 1178              		.cfi_endproc
ARM GAS  C:\Users\TB1014~1\AppData\Local\Temp\ccLivewv.s 			page 49


 1179              	.LFE15:
 1180              		.size	CapSense_FtRunEnabledFilters, .-CapSense_FtRunEnabledFilters
 1181              		.text
 1182              	.Letext0:
 1183              		.file 2 "Generated_Source\\PSoC4\\cytypes.h"
 1184              		.file 3 "Generated_Source\\PSoC4\\CapSense_Configuration.h"
 1185              		.file 4 "Generated_Source\\PSoC4\\CapSense_SmartSense_LL.h"
 1186              		.file 5 "Generated_Source\\PSoC4\\CapSense_Structure.h"