ARM GAS  C:\Users\TB1014~1\AppData\Local\Temp\ccLivewv.s 			page 1


   1              		.cpu cortex-m0plus
   2              		.fpu softvfp
   3              		.eabi_attribute 20, 1
   4              		.eabi_attribute 21, 1
   5              		.eabi_attribute 23, 3
   6              		.eabi_attribute 24, 1
   7              		.eabi_attribute 25, 1
   8              		.eabi_attribute 26, 1
   9              		.eabi_attribute 30, 1
  10              		.eabi_attribute 34, 0
  11              		.eabi_attribute 18, 4
  12              		.code	16
  13              		.file	"CapSense_Filter.c"
  14              		.text
  15              	.Ltext0:
  16              		.cfi_sections	.debug_frame
  17              		.section	.text.CapSense_FtInitializeBaselineChannel,"ax",%progbits
  18              		.align	2
  19              		.global	CapSense_FtInitializeBaselineChannel
  20              		.code	16
  21              		.thumb_func
  22              		.type	CapSense_FtInitializeBaselineChannel, %function
  23              	CapSense_FtInitializeBaselineChannel:
  24              	.LFB10:
  25              		.file 1 "Generated_Source\\PSoC4\\CapSense_Filter.c"
   1:Generated_Source\PSoC4/CapSense_Filter.c **** /***************************************************************************//**
   2:Generated_Source\PSoC4/CapSense_Filter.c **** * \file     CapSense_Filter.c
   3:Generated_Source\PSoC4/CapSense_Filter.c **** * \version  3.10
   4:Generated_Source\PSoC4/CapSense_Filter.c **** *
   5:Generated_Source\PSoC4/CapSense_Filter.c **** * \brief    This file contains the implementation source code to implement all 
   6:Generated_Source\PSoC4/CapSense_Filter.c **** *           firmware filters.
   7:Generated_Source\PSoC4/CapSense_Filter.c **** *
   8:Generated_Source\PSoC4/CapSense_Filter.c **** * \see      CapSense P4 v3.10 Datasheet
   9:Generated_Source\PSoC4/CapSense_Filter.c **** * 
  10:Generated_Source\PSoC4/CapSense_Filter.c **** *//*****************************************************************************
  11:Generated_Source\PSoC4/CapSense_Filter.c **** * Copyright (2016), Cypress Semiconductor Corporation.
  12:Generated_Source\PSoC4/CapSense_Filter.c **** ********************************************************************************
  13:Generated_Source\PSoC4/CapSense_Filter.c **** * This software is owned by Cypress Semiconductor Corporation (Cypress) and is
  14:Generated_Source\PSoC4/CapSense_Filter.c **** * protected by and subject to worldwide patent protection (United States and
  15:Generated_Source\PSoC4/CapSense_Filter.c **** * foreign), United States copyright laws and international treaty provisions.
  16:Generated_Source\PSoC4/CapSense_Filter.c **** * Cypress hereby grants to licensee a personal, non-exclusive, non-transferable
  17:Generated_Source\PSoC4/CapSense_Filter.c **** * license to copy, use, modify, create derivative works of, and compile the
  18:Generated_Source\PSoC4/CapSense_Filter.c **** * Cypress Source Code and derivative works for the sole purpose of creating
  19:Generated_Source\PSoC4/CapSense_Filter.c **** * custom software in support of licensee product to be used only in conjunction
  20:Generated_Source\PSoC4/CapSense_Filter.c **** * with a Cypress integrated circuit as specified in the applicable agreement.
  21:Generated_Source\PSoC4/CapSense_Filter.c **** * Any reproduction, modification, translation, compilation, or representation of
  22:Generated_Source\PSoC4/CapSense_Filter.c **** * this software except as specified above is prohibited without the express
  23:Generated_Source\PSoC4/CapSense_Filter.c **** * written permission of Cypress.
  24:Generated_Source\PSoC4/CapSense_Filter.c **** *
  25:Generated_Source\PSoC4/CapSense_Filter.c **** * Disclaimer: CYPRESS MAKES NO WARRANTY OF ANY KIND, EXPRESS OR IMPLIED, WITH
  26:Generated_Source\PSoC4/CapSense_Filter.c **** * REGARD TO THIS MATERIAL, INCLUDING, BUT NOT LIMITED TO, THE IMPLIED
  27:Generated_Source\PSoC4/CapSense_Filter.c **** * WARRANTIES OF MERCHANTABILITY AND FITNESS FOR A PARTICULAR PURPOSE.
  28:Generated_Source\PSoC4/CapSense_Filter.c **** * Cypress reserves the right to make changes without further notice to the
  29:Generated_Source\PSoC4/CapSense_Filter.c **** * materials described herein. Cypress does not assume any liability arising out
  30:Generated_Source\PSoC4/CapSense_Filter.c **** * of the application or use of any product or circuit described herein. Cypress
  31:Generated_Source\PSoC4/CapSense_Filter.c **** * does not authorize its products for use as critical components in life-support
  32:Generated_Source\PSoC4/CapSense_Filter.c **** * systems where a malfunction or failure may reasonably be expected to result in
ARM GAS  C:\Users\TB1014~1\AppData\Local\Temp\ccLivewv.s 			page 2


  33:Generated_Source\PSoC4/CapSense_Filter.c **** * significant injury to the user. The inclusion of Cypress' product in a life-
  34:Generated_Source\PSoC4/CapSense_Filter.c **** * support systems application implies that the manufacturer assumes all risk of
  35:Generated_Source\PSoC4/CapSense_Filter.c **** * such use and in doing so indemnifies Cypress against all charges. Use may be
  36:Generated_Source\PSoC4/CapSense_Filter.c **** * limited by and subject to the applicable Cypress software license agreement.
  37:Generated_Source\PSoC4/CapSense_Filter.c **** *******************************************************************************/
  38:Generated_Source\PSoC4/CapSense_Filter.c **** 
  39:Generated_Source\PSoC4/CapSense_Filter.c **** #include "CapSense_Filter.h"
  40:Generated_Source\PSoC4/CapSense_Filter.c **** #include "CapSense_Configuration.h"
  41:Generated_Source\PSoC4/CapSense_Filter.c **** 
  42:Generated_Source\PSoC4/CapSense_Filter.c **** #if (0 != (CapSense_CSD_AUTOTUNE & CapSense_CSD_SS_TH_EN))
  43:Generated_Source\PSoC4/CapSense_Filter.c ****     #include "CapSense_SmartSense_LL.h"
  44:Generated_Source\PSoC4/CapSense_Filter.c **** #endif /* (0 != (CapSense_CSD_AUTOTUNE & CapSense_CSD_SS_TH_EN)) */
  45:Generated_Source\PSoC4/CapSense_Filter.c **** 
  46:Generated_Source\PSoC4/CapSense_Filter.c **** #if (CapSense_ENABLE == CapSense_SELF_TEST_EN)
  47:Generated_Source\PSoC4/CapSense_Filter.c ****     #include "CapSense_SelfTest.h"
  48:Generated_Source\PSoC4/CapSense_Filter.c **** #endif
  49:Generated_Source\PSoC4/CapSense_Filter.c **** 
  50:Generated_Source\PSoC4/CapSense_Filter.c **** /*******************************************************************************
  51:Generated_Source\PSoC4/CapSense_Filter.c **** * Function Name: CapSense_FtInitialize
  52:Generated_Source\PSoC4/CapSense_Filter.c **** ****************************************************************************//**
  53:Generated_Source\PSoC4/CapSense_Filter.c **** *
  54:Generated_Source\PSoC4/CapSense_Filter.c **** * \brief
  55:Generated_Source\PSoC4/CapSense_Filter.c **** *    Initializes all the firmware filter history, except the baseline filter.
  56:Generated_Source\PSoC4/CapSense_Filter.c **** *
  57:Generated_Source\PSoC4/CapSense_Filter.c **** * \details
  58:Generated_Source\PSoC4/CapSense_Filter.c **** *    Initializes all the firmware filter history, except the baseline filter.
  59:Generated_Source\PSoC4/CapSense_Filter.c **** *
  60:Generated_Source\PSoC4/CapSense_Filter.c **** *******************************************************************************/
  61:Generated_Source\PSoC4/CapSense_Filter.c **** void CapSense_FtInitialize(void)
  62:Generated_Source\PSoC4/CapSense_Filter.c **** {
  63:Generated_Source\PSoC4/CapSense_Filter.c ****     uint32 widgetId;
  64:Generated_Source\PSoC4/CapSense_Filter.c ****     uint32 sensorId;
  65:Generated_Source\PSoC4/CapSense_Filter.c ****     uint32 sensorsNumber;
  66:Generated_Source\PSoC4/CapSense_Filter.c **** 
  67:Generated_Source\PSoC4/CapSense_Filter.c ****     CapSense_FLASH_WD_STRUCT const *ptrWidget;
  68:Generated_Source\PSoC4/CapSense_Filter.c ****     CapSense_RAM_SNS_STRUCT *ptrSensor = NULL;
  69:Generated_Source\PSoC4/CapSense_Filter.c ****     CapSense_PTR_FILTER_VARIANT ptrFilterHistObj;
  70:Generated_Source\PSoC4/CapSense_Filter.c ****     
  71:Generated_Source\PSoC4/CapSense_Filter.c ****     #if CapSense_CSD_AUTOTUNE & CapSense_CSD_SS_TH_EN
  72:Generated_Source\PSoC4/CapSense_Filter.c ****         CapSense_RAM_WD_BASE_STRUCT *ptrWidgetRam;
  73:Generated_Source\PSoC4/CapSense_Filter.c ****         SMARTSENSE_CSD_NOISE_ENVELOPE_STRUCT *ptrNoiseEnvelope = NULL;
  74:Generated_Source\PSoC4/CapSense_Filter.c ****     #endif /* #if CapSense_CSD_AUTOTUNE & CapSense_CSD_SS_TH_EN */
  75:Generated_Source\PSoC4/CapSense_Filter.c ****     
  76:Generated_Source\PSoC4/CapSense_Filter.c ****     for (widgetId = CapSense_TOTAL_WIDGETS; widgetId-- > 0u;)
  77:Generated_Source\PSoC4/CapSense_Filter.c ****     {
  78:Generated_Source\PSoC4/CapSense_Filter.c ****         ptrWidget = &CapSense_dsFlash.wdgtArray[widgetId];
  79:Generated_Source\PSoC4/CapSense_Filter.c ****         
  80:Generated_Source\PSoC4/CapSense_Filter.c ****         #if CapSense_CSD_AUTOTUNE & CapSense_CSD_SS_TH_EN
  81:Generated_Source\PSoC4/CapSense_Filter.c ****             ptrWidgetRam = ptrWidget->ptr2WdgtRam;
  82:Generated_Source\PSoC4/CapSense_Filter.c ****         #endif /* #if CapSense_CSD_AUTOTUNE & CapSense_CSD_SS_TH_EN */
  83:Generated_Source\PSoC4/CapSense_Filter.c **** 
  84:Generated_Source\PSoC4/CapSense_Filter.c ****         /* Find total amount of sensors in specified widget */   
  85:Generated_Source\PSoC4/CapSense_Filter.c ****         sensorsNumber = CapSense_GET_SNS_CNT_BY_PTR(ptrWidget);    
  86:Generated_Source\PSoC4/CapSense_Filter.c ****     
  87:Generated_Source\PSoC4/CapSense_Filter.c ****         for (sensorId = sensorsNumber; sensorId-- > 0u;) 
  88:Generated_Source\PSoC4/CapSense_Filter.c ****         {
  89:Generated_Source\PSoC4/CapSense_Filter.c ****             /* Find pointer to specified sensor object */
ARM GAS  C:\Users\TB1014~1\AppData\Local\Temp\ccLivewv.s 			page 3


  90:Generated_Source\PSoC4/CapSense_Filter.c ****             ptrSensor = ptrWidget->ptr2SnsRam;
  91:Generated_Source\PSoC4/CapSense_Filter.c ****             ptrSensor = &ptrSensor[sensorId];
  92:Generated_Source\PSoC4/CapSense_Filter.c ****                         
  93:Generated_Source\PSoC4/CapSense_Filter.c ****             /* Find pointer to to specified filter sensor object */
  94:Generated_Source\PSoC4/CapSense_Filter.c ****             ptrFilterHistObj.ptr = ptrWidget->ptr2FltrHistory;
  95:Generated_Source\PSoC4/CapSense_Filter.c **** 
  96:Generated_Source\PSoC4/CapSense_Filter.c ****             #if CapSense_CSD_AUTOTUNE & CapSense_CSD_SS_TH_EN
  97:Generated_Source\PSoC4/CapSense_Filter.c ****                 /* Find pointer to specified noise envelope sensor object */
  98:Generated_Source\PSoC4/CapSense_Filter.c ****                 ptrNoiseEnvelope = ptrWidget->ptr2NoiseEnvlp;
  99:Generated_Source\PSoC4/CapSense_Filter.c ****                 ptrNoiseEnvelope = &ptrNoiseEnvelope[sensorId];    
 100:Generated_Source\PSoC4/CapSense_Filter.c ****             #endif /* #if CapSense_CSD_AUTOTUNE & CapSense_CSD_SS_TH_EN */
 101:Generated_Source\PSoC4/CapSense_Filter.c ****             
 102:Generated_Source\PSoC4/CapSense_Filter.c ****             if ((CapSense_WD_TYPE_ENUM)ptrWidget->wdgtType != CapSense_WD_PROXIMITY_E)
 103:Generated_Source\PSoC4/CapSense_Filter.c ****             {
 104:Generated_Source\PSoC4/CapSense_Filter.c ****                 #if (CapSense_REGULAR_SENSOR_EN)             
 105:Generated_Source\PSoC4/CapSense_Filter.c ****                     ptrFilterHistObj.ptrRegular = &ptrFilterHistObj.ptrRegular[sensorId];
 106:Generated_Source\PSoC4/CapSense_Filter.c ****                 #endif /* (CapSense_REGULAR_SENSOR_EN) */
 107:Generated_Source\PSoC4/CapSense_Filter.c ****             }
 108:Generated_Source\PSoC4/CapSense_Filter.c ****             else
 109:Generated_Source\PSoC4/CapSense_Filter.c ****             {
 110:Generated_Source\PSoC4/CapSense_Filter.c ****                 #if (CapSense_PROXIMITY_SENSOR_EN)             
 111:Generated_Source\PSoC4/CapSense_Filter.c ****                     ptrFilterHistObj.ptrProx = &ptrFilterHistObj.ptrProx[sensorId];
 112:Generated_Source\PSoC4/CapSense_Filter.c ****                 #endif /* (CapSense_PROXIMITY_SENSOR_EN) */
 113:Generated_Source\PSoC4/CapSense_Filter.c ****             }
 114:Generated_Source\PSoC4/CapSense_Filter.c ****             
 115:Generated_Source\PSoC4/CapSense_Filter.c ****             #if (CapSense_REGULAR_RC_IIR_FILTER_EN || CapSense_PROX_RC_IIR_FILTER_EN)
 116:Generated_Source\PSoC4/CapSense_Filter.c ****                 CapSense_InitializeIIRInternal(ptrFilterHistObj, ptrSensor, (uint32)ptrWidget->wdgt
 117:Generated_Source\PSoC4/CapSense_Filter.c ****             #endif /* (CapSense_REGULAR_RC_IIR_FILTER_EN || CapSense_PROX_RC_IIR_FILTER_EN) */     
 118:Generated_Source\PSoC4/CapSense_Filter.c **** 
 119:Generated_Source\PSoC4/CapSense_Filter.c ****             #if (CapSense_REGULAR_RC_MEDIAN_FILTER_EN || CapSense_PROX_RC_MEDIAN_FILTER_EN)
 120:Generated_Source\PSoC4/CapSense_Filter.c ****                 CapSense_InitializeMedianInternal(ptrFilterHistObj, ptrSensor, (uint32)ptrWidget->w
 121:Generated_Source\PSoC4/CapSense_Filter.c ****             #endif /* (CapSense_REGULAR_RC_MEDIAN_FILTER_EN || CapSense_PROX_RC_MEDIAN_FILTER_EN) *
 122:Generated_Source\PSoC4/CapSense_Filter.c **** 
 123:Generated_Source\PSoC4/CapSense_Filter.c ****             #if (CapSense_REGULAR_RC_AVERAGE_FILTER_EN || CapSense_PROX_RC_AVERAGE_FILTER_EN)
 124:Generated_Source\PSoC4/CapSense_Filter.c ****                 CapSense_InitializeAverageInternal(ptrFilterHistObj, ptrSensor, (uint32)ptrWidget->
 125:Generated_Source\PSoC4/CapSense_Filter.c ****             #endif /* (CapSense_REGULAR_RC_AVERAGE_FILTER_EN || CapSense_PROX_RC_AVERAGE_FILTER_EN)
 126:Generated_Source\PSoC4/CapSense_Filter.c ****             
 127:Generated_Source\PSoC4/CapSense_Filter.c ****             #if (CapSense_CSD_AUTOTUNE & CapSense_CSD_SS_TH_EN)
 128:Generated_Source\PSoC4/CapSense_Filter.c ****                 if (CapSense_SENSE_METHOD_CSD_E ==
 129:Generated_Source\PSoC4/CapSense_Filter.c ****                     CapSense_GET_SENSE_METHOD(&CapSense_dsFlash.wdgtArray[widgetId]))
 130:Generated_Source\PSoC4/CapSense_Filter.c ****                 {
 131:Generated_Source\PSoC4/CapSense_Filter.c ****                     SmartSense_InitializeNoiseEnvelope(ptrSensor->raw[0u], ptrWidgetRam->sigPFC, pt
 132:Generated_Source\PSoC4/CapSense_Filter.c ****                 }
 133:Generated_Source\PSoC4/CapSense_Filter.c ****             #endif /* #if CapSense_CSD_AUTOTUNE & CapSense_CSD_SS_TH_EN */
 134:Generated_Source\PSoC4/CapSense_Filter.c ****         }
 135:Generated_Source\PSoC4/CapSense_Filter.c ****     }   
 136:Generated_Source\PSoC4/CapSense_Filter.c **** }
 137:Generated_Source\PSoC4/CapSense_Filter.c **** 
 138:Generated_Source\PSoC4/CapSense_Filter.c **** 
 139:Generated_Source\PSoC4/CapSense_Filter.c **** /*******************************************************************************
 140:Generated_Source\PSoC4/CapSense_Filter.c **** * Function Name: CapSense_UpdateAllBaselines
 141:Generated_Source\PSoC4/CapSense_Filter.c **** ****************************************************************************//**
 142:Generated_Source\PSoC4/CapSense_Filter.c **** *
 143:Generated_Source\PSoC4/CapSense_Filter.c **** * \brief    
 144:Generated_Source\PSoC4/CapSense_Filter.c **** *  Updates the baseline for all sensors in all widgets.
 145:Generated_Source\PSoC4/CapSense_Filter.c **** *
 146:Generated_Source\PSoC4/CapSense_Filter.c **** * \details
ARM GAS  C:\Users\TB1014~1\AppData\Local\Temp\ccLivewv.s 			page 4


 147:Generated_Source\PSoC4/CapSense_Filter.c **** *  Updates the baseline for all sensors in all widgets. Baseline updating is a 
 148:Generated_Source\PSoC4/CapSense_Filter.c **** *  part of data processing performed by the process functions. So, no need to 
 149:Generated_Source\PSoC4/CapSense_Filter.c **** *  call this function except a specific process flow is implemented.
 150:Generated_Source\PSoC4/CapSense_Filter.c **** *  
 151:Generated_Source\PSoC4/CapSense_Filter.c **** *  This function ignores the value of the wdgtEnable register. Multiple calling 
 152:Generated_Source\PSoC4/CapSense_Filter.c **** *  of this function (or any other function with a baseline updating task) 
 153:Generated_Source\PSoC4/CapSense_Filter.c **** *  without scanning leads to unexpected behavior.
 154:Generated_Source\PSoC4/CapSense_Filter.c **** *
 155:Generated_Source\PSoC4/CapSense_Filter.c **** *  If Self-test library is enabled this function executes baseline duplication
 156:Generated_Source\PSoC4/CapSense_Filter.c **** *  test. Refer to CapSense_CheckBaselineDuplication() for details.
 157:Generated_Source\PSoC4/CapSense_Filter.c **** *
 158:Generated_Source\PSoC4/CapSense_Filter.c **** * \return   
 159:Generated_Source\PSoC4/CapSense_Filter.c **** *  Returns the status of the update baseline operation of all widgets:
 160:Generated_Source\PSoC4/CapSense_Filter.c **** *  - CYRET_SUCCESS if operation was successfully completed
 161:Generated_Source\PSoC4/CapSense_Filter.c **** *  - CYRET_BAD_DATA if baseline processing failed
 162:Generated_Source\PSoC4/CapSense_Filter.c **** *
 163:Generated_Source\PSoC4/CapSense_Filter.c **** *******************************************************************************/
 164:Generated_Source\PSoC4/CapSense_Filter.c **** cystatus CapSense_UpdateAllBaselines(void)
 165:Generated_Source\PSoC4/CapSense_Filter.c **** {
 166:Generated_Source\PSoC4/CapSense_Filter.c ****     uint32 widgetId; 
 167:Generated_Source\PSoC4/CapSense_Filter.c ****     cystatus bslnStatus = CYRET_SUCCESS;
 168:Generated_Source\PSoC4/CapSense_Filter.c ****     
 169:Generated_Source\PSoC4/CapSense_Filter.c ****     for(widgetId = CapSense_TOTAL_WIDGETS; widgetId-- > 0u;)
 170:Generated_Source\PSoC4/CapSense_Filter.c ****     {            
 171:Generated_Source\PSoC4/CapSense_Filter.c ****         bslnStatus |= CapSense_UpdateWidgetBaseline(widgetId);       
 172:Generated_Source\PSoC4/CapSense_Filter.c ****     }      
 173:Generated_Source\PSoC4/CapSense_Filter.c ****     
 174:Generated_Source\PSoC4/CapSense_Filter.c ****     return(bslnStatus);
 175:Generated_Source\PSoC4/CapSense_Filter.c **** }
 176:Generated_Source\PSoC4/CapSense_Filter.c ****   
 177:Generated_Source\PSoC4/CapSense_Filter.c **** 
 178:Generated_Source\PSoC4/CapSense_Filter.c **** /*******************************************************************************
 179:Generated_Source\PSoC4/CapSense_Filter.c **** * Function Name: CapSense_UpdateWidgetBaseline
 180:Generated_Source\PSoC4/CapSense_Filter.c **** ****************************************************************************//**
 181:Generated_Source\PSoC4/CapSense_Filter.c **** *
 182:Generated_Source\PSoC4/CapSense_Filter.c **** * \brief    
 183:Generated_Source\PSoC4/CapSense_Filter.c **** *  Updates the baseline for all sensors in a widget specified by input parameter.
 184:Generated_Source\PSoC4/CapSense_Filter.c **** *
 185:Generated_Source\PSoC4/CapSense_Filter.c **** * \details  
 186:Generated_Source\PSoC4/CapSense_Filter.c **** *  This function performs exactly the same tasks as 
 187:Generated_Source\PSoC4/CapSense_Filter.c **** *  CapSense_UpdateAllBaselines(), but only for a specified widget.
 188:Generated_Source\PSoC4/CapSense_Filter.c **** *  
 189:Generated_Source\PSoC4/CapSense_Filter.c **** *  This function ignores the value of the wdgtEnable register. Multiple calling
 190:Generated_Source\PSoC4/CapSense_Filter.c **** *  of this function (or any other function with a baseline updating task) 
 191:Generated_Source\PSoC4/CapSense_Filter.c **** *  without scanning leads to unexpected behavior.
 192:Generated_Source\PSoC4/CapSense_Filter.c **** *
 193:Generated_Source\PSoC4/CapSense_Filter.c **** *  If Self-test library is enabled this function executes baseline duplication
 194:Generated_Source\PSoC4/CapSense_Filter.c **** *  test. Refer to CapSense_CheckBaselineDuplication() for details.
 195:Generated_Source\PSoC4/CapSense_Filter.c **** *
 196:Generated_Source\PSoC4/CapSense_Filter.c **** * \param widgetId 
 197:Generated_Source\PSoC4/CapSense_Filter.c **** *  Specify the ID number of the widget to update the baseline of all sensors
 198:Generated_Source\PSoC4/CapSense_Filter.c **** *  in the widget.
 199:Generated_Source\PSoC4/CapSense_Filter.c **** *  A macro for the widget ID can be found in the 
 200:Generated_Source\PSoC4/CapSense_Filter.c **** *  CapSense Configuration header file defined as 
 201:Generated_Source\PSoC4/CapSense_Filter.c **** *  CapSense_<WidgetName>_WDGT_ID.
 202:Generated_Source\PSoC4/CapSense_Filter.c **** *
 203:Generated_Source\PSoC4/CapSense_Filter.c **** * \return   
ARM GAS  C:\Users\TB1014~1\AppData\Local\Temp\ccLivewv.s 			page 5


 204:Generated_Source\PSoC4/CapSense_Filter.c **** *  Returns the status of the specified widget update baseline operation:
 205:Generated_Source\PSoC4/CapSense_Filter.c **** *  - CYRET_SUCCESS if operation was successfully completed
 206:Generated_Source\PSoC4/CapSense_Filter.c **** *  - CYRET_BAD_DATA if baseline processing failed
 207:Generated_Source\PSoC4/CapSense_Filter.c **** *
 208:Generated_Source\PSoC4/CapSense_Filter.c **** *******************************************************************************/
 209:Generated_Source\PSoC4/CapSense_Filter.c **** cystatus CapSense_UpdateWidgetBaseline(uint32 widgetId)
 210:Generated_Source\PSoC4/CapSense_Filter.c **** {
 211:Generated_Source\PSoC4/CapSense_Filter.c ****     uint32 sensorId;       
 212:Generated_Source\PSoC4/CapSense_Filter.c ****     uint32 sensorsNumber;  
 213:Generated_Source\PSoC4/CapSense_Filter.c **** 
 214:Generated_Source\PSoC4/CapSense_Filter.c ****     CapSense_FLASH_WD_STRUCT const *ptrWidget = &CapSense_dsFlash.wdgtArray[widgetId];    
 215:Generated_Source\PSoC4/CapSense_Filter.c ****     cystatus bslnStatus = CYRET_SUCCESS;    
 216:Generated_Source\PSoC4/CapSense_Filter.c ****     
 217:Generated_Source\PSoC4/CapSense_Filter.c ****     /* Find total amount of sensors in specified widget */   
 218:Generated_Source\PSoC4/CapSense_Filter.c ****     sensorsNumber = CapSense_GET_SNS_CNT_BY_PTR(ptrWidget);    
 219:Generated_Source\PSoC4/CapSense_Filter.c ****     
 220:Generated_Source\PSoC4/CapSense_Filter.c ****     for(sensorId = sensorsNumber; sensorId-- > 0u;)
 221:Generated_Source\PSoC4/CapSense_Filter.c ****     {
 222:Generated_Source\PSoC4/CapSense_Filter.c ****         bslnStatus |= CapSense_UpdateSensorBaseline(widgetId, sensorId);    
 223:Generated_Source\PSoC4/CapSense_Filter.c ****     }
 224:Generated_Source\PSoC4/CapSense_Filter.c **** 
 225:Generated_Source\PSoC4/CapSense_Filter.c ****     return(bslnStatus);
 226:Generated_Source\PSoC4/CapSense_Filter.c **** }
 227:Generated_Source\PSoC4/CapSense_Filter.c **** 
 228:Generated_Source\PSoC4/CapSense_Filter.c **** 
 229:Generated_Source\PSoC4/CapSense_Filter.c **** /*******************************************************************************
 230:Generated_Source\PSoC4/CapSense_Filter.c **** * Function Name: CapSense_UpdateSensorBaseline
 231:Generated_Source\PSoC4/CapSense_Filter.c **** ****************************************************************************//**
 232:Generated_Source\PSoC4/CapSense_Filter.c **** *
 233:Generated_Source\PSoC4/CapSense_Filter.c **** * \brief    
 234:Generated_Source\PSoC4/CapSense_Filter.c **** *  Updates the baseline for a sensor in a widget specified by input parameters.
 235:Generated_Source\PSoC4/CapSense_Filter.c **** *
 236:Generated_Source\PSoC4/CapSense_Filter.c **** * \details  
 237:Generated_Source\PSoC4/CapSense_Filter.c **** *  This function performs exactly the same tasks as
 238:Generated_Source\PSoC4/CapSense_Filter.c **** *  CapSense_UpdateAllBaselines() and 
 239:Generated_Source\PSoC4/CapSense_Filter.c **** *  CapSense_UpdateWidgetBaseline() but only for a specified sensor.
 240:Generated_Source\PSoC4/CapSense_Filter.c **** *  
 241:Generated_Source\PSoC4/CapSense_Filter.c **** *  This function ignores the value of the wdgtEnable register. Multiple calling 
 242:Generated_Source\PSoC4/CapSense_Filter.c **** *  of this function (or any other function with a baseline updating task) 
 243:Generated_Source\PSoC4/CapSense_Filter.c **** *  without scanning leads to unexpected behavior.
 244:Generated_Source\PSoC4/CapSense_Filter.c **** *
 245:Generated_Source\PSoC4/CapSense_Filter.c **** *  If Self-test library is enabled this function executes baseline duplication
 246:Generated_Source\PSoC4/CapSense_Filter.c **** *  test. Refer to CapSense_CheckBaselineDuplication() for details.
 247:Generated_Source\PSoC4/CapSense_Filter.c **** *
 248:Generated_Source\PSoC4/CapSense_Filter.c **** * \param   widgetId 
 249:Generated_Source\PSoC4/CapSense_Filter.c **** *  Specify the ID number of the widget to update the baseline of the sensor 
 250:Generated_Source\PSoC4/CapSense_Filter.c **** *  specified by the sensorId argument.
 251:Generated_Source\PSoC4/CapSense_Filter.c **** *  A macro for the widget ID can be found in the CapSense Configuration header 
 252:Generated_Source\PSoC4/CapSense_Filter.c **** *  file defined as CapSense_<WidgetName>_WDGT_ID. 
 253:Generated_Source\PSoC4/CapSense_Filter.c **** *
 254:Generated_Source\PSoC4/CapSense_Filter.c **** * \param   sensorId 
 255:Generated_Source\PSoC4/CapSense_Filter.c **** *  Specify the ID number of the sensor within the widget to update its baseline.
 256:Generated_Source\PSoC4/CapSense_Filter.c **** *  A macro for the sensor ID within a specified widget can be found in the 
 257:Generated_Source\PSoC4/CapSense_Filter.c **** *  CapSense Configuration header file defined as 
 258:Generated_Source\PSoC4/CapSense_Filter.c **** *  CapSense_<WidgetName>_SNS<SensorNumber>_ID
 259:Generated_Source\PSoC4/CapSense_Filter.c **** *
 260:Generated_Source\PSoC4/CapSense_Filter.c **** * \return   
ARM GAS  C:\Users\TB1014~1\AppData\Local\Temp\ccLivewv.s 			page 6


 261:Generated_Source\PSoC4/CapSense_Filter.c **** *  Returns the status of the specified sensor update baseline operation:
 262:Generated_Source\PSoC4/CapSense_Filter.c **** *  - CYRET_SUCCESS if operation was successfully completed
 263:Generated_Source\PSoC4/CapSense_Filter.c **** *  - CYRET_BAD_DATA if baseline processing failed
 264:Generated_Source\PSoC4/CapSense_Filter.c **** *
 265:Generated_Source\PSoC4/CapSense_Filter.c **** *******************************************************************************/
 266:Generated_Source\PSoC4/CapSense_Filter.c **** cystatus CapSense_UpdateSensorBaseline(uint32 widgetId, uint32 sensorId)
 267:Generated_Source\PSoC4/CapSense_Filter.c **** {    
 268:Generated_Source\PSoC4/CapSense_Filter.c ****     uint32 result = CYRET_SUCCESS;
 269:Generated_Source\PSoC4/CapSense_Filter.c ****     
 270:Generated_Source\PSoC4/CapSense_Filter.c ****     CapSense_RAM_SNS_STRUCT *ptrSensor = NULL;    
 271:Generated_Source\PSoC4/CapSense_Filter.c ****     CapSense_FLASH_WD_STRUCT const *ptrWidget = &CapSense_dsFlash.wdgtArray[widgetId];    
 272:Generated_Source\PSoC4/CapSense_Filter.c ****     CapSense_RAM_WD_BASE_STRUCT *ptrWidgetRam = ptrWidget->ptr2WdgtRam;   
 273:Generated_Source\PSoC4/CapSense_Filter.c **** 
 274:Generated_Source\PSoC4/CapSense_Filter.c ****     /* Find pointer to specified sensor object */     
 275:Generated_Source\PSoC4/CapSense_Filter.c ****     ptrSensor = ptrWidget->ptr2SnsRam;
 276:Generated_Source\PSoC4/CapSense_Filter.c ****     ptrSensor = &ptrSensor[sensorId];
 277:Generated_Source\PSoC4/CapSense_Filter.c ****     result = CapSense_FtUpdateBaseline(ptrWidgetRam, ptrSensor, (uint32)ptrWidget->wdgtType);
 278:Generated_Source\PSoC4/CapSense_Filter.c ****     
 279:Generated_Source\PSoC4/CapSense_Filter.c ****     #if (CapSense_ENABLE == CapSense_TST_BSLN_DUPLICATION_EN)
 280:Generated_Source\PSoC4/CapSense_Filter.c ****         if (CYRET_SUCCESS != result)
 281:Generated_Source\PSoC4/CapSense_Filter.c ****         {
 282:Generated_Source\PSoC4/CapSense_Filter.c ****             result = CYRET_BAD_DATA;
 283:Generated_Source\PSoC4/CapSense_Filter.c ****             CapSense_UpdateTestResultBaselineDuplication(widgetId, sensorId);           
 284:Generated_Source\PSoC4/CapSense_Filter.c ****         }
 285:Generated_Source\PSoC4/CapSense_Filter.c ****     #endif /* (CapSense_ENABLE == CapSense_TST_BSLN_DUPLICATION_EN) */
 286:Generated_Source\PSoC4/CapSense_Filter.c **** 
 287:Generated_Source\PSoC4/CapSense_Filter.c ****     return result;
 288:Generated_Source\PSoC4/CapSense_Filter.c **** }
 289:Generated_Source\PSoC4/CapSense_Filter.c **** 
 290:Generated_Source\PSoC4/CapSense_Filter.c **** /*******************************************************************************
 291:Generated_Source\PSoC4/CapSense_Filter.c **** * Function Name: CapSense_FtUpdateBaseline
 292:Generated_Source\PSoC4/CapSense_Filter.c **** ****************************************************************************//**
 293:Generated_Source\PSoC4/CapSense_Filter.c **** *
 294:Generated_Source\PSoC4/CapSense_Filter.c **** * \brief
 295:Generated_Source\PSoC4/CapSense_Filter.c **** *  Updates the baseline for a sensor specified by an input parameter.
 296:Generated_Source\PSoC4/CapSense_Filter.c **** *
 297:Generated_Source\PSoC4/CapSense_Filter.c **** * \details
 298:Generated_Source\PSoC4/CapSense_Filter.c **** *  Check a matching of present baseline and its inverse duplication. If they 
 299:Generated_Source\PSoC4/CapSense_Filter.c **** *  match then updates the baseline for a sensor specified by an input parameter.  
 300:Generated_Source\PSoC4/CapSense_Filter.c **** *  If don't match the function return CapSense_TST_BSLN_DUPLICATION
 301:Generated_Source\PSoC4/CapSense_Filter.c **** *  result and don't update baseline.
 302:Generated_Source\PSoC4/CapSense_Filter.c **** *
 303:Generated_Source\PSoC4/CapSense_Filter.c **** * \param    ptrWidgetRam
 304:Generated_Source\PSoC4/CapSense_Filter.c **** *  The pointer to the widget RAM structure where all the widget parameters
 305:Generated_Source\PSoC4/CapSense_Filter.c **** *  are stored.
 306:Generated_Source\PSoC4/CapSense_Filter.c **** *
 307:Generated_Source\PSoC4/CapSense_Filter.c **** * \param    ptrSensor
 308:Generated_Source\PSoC4/CapSense_Filter.c **** *  The pointer to the sensor RAM structure where all the sensor parameters
 309:Generated_Source\PSoC4/CapSense_Filter.c **** *  are stored.
 310:Generated_Source\PSoC4/CapSense_Filter.c **** *
 311:Generated_Source\PSoC4/CapSense_Filter.c **** * \param    wdType
 312:Generated_Source\PSoC4/CapSense_Filter.c **** *  Specifies the type of a widget.
 313:Generated_Source\PSoC4/CapSense_Filter.c **** *
 314:Generated_Source\PSoC4/CapSense_Filter.c **** * \return   
 315:Generated_Source\PSoC4/CapSense_Filter.c **** *  Returns a status indicating whether the baseline has been updated:
 316:Generated_Source\PSoC4/CapSense_Filter.c **** *  - CYRET_SUCCESS if baseline updating was successful;
 317:Generated_Source\PSoC4/CapSense_Filter.c **** *  - CapSense_PROCESS_BASELINE_FAILED if present sensor's any channel
ARM GAS  C:\Users\TB1014~1\AppData\Local\Temp\ccLivewv.s 			page 7


 318:Generated_Source\PSoC4/CapSense_Filter.c **** *    baseline and its inversion doesn't matched
 319:Generated_Source\PSoC4/CapSense_Filter.c **** *
 320:Generated_Source\PSoC4/CapSense_Filter.c **** *******************************************************************************/
 321:Generated_Source\PSoC4/CapSense_Filter.c **** uint32 CapSense_FtUpdateBaseline(
 322:Generated_Source\PSoC4/CapSense_Filter.c ****                                 CapSense_RAM_WD_BASE_STRUCT *ptrWidgetRam,
 323:Generated_Source\PSoC4/CapSense_Filter.c ****                                 CapSense_RAM_SNS_STRUCT *ptrSensor, 
 324:Generated_Source\PSoC4/CapSense_Filter.c ****                                 uint32 wdType)
 325:Generated_Source\PSoC4/CapSense_Filter.c **** {         
 326:Generated_Source\PSoC4/CapSense_Filter.c ****     uint32 sign;
 327:Generated_Source\PSoC4/CapSense_Filter.c ****     uint32 difference;        
 328:Generated_Source\PSoC4/CapSense_Filter.c ****     uint32 channel;
 329:Generated_Source\PSoC4/CapSense_Filter.c ****     uint32 result = CYRET_SUCCESS;
 330:Generated_Source\PSoC4/CapSense_Filter.c ****     
 331:Generated_Source\PSoC4/CapSense_Filter.c ****     #if (CapSense_TOTAL_WIDGETS)  
 332:Generated_Source\PSoC4/CapSense_Filter.c ****         uint32 history;
 333:Generated_Source\PSoC4/CapSense_Filter.c ****     #endif /* (CapSense_TOTAL_WIDGETS) */    
 334:Generated_Source\PSoC4/CapSense_Filter.c ****     
 335:Generated_Source\PSoC4/CapSense_Filter.c ****     /* Apply baseline to every channel in sensor */
 336:Generated_Source\PSoC4/CapSense_Filter.c ****     for(channel = CapSense_NUM_SCAN_FREQS; channel-- > 0u;) 
 337:Generated_Source\PSoC4/CapSense_Filter.c ****     {               
 338:Generated_Source\PSoC4/CapSense_Filter.c ****         #if (CapSense_ENABLE == CapSense_TST_BSLN_DUPLICATION_EN)
 339:Generated_Source\PSoC4/CapSense_Filter.c ****             if (ptrSensor->bslnInv[channel] != ((uint16) ~(ptrSensor->bsln[channel])))
 340:Generated_Source\PSoC4/CapSense_Filter.c ****             {
 341:Generated_Source\PSoC4/CapSense_Filter.c ****                 result = CapSense_PROCESS_BASELINE_FAILED;
 342:Generated_Source\PSoC4/CapSense_Filter.c ****             }
 343:Generated_Source\PSoC4/CapSense_Filter.c ****             else
 344:Generated_Source\PSoC4/CapSense_Filter.c ****             {
 345:Generated_Source\PSoC4/CapSense_Filter.c ****         #endif /* (CapSense_ENABLE == CapSense_TST_BSLN_DUPLICATION_EN) */
 346:Generated_Source\PSoC4/CapSense_Filter.c **** 
 347:Generated_Source\PSoC4/CapSense_Filter.c ****         /* Calculate signal value and its sign */
 348:Generated_Source\PSoC4/CapSense_Filter.c ****         if(ptrSensor->raw[channel] >= ptrSensor->bsln[channel])
 349:Generated_Source\PSoC4/CapSense_Filter.c ****         {
 350:Generated_Source\PSoC4/CapSense_Filter.c ****             difference = (uint32)ptrSensor->raw[channel] - (uint32)ptrSensor->bsln[channel];
 351:Generated_Source\PSoC4/CapSense_Filter.c ****             sign = 1u;
 352:Generated_Source\PSoC4/CapSense_Filter.c ****             ptrSensor->negBslnRstCnt[channel] = 0u;
 353:Generated_Source\PSoC4/CapSense_Filter.c ****         }
 354:Generated_Source\PSoC4/CapSense_Filter.c ****         else
 355:Generated_Source\PSoC4/CapSense_Filter.c ****         {
 356:Generated_Source\PSoC4/CapSense_Filter.c ****             difference = (uint32)ptrSensor->bsln[channel] - (uint32)ptrSensor->raw[channel];
 357:Generated_Source\PSoC4/CapSense_Filter.c ****             sign = 0u;
 358:Generated_Source\PSoC4/CapSense_Filter.c ****         }     
 359:Generated_Source\PSoC4/CapSense_Filter.c ****         
 360:Generated_Source\PSoC4/CapSense_Filter.c ****         /* Reset baseline if condition is met */ 
 361:Generated_Source\PSoC4/CapSense_Filter.c ****         if((sign == 0u) && (difference > (uint32) ptrWidgetRam->nNoiseTh))
 362:Generated_Source\PSoC4/CapSense_Filter.c ****         {
 363:Generated_Source\PSoC4/CapSense_Filter.c ****             if(ptrSensor->negBslnRstCnt[channel] >= ptrWidgetRam->lowBslnRst)
 364:Generated_Source\PSoC4/CapSense_Filter.c ****             {                
 365:Generated_Source\PSoC4/CapSense_Filter.c ****                 CapSense_FtInitializeBaselineChannel(ptrSensor, wdType, channel);             
 366:Generated_Source\PSoC4/CapSense_Filter.c ****             }
 367:Generated_Source\PSoC4/CapSense_Filter.c ****             else
 368:Generated_Source\PSoC4/CapSense_Filter.c ****             {
 369:Generated_Source\PSoC4/CapSense_Filter.c ****                 ptrSensor->negBslnRstCnt[channel]++;
 370:Generated_Source\PSoC4/CapSense_Filter.c ****             }
 371:Generated_Source\PSoC4/CapSense_Filter.c ****         }
 372:Generated_Source\PSoC4/CapSense_Filter.c ****         else
 373:Generated_Source\PSoC4/CapSense_Filter.c ****         {
 374:Generated_Source\PSoC4/CapSense_Filter.c ****             #if (!CapSense_SENSOR_AUTO_RESET_EN)
ARM GAS  C:\Users\TB1014~1\AppData\Local\Temp\ccLivewv.s 			page 8


 375:Generated_Source\PSoC4/CapSense_Filter.c ****                 /* Update baseline only if signal is in range between noiseThreshold and negativeno
 376:Generated_Source\PSoC4/CapSense_Filter.c ****                 if ((difference <= (uint32)ptrWidgetRam->noiseTh) ||
 377:Generated_Source\PSoC4/CapSense_Filter.c ****                     ((difference < (uint32) ptrWidgetRam->nNoiseTh) && (sign == 0u)))
 378:Generated_Source\PSoC4/CapSense_Filter.c ****                 {
 379:Generated_Source\PSoC4/CapSense_Filter.c ****             #endif /* (CapSense_CSD_AUTO_RESET == CapSense_CSD_AUTO_RESET_DISABLE) */
 380:Generated_Source\PSoC4/CapSense_Filter.c ****             
 381:Generated_Source\PSoC4/CapSense_Filter.c ****             #if (CapSense_BASELINE_TYPE == CapSense_IIR_BASELINE)  
 382:Generated_Source\PSoC4/CapSense_Filter.c ****                 /* Calculate baseline value */
 383:Generated_Source\PSoC4/CapSense_Filter.c ****                 if ((CapSense_WD_TYPE_ENUM)wdType != CapSense_WD_PROXIMITY_E)
 384:Generated_Source\PSoC4/CapSense_Filter.c ****                 {
 385:Generated_Source\PSoC4/CapSense_Filter.c ****                     #if (CapSense_REGULAR_SENSOR_EN) 
 386:Generated_Source\PSoC4/CapSense_Filter.c ****                         #if (CapSense_REGULAR_IIR_BL_TYPE == CapSense_IIR_FILTER_PERFORMANCE)      
 387:Generated_Source\PSoC4/CapSense_Filter.c ****                             history = (uint32) ptrSensor->bsln[channel] << 8u; 
 388:Generated_Source\PSoC4/CapSense_Filter.c ****                             history |= ptrSensor->bslnExt[channel];
 389:Generated_Source\PSoC4/CapSense_Filter.c ****                         #else
 390:Generated_Source\PSoC4/CapSense_Filter.c ****                             history = ptrSensor->bsln[channel];                                    
 391:Generated_Source\PSoC4/CapSense_Filter.c ****                         #endif /* (CapSense_REGULAR_IIR_BL_TYPE == CapSense_IIR_FILTER_PERFORMANCE)
 392:Generated_Source\PSoC4/CapSense_Filter.c ****                     
 393:Generated_Source\PSoC4/CapSense_Filter.c ****                         history =  CapSense_FtIIR1stOrder(
 394:Generated_Source\PSoC4/CapSense_Filter.c ****                                         (uint32)ptrSensor->raw[channel],
 395:Generated_Source\PSoC4/CapSense_Filter.c ****                                         history, 
 396:Generated_Source\PSoC4/CapSense_Filter.c ****                                         CapSense_REGULAR_IIR_BL_N, 
 397:Generated_Source\PSoC4/CapSense_Filter.c ****                                         CapSense_REGULAR_IIR_BL_SHIFT);
 398:Generated_Source\PSoC4/CapSense_Filter.c ****                                                    
 399:Generated_Source\PSoC4/CapSense_Filter.c ****                         #if (CapSense_REGULAR_IIR_BL_TYPE == CapSense_IIR_FILTER_PERFORMANCE)      
 400:Generated_Source\PSoC4/CapSense_Filter.c ****                             ptrSensor->bsln[channel] = LO16(history >> 8u);
 401:Generated_Source\PSoC4/CapSense_Filter.c ****                             ptrSensor->bslnExt[channel] = LO8(history);
 402:Generated_Source\PSoC4/CapSense_Filter.c ****                         #else
 403:Generated_Source\PSoC4/CapSense_Filter.c ****                             ptrSensor->bsln[channel] = LO16(history);
 404:Generated_Source\PSoC4/CapSense_Filter.c ****                         #endif /* (CapSense_REGULAR_IIR_BL_TYPE == CapSense_IIR_FILTER_PERFORMANCE)
 405:Generated_Source\PSoC4/CapSense_Filter.c ****                     #endif /* (CapSense_REGULAR_SENSOR_EN) */
 406:Generated_Source\PSoC4/CapSense_Filter.c ****                 }
 407:Generated_Source\PSoC4/CapSense_Filter.c ****                 else 
 408:Generated_Source\PSoC4/CapSense_Filter.c ****                 {
 409:Generated_Source\PSoC4/CapSense_Filter.c ****                     #if (CapSense_PROXIMITY_SENSOR_EN)     
 410:Generated_Source\PSoC4/CapSense_Filter.c ****                         #if (CapSense_PROX_IIR_BL_TYPE == CapSense_IIR_FILTER_PERFORMANCE)         
 411:Generated_Source\PSoC4/CapSense_Filter.c ****                             history = (uint32) ptrSensor->bsln[channel] << 8u; 
 412:Generated_Source\PSoC4/CapSense_Filter.c ****                             history |= ptrSensor->bslnExt[channel];
 413:Generated_Source\PSoC4/CapSense_Filter.c ****                         #else
 414:Generated_Source\PSoC4/CapSense_Filter.c ****                             history = (uint32) ptrSensor->bsln[channel];                           
 415:Generated_Source\PSoC4/CapSense_Filter.c ****                         #endif /* (CapSense_PROX_IIR_BL_TYPE == CapSense_IIR_FILTER_PERFORMANCE) */
 416:Generated_Source\PSoC4/CapSense_Filter.c ****                         
 417:Generated_Source\PSoC4/CapSense_Filter.c ****                         history = CapSense_FtIIR1stOrder((uint32)ptrSensor->raw[channel], history, 
 418:Generated_Source\PSoC4/CapSense_Filter.c ****                         
 419:Generated_Source\PSoC4/CapSense_Filter.c ****                         #if (CapSense_PROX_IIR_BL_TYPE == CapSense_IIR_FILTER_PERFORMANCE)         
 420:Generated_Source\PSoC4/CapSense_Filter.c ****                             ptrSensor->bsln[channel] = LO16(history >> 8u);
 421:Generated_Source\PSoC4/CapSense_Filter.c ****                             ptrSensor->bslnExt[channel] = LO8(history);
 422:Generated_Source\PSoC4/CapSense_Filter.c ****                         #else
 423:Generated_Source\PSoC4/CapSense_Filter.c ****                             ptrSensor->bsln[channel] = LO16(history);
 424:Generated_Source\PSoC4/CapSense_Filter.c ****                         #endif /* (CapSense_PROX_IIR_BL_TYPE == CapSense_IIR_FILTER_PERFORMANCE) */
 425:Generated_Source\PSoC4/CapSense_Filter.c ****                     #endif /* (CapSense_PROX_SENSOR_EN)   */
 426:Generated_Source\PSoC4/CapSense_Filter.c ****                 }
 427:Generated_Source\PSoC4/CapSense_Filter.c ****             #else /* (CapSense_CSD_BASELINE_TYPE == CapSense_IIR_BASELINE)  */
 428:Generated_Source\PSoC4/CapSense_Filter.c ****                 
 429:Generated_Source\PSoC4/CapSense_Filter.c ****                 /******************************************************************
 430:Generated_Source\PSoC4/CapSense_Filter.c ****                 * This is the place where the bucket algorithm should be implemented.
 431:Generated_Source\PSoC4/CapSense_Filter.c ****                 * The bucket method will be implemented in future component version.
ARM GAS  C:\Users\TB1014~1\AppData\Local\Temp\ccLivewv.s 			page 9


 432:Generated_Source\PSoC4/CapSense_Filter.c ****                 *******************************************************************/
 433:Generated_Source\PSoC4/CapSense_Filter.c ****                 
 434:Generated_Source\PSoC4/CapSense_Filter.c ****             #endif /* (CapSense_CSD_BASELINE_TYPE == CapSense_IIR_BASELINE)  */
 435:Generated_Source\PSoC4/CapSense_Filter.c ****                     
 436:Generated_Source\PSoC4/CapSense_Filter.c ****             #if (!CapSense_SENSOR_AUTO_RESET_EN)
 437:Generated_Source\PSoC4/CapSense_Filter.c ****                 }
 438:Generated_Source\PSoC4/CapSense_Filter.c ****             #endif /* (!CapSense_SENSOR_AUTO_RESET_EN) */
 439:Generated_Source\PSoC4/CapSense_Filter.c ****         }
 440:Generated_Source\PSoC4/CapSense_Filter.c ****                 
 441:Generated_Source\PSoC4/CapSense_Filter.c ****         #if (CapSense_ENABLE == CapSense_TST_BSLN_DUPLICATION_EN)
 442:Generated_Source\PSoC4/CapSense_Filter.c ****             /* Update baseline inversion of every channel in sensor */    
 443:Generated_Source\PSoC4/CapSense_Filter.c ****             ptrSensor->bslnInv[channel] = ~(ptrSensor->bsln[channel]);
 444:Generated_Source\PSoC4/CapSense_Filter.c ****             }
 445:Generated_Source\PSoC4/CapSense_Filter.c ****         #endif /* (CapSense_ENABLE == CapSense_TST_BSLN_DUPLICATION_EN) */
 446:Generated_Source\PSoC4/CapSense_Filter.c **** 
 447:Generated_Source\PSoC4/CapSense_Filter.c ****     }
 448:Generated_Source\PSoC4/CapSense_Filter.c ****     return result;    
 449:Generated_Source\PSoC4/CapSense_Filter.c **** }
 450:Generated_Source\PSoC4/CapSense_Filter.c **** 
 451:Generated_Source\PSoC4/CapSense_Filter.c **** 
 452:Generated_Source\PSoC4/CapSense_Filter.c **** /*******************************************************************************
 453:Generated_Source\PSoC4/CapSense_Filter.c **** * Function Name: CapSense_InitializeAllBaselines
 454:Generated_Source\PSoC4/CapSense_Filter.c **** ****************************************************************************//**
 455:Generated_Source\PSoC4/CapSense_Filter.c **** *
 456:Generated_Source\PSoC4/CapSense_Filter.c **** * \brief    
 457:Generated_Source\PSoC4/CapSense_Filter.c **** *  Initializes (or re-initialize) the baseline of all sensors of all widgets.
 458:Generated_Source\PSoC4/CapSense_Filter.c **** *
 459:Generated_Source\PSoC4/CapSense_Filter.c **** * \details  
 460:Generated_Source\PSoC4/CapSense_Filter.c **** *  Initializes the baseline for all sensors of all widgets. Also, this function
 461:Generated_Source\PSoC4/CapSense_Filter.c **** *  can be used to re-initialize baselines. CapSense_Start() calls this 
 462:Generated_Source\PSoC4/CapSense_Filter.c **** *  API as part of CapSense operation initialization.
 463:Generated_Source\PSoC4/CapSense_Filter.c **** *
 464:Generated_Source\PSoC4/CapSense_Filter.c **** *******************************************************************************/
 465:Generated_Source\PSoC4/CapSense_Filter.c **** void CapSense_InitializeAllBaselines(void)
 466:Generated_Source\PSoC4/CapSense_Filter.c **** {
 467:Generated_Source\PSoC4/CapSense_Filter.c ****     uint32 widgetId;    
 468:Generated_Source\PSoC4/CapSense_Filter.c ****     
 469:Generated_Source\PSoC4/CapSense_Filter.c ****     for(widgetId = CapSense_TOTAL_WIDGETS; widgetId-- > 0u;)
 470:Generated_Source\PSoC4/CapSense_Filter.c ****     {
 471:Generated_Source\PSoC4/CapSense_Filter.c ****         CapSense_InitializeWidgetBaseline(widgetId); 
 472:Generated_Source\PSoC4/CapSense_Filter.c ****     }
 473:Generated_Source\PSoC4/CapSense_Filter.c **** }
 474:Generated_Source\PSoC4/CapSense_Filter.c **** 
 475:Generated_Source\PSoC4/CapSense_Filter.c **** 
 476:Generated_Source\PSoC4/CapSense_Filter.c **** /*******************************************************************************
 477:Generated_Source\PSoC4/CapSense_Filter.c **** * Function Name: CapSense_InitializeWidgetBaseline
 478:Generated_Source\PSoC4/CapSense_Filter.c **** ****************************************************************************//**
 479:Generated_Source\PSoC4/CapSense_Filter.c **** *
 480:Generated_Source\PSoC4/CapSense_Filter.c **** * \brief    
 481:Generated_Source\PSoC4/CapSense_Filter.c **** *  Initializes (or re-initialize) the baseline of all sensors in a widget 
 482:Generated_Source\PSoC4/CapSense_Filter.c **** *  specified by input parameter. 
 483:Generated_Source\PSoC4/CapSense_Filter.c **** *
 484:Generated_Source\PSoC4/CapSense_Filter.c **** * \details  
 485:Generated_Source\PSoC4/CapSense_Filter.c **** *  Initializes (or re-initializes) the baseline for all sensors of the 
 486:Generated_Source\PSoC4/CapSense_Filter.c **** *  specified widget.
 487:Generated_Source\PSoC4/CapSense_Filter.c **** *
 488:Generated_Source\PSoC4/CapSense_Filter.c **** * \param  widgetId 
ARM GAS  C:\Users\TB1014~1\AppData\Local\Temp\ccLivewv.s 			page 10


 489:Generated_Source\PSoC4/CapSense_Filter.c **** *  Specify the ID number of a widget to initialize the baseline of all sensors
 490:Generated_Source\PSoC4/CapSense_Filter.c **** *  in the widget. 
 491:Generated_Source\PSoC4/CapSense_Filter.c **** *  A macro for the widget ID can be found in the 
 492:Generated_Source\PSoC4/CapSense_Filter.c **** *  CapSense Configuration header file defined as 
 493:Generated_Source\PSoC4/CapSense_Filter.c **** *  CapSense_<WidgetName>_WDGT_ID.
 494:Generated_Source\PSoC4/CapSense_Filter.c **** *
 495:Generated_Source\PSoC4/CapSense_Filter.c **** *******************************************************************************/
 496:Generated_Source\PSoC4/CapSense_Filter.c **** void CapSense_InitializeWidgetBaseline(uint32 widgetId)
 497:Generated_Source\PSoC4/CapSense_Filter.c **** {   
 498:Generated_Source\PSoC4/CapSense_Filter.c ****     uint32 sensorId;
 499:Generated_Source\PSoC4/CapSense_Filter.c ****     uint32 sensorsNumber;
 500:Generated_Source\PSoC4/CapSense_Filter.c ****   
 501:Generated_Source\PSoC4/CapSense_Filter.c ****     CapSense_FLASH_WD_STRUCT const *ptrWidget = &CapSense_dsFlash.wdgtArray[widgetId];
 502:Generated_Source\PSoC4/CapSense_Filter.c **** 
 503:Generated_Source\PSoC4/CapSense_Filter.c ****     /* Find total amount of sensors in specified widget */   
 504:Generated_Source\PSoC4/CapSense_Filter.c ****     sensorsNumber = CapSense_GET_SNS_CNT_BY_PTR(ptrWidget);    
 505:Generated_Source\PSoC4/CapSense_Filter.c ****     
 506:Generated_Source\PSoC4/CapSense_Filter.c ****     for(sensorId = sensorsNumber; sensorId-- > 0u;)
 507:Generated_Source\PSoC4/CapSense_Filter.c ****     {
 508:Generated_Source\PSoC4/CapSense_Filter.c ****         CapSense_InitializeSensorBaseline(widgetId, sensorId);   
 509:Generated_Source\PSoC4/CapSense_Filter.c ****     }
 510:Generated_Source\PSoC4/CapSense_Filter.c **** }
 511:Generated_Source\PSoC4/CapSense_Filter.c **** 
 512:Generated_Source\PSoC4/CapSense_Filter.c **** 
 513:Generated_Source\PSoC4/CapSense_Filter.c **** /*******************************************************************************
 514:Generated_Source\PSoC4/CapSense_Filter.c **** * Function Name: CapSense_InitializeSensorBaseline
 515:Generated_Source\PSoC4/CapSense_Filter.c **** ****************************************************************************//**
 516:Generated_Source\PSoC4/CapSense_Filter.c **** *
 517:Generated_Source\PSoC4/CapSense_Filter.c **** * \brief
 518:Generated_Source\PSoC4/CapSense_Filter.c **** *  Initializes (or re-initialize) the baseline of a sensor in a widget specified
 519:Generated_Source\PSoC4/CapSense_Filter.c **** *  by input parameters.
 520:Generated_Source\PSoC4/CapSense_Filter.c **** *
 521:Generated_Source\PSoC4/CapSense_Filter.c **** * \details  
 522:Generated_Source\PSoC4/CapSense_Filter.c **** *  Initializes (or re-initializes) the baseline for a specified sensor within
 523:Generated_Source\PSoC4/CapSense_Filter.c **** *  a specified widget.
 524:Generated_Source\PSoC4/CapSense_Filter.c **** *
 525:Generated_Source\PSoC4/CapSense_Filter.c **** * \param    widgetId 
 526:Generated_Source\PSoC4/CapSense_Filter.c **** *  Specify the ID number of a widget to initialize the baseline of all sensors
 527:Generated_Source\PSoC4/CapSense_Filter.c **** *  in the widget.
 528:Generated_Source\PSoC4/CapSense_Filter.c **** *  A macro for the widget ID can be found in the 
 529:Generated_Source\PSoC4/CapSense_Filter.c **** *  CapSense Configuration header file defined as 
 530:Generated_Source\PSoC4/CapSense_Filter.c **** *  CapSense_<WidgetName>_WDGT_ID.
 531:Generated_Source\PSoC4/CapSense_Filter.c **** *  
 532:Generated_Source\PSoC4/CapSense_Filter.c **** * \param    sensorId 
 533:Generated_Source\PSoC4/CapSense_Filter.c **** *  Specify the ID number of the sensor within the widget to initialize its 
 534:Generated_Source\PSoC4/CapSense_Filter.c **** *  baseline.
 535:Generated_Source\PSoC4/CapSense_Filter.c **** *  A macro for the sensor ID within a specified widget can be found in the 
 536:Generated_Source\PSoC4/CapSense_Filter.c **** *  CapSense Configuration header file defined as 
 537:Generated_Source\PSoC4/CapSense_Filter.c **** *  CapSense_<WidgetName>_SNS<SensorNumber>_ID
 538:Generated_Source\PSoC4/CapSense_Filter.c **** *
 539:Generated_Source\PSoC4/CapSense_Filter.c **** *******************************************************************************/
 540:Generated_Source\PSoC4/CapSense_Filter.c **** void CapSense_InitializeSensorBaseline(uint32 widgetId, uint32 sensorId)
 541:Generated_Source\PSoC4/CapSense_Filter.c **** {      
 542:Generated_Source\PSoC4/CapSense_Filter.c ****     CapSense_RAM_SNS_STRUCT *ptrSensor = NULL;    
 543:Generated_Source\PSoC4/CapSense_Filter.c ****     CapSense_FLASH_WD_STRUCT const *ptrWidget = NULL;
 544:Generated_Source\PSoC4/CapSense_Filter.c ****     ptrWidget = &CapSense_dsFlash.wdgtArray[widgetId];
 545:Generated_Source\PSoC4/CapSense_Filter.c **** 
ARM GAS  C:\Users\TB1014~1\AppData\Local\Temp\ccLivewv.s 			page 11


 546:Generated_Source\PSoC4/CapSense_Filter.c ****     /* Find pointer to specified sensor object */     
 547:Generated_Source\PSoC4/CapSense_Filter.c ****     ptrSensor = ptrWidget->ptr2SnsRam;
 548:Generated_Source\PSoC4/CapSense_Filter.c ****     ptrSensor = &ptrSensor[sensorId];
 549:Generated_Source\PSoC4/CapSense_Filter.c **** 
 550:Generated_Source\PSoC4/CapSense_Filter.c ****     CapSense_FtInitializeBaseline(ptrSensor, (uint32)ptrWidget->wdgtType);
 551:Generated_Source\PSoC4/CapSense_Filter.c **** }
 552:Generated_Source\PSoC4/CapSense_Filter.c **** 
 553:Generated_Source\PSoC4/CapSense_Filter.c **** 
 554:Generated_Source\PSoC4/CapSense_Filter.c **** /*******************************************************************************
 555:Generated_Source\PSoC4/CapSense_Filter.c **** * Function Name: CapSense_FtInitializeBaseline
 556:Generated_Source\PSoC4/CapSense_Filter.c **** ****************************************************************************//**
 557:Generated_Source\PSoC4/CapSense_Filter.c **** *
 558:Generated_Source\PSoC4/CapSense_Filter.c **** * \brief    Initializes the baseline history for a sensor indicated by an input
 559:Generated_Source\PSoC4/CapSense_Filter.c **** *           parameter.
 560:Generated_Source\PSoC4/CapSense_Filter.c **** *
 561:Generated_Source\PSoC4/CapSense_Filter.c **** * \details  Initializes the baseline history for a sensor indicated by an input
 562:Generated_Source\PSoC4/CapSense_Filter.c **** *           parameter.
 563:Generated_Source\PSoC4/CapSense_Filter.c **** *
 564:Generated_Source\PSoC4/CapSense_Filter.c **** * \param    *ptrSensor The pointer to the sensor RAM object.
 565:Generated_Source\PSoC4/CapSense_Filter.c **** * \param    wdType     Specifies the type of a widget.
 566:Generated_Source\PSoC4/CapSense_Filter.c **** *
 567:Generated_Source\PSoC4/CapSense_Filter.c **** *******************************************************************************/
 568:Generated_Source\PSoC4/CapSense_Filter.c **** CY_INLINE void CapSense_FtInitializeBaseline(CapSense_RAM_SNS_STRUCT *ptrSensor, uint32 wdType) 
 569:Generated_Source\PSoC4/CapSense_Filter.c **** {
 570:Generated_Source\PSoC4/CapSense_Filter.c ****     uint32 channel;
 571:Generated_Source\PSoC4/CapSense_Filter.c **** 
 572:Generated_Source\PSoC4/CapSense_Filter.c ****     /* Apply baseline initialization to every channel in sensor */    
 573:Generated_Source\PSoC4/CapSense_Filter.c ****     for(channel = CapSense_NUM_SCAN_FREQS; channel-- > 0u;) 
 574:Generated_Source\PSoC4/CapSense_Filter.c ****     {
 575:Generated_Source\PSoC4/CapSense_Filter.c ****         CapSense_FtInitializeBaselineChannel(ptrSensor, wdType, channel); 
 576:Generated_Source\PSoC4/CapSense_Filter.c ****     }
 577:Generated_Source\PSoC4/CapSense_Filter.c **** }
 578:Generated_Source\PSoC4/CapSense_Filter.c **** 
 579:Generated_Source\PSoC4/CapSense_Filter.c **** 
 580:Generated_Source\PSoC4/CapSense_Filter.c **** /*******************************************************************************
 581:Generated_Source\PSoC4/CapSense_Filter.c **** * Function Name: CapSense_FtInitializeBaselineChannel
 582:Generated_Source\PSoC4/CapSense_Filter.c **** ****************************************************************************//**
 583:Generated_Source\PSoC4/CapSense_Filter.c **** *
 584:Generated_Source\PSoC4/CapSense_Filter.c **** * \brief    Initializes the baseline history for a sensor indicated by an input
 585:Generated_Source\PSoC4/CapSense_Filter.c **** *           parameter.
 586:Generated_Source\PSoC4/CapSense_Filter.c **** *
 587:Generated_Source\PSoC4/CapSense_Filter.c **** * \details  Initializes the baseline history for a sensor indicated by an input
 588:Generated_Source\PSoC4/CapSense_Filter.c **** *           parameter.
 589:Generated_Source\PSoC4/CapSense_Filter.c **** *
 590:Generated_Source\PSoC4/CapSense_Filter.c **** * \param    *ptrSensor The pointer to the sensor RAM object.
 591:Generated_Source\PSoC4/CapSense_Filter.c **** * \param    wdType     Specifies the type of a widget.
 592:Generated_Source\PSoC4/CapSense_Filter.c **** * \param    channel    Specifies the number of the channel to be initialized.
 593:Generated_Source\PSoC4/CapSense_Filter.c **** *
 594:Generated_Source\PSoC4/CapSense_Filter.c **** *******************************************************************************/
 595:Generated_Source\PSoC4/CapSense_Filter.c **** void CapSense_FtInitializeBaselineChannel(CapSense_RAM_SNS_STRUCT *ptrSensor, uint32 wdType, uint32
 596:Generated_Source\PSoC4/CapSense_Filter.c **** {
  26              		.loc 1 596 0
  27              		.cfi_startproc
  28              	.LVL0:
 597:Generated_Source\PSoC4/CapSense_Filter.c ****     #if (CapSense_BASELINE_TYPE == CapSense_IIR_BASELINE)  
 598:Generated_Source\PSoC4/CapSense_Filter.c ****         if ((CapSense_WD_TYPE_ENUM)wdType != CapSense_WD_PROXIMITY_E)
  29              		.loc 1 598 0
ARM GAS  C:\Users\TB1014~1\AppData\Local\Temp\ccLivewv.s 			page 12


  30 0000 C9B2     		uxtb	r1, r1
  31              	.LVL1:
  32 0002 0629     		cmp	r1, #6
  33 0004 02D0     		beq	.L2
 599:Generated_Source\PSoC4/CapSense_Filter.c ****         {
 600:Generated_Source\PSoC4/CapSense_Filter.c ****             #if (CapSense_REGULAR_SENSOR_EN)
 601:Generated_Source\PSoC4/CapSense_Filter.c ****                 #if (CapSense_REGULAR_IIR_BL_TYPE == CapSense_IIR_FILTER_PERFORMANCE)              
 602:Generated_Source\PSoC4/CapSense_Filter.c ****                     ptrSensor->bslnExt[channel] = 0u;                
  34              		.loc 1 602 0
  35 0006 8318     		add	r3, r0, r2
  36 0008 0021     		mov	r1, #0
  37 000a 1971     		strb	r1, [r3, #4]
  38              	.L2:
 603:Generated_Source\PSoC4/CapSense_Filter.c ****                 #endif /* (CapSense_REGULAR_IIR_BL_TYPE == CapSense_IIR_FILTER_PERFORMANCE) */
 604:Generated_Source\PSoC4/CapSense_Filter.c ****             #endif /* (CapSense_REGULAR_SENSOR_EN) */
 605:Generated_Source\PSoC4/CapSense_Filter.c ****         }
 606:Generated_Source\PSoC4/CapSense_Filter.c ****         else
 607:Generated_Source\PSoC4/CapSense_Filter.c ****         {
 608:Generated_Source\PSoC4/CapSense_Filter.c ****             #if (CapSense_PROXIMITY_SENSOR_EN)     
 609:Generated_Source\PSoC4/CapSense_Filter.c ****                 #if (CapSense_PROX_IIR_BL_TYPE == CapSense_IIR_FILTER_PERFORMANCE)                 
 610:Generated_Source\PSoC4/CapSense_Filter.c ****                     ptrSensor->bslnExt[channel] = 0u;               
 611:Generated_Source\PSoC4/CapSense_Filter.c ****                 #endif /* (CapSense_PROX_IIR_BL_TYPE == CapSense_IIR_FILTER_PERFORMANCE) */
 612:Generated_Source\PSoC4/CapSense_Filter.c ****             #endif /* (CapSense_PROX_SENSOR_EN) */
 613:Generated_Source\PSoC4/CapSense_Filter.c ****         }
 614:Generated_Source\PSoC4/CapSense_Filter.c ****     #else
 615:Generated_Source\PSoC4/CapSense_Filter.c ****         /* CapSense_BASELINE_TYPE == CapSense_BUCKET_BASELINE */        
 616:Generated_Source\PSoC4/CapSense_Filter.c ****         ptrSensor->bslnExt[channel] = 0u;        
 617:Generated_Source\PSoC4/CapSense_Filter.c ****     #endif /* (CapSense_BASELINE_TYPE == CapSense_IIR_BASELINE) */      
 618:Generated_Source\PSoC4/CapSense_Filter.c ****     
 619:Generated_Source\PSoC4/CapSense_Filter.c ****     ptrSensor->bsln[channel] = ptrSensor->raw[channel]; 
  39              		.loc 1 619 0
  40 000c 5300     		lsl	r3, r2, #1
  41 000e 195A     		ldrh	r1, [r3, r0]
  42 0010 C318     		add	r3, r0, r3
  43 0012 5980     		strh	r1, [r3, #2]
 620:Generated_Source\PSoC4/CapSense_Filter.c ****     
 621:Generated_Source\PSoC4/CapSense_Filter.c ****     #if (CapSense_ENABLE == CapSense_TST_BSLN_DUPLICATION_EN)
 622:Generated_Source\PSoC4/CapSense_Filter.c ****     /* Update baseline inversion of the channel in sensor */    
 623:Generated_Source\PSoC4/CapSense_Filter.c ****         ptrSensor->bslnInv[channel] = ~(ptrSensor->bsln[channel]);
 624:Generated_Source\PSoC4/CapSense_Filter.c ****     #endif /* (CapSense_ENABLE == CapSense_TST_BSLN_DUPLICATION_EN) */
 625:Generated_Source\PSoC4/CapSense_Filter.c **** 
 626:Generated_Source\PSoC4/CapSense_Filter.c ****     ptrSensor->negBslnRstCnt[channel] = 0u;
  44              		.loc 1 626 0
  45 0014 8218     		add	r2, r0, r2
  46              	.LVL2:
  47 0016 0023     		mov	r3, #0
  48 0018 1372     		strb	r3, [r2, #8]
 627:Generated_Source\PSoC4/CapSense_Filter.c **** }
  49              		.loc 1 627 0
  50              		@ sp needed
  51 001a 7047     		bx	lr
  52              		.cfi_endproc
  53              	.LFE10:
  54              		.size	CapSense_FtInitializeBaselineChannel, .-CapSense_FtInitializeBaselineChannel
  55              		.section	.text.CapSense_FtInitializeBaseline,"ax",%progbits
  56              		.align	2
  57              		.global	CapSense_FtInitializeBaseline
ARM GAS  C:\Users\TB1014~1\AppData\Local\Temp\ccLivewv.s 			page 13


  58              		.code	16
  59              		.thumb_func
  60              		.type	CapSense_FtInitializeBaseline, %function
  61              	CapSense_FtInitializeBaseline:
  62              	.LFB9:
 569:Generated_Source\PSoC4/CapSense_Filter.c ****     uint32 channel;
  63              		.loc 1 569 0
  64              		.cfi_startproc
  65              	.LVL3:
  66 0000 70B5     		push	{r4, r5, r6, lr}
  67              		.cfi_def_cfa_offset 16
  68              		.cfi_offset 4, -16
  69              		.cfi_offset 5, -12
  70              		.cfi_offset 6, -8
  71              		.cfi_offset 14, -4
  72 0002 061C     		mov	r6, r0
  73 0004 0D1C     		mov	r5, r1
  74              	.LVL4:
 573:Generated_Source\PSoC4/CapSense_Filter.c ****     {
  75              		.loc 1 573 0
  76 0006 0123     		mov	r3, #1
  77 0008 05E0     		b	.L4
  78              	.LVL5:
  79              	.L5:
 575:Generated_Source\PSoC4/CapSense_Filter.c ****     }
  80              		.loc 1 575 0
  81 000a 301C     		mov	r0, r6
  82 000c 291C     		mov	r1, r5
  83 000e 221C     		mov	r2, r4
  84 0010 FFF7FEFF 		bl	CapSense_FtInitializeBaselineChannel
  85              	.LVL6:
 573:Generated_Source\PSoC4/CapSense_Filter.c ****     {
  86              		.loc 1 573 0
  87 0014 231C     		mov	r3, r4
  88              	.LVL7:
  89              	.L4:
 573:Generated_Source\PSoC4/CapSense_Filter.c ****     {
  90              		.loc 1 573 0 is_stmt 0 discriminator 1
  91 0016 5C1E     		sub	r4, r3, #1
  92              	.LVL8:
  93 0018 002B     		cmp	r3, #0
  94 001a F6D1     		bne	.L5
 577:Generated_Source\PSoC4/CapSense_Filter.c **** 
  95              		.loc 1 577 0 is_stmt 1
  96              		@ sp needed
  97              	.LVL9:
  98              	.LVL10:
  99              	.LVL11:
 100 001c 70BD     		pop	{r4, r5, r6, pc}
 101              		.cfi_endproc
 102              	.LFE9:
 103              		.size	CapSense_FtInitializeBaseline, .-CapSense_FtInitializeBaseline
 104 001e C046     		.section	.text.CapSense_InitializeSensorBaseline,"ax",%progbits
 105              		.align	2
 106              		.global	CapSense_InitializeSensorBaseline
 107              		.code	16
 108              		.thumb_func
ARM GAS  C:\Users\TB1014~1\AppData\Local\Temp\ccLivewv.s 			page 14


 109              		.type	CapSense_InitializeSensorBaseline, %function
 110              	CapSense_InitializeSensorBaseline:
 111              	.LFB8:
 541:Generated_Source\PSoC4/CapSense_Filter.c ****     CapSense_RAM_SNS_STRUCT *ptrSensor = NULL;    
 112              		.loc 1 541 0
 113              		.cfi_startproc
 114              	.LVL12:
 115 0000 70B5     		push	{r4, r5, r6, lr}
 116              		.cfi_def_cfa_offset 16
 117              		.cfi_offset 4, -16
 118              		.cfi_offset 5, -12
 119              		.cfi_offset 6, -8
 120              		.cfi_offset 14, -4
 121              	.LVL13:
 547:Generated_Source\PSoC4/CapSense_Filter.c ****     ptrSensor = &ptrSensor[sensorId];
 122              		.loc 1 547 0
 123 0002 2C23     		mov	r3, #44
 124 0004 5843     		mul	r0, r3
 125              	.LVL14:
 126 0006 0A4B     		ldr	r3, .L9
 127 0008 1818     		add	r0, r3, r0
 128              	.LVL15:
 548:Generated_Source\PSoC4/CapSense_Filter.c **** 
 129              		.loc 1 548 0
 130 000a 8B00     		lsl	r3, r1, #2
 131 000c 5918     		add	r1, r3, r1
 132              	.LVL16:
 133 000e 4900     		lsl	r1, r1, #1
 134 0010 8368     		ldr	r3, [r0, #8]
 135 0012 5C18     		add	r4, r3, r1
 136              	.LVL17:
 550:Generated_Source\PSoC4/CapSense_Filter.c **** }
 137              		.loc 1 550 0
 138 0014 067E     		ldrb	r6, [r0, #24]
 139              	.LVL18:
 140              	.LBB4:
 141              	.LBB5:
 573:Generated_Source\PSoC4/CapSense_Filter.c ****     {
 142              		.loc 1 573 0
 143 0016 0123     		mov	r3, #1
 144 0018 05E0     		b	.L7
 145              	.LVL19:
 146              	.L8:
 575:Generated_Source\PSoC4/CapSense_Filter.c ****     }
 147              		.loc 1 575 0
 148 001a 201C     		mov	r0, r4
 149 001c 311C     		mov	r1, r6
 150 001e 2A1C     		mov	r2, r5
 151 0020 FFF7FEFF 		bl	CapSense_FtInitializeBaselineChannel
 152              	.LVL20:
 573:Generated_Source\PSoC4/CapSense_Filter.c ****     {
 153              		.loc 1 573 0
 154 0024 2B1C     		mov	r3, r5
 155              	.LVL21:
 156              	.L7:
 157 0026 5D1E     		sub	r5, r3, #1
 158              	.LVL22:
ARM GAS  C:\Users\TB1014~1\AppData\Local\Temp\ccLivewv.s 			page 15


 159 0028 002B     		cmp	r3, #0
 160 002a F6D1     		bne	.L8
 161              	.LBE5:
 162              	.LBE4:
 551:Generated_Source\PSoC4/CapSense_Filter.c **** 
 163              		.loc 1 551 0
 164              		@ sp needed
 165              	.LVL23:
 166              	.LVL24:
 167              	.LVL25:
 168 002c 70BD     		pop	{r4, r5, r6, pc}
 169              	.L10:
 170 002e C046     		.align	2
 171              	.L9:
 172 0030 00000000 		.word	CapSense_dsFlash
 173              		.cfi_endproc
 174              	.LFE8:
 175              		.size	CapSense_InitializeSensorBaseline, .-CapSense_InitializeSensorBaseline
 176              		.section	.text.CapSense_InitializeWidgetBaseline,"ax",%progbits
 177              		.align	2
 178              		.global	CapSense_InitializeWidgetBaseline
 179              		.code	16
 180              		.thumb_func
 181              		.type	CapSense_InitializeWidgetBaseline, %function
 182              	CapSense_InitializeWidgetBaseline:
 183              	.LFB7:
 497:Generated_Source\PSoC4/CapSense_Filter.c ****     uint32 sensorId;
 184              		.loc 1 497 0
 185              		.cfi_startproc
 186              	.LVL26:
 187 0000 38B5     		push	{r3, r4, r5, lr}
 188              		.cfi_def_cfa_offset 16
 189              		.cfi_offset 3, -16
 190              		.cfi_offset 4, -12
 191              		.cfi_offset 5, -8
 192              		.cfi_offset 14, -4
 193 0002 051C     		mov	r5, r0
 194              	.LVL27:
 504:Generated_Source\PSoC4/CapSense_Filter.c ****     
 195              		.loc 1 504 0
 196 0004 2C23     		mov	r3, #44
 197 0006 4343     		mul	r3, r0
 198 0008 064A     		ldr	r2, .L14
 199 000a D318     		add	r3, r2, r3
 200              	.LVL28:
 201 000c DB8A     		ldrh	r3, [r3, #22]
 202              	.LVL29:
 506:Generated_Source\PSoC4/CapSense_Filter.c ****     {
 203              		.loc 1 506 0
 204 000e 04E0     		b	.L12
 205              	.LVL30:
 206              	.L13:
 508:Generated_Source\PSoC4/CapSense_Filter.c ****     }
 207              		.loc 1 508 0
 208 0010 281C     		mov	r0, r5
 209 0012 211C     		mov	r1, r4
 210 0014 FFF7FEFF 		bl	CapSense_InitializeSensorBaseline
ARM GAS  C:\Users\TB1014~1\AppData\Local\Temp\ccLivewv.s 			page 16


 211              	.LVL31:
 506:Generated_Source\PSoC4/CapSense_Filter.c ****     {
 212              		.loc 1 506 0
 213 0018 231C     		mov	r3, r4
 214              	.LVL32:
 215              	.L12:
 506:Generated_Source\PSoC4/CapSense_Filter.c ****     {
 216              		.loc 1 506 0 is_stmt 0 discriminator 1
 217 001a 5C1E     		sub	r4, r3, #1
 218              	.LVL33:
 219 001c 002B     		cmp	r3, #0
 220 001e F7D1     		bne	.L13
 510:Generated_Source\PSoC4/CapSense_Filter.c **** 
 221              		.loc 1 510 0 is_stmt 1
 222              		@ sp needed
 223              	.LVL34:
 224              	.LVL35:
 225 0020 38BD     		pop	{r3, r4, r5, pc}
 226              	.L15:
 227 0022 C046     		.align	2
 228              	.L14:
 229 0024 00000000 		.word	CapSense_dsFlash
 230              		.cfi_endproc
 231              	.LFE7:
 232              		.size	CapSense_InitializeWidgetBaseline, .-CapSense_InitializeWidgetBaseline
 233              		.section	.text.CapSense_InitializeAllBaselines,"ax",%progbits
 234              		.align	2
 235              		.global	CapSense_InitializeAllBaselines
 236              		.code	16
 237              		.thumb_func
 238              		.type	CapSense_InitializeAllBaselines, %function
 239              	CapSense_InitializeAllBaselines:
 240              	.LFB6:
 466:Generated_Source\PSoC4/CapSense_Filter.c ****     uint32 widgetId;    
 241              		.loc 1 466 0
 242              		.cfi_startproc
 243 0000 10B5     		push	{r4, lr}
 244              		.cfi_def_cfa_offset 8
 245              		.cfi_offset 4, -8
 246              		.cfi_offset 14, -4
 247              	.LVL36:
 469:Generated_Source\PSoC4/CapSense_Filter.c ****     {
 248              		.loc 1 469 0
 249 0002 0823     		mov	r3, #8
 250 0004 03E0     		b	.L17
 251              	.LVL37:
 252              	.L18:
 471:Generated_Source\PSoC4/CapSense_Filter.c ****     }
 253              		.loc 1 471 0
 254 0006 201C     		mov	r0, r4
 255 0008 FFF7FEFF 		bl	CapSense_InitializeWidgetBaseline
 256              	.LVL38:
 469:Generated_Source\PSoC4/CapSense_Filter.c ****     {
 257              		.loc 1 469 0
 258 000c 231C     		mov	r3, r4
 259              	.LVL39:
 260              	.L17:
ARM GAS  C:\Users\TB1014~1\AppData\Local\Temp\ccLivewv.s 			page 17


 469:Generated_Source\PSoC4/CapSense_Filter.c ****     {
 261              		.loc 1 469 0 is_stmt 0 discriminator 1
 262 000e 5C1E     		sub	r4, r3, #1
 263              	.LVL40:
 264 0010 002B     		cmp	r3, #0
 265 0012 F8D1     		bne	.L18
 473:Generated_Source\PSoC4/CapSense_Filter.c **** 
 266              		.loc 1 473 0 is_stmt 1
 267              		@ sp needed
 268              	.LVL41:
 269 0014 10BD     		pop	{r4, pc}
 270              		.cfi_endproc
 271              	.LFE6:
 272              		.size	CapSense_InitializeAllBaselines, .-CapSense_InitializeAllBaselines
 273 0016 C046     		.section	.text.CapSense_InitializeIIRInternal,"ax",%progbits
 274              		.align	2
 275              		.global	CapSense_InitializeIIRInternal
 276              		.code	16
 277              		.thumb_func
 278              		.type	CapSense_InitializeIIRInternal, %function
 279              	CapSense_InitializeIIRInternal:
 280              	.LFB13:
 628:Generated_Source\PSoC4/CapSense_Filter.c **** 
 629:Generated_Source\PSoC4/CapSense_Filter.c **** 
 630:Generated_Source\PSoC4/CapSense_Filter.c **** #if (CapSense_REGULAR_RC_IIR_FILTER_EN || CapSense_PROX_RC_IIR_FILTER_EN)
 631:Generated_Source\PSoC4/CapSense_Filter.c **** 
 632:Generated_Source\PSoC4/CapSense_Filter.c **** /*******************************************************************************
 633:Generated_Source\PSoC4/CapSense_Filter.c **** * Function Name: CapSense_InitializeIIR
 634:Generated_Source\PSoC4/CapSense_Filter.c **** ****************************************************************************//**
 635:Generated_Source\PSoC4/CapSense_Filter.c **** *
 636:Generated_Source\PSoC4/CapSense_Filter.c **** * \brief    Initialize the IIR filter history.
 637:Generated_Source\PSoC4/CapSense_Filter.c **** *
 638:Generated_Source\PSoC4/CapSense_Filter.c **** * \details  Initialize the IIR filter history.
 639:Generated_Source\PSoC4/CapSense_Filter.c **** *
 640:Generated_Source\PSoC4/CapSense_Filter.c **** * \param    widgetId Specifies the ID number of the widget.
 641:Generated_Source\PSoC4/CapSense_Filter.c **** * \param    sensorId Specifies the ID number of the sensor in the widget.
 642:Generated_Source\PSoC4/CapSense_Filter.c **** *
 643:Generated_Source\PSoC4/CapSense_Filter.c **** *******************************************************************************/
 644:Generated_Source\PSoC4/CapSense_Filter.c **** void CapSense_InitializeIIR(uint32 widgetId, uint32 sensorId)
 645:Generated_Source\PSoC4/CapSense_Filter.c **** {   
 646:Generated_Source\PSoC4/CapSense_Filter.c ****     CapSense_FLASH_WD_STRUCT const *ptrWidget = &CapSense_dsFlash.wdgtArray[widgetId];      
 647:Generated_Source\PSoC4/CapSense_Filter.c ****     CapSense_RAM_SNS_STRUCT *ptrSensor = NULL;    
 648:Generated_Source\PSoC4/CapSense_Filter.c ****     CapSense_PTR_FILTER_VARIANT ptrFilterHistObj; 
 649:Generated_Source\PSoC4/CapSense_Filter.c ****               
 650:Generated_Source\PSoC4/CapSense_Filter.c ****     /* Find pointer to specified sensor object */     
 651:Generated_Source\PSoC4/CapSense_Filter.c ****     ptrSensor = ptrWidget->ptr2SnsRam;
 652:Generated_Source\PSoC4/CapSense_Filter.c ****     ptrSensor = &ptrSensor[sensorId];
 653:Generated_Source\PSoC4/CapSense_Filter.c ****         
 654:Generated_Source\PSoC4/CapSense_Filter.c ****     /* Find pointer to specified filter sensor object */     
 655:Generated_Source\PSoC4/CapSense_Filter.c ****     ptrFilterHistObj.ptr = ptrWidget->ptr2FltrHistory;
 656:Generated_Source\PSoC4/CapSense_Filter.c ****     
 657:Generated_Source\PSoC4/CapSense_Filter.c ****     if ((CapSense_WD_TYPE_ENUM)ptrWidget->wdgtType != CapSense_WD_PROXIMITY_E)
 658:Generated_Source\PSoC4/CapSense_Filter.c ****     {
 659:Generated_Source\PSoC4/CapSense_Filter.c ****         #if (CapSense_REGULAR_SENSOR_EN)
 660:Generated_Source\PSoC4/CapSense_Filter.c ****             ptrFilterHistObj.ptrRegular = &ptrFilterHistObj.ptrRegular[sensorId];
 661:Generated_Source\PSoC4/CapSense_Filter.c ****         #endif /* (CapSense_REGULAR_SENSOR_EN) */
 662:Generated_Source\PSoC4/CapSense_Filter.c ****     }
ARM GAS  C:\Users\TB1014~1\AppData\Local\Temp\ccLivewv.s 			page 18


 663:Generated_Source\PSoC4/CapSense_Filter.c ****     else
 664:Generated_Source\PSoC4/CapSense_Filter.c ****     {
 665:Generated_Source\PSoC4/CapSense_Filter.c ****         #if (CapSense_PROXIMITY_SENSOR_EN)
 666:Generated_Source\PSoC4/CapSense_Filter.c ****             ptrFilterHistObj.ptrProx = &ptrFilterHistObj.ptrProx[sensorId];
 667:Generated_Source\PSoC4/CapSense_Filter.c ****         #endif /* (CapSense_PROXIMITY_SENSOR_EN) */
 668:Generated_Source\PSoC4/CapSense_Filter.c ****     }    
 669:Generated_Source\PSoC4/CapSense_Filter.c ****     
 670:Generated_Source\PSoC4/CapSense_Filter.c ****     CapSense_InitializeIIRInternal(ptrFilterHistObj, ptrSensor, (uint32)ptrWidget->wdgtType);
 671:Generated_Source\PSoC4/CapSense_Filter.c **** }
 672:Generated_Source\PSoC4/CapSense_Filter.c **** 
 673:Generated_Source\PSoC4/CapSense_Filter.c **** 
 674:Generated_Source\PSoC4/CapSense_Filter.c **** /*******************************************************************************
 675:Generated_Source\PSoC4/CapSense_Filter.c **** * Function Name: CapSense_RunIIR
 676:Generated_Source\PSoC4/CapSense_Filter.c **** ****************************************************************************//**
 677:Generated_Source\PSoC4/CapSense_Filter.c **** *
 678:Generated_Source\PSoC4/CapSense_Filter.c **** * \brief    Executes the IIR filter algorithm on a sensor indicated by an input
 679:Generated_Source\PSoC4/CapSense_Filter.c **** *           parameter. 
 680:Generated_Source\PSoC4/CapSense_Filter.c **** *
 681:Generated_Source\PSoC4/CapSense_Filter.c **** * \details  Executes the IIR filter algorithm on a sensor indicated by an input
 682:Generated_Source\PSoC4/CapSense_Filter.c **** *           parameter. 
 683:Generated_Source\PSoC4/CapSense_Filter.c **** *
 684:Generated_Source\PSoC4/CapSense_Filter.c **** * \param    widgetId Specifies the ID number of the widget.
 685:Generated_Source\PSoC4/CapSense_Filter.c **** * \param    sensorId Specifies the ID number of the sensor in the widget.
 686:Generated_Source\PSoC4/CapSense_Filter.c **** *
 687:Generated_Source\PSoC4/CapSense_Filter.c **** *******************************************************************************/
 688:Generated_Source\PSoC4/CapSense_Filter.c **** void CapSense_RunIIR(uint32 widgetId, uint32 sensorId)
 689:Generated_Source\PSoC4/CapSense_Filter.c **** {
 690:Generated_Source\PSoC4/CapSense_Filter.c ****     CapSense_FLASH_WD_STRUCT const *ptrWidget = &CapSense_dsFlash.wdgtArray[widgetId];      
 691:Generated_Source\PSoC4/CapSense_Filter.c ****     CapSense_RAM_SNS_STRUCT *ptrSensor = NULL;    
 692:Generated_Source\PSoC4/CapSense_Filter.c ****     CapSense_PTR_FILTER_VARIANT ptrFilterHistObj; 
 693:Generated_Source\PSoC4/CapSense_Filter.c ****               
 694:Generated_Source\PSoC4/CapSense_Filter.c ****     /* Find pointer to specified sensor object */     
 695:Generated_Source\PSoC4/CapSense_Filter.c ****     ptrSensor = ptrWidget->ptr2SnsRam;
 696:Generated_Source\PSoC4/CapSense_Filter.c ****     ptrSensor = &ptrSensor[sensorId];
 697:Generated_Source\PSoC4/CapSense_Filter.c ****         
 698:Generated_Source\PSoC4/CapSense_Filter.c ****     /* Find pointer to specified filter sensor object */     
 699:Generated_Source\PSoC4/CapSense_Filter.c ****     ptrFilterHistObj.ptr = ptrWidget->ptr2FltrHistory;
 700:Generated_Source\PSoC4/CapSense_Filter.c ****     
 701:Generated_Source\PSoC4/CapSense_Filter.c ****     if ((CapSense_WD_TYPE_ENUM)ptrWidget->wdgtType != CapSense_WD_PROXIMITY_E)
 702:Generated_Source\PSoC4/CapSense_Filter.c ****     {
 703:Generated_Source\PSoC4/CapSense_Filter.c ****         #if (CapSense_REGULAR_SENSOR_EN)
 704:Generated_Source\PSoC4/CapSense_Filter.c ****             ptrFilterHistObj.ptrRegular = &ptrFilterHistObj.ptrRegular[sensorId];
 705:Generated_Source\PSoC4/CapSense_Filter.c ****         #endif /* (CapSense_REGULAR_SENSOR_EN) */
 706:Generated_Source\PSoC4/CapSense_Filter.c ****     }
 707:Generated_Source\PSoC4/CapSense_Filter.c ****     else
 708:Generated_Source\PSoC4/CapSense_Filter.c ****     {
 709:Generated_Source\PSoC4/CapSense_Filter.c ****         #if (CapSense_PROXIMITY_SENSOR_EN)
 710:Generated_Source\PSoC4/CapSense_Filter.c ****             ptrFilterHistObj.ptrProx = &ptrFilterHistObj.ptrProx[sensorId];
 711:Generated_Source\PSoC4/CapSense_Filter.c ****         #endif /* (CapSense_PROXIMITY_SENSOR_EN) */
 712:Generated_Source\PSoC4/CapSense_Filter.c ****     }    
 713:Generated_Source\PSoC4/CapSense_Filter.c ****     
 714:Generated_Source\PSoC4/CapSense_Filter.c ****     CapSense_RunIIRInternal(ptrFilterHistObj, ptrSensor, (uint32)ptrWidget->wdgtType);
 715:Generated_Source\PSoC4/CapSense_Filter.c **** }
 716:Generated_Source\PSoC4/CapSense_Filter.c ****     
 717:Generated_Source\PSoC4/CapSense_Filter.c **** /*******************************************************************************
 718:Generated_Source\PSoC4/CapSense_Filter.c **** * Function Name: CapSense_InitializeIIRInternal
 719:Generated_Source\PSoC4/CapSense_Filter.c **** ****************************************************************************//**
ARM GAS  C:\Users\TB1014~1\AppData\Local\Temp\ccLivewv.s 			page 19


 720:Generated_Source\PSoC4/CapSense_Filter.c **** *
 721:Generated_Source\PSoC4/CapSense_Filter.c **** * \brief    Initializes the IIR filter history.
 722:Generated_Source\PSoC4/CapSense_Filter.c **** *
 723:Generated_Source\PSoC4/CapSense_Filter.c **** * \details  Initializes the IIR filter history.
 724:Generated_Source\PSoC4/CapSense_Filter.c **** *
 725:Generated_Source\PSoC4/CapSense_Filter.c **** * \param    ptrFilterHistObj The pointer to the filter RAM object of the sensor.
 726:Generated_Source\PSoC4/CapSense_Filter.c **** * \param    ptrSensorObj     The pointer to the sensor RAM object of the sensor.
 727:Generated_Source\PSoC4/CapSense_Filter.c **** * \param    wdType           Specifies the type of a widget.                                  
 728:Generated_Source\PSoC4/CapSense_Filter.c **** *
 729:Generated_Source\PSoC4/CapSense_Filter.c **** *******************************************************************************/
 730:Generated_Source\PSoC4/CapSense_Filter.c **** void CapSense_InitializeIIRInternal(CapSense_PTR_FILTER_VARIANT ptrFilterHistObj,
 731:Generated_Source\PSoC4/CapSense_Filter.c ****                                             CapSense_RAM_SNS_STRUCT *ptrSensorObj, uint32 wdType)
 732:Generated_Source\PSoC4/CapSense_Filter.c **** {
 281              		.loc 1 732 0
 282              		.cfi_startproc
 283              	.LVL42:
 284 0000 30B5     		push	{r4, r5, lr}
 285              		.cfi_def_cfa_offset 12
 286              		.cfi_offset 4, -12
 287              		.cfi_offset 5, -8
 288              		.cfi_offset 14, -4
 289              	.LVL43:
 733:Generated_Source\PSoC4/CapSense_Filter.c ****     uint32 channel;
 734:Generated_Source\PSoC4/CapSense_Filter.c **** 
 735:Generated_Source\PSoC4/CapSense_Filter.c ****     for(channel = CapSense_NUM_SCAN_FREQS; channel-- > 0u;)
 290              		.loc 1 735 0
 291 0002 0123     		mov	r3, #1
 292 0004 06E0     		b	.L20
 293              	.LVL44:
 294              	.L22:
 736:Generated_Source\PSoC4/CapSense_Filter.c ****     {
 737:Generated_Source\PSoC4/CapSense_Filter.c ****         if ((CapSense_WD_TYPE_ENUM)wdType != CapSense_WD_PROXIMITY_E)
 295              		.loc 1 737 0
 296 0006 D3B2     		uxtb	r3, r2
 297 0008 062B     		cmp	r3, #6
 298 000a 02D0     		beq	.L21
 738:Generated_Source\PSoC4/CapSense_Filter.c ****         {
 739:Generated_Source\PSoC4/CapSense_Filter.c ****             #if (CapSense_REGULAR_SENSOR_EN && CapSense_REGULAR_RC_IIR_FILTER_EN)
 740:Generated_Source\PSoC4/CapSense_Filter.c ****                 #if (CapSense_REGULAR_IIR_RC_TYPE == CapSense_IIR_FILTER_PERFORMANCE)
 741:Generated_Source\PSoC4/CapSense_Filter.c ****                     ptrFilterHistObj.ptrRegular->regularChannel[channel].iirHistory = ptrSensorObj-
 742:Generated_Source\PSoC4/CapSense_Filter.c ****                     ptrFilterHistObj.ptrRegular->regularChannel[channel].iirHistoryLow = 0u;
 743:Generated_Source\PSoC4/CapSense_Filter.c ****                 #else
 744:Generated_Source\PSoC4/CapSense_Filter.c ****                     ptrFilterHistObj.ptrRegular->regularChannel[channel].iirHistory = ptrSensorObj-
 299              		.loc 1 744 0
 300 000c 6300     		lsl	r3, r4, #1
 301 000e 5D5A     		ldrh	r5, [r3, r1]
 302 0010 1D52     		strh	r5, [r3, r0]
 303              	.L21:
 732:Generated_Source\PSoC4/CapSense_Filter.c ****     uint32 channel;
 304              		.loc 1 732 0 discriminator 1
 305 0012 231C     		mov	r3, r4
 306              	.LVL45:
 307              	.L20:
 735:Generated_Source\PSoC4/CapSense_Filter.c ****     {
 308              		.loc 1 735 0 discriminator 1
 309 0014 5C1E     		sub	r4, r3, #1
 310              	.LVL46:
ARM GAS  C:\Users\TB1014~1\AppData\Local\Temp\ccLivewv.s 			page 20


 311 0016 002B     		cmp	r3, #0
 312 0018 F5D1     		bne	.L22
 745:Generated_Source\PSoC4/CapSense_Filter.c ****                 #endif /* (CapSense_REGULAR_IIR_RC_TYPE == CapSense_IIR_FILTER_PERFORMANCE) */
 746:Generated_Source\PSoC4/CapSense_Filter.c ****             #endif /* (CapSense_REGULAR_SENSOR_EN) */    
 747:Generated_Source\PSoC4/CapSense_Filter.c ****         }
 748:Generated_Source\PSoC4/CapSense_Filter.c ****         else
 749:Generated_Source\PSoC4/CapSense_Filter.c ****         {
 750:Generated_Source\PSoC4/CapSense_Filter.c ****             #if (CapSense_PROXIMITY_SENSOR_EN && CapSense_PROX_RC_IIR_FILTER_EN)
 751:Generated_Source\PSoC4/CapSense_Filter.c ****                 #if (CapSense_PROX_IIR_RC_TYPE == CapSense_IIR_FILTER_PERFORMANCE)
 752:Generated_Source\PSoC4/CapSense_Filter.c ****                     ptrFilterHistObj.ptrProx->proxChannel[channel].iirHistory = ptrSensorObj->raw[c
 753:Generated_Source\PSoC4/CapSense_Filter.c ****                     ptrFilterHistObj.ptrProx->proxChannel[channel].iirHistoryLow = 0u;    
 754:Generated_Source\PSoC4/CapSense_Filter.c ****                 #else
 755:Generated_Source\PSoC4/CapSense_Filter.c ****                     ptrFilterHistObj.ptrProx->proxChannel[channel].iirHistory = ptrSensorObj->raw[c
 756:Generated_Source\PSoC4/CapSense_Filter.c ****                 #endif /* (CapSense_PROX_IIR_RC_TYPE == CapSense_IIR_FILTER_PERFORMANCE) */
 757:Generated_Source\PSoC4/CapSense_Filter.c ****             #endif /* (CapSense_PROX_SENSOR_EN) */
 758:Generated_Source\PSoC4/CapSense_Filter.c ****         }    
 759:Generated_Source\PSoC4/CapSense_Filter.c ****     }    
 760:Generated_Source\PSoC4/CapSense_Filter.c **** }
 313              		.loc 1 760 0
 314              		@ sp needed
 315              	.LVL47:
 316 001a 30BD     		pop	{r4, r5, pc}
 317              		.cfi_endproc
 318              	.LFE13:
 319              		.size	CapSense_InitializeIIRInternal, .-CapSense_InitializeIIRInternal
 320              		.section	.text.CapSense_FtInitialize,"ax",%progbits
 321              		.align	2
 322              		.global	CapSense_FtInitialize
 323              		.code	16
 324              		.thumb_func
 325              		.type	CapSense_FtInitialize, %function
 326              	CapSense_FtInitialize:
 327              	.LFB1:
  62:Generated_Source\PSoC4/CapSense_Filter.c ****     uint32 widgetId;
 328              		.loc 1 62 0
 329              		.cfi_startproc
 330 0000 F0B5     		push	{r4, r5, r6, r7, lr}
 331              		.cfi_def_cfa_offset 20
 332              		.cfi_offset 4, -20
 333              		.cfi_offset 5, -16
 334              		.cfi_offset 6, -12
 335              		.cfi_offset 7, -8
 336              		.cfi_offset 14, -4
 337 0002 4746     		mov	r7, r8
 338 0004 80B4     		push	{r7}
 339              		.cfi_def_cfa_offset 24
 340              		.cfi_offset 8, -24
 341              	.LVL48:
  76:Generated_Source\PSoC4/CapSense_Filter.c ****     {
 342              		.loc 1 76 0
 343 0006 0823     		mov	r3, #8
 344 0008 33E0     		b	.L24
 345              	.LVL49:
 346              	.L29:
  81:Generated_Source\PSoC4/CapSense_Filter.c ****         #endif /* #if CapSense_CSD_AUTOTUNE & CapSense_CSD_SS_TH_EN */
 347              		.loc 1 81 0
 348 000a 2C23     		mov	r3, #44
ARM GAS  C:\Users\TB1014~1\AppData\Local\Temp\ccLivewv.s 			page 21


 349 000c 7B43     		mul	r3, r7
 350 000e 1C4A     		ldr	r2, .L30
 351 0010 D318     		add	r3, r2, r3
 352              	.LVL50:
 353 0012 5A68     		ldr	r2, [r3, #4]
 354 0014 9046     		mov	r8, r2
 355              	.LVL51:
  85:Generated_Source\PSoC4/CapSense_Filter.c ****     
 356              		.loc 1 85 0
 357 0016 DB8A     		ldrh	r3, [r3, #22]
 358              	.LVL52:
  87:Generated_Source\PSoC4/CapSense_Filter.c ****         {
 359              		.loc 1 87 0
 360 0018 27E0     		b	.L25
 361              	.LVL53:
 362              	.L28:
  90:Generated_Source\PSoC4/CapSense_Filter.c ****             ptrSensor = &ptrSensor[sensorId];
 363              		.loc 1 90 0
 364 001a 2C23     		mov	r3, #44
 365 001c 7B43     		mul	r3, r7
 366 001e 184A     		ldr	r2, .L30
 367 0020 D318     		add	r3, r2, r3
 368              	.LVL54:
  91:Generated_Source\PSoC4/CapSense_Filter.c ****                         
 369              		.loc 1 91 0
 370 0022 B400     		lsl	r4, r6, #2
 371 0024 A419     		add	r4, r4, r6
 372 0026 6400     		lsl	r4, r4, #1
 373 0028 9A68     		ldr	r2, [r3, #8]
 374 002a 9446     		mov	ip, r2
 375 002c 6444     		add	r4, r4, ip
 376              	.LVL55:
  94:Generated_Source\PSoC4/CapSense_Filter.c **** 
 377              		.loc 1 94 0
 378 002e D968     		ldr	r1, [r3, #12]
 379 0030 081C     		mov	r0, r1
 380              	.LVL56:
  99:Generated_Source\PSoC4/CapSense_Filter.c ****             #endif /* #if CapSense_CSD_AUTOTUNE & CapSense_CSD_SS_TH_EN */
 381              		.loc 1 99 0
 382 0032 7500     		lsl	r5, r6, #1
 383 0034 AD19     		add	r5, r5, r6
 384 0036 AD00     		lsl	r5, r5, #2
 385 0038 5A6A     		ldr	r2, [r3, #36]
 386 003a 9446     		mov	ip, r2
 387 003c 6544     		add	r5, r5, ip
 388              	.LVL57:
 102:Generated_Source\PSoC4/CapSense_Filter.c ****             {
 389              		.loc 1 102 0
 390 003e 1A7E     		ldrb	r2, [r3, #24]
 391 0040 062A     		cmp	r2, #6
 392 0042 01D0     		beq	.L26
 105:Generated_Source\PSoC4/CapSense_Filter.c ****                 #endif /* (CapSense_REGULAR_SENSOR_EN) */
 393              		.loc 1 105 0
 394 0044 7000     		lsl	r0, r6, #1
 395 0046 0818     		add	r0, r1, r0
 396              	.L26:
 116:Generated_Source\PSoC4/CapSense_Filter.c ****             #endif /* (CapSense_REGULAR_RC_IIR_FILTER_EN || CapSense_PROX_RC_IIR_FILTER_EN) */     
ARM GAS  C:\Users\TB1014~1\AppData\Local\Temp\ccLivewv.s 			page 22


 397              		.loc 1 116 0
 398 0048 211C     		mov	r1, r4
 399 004a FFF7FEFF 		bl	CapSense_InitializeIIRInternal
 400              	.LVL58:
 129:Generated_Source\PSoC4/CapSense_Filter.c ****                 {
 401              		.loc 1 129 0
 402 004e 2C23     		mov	r3, #44
 403 0050 7B43     		mul	r3, r7
 404 0052 0B4A     		ldr	r2, .L30
 405 0054 D318     		add	r3, r2, r3
 406 0056 5B7E     		ldrb	r3, [r3, #25]
 128:Generated_Source\PSoC4/CapSense_Filter.c ****                     CapSense_GET_SENSE_METHOD(&CapSense_dsFlash.wdgtArray[widgetId]))
 407              		.loc 1 128 0
 408 0058 012B     		cmp	r3, #1
 409 005a 05D1     		bne	.L27
 131:Generated_Source\PSoC4/CapSense_Filter.c ****                 }
 410              		.loc 1 131 0
 411 005c 2088     		ldrh	r0, [r4]
 412 005e 4346     		mov	r3, r8
 413 0060 198A     		ldrh	r1, [r3, #16]
 414 0062 2A1C     		mov	r2, r5
 415 0064 FFF7FEFF 		bl	SmartSense_InitializeNoiseEnvelope
 416              	.LVL59:
 417              	.L27:
 418 0068 331C     		mov	r3, r6
 419              	.LVL60:
 420              	.L25:
  87:Generated_Source\PSoC4/CapSense_Filter.c ****         {
 421              		.loc 1 87 0 discriminator 1
 422 006a 5E1E     		sub	r6, r3, #1
 423              	.LVL61:
 424 006c 002B     		cmp	r3, #0
 425 006e D4D1     		bne	.L28
  76:Generated_Source\PSoC4/CapSense_Filter.c ****     {
 426              		.loc 1 76 0
 427 0070 3B1C     		mov	r3, r7
 428              	.LVL62:
 429              	.L24:
  76:Generated_Source\PSoC4/CapSense_Filter.c ****     {
 430              		.loc 1 76 0 is_stmt 0 discriminator 1
 431 0072 5F1E     		sub	r7, r3, #1
 432              	.LVL63:
 433 0074 002B     		cmp	r3, #0
 434 0076 C8D1     		bne	.L29
 136:Generated_Source\PSoC4/CapSense_Filter.c **** 
 435              		.loc 1 136 0 is_stmt 1
 436              		@ sp needed
 437              	.LVL64:
 438 0078 04BC     		pop	{r2}
 439 007a 9046     		mov	r8, r2
 440 007c F0BD     		pop	{r4, r5, r6, r7, pc}
 441              	.L31:
 442 007e C046     		.align	2
 443              	.L30:
 444 0080 00000000 		.word	CapSense_dsFlash
 445              		.cfi_endproc
 446              	.LFE1:
ARM GAS  C:\Users\TB1014~1\AppData\Local\Temp\ccLivewv.s 			page 23


 447              		.size	CapSense_FtInitialize, .-CapSense_FtInitialize
 448              		.section	.text.CapSense_InitializeIIR,"ax",%progbits
 449              		.align	2
 450              		.global	CapSense_InitializeIIR
 451              		.code	16
 452              		.thumb_func
 453              		.type	CapSense_InitializeIIR, %function
 454              	CapSense_InitializeIIR:
 455              	.LFB11:
 645:Generated_Source\PSoC4/CapSense_Filter.c ****     CapSense_FLASH_WD_STRUCT const *ptrWidget = &CapSense_dsFlash.wdgtArray[widgetId];      
 456              		.loc 1 645 0
 457              		.cfi_startproc
 458              	.LVL65:
 459 0000 10B5     		push	{r4, lr}
 460              		.cfi_def_cfa_offset 8
 461              		.cfi_offset 4, -8
 462              		.cfi_offset 14, -4
 463              	.LVL66:
 651:Generated_Source\PSoC4/CapSense_Filter.c ****     ptrSensor = &ptrSensor[sensorId];
 464              		.loc 1 651 0
 465 0002 2C23     		mov	r3, #44
 466 0004 5843     		mul	r0, r3
 467              	.LVL67:
 468 0006 094A     		ldr	r2, .L34
 469 0008 1218     		add	r2, r2, r0
 470              	.LVL68:
 652:Generated_Source\PSoC4/CapSense_Filter.c ****         
 471              		.loc 1 652 0
 472 000a 8B00     		lsl	r3, r1, #2
 473 000c 5B18     		add	r3, r3, r1
 474 000e 5B00     		lsl	r3, r3, #1
 475 0010 9068     		ldr	r0, [r2, #8]
 476 0012 8446     		mov	ip, r0
 477 0014 6344     		add	r3, r3, ip
 478              	.LVL69:
 655:Generated_Source\PSoC4/CapSense_Filter.c ****     
 479              		.loc 1 655 0
 480 0016 D468     		ldr	r4, [r2, #12]
 481 0018 201C     		mov	r0, r4
 482              	.LVL70:
 657:Generated_Source\PSoC4/CapSense_Filter.c ****     {
 483              		.loc 1 657 0
 484 001a 127E     		ldrb	r2, [r2, #24]
 485              	.LVL71:
 486 001c 062A     		cmp	r2, #6
 487 001e 01D0     		beq	.L33
 660:Generated_Source\PSoC4/CapSense_Filter.c ****         #endif /* (CapSense_REGULAR_SENSOR_EN) */
 488              		.loc 1 660 0
 489 0020 4900     		lsl	r1, r1, #1
 490              	.LVL72:
 491 0022 6018     		add	r0, r4, r1
 492              	.L33:
 670:Generated_Source\PSoC4/CapSense_Filter.c **** }
 493              		.loc 1 670 0
 494 0024 191C     		mov	r1, r3
 495 0026 FFF7FEFF 		bl	CapSense_InitializeIIRInternal
 496              	.LVL73:
ARM GAS  C:\Users\TB1014~1\AppData\Local\Temp\ccLivewv.s 			page 24


 671:Generated_Source\PSoC4/CapSense_Filter.c **** 
 497              		.loc 1 671 0
 498              		@ sp needed
 499 002a 10BD     		pop	{r4, pc}
 500              	.L35:
 501              		.align	2
 502              	.L34:
 503 002c 00000000 		.word	CapSense_dsFlash
 504              		.cfi_endproc
 505              	.LFE11:
 506              		.size	CapSense_InitializeIIR, .-CapSense_InitializeIIR
 507              		.section	.text.CapSense_RunNoiseEnvelope,"ax",%progbits
 508              		.align	2
 509              		.global	CapSense_RunNoiseEnvelope
 510              		.code	16
 511              		.thumb_func
 512              		.type	CapSense_RunNoiseEnvelope, %function
 513              	CapSense_RunNoiseEnvelope:
 514              	.LFB17:
 761:Generated_Source\PSoC4/CapSense_Filter.c ****  
 762:Generated_Source\PSoC4/CapSense_Filter.c **** 
 763:Generated_Source\PSoC4/CapSense_Filter.c **** /*******************************************************************************
 764:Generated_Source\PSoC4/CapSense_Filter.c **** * Function Name: CapSense_RunIIRInternal
 765:Generated_Source\PSoC4/CapSense_Filter.c **** ****************************************************************************//**
 766:Generated_Source\PSoC4/CapSense_Filter.c **** *
 767:Generated_Source\PSoC4/CapSense_Filter.c **** * \brief    Run the IIR filter.
 768:Generated_Source\PSoC4/CapSense_Filter.c **** *
 769:Generated_Source\PSoC4/CapSense_Filter.c **** * \details  Run the IIR filter.
 770:Generated_Source\PSoC4/CapSense_Filter.c **** *
 771:Generated_Source\PSoC4/CapSense_Filter.c **** * \param    ptrFilterHistObj The pointer to the filter RAM object of the sensor.
 772:Generated_Source\PSoC4/CapSense_Filter.c **** * \param    ptrSensorObj     The pointer to the sensor RAM object of the sensor.
 773:Generated_Source\PSoC4/CapSense_Filter.c **** * \param    wdType           Specifies the type of a widget.
 774:Generated_Source\PSoC4/CapSense_Filter.c **** *
 775:Generated_Source\PSoC4/CapSense_Filter.c **** *******************************************************************************/    
 776:Generated_Source\PSoC4/CapSense_Filter.c **** void CapSense_RunIIRInternal(CapSense_PTR_FILTER_VARIANT ptrFilterHistObj, 
 777:Generated_Source\PSoC4/CapSense_Filter.c ****                                      CapSense_RAM_SNS_STRUCT *ptrSensorObj, uint32 wdType)
 778:Generated_Source\PSoC4/CapSense_Filter.c **** {        
 779:Generated_Source\PSoC4/CapSense_Filter.c ****     uint32 channel;
 780:Generated_Source\PSoC4/CapSense_Filter.c ****     uint32 temp;
 781:Generated_Source\PSoC4/CapSense_Filter.c **** 
 782:Generated_Source\PSoC4/CapSense_Filter.c ****     for(channel = CapSense_NUM_SCAN_FREQS; channel-- > 0u;)
 783:Generated_Source\PSoC4/CapSense_Filter.c ****     {
 784:Generated_Source\PSoC4/CapSense_Filter.c ****         if ((CapSense_WD_TYPE_ENUM)wdType != CapSense_WD_PROXIMITY_E)
 785:Generated_Source\PSoC4/CapSense_Filter.c ****         {
 786:Generated_Source\PSoC4/CapSense_Filter.c ****             #if (CapSense_REGULAR_SENSOR_EN && CapSense_REGULAR_RC_IIR_FILTER_EN)
 787:Generated_Source\PSoC4/CapSense_Filter.c ****                 #if (CapSense_REGULAR_IIR_RC_TYPE == CapSense_IIR_FILTER_PERFORMANCE)
 788:Generated_Source\PSoC4/CapSense_Filter.c ****                     temp = ((uint32)ptrFilterHistObj.ptrRegular->regularChannel[channel].iirHistory
 789:Generated_Source\PSoC4/CapSense_Filter.c ****                     temp |= ptrFilterHistObj.ptrRegular->regularChannel[channel].iirHistoryLow;
 790:Generated_Source\PSoC4/CapSense_Filter.c ****                     temp = CapSense_FtIIR1stOrder((uint32)ptrSensorObj->raw[channel],
 791:Generated_Source\PSoC4/CapSense_Filter.c ****                                                         temp,
 792:Generated_Source\PSoC4/CapSense_Filter.c ****                                                         CapSense_REGULAR_IIR_RC_N,
 793:Generated_Source\PSoC4/CapSense_Filter.c ****                                                         CapSense_REGULAR_IIR_RC_SHIFT);
 794:Generated_Source\PSoC4/CapSense_Filter.c ****                     ptrFilterHistObj.ptrRegular->regularChannel[channel].iirHistory = LO16(temp >>C
 795:Generated_Source\PSoC4/CapSense_Filter.c ****                     ptrFilterHistObj.ptrRegular->regularChannel[channel].iirHistoryLow = LO8(temp);
 796:Generated_Source\PSoC4/CapSense_Filter.c ****                     ptrSensorObj->raw[channel] = LO16(temp >>CapSense_REGULAR_IIR_RC_SHIFT);
 797:Generated_Source\PSoC4/CapSense_Filter.c ****                 #else
 798:Generated_Source\PSoC4/CapSense_Filter.c ****                     temp =CapSense_FtIIR1stOrder((uint32)ptrSensorObj->raw[channel],
ARM GAS  C:\Users\TB1014~1\AppData\Local\Temp\ccLivewv.s 			page 25


 799:Generated_Source\PSoC4/CapSense_Filter.c ****                                                         (uint32)ptrFilterHistObj.ptrRegular->regula
 800:Generated_Source\PSoC4/CapSense_Filter.c ****                                                         CapSense_REGULAR_IIR_RC_N,
 801:Generated_Source\PSoC4/CapSense_Filter.c ****                                                         CapSense_REGULAR_IIR_RC_SHIFT);
 802:Generated_Source\PSoC4/CapSense_Filter.c ****                     ptrFilterHistObj.ptrRegular->regularChannel[channel].iirHistory = LO16(temp);
 803:Generated_Source\PSoC4/CapSense_Filter.c ****                     ptrSensorObj->raw[channel] = LO16(temp >>CapSense_REGULAR_IIR_RC_SHIFT);
 804:Generated_Source\PSoC4/CapSense_Filter.c ****                 #endif /* (CapSense_REGULAR_IIR_RC_TYPE == CapSense_IIR_FILTER_PERFORMANCE) */
 805:Generated_Source\PSoC4/CapSense_Filter.c ****             #endif /* (CapSense_REGULAR_SENSOR_EN) */    
 806:Generated_Source\PSoC4/CapSense_Filter.c ****         }
 807:Generated_Source\PSoC4/CapSense_Filter.c ****         else
 808:Generated_Source\PSoC4/CapSense_Filter.c ****         {
 809:Generated_Source\PSoC4/CapSense_Filter.c ****             #if (CapSense_PROXIMITY_SENSOR_EN && CapSense_PROX_RC_IIR_FILTER_EN)
 810:Generated_Source\PSoC4/CapSense_Filter.c ****                 #if (CapSense_PROX_IIR_RC_TYPE == CapSense_IIR_FILTER_PERFORMANCE)
 811:Generated_Source\PSoC4/CapSense_Filter.c ****                     temp =  ptrFilterHistObj.ptrProx->proxChannel[channel].iirHistory << CapSense_P
 812:Generated_Source\PSoC4/CapSense_Filter.c ****                     temp |= ptrFilterHistObj.ptrProx->proxChannel[channel].iirHistoryLow;
 813:Generated_Source\PSoC4/CapSense_Filter.c ****                     temp =CapSense_FtIIR1stOrder((uint32)ptrSensorObj->raw[channel],
 814:Generated_Source\PSoC4/CapSense_Filter.c ****                                                         temp,
 815:Generated_Source\PSoC4/CapSense_Filter.c ****                                                         CapSense_PROX_IIR_RC_N,
 816:Generated_Source\PSoC4/CapSense_Filter.c ****                                                         CapSense_PROX_IIR_RC_SHIFT);
 817:Generated_Source\PSoC4/CapSense_Filter.c ****                     ptrFilterHistObj.ptrProx->proxChannel[channel].iirHistory = LO16(temp >>CapSens
 818:Generated_Source\PSoC4/CapSense_Filter.c ****                     ptrFilterHistObj.ptrProx->proxChannel[channel].iirHistoryLow = LO8(temp);
 819:Generated_Source\PSoC4/CapSense_Filter.c ****                     ptrSensorObj->raw[channel] = LO16(temp >>CapSense_PROX_IIR_RC_SHIFT);
 820:Generated_Source\PSoC4/CapSense_Filter.c ****                 #else
 821:Generated_Source\PSoC4/CapSense_Filter.c ****                     temp =CapSense_FtIIR1stOrder((uint32)ptrSensorObj->raw[channel],
 822:Generated_Source\PSoC4/CapSense_Filter.c ****                                                         (uint32)ptrFilterHistObj.ptrProx->proxChann
 823:Generated_Source\PSoC4/CapSense_Filter.c ****                                                         CapSense_PROX_IIR_RC_N,
 824:Generated_Source\PSoC4/CapSense_Filter.c ****                                                         CapSense_PROX_IIR_RC_SHIFT);
 825:Generated_Source\PSoC4/CapSense_Filter.c ****                     ptrFilterHistObj.ptrProx->proxChannel[channel].iirHistory = LO16(temp);
 826:Generated_Source\PSoC4/CapSense_Filter.c ****                     ptrSensorObj->raw[channel] = LO16(temp >>CapSense_PROX_IIR_RC_SHIFT);
 827:Generated_Source\PSoC4/CapSense_Filter.c ****                 #endif /* (CapSense_PROX_IIR_RC_TYPE == CapSense_IIR_FILTER_PERFORMANCE) */
 828:Generated_Source\PSoC4/CapSense_Filter.c ****             #endif /* (CapSense_PROX_SENSOR_EN) */
 829:Generated_Source\PSoC4/CapSense_Filter.c ****         }    
 830:Generated_Source\PSoC4/CapSense_Filter.c ****     }        
 831:Generated_Source\PSoC4/CapSense_Filter.c **** }    
 832:Generated_Source\PSoC4/CapSense_Filter.c **** #endif /* #if (CapSense_REGULAR_RC_IIR_FILTER_EN || CapSense_PROX_RC_IIR_FILTER_EN) */
 833:Generated_Source\PSoC4/CapSense_Filter.c **** 
 834:Generated_Source\PSoC4/CapSense_Filter.c **** 
 835:Generated_Source\PSoC4/CapSense_Filter.c **** #if (CapSense_REGULAR_RC_MEDIAN_FILTER_EN || CapSense_PROX_RC_MEDIAN_FILTER_EN)
 836:Generated_Source\PSoC4/CapSense_Filter.c **** 
 837:Generated_Source\PSoC4/CapSense_Filter.c **** /*******************************************************************************
 838:Generated_Source\PSoC4/CapSense_Filter.c **** * Function Name: CapSense_InitializeMedian
 839:Generated_Source\PSoC4/CapSense_Filter.c **** ****************************************************************************//**
 840:Generated_Source\PSoC4/CapSense_Filter.c **** *
 841:Generated_Source\PSoC4/CapSense_Filter.c **** * \brief    Initializes the Median filter history.
 842:Generated_Source\PSoC4/CapSense_Filter.c **** *
 843:Generated_Source\PSoC4/CapSense_Filter.c **** * \details  Initializes the Median filter history.
 844:Generated_Source\PSoC4/CapSense_Filter.c **** *
 845:Generated_Source\PSoC4/CapSense_Filter.c **** * \param    widgetId Specifies the ID number of the widget.
 846:Generated_Source\PSoC4/CapSense_Filter.c **** * \param    sensorId Specifies the ID number of the sensor in the widget.
 847:Generated_Source\PSoC4/CapSense_Filter.c **** *
 848:Generated_Source\PSoC4/CapSense_Filter.c **** *******************************************************************************/
 849:Generated_Source\PSoC4/CapSense_Filter.c **** void CapSense_InitializeMedian(uint32 widgetId, uint32 sensorId)
 850:Generated_Source\PSoC4/CapSense_Filter.c **** {
 851:Generated_Source\PSoC4/CapSense_Filter.c ****     CapSense_FLASH_WD_STRUCT const *ptrWidget = &CapSense_dsFlash.wdgtArray[widgetId];      
 852:Generated_Source\PSoC4/CapSense_Filter.c ****     CapSense_RAM_SNS_STRUCT *ptrSensor = NULL;    
 853:Generated_Source\PSoC4/CapSense_Filter.c ****     CapSense_PTR_FILTER_VARIANT ptrFilterHistObj; 
 854:Generated_Source\PSoC4/CapSense_Filter.c ****               
 855:Generated_Source\PSoC4/CapSense_Filter.c ****     /* Find pointer to specified sensor object */     
ARM GAS  C:\Users\TB1014~1\AppData\Local\Temp\ccLivewv.s 			page 26


 856:Generated_Source\PSoC4/CapSense_Filter.c ****     ptrSensor = ptrWidget->ptr2SnsRam;
 857:Generated_Source\PSoC4/CapSense_Filter.c ****     ptrSensor = &ptrSensor[sensorId];
 858:Generated_Source\PSoC4/CapSense_Filter.c ****     
 859:Generated_Source\PSoC4/CapSense_Filter.c ****     /* Find pointer to specified filter sensor object */     
 860:Generated_Source\PSoC4/CapSense_Filter.c ****     ptrFilterHistObj.ptr = ptrWidget->ptr2FltrHistory;
 861:Generated_Source\PSoC4/CapSense_Filter.c ****     
 862:Generated_Source\PSoC4/CapSense_Filter.c ****     if ((CapSense_WD_TYPE_ENUM)ptrWidget->wdgtType != CapSense_WD_PROXIMITY_E)
 863:Generated_Source\PSoC4/CapSense_Filter.c ****     {
 864:Generated_Source\PSoC4/CapSense_Filter.c ****         #if (CapSense_REGULAR_SENSOR_EN)
 865:Generated_Source\PSoC4/CapSense_Filter.c ****             ptrFilterHistObj.ptrRegular = &ptrFilterHistObj.ptrRegular[sensorId];
 866:Generated_Source\PSoC4/CapSense_Filter.c ****         #endif /* (CapSense_REGULAR_SENSOR_EN) */
 867:Generated_Source\PSoC4/CapSense_Filter.c ****     }
 868:Generated_Source\PSoC4/CapSense_Filter.c ****     else
 869:Generated_Source\PSoC4/CapSense_Filter.c ****     {
 870:Generated_Source\PSoC4/CapSense_Filter.c ****         #if (CapSense_PROXIMITY_SENSOR_EN)
 871:Generated_Source\PSoC4/CapSense_Filter.c ****             ptrFilterHistObj.ptrProx = &ptrFilterHistObj.ptrProx[sensorId];
 872:Generated_Source\PSoC4/CapSense_Filter.c ****         #endif /* (CapSense_PROXIMITY_SENSOR_EN) */
 873:Generated_Source\PSoC4/CapSense_Filter.c ****     }
 874:Generated_Source\PSoC4/CapSense_Filter.c ****     
 875:Generated_Source\PSoC4/CapSense_Filter.c ****     CapSense_InitializeMedianInternal(ptrFilterHistObj, ptrSensor, (uint32)ptrWidget->wdgtType);
 876:Generated_Source\PSoC4/CapSense_Filter.c **** }     
 877:Generated_Source\PSoC4/CapSense_Filter.c **** 
 878:Generated_Source\PSoC4/CapSense_Filter.c **** 
 879:Generated_Source\PSoC4/CapSense_Filter.c **** /*******************************************************************************
 880:Generated_Source\PSoC4/CapSense_Filter.c **** * Function Name: CapSense_RunMedian
 881:Generated_Source\PSoC4/CapSense_Filter.c **** ****************************************************************************//**
 882:Generated_Source\PSoC4/CapSense_Filter.c **** *
 883:Generated_Source\PSoC4/CapSense_Filter.c **** * \brief    Executes the Median filter algorithm on a sensor indicated by an input 
 884:Generated_Source\PSoC4/CapSense_Filter.c **** *           parameter. 
 885:Generated_Source\PSoC4/CapSense_Filter.c **** *
 886:Generated_Source\PSoC4/CapSense_Filter.c **** * \details  Executes the Median filter algorithm on a sensor indicated by an input 
 887:Generated_Source\PSoC4/CapSense_Filter.c **** *           parameter. 
 888:Generated_Source\PSoC4/CapSense_Filter.c **** *
 889:Generated_Source\PSoC4/CapSense_Filter.c **** * \param    widgetId Specifies the ID number of the widget.
 890:Generated_Source\PSoC4/CapSense_Filter.c **** * \param    sensorId Specifies the ID number of the sensor in the widget.
 891:Generated_Source\PSoC4/CapSense_Filter.c **** *
 892:Generated_Source\PSoC4/CapSense_Filter.c **** *******************************************************************************/
 893:Generated_Source\PSoC4/CapSense_Filter.c **** void CapSense_RunMedian(uint32 widgetId, uint32 sensorId)
 894:Generated_Source\PSoC4/CapSense_Filter.c **** {
 895:Generated_Source\PSoC4/CapSense_Filter.c ****     CapSense_FLASH_WD_STRUCT const *ptrWidget = &CapSense_dsFlash.wdgtArray[widgetId];      
 896:Generated_Source\PSoC4/CapSense_Filter.c ****     CapSense_RAM_SNS_STRUCT *ptrSensor = NULL;    
 897:Generated_Source\PSoC4/CapSense_Filter.c ****     CapSense_PTR_FILTER_VARIANT ptrFilterHistObj; 
 898:Generated_Source\PSoC4/CapSense_Filter.c ****               
 899:Generated_Source\PSoC4/CapSense_Filter.c ****     /* Find pointer to specified sensor object */     
 900:Generated_Source\PSoC4/CapSense_Filter.c ****     ptrSensor = ptrWidget->ptr2SnsRam;
 901:Generated_Source\PSoC4/CapSense_Filter.c ****     ptrSensor = &ptrSensor[sensorId];
 902:Generated_Source\PSoC4/CapSense_Filter.c ****     
 903:Generated_Source\PSoC4/CapSense_Filter.c ****     /* Find pointer to specified filter sensor object */     
 904:Generated_Source\PSoC4/CapSense_Filter.c ****     ptrFilterHistObj.ptr = ptrWidget->ptr2FltrHistory;
 905:Generated_Source\PSoC4/CapSense_Filter.c ****     
 906:Generated_Source\PSoC4/CapSense_Filter.c ****     if ((CapSense_WD_TYPE_ENUM)ptrWidget->wdgtType != CapSense_WD_PROXIMITY_E)
 907:Generated_Source\PSoC4/CapSense_Filter.c ****     {
 908:Generated_Source\PSoC4/CapSense_Filter.c ****         #if (CapSense_REGULAR_SENSOR_EN)
 909:Generated_Source\PSoC4/CapSense_Filter.c ****             ptrFilterHistObj.ptrRegular = &ptrFilterHistObj.ptrRegular[sensorId];
 910:Generated_Source\PSoC4/CapSense_Filter.c ****         #endif /* (CapSense_REGULAR_SENSOR_EN) */
 911:Generated_Source\PSoC4/CapSense_Filter.c ****     }
 912:Generated_Source\PSoC4/CapSense_Filter.c ****     else
ARM GAS  C:\Users\TB1014~1\AppData\Local\Temp\ccLivewv.s 			page 27


 913:Generated_Source\PSoC4/CapSense_Filter.c ****     {
 914:Generated_Source\PSoC4/CapSense_Filter.c ****         #if (CapSense_PROXIMITY_SENSOR_EN)
 915:Generated_Source\PSoC4/CapSense_Filter.c ****             ptrFilterHistObj.ptrProx = &ptrFilterHistObj.ptrProx[sensorId];
 916:Generated_Source\PSoC4/CapSense_Filter.c ****         #endif /* (CapSense_PROXIMITY_SENSOR_EN) */
 917:Generated_Source\PSoC4/CapSense_Filter.c ****     }
 918:Generated_Source\PSoC4/CapSense_Filter.c ****     
 919:Generated_Source\PSoC4/CapSense_Filter.c ****     CapSense_RunMedianInternal(ptrFilterHistObj, ptrSensor, (uint32)ptrWidget->wdgtType);
 920:Generated_Source\PSoC4/CapSense_Filter.c **** }
 921:Generated_Source\PSoC4/CapSense_Filter.c ****    
 922:Generated_Source\PSoC4/CapSense_Filter.c **** 
 923:Generated_Source\PSoC4/CapSense_Filter.c **** /*******************************************************************************
 924:Generated_Source\PSoC4/CapSense_Filter.c **** * Function Name: CapSense_InitializeMedianInternal
 925:Generated_Source\PSoC4/CapSense_Filter.c **** ****************************************************************************//**
 926:Generated_Source\PSoC4/CapSense_Filter.c **** *
 927:Generated_Source\PSoC4/CapSense_Filter.c **** * \brief    Initializes the Median filter.
 928:Generated_Source\PSoC4/CapSense_Filter.c **** *
 929:Generated_Source\PSoC4/CapSense_Filter.c **** * \details  Initializes the Median filter.
 930:Generated_Source\PSoC4/CapSense_Filter.c **** *
 931:Generated_Source\PSoC4/CapSense_Filter.c **** * \param    ptrFilterHistObj The pointer to the filter RAM object of the sensor.
 932:Generated_Source\PSoC4/CapSense_Filter.c **** * \param    ptrSensorObj     The pointer to the sensor RAM object of the sensor.
 933:Generated_Source\PSoC4/CapSense_Filter.c **** * \param    wdType           Specifies the type of a widget.
 934:Generated_Source\PSoC4/CapSense_Filter.c **** *
 935:Generated_Source\PSoC4/CapSense_Filter.c **** *******************************************************************************/
 936:Generated_Source\PSoC4/CapSense_Filter.c **** void CapSense_InitializeMedianInternal(CapSense_PTR_FILTER_VARIANT ptrFilterHistObj,
 937:Generated_Source\PSoC4/CapSense_Filter.c ****                                                CapSense_RAM_SNS_STRUCT *ptrSensorObj, uint32 wdType
 938:Generated_Source\PSoC4/CapSense_Filter.c **** {
 939:Generated_Source\PSoC4/CapSense_Filter.c ****     uint32 channel;
 940:Generated_Source\PSoC4/CapSense_Filter.c **** 
 941:Generated_Source\PSoC4/CapSense_Filter.c ****     for(channel = CapSense_NUM_SCAN_FREQS; channel-- > 0u;)
 942:Generated_Source\PSoC4/CapSense_Filter.c ****     {
 943:Generated_Source\PSoC4/CapSense_Filter.c ****         if ((CapSense_WD_TYPE_ENUM)wdType != CapSense_WD_PROXIMITY_E)
 944:Generated_Source\PSoC4/CapSense_Filter.c ****         {
 945:Generated_Source\PSoC4/CapSense_Filter.c ****             #if (CapSense_REGULAR_SENSOR_EN && CapSense_REGULAR_RC_MEDIAN_FILTER_EN)
 946:Generated_Source\PSoC4/CapSense_Filter.c ****                 ptrFilterHistObj.ptrRegular->regularChannel[channel].medHistory[0u] = ptrSensorObj-
 947:Generated_Source\PSoC4/CapSense_Filter.c ****                 ptrFilterHistObj.ptrRegular->regularChannel[channel].medHistory[1u] = ptrSensorObj-
 948:Generated_Source\PSoC4/CapSense_Filter.c ****             #endif /* (CapSense_REGULAR_SENSOR_EN) */
 949:Generated_Source\PSoC4/CapSense_Filter.c ****         }
 950:Generated_Source\PSoC4/CapSense_Filter.c ****         else
 951:Generated_Source\PSoC4/CapSense_Filter.c ****         {
 952:Generated_Source\PSoC4/CapSense_Filter.c ****             #if (CapSense_PROXIMITY_SENSOR_EN && CapSense_PROX_RC_MEDIAN_FILTER_EN)
 953:Generated_Source\PSoC4/CapSense_Filter.c ****                 ptrFilterHistObj.ptrProx->proxChannel[channel].medHistory[0u] = ptrSensorObj->raw[c
 954:Generated_Source\PSoC4/CapSense_Filter.c ****                 ptrFilterHistObj.ptrProx->proxChannel[channel].medHistory[1u] = ptrSensorObj->raw[c
 955:Generated_Source\PSoC4/CapSense_Filter.c ****             #endif /* (CapSense_PROXIMITY_SENSOR_EN) */               
 956:Generated_Source\PSoC4/CapSense_Filter.c ****         }
 957:Generated_Source\PSoC4/CapSense_Filter.c ****     }
 958:Generated_Source\PSoC4/CapSense_Filter.c **** }
 959:Generated_Source\PSoC4/CapSense_Filter.c **** 
 960:Generated_Source\PSoC4/CapSense_Filter.c **** 
 961:Generated_Source\PSoC4/CapSense_Filter.c **** /*******************************************************************************
 962:Generated_Source\PSoC4/CapSense_Filter.c **** * Function Name: CapSense_RunMedianInternal
 963:Generated_Source\PSoC4/CapSense_Filter.c **** ****************************************************************************//**
 964:Generated_Source\PSoC4/CapSense_Filter.c **** *
 965:Generated_Source\PSoC4/CapSense_Filter.c **** * \brief    Runs the Median filter.
 966:Generated_Source\PSoC4/CapSense_Filter.c **** *
 967:Generated_Source\PSoC4/CapSense_Filter.c **** * \details  Runs the Median filter.
 968:Generated_Source\PSoC4/CapSense_Filter.c **** *
 969:Generated_Source\PSoC4/CapSense_Filter.c **** * \param    ptrFilterHistObj The pointer to the filter RAM object of the sensor.
ARM GAS  C:\Users\TB1014~1\AppData\Local\Temp\ccLivewv.s 			page 28


 970:Generated_Source\PSoC4/CapSense_Filter.c **** * \param    ptrSensorObj     The pointer to the sensor RAM object of the sensor.
 971:Generated_Source\PSoC4/CapSense_Filter.c **** * \param    wdType           Specifies the type of a widget.
 972:Generated_Source\PSoC4/CapSense_Filter.c **** *
 973:Generated_Source\PSoC4/CapSense_Filter.c **** *******************************************************************************/
 974:Generated_Source\PSoC4/CapSense_Filter.c **** void CapSense_RunMedianInternal(CapSense_PTR_FILTER_VARIANT ptrFilterHistObj,
 975:Generated_Source\PSoC4/CapSense_Filter.c ****                                         CapSense_RAM_SNS_STRUCT *ptrSensorObj, uint32 wdType)
 976:Generated_Source\PSoC4/CapSense_Filter.c **** {
 977:Generated_Source\PSoC4/CapSense_Filter.c ****     uint32 channel;
 978:Generated_Source\PSoC4/CapSense_Filter.c ****     
 979:Generated_Source\PSoC4/CapSense_Filter.c ****     #if ((CapSense_REGULAR_SENSOR_EN && CapSense_REGULAR_RC_MEDIAN_FILTER_EN) || \
 980:Generated_Source\PSoC4/CapSense_Filter.c ****          (CapSense_PROXIMITY_SENSOR_EN && CapSense_PROX_RC_MEDIAN_FILTER_EN))
 981:Generated_Source\PSoC4/CapSense_Filter.c ****         uint32 temp;
 982:Generated_Source\PSoC4/CapSense_Filter.c ****     #endif
 983:Generated_Source\PSoC4/CapSense_Filter.c ****     
 984:Generated_Source\PSoC4/CapSense_Filter.c ****     for(channel = CapSense_NUM_SCAN_FREQS; channel-- > 0u;)
 985:Generated_Source\PSoC4/CapSense_Filter.c ****     {    
 986:Generated_Source\PSoC4/CapSense_Filter.c ****         if ((CapSense_WD_TYPE_ENUM)wdType != CapSense_WD_PROXIMITY_E)
 987:Generated_Source\PSoC4/CapSense_Filter.c ****         {                                             
 988:Generated_Source\PSoC4/CapSense_Filter.c ****             #if (CapSense_REGULAR_SENSOR_EN && CapSense_REGULAR_RC_MEDIAN_FILTER_EN)
 989:Generated_Source\PSoC4/CapSense_Filter.c ****                 temp = CapSense_FtMedian((uint32)ptrSensorObj->raw[channel],\
 990:Generated_Source\PSoC4/CapSense_Filter.c ****                                                  (uint32)ptrFilterHistObj.ptrRegular->regularChanne
 991:Generated_Source\PSoC4/CapSense_Filter.c ****                                                  (uint32)ptrFilterHistObj.ptrRegular->regularChanne
 992:Generated_Source\PSoC4/CapSense_Filter.c ****                 ptrFilterHistObj.ptrRegular->regularChannel[channel].medHistory[1u] = \
 993:Generated_Source\PSoC4/CapSense_Filter.c ****                 ptrFilterHistObj.ptrRegular->regularChannel[channel].medHistory[0u];
 994:Generated_Source\PSoC4/CapSense_Filter.c ****                 ptrFilterHistObj.ptrRegular->regularChannel[channel].medHistory[0u] = ptrSensorObj-
 995:Generated_Source\PSoC4/CapSense_Filter.c ****                 ptrSensorObj->raw[channel] = LO16(temp);
 996:Generated_Source\PSoC4/CapSense_Filter.c ****             #endif /* (CapSense_REGULAR_SENSOR_EN) */     
 997:Generated_Source\PSoC4/CapSense_Filter.c ****         }
 998:Generated_Source\PSoC4/CapSense_Filter.c ****         else 
 999:Generated_Source\PSoC4/CapSense_Filter.c ****         {                   
1000:Generated_Source\PSoC4/CapSense_Filter.c ****             #if (CapSense_PROXIMITY_SENSOR_EN && CapSense_PROX_RC_MEDIAN_FILTER_EN)
1001:Generated_Source\PSoC4/CapSense_Filter.c ****                 temp = CapSense_FtMedian((uint32)ptrSensorObj->raw[channel],\
1002:Generated_Source\PSoC4/CapSense_Filter.c ****                                                  (uint32)ptrFilterHistObj.ptrProx->proxChannel[chan
1003:Generated_Source\PSoC4/CapSense_Filter.c ****                                                  (uint32)ptrFilterHistObj.ptrProx->proxChannel[chan
1004:Generated_Source\PSoC4/CapSense_Filter.c ****                 ptrFilterHistObj.ptrProx->proxChannel[channel].medHistory[1u] = \
1005:Generated_Source\PSoC4/CapSense_Filter.c ****                 ptrFilterHistObj.ptrProx->proxChannel[channel].medHistory[0u];
1006:Generated_Source\PSoC4/CapSense_Filter.c ****                 ptrFilterHistObj.ptrProx->proxChannel[channel].medHistory[0u] = ptrSensorObj->raw[c
1007:Generated_Source\PSoC4/CapSense_Filter.c ****                 ptrSensorObj->raw[channel] = LO16(temp);
1008:Generated_Source\PSoC4/CapSense_Filter.c ****             #endif /* (CapSense_PROXIMITY_SENSOR_EN) */               
1009:Generated_Source\PSoC4/CapSense_Filter.c ****         }
1010:Generated_Source\PSoC4/CapSense_Filter.c ****     }
1011:Generated_Source\PSoC4/CapSense_Filter.c **** }
1012:Generated_Source\PSoC4/CapSense_Filter.c **** #endif /* (CapSense_REGULAR_RC_MEDIAN_FILTER_EN || CapSense_PROX_RC_MEDIAN_FILTER_EN) */
1013:Generated_Source\PSoC4/CapSense_Filter.c **** 
1014:Generated_Source\PSoC4/CapSense_Filter.c **** 
1015:Generated_Source\PSoC4/CapSense_Filter.c **** #if (CapSense_REGULAR_RC_AVERAGE_FILTER_EN || CapSense_PROX_RC_AVERAGE_FILTER_EN)
1016:Generated_Source\PSoC4/CapSense_Filter.c **** 
1017:Generated_Source\PSoC4/CapSense_Filter.c **** /*******************************************************************************
1018:Generated_Source\PSoC4/CapSense_Filter.c **** * Function Name: CapSense_InitializeAverage
1019:Generated_Source\PSoC4/CapSense_Filter.c **** ****************************************************************************//**
1020:Generated_Source\PSoC4/CapSense_Filter.c **** *
1021:Generated_Source\PSoC4/CapSense_Filter.c **** * \brief    Initializes the average filter history.
1022:Generated_Source\PSoC4/CapSense_Filter.c **** *
1023:Generated_Source\PSoC4/CapSense_Filter.c **** * \details  Initializes the average filter history.
1024:Generated_Source\PSoC4/CapSense_Filter.c **** *
1025:Generated_Source\PSoC4/CapSense_Filter.c **** * \param    widgetId Specifies the ID number of the widget.
1026:Generated_Source\PSoC4/CapSense_Filter.c **** * \param    sensorId Specifies the ID number of the sensor in the widget.
ARM GAS  C:\Users\TB1014~1\AppData\Local\Temp\ccLivewv.s 			page 29


1027:Generated_Source\PSoC4/CapSense_Filter.c **** *
1028:Generated_Source\PSoC4/CapSense_Filter.c **** *******************************************************************************/
1029:Generated_Source\PSoC4/CapSense_Filter.c **** void CapSense_InitializeAverage(uint32 widgetId, uint32 sensorId)
1030:Generated_Source\PSoC4/CapSense_Filter.c **** {
1031:Generated_Source\PSoC4/CapSense_Filter.c ****     CapSense_FLASH_WD_STRUCT const *ptrWidget = &CapSense_dsFlash.wdgtArray[widgetId];      
1032:Generated_Source\PSoC4/CapSense_Filter.c ****     CapSense_RAM_SNS_STRUCT *ptrSensor = NULL;
1033:Generated_Source\PSoC4/CapSense_Filter.c ****     CapSense_PTR_FILTER_VARIANT ptrFilterHistObj;
1034:Generated_Source\PSoC4/CapSense_Filter.c **** 
1035:Generated_Source\PSoC4/CapSense_Filter.c ****     /* Find pointer to specified sensor object */
1036:Generated_Source\PSoC4/CapSense_Filter.c ****     ptrSensor = ptrWidget->ptr2SnsRam;
1037:Generated_Source\PSoC4/CapSense_Filter.c ****     ptrSensor = &ptrSensor[sensorId];
1038:Generated_Source\PSoC4/CapSense_Filter.c ****     
1039:Generated_Source\PSoC4/CapSense_Filter.c ****     /* Find pointer to specified filter sensor object */
1040:Generated_Source\PSoC4/CapSense_Filter.c ****     ptrFilterHistObj.ptr = ptrWidget->ptr2FltrHistory;
1041:Generated_Source\PSoC4/CapSense_Filter.c **** 
1042:Generated_Source\PSoC4/CapSense_Filter.c ****     if ((CapSense_WD_TYPE_ENUM)ptrWidget->wdgtType != CapSense_WD_PROXIMITY_E)
1043:Generated_Source\PSoC4/CapSense_Filter.c ****     {
1044:Generated_Source\PSoC4/CapSense_Filter.c ****         #if (CapSense_REGULAR_SENSOR_EN)
1045:Generated_Source\PSoC4/CapSense_Filter.c ****             ptrFilterHistObj.ptrRegular = &ptrFilterHistObj.ptrRegular[sensorId];
1046:Generated_Source\PSoC4/CapSense_Filter.c ****         #endif /* (CapSense_REGULAR_SENSOR_EN) */
1047:Generated_Source\PSoC4/CapSense_Filter.c ****     }
1048:Generated_Source\PSoC4/CapSense_Filter.c ****     else
1049:Generated_Source\PSoC4/CapSense_Filter.c ****     {
1050:Generated_Source\PSoC4/CapSense_Filter.c ****         #if (CapSense_PROXIMITY_SENSOR_EN)
1051:Generated_Source\PSoC4/CapSense_Filter.c ****             ptrFilterHistObj.ptrProx = &ptrFilterHistObj.ptrProx[sensorId];
1052:Generated_Source\PSoC4/CapSense_Filter.c ****         #endif /* (CapSense_PROXIMITY_SENSOR_EN) */
1053:Generated_Source\PSoC4/CapSense_Filter.c ****     }
1054:Generated_Source\PSoC4/CapSense_Filter.c **** 
1055:Generated_Source\PSoC4/CapSense_Filter.c ****     CapSense_InitializeAverageInternal(ptrFilterHistObj, ptrSensor, (uint32)ptrWidget->wdgtType);
1056:Generated_Source\PSoC4/CapSense_Filter.c **** }
1057:Generated_Source\PSoC4/CapSense_Filter.c **** 
1058:Generated_Source\PSoC4/CapSense_Filter.c **** 
1059:Generated_Source\PSoC4/CapSense_Filter.c **** /*******************************************************************************
1060:Generated_Source\PSoC4/CapSense_Filter.c **** * Function Name: CapSense_RunAverage
1061:Generated_Source\PSoC4/CapSense_Filter.c **** ****************************************************************************//**
1062:Generated_Source\PSoC4/CapSense_Filter.c **** *
1063:Generated_Source\PSoC4/CapSense_Filter.c **** * \brief    Executes the average filter algorithm on a sensor indicated by an input 
1064:Generated_Source\PSoC4/CapSense_Filter.c **** *           parameter. 
1065:Generated_Source\PSoC4/CapSense_Filter.c **** *
1066:Generated_Source\PSoC4/CapSense_Filter.c **** * \details  Executes the average filter algorithm on a sensor indicated by an input 
1067:Generated_Source\PSoC4/CapSense_Filter.c **** *           parameter. 
1068:Generated_Source\PSoC4/CapSense_Filter.c **** *
1069:Generated_Source\PSoC4/CapSense_Filter.c **** * \param    widgetId Specifies the ID number of the widget.
1070:Generated_Source\PSoC4/CapSense_Filter.c **** * \param    sensorId Specifies the ID number of the sensor in the widget.
1071:Generated_Source\PSoC4/CapSense_Filter.c **** *
1072:Generated_Source\PSoC4/CapSense_Filter.c **** *******************************************************************************/
1073:Generated_Source\PSoC4/CapSense_Filter.c **** void CapSense_RunAverage(uint32 widgetId, uint32 sensorId)
1074:Generated_Source\PSoC4/CapSense_Filter.c **** {
1075:Generated_Source\PSoC4/CapSense_Filter.c ****     CapSense_FLASH_WD_STRUCT const *ptrWidget = &CapSense_dsFlash.wdgtArray[widgetId];      
1076:Generated_Source\PSoC4/CapSense_Filter.c ****     CapSense_RAM_SNS_STRUCT *ptrSensor = NULL;    
1077:Generated_Source\PSoC4/CapSense_Filter.c ****     CapSense_PTR_FILTER_VARIANT ptrFilterHistObj; 
1078:Generated_Source\PSoC4/CapSense_Filter.c ****               
1079:Generated_Source\PSoC4/CapSense_Filter.c ****     /* Find pointer to specified sensor object */     
1080:Generated_Source\PSoC4/CapSense_Filter.c ****     ptrSensor = ptrWidget->ptr2SnsRam;
1081:Generated_Source\PSoC4/CapSense_Filter.c ****     ptrSensor = &ptrSensor[sensorId];
1082:Generated_Source\PSoC4/CapSense_Filter.c ****     
1083:Generated_Source\PSoC4/CapSense_Filter.c ****     /* Find pointer to specified filter sensor object */     
ARM GAS  C:\Users\TB1014~1\AppData\Local\Temp\ccLivewv.s 			page 30


1084:Generated_Source\PSoC4/CapSense_Filter.c ****     ptrFilterHistObj.ptr = ptrWidget->ptr2FltrHistory;
1085:Generated_Source\PSoC4/CapSense_Filter.c ****     
1086:Generated_Source\PSoC4/CapSense_Filter.c ****     if ((CapSense_WD_TYPE_ENUM)ptrWidget->wdgtType != CapSense_WD_PROXIMITY_E)
1087:Generated_Source\PSoC4/CapSense_Filter.c ****     {
1088:Generated_Source\PSoC4/CapSense_Filter.c ****         #if (CapSense_REGULAR_SENSOR_EN)
1089:Generated_Source\PSoC4/CapSense_Filter.c ****             ptrFilterHistObj.ptrRegular = &ptrFilterHistObj.ptrRegular[sensorId];
1090:Generated_Source\PSoC4/CapSense_Filter.c ****         #endif /* (CapSense_REGULAR_SENSOR_EN) */
1091:Generated_Source\PSoC4/CapSense_Filter.c ****     }
1092:Generated_Source\PSoC4/CapSense_Filter.c ****     else
1093:Generated_Source\PSoC4/CapSense_Filter.c ****     {
1094:Generated_Source\PSoC4/CapSense_Filter.c ****         #if (CapSense_PROXIMITY_SENSOR_EN)
1095:Generated_Source\PSoC4/CapSense_Filter.c ****             ptrFilterHistObj.ptrProx = &ptrFilterHistObj.ptrProx[sensorId];
1096:Generated_Source\PSoC4/CapSense_Filter.c ****         #endif /* (CapSense_PROXIMITY_SENSOR_EN) */
1097:Generated_Source\PSoC4/CapSense_Filter.c ****     }
1098:Generated_Source\PSoC4/CapSense_Filter.c ****     
1099:Generated_Source\PSoC4/CapSense_Filter.c ****     CapSense_RunAverageInternal(ptrFilterHistObj, ptrSensor, (uint32)ptrWidget->wdgtType);
1100:Generated_Source\PSoC4/CapSense_Filter.c **** }
1101:Generated_Source\PSoC4/CapSense_Filter.c **** 
1102:Generated_Source\PSoC4/CapSense_Filter.c **** 
1103:Generated_Source\PSoC4/CapSense_Filter.c **** /*******************************************************************************
1104:Generated_Source\PSoC4/CapSense_Filter.c **** * Function Name: CapSense_InitializeAverageInternal
1105:Generated_Source\PSoC4/CapSense_Filter.c **** ****************************************************************************//**
1106:Generated_Source\PSoC4/CapSense_Filter.c **** *
1107:Generated_Source\PSoC4/CapSense_Filter.c **** * \brief    Initializes the average filter.
1108:Generated_Source\PSoC4/CapSense_Filter.c **** *
1109:Generated_Source\PSoC4/CapSense_Filter.c **** * \details  Initializes the average filter.
1110:Generated_Source\PSoC4/CapSense_Filter.c **** *
1111:Generated_Source\PSoC4/CapSense_Filter.c **** * \param    ptrFilterHistObj The pointer to the filter RAM object of the sensor.
1112:Generated_Source\PSoC4/CapSense_Filter.c **** * \param    ptrSensorObj     The pointer to the sensor RAM object of the sensor.
1113:Generated_Source\PSoC4/CapSense_Filter.c **** * \param    wdType           Specifies the type of a widget.
1114:Generated_Source\PSoC4/CapSense_Filter.c **** *
1115:Generated_Source\PSoC4/CapSense_Filter.c **** *******************************************************************************/
1116:Generated_Source\PSoC4/CapSense_Filter.c **** void CapSense_InitializeAverageInternal(CapSense_PTR_FILTER_VARIANT ptrFilterHistObj,\
1117:Generated_Source\PSoC4/CapSense_Filter.c ****                                                   CapSense_RAM_SNS_STRUCT *ptrSensorObj, uint32 wdT
1118:Generated_Source\PSoC4/CapSense_Filter.c **** {
1119:Generated_Source\PSoC4/CapSense_Filter.c ****     uint32 channel;
1120:Generated_Source\PSoC4/CapSense_Filter.c **** 
1121:Generated_Source\PSoC4/CapSense_Filter.c ****     for(channel = CapSense_NUM_SCAN_FREQS; channel-- > 0u;)
1122:Generated_Source\PSoC4/CapSense_Filter.c ****     {
1123:Generated_Source\PSoC4/CapSense_Filter.c ****         if ((CapSense_WD_TYPE_ENUM)wdType != CapSense_WD_PROXIMITY_E)
1124:Generated_Source\PSoC4/CapSense_Filter.c ****         {
1125:Generated_Source\PSoC4/CapSense_Filter.c ****             #if (CapSense_REGULAR_SENSOR_EN && CapSense_REGULAR_RC_AVERAGE_FILTER_EN)
1126:Generated_Source\PSoC4/CapSense_Filter.c ****                 ptrFilterHistObj.ptrRegular->regularChannel[channel].avgHistory[0] = ptrSensorObj->
1127:Generated_Source\PSoC4/CapSense_Filter.c ****                 #if (CapSense_REGULAR_AVERAGE_LEN == CapSense_AVERAGE_FILTER_LEN_4)
1128:Generated_Source\PSoC4/CapSense_Filter.c ****                     ptrFilterHistObj.ptrRegular->regularChannel[channel].avgHistory[1u] = ptrSensor
1129:Generated_Source\PSoC4/CapSense_Filter.c ****                     ptrFilterHistObj.ptrRegular->regularChannel[channel].avgHistory[2u] = ptrSensor
1130:Generated_Source\PSoC4/CapSense_Filter.c ****                 #endif /* CapSense_REGULAR_AVERAGE_LEN == CapSense_AVERAGE_FILTER_LEN_4 */
1131:Generated_Source\PSoC4/CapSense_Filter.c ****             #endif /* (CapSense_REGULAR_SENSOR_EN) */      
1132:Generated_Source\PSoC4/CapSense_Filter.c ****         }
1133:Generated_Source\PSoC4/CapSense_Filter.c ****         else
1134:Generated_Source\PSoC4/CapSense_Filter.c ****         {
1135:Generated_Source\PSoC4/CapSense_Filter.c ****             #if (CapSense_PROXIMITY_SENSOR_EN && CapSense_PROX_RC_AVERAGE_FILTER_EN)
1136:Generated_Source\PSoC4/CapSense_Filter.c ****                 ptrFilterHistObj.ptrProx->proxChannel[channel].avgHistory[0] = ptrSensorObj->raw[ch
1137:Generated_Source\PSoC4/CapSense_Filter.c ****                     #if (CapSense_PROX_AVERAGE_LEN == CapSense_AVERAGE_FILTER_LEN_4)
1138:Generated_Source\PSoC4/CapSense_Filter.c ****                         ptrFilterHistObj.ptrProx->proxChannel[channel].avgHistory[1u] = ptrSensorOb
1139:Generated_Source\PSoC4/CapSense_Filter.c ****                         ptrFilterHistObj.ptrProx->proxChannel[channel].avgHistory[2u] = ptrSensorOb
1140:Generated_Source\PSoC4/CapSense_Filter.c ****                     #endif /* CapSense_REGULAR_AVERAGE_LEN == CapSense_AVERAGE_FILTER_LEN_4 */
ARM GAS  C:\Users\TB1014~1\AppData\Local\Temp\ccLivewv.s 			page 31


1141:Generated_Source\PSoC4/CapSense_Filter.c ****             #endif /* (CapSense_PROXIMITY_SENSOR_EN) */
1142:Generated_Source\PSoC4/CapSense_Filter.c ****         }
1143:Generated_Source\PSoC4/CapSense_Filter.c ****     }
1144:Generated_Source\PSoC4/CapSense_Filter.c **** }
1145:Generated_Source\PSoC4/CapSense_Filter.c **** 
1146:Generated_Source\PSoC4/CapSense_Filter.c **** 
1147:Generated_Source\PSoC4/CapSense_Filter.c **** /*******************************************************************************
1148:Generated_Source\PSoC4/CapSense_Filter.c **** * Function Name: CapSense_RunAverageInternal
1149:Generated_Source\PSoC4/CapSense_Filter.c **** ****************************************************************************//**
1150:Generated_Source\PSoC4/CapSense_Filter.c **** *
1151:Generated_Source\PSoC4/CapSense_Filter.c **** * \brief    Runs the average filter.
1152:Generated_Source\PSoC4/CapSense_Filter.c **** *
1153:Generated_Source\PSoC4/CapSense_Filter.c **** * \details  Runs the average filter.
1154:Generated_Source\PSoC4/CapSense_Filter.c **** *
1155:Generated_Source\PSoC4/CapSense_Filter.c **** * \param    ptrFilterHistObj The pointer to the filter RAM object of the sensor.
1156:Generated_Source\PSoC4/CapSense_Filter.c **** * \param    ptrSensorObj     The pointer to the sensor RAM object of the sensor.
1157:Generated_Source\PSoC4/CapSense_Filter.c **** * \param    wdType           Specifies the type of a widget.
1158:Generated_Source\PSoC4/CapSense_Filter.c **** *
1159:Generated_Source\PSoC4/CapSense_Filter.c **** *******************************************************************************/
1160:Generated_Source\PSoC4/CapSense_Filter.c **** void CapSense_RunAverageInternal(CapSense_PTR_FILTER_VARIANT ptrFilterHistObj,\
1161:Generated_Source\PSoC4/CapSense_Filter.c ****                                            CapSense_RAM_SNS_STRUCT *ptrSensorObj, uint32 wdType)
1162:Generated_Source\PSoC4/CapSense_Filter.c **** {
1163:Generated_Source\PSoC4/CapSense_Filter.c ****     uint32 channel;
1164:Generated_Source\PSoC4/CapSense_Filter.c ****     uint32 temp;
1165:Generated_Source\PSoC4/CapSense_Filter.c **** 
1166:Generated_Source\PSoC4/CapSense_Filter.c ****     for(channel = CapSense_NUM_SCAN_FREQS; channel-- > 0u;)
1167:Generated_Source\PSoC4/CapSense_Filter.c ****     {
1168:Generated_Source\PSoC4/CapSense_Filter.c ****         if ((CapSense_WD_TYPE_ENUM)wdType != CapSense_WD_PROXIMITY_E)
1169:Generated_Source\PSoC4/CapSense_Filter.c ****         {
1170:Generated_Source\PSoC4/CapSense_Filter.c ****             #if (CapSense_REGULAR_SENSOR_EN && CapSense_REGULAR_RC_AVERAGE_FILTER_EN)
1171:Generated_Source\PSoC4/CapSense_Filter.c ****                 #if (CapSense_REGULAR_AVERAGE_LEN == CapSense_AVERAGE_FILTER_LEN_2)
1172:Generated_Source\PSoC4/CapSense_Filter.c ****                     temp = ((uint32)ptrSensorObj->raw[channel] + 
1173:Generated_Source\PSoC4/CapSense_Filter.c ****                             (uint32)ptrFilterHistObj.ptrRegular->regularChannel[channel].avgHistory
1174:Generated_Source\PSoC4/CapSense_Filter.c ****                     ptrFilterHistObj.ptrRegular->regularChannel[channel].avgHistory[0] = ptrSensorO
1175:Generated_Source\PSoC4/CapSense_Filter.c ****                     ptrSensorObj->raw[channel] = LO16(temp);
1176:Generated_Source\PSoC4/CapSense_Filter.c ****                 #else
1177:Generated_Source\PSoC4/CapSense_Filter.c ****                     temp = ((uint32)ptrSensorObj->raw[channel] + 
1178:Generated_Source\PSoC4/CapSense_Filter.c ****                             (uint32)ptrFilterHistObj.ptrRegular->regularChannel[channel].avgHistory
1179:Generated_Source\PSoC4/CapSense_Filter.c ****                             (uint32)ptrFilterHistObj.ptrRegular->regularChannel[channel].avgHistory
1180:Generated_Source\PSoC4/CapSense_Filter.c ****                             (uint32)ptrFilterHistObj.ptrRegular->regularChannel[channel].avgHistory
1181:Generated_Source\PSoC4/CapSense_Filter.c **** 
1182:Generated_Source\PSoC4/CapSense_Filter.c ****                     ptrFilterHistObj.ptrRegular->regularChannel[channel].avgHistory[2u] =
1183:Generated_Source\PSoC4/CapSense_Filter.c ****                     ptrFilterHistObj.ptrRegular->regularChannel[channel].avgHistory[1u];
1184:Generated_Source\PSoC4/CapSense_Filter.c ****                     ptrFilterHistObj.ptrRegular->regularChannel[channel].avgHistory[1u] =
1185:Generated_Source\PSoC4/CapSense_Filter.c ****                     ptrFilterHistObj.ptrRegular->regularChannel[channel].avgHistory[0];
1186:Generated_Source\PSoC4/CapSense_Filter.c ****                     ptrFilterHistObj.ptrRegular->regularChannel[channel].avgHistory[0] = ptrSensorO
1187:Generated_Source\PSoC4/CapSense_Filter.c ****                     ptrSensorObj->raw[channel] = LO16(temp);
1188:Generated_Source\PSoC4/CapSense_Filter.c ****                 #endif /* CapSense_REGULAR_AVERAGE_LEN == CapSense_AVERAGE_FILTER_LEN_4 */
1189:Generated_Source\PSoC4/CapSense_Filter.c ****             #endif /* (CapSense_REGULAR_SENSOR_EN) */
1190:Generated_Source\PSoC4/CapSense_Filter.c ****         }
1191:Generated_Source\PSoC4/CapSense_Filter.c ****         else 
1192:Generated_Source\PSoC4/CapSense_Filter.c ****         {
1193:Generated_Source\PSoC4/CapSense_Filter.c ****             #if (CapSense_PROXIMITY_SENSOR_EN && CapSense_PROX_RC_AVERAGE_FILTER_EN)
1194:Generated_Source\PSoC4/CapSense_Filter.c ****                 #if (CapSense_PROX_AVERAGE_LEN == CapSense_AVERAGE_FILTER_LEN_2)     
1195:Generated_Source\PSoC4/CapSense_Filter.c ****                     temp = ((uint32)ptrSensorObj->raw[channel] + 
1196:Generated_Source\PSoC4/CapSense_Filter.c ****                             (uint32)ptrFilterHistObj.ptrProx->proxChannel[channel].avgHistory[0]) >
1197:Generated_Source\PSoC4/CapSense_Filter.c ****                     ptrFilterHistObj.ptrProx->proxChannel[channel].avgHistory[0] = ptrSensorObj->ra
ARM GAS  C:\Users\TB1014~1\AppData\Local\Temp\ccLivewv.s 			page 32


1198:Generated_Source\PSoC4/CapSense_Filter.c ****                     ptrSensorObj->raw[channel] = LO16(temp);
1199:Generated_Source\PSoC4/CapSense_Filter.c ****                 #else
1200:Generated_Source\PSoC4/CapSense_Filter.c ****                     temp = ((uint32)ptrSensorObj->raw[channel] + 
1201:Generated_Source\PSoC4/CapSense_Filter.c ****                             (uint32)ptrFilterHistObj.ptrProx->proxChannel[channel].avgHistory[0] +
1202:Generated_Source\PSoC4/CapSense_Filter.c ****                             (uint32)ptrFilterHistObj.ptrProx->proxChannel[channel].avgHistory[1u] +
1203:Generated_Source\PSoC4/CapSense_Filter.c ****                             (uint32)ptrFilterHistObj.ptrProx->proxChannel[channel].avgHistory[2u]) 
1204:Generated_Source\PSoC4/CapSense_Filter.c ****                     
1205:Generated_Source\PSoC4/CapSense_Filter.c ****                     ptrFilterHistObj.ptrProx->proxChannel[channel].avgHistory[2u] =
1206:Generated_Source\PSoC4/CapSense_Filter.c ****                     ptrFilterHistObj.ptrProx->proxChannel[channel].avgHistory[1u];
1207:Generated_Source\PSoC4/CapSense_Filter.c ****                     ptrFilterHistObj.ptrProx->proxChannel[channel].avgHistory[1u] =
1208:Generated_Source\PSoC4/CapSense_Filter.c ****                     ptrFilterHistObj.ptrProx->proxChannel[channel].avgHistory[0];
1209:Generated_Source\PSoC4/CapSense_Filter.c ****                     ptrFilterHistObj.ptrProx->proxChannel[channel].avgHistory[0] = ptrSensorObj->ra
1210:Generated_Source\PSoC4/CapSense_Filter.c ****                     ptrSensorObj->raw[channel] = LO16(temp);
1211:Generated_Source\PSoC4/CapSense_Filter.c ****                 #endif /* CapSense_PROX_AVERAGE_LEN == CapSense_AVERAGE_FILTER_LEN_4 */
1212:Generated_Source\PSoC4/CapSense_Filter.c ****             #endif /* (CapSense_PROXIMITY_SENSOR_EN) */
1213:Generated_Source\PSoC4/CapSense_Filter.c ****         }
1214:Generated_Source\PSoC4/CapSense_Filter.c ****     }
1215:Generated_Source\PSoC4/CapSense_Filter.c **** }
1216:Generated_Source\PSoC4/CapSense_Filter.c **** #endif /* (CapSense_REGULAR_RC_AVERAGE_FILTER_EN || CapSense_PROX_RC_AVERAGE_FILTER_EN) */
1217:Generated_Source\PSoC4/CapSense_Filter.c **** 
1218:Generated_Source\PSoC4/CapSense_Filter.c **** 
1219:Generated_Source\PSoC4/CapSense_Filter.c **** #if ((CapSense_REGULAR_RC_FILTER_EN || CapSense_PROX_RC_FILTER_EN))
1220:Generated_Source\PSoC4/CapSense_Filter.c **** /*******************************************************************************
1221:Generated_Source\PSoC4/CapSense_Filter.c **** * Function Name: CapSense_FtRunEnabledFilters
1222:Generated_Source\PSoC4/CapSense_Filter.c **** ****************************************************************************//**
1223:Generated_Source\PSoC4/CapSense_Filter.c **** *
1224:Generated_Source\PSoC4/CapSense_Filter.c **** * \brief    Runs all enabled filters.
1225:Generated_Source\PSoC4/CapSense_Filter.c **** *
1226:Generated_Source\PSoC4/CapSense_Filter.c **** * \details  Runs all enabled filters.
1227:Generated_Source\PSoC4/CapSense_Filter.c **** *
1228:Generated_Source\PSoC4/CapSense_Filter.c **** * \param    widgetId Specifies the ID number of a widget to update the IIR filter history.*
1229:Generated_Source\PSoC4/CapSense_Filter.c **** * \param    sensorId Specifies the ID number of a sensor in the widget to update the IIR 
1230:Generated_Source\PSoC4/CapSense_Filter.c **** *           filter history.
1231:Generated_Source\PSoC4/CapSense_Filter.c **** *
1232:Generated_Source\PSoC4/CapSense_Filter.c **** *******************************************************************************/
1233:Generated_Source\PSoC4/CapSense_Filter.c **** void CapSense_FtRunEnabledFilters(uint32 widgetId, uint32 sensorId)
1234:Generated_Source\PSoC4/CapSense_Filter.c **** {
1235:Generated_Source\PSoC4/CapSense_Filter.c ****     CapSense_FLASH_WD_STRUCT const *ptrWidget = &CapSense_dsFlash.wdgtArray[widgetId];      
1236:Generated_Source\PSoC4/CapSense_Filter.c ****     CapSense_RAM_SNS_STRUCT *ptrSensor = NULL;    
1237:Generated_Source\PSoC4/CapSense_Filter.c ****     CapSense_PTR_FILTER_VARIANT ptrFilterHistObj; 
1238:Generated_Source\PSoC4/CapSense_Filter.c ****               
1239:Generated_Source\PSoC4/CapSense_Filter.c ****     /* Find pointer to specified sensor object */     
1240:Generated_Source\PSoC4/CapSense_Filter.c ****     ptrSensor = ptrWidget->ptr2SnsRam;
1241:Generated_Source\PSoC4/CapSense_Filter.c ****     ptrSensor = &ptrSensor[sensorId];
1242:Generated_Source\PSoC4/CapSense_Filter.c ****     
1243:Generated_Source\PSoC4/CapSense_Filter.c ****     /* Find pointer to specified filter sensor object */     
1244:Generated_Source\PSoC4/CapSense_Filter.c ****     ptrFilterHistObj.ptr = ptrWidget->ptr2FltrHistory;
1245:Generated_Source\PSoC4/CapSense_Filter.c ****     
1246:Generated_Source\PSoC4/CapSense_Filter.c ****     if ((CapSense_WD_TYPE_ENUM)ptrWidget->wdgtType != CapSense_WD_PROXIMITY_E)
1247:Generated_Source\PSoC4/CapSense_Filter.c ****     {
1248:Generated_Source\PSoC4/CapSense_Filter.c ****         #if (CapSense_REGULAR_SENSOR_EN)
1249:Generated_Source\PSoC4/CapSense_Filter.c ****             ptrFilterHistObj.ptrRegular = &ptrFilterHistObj.ptrRegular[sensorId];
1250:Generated_Source\PSoC4/CapSense_Filter.c ****         #endif /* (CapSense_REGULAR_SENSOR_EN) */
1251:Generated_Source\PSoC4/CapSense_Filter.c ****     }
1252:Generated_Source\PSoC4/CapSense_Filter.c ****     else
1253:Generated_Source\PSoC4/CapSense_Filter.c ****     {
1254:Generated_Source\PSoC4/CapSense_Filter.c ****         #if (CapSense_PROXIMITY_SENSOR_EN)
ARM GAS  C:\Users\TB1014~1\AppData\Local\Temp\ccLivewv.s 			page 33


1255:Generated_Source\PSoC4/CapSense_Filter.c ****             ptrFilterHistObj.ptrProx = &ptrFilterHistObj.ptrProx[sensorId];
1256:Generated_Source\PSoC4/CapSense_Filter.c ****         #endif /* (CapSense_PROXIMITY_SENSOR_EN) */
1257:Generated_Source\PSoC4/CapSense_Filter.c ****     }
1258:Generated_Source\PSoC4/CapSense_Filter.c ****     
1259:Generated_Source\PSoC4/CapSense_Filter.c ****     CapSense_FtRunEnabledFiltersInternal(ptrFilterHistObj, ptrSensor, (uint32)ptrWidget->wdgtType);
1260:Generated_Source\PSoC4/CapSense_Filter.c **** }
1261:Generated_Source\PSoC4/CapSense_Filter.c **** 
1262:Generated_Source\PSoC4/CapSense_Filter.c **** 
1263:Generated_Source\PSoC4/CapSense_Filter.c **** /*******************************************************************************
1264:Generated_Source\PSoC4/CapSense_Filter.c **** * Function Name: CapSense_FtRunEnabledFiltersInternal
1265:Generated_Source\PSoC4/CapSense_Filter.c **** ****************************************************************************//**
1266:Generated_Source\PSoC4/CapSense_Filter.c **** *
1267:Generated_Source\PSoC4/CapSense_Filter.c **** * \brief    Runs all enabled filters.
1268:Generated_Source\PSoC4/CapSense_Filter.c **** *
1269:Generated_Source\PSoC4/CapSense_Filter.c **** * \details  Runs all enabled filters.
1270:Generated_Source\PSoC4/CapSense_Filter.c **** *
1271:Generated_Source\PSoC4/CapSense_Filter.c **** * \param    ptrFilterHistObj The pointer to the filter RAM object of the sensor.
1272:Generated_Source\PSoC4/CapSense_Filter.c **** * \param    ptrSensorObj     The pointer to the sensor RAM object of the sensor.
1273:Generated_Source\PSoC4/CapSense_Filter.c **** * \param    wdType           Specifies the type of a widget.
1274:Generated_Source\PSoC4/CapSense_Filter.c **** *
1275:Generated_Source\PSoC4/CapSense_Filter.c **** *******************************************************************************/
1276:Generated_Source\PSoC4/CapSense_Filter.c **** void CapSense_FtRunEnabledFiltersInternal(CapSense_PTR_FILTER_VARIANT ptrFilterHistObj, 
1277:Generated_Source\PSoC4/CapSense_Filter.c ****                                                   CapSense_RAM_SNS_STRUCT *ptrSensorObj, uint32 wdT
1278:Generated_Source\PSoC4/CapSense_Filter.c **** {
1279:Generated_Source\PSoC4/CapSense_Filter.c ****     #if (CapSense_REGULAR_RC_MEDIAN_FILTER_EN || CapSense_PROX_RC_MEDIAN_FILTER_EN)
1280:Generated_Source\PSoC4/CapSense_Filter.c ****         CapSense_RunMedianInternal(ptrFilterHistObj, ptrSensorObj, wdType);
1281:Generated_Source\PSoC4/CapSense_Filter.c ****     #endif /* (CapSense_REGULAR_RC_MEDIAN_FILTER_EN || CapSense_PROX_RC_MEDIAN_FILTER_EN) */
1282:Generated_Source\PSoC4/CapSense_Filter.c ****     
1283:Generated_Source\PSoC4/CapSense_Filter.c ****     #if (CapSense_REGULAR_RC_IIR_FILTER_EN || CapSense_PROX_RC_IIR_FILTER_EN)    
1284:Generated_Source\PSoC4/CapSense_Filter.c ****         CapSense_RunIIRInternal(ptrFilterHistObj, ptrSensorObj, wdType);
1285:Generated_Source\PSoC4/CapSense_Filter.c ****     #endif /* (CapSense_REGULAR_RC_IIR_FILTER_EN || CapSense_PROX_RC_IIR_FILTER_EN) */ 
1286:Generated_Source\PSoC4/CapSense_Filter.c **** 
1287:Generated_Source\PSoC4/CapSense_Filter.c ****     #if (CapSense_REGULAR_RC_AVERAGE_FILTER_EN || CapSense_PROX_RC_AVERAGE_FILTER_EN)
1288:Generated_Source\PSoC4/CapSense_Filter.c ****         CapSense_RunAverageInternal(ptrFilterHistObj, ptrSensorObj, wdType);
1289:Generated_Source\PSoC4/CapSense_Filter.c ****     #endif /* (CapSense_REGULAR_RC_AVERAGE_FILTER_EN || CapSense_PROX_RC_AVERAGE_FILTER_EN) */     
1290:Generated_Source\PSoC4/CapSense_Filter.c **** }
1291:Generated_Source\PSoC4/CapSense_Filter.c **** #endif /* (CapSense_REGULAR_RC_FILTER_EN || CapSense_PROX_RC_FILTER_EN) */
1292:Generated_Source\PSoC4/CapSense_Filter.c **** 
1293:Generated_Source\PSoC4/CapSense_Filter.c **** 
1294:Generated_Source\PSoC4/CapSense_Filter.c **** #if (CapSense_CSD_AUTOTUNE & CapSense_CSD_SS_TH_EN)
1295:Generated_Source\PSoC4/CapSense_Filter.c **** /*******************************************************************************
1296:Generated_Source\PSoC4/CapSense_Filter.c **** * Function Name: CapSense_RunNoiseEnvelope
1297:Generated_Source\PSoC4/CapSense_Filter.c **** ****************************************************************************//**
1298:Generated_Source\PSoC4/CapSense_Filter.c **** *
1299:Generated_Source\PSoC4/CapSense_Filter.c **** * \brief    Executes the noise envelope  filter algorithm on a sensor indicated by 
1300:Generated_Source\PSoC4/CapSense_Filter.c **** *           an input parameter to measure the pk-to-pk noise in the sensor raw count.
1301:Generated_Source\PSoC4/CapSense_Filter.c **** *
1302:Generated_Source\PSoC4/CapSense_Filter.c **** * \details  Executes the noise envelope  filter algorithm on a sensor indicated by 
1303:Generated_Source\PSoC4/CapSense_Filter.c **** *           an input parameter to measure the pk-to-pk noise in the sensor raw count.
1304:Generated_Source\PSoC4/CapSense_Filter.c **** *
1305:Generated_Source\PSoC4/CapSense_Filter.c **** * \param    widgetId Specifies the ID number of the widget.
1306:Generated_Source\PSoC4/CapSense_Filter.c **** * \param    sensorId Specifies the ID number of the sensor in the widget.
1307:Generated_Source\PSoC4/CapSense_Filter.c **** *
1308:Generated_Source\PSoC4/CapSense_Filter.c **** *******************************************************************************/
1309:Generated_Source\PSoC4/CapSense_Filter.c **** void CapSense_RunNoiseEnvelope(uint32 widgetId, uint32 sensorId)
1310:Generated_Source\PSoC4/CapSense_Filter.c **** {
 515              		.loc 1 1310 0
ARM GAS  C:\Users\TB1014~1\AppData\Local\Temp\ccLivewv.s 			page 34


 516              		.cfi_startproc
 517              	.LVL74:
 518 0000 38B5     		push	{r3, r4, r5, lr}
 519              		.cfi_def_cfa_offset 16
 520              		.cfi_offset 3, -16
 521              		.cfi_offset 4, -12
 522              		.cfi_offset 5, -8
 523              		.cfi_offset 14, -4
 524              	.LVL75:
1311:Generated_Source\PSoC4/CapSense_Filter.c ****     CapSense_FLASH_WD_STRUCT const *ptrWidget = &CapSense_dsFlash.wdgtArray[widgetId];
1312:Generated_Source\PSoC4/CapSense_Filter.c ****     CapSense_RAM_WD_BASE_STRUCT *ptrWidgetRam = ptrWidget->ptr2WdgtRam;
 525              		.loc 1 1312 0
 526 0002 2C23     		mov	r3, #44
 527 0004 5843     		mul	r0, r3
 528              	.LVL76:
 529 0006 084B     		ldr	r3, .L37
 530 0008 1818     		add	r0, r3, r0
 531              	.LVL77:
 532 000a 4468     		ldr	r4, [r0, #4]
 533              	.LVL78:
1313:Generated_Source\PSoC4/CapSense_Filter.c ****     CapSense_RAM_SNS_STRUCT *ptrSensor = NULL;    
1314:Generated_Source\PSoC4/CapSense_Filter.c ****     SMARTSENSE_CSD_NOISE_ENVELOPE_STRUCT *ptrNoiseEnvelope = NULL;
1315:Generated_Source\PSoC4/CapSense_Filter.c **** 
1316:Generated_Source\PSoC4/CapSense_Filter.c ****     /* Find pointer to specified sensor object */
1317:Generated_Source\PSoC4/CapSense_Filter.c ****     ptrSensor = ptrWidget->ptr2SnsRam;
 534              		.loc 1 1317 0
 535 000c 8568     		ldr	r5, [r0, #8]
 536              	.LVL79:
1318:Generated_Source\PSoC4/CapSense_Filter.c ****     ptrSensor = &ptrSensor[sensorId];
 537              		.loc 1 1318 0
 538 000e 8B00     		lsl	r3, r1, #2
 539 0010 5B18     		add	r3, r3, r1
 540 0012 5B00     		lsl	r3, r3, #1
 541              	.LVL80:
1319:Generated_Source\PSoC4/CapSense_Filter.c ****     
1320:Generated_Source\PSoC4/CapSense_Filter.c ****     /* Find pointer to specified filter sensor object */
1321:Generated_Source\PSoC4/CapSense_Filter.c ****     ptrNoiseEnvelope = ptrWidget->ptr2NoiseEnvlp;
 542              		.loc 1 1321 0
 543 0014 426A     		ldr	r2, [r0, #36]
 544              	.LVL81:
1322:Generated_Source\PSoC4/CapSense_Filter.c ****     ptrNoiseEnvelope = &ptrNoiseEnvelope[sensorId];    
 545              		.loc 1 1322 0
 546 0016 4800     		lsl	r0, r1, #1
 547              	.LVL82:
 548 0018 4118     		add	r1, r0, r1
 549              	.LVL83:
 550 001a 8900     		lsl	r1, r1, #2
 551 001c 5218     		add	r2, r2, r1
 552              	.LVL84:
1323:Generated_Source\PSoC4/CapSense_Filter.c **** 
1324:Generated_Source\PSoC4/CapSense_Filter.c ****     SmartSense_RunNoiseEnvelope(ptrSensor->raw[0u], ptrWidgetRam->sigPFC, ptrNoiseEnvelope);
 553              		.loc 1 1324 0
 554 001e E85A     		ldrh	r0, [r5, r3]
 555 0020 218A     		ldrh	r1, [r4, #16]
 556 0022 FFF7FEFF 		bl	SmartSense_RunNoiseEnvelope
 557              	.LVL85:
1325:Generated_Source\PSoC4/CapSense_Filter.c **** }
ARM GAS  C:\Users\TB1014~1\AppData\Local\Temp\ccLivewv.s 			page 35


 558              		.loc 1 1325 0
 559              		@ sp needed
 560              	.LVL86:
 561              	.LVL87:
 562 0026 38BD     		pop	{r3, r4, r5, pc}
 563              	.L38:
 564              		.align	2
 565              	.L37:
 566 0028 00000000 		.word	CapSense_dsFlash
 567              		.cfi_endproc
 568              	.LFE17:
 569              		.size	CapSense_RunNoiseEnvelope, .-CapSense_RunNoiseEnvelope
 570              		.section	.text.CapSense_InitializeNoiseEnvelope,"ax",%progbits
 571              		.align	2
 572              		.global	CapSense_InitializeNoiseEnvelope
 573              		.code	16
 574              		.thumb_func
 575              		.type	CapSense_InitializeNoiseEnvelope, %function
 576              	CapSense_InitializeNoiseEnvelope:
 577              	.LFB18:
1326:Generated_Source\PSoC4/CapSense_Filter.c **** 
1327:Generated_Source\PSoC4/CapSense_Filter.c **** 
1328:Generated_Source\PSoC4/CapSense_Filter.c **** /*******************************************************************************
1329:Generated_Source\PSoC4/CapSense_Filter.c **** * Function Name: CapSense_InitializeNoiseEnvelope
1330:Generated_Source\PSoC4/CapSense_Filter.c **** ****************************************************************************//**
1331:Generated_Source\PSoC4/CapSense_Filter.c **** *
1332:Generated_Source\PSoC4/CapSense_Filter.c **** * \brief    Initializes the noise-envelope filter
1333:Generated_Source\PSoC4/CapSense_Filter.c **** *
1334:Generated_Source\PSoC4/CapSense_Filter.c **** * \details  Initializes the noise-envelope filter
1335:Generated_Source\PSoC4/CapSense_Filter.c **** *
1336:Generated_Source\PSoC4/CapSense_Filter.c **** * \param    widgetId Specifies the ID number of the widget.
1337:Generated_Source\PSoC4/CapSense_Filter.c **** * \param    sensorId Specifies the ID number of the sensor in the widget.
1338:Generated_Source\PSoC4/CapSense_Filter.c **** *
1339:Generated_Source\PSoC4/CapSense_Filter.c **** *******************************************************************************/
1340:Generated_Source\PSoC4/CapSense_Filter.c **** void CapSense_InitializeNoiseEnvelope(uint32 widgetId, uint32 sensorId)
1341:Generated_Source\PSoC4/CapSense_Filter.c **** {
 578              		.loc 1 1341 0
 579              		.cfi_startproc
 580              	.LVL88:
 581 0000 38B5     		push	{r3, r4, r5, lr}
 582              		.cfi_def_cfa_offset 16
 583              		.cfi_offset 3, -16
 584              		.cfi_offset 4, -12
 585              		.cfi_offset 5, -8
 586              		.cfi_offset 14, -4
 587              	.LVL89:
1342:Generated_Source\PSoC4/CapSense_Filter.c ****     CapSense_FLASH_WD_STRUCT const *ptrWidget = &CapSense_dsFlash.wdgtArray[widgetId];
1343:Generated_Source\PSoC4/CapSense_Filter.c ****     CapSense_RAM_WD_BASE_STRUCT *ptrWidgetRam = ptrWidget->ptr2WdgtRam;
 588              		.loc 1 1343 0
 589 0002 2C23     		mov	r3, #44
 590 0004 5843     		mul	r0, r3
 591              	.LVL90:
 592 0006 084B     		ldr	r3, .L40
 593 0008 1818     		add	r0, r3, r0
 594              	.LVL91:
 595 000a 4468     		ldr	r4, [r0, #4]
 596              	.LVL92:
ARM GAS  C:\Users\TB1014~1\AppData\Local\Temp\ccLivewv.s 			page 36


1344:Generated_Source\PSoC4/CapSense_Filter.c ****     CapSense_RAM_SNS_STRUCT *ptrSensor = NULL;    
1345:Generated_Source\PSoC4/CapSense_Filter.c ****     SMARTSENSE_CSD_NOISE_ENVELOPE_STRUCT *ptrNoiseEnvelope = NULL;
1346:Generated_Source\PSoC4/CapSense_Filter.c **** 
1347:Generated_Source\PSoC4/CapSense_Filter.c ****     /* Find pointer to specified sensor object */
1348:Generated_Source\PSoC4/CapSense_Filter.c ****     ptrSensor = ptrWidget->ptr2SnsRam;
 597              		.loc 1 1348 0
 598 000c 8568     		ldr	r5, [r0, #8]
 599              	.LVL93:
1349:Generated_Source\PSoC4/CapSense_Filter.c ****     ptrSensor = &ptrSensor[sensorId];
 600              		.loc 1 1349 0
 601 000e 8B00     		lsl	r3, r1, #2
 602 0010 5B18     		add	r3, r3, r1
 603 0012 5B00     		lsl	r3, r3, #1
 604              	.LVL94:
1350:Generated_Source\PSoC4/CapSense_Filter.c ****     
1351:Generated_Source\PSoC4/CapSense_Filter.c ****     /* Find pointer to specified filter sensor object */
1352:Generated_Source\PSoC4/CapSense_Filter.c ****     ptrNoiseEnvelope = ptrWidget->ptr2NoiseEnvlp;
 605              		.loc 1 1352 0
 606 0014 426A     		ldr	r2, [r0, #36]
 607              	.LVL95:
1353:Generated_Source\PSoC4/CapSense_Filter.c ****     ptrNoiseEnvelope = &ptrNoiseEnvelope[sensorId];    
 608              		.loc 1 1353 0
 609 0016 4800     		lsl	r0, r1, #1
 610              	.LVL96:
 611 0018 4118     		add	r1, r0, r1
 612              	.LVL97:
 613 001a 8900     		lsl	r1, r1, #2
 614 001c 5218     		add	r2, r2, r1
 615              	.LVL98:
1354:Generated_Source\PSoC4/CapSense_Filter.c **** 
1355:Generated_Source\PSoC4/CapSense_Filter.c ****     SmartSense_InitializeNoiseEnvelope(ptrSensor->raw[0u], ptrWidgetRam->sigPFC, ptrNoiseEnvelope);
 616              		.loc 1 1355 0
 617 001e E85A     		ldrh	r0, [r5, r3]
 618 0020 218A     		ldrh	r1, [r4, #16]
 619 0022 FFF7FEFF 		bl	SmartSense_InitializeNoiseEnvelope
 620              	.LVL99:
1356:Generated_Source\PSoC4/CapSense_Filter.c **** }
 621              		.loc 1 1356 0
 622              		@ sp needed
 623              	.LVL100:
 624              	.LVL101:
 625 0026 38BD     		pop	{r3, r4, r5, pc}
 626              	.L41:
 627              		.align	2
 628              	.L40:
 629 0028 00000000 		.word	CapSense_dsFlash
 630              		.cfi_endproc
 631              	.LFE18:
 632              		.size	CapSense_InitializeNoiseEnvelope, .-CapSense_InitializeNoiseEnvelope
 633              		.section	.text.CapSense_FtIIR1stOrder,"ax",%progbits
 634              		.align	2
 635              		.global	CapSense_FtIIR1stOrder
 636              		.code	16
 637              		.thumb_func
 638              		.type	CapSense_FtIIR1stOrder, %function
 639              	CapSense_FtIIR1stOrder:
 640              	.LFB19:
ARM GAS  C:\Users\TB1014~1\AppData\Local\Temp\ccLivewv.s 			page 37


1357:Generated_Source\PSoC4/CapSense_Filter.c **** #endif /* #if CapSense_CSD_AUTOTUNE & CapSense_CSD_SS_TH_EN */
1358:Generated_Source\PSoC4/CapSense_Filter.c **** 
1359:Generated_Source\PSoC4/CapSense_Filter.c **** 
1360:Generated_Source\PSoC4/CapSense_Filter.c **** #if (CapSense_POS_MEDIAN_FILTER_EN || CapSense_REGULAR_RC_MEDIAN_FILTER_EN || CapSense_PROX_RC_MEDI
1361:Generated_Source\PSoC4/CapSense_Filter.c **** /*******************************************************************************
1362:Generated_Source\PSoC4/CapSense_Filter.c **** * Function Name: CapSense_FtMedian
1363:Generated_Source\PSoC4/CapSense_Filter.c **** ****************************************************************************//**
1364:Generated_Source\PSoC4/CapSense_Filter.c **** *
1365:Generated_Source\PSoC4/CapSense_Filter.c **** * \brief    Return the median value from the three passed arguments.
1366:Generated_Source\PSoC4/CapSense_Filter.c **** *
1367:Generated_Source\PSoC4/CapSense_Filter.c **** * \details  Return the median value from the three passed arguments.
1368:Generated_Source\PSoC4/CapSense_Filter.c **** *
1369:Generated_Source\PSoC4/CapSense_Filter.c **** * \param    x1 The first value to be compared.
1370:Generated_Source\PSoC4/CapSense_Filter.c **** * \param    x2 The second value to be compared.
1371:Generated_Source\PSoC4/CapSense_Filter.c **** * \param    x3 The third value to be compared.
1372:Generated_Source\PSoC4/CapSense_Filter.c **** *
1373:Generated_Source\PSoC4/CapSense_Filter.c **** * \return   Returns the median value of input arguments.
1374:Generated_Source\PSoC4/CapSense_Filter.c **** *
1375:Generated_Source\PSoC4/CapSense_Filter.c **** *******************************************************************************/
1376:Generated_Source\PSoC4/CapSense_Filter.c **** uint32 CapSense_FtMedian(uint32 x1, uint32 x2, uint32 x3)
1377:Generated_Source\PSoC4/CapSense_Filter.c **** {
1378:Generated_Source\PSoC4/CapSense_Filter.c ****     uint32 tmp;
1379:Generated_Source\PSoC4/CapSense_Filter.c **** 
1380:Generated_Source\PSoC4/CapSense_Filter.c ****     if (x1 > x2)
1381:Generated_Source\PSoC4/CapSense_Filter.c ****     {
1382:Generated_Source\PSoC4/CapSense_Filter.c ****         tmp = x2;
1383:Generated_Source\PSoC4/CapSense_Filter.c ****         x2 = x1;
1384:Generated_Source\PSoC4/CapSense_Filter.c ****         x1 = tmp;
1385:Generated_Source\PSoC4/CapSense_Filter.c ****     }
1386:Generated_Source\PSoC4/CapSense_Filter.c **** 
1387:Generated_Source\PSoC4/CapSense_Filter.c ****     if (x2 > x3)
1388:Generated_Source\PSoC4/CapSense_Filter.c ****     {
1389:Generated_Source\PSoC4/CapSense_Filter.c ****         x2 = x3;
1390:Generated_Source\PSoC4/CapSense_Filter.c ****     }
1391:Generated_Source\PSoC4/CapSense_Filter.c **** 
1392:Generated_Source\PSoC4/CapSense_Filter.c ****     return ((x1 > x2) ? x1 : x2);
1393:Generated_Source\PSoC4/CapSense_Filter.c **** }
1394:Generated_Source\PSoC4/CapSense_Filter.c **** #endif /*CapSense_POS_MEDIAN_FILTER_EN || CapSense_REGULAR_RC_MEDIAN_FILTER_EN || CapSense_PROX_RC_
1395:Generated_Source\PSoC4/CapSense_Filter.c **** 
1396:Generated_Source\PSoC4/CapSense_Filter.c **** 
1397:Generated_Source\PSoC4/CapSense_Filter.c **** /*******************************************************************************
1398:Generated_Source\PSoC4/CapSense_Filter.c **** * Function Name: CapSense_FtIIR1stOrder
1399:Generated_Source\PSoC4/CapSense_Filter.c **** ****************************************************************************//**
1400:Generated_Source\PSoC4/CapSense_Filter.c **** *
1401:Generated_Source\PSoC4/CapSense_Filter.c **** * \brief    Return the filtered data by the IIR 1-st order algorithm
1402:Generated_Source\PSoC4/CapSense_Filter.c **** *
1403:Generated_Source\PSoC4/CapSense_Filter.c **** * \details  Return the filtered data by the IIR 1-st order algorithm
1404:Generated_Source\PSoC4/CapSense_Filter.c **** *
1405:Generated_Source\PSoC4/CapSense_Filter.c **** * \param    input      The data to be filtered.
1406:Generated_Source\PSoC4/CapSense_Filter.c **** * \param    prevOutput The previous filtered data.
1407:Generated_Source\PSoC4/CapSense_Filter.c **** * \param    n          The IIR filter coefficient (n/256).
1408:Generated_Source\PSoC4/CapSense_Filter.c **** * \param    shift      The parameter is used to shift input data to have free LSB 
1409:Generated_Source\PSoC4/CapSense_Filter.c **** *                       bits for a fraction storage of the filter output calculation.
1410:Generated_Source\PSoC4/CapSense_Filter.c **** *
1411:Generated_Source\PSoC4/CapSense_Filter.c **** * \return   Returns the filtered data.
1412:Generated_Source\PSoC4/CapSense_Filter.c **** *
1413:Generated_Source\PSoC4/CapSense_Filter.c **** *******************************************************************************/
ARM GAS  C:\Users\TB1014~1\AppData\Local\Temp\ccLivewv.s 			page 38


1414:Generated_Source\PSoC4/CapSense_Filter.c **** uint32 CapSense_FtIIR1stOrder(uint32 input, uint32 prevOutput, uint32 n, uint32 shift)
1415:Generated_Source\PSoC4/CapSense_Filter.c **** {   
 641              		.loc 1 1415 0
 642              		.cfi_startproc
 643              	.LVL102:
1416:Generated_Source\PSoC4/CapSense_Filter.c ****     uint32 output;
1417:Generated_Source\PSoC4/CapSense_Filter.c ****    
1418:Generated_Source\PSoC4/CapSense_Filter.c ****     /*
1419:Generated_Source\PSoC4/CapSense_Filter.c ****     * n - IIR filter coefficient (n/256)
1420:Generated_Source\PSoC4/CapSense_Filter.c ****     * shift - Used to shift input data to have free LSB bits
1421:Generated_Source\PSoC4/CapSense_Filter.c ****     * for fraction storage of filter output calculation
1422:Generated_Source\PSoC4/CapSense_Filter.c ****     */
1423:Generated_Source\PSoC4/CapSense_Filter.c ****     output = ((n * (input << shift)) + ((CapSense_IIR_COEFFICIENT_K - n) * prevOutput)) >> 8u;
 644              		.loc 1 1423 0
 645 0000 9840     		lsl	r0, r0, r3
 646              	.LVL103:
 647 0002 031C     		mov	r3, r0
 648              	.LVL104:
 649 0004 5343     		mul	r3, r2
 650 0006 8020     		mov	r0, #128
 651 0008 4000     		lsl	r0, r0, #1
 652 000a 801A     		sub	r0, r0, r2
 653 000c 4143     		mul	r1, r0
 654              	.LVL105:
 655 000e 5818     		add	r0, r3, r1
 656 0010 000A     		lsr	r0, r0, #8
 657              	.LVL106:
1424:Generated_Source\PSoC4/CapSense_Filter.c ****     
1425:Generated_Source\PSoC4/CapSense_Filter.c ****     /* Shift operation of output will be done in upper level API if needed */
1426:Generated_Source\PSoC4/CapSense_Filter.c ****     return output;
1427:Generated_Source\PSoC4/CapSense_Filter.c **** }
 658              		.loc 1 1427 0
 659              		@ sp needed
 660 0012 7047     		bx	lr
 661              		.cfi_endproc
 662              	.LFE19:
 663              		.size	CapSense_FtIIR1stOrder, .-CapSense_FtIIR1stOrder
 664              		.section	.text.CapSense_FtUpdateBaseline,"ax",%progbits
 665              		.align	2
 666              		.global	CapSense_FtUpdateBaseline
 667              		.code	16
 668              		.thumb_func
 669              		.type	CapSense_FtUpdateBaseline, %function
 670              	CapSense_FtUpdateBaseline:
 671              	.LFB5:
 325:Generated_Source\PSoC4/CapSense_Filter.c ****     uint32 sign;
 672              		.loc 1 325 0
 673              		.cfi_startproc
 674              	.LVL107:
 675 0000 F0B5     		push	{r4, r5, r6, r7, lr}
 676              		.cfi_def_cfa_offset 20
 677              		.cfi_offset 4, -20
 678              		.cfi_offset 5, -16
 679              		.cfi_offset 6, -12
 680              		.cfi_offset 7, -8
 681              		.cfi_offset 14, -4
 682 0002 83B0     		sub	sp, sp, #12
ARM GAS  C:\Users\TB1014~1\AppData\Local\Temp\ccLivewv.s 			page 39


 683              		.cfi_def_cfa_offset 32
 684 0004 071C     		mov	r7, r0
 685 0006 0E1C     		mov	r6, r1
 686 0008 0192     		str	r2, [sp, #4]
 687              	.LVL108:
 336:Generated_Source\PSoC4/CapSense_Filter.c ****     {               
 688              		.loc 1 336 0
 689 000a 0123     		mov	r3, #1
 690 000c 3BE0     		b	.L44
 691              	.LVL109:
 692              	.L51:
 348:Generated_Source\PSoC4/CapSense_Filter.c ****         {
 693              		.loc 1 348 0
 694 000e 6300     		lsl	r3, r4, #1
 695 0010 985B     		ldrh	r0, [r3, r6]
 696 0012 F318     		add	r3, r6, r3
 697 0014 5988     		ldrh	r1, [r3, #2]
 698 0016 8842     		cmp	r0, r1
 699 0018 05D3     		bcc	.L45
 350:Generated_Source\PSoC4/CapSense_Filter.c ****             sign = 1u;
 700              		.loc 1 350 0
 701 001a 431A     		sub	r3, r0, r1
 702              	.LVL110:
 352:Generated_Source\PSoC4/CapSense_Filter.c ****         }
 703              		.loc 1 352 0
 704 001c 3219     		add	r2, r6, r4
 705 001e 0025     		mov	r5, #0
 706 0020 1572     		strb	r5, [r2, #8]
 351:Generated_Source\PSoC4/CapSense_Filter.c ****             ptrSensor->negBslnRstCnt[channel] = 0u;
 707              		.loc 1 351 0
 708 0022 0122     		mov	r2, #1
 709 0024 01E0     		b	.L46
 710              	.LVL111:
 711              	.L45:
 356:Generated_Source\PSoC4/CapSense_Filter.c ****             sign = 0u;
 712              		.loc 1 356 0
 713 0026 0B1A     		sub	r3, r1, r0
 714              	.LVL112:
 357:Generated_Source\PSoC4/CapSense_Filter.c ****         }     
 715              		.loc 1 357 0
 716 0028 0022     		mov	r2, #0
 717              	.LVL113:
 718              	.L46:
 361:Generated_Source\PSoC4/CapSense_Filter.c ****         {
 719              		.loc 1 361 0
 720 002a 002A     		cmp	r2, #0
 721 002c 11D1     		bne	.L47
 361:Generated_Source\PSoC4/CapSense_Filter.c ****         {
 722              		.loc 1 361 0 is_stmt 0 discriminator 1
 723 002e 7D79     		ldrb	r5, [r7, #5]
 724 0030 9D42     		cmp	r5, r3
 725 0032 0ED2     		bcs	.L47
 363:Generated_Source\PSoC4/CapSense_Filter.c ****             {                
 726              		.loc 1 363 0 is_stmt 1
 727 0034 3319     		add	r3, r6, r4
 728              	.LVL114:
 729 0036 1B7A     		ldrb	r3, [r3, #8]
ARM GAS  C:\Users\TB1014~1\AppData\Local\Temp\ccLivewv.s 			page 40


 730 0038 3A7A     		ldrb	r2, [r7, #8]
 731              	.LVL115:
 732 003a 9342     		cmp	r3, r2
 733 003c 05D3     		bcc	.L48
 365:Generated_Source\PSoC4/CapSense_Filter.c ****             }
 734              		.loc 1 365 0
 735 003e 301C     		mov	r0, r6
 736 0040 0199     		ldr	r1, [sp, #4]
 737 0042 221C     		mov	r2, r4
 738 0044 FFF7FEFF 		bl	CapSense_FtInitializeBaselineChannel
 739              	.LVL116:
 740 0048 1CE0     		b	.L49
 741              	.L48:
 369:Generated_Source\PSoC4/CapSense_Filter.c ****             }
 742              		.loc 1 369 0
 743 004a 3219     		add	r2, r6, r4
 744 004c 0133     		add	r3, r3, #1
 745 004e 1372     		strb	r3, [r2, #8]
 746 0050 18E0     		b	.L49
 747              	.LVL117:
 748              	.L47:
 376:Generated_Source\PSoC4/CapSense_Filter.c ****                     ((difference < (uint32) ptrWidgetRam->nNoiseTh) && (sign == 0u)))
 749              		.loc 1 376 0
 750 0052 3D79     		ldrb	r5, [r7, #4]
 751 0054 9D42     		cmp	r5, r3
 752 0056 04D2     		bcs	.L50
 377:Generated_Source\PSoC4/CapSense_Filter.c ****                 {
 753              		.loc 1 377 0 discriminator 1
 754 0058 7D79     		ldrb	r5, [r7, #5]
 376:Generated_Source\PSoC4/CapSense_Filter.c ****                     ((difference < (uint32) ptrWidgetRam->nNoiseTh) && (sign == 0u)))
 755              		.loc 1 376 0 discriminator 1
 756 005a 9D42     		cmp	r5, r3
 757 005c 12D9     		bls	.L49
 377:Generated_Source\PSoC4/CapSense_Filter.c ****                 {
 758              		.loc 1 377 0
 759 005e 002A     		cmp	r2, #0
 760 0060 10D1     		bne	.L49
 761              	.L50:
 383:Generated_Source\PSoC4/CapSense_Filter.c ****                 {
 762              		.loc 1 383 0
 763 0062 6B46     		mov	r3, sp
 764              	.LVL118:
 765 0064 1B79     		ldrb	r3, [r3, #4]
 766 0066 062B     		cmp	r3, #6
 767 0068 0CD0     		beq	.L49
 387:Generated_Source\PSoC4/CapSense_Filter.c ****                             history |= ptrSensor->bslnExt[channel];
 768              		.loc 1 387 0
 769 006a 0902     		lsl	r1, r1, #8
 770              	.LVL119:
 388:Generated_Source\PSoC4/CapSense_Filter.c ****                         #else
 771              		.loc 1 388 0
 772 006c 3519     		add	r5, r6, r4
 773 006e 2B79     		ldrb	r3, [r5, #4]
 774 0070 1943     		orr	r1, r3
 775              	.LVL120:
 393:Generated_Source\PSoC4/CapSense_Filter.c ****                                         (uint32)ptrSensor->raw[channel],
 776              		.loc 1 393 0
ARM GAS  C:\Users\TB1014~1\AppData\Local\Temp\ccLivewv.s 			page 41


 777 0072 0222     		mov	r2, #2
 778              	.LVL121:
 779 0074 0823     		mov	r3, #8
 780 0076 FFF7FEFF 		bl	CapSense_FtIIR1stOrder
 781              	.LVL122:
 400:Generated_Source\PSoC4/CapSense_Filter.c ****                             ptrSensor->bslnExt[channel] = LO8(history);
 782              		.loc 1 400 0
 783 007a 020A     		lsr	r2, r0, #8
 784 007c 6300     		lsl	r3, r4, #1
 785 007e F318     		add	r3, r6, r3
 786 0080 5A80     		strh	r2, [r3, #2]
 401:Generated_Source\PSoC4/CapSense_Filter.c ****                         #else
 787              		.loc 1 401 0
 788 0082 2871     		strb	r0, [r5, #4]
 789              	.LVL123:
 790              	.L49:
 791 0084 231C     		mov	r3, r4
 792              	.LVL124:
 793              	.L44:
 336:Generated_Source\PSoC4/CapSense_Filter.c ****     {               
 794              		.loc 1 336 0 discriminator 1
 795 0086 5C1E     		sub	r4, r3, #1
 796              	.LVL125:
 797 0088 002B     		cmp	r3, #0
 798 008a C0D1     		bne	.L51
 449:Generated_Source\PSoC4/CapSense_Filter.c **** 
 799              		.loc 1 449 0
 800 008c 0020     		mov	r0, #0
 801 008e 03B0     		add	sp, sp, #12
 802              		@ sp needed
 803              	.LVL126:
 804              	.LVL127:
 805              	.LVL128:
 806 0090 F0BD     		pop	{r4, r5, r6, r7, pc}
 807              		.cfi_endproc
 808              	.LFE5:
 809              		.size	CapSense_FtUpdateBaseline, .-CapSense_FtUpdateBaseline
 810 0092 C046     		.section	.text.CapSense_UpdateSensorBaseline,"ax",%progbits
 811              		.align	2
 812              		.global	CapSense_UpdateSensorBaseline
 813              		.code	16
 814              		.thumb_func
 815              		.type	CapSense_UpdateSensorBaseline, %function
 816              	CapSense_UpdateSensorBaseline:
 817              	.LFB4:
 267:Generated_Source\PSoC4/CapSense_Filter.c ****     uint32 result = CYRET_SUCCESS;
 818              		.loc 1 267 0
 819              		.cfi_startproc
 820              	.LVL129:
 821 0000 08B5     		push	{r3, lr}
 822              		.cfi_def_cfa_offset 8
 823              		.cfi_offset 3, -8
 824              		.cfi_offset 14, -4
 825              	.LVL130:
 272:Generated_Source\PSoC4/CapSense_Filter.c **** 
 826              		.loc 1 272 0
 827 0002 2C23     		mov	r3, #44
ARM GAS  C:\Users\TB1014~1\AppData\Local\Temp\ccLivewv.s 			page 42


 828 0004 5843     		mul	r0, r3
 829              	.LVL131:
 830 0006 064B     		ldr	r3, .L53
 831 0008 1B18     		add	r3, r3, r0
 832              	.LVL132:
 833 000a 5868     		ldr	r0, [r3, #4]
 834              	.LVL133:
 276:Generated_Source\PSoC4/CapSense_Filter.c ****     result = CapSense_FtUpdateBaseline(ptrWidgetRam, ptrSensor, (uint32)ptrWidget->wdgtType);
 835              		.loc 1 276 0
 836 000c 8A00     		lsl	r2, r1, #2
 837 000e 5118     		add	r1, r2, r1
 838              	.LVL134:
 839 0010 4900     		lsl	r1, r1, #1
 840 0012 9A68     		ldr	r2, [r3, #8]
 841 0014 9446     		mov	ip, r2
 842 0016 6144     		add	r1, r1, ip
 843              	.LVL135:
 277:Generated_Source\PSoC4/CapSense_Filter.c ****     
 844              		.loc 1 277 0
 845 0018 1A7E     		ldrb	r2, [r3, #24]
 846 001a FFF7FEFF 		bl	CapSense_FtUpdateBaseline
 847              	.LVL136:
 288:Generated_Source\PSoC4/CapSense_Filter.c **** 
 848              		.loc 1 288 0
 849              		@ sp needed
 850 001e 08BD     		pop	{r3, pc}
 851              	.L54:
 852              		.align	2
 853              	.L53:
 854 0020 00000000 		.word	CapSense_dsFlash
 855              		.cfi_endproc
 856              	.LFE4:
 857              		.size	CapSense_UpdateSensorBaseline, .-CapSense_UpdateSensorBaseline
 858              		.section	.text.CapSense_UpdateWidgetBaseline,"ax",%progbits
 859              		.align	2
 860              		.global	CapSense_UpdateWidgetBaseline
 861              		.code	16
 862              		.thumb_func
 863              		.type	CapSense_UpdateWidgetBaseline, %function
 864              	CapSense_UpdateWidgetBaseline:
 865              	.LFB3:
 210:Generated_Source\PSoC4/CapSense_Filter.c ****     uint32 sensorId;       
 866              		.loc 1 210 0
 867              		.cfi_startproc
 868              	.LVL137:
 869 0000 70B5     		push	{r4, r5, r6, lr}
 870              		.cfi_def_cfa_offset 16
 871              		.cfi_offset 4, -16
 872              		.cfi_offset 5, -12
 873              		.cfi_offset 6, -8
 874              		.cfi_offset 14, -4
 875 0002 061C     		mov	r6, r0
 876              	.LVL138:
 218:Generated_Source\PSoC4/CapSense_Filter.c ****     
 877              		.loc 1 218 0
 878 0004 2C23     		mov	r3, #44
 879 0006 4343     		mul	r3, r0
ARM GAS  C:\Users\TB1014~1\AppData\Local\Temp\ccLivewv.s 			page 43


 880 0008 074A     		ldr	r2, .L58
 881 000a D318     		add	r3, r2, r3
 882              	.LVL139:
 883 000c DB8A     		ldrh	r3, [r3, #22]
 884              	.LVL140:
 215:Generated_Source\PSoC4/CapSense_Filter.c ****     
 885              		.loc 1 215 0
 886 000e 0025     		mov	r5, #0
 220:Generated_Source\PSoC4/CapSense_Filter.c ****     {
 887              		.loc 1 220 0
 888 0010 05E0     		b	.L56
 889              	.LVL141:
 890              	.L57:
 222:Generated_Source\PSoC4/CapSense_Filter.c ****     }
 891              		.loc 1 222 0
 892 0012 301C     		mov	r0, r6
 893 0014 211C     		mov	r1, r4
 894 0016 FFF7FEFF 		bl	CapSense_UpdateSensorBaseline
 895              	.LVL142:
 896 001a 0543     		orr	r5, r0
 897              	.LVL143:
 220:Generated_Source\PSoC4/CapSense_Filter.c ****     {
 898              		.loc 1 220 0
 899 001c 231C     		mov	r3, r4
 900              	.LVL144:
 901              	.L56:
 220:Generated_Source\PSoC4/CapSense_Filter.c ****     {
 902              		.loc 1 220 0 is_stmt 0 discriminator 1
 903 001e 5C1E     		sub	r4, r3, #1
 904              	.LVL145:
 905 0020 002B     		cmp	r3, #0
 906 0022 F6D1     		bne	.L57
 226:Generated_Source\PSoC4/CapSense_Filter.c **** 
 907              		.loc 1 226 0 is_stmt 1
 908 0024 281C     		mov	r0, r5
 909              		@ sp needed
 910              	.LVL146:
 911              	.LVL147:
 912              	.LVL148:
 913 0026 70BD     		pop	{r4, r5, r6, pc}
 914              	.L59:
 915              		.align	2
 916              	.L58:
 917 0028 00000000 		.word	CapSense_dsFlash
 918              		.cfi_endproc
 919              	.LFE3:
 920              		.size	CapSense_UpdateWidgetBaseline, .-CapSense_UpdateWidgetBaseline
 921              		.section	.text.CapSense_UpdateAllBaselines,"ax",%progbits
 922              		.align	2
 923              		.global	CapSense_UpdateAllBaselines
 924              		.code	16
 925              		.thumb_func
 926              		.type	CapSense_UpdateAllBaselines, %function
 927              	CapSense_UpdateAllBaselines:
 928              	.LFB2:
 165:Generated_Source\PSoC4/CapSense_Filter.c ****     uint32 widgetId; 
 929              		.loc 1 165 0
ARM GAS  C:\Users\TB1014~1\AppData\Local\Temp\ccLivewv.s 			page 44


 930              		.cfi_startproc
 931 0000 38B5     		push	{r3, r4, r5, lr}
 932              		.cfi_def_cfa_offset 16
 933              		.cfi_offset 3, -16
 934              		.cfi_offset 4, -12
 935              		.cfi_offset 5, -8
 936              		.cfi_offset 14, -4
 937              	.LVL149:
 167:Generated_Source\PSoC4/CapSense_Filter.c ****     
 938              		.loc 1 167 0
 939 0002 0025     		mov	r5, #0
 169:Generated_Source\PSoC4/CapSense_Filter.c ****     {            
 940              		.loc 1 169 0
 941 0004 0823     		mov	r3, #8
 942 0006 04E0     		b	.L61
 943              	.LVL150:
 944              	.L62:
 171:Generated_Source\PSoC4/CapSense_Filter.c ****     }      
 945              		.loc 1 171 0
 946 0008 201C     		mov	r0, r4
 947 000a FFF7FEFF 		bl	CapSense_UpdateWidgetBaseline
 948              	.LVL151:
 949 000e 0543     		orr	r5, r0
 950              	.LVL152:
 169:Generated_Source\PSoC4/CapSense_Filter.c ****     {            
 951              		.loc 1 169 0
 952 0010 231C     		mov	r3, r4
 953              	.LVL153:
 954              	.L61:
 169:Generated_Source\PSoC4/CapSense_Filter.c ****     {            
 955              		.loc 1 169 0 is_stmt 0 discriminator 1
 956 0012 5C1E     		sub	r4, r3, #1
 957              	.LVL154:
 958 0014 002B     		cmp	r3, #0
 959 0016 F7D1     		bne	.L62
 175:Generated_Source\PSoC4/CapSense_Filter.c ****   
 960              		.loc 1 175 0 is_stmt 1
 961 0018 281C     		mov	r0, r5
 962              		@ sp needed
 963              	.LVL155:
 964              	.LVL156:
 965 001a 38BD     		pop	{r3, r4, r5, pc}
 966              		.cfi_endproc
 967              	.LFE2:
 968              		.size	CapSense_UpdateAllBaselines, .-CapSense_UpdateAllBaselines
 969              		.section	.text.CapSense_RunIIRInternal,"ax",%progbits
 970              		.align	2
 971              		.global	CapSense_RunIIRInternal
 972              		.code	16
 973              		.thumb_func
 974              		.type	CapSense_RunIIRInternal, %function
 975              	CapSense_RunIIRInternal:
 976              	.LFB14:
 778:Generated_Source\PSoC4/CapSense_Filter.c ****     uint32 channel;
 977              		.loc 1 778 0
 978              		.cfi_startproc
 979              	.LVL157:
ARM GAS  C:\Users\TB1014~1\AppData\Local\Temp\ccLivewv.s 			page 45


 980 0000 F0B5     		push	{r4, r5, r6, r7, lr}
 981              		.cfi_def_cfa_offset 20
 982              		.cfi_offset 4, -20
 983              		.cfi_offset 5, -16
 984              		.cfi_offset 6, -12
 985              		.cfi_offset 7, -8
 986              		.cfi_offset 14, -4
 987 0002 83B0     		sub	sp, sp, #12
 988              		.cfi_def_cfa_offset 32
 989 0004 061C     		mov	r6, r0
 990 0006 0F1C     		mov	r7, r1
 991 0008 0192     		str	r2, [sp, #4]
 992              	.LVL158:
 782:Generated_Source\PSoC4/CapSense_Filter.c ****     {
 993              		.loc 1 782 0
 994 000a 0123     		mov	r3, #1
 995 000c 0EE0     		b	.L64
 996              	.LVL159:
 997              	.L66:
 784:Generated_Source\PSoC4/CapSense_Filter.c ****         {
 998              		.loc 1 784 0
 999 000e 6B46     		mov	r3, sp
 1000 0010 1B79     		ldrb	r3, [r3, #4]
 1001 0012 062B     		cmp	r3, #6
 1002 0014 09D0     		beq	.L65
 798:Generated_Source\PSoC4/CapSense_Filter.c ****                                                         (uint32)ptrFilterHistObj.ptrRegular->regula
 1003              		.loc 1 798 0
 1004 0016 6500     		lsl	r5, r4, #1
 1005 0018 E85B     		ldrh	r0, [r5, r7]
 1006              	.LVL160:
 799:Generated_Source\PSoC4/CapSense_Filter.c ****                                                         CapSense_REGULAR_IIR_RC_N,
 1007              		.loc 1 799 0
 1008 001a A95B     		ldrh	r1, [r5, r6]
 798:Generated_Source\PSoC4/CapSense_Filter.c ****                                                         (uint32)ptrFilterHistObj.ptrRegular->regula
 1009              		.loc 1 798 0
 1010 001c 8022     		mov	r2, #128
 1011 001e 0023     		mov	r3, #0
 1012 0020 FFF7FEFF 		bl	CapSense_FtIIR1stOrder
 1013              	.LVL161:
 802:Generated_Source\PSoC4/CapSense_Filter.c ****                     ptrSensorObj->raw[channel] = LO16(temp >>CapSense_REGULAR_IIR_RC_SHIFT);
 1014              		.loc 1 802 0
 1015 0024 80B2     		uxth	r0, r0
 1016              	.LVL162:
 1017 0026 A853     		strh	r0, [r5, r6]
 803:Generated_Source\PSoC4/CapSense_Filter.c ****                 #endif /* (CapSense_REGULAR_IIR_RC_TYPE == CapSense_IIR_FILTER_PERFORMANCE) */
 1018              		.loc 1 803 0
 1019 0028 E853     		strh	r0, [r5, r7]
 1020              	.L65:
 778:Generated_Source\PSoC4/CapSense_Filter.c ****     uint32 channel;
 1021              		.loc 1 778 0 discriminator 1
 1022 002a 231C     		mov	r3, r4
 1023              	.LVL163:
 1024              	.L64:
 782:Generated_Source\PSoC4/CapSense_Filter.c ****     {
 1025              		.loc 1 782 0 discriminator 1
 1026 002c 5C1E     		sub	r4, r3, #1
 1027              	.LVL164:
ARM GAS  C:\Users\TB1014~1\AppData\Local\Temp\ccLivewv.s 			page 46


 1028 002e 002B     		cmp	r3, #0
 1029 0030 EDD1     		bne	.L66
 831:Generated_Source\PSoC4/CapSense_Filter.c **** #endif /* #if (CapSense_REGULAR_RC_IIR_FILTER_EN || CapSense_PROX_RC_IIR_FILTER_EN) */
 1030              		.loc 1 831 0
 1031 0032 03B0     		add	sp, sp, #12
 1032              		@ sp needed
 1033              	.LVL165:
 1034              	.LVL166:
 1035 0034 F0BD     		pop	{r4, r5, r6, r7, pc}
 1036              		.cfi_endproc
 1037              	.LFE14:
 1038              		.size	CapSense_RunIIRInternal, .-CapSense_RunIIRInternal
 1039 0036 C046     		.section	.text.CapSense_RunIIR,"ax",%progbits
 1040              		.align	2
 1041              		.global	CapSense_RunIIR
 1042              		.code	16
 1043              		.thumb_func
 1044              		.type	CapSense_RunIIR, %function
 1045              	CapSense_RunIIR:
 1046              	.LFB12:
 689:Generated_Source\PSoC4/CapSense_Filter.c ****     CapSense_FLASH_WD_STRUCT const *ptrWidget = &CapSense_dsFlash.wdgtArray[widgetId];      
 1047              		.loc 1 689 0
 1048              		.cfi_startproc
 1049              	.LVL167:
 1050 0000 10B5     		push	{r4, lr}
 1051              		.cfi_def_cfa_offset 8
 1052              		.cfi_offset 4, -8
 1053              		.cfi_offset 14, -4
 1054              	.LVL168:
 695:Generated_Source\PSoC4/CapSense_Filter.c ****     ptrSensor = &ptrSensor[sensorId];
 1055              		.loc 1 695 0
 1056 0002 2C23     		mov	r3, #44
 1057 0004 5843     		mul	r0, r3
 1058              	.LVL169:
 1059 0006 094A     		ldr	r2, .L69
 1060 0008 1218     		add	r2, r2, r0
 1061              	.LVL170:
 696:Generated_Source\PSoC4/CapSense_Filter.c ****         
 1062              		.loc 1 696 0
 1063 000a 8B00     		lsl	r3, r1, #2
 1064 000c 5B18     		add	r3, r3, r1
 1065 000e 5B00     		lsl	r3, r3, #1
 1066 0010 9068     		ldr	r0, [r2, #8]
 1067 0012 8446     		mov	ip, r0
 1068 0014 6344     		add	r3, r3, ip
 1069              	.LVL171:
 699:Generated_Source\PSoC4/CapSense_Filter.c ****     
 1070              		.loc 1 699 0
 1071 0016 D468     		ldr	r4, [r2, #12]
 1072 0018 201C     		mov	r0, r4
 1073              	.LVL172:
 701:Generated_Source\PSoC4/CapSense_Filter.c ****     {
 1074              		.loc 1 701 0
 1075 001a 127E     		ldrb	r2, [r2, #24]
 1076              	.LVL173:
 1077 001c 062A     		cmp	r2, #6
 1078 001e 01D0     		beq	.L68
ARM GAS  C:\Users\TB1014~1\AppData\Local\Temp\ccLivewv.s 			page 47


 704:Generated_Source\PSoC4/CapSense_Filter.c ****         #endif /* (CapSense_REGULAR_SENSOR_EN) */
 1079              		.loc 1 704 0
 1080 0020 4900     		lsl	r1, r1, #1
 1081              	.LVL174:
 1082 0022 6018     		add	r0, r4, r1
 1083              	.L68:
 714:Generated_Source\PSoC4/CapSense_Filter.c **** }
 1084              		.loc 1 714 0
 1085 0024 191C     		mov	r1, r3
 1086 0026 FFF7FEFF 		bl	CapSense_RunIIRInternal
 1087              	.LVL175:
 715:Generated_Source\PSoC4/CapSense_Filter.c ****     
 1088              		.loc 1 715 0
 1089              		@ sp needed
 1090 002a 10BD     		pop	{r4, pc}
 1091              	.L70:
 1092              		.align	2
 1093              	.L69:
 1094 002c 00000000 		.word	CapSense_dsFlash
 1095              		.cfi_endproc
 1096              	.LFE12:
 1097              		.size	CapSense_RunIIR, .-CapSense_RunIIR
 1098              		.section	.text.CapSense_FtRunEnabledFiltersInternal,"ax",%progbits
 1099              		.align	2
 1100              		.global	CapSense_FtRunEnabledFiltersInternal
 1101              		.code	16
 1102              		.thumb_func
 1103              		.type	CapSense_FtRunEnabledFiltersInternal, %function
 1104              	CapSense_FtRunEnabledFiltersInternal:
 1105              	.LFB16:
1278:Generated_Source\PSoC4/CapSense_Filter.c ****     #if (CapSense_REGULAR_RC_MEDIAN_FILTER_EN || CapSense_PROX_RC_MEDIAN_FILTER_EN)
 1106              		.loc 1 1278 0
 1107              		.cfi_startproc
 1108              	.LVL176:
 1109 0000 08B5     		push	{r3, lr}
 1110              		.cfi_def_cfa_offset 8
 1111              		.cfi_offset 3, -8
 1112              		.cfi_offset 14, -4
1284:Generated_Source\PSoC4/CapSense_Filter.c ****     #endif /* (CapSense_REGULAR_RC_IIR_FILTER_EN || CapSense_PROX_RC_IIR_FILTER_EN) */ 
 1113              		.loc 1 1284 0
 1114 0002 FFF7FEFF 		bl	CapSense_RunIIRInternal
 1115              	.LVL177:
1290:Generated_Source\PSoC4/CapSense_Filter.c **** #endif /* (CapSense_REGULAR_RC_FILTER_EN || CapSense_PROX_RC_FILTER_EN) */
 1116              		.loc 1 1290 0
 1117              		@ sp needed
 1118 0006 08BD     		pop	{r3, pc}
 1119              		.cfi_endproc
 1120              	.LFE16:
 1121              		.size	CapSense_FtRunEnabledFiltersInternal, .-CapSense_FtRunEnabledFiltersInternal
 1122              		.section	.text.CapSense_FtRunEnabledFilters,"ax",%progbits
 1123              		.align	2
 1124              		.global	CapSense_FtRunEnabledFilters
 1125              		.code	16
 1126              		.thumb_func
 1127              		.type	CapSense_FtRunEnabledFilters, %function
 1128              	CapSense_FtRunEnabledFilters:
 1129              	.LFB15:
ARM GAS  C:\Users\TB1014~1\AppData\Local\Temp\ccLivewv.s 			page 48


1234:Generated_Source\PSoC4/CapSense_Filter.c ****     CapSense_FLASH_WD_STRUCT const *ptrWidget = &CapSense_dsFlash.wdgtArray[widgetId];      
 1130              		.loc 1 1234 0
 1131              		.cfi_startproc
 1132              	.LVL178:
 1133 0000 10B5     		push	{r4, lr}
 1134              		.cfi_def_cfa_offset 8
 1135              		.cfi_offset 4, -8
 1136              		.cfi_offset 14, -4
 1137              	.LVL179:
1240:Generated_Source\PSoC4/CapSense_Filter.c ****     ptrSensor = &ptrSensor[sensorId];
 1138              		.loc 1 1240 0
 1139 0002 2C23     		mov	r3, #44
 1140 0004 5843     		mul	r0, r3
 1141              	.LVL180:
 1142 0006 094A     		ldr	r2, .L74
 1143 0008 1218     		add	r2, r2, r0
 1144              	.LVL181:
1241:Generated_Source\PSoC4/CapSense_Filter.c ****     
 1145              		.loc 1 1241 0
 1146 000a 8B00     		lsl	r3, r1, #2
 1147 000c 5B18     		add	r3, r3, r1
 1148 000e 5B00     		lsl	r3, r3, #1
 1149 0010 9068     		ldr	r0, [r2, #8]
 1150 0012 8446     		mov	ip, r0
 1151 0014 6344     		add	r3, r3, ip
 1152              	.LVL182:
1244:Generated_Source\PSoC4/CapSense_Filter.c ****     
 1153              		.loc 1 1244 0
 1154 0016 D468     		ldr	r4, [r2, #12]
 1155 0018 201C     		mov	r0, r4
 1156              	.LVL183:
1246:Generated_Source\PSoC4/CapSense_Filter.c ****     {
 1157              		.loc 1 1246 0
 1158 001a 127E     		ldrb	r2, [r2, #24]
 1159              	.LVL184:
 1160 001c 062A     		cmp	r2, #6
 1161 001e 01D0     		beq	.L73
1249:Generated_Source\PSoC4/CapSense_Filter.c ****         #endif /* (CapSense_REGULAR_SENSOR_EN) */
 1162              		.loc 1 1249 0
 1163 0020 4900     		lsl	r1, r1, #1
 1164              	.LVL185:
 1165 0022 6018     		add	r0, r4, r1
 1166              	.L73:
1259:Generated_Source\PSoC4/CapSense_Filter.c **** }
 1167              		.loc 1 1259 0
 1168 0024 191C     		mov	r1, r3
 1169 0026 FFF7FEFF 		bl	CapSense_FtRunEnabledFiltersInternal
 1170              	.LVL186:
1260:Generated_Source\PSoC4/CapSense_Filter.c **** 
 1171              		.loc 1 1260 0
 1172              		@ sp needed
 1173 002a 10BD     		pop	{r4, pc}
 1174              	.L75:
 1175              		.align	2
 1176              	.L74:
 1177 002c 00000000 		.word	CapSense_dsFlash
 1178              		.cfi_endproc
ARM GAS  C:\Users\TB1014~1\AppData\Local\Temp\ccLivewv.s 			page 49


 1179              	.LFE15:
 1180              		.size	CapSense_FtRunEnabledFilters, .-CapSense_FtRunEnabledFilters
 1181              		.text
 1182              	.Letext0:
 1183              		.file 2 "Generated_Source\\PSoC4\\cytypes.h"
 1184              		.file 3 "Generated_Source\\PSoC4\\CapSense_Configuration.h"
 1185              		.file 4 "Generated_Source\\PSoC4\\CapSense_SmartSense_LL.h"
 1186              		.file 5 "Generated_Source\\PSoC4\\CapSense_Structure.h"
 1187              		.section	.debug_info,"",%progbits
 1188              	.Ldebug_info0:
 1189 0000 860D0000 		.4byte	0xd86
 1190 0004 0400     		.2byte	0x4
 1191 0006 00000000 		.4byte	.Ldebug_abbrev0
 1192 000a 04       		.byte	0x4
 1193 000b 01       		.uleb128 0x1
 1194 000c 29000000 		.4byte	.LASF124
 1195 0010 01       		.byte	0x1
 1196 0011 24090000 		.4byte	.LASF125
 1197 0015 7C040000 		.4byte	.LASF126
 1198 0019 00000000 		.4byte	.Ldebug_ranges0+0
 1199 001d 00000000 		.4byte	0
 1200 0021 00000000 		.4byte	.Ldebug_line0
 1201 0025 02       		.uleb128 0x2
 1202 0026 01       		.byte	0x1
 1203 0027 06       		.byte	0x6
 1204 0028 4A080000 		.4byte	.LASF0
 1205 002c 02       		.uleb128 0x2
 1206 002d 01       		.byte	0x1
 1207 002e 08       		.byte	0x8
 1208 002f C9070000 		.4byte	.LASF1
 1209 0033 02       		.uleb128 0x2
 1210 0034 02       		.byte	0x2
 1211 0035 05       		.byte	0x5
 1212 0036 2E060000 		.4byte	.LASF2
 1213 003a 02       		.uleb128 0x2
 1214 003b 02       		.byte	0x2
 1215 003c 07       		.byte	0x7
 1216 003d 7D080000 		.4byte	.LASF3
 1217 0041 02       		.uleb128 0x2
 1218 0042 04       		.byte	0x4
 1219 0043 05       		.byte	0x5
 1220 0044 55060000 		.4byte	.LASF4
 1221 0048 02       		.uleb128 0x2
 1222 0049 04       		.byte	0x4
 1223 004a 07       		.byte	0x7
 1224 004b 31070000 		.4byte	.LASF5
 1225 004f 02       		.uleb128 0x2
 1226 0050 08       		.byte	0x8
 1227 0051 05       		.byte	0x5
 1228 0052 5B040000 		.4byte	.LASF6
 1229 0056 02       		.uleb128 0x2
 1230 0057 08       		.byte	0x8
 1231 0058 07       		.byte	0x7
 1232 0059 0C020000 		.4byte	.LASF7
 1233 005d 03       		.uleb128 0x3
 1234 005e 04       		.byte	0x4
 1235 005f 05       		.byte	0x5
ARM GAS  C:\Users\TB1014~1\AppData\Local\Temp\ccLivewv.s 			page 50


 1236 0060 696E7400 		.ascii	"int\000"
 1237 0064 02       		.uleb128 0x2
 1238 0065 04       		.byte	0x4
 1239 0066 07       		.byte	0x7
 1240 0067 E6000000 		.4byte	.LASF8
 1241 006b 04       		.uleb128 0x4
 1242 006c 9D080000 		.4byte	.LASF9
 1243 0070 02       		.byte	0x2
 1244 0071 B901     		.2byte	0x1b9
 1245 0073 2C000000 		.4byte	0x2c
 1246 0077 04       		.uleb128 0x4
 1247 0078 FE030000 		.4byte	.LASF10
 1248 007c 02       		.byte	0x2
 1249 007d BA01     		.2byte	0x1ba
 1250 007f 3A000000 		.4byte	0x3a
 1251 0083 04       		.uleb128 0x4
 1252 0084 9A050000 		.4byte	.LASF11
 1253 0088 02       		.byte	0x2
 1254 0089 BB01     		.2byte	0x1bb
 1255 008b 48000000 		.4byte	0x48
 1256 008f 02       		.uleb128 0x2
 1257 0090 04       		.byte	0x4
 1258 0091 04       		.byte	0x4
 1259 0092 E1010000 		.4byte	.LASF12
 1260 0096 02       		.uleb128 0x2
 1261 0097 08       		.byte	0x8
 1262 0098 04       		.byte	0x4
 1263 0099 A3080000 		.4byte	.LASF13
 1264 009d 02       		.uleb128 0x2
 1265 009e 01       		.byte	0x1
 1266 009f 08       		.byte	0x8
 1267 00a0 D3030000 		.4byte	.LASF14
 1268 00a4 04       		.uleb128 0x4
 1269 00a5 A6070000 		.4byte	.LASF15
 1270 00a9 02       		.byte	0x2
 1271 00aa 5B02     		.2byte	0x25b
 1272 00ac 48000000 		.4byte	0x48
 1273 00b0 02       		.uleb128 0x2
 1274 00b1 04       		.byte	0x4
 1275 00b2 07       		.byte	0x7
 1276 00b3 28070000 		.4byte	.LASF16
 1277 00b7 05       		.uleb128 0x5
 1278 00b8 04       		.byte	0x4
 1279 00b9 06       		.uleb128 0x6
 1280 00ba F0070000 		.4byte	.LASF17
 1281 00be 03       		.byte	0x3
 1282 00bf F9       		.byte	0xf9
 1283 00c0 77000000 		.4byte	0x77
 1284 00c4 06       		.uleb128 0x6
 1285 00c5 10040000 		.4byte	.LASF18
 1286 00c9 03       		.byte	0x3
 1287 00ca FD       		.byte	0xfd
 1288 00cb 6B000000 		.4byte	0x6b
 1289 00cf 07       		.uleb128 0x7
 1290 00d0 04       		.byte	0x4
 1291 00d1 6B000000 		.4byte	0x6b
 1292 00d5 08       		.uleb128 0x8
ARM GAS  C:\Users\TB1014~1\AppData\Local\Temp\ccLivewv.s 			page 51


 1293 00d6 0C       		.byte	0xc
 1294 00d7 04       		.byte	0x4
 1295 00d8 6C       		.byte	0x6c
 1296 00d9 32010000 		.4byte	0x132
 1297 00dd 09       		.uleb128 0x9
 1298 00de B8080000 		.4byte	.LASF19
 1299 00e2 04       		.byte	0x4
 1300 00e3 6E       		.byte	0x6e
 1301 00e4 77000000 		.4byte	0x77
 1302 00e8 00       		.byte	0
 1303 00e9 09       		.uleb128 0x9
 1304 00ea BF080000 		.4byte	.LASF20
 1305 00ee 04       		.byte	0x4
 1306 00ef 6F       		.byte	0x6f
 1307 00f0 77000000 		.4byte	0x77
 1308 00f4 02       		.byte	0x2
 1309 00f5 09       		.uleb128 0x9
 1310 00f6 C6080000 		.4byte	.LASF21
 1311 00fa 04       		.byte	0x4
 1312 00fb 70       		.byte	0x70
 1313 00fc 77000000 		.4byte	0x77
 1314 0100 04       		.byte	0x4
 1315 0101 09       		.uleb128 0x9
 1316 0102 CD080000 		.4byte	.LASF22
 1317 0106 04       		.byte	0x4
 1318 0107 71       		.byte	0x71
 1319 0108 77000000 		.4byte	0x77
 1320 010c 06       		.byte	0x6
 1321 010d 09       		.uleb128 0x9
 1322 010e D4080000 		.4byte	.LASF23
 1323 0112 04       		.byte	0x4
 1324 0113 72       		.byte	0x72
 1325 0114 77000000 		.4byte	0x77
 1326 0118 08       		.byte	0x8
 1327 0119 09       		.uleb128 0x9
 1328 011a DB080000 		.4byte	.LASF24
 1329 011e 04       		.byte	0x4
 1330 011f 73       		.byte	0x73
 1331 0120 6B000000 		.4byte	0x6b
 1332 0124 0A       		.byte	0xa
 1333 0125 09       		.uleb128 0x9
 1334 0126 E2080000 		.4byte	.LASF25
 1335 012a 04       		.byte	0x4
 1336 012b 74       		.byte	0x74
 1337 012c 6B000000 		.4byte	0x6b
 1338 0130 0B       		.byte	0xb
 1339 0131 00       		.byte	0
 1340 0132 06       		.uleb128 0x6
 1341 0133 89030000 		.4byte	.LASF26
 1342 0137 04       		.byte	0x4
 1343 0138 75       		.byte	0x75
 1344 0139 D5000000 		.4byte	0xd5
 1345 013d 0A       		.uleb128 0xa
 1346 013e 01       		.byte	0x1
 1347 013f 05       		.byte	0x5
 1348 0140 4F       		.byte	0x4f
 1349 0141 6A010000 		.4byte	0x16a
ARM GAS  C:\Users\TB1014~1\AppData\Local\Temp\ccLivewv.s 			page 52


 1350 0145 0B       		.uleb128 0xb
 1351 0146 AA060000 		.4byte	.LASF27
 1352 014a 01       		.sleb128 1
 1353 014b 0B       		.uleb128 0xb
 1354 014c BC050000 		.4byte	.LASF28
 1355 0150 02       		.sleb128 2
 1356 0151 0B       		.uleb128 0xb
 1357 0152 3D030000 		.4byte	.LASF29
 1358 0156 03       		.sleb128 3
 1359 0157 0B       		.uleb128 0xb
 1360 0158 23020000 		.4byte	.LASF30
 1361 015c 04       		.sleb128 4
 1362 015d 0B       		.uleb128 0xb
 1363 015e 67010000 		.4byte	.LASF31
 1364 0162 05       		.sleb128 5
 1365 0163 0B       		.uleb128 0xb
 1366 0164 11000000 		.4byte	.LASF32
 1367 0168 06       		.sleb128 6
 1368 0169 00       		.byte	0
 1369 016a 06       		.uleb128 0x6
 1370 016b 84050000 		.4byte	.LASF33
 1371 016f 05       		.byte	0x5
 1372 0170 56       		.byte	0x56
 1373 0171 3D010000 		.4byte	0x13d
 1374 0175 0A       		.uleb128 0xa
 1375 0176 01       		.byte	0x1
 1376 0177 05       		.byte	0x5
 1377 0178 5D       		.byte	0x5d
 1378 0179 96010000 		.4byte	0x196
 1379 017d 0B       		.uleb128 0xb
 1380 017e D1000000 		.4byte	.LASF34
 1381 0182 00       		.sleb128 0
 1382 0183 0B       		.uleb128 0xb
 1383 0184 0C070000 		.4byte	.LASF35
 1384 0188 01       		.sleb128 1
 1385 0189 0B       		.uleb128 0xb
 1386 018a 84060000 		.4byte	.LASF36
 1387 018e 02       		.sleb128 2
 1388 018f 0B       		.uleb128 0xb
 1389 0190 13080000 		.4byte	.LASF37
 1390 0194 03       		.sleb128 3
 1391 0195 00       		.byte	0
 1392 0196 06       		.uleb128 0x6
 1393 0197 2B040000 		.4byte	.LASF38
 1394 019b 05       		.byte	0x5
 1395 019c 62       		.byte	0x62
 1396 019d 75010000 		.4byte	0x175
 1397 01a1 08       		.uleb128 0x8
 1398 01a2 12       		.byte	0x12
 1399 01a3 05       		.byte	0x5
 1400 01a4 7C       		.byte	0x7c
 1401 01a5 46020000 		.4byte	0x246
 1402 01a9 09       		.uleb128 0x9
 1403 01aa 05040000 		.4byte	.LASF39
 1404 01ae 05       		.byte	0x5
 1405 01af 82       		.byte	0x82
 1406 01b0 77000000 		.4byte	0x77
ARM GAS  C:\Users\TB1014~1\AppData\Local\Temp\ccLivewv.s 			page 53


 1407 01b4 00       		.byte	0
 1408 01b5 09       		.uleb128 0x9
 1409 01b6 86070000 		.4byte	.LASF40
 1410 01ba 05       		.byte	0x5
 1411 01bb 87       		.byte	0x87
 1412 01bc B9000000 		.4byte	0xb9
 1413 01c0 02       		.byte	0x2
 1414 01c1 09       		.uleb128 0x9
 1415 01c2 CB030000 		.4byte	.LASF41
 1416 01c6 05       		.byte	0x5
 1417 01c7 8C       		.byte	0x8c
 1418 01c8 6B000000 		.4byte	0x6b
 1419 01cc 04       		.byte	0x4
 1420 01cd 09       		.uleb128 0x9
 1421 01ce 57050000 		.4byte	.LASF42
 1422 01d2 05       		.byte	0x5
 1423 01d3 91       		.byte	0x91
 1424 01d4 6B000000 		.4byte	0x6b
 1425 01d8 05       		.byte	0x5
 1426 01d9 09       		.uleb128 0x9
 1427 01da 32030000 		.4byte	.LASF43
 1428 01de 05       		.byte	0x5
 1429 01df 96       		.byte	0x96
 1430 01e0 6B000000 		.4byte	0x6b
 1431 01e4 06       		.byte	0x6
 1432 01e5 09       		.uleb128 0x9
 1433 01e6 71040000 		.4byte	.LASF44
 1434 01ea 05       		.byte	0x5
 1435 01eb 9B       		.byte	0x9b
 1436 01ec 6B000000 		.4byte	0x6b
 1437 01f0 07       		.byte	0x7
 1438 01f1 09       		.uleb128 0x9
 1439 01f2 72030000 		.4byte	.LASF45
 1440 01f6 05       		.byte	0x5
 1441 01f7 A1       		.byte	0xa1
 1442 01f8 C4000000 		.4byte	0xc4
 1443 01fc 08       		.byte	0x8
 1444 01fd 09       		.uleb128 0x9
 1445 01fe F5020000 		.4byte	.LASF46
 1446 0202 05       		.byte	0x5
 1447 0203 A6       		.byte	0xa6
 1448 0204 6B000000 		.4byte	0x6b
 1449 0208 09       		.byte	0x9
 1450 0209 09       		.uleb128 0x9
 1451 020a 5A070000 		.4byte	.LASF47
 1452 020e 05       		.byte	0x5
 1453 020f AD       		.byte	0xad
 1454 0210 46020000 		.4byte	0x246
 1455 0214 0A       		.byte	0xa
 1456 0215 09       		.uleb128 0x9
 1457 0216 43080000 		.4byte	.LASF48
 1458 021a 05       		.byte	0x5
 1459 021b B4       		.byte	0xb4
 1460 021c 6B000000 		.4byte	0x6b
 1461 0220 0B       		.byte	0xb
 1462 0221 09       		.uleb128 0x9
 1463 0222 15060000 		.4byte	.LASF49
ARM GAS  C:\Users\TB1014~1\AppData\Local\Temp\ccLivewv.s 			page 54


 1464 0226 05       		.byte	0x5
 1465 0227 B9       		.byte	0xb9
 1466 0228 6B000000 		.4byte	0x6b
 1467 022c 0C       		.byte	0xc
 1468 022d 09       		.uleb128 0x9
 1469 022e 02070000 		.4byte	.LASF50
 1470 0232 05       		.byte	0x5
 1471 0233 BF       		.byte	0xbf
 1472 0234 77000000 		.4byte	0x77
 1473 0238 0E       		.byte	0xe
 1474 0239 09       		.uleb128 0x9
 1475 023a 2B030000 		.4byte	.LASF51
 1476 023e 05       		.byte	0x5
 1477 023f C4       		.byte	0xc4
 1478 0240 77000000 		.4byte	0x77
 1479 0244 10       		.byte	0x10
 1480 0245 00       		.byte	0
 1481 0246 0C       		.uleb128 0xc
 1482 0247 6B000000 		.4byte	0x6b
 1483 024b 56020000 		.4byte	0x256
 1484 024f 0D       		.uleb128 0xd
 1485 0250 B0000000 		.4byte	0xb0
 1486 0254 00       		.byte	0
 1487 0255 00       		.byte	0
 1488 0256 06       		.uleb128 0x6
 1489 0257 68050000 		.4byte	.LASF52
 1490 025b 05       		.byte	0x5
 1491 025c C5       		.byte	0xc5
 1492 025d A1010000 		.4byte	0x1a1
 1493 0261 0C       		.uleb128 0xc
 1494 0262 77000000 		.4byte	0x77
 1495 0266 71020000 		.4byte	0x271
 1496 026a 0D       		.uleb128 0xd
 1497 026b B0000000 		.4byte	0xb0
 1498 026f 00       		.byte	0
 1499 0270 00       		.byte	0
 1500 0271 0E       		.uleb128 0xe
 1501 0272 0A       		.byte	0xa
 1502 0273 05       		.byte	0x5
 1503 0274 9B01     		.2byte	0x19b
 1504 0276 C9020000 		.4byte	0x2c9
 1505 027a 0F       		.uleb128 0xf
 1506 027b 72617700 		.ascii	"raw\000"
 1507 027f 05       		.byte	0x5
 1508 0280 A001     		.2byte	0x1a0
 1509 0282 61020000 		.4byte	0x261
 1510 0286 00       		.byte	0
 1511 0287 10       		.uleb128 0x10
 1512 0288 56080000 		.4byte	.LASF53
 1513 028c 05       		.byte	0x5
 1514 028d A501     		.2byte	0x1a5
 1515 028f 61020000 		.4byte	0x261
 1516 0293 02       		.byte	0x2
 1517 0294 10       		.uleb128 0x10
 1518 0295 8F070000 		.4byte	.LASF54
 1519 0299 05       		.byte	0x5
 1520 029a AB01     		.2byte	0x1ab
ARM GAS  C:\Users\TB1014~1\AppData\Local\Temp\ccLivewv.s 			page 55


 1521 029c 46020000 		.4byte	0x246
 1522 02a0 04       		.byte	0x4
 1523 02a1 10       		.uleb128 0x10
 1524 02a2 5E060000 		.4byte	.LASF55
 1525 02a6 05       		.byte	0x5
 1526 02a7 B001     		.2byte	0x1b0
 1527 02a9 B9000000 		.4byte	0xb9
 1528 02ad 06       		.byte	0x6
 1529 02ae 10       		.uleb128 0x10
 1530 02af AA080000 		.4byte	.LASF56
 1531 02b3 05       		.byte	0x5
 1532 02b4 B501     		.2byte	0x1b5
 1533 02b6 C9020000 		.4byte	0x2c9
 1534 02ba 08       		.byte	0x8
 1535 02bb 10       		.uleb128 0x10
 1536 02bc 46040000 		.4byte	.LASF57
 1537 02c0 05       		.byte	0x5
 1538 02c1 BB01     		.2byte	0x1bb
 1539 02c3 46020000 		.4byte	0x246
 1540 02c7 09       		.byte	0x9
 1541 02c8 00       		.byte	0
 1542 02c9 0C       		.uleb128 0xc
 1543 02ca C4000000 		.4byte	0xc4
 1544 02ce D9020000 		.4byte	0x2d9
 1545 02d2 0D       		.uleb128 0xd
 1546 02d3 B0000000 		.4byte	0xb0
 1547 02d7 00       		.byte	0
 1548 02d8 00       		.byte	0
 1549 02d9 04       		.uleb128 0x4
 1550 02da DD020000 		.4byte	.LASF58
 1551 02de 05       		.byte	0x5
 1552 02df BC01     		.2byte	0x1bc
 1553 02e1 71020000 		.4byte	0x271
 1554 02e5 0E       		.uleb128 0xe
 1555 02e6 2C       		.byte	0x2c
 1556 02e7 05       		.byte	0x5
 1557 02e8 B202     		.2byte	0x2b2
 1558 02ea B2030000 		.4byte	0x3b2
 1559 02ee 10       		.uleb128 0x10
 1560 02ef 90080000 		.4byte	.LASF59
 1561 02f3 05       		.byte	0x5
 1562 02f4 BB02     		.2byte	0x2bb
 1563 02f6 B2030000 		.4byte	0x3b2
 1564 02fa 00       		.byte	0
 1565 02fb 10       		.uleb128 0x10
 1566 02fc E4070000 		.4byte	.LASF60
 1567 0300 05       		.byte	0x5
 1568 0301 C102     		.2byte	0x2c1
 1569 0303 B7000000 		.4byte	0xb7
 1570 0307 04       		.byte	0x4
 1571 0308 10       		.uleb128 0x10
 1572 0309 02060000 		.4byte	.LASF61
 1573 030d 05       		.byte	0x5
 1574 030e C702     		.2byte	0x2c7
 1575 0310 B9030000 		.4byte	0x3b9
 1576 0314 08       		.byte	0x8
 1577 0315 10       		.uleb128 0x10
ARM GAS  C:\Users\TB1014~1\AppData\Local\Temp\ccLivewv.s 			page 56


 1578 0316 AC050000 		.4byte	.LASF62
 1579 031a 05       		.byte	0x5
 1580 031b CC02     		.2byte	0x2cc
 1581 031d B7000000 		.4byte	0xb7
 1582 0321 0C       		.byte	0xc
 1583 0322 10       		.uleb128 0x10
 1584 0323 62070000 		.4byte	.LASF63
 1585 0327 05       		.byte	0x5
 1586 0328 D302     		.2byte	0x2d3
 1587 032a CF000000 		.4byte	0xcf
 1588 032e 10       		.byte	0x10
 1589 032f 10       		.uleb128 0x10
 1590 0330 D7070000 		.4byte	.LASF64
 1591 0334 05       		.byte	0x5
 1592 0335 D802     		.2byte	0x2d8
 1593 0337 77000000 		.4byte	0x77
 1594 033b 14       		.byte	0x14
 1595 033c 10       		.uleb128 0x10
 1596 033d 7D030000 		.4byte	.LASF65
 1597 0341 05       		.byte	0x5
 1598 0342 DF02     		.2byte	0x2df
 1599 0344 77000000 		.4byte	0x77
 1600 0348 16       		.byte	0x16
 1601 0349 10       		.uleb128 0x10
 1602 034a 77020000 		.4byte	.LASF66
 1603 034e 05       		.byte	0x5
 1604 034f EA02     		.2byte	0x2ea
 1605 0351 6B000000 		.4byte	0x6b
 1606 0355 18       		.byte	0x18
 1607 0356 10       		.uleb128 0x10
 1608 0357 4F040000 		.4byte	.LASF67
 1609 035b 05       		.byte	0x5
 1610 035c EF02     		.2byte	0x2ef
 1611 035e 6B000000 		.4byte	0x6b
 1612 0362 19       		.byte	0x19
 1613 0363 10       		.uleb128 0x10
 1614 0364 69040000 		.4byte	.LASF68
 1615 0368 05       		.byte	0x5
 1616 0369 F702     		.2byte	0x2f7
 1617 036b 6B000000 		.4byte	0x6b
 1618 036f 1A       		.byte	0x1a
 1619 0370 10       		.uleb128 0x10
 1620 0371 30080000 		.4byte	.LASF69
 1621 0375 05       		.byte	0x5
 1622 0376 FE02     		.2byte	0x2fe
 1623 0378 6B000000 		.4byte	0x6b
 1624 037c 1B       		.byte	0x1b
 1625 037d 10       		.uleb128 0x10
 1626 037e 22060000 		.4byte	.LASF70
 1627 0382 05       		.byte	0x5
 1628 0383 0403     		.2byte	0x304
 1629 0385 77000000 		.4byte	0x77
 1630 0389 1C       		.byte	0x1c
 1631 038a 10       		.uleb128 0x10
 1632 038b 72070000 		.4byte	.LASF71
 1633 038f 05       		.byte	0x5
 1634 0390 0D03     		.2byte	0x30d
ARM GAS  C:\Users\TB1014~1\AppData\Local\Temp\ccLivewv.s 			page 57


 1635 0392 83000000 		.4byte	0x83
 1636 0396 20       		.byte	0x20
 1637 0397 10       		.uleb128 0x10
 1638 0398 68020000 		.4byte	.LASF72
 1639 039c 05       		.byte	0x5
 1640 039d 1503     		.2byte	0x315
 1641 039f BF030000 		.4byte	0x3bf
 1642 03a3 24       		.byte	0x24
 1643 03a4 10       		.uleb128 0x10
 1644 03a5 97070000 		.4byte	.LASF73
 1645 03a9 05       		.byte	0x5
 1646 03aa 1A03     		.2byte	0x31a
 1647 03ac B7000000 		.4byte	0xb7
 1648 03b0 28       		.byte	0x28
 1649 03b1 00       		.byte	0
 1650 03b2 07       		.uleb128 0x7
 1651 03b3 04       		.byte	0x4
 1652 03b4 B8030000 		.4byte	0x3b8
 1653 03b8 11       		.uleb128 0x11
 1654 03b9 07       		.uleb128 0x7
 1655 03ba 04       		.byte	0x4
 1656 03bb D9020000 		.4byte	0x2d9
 1657 03bf 07       		.uleb128 0x7
 1658 03c0 04       		.byte	0x4
 1659 03c1 32010000 		.4byte	0x132
 1660 03c5 04       		.uleb128 0x4
 1661 03c6 59030000 		.4byte	.LASF74
 1662 03ca 05       		.byte	0x5
 1663 03cb 1B03     		.2byte	0x31b
 1664 03cd E5020000 		.4byte	0x2e5
 1665 03d1 12       		.uleb128 0x12
 1666 03d2 6001     		.2byte	0x160
 1667 03d4 05       		.byte	0x5
 1668 03d5 2103     		.2byte	0x321
 1669 03d7 E9030000 		.4byte	0x3e9
 1670 03db 10       		.uleb128 0x10
 1671 03dc 4D090000 		.4byte	.LASF75
 1672 03e0 05       		.byte	0x5
 1673 03e1 2603     		.2byte	0x326
 1674 03e3 E9030000 		.4byte	0x3e9
 1675 03e7 00       		.byte	0
 1676 03e8 00       		.byte	0
 1677 03e9 0C       		.uleb128 0xc
 1678 03ea C5030000 		.4byte	0x3c5
 1679 03ee F9030000 		.4byte	0x3f9
 1680 03f2 0D       		.uleb128 0xd
 1681 03f3 B0000000 		.4byte	0xb0
 1682 03f7 07       		.byte	0x7
 1683 03f8 00       		.byte	0
 1684 03f9 04       		.uleb128 0x4
 1685 03fa 0D050000 		.4byte	.LASF76
 1686 03fe 05       		.byte	0x5
 1687 03ff 2703     		.2byte	0x327
 1688 0401 D1030000 		.4byte	0x3d1
 1689 0405 0E       		.uleb128 0xe
 1690 0406 02       		.byte	0x2
 1691 0407 05       		.byte	0x5
ARM GAS  C:\Users\TB1014~1\AppData\Local\Temp\ccLivewv.s 			page 58


 1692 0408 5C03     		.2byte	0x35c
 1693 040a 1C040000 		.4byte	0x41c
 1694 040e 10       		.uleb128 0x10
 1695 040f 08080000 		.4byte	.LASF77
 1696 0413 05       		.byte	0x5
 1697 0414 6103     		.2byte	0x361
 1698 0416 77000000 		.4byte	0x77
 1699 041a 00       		.byte	0
 1700 041b 00       		.byte	0
 1701 041c 04       		.uleb128 0x4
 1702 041d BF060000 		.4byte	.LASF78
 1703 0421 05       		.byte	0x5
 1704 0422 6203     		.2byte	0x362
 1705 0424 05040000 		.4byte	0x405
 1706 0428 0E       		.uleb128 0xe
 1707 0429 02       		.byte	0x2
 1708 042a 05       		.byte	0x5
 1709 042b 6703     		.2byte	0x367
 1710 042d 3F040000 		.4byte	0x43f
 1711 0431 10       		.uleb128 0x10
 1712 0432 CE020000 		.4byte	.LASF79
 1713 0436 05       		.byte	0x5
 1714 0437 6C03     		.2byte	0x36c
 1715 0439 3F040000 		.4byte	0x43f
 1716 043d 00       		.byte	0
 1717 043e 00       		.byte	0
 1718 043f 0C       		.uleb128 0xc
 1719 0440 1C040000 		.4byte	0x41c
 1720 0444 4F040000 		.4byte	0x44f
 1721 0448 0D       		.uleb128 0xd
 1722 0449 B0000000 		.4byte	0xb0
 1723 044d 00       		.byte	0
 1724 044e 00       		.byte	0
 1725 044f 04       		.uleb128 0x4
 1726 0450 38060000 		.4byte	.LASF80
 1727 0454 05       		.byte	0x5
 1728 0455 6D03     		.2byte	0x36d
 1729 0457 28040000 		.4byte	0x428
 1730 045b 13       		.uleb128 0x13
 1731 045c 04       		.byte	0x4
 1732 045d 05       		.byte	0x5
 1733 045e 7203     		.2byte	0x372
 1734 0460 7D040000 		.4byte	0x47d
 1735 0464 14       		.uleb128 0x14
 1736 0465 70747200 		.ascii	"ptr\000"
 1737 0469 05       		.byte	0x5
 1738 046a 7703     		.2byte	0x377
 1739 046c B7000000 		.4byte	0xb7
 1740 0470 15       		.uleb128 0x15
 1741 0471 3F020000 		.4byte	.LASF81
 1742 0475 05       		.byte	0x5
 1743 0476 7C03     		.2byte	0x37c
 1744 0478 7D040000 		.4byte	0x47d
 1745 047c 00       		.byte	0
 1746 047d 07       		.uleb128 0x7
 1747 047e 04       		.byte	0x4
 1748 047f 4F040000 		.4byte	0x44f
ARM GAS  C:\Users\TB1014~1\AppData\Local\Temp\ccLivewv.s 			page 59


 1749 0483 04       		.uleb128 0x4
 1750 0484 B2020000 		.4byte	.LASF82
 1751 0488 05       		.byte	0x5
 1752 0489 7D03     		.2byte	0x37d
 1753 048b 5B040000 		.4byte	0x45b
 1754 048f 16       		.uleb128 0x16
 1755 0490 4A020000 		.4byte	.LASF122
 1756 0494 01       		.byte	0x1
 1757 0495 3802     		.2byte	0x238
 1758 0497 03       		.byte	0x3
 1759 0498 C1040000 		.4byte	0x4c1
 1760 049c 17       		.uleb128 0x17
 1761 049d D8030000 		.4byte	.LASF83
 1762 04a1 01       		.byte	0x1
 1763 04a2 3802     		.2byte	0x238
 1764 04a4 B9030000 		.4byte	0x3b9
 1765 04a8 17       		.uleb128 0x17
 1766 04a9 FB050000 		.4byte	.LASF84
 1767 04ad 01       		.byte	0x1
 1768 04ae 3802     		.2byte	0x238
 1769 04b0 83000000 		.4byte	0x83
 1770 04b4 18       		.uleb128 0x18
 1771 04b5 0D060000 		.4byte	.LASF85
 1772 04b9 01       		.byte	0x1
 1773 04ba 3A02     		.2byte	0x23a
 1774 04bc 83000000 		.4byte	0x83
 1775 04c0 00       		.byte	0
 1776 04c1 19       		.uleb128 0x19
 1777 04c2 01010000 		.4byte	.LASF86
 1778 04c6 01       		.byte	0x1
 1779 04c7 5302     		.2byte	0x253
 1780 04c9 00000000 		.4byte	.LFB10
 1781 04cd 1C000000 		.4byte	.LFE10-.LFB10
 1782 04d1 01       		.uleb128 0x1
 1783 04d2 9C       		.byte	0x9c
 1784 04d3 06050000 		.4byte	0x506
 1785 04d7 1A       		.uleb128 0x1a
 1786 04d8 D8030000 		.4byte	.LASF83
 1787 04dc 01       		.byte	0x1
 1788 04dd 5302     		.2byte	0x253
 1789 04df B9030000 		.4byte	0x3b9
 1790 04e3 01       		.uleb128 0x1
 1791 04e4 50       		.byte	0x50
 1792 04e5 1B       		.uleb128 0x1b
 1793 04e6 FB050000 		.4byte	.LASF84
 1794 04ea 01       		.byte	0x1
 1795 04eb 5302     		.2byte	0x253
 1796 04ed 83000000 		.4byte	0x83
 1797 04f1 00000000 		.4byte	.LLST0
 1798 04f5 1B       		.uleb128 0x1b
 1799 04f6 0D060000 		.4byte	.LASF85
 1800 04fa 01       		.byte	0x1
 1801 04fb 5302     		.2byte	0x253
 1802 04fd 83000000 		.4byte	0x83
 1803 0501 21000000 		.4byte	.LLST1
 1804 0505 00       		.byte	0
 1805 0506 1C       		.uleb128 0x1c
ARM GAS  C:\Users\TB1014~1\AppData\Local\Temp\ccLivewv.s 			page 60


 1806 0507 8F040000 		.4byte	0x48f
 1807 050b 00000000 		.4byte	.LFB9
 1808 050f 1E000000 		.4byte	.LFE9-.LFB9
 1809 0513 01       		.uleb128 0x1
 1810 0514 9C       		.byte	0x9c
 1811 0515 51050000 		.4byte	0x551
 1812 0519 1D       		.uleb128 0x1d
 1813 051a 9C040000 		.4byte	0x49c
 1814 051e 42000000 		.4byte	.LLST2
 1815 0522 1D       		.uleb128 0x1d
 1816 0523 A8040000 		.4byte	0x4a8
 1817 0527 6E000000 		.4byte	.LLST3
 1818 052b 1E       		.uleb128 0x1e
 1819 052c B4040000 		.4byte	0x4b4
 1820 0530 9A000000 		.4byte	.LLST4
 1821 0534 1F       		.uleb128 0x1f
 1822 0535 14000000 		.4byte	.LVL6
 1823 0539 C1040000 		.4byte	0x4c1
 1824 053d 20       		.uleb128 0x20
 1825 053e 01       		.uleb128 0x1
 1826 053f 52       		.byte	0x52
 1827 0540 02       		.uleb128 0x2
 1828 0541 74       		.byte	0x74
 1829 0542 00       		.sleb128 0
 1830 0543 20       		.uleb128 0x20
 1831 0544 01       		.uleb128 0x1
 1832 0545 51       		.byte	0x51
 1833 0546 02       		.uleb128 0x2
 1834 0547 75       		.byte	0x75
 1835 0548 00       		.sleb128 0
 1836 0549 20       		.uleb128 0x20
 1837 054a 01       		.uleb128 0x1
 1838 054b 50       		.byte	0x50
 1839 054c 02       		.uleb128 0x2
 1840 054d 76       		.byte	0x76
 1841 054e 00       		.sleb128 0
 1842 054f 00       		.byte	0
 1843 0550 00       		.byte	0
 1844 0551 19       		.uleb128 0x19
 1845 0552 26010000 		.4byte	.LASF87
 1846 0556 01       		.byte	0x1
 1847 0557 1C02     		.2byte	0x21c
 1848 0559 00000000 		.4byte	.LFB8
 1849 055d 34000000 		.4byte	.LFE8-.LFB8
 1850 0561 01       		.uleb128 0x1
 1851 0562 9C       		.byte	0x9c
 1852 0563 FA050000 		.4byte	0x5fa
 1853 0567 1B       		.uleb128 0x1b
 1854 0568 1B090000 		.4byte	.LASF88
 1855 056c 01       		.byte	0x1
 1856 056d 1C02     		.2byte	0x21c
 1857 056f 83000000 		.4byte	0x83
 1858 0573 DC000000 		.4byte	.LLST5
 1859 0577 1B       		.uleb128 0x1b
 1860 0578 95010000 		.4byte	.LASF89
 1861 057c 01       		.byte	0x1
 1862 057d 1C02     		.2byte	0x21c
ARM GAS  C:\Users\TB1014~1\AppData\Local\Temp\ccLivewv.s 			page 61


 1863 057f 83000000 		.4byte	0x83
 1864 0583 FD000000 		.4byte	.LLST6
 1865 0587 21       		.uleb128 0x21
 1866 0588 D8030000 		.4byte	.LASF83
 1867 058c 01       		.byte	0x1
 1868 058d 1E02     		.2byte	0x21e
 1869 058f B9030000 		.4byte	0x3b9
 1870 0593 1E010000 		.4byte	.LLST7
 1871 0597 21       		.uleb128 0x21
 1872 0598 A0060000 		.4byte	.LASF90
 1873 059c 01       		.byte	0x1
 1874 059d 1F02     		.2byte	0x21f
 1875 059f FA050000 		.4byte	0x5fa
 1876 05a3 49010000 		.4byte	.LLST8
 1877 05a7 22       		.uleb128 0x22
 1878 05a8 8F040000 		.4byte	0x48f
 1879 05ac 16000000 		.4byte	.LBB4
 1880 05b0 16000000 		.4byte	.LBE4-.LBB4
 1881 05b4 01       		.byte	0x1
 1882 05b5 2602     		.2byte	0x226
 1883 05b7 1D       		.uleb128 0x1d
 1884 05b8 A8040000 		.4byte	0x4a8
 1885 05bc 5C010000 		.4byte	.LLST9
 1886 05c0 1D       		.uleb128 0x1d
 1887 05c1 9C040000 		.4byte	0x49c
 1888 05c5 6F010000 		.4byte	.LLST10
 1889 05c9 23       		.uleb128 0x23
 1890 05ca 16000000 		.4byte	.LBB5
 1891 05ce 16000000 		.4byte	.LBE5-.LBB5
 1892 05d2 1E       		.uleb128 0x1e
 1893 05d3 B4040000 		.4byte	0x4b4
 1894 05d7 82010000 		.4byte	.LLST11
 1895 05db 1F       		.uleb128 0x1f
 1896 05dc 24000000 		.4byte	.LVL20
 1897 05e0 C1040000 		.4byte	0x4c1
 1898 05e4 20       		.uleb128 0x20
 1899 05e5 01       		.uleb128 0x1
 1900 05e6 52       		.byte	0x52
 1901 05e7 02       		.uleb128 0x2
 1902 05e8 75       		.byte	0x75
 1903 05e9 00       		.sleb128 0
 1904 05ea 20       		.uleb128 0x20
 1905 05eb 01       		.uleb128 0x1
 1906 05ec 51       		.byte	0x51
 1907 05ed 02       		.uleb128 0x2
 1908 05ee 76       		.byte	0x76
 1909 05ef 00       		.sleb128 0
 1910 05f0 20       		.uleb128 0x20
 1911 05f1 01       		.uleb128 0x1
 1912 05f2 50       		.byte	0x50
 1913 05f3 02       		.uleb128 0x2
 1914 05f4 74       		.byte	0x74
 1915 05f5 00       		.sleb128 0
 1916 05f6 00       		.byte	0
 1917 05f7 00       		.byte	0
 1918 05f8 00       		.byte	0
 1919 05f9 00       		.byte	0
ARM GAS  C:\Users\TB1014~1\AppData\Local\Temp\ccLivewv.s 			page 62


 1920 05fa 07       		.uleb128 0x7
 1921 05fb 04       		.byte	0x4
 1922 05fc 00060000 		.4byte	0x600
 1923 0600 24       		.uleb128 0x24
 1924 0601 C5030000 		.4byte	0x3c5
 1925 0605 19       		.uleb128 0x19
 1926 0606 5B080000 		.4byte	.LASF91
 1927 060a 01       		.byte	0x1
 1928 060b F001     		.2byte	0x1f0
 1929 060d 00000000 		.4byte	.LFB7
 1930 0611 28000000 		.4byte	.LFE7-.LFB7
 1931 0615 01       		.uleb128 0x1
 1932 0616 9C       		.byte	0x9c
 1933 0617 72060000 		.4byte	0x672
 1934 061b 1B       		.uleb128 0x1b
 1935 061c 1B090000 		.4byte	.LASF88
 1936 0620 01       		.byte	0x1
 1937 0621 F001     		.2byte	0x1f0
 1938 0623 83000000 		.4byte	0x83
 1939 0627 C4010000 		.4byte	.LLST12
 1940 062b 21       		.uleb128 0x21
 1941 062c 95010000 		.4byte	.LASF89
 1942 0630 01       		.byte	0x1
 1943 0631 F201     		.2byte	0x1f2
 1944 0633 83000000 		.4byte	0x83
 1945 0637 F0010000 		.4byte	.LLST13
 1946 063b 21       		.uleb128 0x21
 1947 063c F3000000 		.4byte	.LASF92
 1948 0640 01       		.byte	0x1
 1949 0641 F301     		.2byte	0x1f3
 1950 0643 83000000 		.4byte	0x83
 1951 0647 31020000 		.4byte	.LLST14
 1952 064b 21       		.uleb128 0x21
 1953 064c A0060000 		.4byte	.LASF90
 1954 0650 01       		.byte	0x1
 1955 0651 F501     		.2byte	0x1f5
 1956 0653 FA050000 		.4byte	0x5fa
 1957 0657 44020000 		.4byte	.LLST15
 1958 065b 1F       		.uleb128 0x1f
 1959 065c 18000000 		.4byte	.LVL31
 1960 0660 51050000 		.4byte	0x551
 1961 0664 20       		.uleb128 0x20
 1962 0665 01       		.uleb128 0x1
 1963 0666 51       		.byte	0x51
 1964 0667 02       		.uleb128 0x2
 1965 0668 74       		.byte	0x74
 1966 0669 00       		.sleb128 0
 1967 066a 20       		.uleb128 0x20
 1968 066b 01       		.uleb128 0x1
 1969 066c 50       		.byte	0x50
 1970 066d 02       		.uleb128 0x2
 1971 066e 75       		.byte	0x75
 1972 066f 00       		.sleb128 0
 1973 0670 00       		.byte	0
 1974 0671 00       		.byte	0
 1975 0672 19       		.uleb128 0x19
 1976 0673 04030000 		.4byte	.LASF93
ARM GAS  C:\Users\TB1014~1\AppData\Local\Temp\ccLivewv.s 			page 63


 1977 0677 01       		.byte	0x1
 1978 0678 D101     		.2byte	0x1d1
 1979 067a 00000000 		.4byte	.LFB6
 1980 067e 16000000 		.4byte	.LFE6-.LFB6
 1981 0682 01       		.uleb128 0x1
 1982 0683 9C       		.byte	0x9c
 1983 0684 A9060000 		.4byte	0x6a9
 1984 0688 21       		.uleb128 0x21
 1985 0689 1B090000 		.4byte	.LASF88
 1986 068d 01       		.byte	0x1
 1987 068e D301     		.2byte	0x1d3
 1988 0690 83000000 		.4byte	0x83
 1989 0694 57020000 		.4byte	.LLST16
 1990 0698 1F       		.uleb128 0x1f
 1991 0699 0C000000 		.4byte	.LVL38
 1992 069d 05060000 		.4byte	0x605
 1993 06a1 20       		.uleb128 0x20
 1994 06a2 01       		.uleb128 0x1
 1995 06a3 50       		.byte	0x50
 1996 06a4 02       		.uleb128 0x2
 1997 06a5 74       		.byte	0x74
 1998 06a6 00       		.sleb128 0
 1999 06a7 00       		.byte	0
 2000 06a8 00       		.byte	0
 2001 06a9 19       		.uleb128 0x19
 2002 06aa 48010000 		.4byte	.LASF94
 2003 06ae 01       		.byte	0x1
 2004 06af DA02     		.2byte	0x2da
 2005 06b1 00000000 		.4byte	.LFB13
 2006 06b5 1C000000 		.4byte	.LFE13-.LFB13
 2007 06b9 01       		.uleb128 0x1
 2008 06ba 9C       		.byte	0x9c
 2009 06bb FA060000 		.4byte	0x6fa
 2010 06bf 1A       		.uleb128 0x1a
 2011 06c0 E9080000 		.4byte	.LASF95
 2012 06c4 01       		.byte	0x1
 2013 06c5 DA02     		.2byte	0x2da
 2014 06c7 83040000 		.4byte	0x483
 2015 06cb 01       		.uleb128 0x1
 2016 06cc 50       		.byte	0x50
 2017 06cd 1A       		.uleb128 0x1a
 2018 06ce E4060000 		.4byte	.LASF96
 2019 06d2 01       		.byte	0x1
 2020 06d3 DB02     		.2byte	0x2db
 2021 06d5 B9030000 		.4byte	0x3b9
 2022 06d9 01       		.uleb128 0x1
 2023 06da 51       		.byte	0x51
 2024 06db 1A       		.uleb128 0x1a
 2025 06dc FB050000 		.4byte	.LASF84
 2026 06e0 01       		.byte	0x1
 2027 06e1 DB02     		.2byte	0x2db
 2028 06e3 83000000 		.4byte	0x83
 2029 06e7 01       		.uleb128 0x1
 2030 06e8 52       		.byte	0x52
 2031 06e9 21       		.uleb128 0x21
 2032 06ea 0D060000 		.4byte	.LASF85
 2033 06ee 01       		.byte	0x1
ARM GAS  C:\Users\TB1014~1\AppData\Local\Temp\ccLivewv.s 			page 64


 2034 06ef DD02     		.2byte	0x2dd
 2035 06f1 83000000 		.4byte	0x83
 2036 06f5 99020000 		.4byte	.LLST17
 2037 06f9 00       		.byte	0
 2038 06fa 25       		.uleb128 0x25
 2039 06fb 41050000 		.4byte	.LASF97
 2040 06ff 01       		.byte	0x1
 2041 0700 3D       		.byte	0x3d
 2042 0701 00000000 		.4byte	.LFB1
 2043 0705 84000000 		.4byte	.LFE1-.LFB1
 2044 0709 01       		.uleb128 0x1
 2045 070a 9C       		.byte	0x9c
 2046 070b A8070000 		.4byte	0x7a8
 2047 070f 26       		.uleb128 0x26
 2048 0710 1B090000 		.4byte	.LASF88
 2049 0714 01       		.byte	0x1
 2050 0715 3F       		.byte	0x3f
 2051 0716 83000000 		.4byte	0x83
 2052 071a DB020000 		.4byte	.LLST18
 2053 071e 26       		.uleb128 0x26
 2054 071f 95010000 		.4byte	.LASF89
 2055 0723 01       		.byte	0x1
 2056 0724 40       		.byte	0x40
 2057 0725 83000000 		.4byte	0x83
 2058 0729 1D030000 		.4byte	.LLST19
 2059 072d 26       		.uleb128 0x26
 2060 072e F3000000 		.4byte	.LASF92
 2061 0732 01       		.byte	0x1
 2062 0733 41       		.byte	0x41
 2063 0734 83000000 		.4byte	0x83
 2064 0738 51030000 		.4byte	.LLST20
 2065 073c 26       		.uleb128 0x26
 2066 073d A0060000 		.4byte	.LASF90
 2067 0741 01       		.byte	0x1
 2068 0742 43       		.byte	0x43
 2069 0743 FA050000 		.4byte	0x5fa
 2070 0747 64030000 		.4byte	.LLST21
 2071 074b 26       		.uleb128 0x26
 2072 074c D8030000 		.4byte	.LASF83
 2073 0750 01       		.byte	0x1
 2074 0751 44       		.byte	0x44
 2075 0752 B9030000 		.4byte	0x3b9
 2076 0756 77030000 		.4byte	.LLST22
 2077 075a 27       		.uleb128 0x27
 2078 075b E9080000 		.4byte	.LASF95
 2079 075f 01       		.byte	0x1
 2080 0760 45       		.byte	0x45
 2081 0761 83040000 		.4byte	0x483
 2082 0765 26       		.uleb128 0x26
 2083 0766 80020000 		.4byte	.LASF98
 2084 076a 01       		.byte	0x1
 2085 076b 48       		.byte	0x48
 2086 076c A8070000 		.4byte	0x7a8
 2087 0770 A2030000 		.4byte	.LLST23
 2088 0774 26       		.uleb128 0x26
 2089 0775 00000000 		.4byte	.LASF99
 2090 0779 01       		.byte	0x1
ARM GAS  C:\Users\TB1014~1\AppData\Local\Temp\ccLivewv.s 			page 65


 2091 077a 49       		.byte	0x49
 2092 077b BF030000 		.4byte	0x3bf
 2093 077f C0030000 		.4byte	.LLST24
 2094 0783 28       		.uleb128 0x28
 2095 0784 4E000000 		.4byte	.LVL58
 2096 0788 A9060000 		.4byte	0x6a9
 2097 078c 97070000 		.4byte	0x797
 2098 0790 20       		.uleb128 0x20
 2099 0791 01       		.uleb128 0x1
 2100 0792 51       		.byte	0x51
 2101 0793 02       		.uleb128 0x2
 2102 0794 74       		.byte	0x74
 2103 0795 00       		.sleb128 0
 2104 0796 00       		.byte	0
 2105 0797 1F       		.uleb128 0x1f
 2106 0798 68000000 		.4byte	.LVL59
 2107 079c 570D0000 		.4byte	0xd57
 2108 07a0 20       		.uleb128 0x20
 2109 07a1 01       		.uleb128 0x1
 2110 07a2 52       		.byte	0x52
 2111 07a3 02       		.uleb128 0x2
 2112 07a4 75       		.byte	0x75
 2113 07a5 00       		.sleb128 0
 2114 07a6 00       		.byte	0
 2115 07a7 00       		.byte	0
 2116 07a8 07       		.uleb128 0x7
 2117 07a9 04       		.byte	0x4
 2118 07aa 56020000 		.4byte	0x256
 2119 07ae 19       		.uleb128 0x19
 2120 07af 7E010000 		.4byte	.LASF100
 2121 07b3 01       		.byte	0x1
 2122 07b4 8402     		.2byte	0x284
 2123 07b6 00000000 		.4byte	.LFB11
 2124 07ba 30000000 		.4byte	.LFE11-.LFB11
 2125 07be 01       		.uleb128 0x1
 2126 07bf 9C       		.byte	0x9c
 2127 07c0 1A080000 		.4byte	0x81a
 2128 07c4 1B       		.uleb128 0x1b
 2129 07c5 1B090000 		.4byte	.LASF88
 2130 07c9 01       		.byte	0x1
 2131 07ca 8402     		.2byte	0x284
 2132 07cc 83000000 		.4byte	0x83
 2133 07d0 EB030000 		.4byte	.LLST25
 2134 07d4 1B       		.uleb128 0x1b
 2135 07d5 95010000 		.4byte	.LASF89
 2136 07d9 01       		.byte	0x1
 2137 07da 8402     		.2byte	0x284
 2138 07dc 83000000 		.4byte	0x83
 2139 07e0 0C040000 		.4byte	.LLST26
 2140 07e4 21       		.uleb128 0x21
 2141 07e5 A0060000 		.4byte	.LASF90
 2142 07e9 01       		.byte	0x1
 2143 07ea 8602     		.2byte	0x286
 2144 07ec FA050000 		.4byte	0x5fa
 2145 07f0 2D040000 		.4byte	.LLST27
 2146 07f4 21       		.uleb128 0x21
 2147 07f5 D8030000 		.4byte	.LASF83
ARM GAS  C:\Users\TB1014~1\AppData\Local\Temp\ccLivewv.s 			page 66


 2148 07f9 01       		.byte	0x1
 2149 07fa 8702     		.2byte	0x287
 2150 07fc B9030000 		.4byte	0x3b9
 2151 0800 40040000 		.4byte	.LLST28
 2152 0804 18       		.uleb128 0x18
 2153 0805 E9080000 		.4byte	.LASF95
 2154 0809 01       		.byte	0x1
 2155 080a 8802     		.2byte	0x288
 2156 080c 83040000 		.4byte	0x483
 2157 0810 29       		.uleb128 0x29
 2158 0811 2A000000 		.4byte	.LVL73
 2159 0815 A9060000 		.4byte	0x6a9
 2160 0819 00       		.byte	0
 2161 081a 19       		.uleb128 0x19
 2162 081b AF070000 		.4byte	.LASF101
 2163 081f 01       		.byte	0x1
 2164 0820 1D05     		.2byte	0x51d
 2165 0822 00000000 		.4byte	.LFB17
 2166 0826 2C000000 		.4byte	.LFE17-.LFB17
 2167 082a 01       		.uleb128 0x1
 2168 082b 9C       		.byte	0x9c
 2169 082c 9A080000 		.4byte	0x89a
 2170 0830 1B       		.uleb128 0x1b
 2171 0831 1B090000 		.4byte	.LASF88
 2172 0835 01       		.byte	0x1
 2173 0836 1D05     		.2byte	0x51d
 2174 0838 83000000 		.4byte	0x83
 2175 083c 6B040000 		.4byte	.LLST29
 2176 0840 1B       		.uleb128 0x1b
 2177 0841 95010000 		.4byte	.LASF89
 2178 0845 01       		.byte	0x1
 2179 0846 1D05     		.2byte	0x51d
 2180 0848 83000000 		.4byte	0x83
 2181 084c 8C040000 		.4byte	.LLST30
 2182 0850 21       		.uleb128 0x21
 2183 0851 A0060000 		.4byte	.LASF90
 2184 0855 01       		.byte	0x1
 2185 0856 1F05     		.2byte	0x51f
 2186 0858 FA050000 		.4byte	0x5fa
 2187 085c AD040000 		.4byte	.LLST31
 2188 0860 21       		.uleb128 0x21
 2189 0861 80020000 		.4byte	.LASF98
 2190 0865 01       		.byte	0x1
 2191 0866 2005     		.2byte	0x520
 2192 0868 A8070000 		.4byte	0x7a8
 2193 086c C0040000 		.4byte	.LLST32
 2194 0870 21       		.uleb128 0x21
 2195 0871 D8030000 		.4byte	.LASF83
 2196 0875 01       		.byte	0x1
 2197 0876 2105     		.2byte	0x521
 2198 0878 B9030000 		.4byte	0x3b9
 2199 087c D3040000 		.4byte	.LLST33
 2200 0880 21       		.uleb128 0x21
 2201 0881 00000000 		.4byte	.LASF99
 2202 0885 01       		.byte	0x1
 2203 0886 2205     		.2byte	0x522
 2204 0888 BF030000 		.4byte	0x3bf
ARM GAS  C:\Users\TB1014~1\AppData\Local\Temp\ccLivewv.s 			page 67


 2205 088c 1B050000 		.4byte	.LLST34
 2206 0890 29       		.uleb128 0x29
 2207 0891 26000000 		.4byte	.LVL85
 2208 0895 720D0000 		.4byte	0xd72
 2209 0899 00       		.byte	0
 2210 089a 19       		.uleb128 0x19
 2211 089b FA080000 		.4byte	.LASF102
 2212 089f 01       		.byte	0x1
 2213 08a0 3C05     		.2byte	0x53c
 2214 08a2 00000000 		.4byte	.LFB18
 2215 08a6 2C000000 		.4byte	.LFE18-.LFB18
 2216 08aa 01       		.uleb128 0x1
 2217 08ab 9C       		.byte	0x9c
 2218 08ac 1A090000 		.4byte	0x91a
 2219 08b0 1B       		.uleb128 0x1b
 2220 08b1 1B090000 		.4byte	.LASF88
 2221 08b5 01       		.byte	0x1
 2222 08b6 3C05     		.2byte	0x53c
 2223 08b8 83000000 		.4byte	0x83
 2224 08bc 3A050000 		.4byte	.LLST35
 2225 08c0 1B       		.uleb128 0x1b
 2226 08c1 95010000 		.4byte	.LASF89
 2227 08c5 01       		.byte	0x1
 2228 08c6 3C05     		.2byte	0x53c
 2229 08c8 83000000 		.4byte	0x83
 2230 08cc 5B050000 		.4byte	.LLST36
 2231 08d0 21       		.uleb128 0x21
 2232 08d1 A0060000 		.4byte	.LASF90
 2233 08d5 01       		.byte	0x1
 2234 08d6 3E05     		.2byte	0x53e
 2235 08d8 FA050000 		.4byte	0x5fa
 2236 08dc 7C050000 		.4byte	.LLST37
 2237 08e0 21       		.uleb128 0x21
 2238 08e1 80020000 		.4byte	.LASF98
 2239 08e5 01       		.byte	0x1
 2240 08e6 3F05     		.2byte	0x53f
 2241 08e8 A8070000 		.4byte	0x7a8
 2242 08ec 8F050000 		.4byte	.LLST38
 2243 08f0 21       		.uleb128 0x21
 2244 08f1 D8030000 		.4byte	.LASF83
 2245 08f5 01       		.byte	0x1
 2246 08f6 4005     		.2byte	0x540
 2247 08f8 B9030000 		.4byte	0x3b9
 2248 08fc A2050000 		.4byte	.LLST39
 2249 0900 21       		.uleb128 0x21
 2250 0901 00000000 		.4byte	.LASF99
 2251 0905 01       		.byte	0x1
 2252 0906 4105     		.2byte	0x541
 2253 0908 BF030000 		.4byte	0x3bf
 2254 090c EA050000 		.4byte	.LLST40
 2255 0910 29       		.uleb128 0x29
 2256 0911 26000000 		.4byte	.LVL99
 2257 0915 570D0000 		.4byte	0xd57
 2258 0919 00       		.byte	0
 2259 091a 2A       		.uleb128 0x2a
 2260 091b 43070000 		.4byte	.LASF107
 2261 091f 01       		.byte	0x1
ARM GAS  C:\Users\TB1014~1\AppData\Local\Temp\ccLivewv.s 			page 68


 2262 0920 8605     		.2byte	0x586
 2263 0922 83000000 		.4byte	0x83
 2264 0926 00000000 		.4byte	.LFB19
 2265 092a 14000000 		.4byte	.LFE19-.LFB19
 2266 092e 01       		.uleb128 0x1
 2267 092f 9C       		.byte	0x9c
 2268 0930 7F090000 		.4byte	0x97f
 2269 0934 1B       		.uleb128 0x1b
 2270 0935 CB000000 		.4byte	.LASF103
 2271 0939 01       		.byte	0x1
 2272 093a 8605     		.2byte	0x586
 2273 093c 83000000 		.4byte	0x83
 2274 0940 09060000 		.4byte	.LLST41
 2275 0944 1B       		.uleb128 0x1b
 2276 0945 9E010000 		.4byte	.LASF104
 2277 0949 01       		.byte	0x1
 2278 094a 8605     		.2byte	0x586
 2279 094c 83000000 		.4byte	0x83
 2280 0950 2A060000 		.4byte	.LLST42
 2281 0954 2B       		.uleb128 0x2b
 2282 0955 6E00     		.ascii	"n\000"
 2283 0957 01       		.byte	0x1
 2284 0958 8605     		.2byte	0x586
 2285 095a 83000000 		.4byte	0x83
 2286 095e 01       		.uleb128 0x1
 2287 095f 52       		.byte	0x52
 2288 0960 1B       		.uleb128 0x1b
 2289 0961 E7010000 		.4byte	.LASF105
 2290 0965 01       		.byte	0x1
 2291 0966 8605     		.2byte	0x586
 2292 0968 83000000 		.4byte	0x83
 2293 096c 4B060000 		.4byte	.LLST43
 2294 0970 2C       		.uleb128 0x2c
 2295 0971 24030000 		.4byte	.LASF106
 2296 0975 01       		.byte	0x1
 2297 0976 8805     		.2byte	0x588
 2298 0978 83000000 		.4byte	0x83
 2299 097c 01       		.uleb128 0x1
 2300 097d 50       		.byte	0x50
 2301 097e 00       		.byte	0
 2302 097f 2A       		.uleb128 0x2a
 2303 0980 A9010000 		.4byte	.LASF108
 2304 0984 01       		.byte	0x1
 2305 0985 4101     		.2byte	0x141
 2306 0987 83000000 		.4byte	0x83
 2307 098b 00000000 		.4byte	.LFB5
 2308 098f 92000000 		.4byte	.LFE5-.LFB5
 2309 0993 01       		.uleb128 0x1
 2310 0994 9C       		.byte	0x9c
 2311 0995 4C0A0000 		.4byte	0xa4c
 2312 0999 1B       		.uleb128 0x1b
 2313 099a 80020000 		.4byte	.LASF98
 2314 099e 01       		.byte	0x1
 2315 099f 4201     		.2byte	0x142
 2316 09a1 A8070000 		.4byte	0x7a8
 2317 09a5 6C060000 		.4byte	.LLST44
 2318 09a9 1B       		.uleb128 0x1b
ARM GAS  C:\Users\TB1014~1\AppData\Local\Temp\ccLivewv.s 			page 69


 2319 09aa D8030000 		.4byte	.LASF83
 2320 09ae 01       		.byte	0x1
 2321 09af 4301     		.2byte	0x143
 2322 09b1 B9030000 		.4byte	0x3b9
 2323 09b5 98060000 		.4byte	.LLST45
 2324 09b9 1B       		.uleb128 0x1b
 2325 09ba FB050000 		.4byte	.LASF84
 2326 09be 01       		.byte	0x1
 2327 09bf 4401     		.2byte	0x144
 2328 09c1 83000000 		.4byte	0x83
 2329 09c5 C4060000 		.4byte	.LLST46
 2330 09c9 21       		.uleb128 0x21
 2331 09ca FF020000 		.4byte	.LASF109
 2332 09ce 01       		.byte	0x1
 2333 09cf 4601     		.2byte	0x146
 2334 09d1 83000000 		.4byte	0x83
 2335 09d5 E5060000 		.4byte	.LLST47
 2336 09d9 21       		.uleb128 0x21
 2337 09da 38080000 		.4byte	.LASF110
 2338 09de 01       		.byte	0x1
 2339 09df 4701     		.2byte	0x147
 2340 09e1 83000000 		.4byte	0x83
 2341 09e5 1B070000 		.4byte	.LLST48
 2342 09e9 21       		.uleb128 0x21
 2343 09ea 0D060000 		.4byte	.LASF85
 2344 09ee 01       		.byte	0x1
 2345 09ef 4801     		.2byte	0x148
 2346 09f1 83000000 		.4byte	0x83
 2347 09f5 44070000 		.4byte	.LLST49
 2348 09f9 2D       		.uleb128 0x2d
 2349 09fa 05020000 		.4byte	.LASF111
 2350 09fe 01       		.byte	0x1
 2351 09ff 4901     		.2byte	0x149
 2352 0a01 83000000 		.4byte	0x83
 2353 0a05 00       		.byte	0
 2354 0a06 21       		.uleb128 0x21
 2355 0a07 60050000 		.4byte	.LASF112
 2356 0a0b 01       		.byte	0x1
 2357 0a0c 4C01     		.2byte	0x14c
 2358 0a0e 83000000 		.4byte	0x83
 2359 0a12 86070000 		.4byte	.LLST50
 2360 0a16 28       		.uleb128 0x28
 2361 0a17 48000000 		.4byte	.LVL116
 2362 0a1b C1040000 		.4byte	0x4c1
 2363 0a1f 370A0000 		.4byte	0xa37
 2364 0a23 20       		.uleb128 0x20
 2365 0a24 01       		.uleb128 0x1
 2366 0a25 52       		.byte	0x52
 2367 0a26 02       		.uleb128 0x2
 2368 0a27 74       		.byte	0x74
 2369 0a28 00       		.sleb128 0
 2370 0a29 20       		.uleb128 0x20
 2371 0a2a 01       		.uleb128 0x1
 2372 0a2b 51       		.byte	0x51
 2373 0a2c 03       		.uleb128 0x3
 2374 0a2d 91       		.byte	0x91
 2375 0a2e 64       		.sleb128 -28
ARM GAS  C:\Users\TB1014~1\AppData\Local\Temp\ccLivewv.s 			page 70


 2376 0a2f 06       		.byte	0x6
 2377 0a30 20       		.uleb128 0x20
 2378 0a31 01       		.uleb128 0x1
 2379 0a32 50       		.byte	0x50
 2380 0a33 02       		.uleb128 0x2
 2381 0a34 76       		.byte	0x76
 2382 0a35 00       		.sleb128 0
 2383 0a36 00       		.byte	0
 2384 0a37 1F       		.uleb128 0x1f
 2385 0a38 7A000000 		.4byte	.LVL122
 2386 0a3c 1A090000 		.4byte	0x91a
 2387 0a40 20       		.uleb128 0x20
 2388 0a41 01       		.uleb128 0x1
 2389 0a42 53       		.byte	0x53
 2390 0a43 01       		.uleb128 0x1
 2391 0a44 38       		.byte	0x38
 2392 0a45 20       		.uleb128 0x20
 2393 0a46 01       		.uleb128 0x1
 2394 0a47 52       		.byte	0x52
 2395 0a48 01       		.uleb128 0x1
 2396 0a49 32       		.byte	0x32
 2397 0a4a 00       		.byte	0
 2398 0a4b 00       		.byte	0
 2399 0a4c 2A       		.uleb128 0x2a
 2400 0a4d 23050000 		.4byte	.LASF113
 2401 0a51 01       		.byte	0x1
 2402 0a52 0A01     		.2byte	0x10a
 2403 0a54 A4000000 		.4byte	0xa4
 2404 0a58 00000000 		.4byte	.LFB4
 2405 0a5c 24000000 		.4byte	.LFE4-.LFB4
 2406 0a60 01       		.uleb128 0x1
 2407 0a61 9C       		.byte	0x9c
 2408 0a62 D00A0000 		.4byte	0xad0
 2409 0a66 1B       		.uleb128 0x1b
 2410 0a67 1B090000 		.4byte	.LASF88
 2411 0a6b 01       		.byte	0x1
 2412 0a6c 0A01     		.2byte	0x10a
 2413 0a6e 83000000 		.4byte	0x83
 2414 0a72 A4070000 		.4byte	.LLST51
 2415 0a76 1B       		.uleb128 0x1b
 2416 0a77 95010000 		.4byte	.LASF89
 2417 0a7b 01       		.byte	0x1
 2418 0a7c 0A01     		.2byte	0x10a
 2419 0a7e 83000000 		.4byte	0x83
 2420 0a82 C5070000 		.4byte	.LLST52
 2421 0a86 21       		.uleb128 0x21
 2422 0a87 05020000 		.4byte	.LASF111
 2423 0a8b 01       		.byte	0x1
 2424 0a8c 0C01     		.2byte	0x10c
 2425 0a8e 83000000 		.4byte	0x83
 2426 0a92 E6070000 		.4byte	.LLST53
 2427 0a96 21       		.uleb128 0x21
 2428 0a97 D8030000 		.4byte	.LASF83
 2429 0a9b 01       		.byte	0x1
 2430 0a9c 0E01     		.2byte	0x10e
 2431 0a9e B9030000 		.4byte	0x3b9
 2432 0aa2 05080000 		.4byte	.LLST54
ARM GAS  C:\Users\TB1014~1\AppData\Local\Temp\ccLivewv.s 			page 71


 2433 0aa6 21       		.uleb128 0x21
 2434 0aa7 A0060000 		.4byte	.LASF90
 2435 0aab 01       		.byte	0x1
 2436 0aac 0F01     		.2byte	0x10f
 2437 0aae FA050000 		.4byte	0x5fa
 2438 0ab2 30080000 		.4byte	.LLST55
 2439 0ab6 21       		.uleb128 0x21
 2440 0ab7 80020000 		.4byte	.LASF98
 2441 0abb 01       		.byte	0x1
 2442 0abc 1001     		.2byte	0x110
 2443 0abe A8070000 		.4byte	0x7a8
 2444 0ac2 43080000 		.4byte	.LLST56
 2445 0ac6 29       		.uleb128 0x29
 2446 0ac7 1E000000 		.4byte	.LVL136
 2447 0acb 7F090000 		.4byte	0x97f
 2448 0acf 00       		.byte	0
 2449 0ad0 2E       		.uleb128 0x2e
 2450 0ad1 C3010000 		.4byte	.LASF114
 2451 0ad5 01       		.byte	0x1
 2452 0ad6 D1       		.byte	0xd1
 2453 0ad7 A4000000 		.4byte	0xa4
 2454 0adb 00000000 		.4byte	.LFB3
 2455 0adf 2C000000 		.4byte	.LFE3-.LFB3
 2456 0ae3 01       		.uleb128 0x1
 2457 0ae4 9C       		.byte	0x9c
 2458 0ae5 4B0B0000 		.4byte	0xb4b
 2459 0ae9 2F       		.uleb128 0x2f
 2460 0aea 1B090000 		.4byte	.LASF88
 2461 0aee 01       		.byte	0x1
 2462 0aef D1       		.byte	0xd1
 2463 0af0 83000000 		.4byte	0x83
 2464 0af4 56080000 		.4byte	.LLST57
 2465 0af8 26       		.uleb128 0x26
 2466 0af9 95010000 		.4byte	.LASF89
 2467 0afd 01       		.byte	0x1
 2468 0afe D3       		.byte	0xd3
 2469 0aff 83000000 		.4byte	0x83
 2470 0b03 82080000 		.4byte	.LLST58
 2471 0b07 26       		.uleb128 0x26
 2472 0b08 F3000000 		.4byte	.LASF92
 2473 0b0c 01       		.byte	0x1
 2474 0b0d D4       		.byte	0xd4
 2475 0b0e 83000000 		.4byte	0x83
 2476 0b12 C3080000 		.4byte	.LLST59
 2477 0b16 26       		.uleb128 0x26
 2478 0b17 A0060000 		.4byte	.LASF90
 2479 0b1b 01       		.byte	0x1
 2480 0b1c D6       		.byte	0xd6
 2481 0b1d FA050000 		.4byte	0x5fa
 2482 0b21 D6080000 		.4byte	.LLST60
 2483 0b25 26       		.uleb128 0x26
 2484 0b26 A1050000 		.4byte	.LASF115
 2485 0b2a 01       		.byte	0x1
 2486 0b2b D7       		.byte	0xd7
 2487 0b2c A4000000 		.4byte	0xa4
 2488 0b30 E9080000 		.4byte	.LLST61
 2489 0b34 1F       		.uleb128 0x1f
ARM GAS  C:\Users\TB1014~1\AppData\Local\Temp\ccLivewv.s 			page 72


 2490 0b35 1A000000 		.4byte	.LVL142
 2491 0b39 4C0A0000 		.4byte	0xa4c
 2492 0b3d 20       		.uleb128 0x20
 2493 0b3e 01       		.uleb128 0x1
 2494 0b3f 51       		.byte	0x51
 2495 0b40 02       		.uleb128 0x2
 2496 0b41 74       		.byte	0x74
 2497 0b42 00       		.sleb128 0
 2498 0b43 20       		.uleb128 0x20
 2499 0b44 01       		.uleb128 0x1
 2500 0b45 50       		.byte	0x50
 2501 0b46 02       		.uleb128 0x2
 2502 0b47 76       		.byte	0x76
 2503 0b48 00       		.sleb128 0
 2504 0b49 00       		.byte	0
 2505 0b4a 00       		.byte	0
 2506 0b4b 2E       		.uleb128 0x2e
 2507 0b4c 63060000 		.4byte	.LASF116
 2508 0b50 01       		.byte	0x1
 2509 0b51 A4       		.byte	0xa4
 2510 0b52 A4000000 		.4byte	0xa4
 2511 0b56 00000000 		.4byte	.LFB2
 2512 0b5a 1C000000 		.4byte	.LFE2-.LFB2
 2513 0b5e 01       		.uleb128 0x1
 2514 0b5f 9C       		.byte	0x9c
 2515 0b60 930B0000 		.4byte	0xb93
 2516 0b64 26       		.uleb128 0x26
 2517 0b65 1B090000 		.4byte	.LASF88
 2518 0b69 01       		.byte	0x1
 2519 0b6a A6       		.byte	0xa6
 2520 0b6b 83000000 		.4byte	0x83
 2521 0b6f 13090000 		.4byte	.LLST62
 2522 0b73 26       		.uleb128 0x26
 2523 0b74 A1050000 		.4byte	.LASF115
 2524 0b78 01       		.byte	0x1
 2525 0b79 A7       		.byte	0xa7
 2526 0b7a A4000000 		.4byte	0xa4
 2527 0b7e 55090000 		.4byte	.LLST63
 2528 0b82 1F       		.uleb128 0x1f
 2529 0b83 0E000000 		.4byte	.LVL151
 2530 0b87 D00A0000 		.4byte	0xad0
 2531 0b8b 20       		.uleb128 0x20
 2532 0b8c 01       		.uleb128 0x1
 2533 0b8d 50       		.byte	0x50
 2534 0b8e 02       		.uleb128 0x2
 2535 0b8f 74       		.byte	0x74
 2536 0b90 00       		.sleb128 0
 2537 0b91 00       		.byte	0
 2538 0b92 00       		.byte	0
 2539 0b93 19       		.uleb128 0x19
 2540 0b94 ED010000 		.4byte	.LASF117
 2541 0b98 01       		.byte	0x1
 2542 0b99 0803     		.2byte	0x308
 2543 0b9b 00000000 		.4byte	.LFB14
 2544 0b9f 36000000 		.4byte	.LFE14-.LFB14
 2545 0ba3 01       		.uleb128 0x1
 2546 0ba4 9C       		.byte	0x9c
ARM GAS  C:\Users\TB1014~1\AppData\Local\Temp\ccLivewv.s 			page 73


 2547 0ba5 0F0C0000 		.4byte	0xc0f
 2548 0ba9 1B       		.uleb128 0x1b
 2549 0baa E9080000 		.4byte	.LASF95
 2550 0bae 01       		.byte	0x1
 2551 0baf 0803     		.2byte	0x308
 2552 0bb1 83040000 		.4byte	0x483
 2553 0bb5 7F090000 		.4byte	.LLST64
 2554 0bb9 1B       		.uleb128 0x1b
 2555 0bba E4060000 		.4byte	.LASF96
 2556 0bbe 01       		.byte	0x1
 2557 0bbf 0903     		.2byte	0x309
 2558 0bc1 B9030000 		.4byte	0x3b9
 2559 0bc5 9D090000 		.4byte	.LLST65
 2560 0bc9 1B       		.uleb128 0x1b
 2561 0bca FB050000 		.4byte	.LASF84
 2562 0bce 01       		.byte	0x1
 2563 0bcf 0903     		.2byte	0x309
 2564 0bd1 83000000 		.4byte	0x83
 2565 0bd5 C9090000 		.4byte	.LLST66
 2566 0bd9 21       		.uleb128 0x21
 2567 0bda 0D060000 		.4byte	.LASF85
 2568 0bde 01       		.byte	0x1
 2569 0bdf 0B03     		.2byte	0x30b
 2570 0be1 83000000 		.4byte	0x83
 2571 0be5 E8090000 		.4byte	.LLST67
 2572 0be9 21       		.uleb128 0x21
 2573 0bea 7F060000 		.4byte	.LASF118
 2574 0bee 01       		.byte	0x1
 2575 0bef 0C03     		.2byte	0x30c
 2576 0bf1 83000000 		.4byte	0x83
 2577 0bf5 2A0A0000 		.4byte	.LLST68
 2578 0bf9 1F       		.uleb128 0x1f
 2579 0bfa 24000000 		.4byte	.LVL161
 2580 0bfe 1A090000 		.4byte	0x91a
 2581 0c02 20       		.uleb128 0x20
 2582 0c03 01       		.uleb128 0x1
 2583 0c04 53       		.byte	0x53
 2584 0c05 01       		.uleb128 0x1
 2585 0c06 30       		.byte	0x30
 2586 0c07 20       		.uleb128 0x20
 2587 0c08 01       		.uleb128 0x1
 2588 0c09 52       		.byte	0x52
 2589 0c0a 02       		.uleb128 0x2
 2590 0c0b 08       		.byte	0x8
 2591 0c0c 80       		.byte	0x80
 2592 0c0d 00       		.byte	0
 2593 0c0e 00       		.byte	0
 2594 0c0f 19       		.uleb128 0x19
 2595 0c10 BB000000 		.4byte	.LASF119
 2596 0c14 01       		.byte	0x1
 2597 0c15 B002     		.2byte	0x2b0
 2598 0c17 00000000 		.4byte	.LFB12
 2599 0c1b 30000000 		.4byte	.LFE12-.LFB12
 2600 0c1f 01       		.uleb128 0x1
 2601 0c20 9C       		.byte	0x9c
 2602 0c21 7B0C0000 		.4byte	0xc7b
 2603 0c25 1B       		.uleb128 0x1b
ARM GAS  C:\Users\TB1014~1\AppData\Local\Temp\ccLivewv.s 			page 74


 2604 0c26 1B090000 		.4byte	.LASF88
 2605 0c2a 01       		.byte	0x1
 2606 0c2b B002     		.2byte	0x2b0
 2607 0c2d 83000000 		.4byte	0x83
 2608 0c31 3D0A0000 		.4byte	.LLST69
 2609 0c35 1B       		.uleb128 0x1b
 2610 0c36 95010000 		.4byte	.LASF89
 2611 0c3a 01       		.byte	0x1
 2612 0c3b B002     		.2byte	0x2b0
 2613 0c3d 83000000 		.4byte	0x83
 2614 0c41 5E0A0000 		.4byte	.LLST70
 2615 0c45 21       		.uleb128 0x21
 2616 0c46 A0060000 		.4byte	.LASF90
 2617 0c4a 01       		.byte	0x1
 2618 0c4b B202     		.2byte	0x2b2
 2619 0c4d FA050000 		.4byte	0x5fa
 2620 0c51 7F0A0000 		.4byte	.LLST71
 2621 0c55 21       		.uleb128 0x21
 2622 0c56 D8030000 		.4byte	.LASF83
 2623 0c5a 01       		.byte	0x1
 2624 0c5b B302     		.2byte	0x2b3
 2625 0c5d B9030000 		.4byte	0x3b9
 2626 0c61 920A0000 		.4byte	.LLST72
 2627 0c65 18       		.uleb128 0x18
 2628 0c66 E9080000 		.4byte	.LASF95
 2629 0c6a 01       		.byte	0x1
 2630 0c6b B402     		.2byte	0x2b4
 2631 0c6d 83040000 		.4byte	0x483
 2632 0c71 29       		.uleb128 0x29
 2633 0c72 2A000000 		.4byte	.LVL175
 2634 0c76 930B0000 		.4byte	0xb93
 2635 0c7a 00       		.byte	0
 2636 0c7b 19       		.uleb128 0x19
 2637 0c7c 8D020000 		.4byte	.LASF120
 2638 0c80 01       		.byte	0x1
 2639 0c81 FC04     		.2byte	0x4fc
 2640 0c83 00000000 		.4byte	.LFB16
 2641 0c87 08000000 		.4byte	.LFE16-.LFB16
 2642 0c8b 01       		.uleb128 0x1
 2643 0c8c 9C       		.byte	0x9c
 2644 0c8d DA0C0000 		.4byte	0xcda
 2645 0c91 1B       		.uleb128 0x1b
 2646 0c92 E9080000 		.4byte	.LASF95
 2647 0c96 01       		.byte	0x1
 2648 0c97 FC04     		.2byte	0x4fc
 2649 0c99 83040000 		.4byte	0x483
 2650 0c9d BD0A0000 		.4byte	.LLST73
 2651 0ca1 1B       		.uleb128 0x1b
 2652 0ca2 E4060000 		.4byte	.LASF96
 2653 0ca6 01       		.byte	0x1
 2654 0ca7 FD04     		.2byte	0x4fd
 2655 0ca9 B9030000 		.4byte	0x3b9
 2656 0cad D00A0000 		.4byte	.LLST74
 2657 0cb1 1B       		.uleb128 0x1b
 2658 0cb2 FB050000 		.4byte	.LASF84
 2659 0cb6 01       		.byte	0x1
 2660 0cb7 FD04     		.2byte	0x4fd
ARM GAS  C:\Users\TB1014~1\AppData\Local\Temp\ccLivewv.s 			page 75


 2661 0cb9 83000000 		.4byte	0x83
 2662 0cbd F10A0000 		.4byte	.LLST75
 2663 0cc1 1F       		.uleb128 0x1f
 2664 0cc2 06000000 		.4byte	.LVL177
 2665 0cc6 930B0000 		.4byte	0xb93
 2666 0cca 20       		.uleb128 0x20
 2667 0ccb 01       		.uleb128 0x1
 2668 0ccc 52       		.byte	0x52
 2669 0ccd 03       		.uleb128 0x3
 2670 0cce F3       		.byte	0xf3
 2671 0ccf 01       		.uleb128 0x1
 2672 0cd0 52       		.byte	0x52
 2673 0cd1 20       		.uleb128 0x20
 2674 0cd2 01       		.uleb128 0x1
 2675 0cd3 51       		.byte	0x51
 2676 0cd4 03       		.uleb128 0x3
 2677 0cd5 F3       		.byte	0xf3
 2678 0cd6 01       		.uleb128 0x1
 2679 0cd7 51       		.byte	0x51
 2680 0cd8 00       		.byte	0
 2681 0cd9 00       		.byte	0
 2682 0cda 19       		.uleb128 0x19
 2683 0cdb AE030000 		.4byte	.LASF121
 2684 0cdf 01       		.byte	0x1
 2685 0ce0 D104     		.2byte	0x4d1
 2686 0ce2 00000000 		.4byte	.LFB15
 2687 0ce6 30000000 		.4byte	.LFE15-.LFB15
 2688 0cea 01       		.uleb128 0x1
 2689 0ceb 9C       		.byte	0x9c
 2690 0cec 460D0000 		.4byte	0xd46
 2691 0cf0 1B       		.uleb128 0x1b
 2692 0cf1 1B090000 		.4byte	.LASF88
 2693 0cf5 01       		.byte	0x1
 2694 0cf6 D104     		.2byte	0x4d1
 2695 0cf8 83000000 		.4byte	0x83
 2696 0cfc 120B0000 		.4byte	.LLST76
 2697 0d00 1B       		.uleb128 0x1b
 2698 0d01 95010000 		.4byte	.LASF89
 2699 0d05 01       		.byte	0x1
 2700 0d06 D104     		.2byte	0x4d1
 2701 0d08 83000000 		.4byte	0x83
 2702 0d0c 330B0000 		.4byte	.LLST77
 2703 0d10 21       		.uleb128 0x21
 2704 0d11 A0060000 		.4byte	.LASF90
 2705 0d15 01       		.byte	0x1
 2706 0d16 D304     		.2byte	0x4d3
 2707 0d18 FA050000 		.4byte	0x5fa
 2708 0d1c 540B0000 		.4byte	.LLST78
 2709 0d20 21       		.uleb128 0x21
 2710 0d21 D8030000 		.4byte	.LASF83
 2711 0d25 01       		.byte	0x1
 2712 0d26 D404     		.2byte	0x4d4
 2713 0d28 B9030000 		.4byte	0x3b9
 2714 0d2c 670B0000 		.4byte	.LLST79
 2715 0d30 18       		.uleb128 0x18
 2716 0d31 E9080000 		.4byte	.LASF95
 2717 0d35 01       		.byte	0x1
ARM GAS  C:\Users\TB1014~1\AppData\Local\Temp\ccLivewv.s 			page 76


 2718 0d36 D504     		.2byte	0x4d5
 2719 0d38 83040000 		.4byte	0x483
 2720 0d3c 29       		.uleb128 0x29
 2721 0d3d 2A000000 		.4byte	.LVL186
 2722 0d41 7B0C0000 		.4byte	0xc7b
 2723 0d45 00       		.byte	0
 2724 0d46 30       		.uleb128 0x30
 2725 0d47 F1060000 		.4byte	.LASF127
 2726 0d4b 05       		.byte	0x5
 2727 0d4c 7F04     		.2byte	0x47f
 2728 0d4e 520D0000 		.4byte	0xd52
 2729 0d52 24       		.uleb128 0x24
 2730 0d53 F9030000 		.4byte	0x3f9
 2731 0d57 31       		.uleb128 0x31
 2732 0d58 D8050000 		.4byte	.LASF123
 2733 0d5c 04       		.byte	0x4
 2734 0d5d 9E       		.byte	0x9e
 2735 0d5e 720D0000 		.4byte	0xd72
 2736 0d62 32       		.uleb128 0x32
 2737 0d63 77000000 		.4byte	0x77
 2738 0d67 32       		.uleb128 0x32
 2739 0d68 77000000 		.4byte	0x77
 2740 0d6c 32       		.uleb128 0x32
 2741 0d6d BF030000 		.4byte	0x3bf
 2742 0d71 00       		.byte	0
 2743 0d72 33       		.uleb128 0x33
 2744 0d73 E2030000 		.4byte	.LASF128
 2745 0d77 04       		.byte	0x4
 2746 0d78 A2       		.byte	0xa2
 2747 0d79 32       		.uleb128 0x32
 2748 0d7a 77000000 		.4byte	0x77
 2749 0d7e 32       		.uleb128 0x32
 2750 0d7f 77000000 		.4byte	0x77
 2751 0d83 32       		.uleb128 0x32
 2752 0d84 BF030000 		.4byte	0x3bf
 2753 0d88 00       		.byte	0
 2754 0d89 00       		.byte	0
 2755              		.section	.debug_abbrev,"",%progbits
 2756              	.Ldebug_abbrev0:
 2757 0000 01       		.uleb128 0x1
 2758 0001 11       		.uleb128 0x11
 2759 0002 01       		.byte	0x1
 2760 0003 25       		.uleb128 0x25
 2761 0004 0E       		.uleb128 0xe
 2762 0005 13       		.uleb128 0x13
 2763 0006 0B       		.uleb128 0xb
 2764 0007 03       		.uleb128 0x3
 2765 0008 0E       		.uleb128 0xe
 2766 0009 1B       		.uleb128 0x1b
 2767 000a 0E       		.uleb128 0xe
 2768 000b 55       		.uleb128 0x55
 2769 000c 17       		.uleb128 0x17
 2770 000d 11       		.uleb128 0x11
 2771 000e 01       		.uleb128 0x1
 2772 000f 10       		.uleb128 0x10
 2773 0010 17       		.uleb128 0x17
 2774 0011 00       		.byte	0
ARM GAS  C:\Users\TB1014~1\AppData\Local\Temp\ccLivewv.s 			page 77


 2775 0012 00       		.byte	0
 2776 0013 02       		.uleb128 0x2
 2777 0014 24       		.uleb128 0x24
 2778 0015 00       		.byte	0
 2779 0016 0B       		.uleb128 0xb
 2780 0017 0B       		.uleb128 0xb
 2781 0018 3E       		.uleb128 0x3e
 2782 0019 0B       		.uleb128 0xb
 2783 001a 03       		.uleb128 0x3
 2784 001b 0E       		.uleb128 0xe
 2785 001c 00       		.byte	0
 2786 001d 00       		.byte	0
 2787 001e 03       		.uleb128 0x3
 2788 001f 24       		.uleb128 0x24
 2789 0020 00       		.byte	0
 2790 0021 0B       		.uleb128 0xb
 2791 0022 0B       		.uleb128 0xb
 2792 0023 3E       		.uleb128 0x3e
 2793 0024 0B       		.uleb128 0xb
 2794 0025 03       		.uleb128 0x3
 2795 0026 08       		.uleb128 0x8
 2796 0027 00       		.byte	0
 2797 0028 00       		.byte	0
 2798 0029 04       		.uleb128 0x4
 2799 002a 16       		.uleb128 0x16
 2800 002b 00       		.byte	0
 2801 002c 03       		.uleb128 0x3
 2802 002d 0E       		.uleb128 0xe
 2803 002e 3A       		.uleb128 0x3a
 2804 002f 0B       		.uleb128 0xb
 2805 0030 3B       		.uleb128 0x3b
 2806 0031 05       		.uleb128 0x5
 2807 0032 49       		.uleb128 0x49
 2808 0033 13       		.uleb128 0x13
 2809 0034 00       		.byte	0
 2810 0035 00       		.byte	0
 2811 0036 05       		.uleb128 0x5
 2812 0037 0F       		.uleb128 0xf
 2813 0038 00       		.byte	0
 2814 0039 0B       		.uleb128 0xb
 2815 003a 0B       		.uleb128 0xb
 2816 003b 00       		.byte	0
 2817 003c 00       		.byte	0
 2818 003d 06       		.uleb128 0x6
 2819 003e 16       		.uleb128 0x16
 2820 003f 00       		.byte	0
 2821 0040 03       		.uleb128 0x3
 2822 0041 0E       		.uleb128 0xe
 2823 0042 3A       		.uleb128 0x3a
 2824 0043 0B       		.uleb128 0xb
 2825 0044 3B       		.uleb128 0x3b
 2826 0045 0B       		.uleb128 0xb
 2827 0046 49       		.uleb128 0x49
 2828 0047 13       		.uleb128 0x13
 2829 0048 00       		.byte	0
 2830 0049 00       		.byte	0
 2831 004a 07       		.uleb128 0x7
ARM GAS  C:\Users\TB1014~1\AppData\Local\Temp\ccLivewv.s 			page 78


 2832 004b 0F       		.uleb128 0xf
 2833 004c 00       		.byte	0
 2834 004d 0B       		.uleb128 0xb
 2835 004e 0B       		.uleb128 0xb
 2836 004f 49       		.uleb128 0x49
 2837 0050 13       		.uleb128 0x13
 2838 0051 00       		.byte	0
 2839 0052 00       		.byte	0
 2840 0053 08       		.uleb128 0x8
 2841 0054 13       		.uleb128 0x13
 2842 0055 01       		.byte	0x1
 2843 0056 0B       		.uleb128 0xb
 2844 0057 0B       		.uleb128 0xb
 2845 0058 3A       		.uleb128 0x3a
 2846 0059 0B       		.uleb128 0xb
 2847 005a 3B       		.uleb128 0x3b
 2848 005b 0B       		.uleb128 0xb
 2849 005c 01       		.uleb128 0x1
 2850 005d 13       		.uleb128 0x13
 2851 005e 00       		.byte	0
 2852 005f 00       		.byte	0
 2853 0060 09       		.uleb128 0x9
 2854 0061 0D       		.uleb128 0xd
 2855 0062 00       		.byte	0
 2856 0063 03       		.uleb128 0x3
 2857 0064 0E       		.uleb128 0xe
 2858 0065 3A       		.uleb128 0x3a
 2859 0066 0B       		.uleb128 0xb
 2860 0067 3B       		.uleb128 0x3b
 2861 0068 0B       		.uleb128 0xb
 2862 0069 49       		.uleb128 0x49
 2863 006a 13       		.uleb128 0x13
 2864 006b 38       		.uleb128 0x38
 2865 006c 0B       		.uleb128 0xb
 2866 006d 00       		.byte	0
 2867 006e 00       		.byte	0
 2868 006f 0A       		.uleb128 0xa
 2869 0070 04       		.uleb128 0x4
 2870 0071 01       		.byte	0x1
 2871 0072 0B       		.uleb128 0xb
 2872 0073 0B       		.uleb128 0xb
 2873 0074 3A       		.uleb128 0x3a
 2874 0075 0B       		.uleb128 0xb
 2875 0076 3B       		.uleb128 0x3b
 2876 0077 0B       		.uleb128 0xb
 2877 0078 01       		.uleb128 0x1
 2878 0079 13       		.uleb128 0x13
 2879 007a 00       		.byte	0
 2880 007b 00       		.byte	0
 2881 007c 0B       		.uleb128 0xb
 2882 007d 28       		.uleb128 0x28
 2883 007e 00       		.byte	0
 2884 007f 03       		.uleb128 0x3
 2885 0080 0E       		.uleb128 0xe
 2886 0081 1C       		.uleb128 0x1c
 2887 0082 0D       		.uleb128 0xd
 2888 0083 00       		.byte	0
ARM GAS  C:\Users\TB1014~1\AppData\Local\Temp\ccLivewv.s 			page 79


 2889 0084 00       		.byte	0
 2890 0085 0C       		.uleb128 0xc
 2891 0086 01       		.uleb128 0x1
 2892 0087 01       		.byte	0x1
 2893 0088 49       		.uleb128 0x49
 2894 0089 13       		.uleb128 0x13
 2895 008a 01       		.uleb128 0x1
 2896 008b 13       		.uleb128 0x13
 2897 008c 00       		.byte	0
 2898 008d 00       		.byte	0
 2899 008e 0D       		.uleb128 0xd
 2900 008f 21       		.uleb128 0x21
 2901 0090 00       		.byte	0
 2902 0091 49       		.uleb128 0x49
 2903 0092 13       		.uleb128 0x13
 2904 0093 2F       		.uleb128 0x2f
 2905 0094 0B       		.uleb128 0xb
 2906 0095 00       		.byte	0
 2907 0096 00       		.byte	0
 2908 0097 0E       		.uleb128 0xe
 2909 0098 13       		.uleb128 0x13
 2910 0099 01       		.byte	0x1
 2911 009a 0B       		.uleb128 0xb
 2912 009b 0B       		.uleb128 0xb
 2913 009c 3A       		.uleb128 0x3a
 2914 009d 0B       		.uleb128 0xb
 2915 009e 3B       		.uleb128 0x3b
 2916 009f 05       		.uleb128 0x5
 2917 00a0 01       		.uleb128 0x1
 2918 00a1 13       		.uleb128 0x13
 2919 00a2 00       		.byte	0
 2920 00a3 00       		.byte	0
 2921 00a4 0F       		.uleb128 0xf
 2922 00a5 0D       		.uleb128 0xd
 2923 00a6 00       		.byte	0
 2924 00a7 03       		.uleb128 0x3
 2925 00a8 08       		.uleb128 0x8
 2926 00a9 3A       		.uleb128 0x3a
 2927 00aa 0B       		.uleb128 0xb
 2928 00ab 3B       		.uleb128 0x3b
 2929 00ac 05       		.uleb128 0x5
 2930 00ad 49       		.uleb128 0x49
 2931 00ae 13       		.uleb128 0x13
 2932 00af 38       		.uleb128 0x38
 2933 00b0 0B       		.uleb128 0xb
 2934 00b1 00       		.byte	0
 2935 00b2 00       		.byte	0
 2936 00b3 10       		.uleb128 0x10
 2937 00b4 0D       		.uleb128 0xd
 2938 00b5 00       		.byte	0
 2939 00b6 03       		.uleb128 0x3
 2940 00b7 0E       		.uleb128 0xe
 2941 00b8 3A       		.uleb128 0x3a
 2942 00b9 0B       		.uleb128 0xb
 2943 00ba 3B       		.uleb128 0x3b
 2944 00bb 05       		.uleb128 0x5
 2945 00bc 49       		.uleb128 0x49
ARM GAS  C:\Users\TB1014~1\AppData\Local\Temp\ccLivewv.s 			page 80


 2946 00bd 13       		.uleb128 0x13
 2947 00be 38       		.uleb128 0x38
 2948 00bf 0B       		.uleb128 0xb
 2949 00c0 00       		.byte	0
 2950 00c1 00       		.byte	0
 2951 00c2 11       		.uleb128 0x11
 2952 00c3 26       		.uleb128 0x26
 2953 00c4 00       		.byte	0
 2954 00c5 00       		.byte	0
 2955 00c6 00       		.byte	0
 2956 00c7 12       		.uleb128 0x12
 2957 00c8 13       		.uleb128 0x13
 2958 00c9 01       		.byte	0x1
 2959 00ca 0B       		.uleb128 0xb
 2960 00cb 05       		.uleb128 0x5
 2961 00cc 3A       		.uleb128 0x3a
 2962 00cd 0B       		.uleb128 0xb
 2963 00ce 3B       		.uleb128 0x3b
 2964 00cf 05       		.uleb128 0x5
 2965 00d0 01       		.uleb128 0x1
 2966 00d1 13       		.uleb128 0x13
 2967 00d2 00       		.byte	0
 2968 00d3 00       		.byte	0
 2969 00d4 13       		.uleb128 0x13
 2970 00d5 17       		.uleb128 0x17
 2971 00d6 01       		.byte	0x1
 2972 00d7 0B       		.uleb128 0xb
 2973 00d8 0B       		.uleb128 0xb
 2974 00d9 3A       		.uleb128 0x3a
 2975 00da 0B       		.uleb128 0xb
 2976 00db 3B       		.uleb128 0x3b
 2977 00dc 05       		.uleb128 0x5
 2978 00dd 01       		.uleb128 0x1
 2979 00de 13       		.uleb128 0x13
 2980 00df 00       		.byte	0
 2981 00e0 00       		.byte	0
 2982 00e1 14       		.uleb128 0x14
 2983 00e2 0D       		.uleb128 0xd
 2984 00e3 00       		.byte	0
 2985 00e4 03       		.uleb128 0x3
 2986 00e5 08       		.uleb128 0x8
 2987 00e6 3A       		.uleb128 0x3a
 2988 00e7 0B       		.uleb128 0xb
 2989 00e8 3B       		.uleb128 0x3b
 2990 00e9 05       		.uleb128 0x5
 2991 00ea 49       		.uleb128 0x49
 2992 00eb 13       		.uleb128 0x13
 2993 00ec 00       		.byte	0
 2994 00ed 00       		.byte	0
 2995 00ee 15       		.uleb128 0x15
 2996 00ef 0D       		.uleb128 0xd
 2997 00f0 00       		.byte	0
 2998 00f1 03       		.uleb128 0x3
 2999 00f2 0E       		.uleb128 0xe
 3000 00f3 3A       		.uleb128 0x3a
 3001 00f4 0B       		.uleb128 0xb
 3002 00f5 3B       		.uleb128 0x3b
ARM GAS  C:\Users\TB1014~1\AppData\Local\Temp\ccLivewv.s 			page 81


 3003 00f6 05       		.uleb128 0x5
 3004 00f7 49       		.uleb128 0x49
 3005 00f8 13       		.uleb128 0x13
 3006 00f9 00       		.byte	0
 3007 00fa 00       		.byte	0
 3008 00fb 16       		.uleb128 0x16
 3009 00fc 2E       		.uleb128 0x2e
 3010 00fd 01       		.byte	0x1
 3011 00fe 3F       		.uleb128 0x3f
 3012 00ff 19       		.uleb128 0x19
 3013 0100 03       		.uleb128 0x3
 3014 0101 0E       		.uleb128 0xe
 3015 0102 3A       		.uleb128 0x3a
 3016 0103 0B       		.uleb128 0xb
 3017 0104 3B       		.uleb128 0x3b
 3018 0105 05       		.uleb128 0x5
 3019 0106 27       		.uleb128 0x27
 3020 0107 19       		.uleb128 0x19
 3021 0108 20       		.uleb128 0x20
 3022 0109 0B       		.uleb128 0xb
 3023 010a 01       		.uleb128 0x1
 3024 010b 13       		.uleb128 0x13
 3025 010c 00       		.byte	0
 3026 010d 00       		.byte	0
 3027 010e 17       		.uleb128 0x17
 3028 010f 05       		.uleb128 0x5
 3029 0110 00       		.byte	0
 3030 0111 03       		.uleb128 0x3
 3031 0112 0E       		.uleb128 0xe
 3032 0113 3A       		.uleb128 0x3a
 3033 0114 0B       		.uleb128 0xb
 3034 0115 3B       		.uleb128 0x3b
 3035 0116 05       		.uleb128 0x5
 3036 0117 49       		.uleb128 0x49
 3037 0118 13       		.uleb128 0x13
 3038 0119 00       		.byte	0
 3039 011a 00       		.byte	0
 3040 011b 18       		.uleb128 0x18
 3041 011c 34       		.uleb128 0x34
 3042 011d 00       		.byte	0
 3043 011e 03       		.uleb128 0x3
 3044 011f 0E       		.uleb128 0xe
 3045 0120 3A       		.uleb128 0x3a
 3046 0121 0B       		.uleb128 0xb
 3047 0122 3B       		.uleb128 0x3b
 3048 0123 05       		.uleb128 0x5
 3049 0124 49       		.uleb128 0x49
 3050 0125 13       		.uleb128 0x13
 3051 0126 00       		.byte	0
 3052 0127 00       		.byte	0
 3053 0128 19       		.uleb128 0x19
 3054 0129 2E       		.uleb128 0x2e
 3055 012a 01       		.byte	0x1
 3056 012b 3F       		.uleb128 0x3f
 3057 012c 19       		.uleb128 0x19
 3058 012d 03       		.uleb128 0x3
 3059 012e 0E       		.uleb128 0xe
ARM GAS  C:\Users\TB1014~1\AppData\Local\Temp\ccLivewv.s 			page 82


 3060 012f 3A       		.uleb128 0x3a
 3061 0130 0B       		.uleb128 0xb
 3062 0131 3B       		.uleb128 0x3b
 3063 0132 05       		.uleb128 0x5
 3064 0133 27       		.uleb128 0x27
 3065 0134 19       		.uleb128 0x19
 3066 0135 11       		.uleb128 0x11
 3067 0136 01       		.uleb128 0x1
 3068 0137 12       		.uleb128 0x12
 3069 0138 06       		.uleb128 0x6
 3070 0139 40       		.uleb128 0x40
 3071 013a 18       		.uleb128 0x18
 3072 013b 9742     		.uleb128 0x2117
 3073 013d 19       		.uleb128 0x19
 3074 013e 01       		.uleb128 0x1
 3075 013f 13       		.uleb128 0x13
 3076 0140 00       		.byte	0
 3077 0141 00       		.byte	0
 3078 0142 1A       		.uleb128 0x1a
 3079 0143 05       		.uleb128 0x5
 3080 0144 00       		.byte	0
 3081 0145 03       		.uleb128 0x3
 3082 0146 0E       		.uleb128 0xe
 3083 0147 3A       		.uleb128 0x3a
 3084 0148 0B       		.uleb128 0xb
 3085 0149 3B       		.uleb128 0x3b
 3086 014a 05       		.uleb128 0x5
 3087 014b 49       		.uleb128 0x49
 3088 014c 13       		.uleb128 0x13
 3089 014d 02       		.uleb128 0x2
 3090 014e 18       		.uleb128 0x18
 3091 014f 00       		.byte	0
 3092 0150 00       		.byte	0
 3093 0151 1B       		.uleb128 0x1b
 3094 0152 05       		.uleb128 0x5
 3095 0153 00       		.byte	0
 3096 0154 03       		.uleb128 0x3
 3097 0155 0E       		.uleb128 0xe
 3098 0156 3A       		.uleb128 0x3a
 3099 0157 0B       		.uleb128 0xb
 3100 0158 3B       		.uleb128 0x3b
 3101 0159 05       		.uleb128 0x5
 3102 015a 49       		.uleb128 0x49
 3103 015b 13       		.uleb128 0x13
 3104 015c 02       		.uleb128 0x2
 3105 015d 17       		.uleb128 0x17
 3106 015e 00       		.byte	0
 3107 015f 00       		.byte	0
 3108 0160 1C       		.uleb128 0x1c
 3109 0161 2E       		.uleb128 0x2e
 3110 0162 01       		.byte	0x1
 3111 0163 31       		.uleb128 0x31
 3112 0164 13       		.uleb128 0x13
 3113 0165 11       		.uleb128 0x11
 3114 0166 01       		.uleb128 0x1
 3115 0167 12       		.uleb128 0x12
 3116 0168 06       		.uleb128 0x6
ARM GAS  C:\Users\TB1014~1\AppData\Local\Temp\ccLivewv.s 			page 83


 3117 0169 40       		.uleb128 0x40
 3118 016a 18       		.uleb128 0x18
 3119 016b 9742     		.uleb128 0x2117
 3120 016d 19       		.uleb128 0x19
 3121 016e 01       		.uleb128 0x1
 3122 016f 13       		.uleb128 0x13
 3123 0170 00       		.byte	0
 3124 0171 00       		.byte	0
 3125 0172 1D       		.uleb128 0x1d
 3126 0173 05       		.uleb128 0x5
 3127 0174 00       		.byte	0
 3128 0175 31       		.uleb128 0x31
 3129 0176 13       		.uleb128 0x13
 3130 0177 02       		.uleb128 0x2
 3131 0178 17       		.uleb128 0x17
 3132 0179 00       		.byte	0
 3133 017a 00       		.byte	0
 3134 017b 1E       		.uleb128 0x1e
 3135 017c 34       		.uleb128 0x34
 3136 017d 00       		.byte	0
 3137 017e 31       		.uleb128 0x31
 3138 017f 13       		.uleb128 0x13
 3139 0180 02       		.uleb128 0x2
 3140 0181 17       		.uleb128 0x17
 3141 0182 00       		.byte	0
 3142 0183 00       		.byte	0
 3143 0184 1F       		.uleb128 0x1f
 3144 0185 898201   		.uleb128 0x4109
 3145 0188 01       		.byte	0x1
 3146 0189 11       		.uleb128 0x11
 3147 018a 01       		.uleb128 0x1
 3148 018b 31       		.uleb128 0x31
 3149 018c 13       		.uleb128 0x13
 3150 018d 00       		.byte	0
 3151 018e 00       		.byte	0
 3152 018f 20       		.uleb128 0x20
 3153 0190 8A8201   		.uleb128 0x410a
 3154 0193 00       		.byte	0
 3155 0194 02       		.uleb128 0x2
 3156 0195 18       		.uleb128 0x18
 3157 0196 9142     		.uleb128 0x2111
 3158 0198 18       		.uleb128 0x18
 3159 0199 00       		.byte	0
 3160 019a 00       		.byte	0
 3161 019b 21       		.uleb128 0x21
 3162 019c 34       		.uleb128 0x34
 3163 019d 00       		.byte	0
 3164 019e 03       		.uleb128 0x3
 3165 019f 0E       		.uleb128 0xe
 3166 01a0 3A       		.uleb128 0x3a
 3167 01a1 0B       		.uleb128 0xb
 3168 01a2 3B       		.uleb128 0x3b
 3169 01a3 05       		.uleb128 0x5
 3170 01a4 49       		.uleb128 0x49
 3171 01a5 13       		.uleb128 0x13
 3172 01a6 02       		.uleb128 0x2
 3173 01a7 17       		.uleb128 0x17
ARM GAS  C:\Users\TB1014~1\AppData\Local\Temp\ccLivewv.s 			page 84


 3174 01a8 00       		.byte	0
 3175 01a9 00       		.byte	0
 3176 01aa 22       		.uleb128 0x22
 3177 01ab 1D       		.uleb128 0x1d
 3178 01ac 01       		.byte	0x1
 3179 01ad 31       		.uleb128 0x31
 3180 01ae 13       		.uleb128 0x13
 3181 01af 11       		.uleb128 0x11
 3182 01b0 01       		.uleb128 0x1
 3183 01b1 12       		.uleb128 0x12
 3184 01b2 06       		.uleb128 0x6
 3185 01b3 58       		.uleb128 0x58
 3186 01b4 0B       		.uleb128 0xb
 3187 01b5 59       		.uleb128 0x59
 3188 01b6 05       		.uleb128 0x5
 3189 01b7 00       		.byte	0
 3190 01b8 00       		.byte	0
 3191 01b9 23       		.uleb128 0x23
 3192 01ba 0B       		.uleb128 0xb
 3193 01bb 01       		.byte	0x1
 3194 01bc 11       		.uleb128 0x11
 3195 01bd 01       		.uleb128 0x1
 3196 01be 12       		.uleb128 0x12
 3197 01bf 06       		.uleb128 0x6
 3198 01c0 00       		.byte	0
 3199 01c1 00       		.byte	0
 3200 01c2 24       		.uleb128 0x24
 3201 01c3 26       		.uleb128 0x26
 3202 01c4 00       		.byte	0
 3203 01c5 49       		.uleb128 0x49
 3204 01c6 13       		.uleb128 0x13
 3205 01c7 00       		.byte	0
 3206 01c8 00       		.byte	0
 3207 01c9 25       		.uleb128 0x25
 3208 01ca 2E       		.uleb128 0x2e
 3209 01cb 01       		.byte	0x1
 3210 01cc 3F       		.uleb128 0x3f
 3211 01cd 19       		.uleb128 0x19
 3212 01ce 03       		.uleb128 0x3
 3213 01cf 0E       		.uleb128 0xe
 3214 01d0 3A       		.uleb128 0x3a
 3215 01d1 0B       		.uleb128 0xb
 3216 01d2 3B       		.uleb128 0x3b
 3217 01d3 0B       		.uleb128 0xb
 3218 01d4 27       		.uleb128 0x27
 3219 01d5 19       		.uleb128 0x19
 3220 01d6 11       		.uleb128 0x11
 3221 01d7 01       		.uleb128 0x1
 3222 01d8 12       		.uleb128 0x12
 3223 01d9 06       		.uleb128 0x6
 3224 01da 40       		.uleb128 0x40
 3225 01db 18       		.uleb128 0x18
 3226 01dc 9742     		.uleb128 0x2117
 3227 01de 19       		.uleb128 0x19
 3228 01df 01       		.uleb128 0x1
 3229 01e0 13       		.uleb128 0x13
 3230 01e1 00       		.byte	0
ARM GAS  C:\Users\TB1014~1\AppData\Local\Temp\ccLivewv.s 			page 85


 3231 01e2 00       		.byte	0
 3232 01e3 26       		.uleb128 0x26
 3233 01e4 34       		.uleb128 0x34
 3234 01e5 00       		.byte	0
 3235 01e6 03       		.uleb128 0x3
 3236 01e7 0E       		.uleb128 0xe
 3237 01e8 3A       		.uleb128 0x3a
 3238 01e9 0B       		.uleb128 0xb
 3239 01ea 3B       		.uleb128 0x3b
 3240 01eb 0B       		.uleb128 0xb
 3241 01ec 49       		.uleb128 0x49
 3242 01ed 13       		.uleb128 0x13
 3243 01ee 02       		.uleb128 0x2
 3244 01ef 17       		.uleb128 0x17
 3245 01f0 00       		.byte	0
 3246 01f1 00       		.byte	0
 3247 01f2 27       		.uleb128 0x27
 3248 01f3 34       		.uleb128 0x34
 3249 01f4 00       		.byte	0
 3250 01f5 03       		.uleb128 0x3
 3251 01f6 0E       		.uleb128 0xe
 3252 01f7 3A       		.uleb128 0x3a
 3253 01f8 0B       		.uleb128 0xb
 3254 01f9 3B       		.uleb128 0x3b
 3255 01fa 0B       		.uleb128 0xb
 3256 01fb 49       		.uleb128 0x49
 3257 01fc 13       		.uleb128 0x13
 3258 01fd 00       		.byte	0
 3259 01fe 00       		.byte	0
 3260 01ff 28       		.uleb128 0x28
 3261 0200 898201   		.uleb128 0x4109
 3262 0203 01       		.byte	0x1
 3263 0204 11       		.uleb128 0x11
 3264 0205 01       		.uleb128 0x1
 3265 0206 31       		.uleb128 0x31
 3266 0207 13       		.uleb128 0x13
 3267 0208 01       		.uleb128 0x1
 3268 0209 13       		.uleb128 0x13
 3269 020a 00       		.byte	0
 3270 020b 00       		.byte	0
 3271 020c 29       		.uleb128 0x29
 3272 020d 898201   		.uleb128 0x4109
 3273 0210 00       		.byte	0
 3274 0211 11       		.uleb128 0x11
 3275 0212 01       		.uleb128 0x1
 3276 0213 31       		.uleb128 0x31
 3277 0214 13       		.uleb128 0x13
 3278 0215 00       		.byte	0
 3279 0216 00       		.byte	0
 3280 0217 2A       		.uleb128 0x2a
 3281 0218 2E       		.uleb128 0x2e
 3282 0219 01       		.byte	0x1
 3283 021a 3F       		.uleb128 0x3f
 3284 021b 19       		.uleb128 0x19
 3285 021c 03       		.uleb128 0x3
 3286 021d 0E       		.uleb128 0xe
 3287 021e 3A       		.uleb128 0x3a
ARM GAS  C:\Users\TB1014~1\AppData\Local\Temp\ccLivewv.s 			page 86


 3288 021f 0B       		.uleb128 0xb
 3289 0220 3B       		.uleb128 0x3b
 3290 0221 05       		.uleb128 0x5
 3291 0222 27       		.uleb128 0x27
 3292 0223 19       		.uleb128 0x19
 3293 0224 49       		.uleb128 0x49
 3294 0225 13       		.uleb128 0x13
 3295 0226 11       		.uleb128 0x11
 3296 0227 01       		.uleb128 0x1
 3297 0228 12       		.uleb128 0x12
 3298 0229 06       		.uleb128 0x6
 3299 022a 40       		.uleb128 0x40
 3300 022b 18       		.uleb128 0x18
 3301 022c 9742     		.uleb128 0x2117
 3302 022e 19       		.uleb128 0x19
 3303 022f 01       		.uleb128 0x1
 3304 0230 13       		.uleb128 0x13
 3305 0231 00       		.byte	0
 3306 0232 00       		.byte	0
 3307 0233 2B       		.uleb128 0x2b
 3308 0234 05       		.uleb128 0x5
 3309 0235 00       		.byte	0
 3310 0236 03       		.uleb128 0x3
 3311 0237 08       		.uleb128 0x8
 3312 0238 3A       		.uleb128 0x3a
 3313 0239 0B       		.uleb128 0xb
 3314 023a 3B       		.uleb128 0x3b
 3315 023b 05       		.uleb128 0x5
 3316 023c 49       		.uleb128 0x49
 3317 023d 13       		.uleb128 0x13
 3318 023e 02       		.uleb128 0x2
 3319 023f 18       		.uleb128 0x18
 3320 0240 00       		.byte	0
 3321 0241 00       		.byte	0
 3322 0242 2C       		.uleb128 0x2c
 3323 0243 34       		.uleb128 0x34
 3324 0244 00       		.byte	0
 3325 0245 03       		.uleb128 0x3
 3326 0246 0E       		.uleb128 0xe
 3327 0247 3A       		.uleb128 0x3a
 3328 0248 0B       		.uleb128 0xb
 3329 0249 3B       		.uleb128 0x3b
 3330 024a 05       		.uleb128 0x5
 3331 024b 49       		.uleb128 0x49
 3332 024c 13       		.uleb128 0x13
 3333 024d 02       		.uleb128 0x2
 3334 024e 18       		.uleb128 0x18
 3335 024f 00       		.byte	0
 3336 0250 00       		.byte	0
 3337 0251 2D       		.uleb128 0x2d
 3338 0252 34       		.uleb128 0x34
 3339 0253 00       		.byte	0
 3340 0254 03       		.uleb128 0x3
 3341 0255 0E       		.uleb128 0xe
 3342 0256 3A       		.uleb128 0x3a
 3343 0257 0B       		.uleb128 0xb
 3344 0258 3B       		.uleb128 0x3b
ARM GAS  C:\Users\TB1014~1\AppData\Local\Temp\ccLivewv.s 			page 87


 3345 0259 05       		.uleb128 0x5
 3346 025a 49       		.uleb128 0x49
 3347 025b 13       		.uleb128 0x13
 3348 025c 1C       		.uleb128 0x1c
 3349 025d 0B       		.uleb128 0xb
 3350 025e 00       		.byte	0
 3351 025f 00       		.byte	0
 3352 0260 2E       		.uleb128 0x2e
 3353 0261 2E       		.uleb128 0x2e
 3354 0262 01       		.byte	0x1
 3355 0263 3F       		.uleb128 0x3f
 3356 0264 19       		.uleb128 0x19
 3357 0265 03       		.uleb128 0x3
 3358 0266 0E       		.uleb128 0xe
 3359 0267 3A       		.uleb128 0x3a
 3360 0268 0B       		.uleb128 0xb
 3361 0269 3B       		.uleb128 0x3b
 3362 026a 0B       		.uleb128 0xb
 3363 026b 27       		.uleb128 0x27
 3364 026c 19       		.uleb128 0x19
 3365 026d 49       		.uleb128 0x49
 3366 026e 13       		.uleb128 0x13
 3367 026f 11       		.uleb128 0x11
 3368 0270 01       		.uleb128 0x1
 3369 0271 12       		.uleb128 0x12
 3370 0272 06       		.uleb128 0x6
 3371 0273 40       		.uleb128 0x40
 3372 0274 18       		.uleb128 0x18
 3373 0275 9742     		.uleb128 0x2117
 3374 0277 19       		.uleb128 0x19
 3375 0278 01       		.uleb128 0x1
 3376 0279 13       		.uleb128 0x13
 3377 027a 00       		.byte	0
 3378 027b 00       		.byte	0
 3379 027c 2F       		.uleb128 0x2f
 3380 027d 05       		.uleb128 0x5
 3381 027e 00       		.byte	0
 3382 027f 03       		.uleb128 0x3
 3383 0280 0E       		.uleb128 0xe
 3384 0281 3A       		.uleb128 0x3a
 3385 0282 0B       		.uleb128 0xb
 3386 0283 3B       		.uleb128 0x3b
 3387 0284 0B       		.uleb128 0xb
 3388 0285 49       		.uleb128 0x49
 3389 0286 13       		.uleb128 0x13
 3390 0287 02       		.uleb128 0x2
 3391 0288 17       		.uleb128 0x17
 3392 0289 00       		.byte	0
 3393 028a 00       		.byte	0
 3394 028b 30       		.uleb128 0x30
 3395 028c 34       		.uleb128 0x34
 3396 028d 00       		.byte	0
 3397 028e 03       		.uleb128 0x3
 3398 028f 0E       		.uleb128 0xe
 3399 0290 3A       		.uleb128 0x3a
 3400 0291 0B       		.uleb128 0xb
 3401 0292 3B       		.uleb128 0x3b
ARM GAS  C:\Users\TB1014~1\AppData\Local\Temp\ccLivewv.s 			page 88


 3402 0293 05       		.uleb128 0x5
 3403 0294 49       		.uleb128 0x49
 3404 0295 13       		.uleb128 0x13
 3405 0296 3F       		.uleb128 0x3f
 3406 0297 19       		.uleb128 0x19
 3407 0298 3C       		.uleb128 0x3c
 3408 0299 19       		.uleb128 0x19
 3409 029a 00       		.byte	0
 3410 029b 00       		.byte	0
 3411 029c 31       		.uleb128 0x31
 3412 029d 2E       		.uleb128 0x2e
 3413 029e 01       		.byte	0x1
 3414 029f 3F       		.uleb128 0x3f
 3415 02a0 19       		.uleb128 0x19
 3416 02a1 03       		.uleb128 0x3
 3417 02a2 0E       		.uleb128 0xe
 3418 02a3 3A       		.uleb128 0x3a
 3419 02a4 0B       		.uleb128 0xb
 3420 02a5 3B       		.uleb128 0x3b
 3421 02a6 0B       		.uleb128 0xb
 3422 02a7 27       		.uleb128 0x27
 3423 02a8 19       		.uleb128 0x19
 3424 02a9 3C       		.uleb128 0x3c
 3425 02aa 19       		.uleb128 0x19
 3426 02ab 01       		.uleb128 0x1
 3427 02ac 13       		.uleb128 0x13
 3428 02ad 00       		.byte	0
 3429 02ae 00       		.byte	0
 3430 02af 32       		.uleb128 0x32
 3431 02b0 05       		.uleb128 0x5
 3432 02b1 00       		.byte	0
 3433 02b2 49       		.uleb128 0x49
 3434 02b3 13       		.uleb128 0x13
 3435 02b4 00       		.byte	0
 3436 02b5 00       		.byte	0
 3437 02b6 33       		.uleb128 0x33
 3438 02b7 2E       		.uleb128 0x2e
 3439 02b8 01       		.byte	0x1
 3440 02b9 3F       		.uleb128 0x3f
 3441 02ba 19       		.uleb128 0x19
 3442 02bb 03       		.uleb128 0x3
 3443 02bc 0E       		.uleb128 0xe
 3444 02bd 3A       		.uleb128 0x3a
 3445 02be 0B       		.uleb128 0xb
 3446 02bf 3B       		.uleb128 0x3b
 3447 02c0 0B       		.uleb128 0xb
 3448 02c1 27       		.uleb128 0x27
 3449 02c2 19       		.uleb128 0x19
 3450 02c3 3C       		.uleb128 0x3c
 3451 02c4 19       		.uleb128 0x19
 3452 02c5 00       		.byte	0
 3453 02c6 00       		.byte	0
 3454 02c7 00       		.byte	0
 3455              		.section	.debug_loc,"",%progbits
 3456              	.Ldebug_loc0:
 3457              	.LLST0:
 3458 0000 00000000 		.4byte	.LVL0
ARM GAS  C:\Users\TB1014~1\AppData\Local\Temp\ccLivewv.s 			page 89


 3459 0004 02000000 		.4byte	.LVL1
 3460 0008 0100     		.2byte	0x1
 3461 000a 51       		.byte	0x51
 3462 000b 02000000 		.4byte	.LVL1
 3463 000f 1C000000 		.4byte	.LFE10
 3464 0013 0400     		.2byte	0x4
 3465 0015 F3       		.byte	0xf3
 3466 0016 01       		.uleb128 0x1
 3467 0017 51       		.byte	0x51
 3468 0018 9F       		.byte	0x9f
 3469 0019 00000000 		.4byte	0
 3470 001d 00000000 		.4byte	0
 3471              	.LLST1:
 3472 0021 00000000 		.4byte	.LVL0
 3473 0025 16000000 		.4byte	.LVL2
 3474 0029 0100     		.2byte	0x1
 3475 002b 52       		.byte	0x52
 3476 002c 16000000 		.4byte	.LVL2
 3477 0030 1C000000 		.4byte	.LFE10
 3478 0034 0400     		.2byte	0x4
 3479 0036 F3       		.byte	0xf3
 3480 0037 01       		.uleb128 0x1
 3481 0038 52       		.byte	0x52
 3482 0039 9F       		.byte	0x9f
 3483 003a 00000000 		.4byte	0
 3484 003e 00000000 		.4byte	0
 3485              	.LLST2:
 3486 0042 00000000 		.4byte	.LVL3
 3487 0046 0A000000 		.4byte	.LVL5
 3488 004a 0100     		.2byte	0x1
 3489 004c 50       		.byte	0x50
 3490 004d 0A000000 		.4byte	.LVL5
 3491 0051 1C000000 		.4byte	.LVL11
 3492 0055 0100     		.2byte	0x1
 3493 0057 56       		.byte	0x56
 3494 0058 1C000000 		.4byte	.LVL11
 3495 005c 1E000000 		.4byte	.LFE9
 3496 0060 0400     		.2byte	0x4
 3497 0062 F3       		.byte	0xf3
 3498 0063 01       		.uleb128 0x1
 3499 0064 50       		.byte	0x50
 3500 0065 9F       		.byte	0x9f
 3501 0066 00000000 		.4byte	0
 3502 006a 00000000 		.4byte	0
 3503              	.LLST3:
 3504 006e 00000000 		.4byte	.LVL3
 3505 0072 0A000000 		.4byte	.LVL5
 3506 0076 0100     		.2byte	0x1
 3507 0078 51       		.byte	0x51
 3508 0079 0A000000 		.4byte	.LVL5
 3509 007d 1C000000 		.4byte	.LVL10
 3510 0081 0100     		.2byte	0x1
 3511 0083 55       		.byte	0x55
 3512 0084 1C000000 		.4byte	.LVL10
 3513 0088 1E000000 		.4byte	.LFE9
 3514 008c 0400     		.2byte	0x4
 3515 008e F3       		.byte	0xf3
ARM GAS  C:\Users\TB1014~1\AppData\Local\Temp\ccLivewv.s 			page 90


 3516 008f 01       		.uleb128 0x1
 3517 0090 51       		.byte	0x51
 3518 0091 9F       		.byte	0x9f
 3519 0092 00000000 		.4byte	0
 3520 0096 00000000 		.4byte	0
 3521              	.LLST4:
 3522 009a 06000000 		.4byte	.LVL4
 3523 009e 0A000000 		.4byte	.LVL5
 3524 00a2 0200     		.2byte	0x2
 3525 00a4 31       		.byte	0x31
 3526 00a5 9F       		.byte	0x9f
 3527 00a6 0A000000 		.4byte	.LVL5
 3528 00aa 16000000 		.4byte	.LVL7
 3529 00ae 0100     		.2byte	0x1
 3530 00b0 54       		.byte	0x54
 3531 00b1 16000000 		.4byte	.LVL7
 3532 00b5 18000000 		.4byte	.LVL8
 3533 00b9 0100     		.2byte	0x1
 3534 00bb 53       		.byte	0x53
 3535 00bc 18000000 		.4byte	.LVL8
 3536 00c0 1C000000 		.4byte	.LVL9
 3537 00c4 0100     		.2byte	0x1
 3538 00c6 54       		.byte	0x54
 3539 00c7 1C000000 		.4byte	.LVL9
 3540 00cb 1E000000 		.4byte	.LFE9
 3541 00cf 0300     		.2byte	0x3
 3542 00d1 73       		.byte	0x73
 3543 00d2 7F       		.sleb128 -1
 3544 00d3 9F       		.byte	0x9f
 3545 00d4 00000000 		.4byte	0
 3546 00d8 00000000 		.4byte	0
 3547              	.LLST5:
 3548 00dc 00000000 		.4byte	.LVL12
 3549 00e0 06000000 		.4byte	.LVL14
 3550 00e4 0100     		.2byte	0x1
 3551 00e6 50       		.byte	0x50
 3552 00e7 06000000 		.4byte	.LVL14
 3553 00eb 34000000 		.4byte	.LFE8
 3554 00ef 0400     		.2byte	0x4
 3555 00f1 F3       		.byte	0xf3
 3556 00f2 01       		.uleb128 0x1
 3557 00f3 50       		.byte	0x50
 3558 00f4 9F       		.byte	0x9f
 3559 00f5 00000000 		.4byte	0
 3560 00f9 00000000 		.4byte	0
 3561              	.LLST6:
 3562 00fd 00000000 		.4byte	.LVL12
 3563 0101 0E000000 		.4byte	.LVL16
 3564 0105 0100     		.2byte	0x1
 3565 0107 51       		.byte	0x51
 3566 0108 0E000000 		.4byte	.LVL16
 3567 010c 34000000 		.4byte	.LFE8
 3568 0110 0400     		.2byte	0x4
 3569 0112 F3       		.byte	0xf3
 3570 0113 01       		.uleb128 0x1
 3571 0114 51       		.byte	0x51
 3572 0115 9F       		.byte	0x9f
ARM GAS  C:\Users\TB1014~1\AppData\Local\Temp\ccLivewv.s 			page 91


 3573 0116 00000000 		.4byte	0
 3574 011a 00000000 		.4byte	0
 3575              	.LLST7:
 3576 011e 02000000 		.4byte	.LVL13
 3577 0122 0A000000 		.4byte	.LVL15
 3578 0126 0200     		.2byte	0x2
 3579 0128 30       		.byte	0x30
 3580 0129 9F       		.byte	0x9f
 3581 012a 0A000000 		.4byte	.LVL15
 3582 012e 14000000 		.4byte	.LVL17
 3583 0132 0200     		.2byte	0x2
 3584 0134 70       		.byte	0x70
 3585 0135 08       		.sleb128 8
 3586 0136 14000000 		.4byte	.LVL17
 3587 013a 2C000000 		.4byte	.LVL23
 3588 013e 0100     		.2byte	0x1
 3589 0140 54       		.byte	0x54
 3590 0141 00000000 		.4byte	0
 3591 0145 00000000 		.4byte	0
 3592              	.LLST8:
 3593 0149 0A000000 		.4byte	.LVL15
 3594 014d 1A000000 		.4byte	.LVL19
 3595 0151 0100     		.2byte	0x1
 3596 0153 50       		.byte	0x50
 3597 0154 00000000 		.4byte	0
 3598 0158 00000000 		.4byte	0
 3599              	.LLST9:
 3600 015c 16000000 		.4byte	.LVL18
 3601 0160 2C000000 		.4byte	.LVL25
 3602 0164 0100     		.2byte	0x1
 3603 0166 56       		.byte	0x56
 3604 0167 00000000 		.4byte	0
 3605 016b 00000000 		.4byte	0
 3606              	.LLST10:
 3607 016f 16000000 		.4byte	.LVL18
 3608 0173 2C000000 		.4byte	.LVL23
 3609 0177 0100     		.2byte	0x1
 3610 0179 54       		.byte	0x54
 3611 017a 00000000 		.4byte	0
 3612 017e 00000000 		.4byte	0
 3613              	.LLST11:
 3614 0182 16000000 		.4byte	.LVL18
 3615 0186 1A000000 		.4byte	.LVL19
 3616 018a 0200     		.2byte	0x2
 3617 018c 31       		.byte	0x31
 3618 018d 9F       		.byte	0x9f
 3619 018e 1A000000 		.4byte	.LVL19
 3620 0192 26000000 		.4byte	.LVL21
 3621 0196 0100     		.2byte	0x1
 3622 0198 55       		.byte	0x55
 3623 0199 26000000 		.4byte	.LVL21
 3624 019d 28000000 		.4byte	.LVL22
 3625 01a1 0100     		.2byte	0x1
 3626 01a3 53       		.byte	0x53
 3627 01a4 28000000 		.4byte	.LVL22
 3628 01a8 2C000000 		.4byte	.LVL24
 3629 01ac 0100     		.2byte	0x1
ARM GAS  C:\Users\TB1014~1\AppData\Local\Temp\ccLivewv.s 			page 92


 3630 01ae 55       		.byte	0x55
 3631 01af 2C000000 		.4byte	.LVL24
 3632 01b3 34000000 		.4byte	.LFE8
 3633 01b7 0300     		.2byte	0x3
 3634 01b9 73       		.byte	0x73
 3635 01ba 7F       		.sleb128 -1
 3636 01bb 9F       		.byte	0x9f
 3637 01bc 00000000 		.4byte	0
 3638 01c0 00000000 		.4byte	0
 3639              	.LLST12:
 3640 01c4 00000000 		.4byte	.LVL26
 3641 01c8 10000000 		.4byte	.LVL30
 3642 01cc 0100     		.2byte	0x1
 3643 01ce 50       		.byte	0x50
 3644 01cf 10000000 		.4byte	.LVL30
 3645 01d3 20000000 		.4byte	.LVL35
 3646 01d7 0100     		.2byte	0x1
 3647 01d9 55       		.byte	0x55
 3648 01da 20000000 		.4byte	.LVL35
 3649 01de 28000000 		.4byte	.LFE7
 3650 01e2 0400     		.2byte	0x4
 3651 01e4 F3       		.byte	0xf3
 3652 01e5 01       		.uleb128 0x1
 3653 01e6 50       		.byte	0x50
 3654 01e7 9F       		.byte	0x9f
 3655 01e8 00000000 		.4byte	0
 3656 01ec 00000000 		.4byte	0
 3657              	.LLST13:
 3658 01f0 0E000000 		.4byte	.LVL29
 3659 01f4 10000000 		.4byte	.LVL30
 3660 01f8 0100     		.2byte	0x1
 3661 01fa 53       		.byte	0x53
 3662 01fb 10000000 		.4byte	.LVL30
 3663 01ff 1A000000 		.4byte	.LVL32
 3664 0203 0100     		.2byte	0x1
 3665 0205 54       		.byte	0x54
 3666 0206 1A000000 		.4byte	.LVL32
 3667 020a 1C000000 		.4byte	.LVL33
 3668 020e 0100     		.2byte	0x1
 3669 0210 53       		.byte	0x53
 3670 0211 1C000000 		.4byte	.LVL33
 3671 0215 20000000 		.4byte	.LVL34
 3672 0219 0100     		.2byte	0x1
 3673 021b 54       		.byte	0x54
 3674 021c 20000000 		.4byte	.LVL34
 3675 0220 28000000 		.4byte	.LFE7
 3676 0224 0300     		.2byte	0x3
 3677 0226 73       		.byte	0x73
 3678 0227 7F       		.sleb128 -1
 3679 0228 9F       		.byte	0x9f
 3680 0229 00000000 		.4byte	0
 3681 022d 00000000 		.4byte	0
 3682              	.LLST14:
 3683 0231 0E000000 		.4byte	.LVL29
 3684 0235 10000000 		.4byte	.LVL30
 3685 0239 0100     		.2byte	0x1
 3686 023b 53       		.byte	0x53
ARM GAS  C:\Users\TB1014~1\AppData\Local\Temp\ccLivewv.s 			page 93


 3687 023c 00000000 		.4byte	0
 3688 0240 00000000 		.4byte	0
 3689              	.LLST15:
 3690 0244 0C000000 		.4byte	.LVL28
 3691 0248 0E000000 		.4byte	.LVL29
 3692 024c 0100     		.2byte	0x1
 3693 024e 53       		.byte	0x53
 3694 024f 00000000 		.4byte	0
 3695 0253 00000000 		.4byte	0
 3696              	.LLST16:
 3697 0257 02000000 		.4byte	.LVL36
 3698 025b 06000000 		.4byte	.LVL37
 3699 025f 0200     		.2byte	0x2
 3700 0261 38       		.byte	0x38
 3701 0262 9F       		.byte	0x9f
 3702 0263 06000000 		.4byte	.LVL37
 3703 0267 0E000000 		.4byte	.LVL39
 3704 026b 0100     		.2byte	0x1
 3705 026d 54       		.byte	0x54
 3706 026e 0E000000 		.4byte	.LVL39
 3707 0272 10000000 		.4byte	.LVL40
 3708 0276 0100     		.2byte	0x1
 3709 0278 53       		.byte	0x53
 3710 0279 10000000 		.4byte	.LVL40
 3711 027d 14000000 		.4byte	.LVL41
 3712 0281 0100     		.2byte	0x1
 3713 0283 54       		.byte	0x54
 3714 0284 14000000 		.4byte	.LVL41
 3715 0288 16000000 		.4byte	.LFE6
 3716 028c 0300     		.2byte	0x3
 3717 028e 73       		.byte	0x73
 3718 028f 7F       		.sleb128 -1
 3719 0290 9F       		.byte	0x9f
 3720 0291 00000000 		.4byte	0
 3721 0295 00000000 		.4byte	0
 3722              	.LLST17:
 3723 0299 02000000 		.4byte	.LVL43
 3724 029d 06000000 		.4byte	.LVL44
 3725 02a1 0200     		.2byte	0x2
 3726 02a3 31       		.byte	0x31
 3727 02a4 9F       		.byte	0x9f
 3728 02a5 06000000 		.4byte	.LVL44
 3729 02a9 14000000 		.4byte	.LVL45
 3730 02ad 0100     		.2byte	0x1
 3731 02af 54       		.byte	0x54
 3732 02b0 14000000 		.4byte	.LVL45
 3733 02b4 16000000 		.4byte	.LVL46
 3734 02b8 0100     		.2byte	0x1
 3735 02ba 53       		.byte	0x53
 3736 02bb 16000000 		.4byte	.LVL46
 3737 02bf 1A000000 		.4byte	.LVL47
 3738 02c3 0100     		.2byte	0x1
 3739 02c5 54       		.byte	0x54
 3740 02c6 1A000000 		.4byte	.LVL47
 3741 02ca 1C000000 		.4byte	.LFE13
 3742 02ce 0300     		.2byte	0x3
 3743 02d0 73       		.byte	0x73
ARM GAS  C:\Users\TB1014~1\AppData\Local\Temp\ccLivewv.s 			page 94


 3744 02d1 7F       		.sleb128 -1
 3745 02d2 9F       		.byte	0x9f
 3746 02d3 00000000 		.4byte	0
 3747 02d7 00000000 		.4byte	0
 3748              	.LLST18:
 3749 02db 06000000 		.4byte	.LVL48
 3750 02df 0A000000 		.4byte	.LVL49
 3751 02e3 0200     		.2byte	0x2
 3752 02e5 38       		.byte	0x38
 3753 02e6 9F       		.byte	0x9f
 3754 02e7 0A000000 		.4byte	.LVL49
 3755 02eb 72000000 		.4byte	.LVL62
 3756 02ef 0100     		.2byte	0x1
 3757 02f1 57       		.byte	0x57
 3758 02f2 72000000 		.4byte	.LVL62
 3759 02f6 74000000 		.4byte	.LVL63
 3760 02fa 0100     		.2byte	0x1
 3761 02fc 53       		.byte	0x53
 3762 02fd 74000000 		.4byte	.LVL63
 3763 0301 78000000 		.4byte	.LVL64
 3764 0305 0100     		.2byte	0x1
 3765 0307 57       		.byte	0x57
 3766 0308 78000000 		.4byte	.LVL64
 3767 030c 84000000 		.4byte	.LFE1
 3768 0310 0300     		.2byte	0x3
 3769 0312 73       		.byte	0x73
 3770 0313 7F       		.sleb128 -1
 3771 0314 9F       		.byte	0x9f
 3772 0315 00000000 		.4byte	0
 3773 0319 00000000 		.4byte	0
 3774              	.LLST19:
 3775 031d 18000000 		.4byte	.LVL52
 3776 0321 1A000000 		.4byte	.LVL53
 3777 0325 0100     		.2byte	0x1
 3778 0327 53       		.byte	0x53
 3779 0328 1A000000 		.4byte	.LVL53
 3780 032c 6A000000 		.4byte	.LVL60
 3781 0330 0100     		.2byte	0x1
 3782 0332 56       		.byte	0x56
 3783 0333 6A000000 		.4byte	.LVL60
 3784 0337 6C000000 		.4byte	.LVL61
 3785 033b 0100     		.2byte	0x1
 3786 033d 53       		.byte	0x53
 3787 033e 6C000000 		.4byte	.LVL61
 3788 0342 72000000 		.4byte	.LVL62
 3789 0346 0100     		.2byte	0x1
 3790 0348 56       		.byte	0x56
 3791 0349 00000000 		.4byte	0
 3792 034d 00000000 		.4byte	0
 3793              	.LLST20:
 3794 0351 18000000 		.4byte	.LVL52
 3795 0355 1A000000 		.4byte	.LVL53
 3796 0359 0100     		.2byte	0x1
 3797 035b 53       		.byte	0x53
 3798 035c 00000000 		.4byte	0
 3799 0360 00000000 		.4byte	0
 3800              	.LLST21:
ARM GAS  C:\Users\TB1014~1\AppData\Local\Temp\ccLivewv.s 			page 95


 3801 0364 12000000 		.4byte	.LVL50
 3802 0368 18000000 		.4byte	.LVL52
 3803 036c 0100     		.2byte	0x1
 3804 036e 53       		.byte	0x53
 3805 036f 00000000 		.4byte	0
 3806 0373 00000000 		.4byte	0
 3807              	.LLST22:
 3808 0377 06000000 		.4byte	.LVL48
 3809 037b 0A000000 		.4byte	.LVL49
 3810 037f 0200     		.2byte	0x2
 3811 0381 30       		.byte	0x30
 3812 0382 9F       		.byte	0x9f
 3813 0383 22000000 		.4byte	.LVL54
 3814 0387 2E000000 		.4byte	.LVL55
 3815 038b 0200     		.2byte	0x2
 3816 038d 73       		.byte	0x73
 3817 038e 08       		.sleb128 8
 3818 038f 2E000000 		.4byte	.LVL55
 3819 0393 6A000000 		.4byte	.LVL60
 3820 0397 0100     		.2byte	0x1
 3821 0399 54       		.byte	0x54
 3822 039a 00000000 		.4byte	0
 3823 039e 00000000 		.4byte	0
 3824              	.LLST23:
 3825 03a2 16000000 		.4byte	.LVL51
 3826 03a6 1A000000 		.4byte	.LVL53
 3827 03aa 0100     		.2byte	0x1
 3828 03ac 52       		.byte	0x52
 3829 03ad 1A000000 		.4byte	.LVL53
 3830 03b1 72000000 		.4byte	.LVL62
 3831 03b5 0100     		.2byte	0x1
 3832 03b7 58       		.byte	0x58
 3833 03b8 00000000 		.4byte	0
 3834 03bc 00000000 		.4byte	0
 3835              	.LLST24:
 3836 03c0 06000000 		.4byte	.LVL48
 3837 03c4 0A000000 		.4byte	.LVL49
 3838 03c8 0200     		.2byte	0x2
 3839 03ca 30       		.byte	0x30
 3840 03cb 9F       		.byte	0x9f
 3841 03cc 32000000 		.4byte	.LVL56
 3842 03d0 3E000000 		.4byte	.LVL57
 3843 03d4 0200     		.2byte	0x2
 3844 03d6 73       		.byte	0x73
 3845 03d7 24       		.sleb128 36
 3846 03d8 3E000000 		.4byte	.LVL57
 3847 03dc 6A000000 		.4byte	.LVL60
 3848 03e0 0100     		.2byte	0x1
 3849 03e2 55       		.byte	0x55
 3850 03e3 00000000 		.4byte	0
 3851 03e7 00000000 		.4byte	0
 3852              	.LLST25:
 3853 03eb 00000000 		.4byte	.LVL65
 3854 03ef 06000000 		.4byte	.LVL67
 3855 03f3 0100     		.2byte	0x1
 3856 03f5 50       		.byte	0x50
 3857 03f6 06000000 		.4byte	.LVL67
ARM GAS  C:\Users\TB1014~1\AppData\Local\Temp\ccLivewv.s 			page 96


 3858 03fa 30000000 		.4byte	.LFE11
 3859 03fe 0400     		.2byte	0x4
 3860 0400 F3       		.byte	0xf3
 3861 0401 01       		.uleb128 0x1
 3862 0402 50       		.byte	0x50
 3863 0403 9F       		.byte	0x9f
 3864 0404 00000000 		.4byte	0
 3865 0408 00000000 		.4byte	0
 3866              	.LLST26:
 3867 040c 00000000 		.4byte	.LVL65
 3868 0410 22000000 		.4byte	.LVL72
 3869 0414 0100     		.2byte	0x1
 3870 0416 51       		.byte	0x51
 3871 0417 22000000 		.4byte	.LVL72
 3872 041b 30000000 		.4byte	.LFE11
 3873 041f 0400     		.2byte	0x4
 3874 0421 F3       		.byte	0xf3
 3875 0422 01       		.uleb128 0x1
 3876 0423 51       		.byte	0x51
 3877 0424 9F       		.byte	0x9f
 3878 0425 00000000 		.4byte	0
 3879 0429 00000000 		.4byte	0
 3880              	.LLST27:
 3881 042d 0A000000 		.4byte	.LVL68
 3882 0431 1C000000 		.4byte	.LVL71
 3883 0435 0100     		.2byte	0x1
 3884 0437 52       		.byte	0x52
 3885 0438 00000000 		.4byte	0
 3886 043c 00000000 		.4byte	0
 3887              	.LLST28:
 3888 0440 02000000 		.4byte	.LVL66
 3889 0444 0A000000 		.4byte	.LVL68
 3890 0448 0200     		.2byte	0x2
 3891 044a 30       		.byte	0x30
 3892 044b 9F       		.byte	0x9f
 3893 044c 0A000000 		.4byte	.LVL68
 3894 0450 16000000 		.4byte	.LVL69
 3895 0454 0200     		.2byte	0x2
 3896 0456 72       		.byte	0x72
 3897 0457 08       		.sleb128 8
 3898 0458 16000000 		.4byte	.LVL69
 3899 045c 29000000 		.4byte	.LVL73-1
 3900 0460 0100     		.2byte	0x1
 3901 0462 53       		.byte	0x53
 3902 0463 00000000 		.4byte	0
 3903 0467 00000000 		.4byte	0
 3904              	.LLST29:
 3905 046b 00000000 		.4byte	.LVL74
 3906 046f 06000000 		.4byte	.LVL76
 3907 0473 0100     		.2byte	0x1
 3908 0475 50       		.byte	0x50
 3909 0476 06000000 		.4byte	.LVL76
 3910 047a 2C000000 		.4byte	.LFE17
 3911 047e 0400     		.2byte	0x4
 3912 0480 F3       		.byte	0xf3
 3913 0481 01       		.uleb128 0x1
 3914 0482 50       		.byte	0x50
ARM GAS  C:\Users\TB1014~1\AppData\Local\Temp\ccLivewv.s 			page 97


 3915 0483 9F       		.byte	0x9f
 3916 0484 00000000 		.4byte	0
 3917 0488 00000000 		.4byte	0
 3918              	.LLST30:
 3919 048c 00000000 		.4byte	.LVL74
 3920 0490 1A000000 		.4byte	.LVL83
 3921 0494 0100     		.2byte	0x1
 3922 0496 51       		.byte	0x51
 3923 0497 1A000000 		.4byte	.LVL83
 3924 049b 2C000000 		.4byte	.LFE17
 3925 049f 0400     		.2byte	0x4
 3926 04a1 F3       		.byte	0xf3
 3927 04a2 01       		.uleb128 0x1
 3928 04a3 51       		.byte	0x51
 3929 04a4 9F       		.byte	0x9f
 3930 04a5 00000000 		.4byte	0
 3931 04a9 00000000 		.4byte	0
 3932              	.LLST31:
 3933 04ad 0A000000 		.4byte	.LVL77
 3934 04b1 18000000 		.4byte	.LVL82
 3935 04b5 0100     		.2byte	0x1
 3936 04b7 50       		.byte	0x50
 3937 04b8 00000000 		.4byte	0
 3938 04bc 00000000 		.4byte	0
 3939              	.LLST32:
 3940 04c0 0C000000 		.4byte	.LVL78
 3941 04c4 26000000 		.4byte	.LVL86
 3942 04c8 0100     		.2byte	0x1
 3943 04ca 54       		.byte	0x54
 3944 04cb 00000000 		.4byte	0
 3945 04cf 00000000 		.4byte	0
 3946              	.LLST33:
 3947 04d3 0C000000 		.4byte	.LVL78
 3948 04d7 0E000000 		.4byte	.LVL79
 3949 04db 0200     		.2byte	0x2
 3950 04dd 30       		.byte	0x30
 3951 04de 9F       		.byte	0x9f
 3952 04df 0E000000 		.4byte	.LVL79
 3953 04e3 14000000 		.4byte	.LVL80
 3954 04e7 0100     		.2byte	0x1
 3955 04e9 55       		.byte	0x55
 3956 04ea 14000000 		.4byte	.LVL80
 3957 04ee 25000000 		.4byte	.LVL85-1
 3958 04f2 0600     		.2byte	0x6
 3959 04f4 75       		.byte	0x75
 3960 04f5 00       		.sleb128 0
 3961 04f6 73       		.byte	0x73
 3962 04f7 00       		.sleb128 0
 3963 04f8 22       		.byte	0x22
 3964 04f9 9F       		.byte	0x9f
 3965 04fa 25000000 		.4byte	.LVL85-1
 3966 04fe 26000000 		.4byte	.LVL87
 3967 0502 0F00     		.2byte	0xf
 3968 0504 F3       		.byte	0xf3
 3969 0505 01       		.uleb128 0x1
 3970 0506 51       		.byte	0x51
 3971 0507 32       		.byte	0x32
ARM GAS  C:\Users\TB1014~1\AppData\Local\Temp\ccLivewv.s 			page 98


 3972 0508 24       		.byte	0x24
 3973 0509 F3       		.byte	0xf3
 3974 050a 01       		.uleb128 0x1
 3975 050b 51       		.byte	0x51
 3976 050c 22       		.byte	0x22
 3977 050d 31       		.byte	0x31
 3978 050e 24       		.byte	0x24
 3979 050f 75       		.byte	0x75
 3980 0510 00       		.sleb128 0
 3981 0511 22       		.byte	0x22
 3982 0512 9F       		.byte	0x9f
 3983 0513 00000000 		.4byte	0
 3984 0517 00000000 		.4byte	0
 3985              	.LLST34:
 3986 051b 0C000000 		.4byte	.LVL78
 3987 051f 16000000 		.4byte	.LVL81
 3988 0523 0200     		.2byte	0x2
 3989 0525 30       		.byte	0x30
 3990 0526 9F       		.byte	0x9f
 3991 0527 16000000 		.4byte	.LVL81
 3992 052b 25000000 		.4byte	.LVL85-1
 3993 052f 0100     		.2byte	0x1
 3994 0531 52       		.byte	0x52
 3995 0532 00000000 		.4byte	0
 3996 0536 00000000 		.4byte	0
 3997              	.LLST35:
 3998 053a 00000000 		.4byte	.LVL88
 3999 053e 06000000 		.4byte	.LVL90
 4000 0542 0100     		.2byte	0x1
 4001 0544 50       		.byte	0x50
 4002 0545 06000000 		.4byte	.LVL90
 4003 0549 2C000000 		.4byte	.LFE18
 4004 054d 0400     		.2byte	0x4
 4005 054f F3       		.byte	0xf3
 4006 0550 01       		.uleb128 0x1
 4007 0551 50       		.byte	0x50
 4008 0552 9F       		.byte	0x9f
 4009 0553 00000000 		.4byte	0
 4010 0557 00000000 		.4byte	0
 4011              	.LLST36:
 4012 055b 00000000 		.4byte	.LVL88
 4013 055f 1A000000 		.4byte	.LVL97
 4014 0563 0100     		.2byte	0x1
 4015 0565 51       		.byte	0x51
 4016 0566 1A000000 		.4byte	.LVL97
 4017 056a 2C000000 		.4byte	.LFE18
 4018 056e 0400     		.2byte	0x4
 4019 0570 F3       		.byte	0xf3
 4020 0571 01       		.uleb128 0x1
 4021 0572 51       		.byte	0x51
 4022 0573 9F       		.byte	0x9f
 4023 0574 00000000 		.4byte	0
 4024 0578 00000000 		.4byte	0
 4025              	.LLST37:
 4026 057c 0A000000 		.4byte	.LVL91
 4027 0580 18000000 		.4byte	.LVL96
 4028 0584 0100     		.2byte	0x1
ARM GAS  C:\Users\TB1014~1\AppData\Local\Temp\ccLivewv.s 			page 99


 4029 0586 50       		.byte	0x50
 4030 0587 00000000 		.4byte	0
 4031 058b 00000000 		.4byte	0
 4032              	.LLST38:
 4033 058f 0C000000 		.4byte	.LVL92
 4034 0593 26000000 		.4byte	.LVL100
 4035 0597 0100     		.2byte	0x1
 4036 0599 54       		.byte	0x54
 4037 059a 00000000 		.4byte	0
 4038 059e 00000000 		.4byte	0
 4039              	.LLST39:
 4040 05a2 0C000000 		.4byte	.LVL92
 4041 05a6 0E000000 		.4byte	.LVL93
 4042 05aa 0200     		.2byte	0x2
 4043 05ac 30       		.byte	0x30
 4044 05ad 9F       		.byte	0x9f
 4045 05ae 0E000000 		.4byte	.LVL93
 4046 05b2 14000000 		.4byte	.LVL94
 4047 05b6 0100     		.2byte	0x1
 4048 05b8 55       		.byte	0x55
 4049 05b9 14000000 		.4byte	.LVL94
 4050 05bd 25000000 		.4byte	.LVL99-1
 4051 05c1 0600     		.2byte	0x6
 4052 05c3 75       		.byte	0x75
 4053 05c4 00       		.sleb128 0
 4054 05c5 73       		.byte	0x73
 4055 05c6 00       		.sleb128 0
 4056 05c7 22       		.byte	0x22
 4057 05c8 9F       		.byte	0x9f
 4058 05c9 25000000 		.4byte	.LVL99-1
 4059 05cd 26000000 		.4byte	.LVL101
 4060 05d1 0F00     		.2byte	0xf
 4061 05d3 F3       		.byte	0xf3
 4062 05d4 01       		.uleb128 0x1
 4063 05d5 51       		.byte	0x51
 4064 05d6 32       		.byte	0x32
 4065 05d7 24       		.byte	0x24
 4066 05d8 F3       		.byte	0xf3
 4067 05d9 01       		.uleb128 0x1
 4068 05da 51       		.byte	0x51
 4069 05db 22       		.byte	0x22
 4070 05dc 31       		.byte	0x31
 4071 05dd 24       		.byte	0x24
 4072 05de 75       		.byte	0x75
 4073 05df 00       		.sleb128 0
 4074 05e0 22       		.byte	0x22
 4075 05e1 9F       		.byte	0x9f
 4076 05e2 00000000 		.4byte	0
 4077 05e6 00000000 		.4byte	0
 4078              	.LLST40:
 4079 05ea 0C000000 		.4byte	.LVL92
 4080 05ee 16000000 		.4byte	.LVL95
 4081 05f2 0200     		.2byte	0x2
 4082 05f4 30       		.byte	0x30
 4083 05f5 9F       		.byte	0x9f
 4084 05f6 16000000 		.4byte	.LVL95
 4085 05fa 25000000 		.4byte	.LVL99-1
ARM GAS  C:\Users\TB1014~1\AppData\Local\Temp\ccLivewv.s 			page 100


 4086 05fe 0100     		.2byte	0x1
 4087 0600 52       		.byte	0x52
 4088 0601 00000000 		.4byte	0
 4089 0605 00000000 		.4byte	0
 4090              	.LLST41:
 4091 0609 00000000 		.4byte	.LVL102
 4092 060d 02000000 		.4byte	.LVL103
 4093 0611 0100     		.2byte	0x1
 4094 0613 50       		.byte	0x50
 4095 0614 02000000 		.4byte	.LVL103
 4096 0618 14000000 		.4byte	.LFE19
 4097 061c 0400     		.2byte	0x4
 4098 061e F3       		.byte	0xf3
 4099 061f 01       		.uleb128 0x1
 4100 0620 50       		.byte	0x50
 4101 0621 9F       		.byte	0x9f
 4102 0622 00000000 		.4byte	0
 4103 0626 00000000 		.4byte	0
 4104              	.LLST42:
 4105 062a 00000000 		.4byte	.LVL102
 4106 062e 0E000000 		.4byte	.LVL105
 4107 0632 0100     		.2byte	0x1
 4108 0634 51       		.byte	0x51
 4109 0635 0E000000 		.4byte	.LVL105
 4110 0639 14000000 		.4byte	.LFE19
 4111 063d 0400     		.2byte	0x4
 4112 063f F3       		.byte	0xf3
 4113 0640 01       		.uleb128 0x1
 4114 0641 51       		.byte	0x51
 4115 0642 9F       		.byte	0x9f
 4116 0643 00000000 		.4byte	0
 4117 0647 00000000 		.4byte	0
 4118              	.LLST43:
 4119 064b 00000000 		.4byte	.LVL102
 4120 064f 04000000 		.4byte	.LVL104
 4121 0653 0100     		.2byte	0x1
 4122 0655 53       		.byte	0x53
 4123 0656 04000000 		.4byte	.LVL104
 4124 065a 14000000 		.4byte	.LFE19
 4125 065e 0400     		.2byte	0x4
 4126 0660 F3       		.byte	0xf3
 4127 0661 01       		.uleb128 0x1
 4128 0662 53       		.byte	0x53
 4129 0663 9F       		.byte	0x9f
 4130 0664 00000000 		.4byte	0
 4131 0668 00000000 		.4byte	0
 4132              	.LLST44:
 4133 066c 00000000 		.4byte	.LVL107
 4134 0670 0E000000 		.4byte	.LVL109
 4135 0674 0100     		.2byte	0x1
 4136 0676 50       		.byte	0x50
 4137 0677 0E000000 		.4byte	.LVL109
 4138 067b 90000000 		.4byte	.LVL128
 4139 067f 0100     		.2byte	0x1
 4140 0681 57       		.byte	0x57
 4141 0682 90000000 		.4byte	.LVL128
 4142 0686 92000000 		.4byte	.LFE5
ARM GAS  C:\Users\TB1014~1\AppData\Local\Temp\ccLivewv.s 			page 101


 4143 068a 0400     		.2byte	0x4
 4144 068c F3       		.byte	0xf3
 4145 068d 01       		.uleb128 0x1
 4146 068e 50       		.byte	0x50
 4147 068f 9F       		.byte	0x9f
 4148 0690 00000000 		.4byte	0
 4149 0694 00000000 		.4byte	0
 4150              	.LLST45:
 4151 0698 00000000 		.4byte	.LVL107
 4152 069c 0E000000 		.4byte	.LVL109
 4153 06a0 0100     		.2byte	0x1
 4154 06a2 51       		.byte	0x51
 4155 06a3 0E000000 		.4byte	.LVL109
 4156 06a7 90000000 		.4byte	.LVL127
 4157 06ab 0100     		.2byte	0x1
 4158 06ad 56       		.byte	0x56
 4159 06ae 90000000 		.4byte	.LVL127
 4160 06b2 92000000 		.4byte	.LFE5
 4161 06b6 0400     		.2byte	0x4
 4162 06b8 F3       		.byte	0xf3
 4163 06b9 01       		.uleb128 0x1
 4164 06ba 51       		.byte	0x51
 4165 06bb 9F       		.byte	0x9f
 4166 06bc 00000000 		.4byte	0
 4167 06c0 00000000 		.4byte	0
 4168              	.LLST46:
 4169 06c4 00000000 		.4byte	.LVL107
 4170 06c8 0E000000 		.4byte	.LVL109
 4171 06cc 0100     		.2byte	0x1
 4172 06ce 52       		.byte	0x52
 4173 06cf 0E000000 		.4byte	.LVL109
 4174 06d3 92000000 		.4byte	.LFE5
 4175 06d7 0400     		.2byte	0x4
 4176 06d9 F3       		.byte	0xf3
 4177 06da 01       		.uleb128 0x1
 4178 06db 52       		.byte	0x52
 4179 06dc 9F       		.byte	0x9f
 4180 06dd 00000000 		.4byte	0
 4181 06e1 00000000 		.4byte	0
 4182              	.LLST47:
 4183 06e5 1C000000 		.4byte	.LVL110
 4184 06e9 26000000 		.4byte	.LVL111
 4185 06ed 0200     		.2byte	0x2
 4186 06ef 31       		.byte	0x31
 4187 06f0 9F       		.byte	0x9f
 4188 06f1 28000000 		.4byte	.LVL112
 4189 06f5 2A000000 		.4byte	.LVL113
 4190 06f9 0200     		.2byte	0x2
 4191 06fb 30       		.byte	0x30
 4192 06fc 9F       		.byte	0x9f
 4193 06fd 2A000000 		.4byte	.LVL113
 4194 0701 3A000000 		.4byte	.LVL115
 4195 0705 0100     		.2byte	0x1
 4196 0707 52       		.byte	0x52
 4197 0708 52000000 		.4byte	.LVL117
 4198 070c 74000000 		.4byte	.LVL121
 4199 0710 0100     		.2byte	0x1
ARM GAS  C:\Users\TB1014~1\AppData\Local\Temp\ccLivewv.s 			page 102


 4200 0712 52       		.byte	0x52
 4201 0713 00000000 		.4byte	0
 4202 0717 00000000 		.4byte	0
 4203              	.LLST48:
 4204 071b 1C000000 		.4byte	.LVL110
 4205 071f 26000000 		.4byte	.LVL111
 4206 0723 0100     		.2byte	0x1
 4207 0725 53       		.byte	0x53
 4208 0726 28000000 		.4byte	.LVL112
 4209 072a 36000000 		.4byte	.LVL114
 4210 072e 0100     		.2byte	0x1
 4211 0730 53       		.byte	0x53
 4212 0731 52000000 		.4byte	.LVL117
 4213 0735 64000000 		.4byte	.LVL118
 4214 0739 0100     		.2byte	0x1
 4215 073b 53       		.byte	0x53
 4216 073c 00000000 		.4byte	0
 4217 0740 00000000 		.4byte	0
 4218              	.LLST49:
 4219 0744 0A000000 		.4byte	.LVL108
 4220 0748 0E000000 		.4byte	.LVL109
 4221 074c 0200     		.2byte	0x2
 4222 074e 31       		.byte	0x31
 4223 074f 9F       		.byte	0x9f
 4224 0750 0E000000 		.4byte	.LVL109
 4225 0754 86000000 		.4byte	.LVL124
 4226 0758 0100     		.2byte	0x1
 4227 075a 54       		.byte	0x54
 4228 075b 86000000 		.4byte	.LVL124
 4229 075f 88000000 		.4byte	.LVL125
 4230 0763 0100     		.2byte	0x1
 4231 0765 53       		.byte	0x53
 4232 0766 88000000 		.4byte	.LVL125
 4233 076a 90000000 		.4byte	.LVL126
 4234 076e 0100     		.2byte	0x1
 4235 0770 54       		.byte	0x54
 4236 0771 90000000 		.4byte	.LVL126
 4237 0775 92000000 		.4byte	.LFE5
 4238 0779 0300     		.2byte	0x3
 4239 077b 73       		.byte	0x73
 4240 077c 7F       		.sleb128 -1
 4241 077d 9F       		.byte	0x9f
 4242 077e 00000000 		.4byte	0
 4243 0782 00000000 		.4byte	0
 4244              	.LLST50:
 4245 0786 6C000000 		.4byte	.LVL119
 4246 078a 79000000 		.4byte	.LVL122-1
 4247 078e 0100     		.2byte	0x1
 4248 0790 51       		.byte	0x51
 4249 0791 7A000000 		.4byte	.LVL122
 4250 0795 84000000 		.4byte	.LVL123
 4251 0799 0100     		.2byte	0x1
 4252 079b 50       		.byte	0x50
 4253 079c 00000000 		.4byte	0
 4254 07a0 00000000 		.4byte	0
 4255              	.LLST51:
 4256 07a4 00000000 		.4byte	.LVL129
ARM GAS  C:\Users\TB1014~1\AppData\Local\Temp\ccLivewv.s 			page 103


 4257 07a8 06000000 		.4byte	.LVL131
 4258 07ac 0100     		.2byte	0x1
 4259 07ae 50       		.byte	0x50
 4260 07af 06000000 		.4byte	.LVL131
 4261 07b3 24000000 		.4byte	.LFE4
 4262 07b7 0400     		.2byte	0x4
 4263 07b9 F3       		.byte	0xf3
 4264 07ba 01       		.uleb128 0x1
 4265 07bb 50       		.byte	0x50
 4266 07bc 9F       		.byte	0x9f
 4267 07bd 00000000 		.4byte	0
 4268 07c1 00000000 		.4byte	0
 4269              	.LLST52:
 4270 07c5 00000000 		.4byte	.LVL129
 4271 07c9 10000000 		.4byte	.LVL134
 4272 07cd 0100     		.2byte	0x1
 4273 07cf 51       		.byte	0x51
 4274 07d0 10000000 		.4byte	.LVL134
 4275 07d4 24000000 		.4byte	.LFE4
 4276 07d8 0400     		.2byte	0x4
 4277 07da F3       		.byte	0xf3
 4278 07db 01       		.uleb128 0x1
 4279 07dc 51       		.byte	0x51
 4280 07dd 9F       		.byte	0x9f
 4281 07de 00000000 		.4byte	0
 4282 07e2 00000000 		.4byte	0
 4283              	.LLST53:
 4284 07e6 02000000 		.4byte	.LVL130
 4285 07ea 1E000000 		.4byte	.LVL136
 4286 07ee 0200     		.2byte	0x2
 4287 07f0 30       		.byte	0x30
 4288 07f1 9F       		.byte	0x9f
 4289 07f2 1E000000 		.4byte	.LVL136
 4290 07f6 24000000 		.4byte	.LFE4
 4291 07fa 0100     		.2byte	0x1
 4292 07fc 50       		.byte	0x50
 4293 07fd 00000000 		.4byte	0
 4294 0801 00000000 		.4byte	0
 4295              	.LLST54:
 4296 0805 02000000 		.4byte	.LVL130
 4297 0809 0C000000 		.4byte	.LVL133
 4298 080d 0200     		.2byte	0x2
 4299 080f 30       		.byte	0x30
 4300 0810 9F       		.byte	0x9f
 4301 0811 0C000000 		.4byte	.LVL133
 4302 0815 18000000 		.4byte	.LVL135
 4303 0819 0200     		.2byte	0x2
 4304 081b 73       		.byte	0x73
 4305 081c 08       		.sleb128 8
 4306 081d 18000000 		.4byte	.LVL135
 4307 0821 1D000000 		.4byte	.LVL136-1
 4308 0825 0100     		.2byte	0x1
 4309 0827 51       		.byte	0x51
 4310 0828 00000000 		.4byte	0
 4311 082c 00000000 		.4byte	0
 4312              	.LLST55:
 4313 0830 0A000000 		.4byte	.LVL132
ARM GAS  C:\Users\TB1014~1\AppData\Local\Temp\ccLivewv.s 			page 104


 4314 0834 1D000000 		.4byte	.LVL136-1
 4315 0838 0100     		.2byte	0x1
 4316 083a 53       		.byte	0x53
 4317 083b 00000000 		.4byte	0
 4318 083f 00000000 		.4byte	0
 4319              	.LLST56:
 4320 0843 0C000000 		.4byte	.LVL133
 4321 0847 1D000000 		.4byte	.LVL136-1
 4322 084b 0100     		.2byte	0x1
 4323 084d 50       		.byte	0x50
 4324 084e 00000000 		.4byte	0
 4325 0852 00000000 		.4byte	0
 4326              	.LLST57:
 4327 0856 00000000 		.4byte	.LVL137
 4328 085a 12000000 		.4byte	.LVL141
 4329 085e 0100     		.2byte	0x1
 4330 0860 50       		.byte	0x50
 4331 0861 12000000 		.4byte	.LVL141
 4332 0865 26000000 		.4byte	.LVL148
 4333 0869 0100     		.2byte	0x1
 4334 086b 56       		.byte	0x56
 4335 086c 26000000 		.4byte	.LVL148
 4336 0870 2C000000 		.4byte	.LFE3
 4337 0874 0400     		.2byte	0x4
 4338 0876 F3       		.byte	0xf3
 4339 0877 01       		.uleb128 0x1
 4340 0878 50       		.byte	0x50
 4341 0879 9F       		.byte	0x9f
 4342 087a 00000000 		.4byte	0
 4343 087e 00000000 		.4byte	0
 4344              	.LLST58:
 4345 0882 0E000000 		.4byte	.LVL140
 4346 0886 12000000 		.4byte	.LVL141
 4347 088a 0100     		.2byte	0x1
 4348 088c 53       		.byte	0x53
 4349 088d 12000000 		.4byte	.LVL141
 4350 0891 1E000000 		.4byte	.LVL144
 4351 0895 0100     		.2byte	0x1
 4352 0897 54       		.byte	0x54
 4353 0898 1E000000 		.4byte	.LVL144
 4354 089c 20000000 		.4byte	.LVL145
 4355 08a0 0100     		.2byte	0x1
 4356 08a2 53       		.byte	0x53
 4357 08a3 20000000 		.4byte	.LVL145
 4358 08a7 26000000 		.4byte	.LVL146
 4359 08ab 0100     		.2byte	0x1
 4360 08ad 54       		.byte	0x54
 4361 08ae 26000000 		.4byte	.LVL146
 4362 08b2 2C000000 		.4byte	.LFE3
 4363 08b6 0300     		.2byte	0x3
 4364 08b8 73       		.byte	0x73
 4365 08b9 7F       		.sleb128 -1
 4366 08ba 9F       		.byte	0x9f
 4367 08bb 00000000 		.4byte	0
 4368 08bf 00000000 		.4byte	0
 4369              	.LLST59:
 4370 08c3 0E000000 		.4byte	.LVL140
ARM GAS  C:\Users\TB1014~1\AppData\Local\Temp\ccLivewv.s 			page 105


 4371 08c7 12000000 		.4byte	.LVL141
 4372 08cb 0100     		.2byte	0x1
 4373 08cd 53       		.byte	0x53
 4374 08ce 00000000 		.4byte	0
 4375 08d2 00000000 		.4byte	0
 4376              	.LLST60:
 4377 08d6 0C000000 		.4byte	.LVL139
 4378 08da 0E000000 		.4byte	.LVL140
 4379 08de 0100     		.2byte	0x1
 4380 08e0 53       		.byte	0x53
 4381 08e1 00000000 		.4byte	0
 4382 08e5 00000000 		.4byte	0
 4383              	.LLST61:
 4384 08e9 04000000 		.4byte	.LVL138
 4385 08ed 12000000 		.4byte	.LVL141
 4386 08f1 0200     		.2byte	0x2
 4387 08f3 30       		.byte	0x30
 4388 08f4 9F       		.byte	0x9f
 4389 08f5 12000000 		.4byte	.LVL141
 4390 08f9 26000000 		.4byte	.LVL147
 4391 08fd 0100     		.2byte	0x1
 4392 08ff 55       		.byte	0x55
 4393 0900 26000000 		.4byte	.LVL147
 4394 0904 2C000000 		.4byte	.LFE3
 4395 0908 0100     		.2byte	0x1
 4396 090a 50       		.byte	0x50
 4397 090b 00000000 		.4byte	0
 4398 090f 00000000 		.4byte	0
 4399              	.LLST62:
 4400 0913 02000000 		.4byte	.LVL149
 4401 0917 08000000 		.4byte	.LVL150
 4402 091b 0200     		.2byte	0x2
 4403 091d 38       		.byte	0x38
 4404 091e 9F       		.byte	0x9f
 4405 091f 08000000 		.4byte	.LVL150
 4406 0923 12000000 		.4byte	.LVL153
 4407 0927 0100     		.2byte	0x1
 4408 0929 54       		.byte	0x54
 4409 092a 12000000 		.4byte	.LVL153
 4410 092e 14000000 		.4byte	.LVL154
 4411 0932 0100     		.2byte	0x1
 4412 0934 53       		.byte	0x53
 4413 0935 14000000 		.4byte	.LVL154
 4414 0939 1A000000 		.4byte	.LVL155
 4415 093d 0100     		.2byte	0x1
 4416 093f 54       		.byte	0x54
 4417 0940 1A000000 		.4byte	.LVL155
 4418 0944 1C000000 		.4byte	.LFE2
 4419 0948 0300     		.2byte	0x3
 4420 094a 73       		.byte	0x73
 4421 094b 7F       		.sleb128 -1
 4422 094c 9F       		.byte	0x9f
 4423 094d 00000000 		.4byte	0
 4424 0951 00000000 		.4byte	0
 4425              	.LLST63:
 4426 0955 02000000 		.4byte	.LVL149
 4427 0959 08000000 		.4byte	.LVL150
ARM GAS  C:\Users\TB1014~1\AppData\Local\Temp\ccLivewv.s 			page 106


 4428 095d 0200     		.2byte	0x2
 4429 095f 30       		.byte	0x30
 4430 0960 9F       		.byte	0x9f
 4431 0961 08000000 		.4byte	.LVL150
 4432 0965 1A000000 		.4byte	.LVL156
 4433 0969 0100     		.2byte	0x1
 4434 096b 55       		.byte	0x55
 4435 096c 1A000000 		.4byte	.LVL156
 4436 0970 1C000000 		.4byte	.LFE2
 4437 0974 0100     		.2byte	0x1
 4438 0976 50       		.byte	0x50
 4439 0977 00000000 		.4byte	0
 4440 097b 00000000 		.4byte	0
 4441              	.LLST64:
 4442 097f 00000000 		.4byte	.LVL157
 4443 0983 1A000000 		.4byte	.LVL160
 4444 0987 0100     		.2byte	0x1
 4445 0989 50       		.byte	0x50
 4446 098a 1A000000 		.4byte	.LVL160
 4447 098e 36000000 		.4byte	.LFE14
 4448 0992 0100     		.2byte	0x1
 4449 0994 56       		.byte	0x56
 4450 0995 00000000 		.4byte	0
 4451 0999 00000000 		.4byte	0
 4452              	.LLST65:
 4453 099d 00000000 		.4byte	.LVL157
 4454 09a1 0E000000 		.4byte	.LVL159
 4455 09a5 0100     		.2byte	0x1
 4456 09a7 51       		.byte	0x51
 4457 09a8 0E000000 		.4byte	.LVL159
 4458 09ac 34000000 		.4byte	.LVL166
 4459 09b0 0100     		.2byte	0x1
 4460 09b2 57       		.byte	0x57
 4461 09b3 34000000 		.4byte	.LVL166
 4462 09b7 36000000 		.4byte	.LFE14
 4463 09bb 0400     		.2byte	0x4
 4464 09bd F3       		.byte	0xf3
 4465 09be 01       		.uleb128 0x1
 4466 09bf 51       		.byte	0x51
 4467 09c0 9F       		.byte	0x9f
 4468 09c1 00000000 		.4byte	0
 4469 09c5 00000000 		.4byte	0
 4470              	.LLST66:
 4471 09c9 00000000 		.4byte	.LVL157
 4472 09cd 0E000000 		.4byte	.LVL159
 4473 09d1 0100     		.2byte	0x1
 4474 09d3 52       		.byte	0x52
 4475 09d4 0E000000 		.4byte	.LVL159
 4476 09d8 36000000 		.4byte	.LFE14
 4477 09dc 0200     		.2byte	0x2
 4478 09de 91       		.byte	0x91
 4479 09df 64       		.sleb128 -28
 4480 09e0 00000000 		.4byte	0
 4481 09e4 00000000 		.4byte	0
 4482              	.LLST67:
 4483 09e8 0A000000 		.4byte	.LVL158
 4484 09ec 0E000000 		.4byte	.LVL159
ARM GAS  C:\Users\TB1014~1\AppData\Local\Temp\ccLivewv.s 			page 107


 4485 09f0 0200     		.2byte	0x2
 4486 09f2 31       		.byte	0x31
 4487 09f3 9F       		.byte	0x9f
 4488 09f4 0E000000 		.4byte	.LVL159
 4489 09f8 2C000000 		.4byte	.LVL163
 4490 09fc 0100     		.2byte	0x1
 4491 09fe 54       		.byte	0x54
 4492 09ff 2C000000 		.4byte	.LVL163
 4493 0a03 2E000000 		.4byte	.LVL164
 4494 0a07 0100     		.2byte	0x1
 4495 0a09 53       		.byte	0x53
 4496 0a0a 2E000000 		.4byte	.LVL164
 4497 0a0e 34000000 		.4byte	.LVL165
 4498 0a12 0100     		.2byte	0x1
 4499 0a14 54       		.byte	0x54
 4500 0a15 34000000 		.4byte	.LVL165
 4501 0a19 36000000 		.4byte	.LFE14
 4502 0a1d 0300     		.2byte	0x3
 4503 0a1f 73       		.byte	0x73
 4504 0a20 7F       		.sleb128 -1
 4505 0a21 9F       		.byte	0x9f
 4506 0a22 00000000 		.4byte	0
 4507 0a26 00000000 		.4byte	0
 4508              	.LLST68:
 4509 0a2a 24000000 		.4byte	.LVL161
 4510 0a2e 26000000 		.4byte	.LVL162
 4511 0a32 0100     		.2byte	0x1
 4512 0a34 50       		.byte	0x50
 4513 0a35 00000000 		.4byte	0
 4514 0a39 00000000 		.4byte	0
 4515              	.LLST69:
 4516 0a3d 00000000 		.4byte	.LVL167
 4517 0a41 06000000 		.4byte	.LVL169
 4518 0a45 0100     		.2byte	0x1
 4519 0a47 50       		.byte	0x50
 4520 0a48 06000000 		.4byte	.LVL169
 4521 0a4c 30000000 		.4byte	.LFE12
 4522 0a50 0400     		.2byte	0x4
 4523 0a52 F3       		.byte	0xf3
 4524 0a53 01       		.uleb128 0x1
 4525 0a54 50       		.byte	0x50
 4526 0a55 9F       		.byte	0x9f
 4527 0a56 00000000 		.4byte	0
 4528 0a5a 00000000 		.4byte	0
 4529              	.LLST70:
 4530 0a5e 00000000 		.4byte	.LVL167
 4531 0a62 22000000 		.4byte	.LVL174
 4532 0a66 0100     		.2byte	0x1
 4533 0a68 51       		.byte	0x51
 4534 0a69 22000000 		.4byte	.LVL174
 4535 0a6d 30000000 		.4byte	.LFE12
 4536 0a71 0400     		.2byte	0x4
 4537 0a73 F3       		.byte	0xf3
 4538 0a74 01       		.uleb128 0x1
 4539 0a75 51       		.byte	0x51
 4540 0a76 9F       		.byte	0x9f
 4541 0a77 00000000 		.4byte	0
ARM GAS  C:\Users\TB1014~1\AppData\Local\Temp\ccLivewv.s 			page 108


 4542 0a7b 00000000 		.4byte	0
 4543              	.LLST71:
 4544 0a7f 0A000000 		.4byte	.LVL170
 4545 0a83 1C000000 		.4byte	.LVL173
 4546 0a87 0100     		.2byte	0x1
 4547 0a89 52       		.byte	0x52
 4548 0a8a 00000000 		.4byte	0
 4549 0a8e 00000000 		.4byte	0
 4550              	.LLST72:
 4551 0a92 02000000 		.4byte	.LVL168
 4552 0a96 0A000000 		.4byte	.LVL170
 4553 0a9a 0200     		.2byte	0x2
 4554 0a9c 30       		.byte	0x30
 4555 0a9d 9F       		.byte	0x9f
 4556 0a9e 0A000000 		.4byte	.LVL170
 4557 0aa2 16000000 		.4byte	.LVL171
 4558 0aa6 0200     		.2byte	0x2
 4559 0aa8 72       		.byte	0x72
 4560 0aa9 08       		.sleb128 8
 4561 0aaa 16000000 		.4byte	.LVL171
 4562 0aae 29000000 		.4byte	.LVL175-1
 4563 0ab2 0100     		.2byte	0x1
 4564 0ab4 53       		.byte	0x53
 4565 0ab5 00000000 		.4byte	0
 4566 0ab9 00000000 		.4byte	0
 4567              	.LLST73:
 4568 0abd 00000000 		.4byte	.LVL176
 4569 0ac1 05000000 		.4byte	.LVL177-1
 4570 0ac5 0100     		.2byte	0x1
 4571 0ac7 50       		.byte	0x50
 4572 0ac8 00000000 		.4byte	0
 4573 0acc 00000000 		.4byte	0
 4574              	.LLST74:
 4575 0ad0 00000000 		.4byte	.LVL176
 4576 0ad4 05000000 		.4byte	.LVL177-1
 4577 0ad8 0100     		.2byte	0x1
 4578 0ada 51       		.byte	0x51
 4579 0adb 05000000 		.4byte	.LVL177-1
 4580 0adf 08000000 		.4byte	.LFE16
 4581 0ae3 0400     		.2byte	0x4
 4582 0ae5 F3       		.byte	0xf3
 4583 0ae6 01       		.uleb128 0x1
 4584 0ae7 51       		.byte	0x51
 4585 0ae8 9F       		.byte	0x9f
 4586 0ae9 00000000 		.4byte	0
 4587 0aed 00000000 		.4byte	0
 4588              	.LLST75:
 4589 0af1 00000000 		.4byte	.LVL176
 4590 0af5 05000000 		.4byte	.LVL177-1
 4591 0af9 0100     		.2byte	0x1
 4592 0afb 52       		.byte	0x52
 4593 0afc 05000000 		.4byte	.LVL177-1
 4594 0b00 08000000 		.4byte	.LFE16
 4595 0b04 0400     		.2byte	0x4
 4596 0b06 F3       		.byte	0xf3
 4597 0b07 01       		.uleb128 0x1
 4598 0b08 52       		.byte	0x52
ARM GAS  C:\Users\TB1014~1\AppData\Local\Temp\ccLivewv.s 			page 109


 4599 0b09 9F       		.byte	0x9f
 4600 0b0a 00000000 		.4byte	0
 4601 0b0e 00000000 		.4byte	0
 4602              	.LLST76:
 4603 0b12 00000000 		.4byte	.LVL178
 4604 0b16 06000000 		.4byte	.LVL180
 4605 0b1a 0100     		.2byte	0x1
 4606 0b1c 50       		.byte	0x50
 4607 0b1d 06000000 		.4byte	.LVL180
 4608 0b21 30000000 		.4byte	.LFE15
 4609 0b25 0400     		.2byte	0x4
 4610 0b27 F3       		.byte	0xf3
 4611 0b28 01       		.uleb128 0x1
 4612 0b29 50       		.byte	0x50
 4613 0b2a 9F       		.byte	0x9f
 4614 0b2b 00000000 		.4byte	0
 4615 0b2f 00000000 		.4byte	0
 4616              	.LLST77:
 4617 0b33 00000000 		.4byte	.LVL178
 4618 0b37 22000000 		.4byte	.LVL185
 4619 0b3b 0100     		.2byte	0x1
 4620 0b3d 51       		.byte	0x51
 4621 0b3e 22000000 		.4byte	.LVL185
 4622 0b42 30000000 		.4byte	.LFE15
 4623 0b46 0400     		.2byte	0x4
 4624 0b48 F3       		.byte	0xf3
 4625 0b49 01       		.uleb128 0x1
 4626 0b4a 51       		.byte	0x51
 4627 0b4b 9F       		.byte	0x9f
 4628 0b4c 00000000 		.4byte	0
 4629 0b50 00000000 		.4byte	0
 4630              	.LLST78:
 4631 0b54 0A000000 		.4byte	.LVL181
 4632 0b58 1C000000 		.4byte	.LVL184
 4633 0b5c 0100     		.2byte	0x1
 4634 0b5e 52       		.byte	0x52
 4635 0b5f 00000000 		.4byte	0
 4636 0b63 00000000 		.4byte	0
 4637              	.LLST79:
 4638 0b67 02000000 		.4byte	.LVL179
 4639 0b6b 0A000000 		.4byte	.LVL181
 4640 0b6f 0200     		.2byte	0x2
 4641 0b71 30       		.byte	0x30
 4642 0b72 9F       		.byte	0x9f
 4643 0b73 0A000000 		.4byte	.LVL181
 4644 0b77 16000000 		.4byte	.LVL182
 4645 0b7b 0200     		.2byte	0x2
 4646 0b7d 72       		.byte	0x72
 4647 0b7e 08       		.sleb128 8
 4648 0b7f 16000000 		.4byte	.LVL182
 4649 0b83 29000000 		.4byte	.LVL186-1
 4650 0b87 0100     		.2byte	0x1
 4651 0b89 53       		.byte	0x53
 4652 0b8a 00000000 		.4byte	0
 4653 0b8e 00000000 		.4byte	0
 4654              		.section	.debug_aranges,"",%progbits
 4655 0000 AC000000 		.4byte	0xac
ARM GAS  C:\Users\TB1014~1\AppData\Local\Temp\ccLivewv.s 			page 110


 4656 0004 0200     		.2byte	0x2
 4657 0006 00000000 		.4byte	.Ldebug_info0
 4658 000a 04       		.byte	0x4
 4659 000b 00       		.byte	0
 4660 000c 0000     		.2byte	0
 4661 000e 0000     		.2byte	0
 4662 0010 00000000 		.4byte	.LFB10
 4663 0014 1C000000 		.4byte	.LFE10-.LFB10
 4664 0018 00000000 		.4byte	.LFB9
 4665 001c 1E000000 		.4byte	.LFE9-.LFB9
 4666 0020 00000000 		.4byte	.LFB8
 4667 0024 34000000 		.4byte	.LFE8-.LFB8
 4668 0028 00000000 		.4byte	.LFB7
 4669 002c 28000000 		.4byte	.LFE7-.LFB7
 4670 0030 00000000 		.4byte	.LFB6
 4671 0034 16000000 		.4byte	.LFE6-.LFB6
 4672 0038 00000000 		.4byte	.LFB13
 4673 003c 1C000000 		.4byte	.LFE13-.LFB13
 4674 0040 00000000 		.4byte	.LFB1
 4675 0044 84000000 		.4byte	.LFE1-.LFB1
 4676 0048 00000000 		.4byte	.LFB11
 4677 004c 30000000 		.4byte	.LFE11-.LFB11
 4678 0050 00000000 		.4byte	.LFB17
 4679 0054 2C000000 		.4byte	.LFE17-.LFB17
 4680 0058 00000000 		.4byte	.LFB18
 4681 005c 2C000000 		.4byte	.LFE18-.LFB18
 4682 0060 00000000 		.4byte	.LFB19
 4683 0064 14000000 		.4byte	.LFE19-.LFB19
 4684 0068 00000000 		.4byte	.LFB5
 4685 006c 92000000 		.4byte	.LFE5-.LFB5
 4686 0070 00000000 		.4byte	.LFB4
 4687 0074 24000000 		.4byte	.LFE4-.LFB4
 4688 0078 00000000 		.4byte	.LFB3
 4689 007c 2C000000 		.4byte	.LFE3-.LFB3
 4690 0080 00000000 		.4byte	.LFB2
 4691 0084 1C000000 		.4byte	.LFE2-.LFB2
 4692 0088 00000000 		.4byte	.LFB14
 4693 008c 36000000 		.4byte	.LFE14-.LFB14
 4694 0090 00000000 		.4byte	.LFB12
 4695 0094 30000000 		.4byte	.LFE12-.LFB12
 4696 0098 00000000 		.4byte	.LFB16
 4697 009c 08000000 		.4byte	.LFE16-.LFB16
 4698 00a0 00000000 		.4byte	.LFB15
 4699 00a4 30000000 		.4byte	.LFE15-.LFB15
 4700 00a8 00000000 		.4byte	0
 4701 00ac 00000000 		.4byte	0
 4702              		.section	.debug_ranges,"",%progbits
 4703              	.Ldebug_ranges0:
 4704 0000 00000000 		.4byte	.LFB10
 4705 0004 1C000000 		.4byte	.LFE10
 4706 0008 00000000 		.4byte	.LFB9
 4707 000c 1E000000 		.4byte	.LFE9
 4708 0010 00000000 		.4byte	.LFB8
 4709 0014 34000000 		.4byte	.LFE8
 4710 0018 00000000 		.4byte	.LFB7
 4711 001c 28000000 		.4byte	.LFE7
 4712 0020 00000000 		.4byte	.LFB6
ARM GAS  C:\Users\TB1014~1\AppData\Local\Temp\ccLivewv.s 			page 111


 4713 0024 16000000 		.4byte	.LFE6
 4714 0028 00000000 		.4byte	.LFB13
 4715 002c 1C000000 		.4byte	.LFE13
 4716 0030 00000000 		.4byte	.LFB1
 4717 0034 84000000 		.4byte	.LFE1
 4718 0038 00000000 		.4byte	.LFB11
 4719 003c 30000000 		.4byte	.LFE11
 4720 0040 00000000 		.4byte	.LFB17
 4721 0044 2C000000 		.4byte	.LFE17
 4722 0048 00000000 		.4byte	.LFB18
 4723 004c 2C000000 		.4byte	.LFE18
 4724 0050 00000000 		.4byte	.LFB19
 4725 0054 14000000 		.4byte	.LFE19
 4726 0058 00000000 		.4byte	.LFB5
 4727 005c 92000000 		.4byte	.LFE5
 4728 0060 00000000 		.4byte	.LFB4
 4729 0064 24000000 		.4byte	.LFE4
 4730 0068 00000000 		.4byte	.LFB3
 4731 006c 2C000000 		.4byte	.LFE3
 4732 0070 00000000 		.4byte	.LFB2
 4733 0074 1C000000 		.4byte	.LFE2
 4734 0078 00000000 		.4byte	.LFB14
 4735 007c 36000000 		.4byte	.LFE14
 4736 0080 00000000 		.4byte	.LFB12
 4737 0084 30000000 		.4byte	.LFE12
 4738 0088 00000000 		.4byte	.LFB16
 4739 008c 08000000 		.4byte	.LFE16
 4740 0090 00000000 		.4byte	.LFB15
 4741 0094 30000000 		.4byte	.LFE15
 4742 0098 00000000 		.4byte	0
 4743 009c 00000000 		.4byte	0
 4744              		.section	.debug_line,"",%progbits
 4745              	.Ldebug_line0:
 4746 0000 D7020000 		.section	.debug_str,"MS",%progbits,1
 4746      02009C00 
 4746      00000201 
 4746      FB0E0D00 
 4746      01010101 
 4747              	.LASF99:
 4748 0000 7074724E 		.ascii	"ptrNoiseEnvelope\000"
 4748      6F697365 
 4748      456E7665 
 4748      6C6F7065 
 4748      00
 4749              	.LASF32:
 4750 0011 43617053 		.ascii	"CapSense_WD_PROXIMITY_E\000"
 4750      656E7365 
 4750      5F57445F 
 4750      50524F58 
 4750      494D4954 
 4751              	.LASF124:
 4752 0029 474E5520 		.ascii	"GNU C 4.9.3 20150303 (release) [ARM/embedded-4_9-br"
 4752      4320342E 
 4752      392E3320 
 4752      32303135 
 4752      30333033 
 4753 005c 616E6368 		.ascii	"anch revision 221220] -mcpu=cortex-m0plus -mthumb -"
ARM GAS  C:\Users\TB1014~1\AppData\Local\Temp\ccLivewv.s 			page 112


 4753      20726576 
 4753      6973696F 
 4753      6E203232 
 4753      31323230 
 4754 008f 67202D4F 		.ascii	"g -Og -ffunction-sections -ffat-lto-objects\000"
 4754      67202D66 
 4754      66756E63 
 4754      74696F6E 
 4754      2D736563 
 4755              	.LASF119:
 4756 00bb 43617053 		.ascii	"CapSense_RunIIR\000"
 4756      656E7365 
 4756      5F52756E 
 4756      49495200 
 4757              	.LASF103:
 4758 00cb 696E7075 		.ascii	"input\000"
 4758      7400
 4759              	.LASF34:
 4760 00d1 43617053 		.ascii	"CapSense_UNDEFINED_E\000"
 4760      656E7365 
 4760      5F554E44 
 4760      4546494E 
 4760      45445F45 
 4761              	.LASF8:
 4762 00e6 756E7369 		.ascii	"unsigned int\000"
 4762      676E6564 
 4762      20696E74 
 4762      00
 4763              	.LASF92:
 4764 00f3 73656E73 		.ascii	"sensorsNumber\000"
 4764      6F72734E 
 4764      756D6265 
 4764      7200
 4765              	.LASF86:
 4766 0101 43617053 		.ascii	"CapSense_FtInitializeBaselineChannel\000"
 4766      656E7365 
 4766      5F467449 
 4766      6E697469 
 4766      616C697A 
 4767              	.LASF87:
 4768 0126 43617053 		.ascii	"CapSense_InitializeSensorBaseline\000"
 4768      656E7365 
 4768      5F496E69 
 4768      7469616C 
 4768      697A6553 
 4769              	.LASF94:
 4770 0148 43617053 		.ascii	"CapSense_InitializeIIRInternal\000"
 4770      656E7365 
 4770      5F496E69 
 4770      7469616C 
 4770      697A6549 
 4771              	.LASF31:
 4772 0167 43617053 		.ascii	"CapSense_WD_TOUCHPAD_E\000"
 4772      656E7365 
 4772      5F57445F 
 4772      544F5543 
 4772      48504144 
ARM GAS  C:\Users\TB1014~1\AppData\Local\Temp\ccLivewv.s 			page 113


 4773              	.LASF100:
 4774 017e 43617053 		.ascii	"CapSense_InitializeIIR\000"
 4774      656E7365 
 4774      5F496E69 
 4774      7469616C 
 4774      697A6549 
 4775              	.LASF89:
 4776 0195 73656E73 		.ascii	"sensorId\000"
 4776      6F724964 
 4776      00
 4777              	.LASF104:
 4778 019e 70726576 		.ascii	"prevOutput\000"
 4778      4F757470 
 4778      757400
 4779              	.LASF108:
 4780 01a9 43617053 		.ascii	"CapSense_FtUpdateBaseline\000"
 4780      656E7365 
 4780      5F467455 
 4780      70646174 
 4780      65426173 
 4781              	.LASF114:
 4782 01c3 43617053 		.ascii	"CapSense_UpdateWidgetBaseline\000"
 4782      656E7365 
 4782      5F557064 
 4782      61746557 
 4782      69646765 
 4783              	.LASF12:
 4784 01e1 666C6F61 		.ascii	"float\000"
 4784      7400
 4785              	.LASF105:
 4786 01e7 73686966 		.ascii	"shift\000"
 4786      7400
 4787              	.LASF117:
 4788 01ed 43617053 		.ascii	"CapSense_RunIIRInternal\000"
 4788      656E7365 
 4788      5F52756E 
 4788      49495249 
 4788      6E746572 
 4789              	.LASF111:
 4790 0205 72657375 		.ascii	"result\000"
 4790      6C7400
 4791              	.LASF7:
 4792 020c 6C6F6E67 		.ascii	"long long unsigned int\000"
 4792      206C6F6E 
 4792      6720756E 
 4792      7369676E 
 4792      65642069 
 4793              	.LASF30:
 4794 0223 43617053 		.ascii	"CapSense_WD_MATRIX_BUTTON_E\000"
 4794      656E7365 
 4794      5F57445F 
 4794      4D415452 
 4794      49585F42 
 4795              	.LASF81:
 4796 023f 70747252 		.ascii	"ptrRegular\000"
 4796      6567756C 
 4796      617200
ARM GAS  C:\Users\TB1014~1\AppData\Local\Temp\ccLivewv.s 			page 114


 4797              	.LASF122:
 4798 024a 43617053 		.ascii	"CapSense_FtInitializeBaseline\000"
 4798      656E7365 
 4798      5F467449 
 4798      6E697469 
 4798      616C697A 
 4799              	.LASF72:
 4800 0268 70747232 		.ascii	"ptr2NoiseEnvlp\000"
 4800      4E6F6973 
 4800      65456E76 
 4800      6C7000
 4801              	.LASF66:
 4802 0277 77646774 		.ascii	"wdgtType\000"
 4802      54797065 
 4802      00
 4803              	.LASF98:
 4804 0280 70747257 		.ascii	"ptrWidgetRam\000"
 4804      69646765 
 4804      7452616D 
 4804      00
 4805              	.LASF120:
 4806 028d 43617053 		.ascii	"CapSense_FtRunEnabledFiltersInternal\000"
 4806      656E7365 
 4806      5F467452 
 4806      756E456E 
 4806      61626C65 
 4807              	.LASF82:
 4808 02b2 43617053 		.ascii	"CapSense_PTR_FILTER_VARIANT\000"
 4808      656E7365 
 4808      5F505452 
 4808      5F46494C 
 4808      5445525F 
 4809              	.LASF79:
 4810 02ce 72656775 		.ascii	"regularChannel\000"
 4810      6C617243 
 4810      68616E6E 
 4810      656C00
 4811              	.LASF58:
 4812 02dd 43617053 		.ascii	"CapSense_RAM_SNS_STRUCT\000"
 4812      656E7365 
 4812      5F52414D 
 4812      5F534E53 
 4812      5F535452 
 4813              	.LASF46:
 4814 02f5 62736C6E 		.ascii	"bslnCoeff\000"
 4814      436F6566 
 4814      6600
 4815              	.LASF109:
 4816 02ff 7369676E 		.ascii	"sign\000"
 4816      00
 4817              	.LASF93:
 4818 0304 43617053 		.ascii	"CapSense_InitializeAllBaselines\000"
 4818      656E7365 
 4818      5F496E69 
 4818      7469616C 
 4818      697A6541 
 4819              	.LASF106:
ARM GAS  C:\Users\TB1014~1\AppData\Local\Temp\ccLivewv.s 			page 115


 4820 0324 6F757470 		.ascii	"output\000"
 4820      757400
 4821              	.LASF51:
 4822 032b 73696750 		.ascii	"sigPFC\000"
 4822      464300
 4823              	.LASF43:
 4824 0332 68797374 		.ascii	"hysteresis\000"
 4824      65726573 
 4824      697300
 4825              	.LASF29:
 4826 033d 43617053 		.ascii	"CapSense_WD_RADIAL_SLIDER_E\000"
 4826      656E7365 
 4826      5F57445F 
 4826      52414449 
 4826      414C5F53 
 4827              	.LASF74:
 4828 0359 43617053 		.ascii	"CapSense_FLASH_WD_STRUCT\000"
 4828      656E7365 
 4828      5F464C41 
 4828      53485F57 
 4828      445F5354 
 4829              	.LASF45:
 4830 0372 6C6F7742 		.ascii	"lowBslnRst\000"
 4830      736C6E52 
 4830      737400
 4831              	.LASF65:
 4832 037d 746F7461 		.ascii	"totalNumSns\000"
 4832      6C4E756D 
 4832      536E7300 
 4833              	.LASF26:
 4834 0389 534D4152 		.ascii	"SMARTSENSE_CSD_NOISE_ENVELOPE_STRUCT\000"
 4834      5453454E 
 4834      53455F43 
 4834      53445F4E 
 4834      4F495345 
 4835              	.LASF121:
 4836 03ae 43617053 		.ascii	"CapSense_FtRunEnabledFilters\000"
 4836      656E7365 
 4836      5F467452 
 4836      756E456E 
 4836      61626C65 
 4837              	.LASF41:
 4838 03cb 6E6F6973 		.ascii	"noiseTh\000"
 4838      65546800 
 4839              	.LASF14:
 4840 03d3 63686172 		.ascii	"char\000"
 4840      00
 4841              	.LASF83:
 4842 03d8 70747253 		.ascii	"ptrSensor\000"
 4842      656E736F 
 4842      7200
 4843              	.LASF128:
 4844 03e2 536D6172 		.ascii	"SmartSense_RunNoiseEnvelope\000"
 4844      7453656E 
 4844      73655F52 
 4844      756E4E6F 
 4844      69736545 
ARM GAS  C:\Users\TB1014~1\AppData\Local\Temp\ccLivewv.s 			page 116


 4845              	.LASF10:
 4846 03fe 75696E74 		.ascii	"uint16\000"
 4846      313600
 4847              	.LASF39:
 4848 0405 7265736F 		.ascii	"resolution\000"
 4848      6C757469 
 4848      6F6E00
 4849              	.LASF18:
 4850 0410 43617053 		.ascii	"CapSense_LOW_BSLN_RST_TYPE\000"
 4850      656E7365 
 4850      5F4C4F57 
 4850      5F42534C 
 4850      4E5F5253 
 4851              	.LASF38:
 4852 042b 43617053 		.ascii	"CapSense_SENSE_METHOD_ENUM\000"
 4852      656E7365 
 4852      5F53454E 
 4852      53455F4D 
 4852      4554484F 
 4853              	.LASF57:
 4854 0446 69646163 		.ascii	"idacComp\000"
 4854      436F6D70 
 4854      00
 4855              	.LASF67:
 4856 044f 73656E73 		.ascii	"senseMethod\000"
 4856      654D6574 
 4856      686F6400 
 4857              	.LASF6:
 4858 045b 6C6F6E67 		.ascii	"long long int\000"
 4858      206C6F6E 
 4858      6720696E 
 4858      7400
 4859              	.LASF68:
 4860 0469 6E756D43 		.ascii	"numCols\000"
 4860      6F6C7300 
 4861              	.LASF44:
 4862 0471 6F6E4465 		.ascii	"onDebounce\000"
 4862      626F756E 
 4862      636500
 4863              	.LASF126:
 4864 047c 433A5C55 		.ascii	"C:\\Users\\tb1014481\\Documents\\#PROJECTS#\\Eddie\\"
 4864      73657273 
 4864      5C746231 
 4864      30313434 
 4864      38315C44 
 4865 04aa 536F6674 		.ascii	"Software\\Cypress_PSoC\\Eddie_DP0.0\\Slider_WS.Bund"
 4865      77617265 
 4865      5C437970 
 4865      72657373 
 4865      5F50536F 
 4866 04da 6C653035 		.ascii	"le05.cywrk.Archive04\\Eddie_DP0_Slider\\Slider.cyds"
 4866      2E637977 
 4866      726B2E41 
 4866      72636869 
 4866      76653034 
 4867 050b 6E00     		.ascii	"n\000"
 4868              	.LASF76:
ARM GAS  C:\Users\TB1014~1\AppData\Local\Temp\ccLivewv.s 			page 117


 4869 050d 43617053 		.ascii	"CapSense_FLASH_STRUCT\000"
 4869      656E7365 
 4869      5F464C41 
 4869      53485F53 
 4869      54525543 
 4870              	.LASF113:
 4871 0523 43617053 		.ascii	"CapSense_UpdateSensorBaseline\000"
 4871      656E7365 
 4871      5F557064 
 4871      61746553 
 4871      656E736F 
 4872              	.LASF97:
 4873 0541 43617053 		.ascii	"CapSense_FtInitialize\000"
 4873      656E7365 
 4873      5F467449 
 4873      6E697469 
 4873      616C697A 
 4874              	.LASF42:
 4875 0557 6E4E6F69 		.ascii	"nNoiseTh\000"
 4875      73655468 
 4875      00
 4876              	.LASF112:
 4877 0560 68697374 		.ascii	"history\000"
 4877      6F727900 
 4878              	.LASF52:
 4879 0568 43617053 		.ascii	"CapSense_RAM_WD_BASE_STRUCT\000"
 4879      656E7365 
 4879      5F52414D 
 4879      5F57445F 
 4879      42415345 
 4880              	.LASF33:
 4881 0584 43617053 		.ascii	"CapSense_WD_TYPE_ENUM\000"
 4881      656E7365 
 4881      5F57445F 
 4881      54595045 
 4881      5F454E55 
 4882              	.LASF11:
 4883 059a 75696E74 		.ascii	"uint32\000"
 4883      333200
 4884              	.LASF115:
 4885 05a1 62736C6E 		.ascii	"bslnStatus\000"
 4885      53746174 
 4885      757300
 4886              	.LASF62:
 4887 05ac 70747232 		.ascii	"ptr2FltrHistory\000"
 4887      466C7472 
 4887      48697374 
 4887      6F727900 
 4888              	.LASF28:
 4889 05bc 43617053 		.ascii	"CapSense_WD_LINEAR_SLIDER_E\000"
 4889      656E7365 
 4889      5F57445F 
 4889      4C494E45 
 4889      41525F53 
 4890              	.LASF123:
 4891 05d8 536D6172 		.ascii	"SmartSense_InitializeNoiseEnvelope\000"
 4891      7453656E 
ARM GAS  C:\Users\TB1014~1\AppData\Local\Temp\ccLivewv.s 			page 118


 4891      73655F49 
 4891      6E697469 
 4891      616C697A 
 4892              	.LASF84:
 4893 05fb 77645479 		.ascii	"wdType\000"
 4893      706500
 4894              	.LASF61:
 4895 0602 70747232 		.ascii	"ptr2SnsRam\000"
 4895      536E7352 
 4895      616D00
 4896              	.LASF85:
 4897 060d 6368616E 		.ascii	"channel\000"
 4897      6E656C00 
 4898              	.LASF49:
 4899 0615 736E7343 		.ascii	"snsClkSource\000"
 4899      6C6B536F 
 4899      75726365 
 4899      00
 4900              	.LASF70:
 4901 0622 78526573 		.ascii	"xResolution\000"
 4901      6F6C7574 
 4901      696F6E00 
 4902              	.LASF2:
 4903 062e 73686F72 		.ascii	"short int\000"
 4903      7420696E 
 4903      7400
 4904              	.LASF80:
 4905 0638 43617053 		.ascii	"CapSense_REGULAR_FLTR_STRUCT\000"
 4905      656E7365 
 4905      5F524547 
 4905      554C4152 
 4905      5F464C54 
 4906              	.LASF4:
 4907 0655 6C6F6E67 		.ascii	"long int\000"
 4907      20696E74 
 4907      00
 4908              	.LASF55:
 4909 065e 64696666 		.ascii	"diff\000"
 4909      00
 4910              	.LASF116:
 4911 0663 43617053 		.ascii	"CapSense_UpdateAllBaselines\000"
 4911      656E7365 
 4911      5F557064 
 4911      61746541 
 4911      6C6C4261 
 4912              	.LASF118:
 4913 067f 74656D70 		.ascii	"temp\000"
 4913      00
 4914              	.LASF36:
 4915 0684 43617053 		.ascii	"CapSense_SENSE_METHOD_CSX_E\000"
 4915      656E7365 
 4915      5F53454E 
 4915      53455F4D 
 4915      4554484F 
 4916              	.LASF90:
 4917 06a0 70747257 		.ascii	"ptrWidget\000"
 4917      69646765 
ARM GAS  C:\Users\TB1014~1\AppData\Local\Temp\ccLivewv.s 			page 119


 4917      7400
 4918              	.LASF27:
 4919 06aa 43617053 		.ascii	"CapSense_WD_BUTTON_E\000"
 4919      656E7365 
 4919      5F57445F 
 4919      42555454 
 4919      4F4E5F45 
 4920              	.LASF78:
 4921 06bf 43617053 		.ascii	"CapSense_REGULAR_FLTR_CHANNEL_STRUCT\000"
 4921      656E7365 
 4921      5F524547 
 4921      554C4152 
 4921      5F464C54 
 4922              	.LASF96:
 4923 06e4 70747253 		.ascii	"ptrSensorObj\000"
 4923      656E736F 
 4923      724F626A 
 4923      00
 4924              	.LASF127:
 4925 06f1 43617053 		.ascii	"CapSense_dsFlash\000"
 4925      656E7365 
 4925      5F647346 
 4925      6C617368 
 4925      00
 4926              	.LASF50:
 4927 0702 66696E67 		.ascii	"fingerCap\000"
 4927      65724361 
 4927      7000
 4928              	.LASF35:
 4929 070c 43617053 		.ascii	"CapSense_SENSE_METHOD_CSD_E\000"
 4929      656E7365 
 4929      5F53454E 
 4929      53455F4D 
 4929      4554484F 
 4930              	.LASF16:
 4931 0728 73697A65 		.ascii	"sizetype\000"
 4931      74797065 
 4931      00
 4932              	.LASF5:
 4933 0731 6C6F6E67 		.ascii	"long unsigned int\000"
 4933      20756E73 
 4933      69676E65 
 4933      6420696E 
 4933      7400
 4934              	.LASF107:
 4935 0743 43617053 		.ascii	"CapSense_FtIIR1stOrder\000"
 4935      656E7365 
 4935      5F467449 
 4935      49523173 
 4935      744F7264 
 4936              	.LASF47:
 4937 075a 69646163 		.ascii	"idacMod\000"
 4937      4D6F6400 
 4938              	.LASF63:
 4939 0762 70747232 		.ascii	"ptr2DebounceArr\000"
 4939      4465626F 
 4939      756E6365 
ARM GAS  C:\Users\TB1014~1\AppData\Local\Temp\ccLivewv.s 			page 120


 4939      41727200 
 4940              	.LASF71:
 4941 0772 7843656E 		.ascii	"xCentroidMultiplier\000"
 4941      74726F69 
 4941      644D756C 
 4941      7469706C 
 4941      69657200 
 4942              	.LASF40:
 4943 0786 66696E67 		.ascii	"fingerTh\000"
 4943      65725468 
 4943      00
 4944              	.LASF54:
 4945 078f 62736C6E 		.ascii	"bslnExt\000"
 4945      45787400 
 4946              	.LASF73:
 4947 0797 70747232 		.ascii	"ptr2PosHistory\000"
 4947      506F7348 
 4947      6973746F 
 4947      727900
 4948              	.LASF15:
 4949 07a6 63797374 		.ascii	"cystatus\000"
 4949      61747573 
 4949      00
 4950              	.LASF101:
 4951 07af 43617053 		.ascii	"CapSense_RunNoiseEnvelope\000"
 4951      656E7365 
 4951      5F52756E 
 4951      4E6F6973 
 4951      65456E76 
 4952              	.LASF1:
 4953 07c9 756E7369 		.ascii	"unsigned char\000"
 4953      676E6564 
 4953      20636861 
 4953      7200
 4954              	.LASF64:
 4955 07d7 73746174 		.ascii	"staticConfig\000"
 4955      6963436F 
 4955      6E666967 
 4955      00
 4956              	.LASF60:
 4957 07e4 70747232 		.ascii	"ptr2WdgtRam\000"
 4957      57646774 
 4957      52616D00 
 4958              	.LASF17:
 4959 07f0 43617053 		.ascii	"CapSense_THRESHOLD_TYPE\000"
 4959      656E7365 
 4959      5F544852 
 4959      4553484F 
 4959      4C445F54 
 4960              	.LASF77:
 4961 0808 69697248 		.ascii	"iirHistory\000"
 4961      6973746F 
 4961      727900
 4962              	.LASF37:
 4963 0813 43617053 		.ascii	"CapSense_SENSE_METHOD_BIST_E\000"
 4963      656E7365 
 4963      5F53454E 
ARM GAS  C:\Users\TB1014~1\AppData\Local\Temp\ccLivewv.s 			page 121


 4963      53455F4D 
 4963      4554484F 
 4964              	.LASF69:
 4965 0830 6E756D52 		.ascii	"numRows\000"
 4965      6F777300 
 4966              	.LASF110:
 4967 0838 64696666 		.ascii	"difference\000"
 4967      6572656E 
 4967      636500
 4968              	.LASF48:
 4969 0843 736E7343 		.ascii	"snsClk\000"
 4969      6C6B00
 4970              	.LASF0:
 4971 084a 7369676E 		.ascii	"signed char\000"
 4971      65642063 
 4971      68617200 
 4972              	.LASF53:
 4973 0856 62736C6E 		.ascii	"bsln\000"
 4973      00
 4974              	.LASF91:
 4975 085b 43617053 		.ascii	"CapSense_InitializeWidgetBaseline\000"
 4975      656E7365 
 4975      5F496E69 
 4975      7469616C 
 4975      697A6557 
 4976              	.LASF3:
 4977 087d 73686F72 		.ascii	"short unsigned int\000"
 4977      7420756E 
 4977      7369676E 
 4977      65642069 
 4977      6E7400
 4978              	.LASF59:
 4979 0890 70747232 		.ascii	"ptr2SnsFlash\000"
 4979      536E7346 
 4979      6C617368 
 4979      00
 4980              	.LASF9:
 4981 089d 75696E74 		.ascii	"uint8\000"
 4981      3800
 4982              	.LASF13:
 4983 08a3 646F7562 		.ascii	"double\000"
 4983      6C6500
 4984              	.LASF56:
 4985 08aa 6E656742 		.ascii	"negBslnRstCnt\000"
 4985      736C6E52 
 4985      7374436E 
 4985      7400
 4986              	.LASF19:
 4987 08b8 70617261 		.ascii	"param0\000"
 4987      6D3000
 4988              	.LASF20:
 4989 08bf 70617261 		.ascii	"param1\000"
 4989      6D3100
 4990              	.LASF21:
 4991 08c6 70617261 		.ascii	"param2\000"
 4991      6D3200
 4992              	.LASF22:
ARM GAS  C:\Users\TB1014~1\AppData\Local\Temp\ccLivewv.s 			page 122


 4993 08cd 70617261 		.ascii	"param3\000"
 4993      6D3300
 4994              	.LASF23:
 4995 08d4 70617261 		.ascii	"param4\000"
 4995      6D3400
 4996              	.LASF24:
 4997 08db 70617261 		.ascii	"param5\000"
 4997      6D3500
 4998              	.LASF25:
 4999 08e2 70617261 		.ascii	"param6\000"
 4999      6D3600
 5000              	.LASF95:
 5001 08e9 70747246 		.ascii	"ptrFilterHistObj\000"
 5001      696C7465 
 5001      72486973 
 5001      744F626A 
 5001      00
 5002              	.LASF102:
 5003 08fa 43617053 		.ascii	"CapSense_InitializeNoiseEnvelope\000"
 5003      656E7365 
 5003      5F496E69 
 5003      7469616C 
 5003      697A654E 
 5004              	.LASF88:
 5005 091b 77696467 		.ascii	"widgetId\000"
 5005      65744964 
 5005      00
 5006              	.LASF125:
 5007 0924 47656E65 		.ascii	"Generated_Source\\PSoC4\\CapSense_Filter.c\000"
 5007      72617465 
 5007      645F536F 
 5007      75726365 
 5007      5C50536F 
 5008              	.LASF75:
 5009 094d 77646774 		.ascii	"wdgtArray\000"
 5009      41727261 
 5009      7900
 5010              		.ident	"GCC: (GNU Tools for ARM Embedded Processors) 4.9.3 20150303 (release) [ARM/embedded-4_9-br
