ARM GAS  C:\Users\TB1014~1\AppData\Local\Temp\ccPTK8k7.s 			page 1


   1              		.cpu cortex-m0plus
   2              		.fpu softvfp
   3              		.eabi_attribute 20, 1
   4              		.eabi_attribute 21, 1
   5              		.eabi_attribute 23, 3
   6              		.eabi_attribute 24, 1
   7              		.eabi_attribute 25, 1
   8              		.eabi_attribute 26, 1
   9              		.eabi_attribute 30, 1
  10              		.eabi_attribute 34, 0
  11              		.eabi_attribute 18, 4
  12              		.code	16
  13              		.file	"command_telemetry.c"
  14              		.text
  15              	.Ltext0:
  16              		.cfi_sections	.debug_frame
  17              		.section	.text.get_cmd_id_from_cmd_string,"ax",%progbits
  18              		.align	2
  19              		.global	get_cmd_id_from_cmd_string
  20              		.code	16
  21              		.thumb_func
  22              		.type	get_cmd_id_from_cmd_string, %function
  23              	get_cmd_id_from_cmd_string:
  24              	.LFB35:
  25              		.file 1 "command_telemetry.c"
   1:command_telemetry.c **** /* ========================================
   2:command_telemetry.c ****  *
   3:command_telemetry.c ****  * Copyright YOUR COMPANY, THE YEAR
   4:command_telemetry.c ****  * All Rights Reserved
   5:command_telemetry.c ****  * UNPUBLISHED, LICENSED SOFTWARE.
   6:command_telemetry.c ****  *
   7:command_telemetry.c ****  * CONFIDENTIAL AND PROPRIETARY INFORMATION
   8:command_telemetry.c ****  * WHICH IS THE PROPERTY OF your company.
   9:command_telemetry.c ****  *
  10:command_telemetry.c ****  * ========================================
  11:command_telemetry.c **** */
  12:command_telemetry.c **** #include "command_telemetry.h"
  13:command_telemetry.c **** 
  14:command_telemetry.c **** //=============================================================================
  15:command_telemetry.c **** //============================================================ static variables
  16:command_telemetry.c **** //=============================================================================
  17:command_telemetry.c **** static t_struct_command vec_boot_commands[CMD_BOOT_UNKNOWN]           = {{CMD_BOOT_START         , 
  18:command_telemetry.c ****                                                                          {CMD_BOOT_EXIT          , 
  19:command_telemetry.c ****                                                                          {CMD_BOOT_GET_FLASH_GEO , 
  20:command_telemetry.c **** static t_struct_command vec_anim_commands[CMD_ANIM_UNKNOWN]           = {{CMD_ANIM_AUTO          , 
  21:command_telemetry.c ****                                                                          {CMD_ANIM_MANUAL        , 
  22:command_telemetry.c ****                                                                          {CMD_ANIM_STOP          , 
  23:command_telemetry.c ****                                                                          {CMD_ANIM_RESUME        , 
  24:command_telemetry.c **** static t_struct_command vec_sensor_commands[CMD_SENSOR_UNKNOWN]       = {{CMD_SENSOR_DISABLE     , 
  25:command_telemetry.c ****                                                                          {CMD_SENSOR_ENABLE      , 
  26:command_telemetry.c **** static t_struct_command vec_telemetry_commands[CMD_TELEMETRY_UNKNOWN] = {{CMD_TELEMETRY_DISABLE  , 
  27:command_telemetry.c ****                                                                          {CMD_TELEMETRY_ENABLE   , 
  28:command_telemetry.c **** static t_struct_command vec_tracker_commands[CMD_TRACKER_UNKNOWN]     = {{CMD_TRACKER_DISABLE    , 
  29:command_telemetry.c ****                                                                          {CMD_TRACKER_ENABLE     , 
  30:command_telemetry.c ****                                                                          {CMD_TRACKER_SET_BUTTON , 
  31:command_telemetry.c **** static t_struct_command vec_led_commands[CMD_LED_UNKNOWN]             = {{CMD_LED_CLEAR          , 
  32:command_telemetry.c ****                                                                          {CMD_LED_SET_COLOR_LEFT , 
ARM GAS  C:\Users\TB1014~1\AppData\Local\Temp\ccPTK8k7.s 			page 2


  33:command_telemetry.c ****                                                                          {CMD_LED_SET_COLOR_RIGHT, 
  34:command_telemetry.c ****                                                                          {CMD_LED_SET_WHITE      , 
  35:command_telemetry.c ****                                                                          {CMD_LED_SET_STRIP      , 
  36:command_telemetry.c **** static t_struct_command vec_commands[CMD_UNKNOWN]                     = {{CMD_ANIMATION          , 
  37:command_telemetry.c ****                                                                          {CMD_BOOTLOADER         , 
  38:command_telemetry.c ****                                                                          {CMD_CAPSENSE           , 
  39:command_telemetry.c ****                                                                          {CMD_HELP               , 
  40:command_telemetry.c ****                                                                          {CMD_LED                , 
  41:command_telemetry.c ****                                                                          {CMD_SENSOR             , 
  42:command_telemetry.c ****                                                                          {CMD_TELEMETRY          , 
  43:command_telemetry.c ****                                                                          {CMD_TRACKER            , 
  44:command_telemetry.c ****                                                                          {CMD_VERSION            , 
  45:command_telemetry.c **** 
  46:command_telemetry.c **** static BOOL is_telemetry_enable        = FALSE; // enable/disable the telemetry, this avoid the PSo
  47:command_telemetry.c **** static BOOL is_sensor_telemetry_enable = FALSE; // when enable: send the sensors status on each cap
  48:command_telemetry.c **** static char telemetry[512];
  49:command_telemetry.c **** 
  50:command_telemetry.c **** //=============================================================================
  51:command_telemetry.c **** //========================================================= function prototypes
  52:command_telemetry.c **** //=============================================================================
  53:command_telemetry.c **** t_enum_command            get_cmd_id_from_cmd_string          (const char* command_str);
  54:command_telemetry.c **** t_enum_anim_command       get_anim_cmd_id_from_cmd_string     (const char* cmd_str);
  55:command_telemetry.c **** t_enum_animation          get_anim_id_from_cmd_string         (const char* cmd_str);
  56:command_telemetry.c **** t_enum_sensor_command     get_sensor_cmd_id_from_cmd_string   (const char* cmd_str);
  57:command_telemetry.c **** t_enum_telemetry_command  get_telemetry_cmd_id_from_cmd_string(const char* cmd_str);
  58:command_telemetry.c **** t_enum_tracker_command    get_tracker_cmd_id_from_cmd_string  (const char* cmd_str);
  59:command_telemetry.c **** t_enum_led_command        get_led_cmd_id_from_cmd_string      (const char* cmd_str);
  60:command_telemetry.c **** t_enum_bootloader_command get_boot_cmd_id_from_cmd_string     (const char* cmd_str);
  61:command_telemetry.c **** 
  62:command_telemetry.c **** //=============================================================================
  63:command_telemetry.c **** //================================================== get_cmd_id_from_cmd_string
  64:command_telemetry.c **** //=============================================================================
  65:command_telemetry.c **** t_enum_command get_cmd_id_from_cmd_string(const char* cmd_str)
  66:command_telemetry.c **** {
  26              		.loc 1 66 0
  27              		.cfi_startproc
  28              	.LVL0:
  29 0000 38B5     		push	{r3, r4, r5, lr}
  30              		.cfi_def_cfa_offset 16
  31              		.cfi_offset 3, -16
  32              		.cfi_offset 4, -12
  33              		.cfi_offset 5, -8
  34              		.cfi_offset 14, -4
  35 0002 041C     		mov	r4, r0
  36              	.LVL1:
  67:command_telemetry.c ****     int i;
  68:command_telemetry.c ****     
  69:command_telemetry.c ****     for (i = 0; i < CMD_UNKNOWN; i++)
  37              		.loc 1 69 0
  38 0004 0025     		mov	r5, #0
  39 0006 11E0     		b	.L2
  40              	.LVL2:
  41              	.L5:
  70:command_telemetry.c ****     {
  71:command_telemetry.c ****         if (strstr(cmd_str, vec_commands[i].name))
  42              		.loc 1 71 0
  43 0008 6B00     		lsl	r3, r5, #1
ARM GAS  C:\Users\TB1014~1\AppData\Local\Temp\ccPTK8k7.s 			page 3


  44 000a 5B19     		add	r3, r3, r5
  45 000c 9B00     		lsl	r3, r3, #2
  46 000e 094A     		ldr	r2, .L6
  47 0010 D318     		add	r3, r2, r3
  48 0012 5968     		ldr	r1, [r3, #4]
  49 0014 201C     		mov	r0, r4
  50 0016 FFF7FEFF 		bl	strstr
  51              	.LVL3:
  52 001a 0028     		cmp	r0, #0
  53 001c 05D0     		beq	.L3
  72:command_telemetry.c ****         {
  73:command_telemetry.c ****             return vec_commands[i].id;
  54              		.loc 1 73 0
  55 001e 6B00     		lsl	r3, r5, #1
  56 0020 5D19     		add	r5, r3, r5
  57              	.LVL4:
  58 0022 AD00     		lsl	r5, r5, #2
  59 0024 034B     		ldr	r3, .L6
  60 0026 585D     		ldrb	r0, [r3, r5]
  61 0028 03E0     		b	.L4
  62              	.LVL5:
  63              	.L3:
  69:command_telemetry.c ****     {
  64              		.loc 1 69 0 discriminator 2
  65 002a 0135     		add	r5, r5, #1
  66              	.LVL6:
  67              	.L2:
  69:command_telemetry.c ****     {
  68              		.loc 1 69 0 is_stmt 0 discriminator 1
  69 002c 082D     		cmp	r5, #8
  70 002e EBDD     		ble	.L5
  74:command_telemetry.c ****         }
  75:command_telemetry.c ****     }// for all the commands
  76:command_telemetry.c ****     
  77:command_telemetry.c ****     return CMD_UNKNOWN;
  71              		.loc 1 77 0 is_stmt 1
  72 0030 0920     		mov	r0, #9
  73              	.LVL7:
  74              	.L4:
  78:command_telemetry.c **** }// get_cmd_id_from_cmd_string
  75              		.loc 1 78 0
  76              		@ sp needed
  77              	.LVL8:
  78 0032 38BD     		pop	{r3, r4, r5, pc}
  79              	.L7:
  80              		.align	2
  81              	.L6:
  82 0034 38000000 		.word	.LANCHOR0
  83              		.cfi_endproc
  84              	.LFE35:
  85              		.size	get_cmd_id_from_cmd_string, .-get_cmd_id_from_cmd_string
  86              		.section	.text.get_sensor_cmd_id_from_cmd_string,"ax",%progbits
  87              		.align	2
  88              		.global	get_sensor_cmd_id_from_cmd_string
  89              		.code	16
  90              		.thumb_func
  91              		.type	get_sensor_cmd_id_from_cmd_string, %function
ARM GAS  C:\Users\TB1014~1\AppData\Local\Temp\ccPTK8k7.s 			page 4


  92              	get_sensor_cmd_id_from_cmd_string:
  93              	.LFB36:
  79:command_telemetry.c **** 
  80:command_telemetry.c **** //=============================================================================
  81:command_telemetry.c **** //=========================================== get_sensor_cmd_id_from_cmd_string
  82:command_telemetry.c **** //=============================================================================
  83:command_telemetry.c **** t_enum_sensor_command get_sensor_cmd_id_from_cmd_string (const char* cmd_str)
  84:command_telemetry.c **** {
  94              		.loc 1 84 0
  95              		.cfi_startproc
  96              	.LVL9:
  97 0000 38B5     		push	{r3, r4, r5, lr}
  98              		.cfi_def_cfa_offset 16
  99              		.cfi_offset 3, -16
 100              		.cfi_offset 4, -12
 101              		.cfi_offset 5, -8
 102              		.cfi_offset 14, -4
 103 0002 041C     		mov	r4, r0
 104              	.LVL10:
  85:command_telemetry.c ****     int i;
  86:command_telemetry.c ****     
  87:command_telemetry.c ****     for (i = 0; i < CMD_SENSOR_UNKNOWN; i++)
 105              		.loc 1 87 0
 106 0004 0025     		mov	r5, #0
 107 0006 13E0     		b	.L9
 108              	.LVL11:
 109              	.L12:
  88:command_telemetry.c ****     {
  89:command_telemetry.c ****         if (strstr(cmd_str, vec_sensor_commands[i].name))
 110              		.loc 1 89 0
 111 0008 6B00     		lsl	r3, r5, #1
 112 000a 5B19     		add	r3, r3, r5
 113 000c 9B00     		lsl	r3, r3, #2
 114 000e 0A4A     		ldr	r2, .L13
 115 0010 D318     		add	r3, r2, r3
 116 0012 196F     		ldr	r1, [r3, #112]
 117 0014 201C     		mov	r0, r4
 118 0016 FFF7FEFF 		bl	strstr
 119              	.LVL12:
 120 001a 0028     		cmp	r0, #0
 121 001c 07D0     		beq	.L10
  90:command_telemetry.c ****         {
  91:command_telemetry.c ****             return vec_sensor_commands[i].id;
 122              		.loc 1 91 0
 123 001e 6B00     		lsl	r3, r5, #1
 124 0020 5D19     		add	r5, r3, r5
 125              	.LVL13:
 126 0022 AD00     		lsl	r5, r5, #2
 127 0024 044B     		ldr	r3, .L13
 128 0026 5D19     		add	r5, r3, r5
 129 0028 6C23     		mov	r3, #108
 130 002a E85C     		ldrb	r0, [r5, r3]
 131 002c 03E0     		b	.L11
 132              	.LVL14:
 133              	.L10:
  87:command_telemetry.c ****     {
 134              		.loc 1 87 0 discriminator 2
ARM GAS  C:\Users\TB1014~1\AppData\Local\Temp\ccPTK8k7.s 			page 5


 135 002e 0135     		add	r5, r5, #1
 136              	.LVL15:
 137              	.L9:
  87:command_telemetry.c ****     {
 138              		.loc 1 87 0 is_stmt 0 discriminator 1
 139 0030 012D     		cmp	r5, #1
 140 0032 E9DD     		ble	.L12
  92:command_telemetry.c ****         }
  93:command_telemetry.c ****     }// for all the commands
  94:command_telemetry.c ****     
  95:command_telemetry.c ****     return CMD_SENSOR_UNKNOWN;
 141              		.loc 1 95 0 is_stmt 1
 142 0034 0220     		mov	r0, #2
 143              	.LVL16:
 144              	.L11:
  96:command_telemetry.c **** }// get_sensor_cmd_id_from_cmd_string
 145              		.loc 1 96 0
 146              		@ sp needed
 147              	.LVL17:
 148 0036 38BD     		pop	{r3, r4, r5, pc}
 149              	.L14:
 150              		.align	2
 151              	.L13:
 152 0038 38000000 		.word	.LANCHOR0
 153              		.cfi_endproc
 154              	.LFE36:
 155              		.size	get_sensor_cmd_id_from_cmd_string, .-get_sensor_cmd_id_from_cmd_string
 156              		.section	.text.get_telemetry_cmd_id_from_cmd_string,"ax",%progbits
 157              		.align	2
 158              		.global	get_telemetry_cmd_id_from_cmd_string
 159              		.code	16
 160              		.thumb_func
 161              		.type	get_telemetry_cmd_id_from_cmd_string, %function
 162              	get_telemetry_cmd_id_from_cmd_string:
 163              	.LFB37:
  97:command_telemetry.c **** 
  98:command_telemetry.c **** //=============================================================================
  99:command_telemetry.c **** //======================================== get_telemetry_cmd_id_from_cmd_string
 100:command_telemetry.c **** //=============================================================================
 101:command_telemetry.c **** t_enum_telemetry_command get_telemetry_cmd_id_from_cmd_string (const char* cmd_str)
 102:command_telemetry.c **** {
 164              		.loc 1 102 0
 165              		.cfi_startproc
 166              	.LVL18:
 167 0000 38B5     		push	{r3, r4, r5, lr}
 168              		.cfi_def_cfa_offset 16
 169              		.cfi_offset 3, -16
 170              		.cfi_offset 4, -12
 171              		.cfi_offset 5, -8
 172              		.cfi_offset 14, -4
 173 0002 041C     		mov	r4, r0
 174              	.LVL19:
 103:command_telemetry.c ****     int i;
 104:command_telemetry.c ****     
 105:command_telemetry.c ****     for (i = 0; i < CMD_TELEMETRY_UNKNOWN; i++)
 175              		.loc 1 105 0
 176 0004 0025     		mov	r5, #0
ARM GAS  C:\Users\TB1014~1\AppData\Local\Temp\ccPTK8k7.s 			page 6


 177 0006 12E0     		b	.L16
 178              	.LVL20:
 179              	.L19:
 106:command_telemetry.c ****     {
 107:command_telemetry.c ****         if (strstr(cmd_str, vec_telemetry_commands[i].name))
 180              		.loc 1 107 0
 181 0008 6B00     		lsl	r3, r5, #1
 182 000a 5B19     		add	r3, r3, r5
 183 000c 9B00     		lsl	r3, r3, #2
 184 000e 0A4A     		ldr	r2, .L20
 185 0010 D318     		add	r3, r2, r3
 186 0012 9968     		ldr	r1, [r3, #8]
 187 0014 201C     		mov	r0, r4
 188 0016 FFF7FEFF 		bl	strstr
 189              	.LVL21:
 190 001a 0028     		cmp	r0, #0
 191 001c 06D0     		beq	.L17
 108:command_telemetry.c ****         {
 109:command_telemetry.c ****             return vec_telemetry_commands[i].id;
 192              		.loc 1 109 0
 193 001e 6B00     		lsl	r3, r5, #1
 194 0020 5D19     		add	r5, r3, r5
 195              	.LVL22:
 196 0022 AD00     		lsl	r5, r5, #2
 197 0024 044B     		ldr	r3, .L20
 198 0026 5D19     		add	r5, r3, r5
 199 0028 2879     		ldrb	r0, [r5, #4]
 200 002a 03E0     		b	.L18
 201              	.LVL23:
 202              	.L17:
 105:command_telemetry.c ****     {
 203              		.loc 1 105 0 discriminator 2
 204 002c 0135     		add	r5, r5, #1
 205              	.LVL24:
 206              	.L16:
 105:command_telemetry.c ****     {
 207              		.loc 1 105 0 is_stmt 0 discriminator 1
 208 002e 012D     		cmp	r5, #1
 209 0030 EADD     		ble	.L19
 110:command_telemetry.c ****         }
 111:command_telemetry.c ****     }// for all the commands
 112:command_telemetry.c ****     
 113:command_telemetry.c ****     return CMD_TELEMETRY_UNKNOWN;
 210              		.loc 1 113 0 is_stmt 1
 211 0032 0220     		mov	r0, #2
 212              	.LVL25:
 213              	.L18:
 114:command_telemetry.c **** }// get_telemetry_cmd_id_from_cmd_string
 214              		.loc 1 114 0
 215              		@ sp needed
 216              	.LVL26:
 217 0034 38BD     		pop	{r3, r4, r5, pc}
 218              	.L21:
 219 0036 C046     		.align	2
 220              	.L20:
 221 0038 B8000000 		.word	.LANCHOR1
 222              		.cfi_endproc
ARM GAS  C:\Users\TB1014~1\AppData\Local\Temp\ccPTK8k7.s 			page 7


 223              	.LFE37:
 224              		.size	get_telemetry_cmd_id_from_cmd_string, .-get_telemetry_cmd_id_from_cmd_string
 225              		.section	.text.get_tracker_cmd_id_from_cmd_string,"ax",%progbits
 226              		.align	2
 227              		.global	get_tracker_cmd_id_from_cmd_string
 228              		.code	16
 229              		.thumb_func
 230              		.type	get_tracker_cmd_id_from_cmd_string, %function
 231              	get_tracker_cmd_id_from_cmd_string:
 232              	.LFB38:
 115:command_telemetry.c **** 
 116:command_telemetry.c **** //=============================================================================
 117:command_telemetry.c **** //========================================== get_tracker_cmd_id_from_cmd_string
 118:command_telemetry.c **** //=============================================================================
 119:command_telemetry.c **** t_enum_tracker_command get_tracker_cmd_id_from_cmd_string(const char* cmd_str)
 120:command_telemetry.c **** {
 233              		.loc 1 120 0
 234              		.cfi_startproc
 235              	.LVL27:
 236 0000 38B5     		push	{r3, r4, r5, lr}
 237              		.cfi_def_cfa_offset 16
 238              		.cfi_offset 3, -16
 239              		.cfi_offset 4, -12
 240              		.cfi_offset 5, -8
 241              		.cfi_offset 14, -4
 242 0002 041C     		mov	r4, r0
 243              	.LVL28:
 121:command_telemetry.c ****     int i;
 122:command_telemetry.c ****     
 123:command_telemetry.c ****     for (i = 0; i < CMD_TRACKER_UNKNOWN; i++)
 244              		.loc 1 123 0
 245 0004 0025     		mov	r5, #0
 246 0006 12E0     		b	.L23
 247              	.LVL29:
 248              	.L26:
 124:command_telemetry.c ****     {
 125:command_telemetry.c ****         if (strstr(cmd_str, vec_tracker_commands[i].name))
 249              		.loc 1 125 0
 250 0008 6B00     		lsl	r3, r5, #1
 251 000a 5B19     		add	r3, r3, r5
 252 000c 9B00     		lsl	r3, r3, #2
 253 000e 0A4A     		ldr	r2, .L27
 254 0010 D318     		add	r3, r2, r3
 255 0012 196A     		ldr	r1, [r3, #32]
 256 0014 201C     		mov	r0, r4
 257 0016 FFF7FEFF 		bl	strstr
 258              	.LVL30:
 259 001a 0028     		cmp	r0, #0
 260 001c 06D0     		beq	.L24
 126:command_telemetry.c ****         {
 127:command_telemetry.c ****             return vec_tracker_commands[i].id;
 261              		.loc 1 127 0
 262 001e 6B00     		lsl	r3, r5, #1
 263 0020 5D19     		add	r5, r3, r5
 264              	.LVL31:
 265 0022 AD00     		lsl	r5, r5, #2
 266 0024 044B     		ldr	r3, .L27
ARM GAS  C:\Users\TB1014~1\AppData\Local\Temp\ccPTK8k7.s 			page 8


 267 0026 5D19     		add	r5, r3, r5
 268 0028 287F     		ldrb	r0, [r5, #28]
 269 002a 03E0     		b	.L25
 270              	.LVL32:
 271              	.L24:
 123:command_telemetry.c ****     {
 272              		.loc 1 123 0 discriminator 2
 273 002c 0135     		add	r5, r5, #1
 274              	.LVL33:
 275              	.L23:
 123:command_telemetry.c ****     {
 276              		.loc 1 123 0 is_stmt 0 discriminator 1
 277 002e 022D     		cmp	r5, #2
 278 0030 EADD     		ble	.L26
 128:command_telemetry.c ****         }
 129:command_telemetry.c ****     }// for all the commands
 130:command_telemetry.c ****     
 131:command_telemetry.c ****     return CMD_TRACKER_UNKNOWN;
 279              		.loc 1 131 0 is_stmt 1
 280 0032 0320     		mov	r0, #3
 281              	.LVL34:
 282              	.L25:
 132:command_telemetry.c **** }// get_anim_cmd_id_from_cmd_string
 283              		.loc 1 132 0
 284              		@ sp needed
 285              	.LVL35:
 286 0034 38BD     		pop	{r3, r4, r5, pc}
 287              	.L28:
 288 0036 C046     		.align	2
 289              	.L27:
 290 0038 B8000000 		.word	.LANCHOR1
 291              		.cfi_endproc
 292              	.LFE38:
 293              		.size	get_tracker_cmd_id_from_cmd_string, .-get_tracker_cmd_id_from_cmd_string
 294              		.section	.text.get_anim_cmd_id_from_cmd_string,"ax",%progbits
 295              		.align	2
 296              		.global	get_anim_cmd_id_from_cmd_string
 297              		.code	16
 298              		.thumb_func
 299              		.type	get_anim_cmd_id_from_cmd_string, %function
 300              	get_anim_cmd_id_from_cmd_string:
 301              	.LFB39:
 133:command_telemetry.c **** 
 134:command_telemetry.c **** //=============================================================================
 135:command_telemetry.c **** //============================================= get_anim_cmd_id_from_cmd_string
 136:command_telemetry.c **** //=============================================================================
 137:command_telemetry.c **** t_enum_anim_command get_anim_cmd_id_from_cmd_string(const char* cmd_str)
 138:command_telemetry.c **** {
 302              		.loc 1 138 0
 303              		.cfi_startproc
 304              	.LVL36:
 305 0000 38B5     		push	{r3, r4, r5, lr}
 306              		.cfi_def_cfa_offset 16
 307              		.cfi_offset 3, -16
 308              		.cfi_offset 4, -12
 309              		.cfi_offset 5, -8
 310              		.cfi_offset 14, -4
ARM GAS  C:\Users\TB1014~1\AppData\Local\Temp\ccPTK8k7.s 			page 9


 311 0002 041C     		mov	r4, r0
 312              	.LVL37:
 139:command_telemetry.c ****     int i;
 140:command_telemetry.c ****     
 141:command_telemetry.c ****     for (i = 0; i < CMD_ANIM_UNKNOWN; i++)
 313              		.loc 1 141 0
 314 0004 0025     		mov	r5, #0
 315 0006 13E0     		b	.L30
 316              	.LVL38:
 317              	.L33:
 142:command_telemetry.c ****     {
 143:command_telemetry.c ****         if (strstr(cmd_str, vec_anim_commands[i].name))
 318              		.loc 1 143 0
 319 0008 6B00     		lsl	r3, r5, #1
 320 000a 5B19     		add	r3, r3, r5
 321 000c 9B00     		lsl	r3, r3, #2
 322 000e 0A4A     		ldr	r2, .L34
 323 0010 D318     		add	r3, r2, r3
 324 0012 596C     		ldr	r1, [r3, #68]
 325 0014 201C     		mov	r0, r4
 326 0016 FFF7FEFF 		bl	strstr
 327              	.LVL39:
 328 001a 0028     		cmp	r0, #0
 329 001c 07D0     		beq	.L31
 144:command_telemetry.c ****         {
 145:command_telemetry.c ****             return vec_anim_commands[i].id;
 330              		.loc 1 145 0
 331 001e 6B00     		lsl	r3, r5, #1
 332 0020 5D19     		add	r5, r3, r5
 333              	.LVL40:
 334 0022 AD00     		lsl	r5, r5, #2
 335 0024 044B     		ldr	r3, .L34
 336 0026 5D19     		add	r5, r3, r5
 337 0028 4023     		mov	r3, #64
 338 002a E85C     		ldrb	r0, [r5, r3]
 339 002c 03E0     		b	.L32
 340              	.LVL41:
 341              	.L31:
 141:command_telemetry.c ****     {
 342              		.loc 1 141 0 discriminator 2
 343 002e 0135     		add	r5, r5, #1
 344              	.LVL42:
 345              	.L30:
 141:command_telemetry.c ****     {
 346              		.loc 1 141 0 is_stmt 0 discriminator 1
 347 0030 032D     		cmp	r5, #3
 348 0032 E9DD     		ble	.L33
 146:command_telemetry.c ****         }
 147:command_telemetry.c ****     }// for all the commands
 148:command_telemetry.c ****     
 149:command_telemetry.c ****     return CMD_ANIM_UNKNOWN;
 349              		.loc 1 149 0 is_stmt 1
 350 0034 0420     		mov	r0, #4
 351              	.LVL43:
 352              	.L32:
 150:command_telemetry.c **** }// get_anim_cmd_id_from_cmd_string
 353              		.loc 1 150 0
ARM GAS  C:\Users\TB1014~1\AppData\Local\Temp\ccPTK8k7.s 			page 10


 354              		@ sp needed
 355              	.LVL44:
 356 0036 38BD     		pop	{r3, r4, r5, pc}
 357              	.L35:
 358              		.align	2
 359              	.L34:
 360 0038 B8000000 		.word	.LANCHOR1
 361              		.cfi_endproc
 362              	.LFE39:
 363              		.size	get_anim_cmd_id_from_cmd_string, .-get_anim_cmd_id_from_cmd_string
 364              		.section	.text.get_anim_id_from_cmd_string,"ax",%progbits
 365              		.align	2
 366              		.global	get_anim_id_from_cmd_string
 367              		.code	16
 368              		.thumb_func
 369              		.type	get_anim_id_from_cmd_string, %function
 370              	get_anim_id_from_cmd_string:
 371              	.LFB40:
 151:command_telemetry.c **** 
 152:command_telemetry.c **** //=============================================================================
 153:command_telemetry.c **** //================================================= get_anim_id_from_cmd_string
 154:command_telemetry.c **** //=============================================================================
 155:command_telemetry.c **** t_enum_animation get_anim_id_from_cmd_string(const char* cmd_str)
 156:command_telemetry.c **** {
 372              		.loc 1 156 0
 373              		.cfi_startproc
 374              	.LVL45:
 375 0000 30B5     		push	{r4, r5, lr}
 376              		.cfi_def_cfa_offset 12
 377              		.cfi_offset 4, -12
 378              		.cfi_offset 5, -8
 379              		.cfi_offset 14, -4
 380 0002 85B0     		sub	sp, sp, #20
 381              		.cfi_def_cfa_offset 32
 382 0004 051C     		mov	r5, r0
 383              	.LVL46:
 157:command_telemetry.c ****     int                i;
 158:command_telemetry.c ****     t_struct_animation animation;
 159:command_telemetry.c ****     
 160:command_telemetry.c ****     for (i = 0; i < ANIM_UNKNOWN; i++)
 384              		.loc 1 160 0
 385 0006 0024     		mov	r4, #0
 386 0008 0DE0     		b	.L37
 387              	.LVL47:
 388              	.L40:
 161:command_telemetry.c ****     {
 162:command_telemetry.c ****         get_animation ((t_enum_animation) i, &animation);
 389              		.loc 1 162 0
 390 000a E0B2     		uxtb	r0, r4
 391 000c 01A9     		add	r1, sp, #4
 392 000e FFF7FEFF 		bl	get_animation
 393              	.LVL48:
 163:command_telemetry.c ****         if (strstr(cmd_str, animation.description))
 394              		.loc 1 163 0
 395 0012 0399     		ldr	r1, [sp, #12]
 396 0014 281C     		mov	r0, r5
 397 0016 FFF7FEFF 		bl	strstr
ARM GAS  C:\Users\TB1014~1\AppData\Local\Temp\ccPTK8k7.s 			page 11


 398              	.LVL49:
 399 001a 0028     		cmp	r0, #0
 400 001c 02D0     		beq	.L38
 164:command_telemetry.c ****         {
 165:command_telemetry.c ****             return animation.id;
 401              		.loc 1 165 0
 402 001e 01AB     		add	r3, sp, #4
 403 0020 1878     		ldrb	r0, [r3]
 404 0022 03E0     		b	.L39
 405              	.L38:
 160:command_telemetry.c ****     {
 406              		.loc 1 160 0 discriminator 2
 407 0024 0134     		add	r4, r4, #1
 408              	.LVL50:
 409              	.L37:
 160:command_telemetry.c ****     {
 410              		.loc 1 160 0 is_stmt 0 discriminator 1
 411 0026 0D2C     		cmp	r4, #13
 412 0028 EFDD     		ble	.L40
 166:command_telemetry.c ****         }
 167:command_telemetry.c ****     }// for all the commands
 168:command_telemetry.c ****     
 169:command_telemetry.c ****     return ANIM_UNKNOWN;
 413              		.loc 1 169 0 is_stmt 1
 414 002a 0E20     		mov	r0, #14
 415              	.L39:
 170:command_telemetry.c **** }// get_anim_cmd_id_from_cmd_string
 416              		.loc 1 170 0
 417 002c 05B0     		add	sp, sp, #20
 418              		@ sp needed
 419              	.LVL51:
 420              	.LVL52:
 421 002e 30BD     		pop	{r4, r5, pc}
 422              		.cfi_endproc
 423              	.LFE40:
 424              		.size	get_anim_id_from_cmd_string, .-get_anim_id_from_cmd_string
 425              		.section	.text.get_boot_cmd_id_from_cmd_string,"ax",%progbits
 426              		.align	2
 427              		.global	get_boot_cmd_id_from_cmd_string
 428              		.code	16
 429              		.thumb_func
 430              		.type	get_boot_cmd_id_from_cmd_string, %function
 431              	get_boot_cmd_id_from_cmd_string:
 432              	.LFB41:
 171:command_telemetry.c **** 
 172:command_telemetry.c **** //=============================================================================
 173:command_telemetry.c **** //============================================= get_boot_cmd_id_from_cmd_string
 174:command_telemetry.c **** //=============================================================================
 175:command_telemetry.c **** t_enum_bootloader_command get_boot_cmd_id_from_cmd_string(const char* cmd_str)
 176:command_telemetry.c **** {
 433              		.loc 1 176 0
 434              		.cfi_startproc
 435              	.LVL53:
 436 0000 38B5     		push	{r3, r4, r5, lr}
 437              		.cfi_def_cfa_offset 16
 438              		.cfi_offset 3, -16
 439              		.cfi_offset 4, -12
ARM GAS  C:\Users\TB1014~1\AppData\Local\Temp\ccPTK8k7.s 			page 12


 440              		.cfi_offset 5, -8
 441              		.cfi_offset 14, -4
 442 0002 041C     		mov	r4, r0
 443              	.LVL54:
 177:command_telemetry.c ****     int i;
 178:command_telemetry.c ****     
 179:command_telemetry.c ****     for (i = 0; i < CMD_BOOT_UNKNOWN; i++)
 444              		.loc 1 179 0
 445 0004 0025     		mov	r5, #0
 446 0006 13E0     		b	.L42
 447              	.LVL55:
 448              	.L45:
 180:command_telemetry.c ****     {
 181:command_telemetry.c ****         if (strstr(cmd_str, vec_boot_commands[i].name))
 449              		.loc 1 181 0
 450 0008 6B00     		lsl	r3, r5, #1
 451 000a 5B19     		add	r3, r3, r5
 452 000c 9B00     		lsl	r3, r3, #2
 453 000e 0A4A     		ldr	r2, .L46
 454 0010 D318     		add	r3, r2, r3
 455 0012 596F     		ldr	r1, [r3, #116]
 456 0014 201C     		mov	r0, r4
 457 0016 FFF7FEFF 		bl	strstr
 458              	.LVL56:
 459 001a 0028     		cmp	r0, #0
 460 001c 07D0     		beq	.L43
 182:command_telemetry.c ****         {
 183:command_telemetry.c ****             return vec_boot_commands[i].id;
 461              		.loc 1 183 0
 462 001e 6B00     		lsl	r3, r5, #1
 463 0020 5D19     		add	r5, r3, r5
 464              	.LVL57:
 465 0022 AD00     		lsl	r5, r5, #2
 466 0024 044B     		ldr	r3, .L46
 467 0026 5D19     		add	r5, r3, r5
 468 0028 7023     		mov	r3, #112
 469 002a E85C     		ldrb	r0, [r5, r3]
 470 002c 03E0     		b	.L44
 471              	.LVL58:
 472              	.L43:
 179:command_telemetry.c ****     {
 473              		.loc 1 179 0 discriminator 2
 474 002e 0135     		add	r5, r5, #1
 475              	.LVL59:
 476              	.L42:
 179:command_telemetry.c ****     {
 477              		.loc 1 179 0 is_stmt 0 discriminator 1
 478 0030 022D     		cmp	r5, #2
 479 0032 E9DD     		ble	.L45
 184:command_telemetry.c ****         }
 185:command_telemetry.c ****     }// for all the commands
 186:command_telemetry.c ****     
 187:command_telemetry.c ****     return CMD_BOOT_UNKNOWN;
 480              		.loc 1 187 0 is_stmt 1
 481 0034 0320     		mov	r0, #3
 482              	.LVL60:
 483              	.L44:
ARM GAS  C:\Users\TB1014~1\AppData\Local\Temp\ccPTK8k7.s 			page 13


 188:command_telemetry.c **** }// get_boot_cmd_id_from_cmd_string
 484              		.loc 1 188 0
 485              		@ sp needed
 486              	.LVL61:
 487 0036 38BD     		pop	{r3, r4, r5, pc}
 488              	.L47:
 489              		.align	2
 490              	.L46:
 491 0038 B8000000 		.word	.LANCHOR1
 492              		.cfi_endproc
 493              	.LFE41:
 494              		.size	get_boot_cmd_id_from_cmd_string, .-get_boot_cmd_id_from_cmd_string
 495              		.section	.text.get_led_cmd_id_from_cmd_string,"ax",%progbits
 496              		.align	2
 497              		.global	get_led_cmd_id_from_cmd_string
 498              		.code	16
 499              		.thumb_func
 500              		.type	get_led_cmd_id_from_cmd_string, %function
 501              	get_led_cmd_id_from_cmd_string:
 502              	.LFB42:
 189:command_telemetry.c **** 
 190:command_telemetry.c **** //=============================================================================
 191:command_telemetry.c **** //============================================== get_led_cmd_id_from_cmd_string
 192:command_telemetry.c **** //=============================================================================
 193:command_telemetry.c **** t_enum_led_command get_led_cmd_id_from_cmd_string(const char* cmd_str)
 194:command_telemetry.c **** {
 503              		.loc 1 194 0
 504              		.cfi_startproc
 505              	.LVL62:
 506 0000 38B5     		push	{r3, r4, r5, lr}
 507              		.cfi_def_cfa_offset 16
 508              		.cfi_offset 3, -16
 509              		.cfi_offset 4, -12
 510              		.cfi_offset 5, -8
 511              		.cfi_offset 14, -4
 512 0002 041C     		mov	r4, r0
 513              	.LVL63:
 195:command_telemetry.c ****     int i;
 196:command_telemetry.c ****     
 197:command_telemetry.c ****     for (i = 0; i < CMD_LED_UNKNOWN; i++)
 514              		.loc 1 197 0
 515 0004 0025     		mov	r5, #0
 516 0006 12E0     		b	.L49
 517              	.LVL64:
 518              	.L52:
 198:command_telemetry.c ****     {
 199:command_telemetry.c ****         if (strstr(cmd_str, vec_led_commands[i].name))
 519              		.loc 1 199 0
 520 0008 6B00     		lsl	r3, r5, #1
 521 000a 5B19     		add	r3, r3, r5
 522 000c 9B00     		lsl	r3, r3, #2
 523 000e 0A4A     		ldr	r2, .L53
 524 0010 D318     		add	r3, r2, r3
 525 0012 9969     		ldr	r1, [r3, #24]
 526 0014 201C     		mov	r0, r4
 527 0016 FFF7FEFF 		bl	strstr
 528              	.LVL65:
ARM GAS  C:\Users\TB1014~1\AppData\Local\Temp\ccPTK8k7.s 			page 14


 529 001a 0028     		cmp	r0, #0
 530 001c 06D0     		beq	.L50
 200:command_telemetry.c ****         {
 201:command_telemetry.c ****             return vec_led_commands[i].id;
 531              		.loc 1 201 0
 532 001e 6B00     		lsl	r3, r5, #1
 533 0020 5D19     		add	r5, r3, r5
 534              	.LVL66:
 535 0022 AD00     		lsl	r5, r5, #2
 536 0024 044B     		ldr	r3, .L53
 537 0026 5D19     		add	r5, r3, r5
 538 0028 287D     		ldrb	r0, [r5, #20]
 539 002a 03E0     		b	.L51
 540              	.LVL67:
 541              	.L50:
 197:command_telemetry.c ****     {
 542              		.loc 1 197 0 discriminator 2
 543 002c 0135     		add	r5, r5, #1
 544              	.LVL68:
 545              	.L49:
 197:command_telemetry.c ****     {
 546              		.loc 1 197 0 is_stmt 0 discriminator 1
 547 002e 042D     		cmp	r5, #4
 548 0030 EADD     		ble	.L52
 202:command_telemetry.c ****         }
 203:command_telemetry.c ****     }// for all the commands
 204:command_telemetry.c ****     
 205:command_telemetry.c ****     return CMD_LED_UNKNOWN;
 549              		.loc 1 205 0 is_stmt 1
 550 0032 0520     		mov	r0, #5
 551              	.LVL69:
 552              	.L51:
 206:command_telemetry.c **** }// get_led_cmd_id_from_cmd_string
 553              		.loc 1 206 0
 554              		@ sp needed
 555              	.LVL70:
 556 0034 38BD     		pop	{r3, r4, r5, pc}
 557              	.L54:
 558 0036 C046     		.align	2
 559              	.L53:
 560 0038 38010000 		.word	.LANCHOR2
 561              		.cfi_endproc
 562              	.LFE42:
 563              		.size	get_led_cmd_id_from_cmd_string, .-get_led_cmd_id_from_cmd_string
 564              		.section	.text.send_bootloader_config_telemetry,"ax",%progbits
 565              		.align	2
 566              		.global	send_bootloader_config_telemetry
 567              		.code	16
 568              		.thumb_func
 569              		.type	send_bootloader_config_telemetry, %function
 570              	send_bootloader_config_telemetry:
 571              	.LFB44:
 207:command_telemetry.c **** 
 208:command_telemetry.c **** //=============================================================================
 209:command_telemetry.c **** //=================================================== parse_and_execute_command
 210:command_telemetry.c **** //=============================================================================
 211:command_telemetry.c **** BOOL parse_and_execute_command(const char* cmd_str_and_param)
ARM GAS  C:\Users\TB1014~1\AppData\Local\Temp\ccPTK8k7.s 			page 15


 212:command_telemetry.c **** { 
 213:command_telemetry.c ****     t_enum_command            cmd_id           = CMD_UNKNOWN;
 214:command_telemetry.c ****     t_enum_anim_command       anim_cmd_id      = CMD_ANIM_UNKNOWN;
 215:command_telemetry.c ****     t_enum_animation          anim_id          = ANIM_UNKNOWN;
 216:command_telemetry.c ****     t_enum_led_command        led_cmd_id       = CMD_LED_UNKNOWN;
 217:command_telemetry.c ****     t_enum_sensor_command     sensor_cmd_id    = CMD_SENSOR_UNKNOWN;
 218:command_telemetry.c ****     t_enum_telemetry_command  telemetry_cmd_id = CMD_TELEMETRY_UNKNOWN;
 219:command_telemetry.c ****     t_enum_tracker_command    tracker_cmd_id   = CMD_TRACKER_UNKNOWN;
 220:command_telemetry.c ****     t_enum_bootloader_command boot_cmd_id      = CMD_BOOT_UNKNOWN;   
 221:command_telemetry.c ****     char*                     param_str        = strchr(cmd_str_and_param, ',');
 222:command_telemetry.c ****     char*                     next_param_str   = NULL; 
 223:command_telemetry.c ****     int                       red              = 0;
 224:command_telemetry.c ****     int                       green            = 0;
 225:command_telemetry.c ****     int                       blue             = 0;
 226:command_telemetry.c ****     int                       led_index        = 0;
 227:command_telemetry.c ****     int                       led_intensity    = 0;
 228:command_telemetry.c **** #if 0   
 229:command_telemetry.c ****     uint32                    flash_checksum   = 0;
 230:command_telemetry.c ****     uint32                    flash_first_row  = 0;
 231:command_telemetry.c ****     uint32                    flash_last_row   = 0;
 232:command_telemetry.c ****     uint32                    flash_size       = 0;
 233:command_telemetry.c **** #endif // USE_BOOTLOADER    
 234:command_telemetry.c ****     t_struct_animation        animation;
 235:command_telemetry.c ****     uint16                    led_vec[MAX_LEDS]; 
 236:command_telemetry.c ****     int                       i;
 237:command_telemetry.c ****     
 238:command_telemetry.c ****     if (param_str == NULL)
 239:command_telemetry.c ****     {
 240:command_telemetry.c ****         send_alarm_telemetry(ALARM_WARNING, cmd_str_and_param, "can't find comma in command");
 241:command_telemetry.c ****         return FALSE;    
 242:command_telemetry.c ****     }// If we can't a comma inside the command
 243:command_telemetry.c ****    
 244:command_telemetry.c ****     cmd_id = get_cmd_id_from_cmd_string(param_str++);
 245:command_telemetry.c ****     
 246:command_telemetry.c ****     switch (cmd_id)
 247:command_telemetry.c ****     {
 248:command_telemetry.c ****         case CMD_CAPSENSE:
 249:command_telemetry.c ****         {
 250:command_telemetry.c ****             send_alarm_telemetry(ALARM_WARNING, cmd_str_and_param, "FIXME!");
 251:command_telemetry.c ****             return FALSE;    
 252:command_telemetry.c ****         }// CMD_CAPSENSE
 253:command_telemetry.c ****         
 254:command_telemetry.c ****         case CMD_HELP:
 255:command_telemetry.c ****         {
 256:command_telemetry.c ****             for (i = 0; i < CMD_UNKNOWN; i++)
 257:command_telemetry.c ****             {
 258:command_telemetry.c ****                 send_alarm_telemetry(ALARM_LOG, vec_commands[i].name, vec_commands[i].description);
 259:command_telemetry.c ****             }// for all the commands
 260:command_telemetry.c ****             
 261:command_telemetry.c ****             for (i = 0; i < ANIM_UNKNOWN; i++)
 262:command_telemetry.c ****             {
 263:command_telemetry.c ****                 get_animation ((t_enum_animation) i, &animation);
 264:command_telemetry.c ****                 send_alarm_telemetry(ALARM_LOG, "animation", animation.description);
 265:command_telemetry.c ****             }// for all the commands
 266:command_telemetry.c ****             
 267:command_telemetry.c ****             break;      
 268:command_telemetry.c ****         }// CMD_HELP
ARM GAS  C:\Users\TB1014~1\AppData\Local\Temp\ccPTK8k7.s 			page 16


 269:command_telemetry.c ****         
 270:command_telemetry.c ****         case CMD_ANIMATION:
 271:command_telemetry.c ****         {
 272:command_telemetry.c ****             if ((param_str = strchr(param_str, ',')) == NULL)
 273:command_telemetry.c ****             {
 274:command_telemetry.c ****                 send_alarm_telemetry(ALARM_WARNING, cmd_str_and_param, "unsupported animation actio
 275:command_telemetry.c ****                 return FALSE;
 276:command_telemetry.c ****             }// If we can't find the next ',' character
 277:command_telemetry.c ****             
 278:command_telemetry.c ****             if ((param_str = strchr(++param_str, ':')) == NULL)
 279:command_telemetry.c ****             {
 280:command_telemetry.c ****                 send_alarm_telemetry(ALARM_WARNING, cmd_str_and_param, "unsupported animation actio
 281:command_telemetry.c ****                 return FALSE;
 282:command_telemetry.c ****             }// If we can't find the next ':' character
 283:command_telemetry.c ****             param_str++;
 284:command_telemetry.c ****             
 285:command_telemetry.c ****             switch (anim_cmd_id = get_anim_cmd_id_from_cmd_string(param_str))
 286:command_telemetry.c ****             {
 287:command_telemetry.c ****                 case CMD_ANIM_AUTO:
 288:command_telemetry.c ****                 {
 289:command_telemetry.c ****                     set_is_auto_anim_rotation_enable(TRUE);
 290:command_telemetry.c ****                     break;
 291:command_telemetry.c ****                 }// CMD_ANIM_AUTO
 292:command_telemetry.c ****                 
 293:command_telemetry.c ****                 case CMD_ANIM_MANUAL:
 294:command_telemetry.c ****                 {
 295:command_telemetry.c ****                     set_is_auto_anim_rotation_enable(FALSE);
 296:command_telemetry.c ****                     break;
 297:command_telemetry.c ****                 }// CMD_ANIM_MANUAL
 298:command_telemetry.c ****                 
 299:command_telemetry.c ****                 case CMD_ANIM_STOP:
 300:command_telemetry.c ****                 {
 301:command_telemetry.c ****                     set_is_anim_on_button_up_enable(FALSE);
 302:command_telemetry.c ****                     break;
 303:command_telemetry.c ****                 }// CMD_ANIM_STOP
 304:command_telemetry.c ****                 
 305:command_telemetry.c ****                 case CMD_ANIM_RESUME:
 306:command_telemetry.c ****                 {
 307:command_telemetry.c ****                     set_is_anim_on_button_up_enable(TRUE);
 308:command_telemetry.c ****                     break;
 309:command_telemetry.c ****                 }// CMD_ANIM_RESUME
 310:command_telemetry.c ****                 
 311:command_telemetry.c ****                 case CMD_ANIM_UNKNOWN:
 312:command_telemetry.c ****                 default              :
 313:command_telemetry.c ****                 {
 314:command_telemetry.c ****                     if ((anim_id = get_anim_id_from_cmd_string(param_str)) != ANIM_UNKNOWN)
 315:command_telemetry.c ****                     {
 316:command_telemetry.c ****                         set_current_callback_anim(anim_id);
 317:command_telemetry.c ****                     }// if we found a valid animation description in the command
 318:command_telemetry.c ****                     else
 319:command_telemetry.c ****                     {
 320:command_telemetry.c ****                         send_alarm_telemetry(ALARM_WARNING, cmd_str_and_param, "unsupported animati
 321:command_telemetry.c ****                         return FALSE;
 322:command_telemetry.c ****                     }// else, we couldn't find a valid animation 
 323:command_telemetry.c ****                     break;
 324:command_telemetry.c ****                 }// CMD_ANIM_UNKOWN, default
 325:command_telemetry.c ****             }// switch on the animation command
ARM GAS  C:\Users\TB1014~1\AppData\Local\Temp\ccPTK8k7.s 			page 17


 326:command_telemetry.c ****             break;  
 327:command_telemetry.c ****         }// CMD_SET_ANIMATION
 328:command_telemetry.c ****         
 329:command_telemetry.c ****         case CMD_BOOTLOADER:
 330:command_telemetry.c ****         {
 331:command_telemetry.c ****             if ((param_str = strchr(param_str, ',')) == NULL)
 332:command_telemetry.c ****             {
 333:command_telemetry.c ****                 send_alarm_telemetry(ALARM_WARNING, cmd_str_and_param, "unsupported sensor action")
 334:command_telemetry.c ****                 return FALSE;
 335:command_telemetry.c ****             }// If we can't find the next ',' character
 336:command_telemetry.c ****             
 337:command_telemetry.c ****             if ((param_str = strchr(++param_str, ':')) == NULL)
 338:command_telemetry.c ****             {
 339:command_telemetry.c ****                 send_alarm_telemetry(ALARM_WARNING, cmd_str_and_param, "unsupported sensor action")
 340:command_telemetry.c ****                 return FALSE;
 341:command_telemetry.c ****             }// If we can't find the next ':' character
 342:command_telemetry.c ****             param_str++;
 343:command_telemetry.c ****             
 344:command_telemetry.c ****             switch (boot_cmd_id = get_boot_cmd_id_from_cmd_string(param_str))
 345:command_telemetry.c ****             {
 346:command_telemetry.c ****                 case CMD_BOOT_START:
 347:command_telemetry.c ****                 {   
 348:command_telemetry.c **** 
 349:command_telemetry.c **** #if USE_BOOTLOADER                     
 350:command_telemetry.c ****                     Timer_1_Stop();
 351:command_telemetry.c ****                     Bootloadable_1_Load();
 352:command_telemetry.c **** #else 
 353:command_telemetry.c ****                     send_alarm_telemetry(ALARM_ERROR, cmd_str_and_param, "bootloader is disabled");
 354:command_telemetry.c **** #endif // USE_BOOTLOADER  
 355:command_telemetry.c ****                     break;
 356:command_telemetry.c ****                 }// CMD_BOOT_START      
 357:command_telemetry.c ****                 
 358:command_telemetry.c ****                 case CMD_BOOT_EXIT:
 359:command_telemetry.c ****                 {
 360:command_telemetry.c **** #if 0                    
 361:command_telemetry.c ****                     Bootloader_1_Exit(Bootloader_1_EXIT_TO_BTLDB);
 362:command_telemetry.c **** #else 
 363:command_telemetry.c ****                     send_alarm_telemetry(ALARM_ERROR, cmd_str_and_param, "bootloader is disabled");
 364:command_telemetry.c **** #endif // USE_BOOTLOADER      
 365:command_telemetry.c ****                     break;
 366:command_telemetry.c ****                 }// CMD_BOOT_EXIT
 367:command_telemetry.c ****                 
 368:command_telemetry.c ****                 case CMD_BOOT_GET_FLASH_GEO:
 369:command_telemetry.c ****                 {
 370:command_telemetry.c **** #if 0                   
 371:command_telemetry.c ****                     flash_checksum  = Bootloader_1_GetMetadata(Bootloader_1_GET_BTLDB_CHECKSUM, 0);
 372:command_telemetry.c ****                     flash_first_row = Bootloader_1_GetMetadata(Bootloader_1_GET_BTLDB_ADDR    , 0);
 373:command_telemetry.c ****                     flash_last_row  = Bootloader_1_GetMetadata(Bootloader_1_GET_BTLDR_LAST_ROW, 0);
 374:command_telemetry.c ****                     flash_size      = Bootloader_1_GetMetadata(Bootloader_1_GET_BTLDB_LENGTH  , 0);
 375:command_telemetry.c ****                     send_flash_geometry_telemetry(flash_checksum, flash_first_row, flash_last_row, 
 376:command_telemetry.c **** #else 
 377:command_telemetry.c ****                     send_alarm_telemetry(ALARM_ERROR, cmd_str_and_param, "bootloader is disabled");
 378:command_telemetry.c **** #endif // USE_BOOTLOADER  
 379:command_telemetry.c ****                     break;
 380:command_telemetry.c ****                 }// CMD_BOOT_EXIT
 381:command_telemetry.c ****                 
 382:command_telemetry.c ****                 case CMD_BOOT_UNKNOWN:
ARM GAS  C:\Users\TB1014~1\AppData\Local\Temp\ccPTK8k7.s 			page 18


 383:command_telemetry.c ****                 default              :
 384:command_telemetry.c ****                 {
 385:command_telemetry.c ****                     send_alarm_telemetry(ALARM_WARNING, cmd_str_and_param, "unsupported bootloader 
 386:command_telemetry.c ****                     return FALSE;
 387:command_telemetry.c ****                 }// CMD_TRACKER_UNKNOWN, default
 388:command_telemetry.c ****             }// switch in the tracker action
 389:command_telemetry.c ****             break;
 390:command_telemetry.c ****             //send_alarm_telemetry(ALARM_WARNING, cmd_str_and_param, "jumping in bootloader");     
 391:command_telemetry.c ****            
 392:command_telemetry.c ****             break;
 393:command_telemetry.c ****         }// CMD_BOOTLOADER
 394:command_telemetry.c ****               
 395:command_telemetry.c ****         case CMD_LED:
 396:command_telemetry.c ****         {
 397:command_telemetry.c ****             switch (led_cmd_id = get_led_cmd_id_from_cmd_string(param_str))
 398:command_telemetry.c ****             {
 399:command_telemetry.c ****                 case CMD_LED_CLEAR:
 400:command_telemetry.c ****                 {
 401:command_telemetry.c ****                     set_all_leds_intensity(0x00);
 402:command_telemetry.c ****                     break;
 403:command_telemetry.c ****                 }// CMD_LED_CLEAR
 404:command_telemetry.c ****                 
 405:command_telemetry.c ****                 case CMD_LED_SET_COLOR_LEFT:
 406:command_telemetry.c ****                 case CMD_LED_SET_COLOR_RIGHT:
 407:command_telemetry.c ****                 {
 408:command_telemetry.c ****                     if ((param_str = strchr(param_str, ',')) == NULL)
 409:command_telemetry.c ****                     {
 410:command_telemetry.c ****                         send_alarm_telemetry(ALARM_WARNING, cmd_str_and_param, "unsupported animati
 411:command_telemetry.c ****                         return FALSE;
 412:command_telemetry.c ****                     }// If we can't find the next ',' character
 413:command_telemetry.c ****                     
 414:command_telemetry.c ****                     if ((param_str = strchr(++param_str, ':')) == NULL)
 415:command_telemetry.c ****                     {
 416:command_telemetry.c ****                         send_alarm_telemetry(ALARM_WARNING, cmd_str_and_param, "can't parse red fro
 417:command_telemetry.c ****                         return FALSE;
 418:command_telemetry.c ****                     }// If we can't find the next ':' character
 419:command_telemetry.c **** 
 420:command_telemetry.c ****                     // ========================================================
 421:command_telemetry.c ****                     // parse red
 422:command_telemetry.c ****                     // ========================================================
 423:command_telemetry.c ****                     if ((param_str = strchr(++param_str, ':')) == NULL)
 424:command_telemetry.c ****                     {
 425:command_telemetry.c ****                         send_alarm_telemetry(ALARM_WARNING, cmd_str_and_param, "can't parse red fro
 426:command_telemetry.c ****                         return FALSE;
 427:command_telemetry.c ****                     }// If we can't find the next ':' character
 428:command_telemetry.c **** 
 429:command_telemetry.c ****                     if ((next_param_str = strchr(++param_str, ',')) == NULL)
 430:command_telemetry.c ****                     {
 431:command_telemetry.c ****                         send_alarm_telemetry(ALARM_WARNING, cmd_str_and_param, "can't parse red fro
 432:command_telemetry.c ****                         return FALSE;
 433:command_telemetry.c ****                     }// If we can't find the next ',' character
 434:command_telemetry.c ****                     *next_param_str = '\0';
 435:command_telemetry.c ****                     next_param_str++;
 436:command_telemetry.c ****                     
 437:command_telemetry.c ****                     red = atoi(param_str);
 438:command_telemetry.c ****                     
 439:command_telemetry.c ****                     // ========================================================
ARM GAS  C:\Users\TB1014~1\AppData\Local\Temp\ccPTK8k7.s 			page 19


 440:command_telemetry.c ****                     // parse green
 441:command_telemetry.c ****                     // ========================================================
 442:command_telemetry.c ****                     if ((param_str = strchr(next_param_str, ':')) == NULL)
 443:command_telemetry.c ****                     {
 444:command_telemetry.c ****                         send_alarm_telemetry(ALARM_WARNING, cmd_str_and_param, "can't parse green f
 445:command_telemetry.c ****                         return FALSE;
 446:command_telemetry.c ****                     }// If we can't find the next ':' character
 447:command_telemetry.c **** 
 448:command_telemetry.c ****                     if ((next_param_str = strchr(++param_str, ',')) == NULL)
 449:command_telemetry.c ****                     {
 450:command_telemetry.c ****                         send_alarm_telemetry(ALARM_WARNING, cmd_str_and_param, "can't parsed green 
 451:command_telemetry.c ****                         return FALSE;
 452:command_telemetry.c ****                     }// If we can't find the next ',' character
 453:command_telemetry.c ****                     *next_param_str = '\0';
 454:command_telemetry.c ****                     next_param_str++;
 455:command_telemetry.c ****                     
 456:command_telemetry.c ****                     green = atoi(param_str);
 457:command_telemetry.c ****                     
 458:command_telemetry.c ****                     // ========================================================
 459:command_telemetry.c ****                     // parse blue
 460:command_telemetry.c ****                     // ========================================================
 461:command_telemetry.c ****                     if ((param_str = strchr(next_param_str, ':')) == NULL)
 462:command_telemetry.c ****                     {
 463:command_telemetry.c ****                         send_alarm_telemetry(ALARM_WARNING, cmd_str_and_param, "can't parse green f
 464:command_telemetry.c ****                         return FALSE;
 465:command_telemetry.c ****                     }// If we can't find the next ':' character
 466:command_telemetry.c ****                     
 467:command_telemetry.c ****                     blue = atoi(++param_str);                    
 468:command_telemetry.c ****                     // ========================================================
 469:command_telemetry.c ****                     // execute the command
 470:command_telemetry.c ****                     // ========================================================
 471:command_telemetry.c ****                     if (led_cmd_id == CMD_LED_SET_COLOR_LEFT)
 472:command_telemetry.c ****                     {
 473:command_telemetry.c ****                         set_led(E_LED_LEFT_RED  ,  red  );
 474:command_telemetry.c ****                         set_led(E_LED_LEFT_GREEN,  green);
 475:command_telemetry.c ****                         set_led(E_LED_LEFT_BLUE ,  blue );
 476:command_telemetry.c ****                     }// if it's the left colored LED
 477:command_telemetry.c ****                     else
 478:command_telemetry.c ****                     {
 479:command_telemetry.c ****                         set_led(E_LED_RIGHT_RED  ,  red  );
 480:command_telemetry.c ****                         set_led(E_LED_RIGHT_GREEN,  green);
 481:command_telemetry.c ****                         set_led(E_LED_RIGHT_BLUE ,  blue );
 482:command_telemetry.c ****                     }// if it's the right colored LED
 483:command_telemetry.c ****                     
 484:command_telemetry.c ****                     break;
 485:command_telemetry.c ****                 }// CMD_LED_SET_COLOR_LEFT
 486:command_telemetry.c ****                 
 487:command_telemetry.c ****                 case CMD_LED_SET_WHITE:
 488:command_telemetry.c ****                 {
 489:command_telemetry.c ****                     if ((param_str = strchr(param_str, ',')) == NULL)
 490:command_telemetry.c ****                     {
 491:command_telemetry.c ****                         send_alarm_telemetry(ALARM_WARNING, cmd_str_and_param, "unsupported animati
 492:command_telemetry.c ****                         return FALSE;
 493:command_telemetry.c ****                     }// If we can't find the next ',' character
 494:command_telemetry.c ****                     
 495:command_telemetry.c ****                     if ((param_str = strchr(++param_str, ':')) == NULL)
 496:command_telemetry.c ****                     {
ARM GAS  C:\Users\TB1014~1\AppData\Local\Temp\ccPTK8k7.s 			page 20


 497:command_telemetry.c ****                         send_alarm_telemetry(ALARM_WARNING, cmd_str_and_param, "can't parse LED ind
 498:command_telemetry.c ****                         return FALSE;
 499:command_telemetry.c ****                     }// If we can't find the next ':' character
 500:command_telemetry.c **** 
 501:command_telemetry.c ****                     // ========================================================
 502:command_telemetry.c ****                     // parse index
 503:command_telemetry.c ****                     // ========================================================
 504:command_telemetry.c ****                     if ((param_str = strchr(++param_str, ':')) == NULL)
 505:command_telemetry.c ****                     {
 506:command_telemetry.c ****                         send_alarm_telemetry(ALARM_WARNING, cmd_str_and_param, "can't parse LED ind
 507:command_telemetry.c ****                         return FALSE;
 508:command_telemetry.c ****                     }// If we can't find the next ':' character
 509:command_telemetry.c **** 
 510:command_telemetry.c ****                     if ((next_param_str = strchr(++param_str, ',')) == NULL)
 511:command_telemetry.c ****                     {
 512:command_telemetry.c ****                         send_alarm_telemetry(ALARM_WARNING, cmd_str_and_param, "can't parse LED ind
 513:command_telemetry.c ****                         return FALSE;
 514:command_telemetry.c ****                     }// If we can't find the next ',' character
 515:command_telemetry.c ****                     *next_param_str = '\0';
 516:command_telemetry.c ****                     next_param_str++;
 517:command_telemetry.c ****                     
 518:command_telemetry.c ****                     led_index = atoi(param_str);
 519:command_telemetry.c ****                     
 520:command_telemetry.c ****                     if ((led_index < 0) || (led_index >= NUMBER_OF_WHITE_LEDS))
 521:command_telemetry.c ****                     {
 522:command_telemetry.c ****                         send_alarm_telemetry(ALARM_WARNING, cmd_str_and_param, "invalid led index")
 523:command_telemetry.c ****                         return FALSE;
 524:command_telemetry.c ****                     }
 525:command_telemetry.c ****                     
 526:command_telemetry.c ****                     // ========================================================
 527:command_telemetry.c ****                     // parse led intensity
 528:command_telemetry.c ****                     // ========================================================
 529:command_telemetry.c ****                     if ((param_str = strchr(next_param_str, ':')) == NULL)
 530:command_telemetry.c ****                     {
 531:command_telemetry.c ****                         send_alarm_telemetry(ALARM_WARNING, cmd_str_and_param, "can't parse green f
 532:command_telemetry.c ****                         return FALSE;
 533:command_telemetry.c ****                     }// If we can't find the next ':' character
 534:command_telemetry.c ****                     
 535:command_telemetry.c ****                     led_intensity = atoi(++param_str);     
 536:command_telemetry.c ****                     
 537:command_telemetry.c ****                     // ========================================================
 538:command_telemetry.c ****                     // execute the command
 539:command_telemetry.c ****                     // ========================================================
 540:command_telemetry.c ****                     set_led(led_index, led_intensity);
 541:command_telemetry.c ****                     break;
 542:command_telemetry.c ****                 }// CMD_LED_SET_WHITE
 543:command_telemetry.c ****                 
 544:command_telemetry.c ****                 case CMD_LED_SET_STRIP:
 545:command_telemetry.c ****                 {
 546:command_telemetry.c ****                     if ((param_str = strchr(param_str, ',')) == NULL)
 547:command_telemetry.c ****                     {
 548:command_telemetry.c ****                         send_alarm_telemetry(ALARM_WARNING, cmd_str_and_param, "can't parse LED str
 549:command_telemetry.c ****                         return FALSE;
 550:command_telemetry.c ****                     }// If we can't find the next ',' character
 551:command_telemetry.c ****                     
 552:command_telemetry.c ****                     if ((param_str = strchr(++param_str, ',')) == NULL)
 553:command_telemetry.c ****                     {
ARM GAS  C:\Users\TB1014~1\AppData\Local\Temp\ccPTK8k7.s 			page 21


 554:command_telemetry.c ****                         send_alarm_telemetry(ALARM_WARNING, cmd_str_and_param, "can't parse LED str
 555:command_telemetry.c ****                         return FALSE;
 556:command_telemetry.c ****                     }// If we can't find the next ',' character 
 557:command_telemetry.c ****                     
 558:command_telemetry.c ****                     if ((param_str = strchr(++param_str, ':')) == NULL)
 559:command_telemetry.c ****                     {
 560:command_telemetry.c ****                         send_alarm_telemetry(ALARM_WARNING, cmd_str_and_param, "can't parse LED str
 561:command_telemetry.c ****                         return FALSE;
 562:command_telemetry.c ****                     }// If we can't find the next ':' character
 563:command_telemetry.c ****                     
 564:command_telemetry.c ****                     memset(led_vec, 0, sizeof(led_vec));
 565:command_telemetry.c ****                     
 566:command_telemetry.c ****                     //=========================================================
 567:command_telemetry.c ****                     // left red
 568:command_telemetry.c ****                     //=========================================================
 569:command_telemetry.c ****                     if ((param_str = strchr(++param_str, '\"')) == NULL)
 570:command_telemetry.c ****                     {
 571:command_telemetry.c ****                         send_alarm_telemetry(ALARM_WARNING, cmd_str_and_param, "can't parse LED str
 572:command_telemetry.c ****                         return FALSE;
 573:command_telemetry.c ****                     }// If we can't find the next '"' character
 574:command_telemetry.c ****                     param_str++;  
 575:command_telemetry.c ****                     led_vec[E_LED_LEFT_RED] = atoi(param_str);
 576:command_telemetry.c ****                  
 577:command_telemetry.c ****                     //=========================================================
 578:command_telemetry.c ****                     // left green
 579:command_telemetry.c ****                     //=========================================================
 580:command_telemetry.c ****                     if ((param_str = strchr(param_str, '-')) == NULL)
 581:command_telemetry.c ****                     {
 582:command_telemetry.c ****                         send_alarm_telemetry(ALARM_WARNING, cmd_str_and_param, "can't parse LED str
 583:command_telemetry.c ****                         return FALSE;
 584:command_telemetry.c ****                     }// If we can't find the next '-' character
 585:command_telemetry.c ****                     param_str++;
 586:command_telemetry.c ****                     led_vec[E_LED_LEFT_GREEN] = atoi(param_str);
 587:command_telemetry.c ****                     
 588:command_telemetry.c ****                     //=========================================================
 589:command_telemetry.c ****                     // left blue
 590:command_telemetry.c ****                     //=========================================================
 591:command_telemetry.c ****                     if ((param_str = strchr(param_str, '-')) == NULL)
 592:command_telemetry.c ****                     {
 593:command_telemetry.c ****                         send_alarm_telemetry(ALARM_WARNING, cmd_str_and_param, "can't parse LED str
 594:command_telemetry.c ****                         return FALSE;
 595:command_telemetry.c ****                     }// If we can't find the next '-' character
 596:command_telemetry.c ****                     param_str++;
 597:command_telemetry.c ****                     led_vec[E_LED_LEFT_BLUE] = atoi(param_str);
 598:command_telemetry.c ****                     
 599:command_telemetry.c ****                     //=========================================================
 600:command_telemetry.c ****                     // All whites
 601:command_telemetry.c ****                     //=========================================================                    
 602:command_telemetry.c ****                     for(i = 0; i < NUMBER_OF_WHITE_LEDS; i++)
 603:command_telemetry.c ****                     {
 604:command_telemetry.c ****                         if ((param_str = strchr(param_str, '-')) == NULL)
 605:command_telemetry.c ****                         {
 606:command_telemetry.c ****                             send_alarm_telemetry(ALARM_WARNING, cmd_str_and_param, "can't parse LED
 607:command_telemetry.c ****                             return FALSE;
 608:command_telemetry.c ****                         }// If we can't find the next '-' character
 609:command_telemetry.c ****                         param_str++;
 610:command_telemetry.c ****                         led_vec[i] = atoi(param_str);
ARM GAS  C:\Users\TB1014~1\AppData\Local\Temp\ccPTK8k7.s 			page 22


 611:command_telemetry.c ****                     }// for all the white LEDS
 612:command_telemetry.c ****                     
 613:command_telemetry.c ****                     //=========================================================
 614:command_telemetry.c ****                     // right red
 615:command_telemetry.c ****                     //=========================================================
 616:command_telemetry.c ****                     if ((param_str = strchr(param_str, '-')) == NULL)
 617:command_telemetry.c ****                     {
 618:command_telemetry.c ****                         send_alarm_telemetry(ALARM_WARNING, cmd_str_and_param, "can't parse LED str
 619:command_telemetry.c ****                         return FALSE;
 620:command_telemetry.c ****                     }// If we can't find the next '-' character
 621:command_telemetry.c ****                     param_str++;
 622:command_telemetry.c ****                     led_vec[E_LED_RIGHT_RED] = atoi(param_str);
 623:command_telemetry.c ****                     
 624:command_telemetry.c ****                     //=========================================================
 625:command_telemetry.c ****                     // right green
 626:command_telemetry.c ****                     //=========================================================
 627:command_telemetry.c ****                     if ((param_str = strchr(param_str, '-')) == NULL)
 628:command_telemetry.c ****                     {
 629:command_telemetry.c ****                         send_alarm_telemetry(ALARM_WARNING, cmd_str_and_param, "can't parse LED str
 630:command_telemetry.c ****                         return FALSE;
 631:command_telemetry.c ****                     }// If we can't find the next '-' character
 632:command_telemetry.c ****                     param_str++;
 633:command_telemetry.c ****                     led_vec[E_LED_RIGHT_GREEN] = atoi(param_str);
 634:command_telemetry.c ****                     
 635:command_telemetry.c ****                     //=========================================================
 636:command_telemetry.c ****                     // right blue
 637:command_telemetry.c ****                     //=========================================================
 638:command_telemetry.c ****                     if ((param_str = strchr(param_str, '-')) == NULL)
 639:command_telemetry.c ****                     {
 640:command_telemetry.c ****                         send_alarm_telemetry(ALARM_WARNING, cmd_str_and_param, "can't parse LED str
 641:command_telemetry.c ****                         return FALSE;
 642:command_telemetry.c ****                     }// If we can't find the next '-' character
 643:command_telemetry.c ****                     param_str++;
 644:command_telemetry.c ****                     led_vec[E_LED_RIGHT_BLUE] = atoi(param_str);
 645:command_telemetry.c ****                     
 646:command_telemetry.c ****                     set_led_strip(led_vec);
 647:command_telemetry.c ****                     break;
 648:command_telemetry.c ****                 }// CMD_LED_SET_STRIP
 649:command_telemetry.c ****                 
 650:command_telemetry.c ****                 case CMD_LED_UNKNOWN:
 651:command_telemetry.c ****                 default             :
 652:command_telemetry.c ****                 {
 653:command_telemetry.c ****                     send_alarm_telemetry(ALARM_WARNING, cmd_str_and_param, "unsupported led action"
 654:command_telemetry.c ****                     return FALSE;
 655:command_telemetry.c ****                 }// CMD_LED_UNKNOWN, default
 656:command_telemetry.c ****             }// switch on the led command
 657:command_telemetry.c ****             
 658:command_telemetry.c ****             break;
 659:command_telemetry.c ****         }// CMD_LED
 660:command_telemetry.c ****         
 661:command_telemetry.c ****         case CMD_SENSOR:
 662:command_telemetry.c ****         {
 663:command_telemetry.c ****             if ((param_str = strchr(param_str, ',')) == NULL)
 664:command_telemetry.c ****             {
 665:command_telemetry.c ****                 send_alarm_telemetry(ALARM_WARNING, cmd_str_and_param, "unsupported sensor action")
 666:command_telemetry.c ****                 return FALSE;
 667:command_telemetry.c ****             }// If we can't find the next ',' character
ARM GAS  C:\Users\TB1014~1\AppData\Local\Temp\ccPTK8k7.s 			page 23


 668:command_telemetry.c ****             
 669:command_telemetry.c ****             if ((param_str = strchr(++param_str, ':')) == NULL)
 670:command_telemetry.c ****             {
 671:command_telemetry.c ****                 send_alarm_telemetry(ALARM_WARNING, cmd_str_and_param, "unsupported sensor action")
 672:command_telemetry.c ****                 return FALSE;
 673:command_telemetry.c ****             }// If we can't find the next ':' character
 674:command_telemetry.c ****             param_str++;
 675:command_telemetry.c ****             
 676:command_telemetry.c ****             switch (sensor_cmd_id = get_sensor_cmd_id_from_cmd_string(param_str))
 677:command_telemetry.c ****             {
 678:command_telemetry.c ****                 case CMD_SENSOR_DISABLE:
 679:command_telemetry.c ****                 {
 680:command_telemetry.c ****                     set_is_sensor_telemetry_enable(FALSE);
 681:command_telemetry.c ****                     break;
 682:command_telemetry.c ****                 }// CMD_TRACKER_DISABLE      
 683:command_telemetry.c ****                 
 684:command_telemetry.c ****                 case CMD_SENSOR_ENABLE:
 685:command_telemetry.c ****                 {
 686:command_telemetry.c ****                     set_is_sensor_telemetry_enable(TRUE);
 687:command_telemetry.c ****                     break;
 688:command_telemetry.c ****                 }// CMD_TRACKER_ENABLE
 689:command_telemetry.c ****                 
 690:command_telemetry.c ****                 case CMD_SENSOR_UNKNOWN:
 691:command_telemetry.c ****                 default                 :
 692:command_telemetry.c ****                 {
 693:command_telemetry.c ****                     send_alarm_telemetry(ALARM_WARNING, cmd_str_and_param, "unsupported sensor acti
 694:command_telemetry.c ****                     return FALSE;
 695:command_telemetry.c ****                 }// CMD_TRACKER_UNKNOWN, default
 696:command_telemetry.c ****             }// switch in the tracker action
 697:command_telemetry.c ****             break;
 698:command_telemetry.c ****         }// CMD_SENSOR
 699:command_telemetry.c ****         
 700:command_telemetry.c ****        case CMD_TELEMETRY:
 701:command_telemetry.c ****         {
 702:command_telemetry.c ****             if ((param_str = strchr(param_str, ',')) == NULL)
 703:command_telemetry.c ****             {
 704:command_telemetry.c ****                 send_alarm_telemetry(ALARM_WARNING, cmd_str_and_param, "unsupported telemetry actio
 705:command_telemetry.c ****                 return FALSE;
 706:command_telemetry.c ****             }// If we can't find the next ',' character
 707:command_telemetry.c ****             
 708:command_telemetry.c ****             if ((param_str = strchr(++param_str, ':')) == NULL)
 709:command_telemetry.c ****             {
 710:command_telemetry.c ****                 send_alarm_telemetry(ALARM_WARNING, cmd_str_and_param, "unsupported telemetry actio
 711:command_telemetry.c ****                 return FALSE;
 712:command_telemetry.c ****             }// If we can't find the next ':' character
 713:command_telemetry.c ****             param_str++;
 714:command_telemetry.c ****             
 715:command_telemetry.c ****             switch (telemetry_cmd_id = get_telemetry_cmd_id_from_cmd_string(param_str))
 716:command_telemetry.c ****             {
 717:command_telemetry.c ****                 case CMD_TELEMETRY_DISABLE:
 718:command_telemetry.c ****                 {
 719:command_telemetry.c ****                     set_is_telemetry_enable(FALSE);
 720:command_telemetry.c ****                     break;
 721:command_telemetry.c ****                 }// CMD_TRACKER_DISABLE      
 722:command_telemetry.c ****                 
 723:command_telemetry.c ****                 case CMD_TELEMETRY_ENABLE:
 724:command_telemetry.c ****                 {
ARM GAS  C:\Users\TB1014~1\AppData\Local\Temp\ccPTK8k7.s 			page 24


 725:command_telemetry.c ****                     set_is_telemetry_enable(TRUE);
 726:command_telemetry.c ****                     break;
 727:command_telemetry.c ****                 }// CMD_TRACKER_ENABLE
 728:command_telemetry.c ****                 
 729:command_telemetry.c ****                 case CMD_TELEMETRY_UNKNOWN:
 730:command_telemetry.c ****                 default                   :
 731:command_telemetry.c ****                 {
 732:command_telemetry.c ****                     send_alarm_telemetry(ALARM_WARNING, cmd_str_and_param, "unsupported telemetry a
 733:command_telemetry.c ****                     return FALSE;
 734:command_telemetry.c ****                 }// CMD_TRACKER_UNKNOWN, default
 735:command_telemetry.c ****             }// switch in the tracker action
 736:command_telemetry.c ****             break;
 737:command_telemetry.c ****         }// CMD_TELEMETRY
 738:command_telemetry.c **** 
 739:command_telemetry.c ****         case CMD_TRACKER:
 740:command_telemetry.c ****         {
 741:command_telemetry.c ****             if ((param_str = strchr(param_str, ',')) == NULL)
 742:command_telemetry.c ****             {
 743:command_telemetry.c ****                 send_alarm_telemetry(ALARM_WARNING, cmd_str_and_param, "unsupported tracker action"
 744:command_telemetry.c ****                 return FALSE;
 745:command_telemetry.c ****             }// If we can't find the next ',' character
 746:command_telemetry.c ****             
 747:command_telemetry.c ****             if ((param_str = strchr(++param_str, ':')) == NULL)
 748:command_telemetry.c ****             {
 749:command_telemetry.c ****                 send_alarm_telemetry(ALARM_WARNING, cmd_str_and_param, "unsupported tracker action"
 750:command_telemetry.c ****                 return FALSE;
 751:command_telemetry.c ****             }// If we can't find the next ':' character
 752:command_telemetry.c ****             param_str++;
 753:command_telemetry.c ****             
 754:command_telemetry.c ****             switch (tracker_cmd_id = get_tracker_cmd_id_from_cmd_string(param_str))
 755:command_telemetry.c ****             {
 756:command_telemetry.c ****                 case CMD_TRACKER_DISABLE:
 757:command_telemetry.c ****                 {
 758:command_telemetry.c ****                     set_is_tracker_enable(FALSE);
 759:command_telemetry.c ****                     break;
 760:command_telemetry.c ****                 }// CMD_TRACKER_DISABLE      
 761:command_telemetry.c ****                 
 762:command_telemetry.c ****                 case CMD_TRACKER_ENABLE:
 763:command_telemetry.c ****                 {
 764:command_telemetry.c ****                     set_is_tracker_enable(TRUE);
 765:command_telemetry.c ****                     break;
 766:command_telemetry.c ****                 }// CMD_TRACKER_ENABLE
 767:command_telemetry.c ****                 
 768:command_telemetry.c ****                 case CMD_TRACKER_SET_BUTTON:
 769:command_telemetry.c ****                 {
 770:command_telemetry.c ****                     if ((param_str = strchr(param_str, ',')) == NULL)
 771:command_telemetry.c ****                     {
 772:command_telemetry.c ****                         send_alarm_telemetry(ALARM_WARNING, cmd_str_and_param, "unsupported tracker
 773:command_telemetry.c ****                         return FALSE;
 774:command_telemetry.c ****                     }// If we can't find the next ',' character
 775:command_telemetry.c ****             
 776:command_telemetry.c ****                     if ((param_str = strchr(++param_str, ':')) == NULL)
 777:command_telemetry.c ****                     {
 778:command_telemetry.c ****                         send_alarm_telemetry(ALARM_WARNING, cmd_str_and_param, "unsupported tracker
 779:command_telemetry.c ****                         return FALSE;
 780:command_telemetry.c ****                     }// If we can't find the next ':' character
 781:command_telemetry.c ****                     param_str++;
ARM GAS  C:\Users\TB1014~1\AppData\Local\Temp\ccPTK8k7.s 			page 25


 782:command_telemetry.c ****                     set_number_of_buttons (atoi(param_str));
 783:command_telemetry.c ****                     break;
 784:command_telemetry.c ****                 }// CMD_TRACKER_SET_BUTTON
 785:command_telemetry.c ****                 
 786:command_telemetry.c ****                 case CMD_TRACKER_UNKNOWN:
 787:command_telemetry.c ****                 default                 :
 788:command_telemetry.c ****                 {
 789:command_telemetry.c ****                     send_alarm_telemetry(ALARM_WARNING, cmd_str_and_param, "unsupported tracker act
 790:command_telemetry.c ****                     return FALSE;
 791:command_telemetry.c ****                 }// CMD_TRACKER_UNKNOWN, default
 792:command_telemetry.c ****             }// switch in the tracker action
 793:command_telemetry.c ****             break;
 794:command_telemetry.c ****         }// CMD_TRACKER
 795:command_telemetry.c ****         
 796:command_telemetry.c ****         case CMD_VERSION:
 797:command_telemetry.c ****         {
 798:command_telemetry.c ****             send_alarm_telemetry(ALARM_INFO, "version", get_software_version());
 799:command_telemetry.c ****             break;
 800:command_telemetry.c ****         }// CMD_VERSION
 801:command_telemetry.c ****         
 802:command_telemetry.c ****         case CMD_UNKNOWN:
 803:command_telemetry.c ****         default         :
 804:command_telemetry.c ****         {
 805:command_telemetry.c ****             send_alarm_telemetry(ALARM_WARNING, cmd_str_and_param, "unsupported command");
 806:command_telemetry.c ****             return FALSE;
 807:command_telemetry.c ****         }// default
 808:command_telemetry.c ****     }// switch cmd id
 809:command_telemetry.c ****     
 810:command_telemetry.c ****     return TRUE; // the command succeed 
 811:command_telemetry.c **** }// parse_and_execute_command
 812:command_telemetry.c **** 
 813:command_telemetry.c **** //=============================================================================
 814:command_telemetry.c **** //============================================ send_bootloader_config_telemetry
 815:command_telemetry.c **** //=============================================================================
 816:command_telemetry.c **** void send_bootloader_config_telemetry(void)
 817:command_telemetry.c **** {
 572              		.loc 1 817 0
 573              		.cfi_startproc
 818:command_telemetry.c ****     // FIXME!
 819:command_telemetry.c **** }// send_bootloader_config_telemetry
 574              		.loc 1 819 0
 575              		@ sp needed
 576 0000 7047     		bx	lr
 577              		.cfi_endproc
 578              	.LFE44:
 579              		.size	send_bootloader_config_telemetry, .-send_bootloader_config_telemetry
 580 0002 C046     		.section	.text.get_is_telemetry_enable,"ax",%progbits
 581              		.align	2
 582              		.global	get_is_telemetry_enable
 583              		.code	16
 584              		.thumb_func
 585              		.type	get_is_telemetry_enable, %function
 586              	get_is_telemetry_enable:
 587              	.LFB52:
 820:command_telemetry.c **** 
 821:command_telemetry.c **** //=============================================================================
 822:command_telemetry.c **** //======================================================== send_alarm_telemetry
ARM GAS  C:\Users\TB1014~1\AppData\Local\Temp\ccPTK8k7.s 			page 26


 823:command_telemetry.c **** //=============================================================================
 824:command_telemetry.c **** void send_alarm_telemetry(t_enum_alarm_type alarm_type, const char* source, const char* description
 825:command_telemetry.c **** {
 826:command_telemetry.c ****     const char* alarm_string[ALARM_UNKNOWN] = {"log", "info", "warning", "error", "fatal"};
 827:command_telemetry.c ****  
 828:command_telemetry.c ****     memset(telemetry, '\0', sizeof(telemetry));
 829:command_telemetry.c ****     
 830:command_telemetry.c ****     strcpy(telemetry, "{\"event\":\"alarm\", \"type\":\"");
 831:command_telemetry.c ****     strcat(telemetry, alarm_string[alarm_type]);
 832:command_telemetry.c ****     strcat(telemetry, "\", \"source\":\"");
 833:command_telemetry.c ****     strcat(telemetry, source);
 834:command_telemetry.c ****     strcat(telemetry, "\", \"description\":\"");
 835:command_telemetry.c ****     strcat(telemetry, description);
 836:command_telemetry.c ****     strcat(telemetry, "\"}");
 837:command_telemetry.c ****     
 838:command_telemetry.c ****     send_telemetry(telemetry);
 839:command_telemetry.c **** }// send_alarm_telemetry
 840:command_telemetry.c **** 
 841:command_telemetry.c **** //=============================================================================
 842:command_telemetry.c **** //==================================================== send_animation_telemetry
 843:command_telemetry.c **** //=============================================================================
 844:command_telemetry.c **** void send_animation_telemetry(t_enum_animation animation_index, const char* action)
 845:command_telemetry.c **** {
 846:command_telemetry.c ****     t_struct_animation animation;
 847:command_telemetry.c ****  
 848:command_telemetry.c ****     get_animation(animation_index, &animation);
 849:command_telemetry.c ****     
 850:command_telemetry.c ****     memset(telemetry, '\0', sizeof(telemetry));
 851:command_telemetry.c ****     strcpy(telemetry, "{\"event\":\"animation\", \"name\":\"");
 852:command_telemetry.c ****     strcat(telemetry, animation.description);
 853:command_telemetry.c ****     strcat(telemetry, "\", \"action\":\"");
 854:command_telemetry.c ****     strcat(telemetry, action);
 855:command_telemetry.c ****     strcat(telemetry, "\"}");
 856:command_telemetry.c ****     
 857:command_telemetry.c ****     send_telemetry(telemetry);
 858:command_telemetry.c **** }// send_animation_telemetry
 859:command_telemetry.c **** 
 860:command_telemetry.c **** //=============================================================================
 861:command_telemetry.c **** //===================================================== send_telemetry_capsense
 862:command_telemetry.c **** //=============================================================================
 863:command_telemetry.c **** void send_telemetry_capsense(void)
 864:command_telemetry.c **** {
 865:command_telemetry.c ****     uint16 i;
 866:command_telemetry.c ****     uint16 nb_sensors = CapSense_GET_SENSOR_COUNT(0);
 867:command_telemetry.c ****    
 868:command_telemetry.c ****     for (i = 0; i < nb_sensors; i++)
 869:command_telemetry.c ****     {
 870:command_telemetry.c ****         memset(telemetry, '\0', sizeof(telemetry));
 871:command_telemetry.c ****         strcpy(telemetry, "{\"event\":\"sensor\", \"id\":");
 872:command_telemetry.c ****         strcat(telemetry, itoa(i));
 873:command_telemetry.c ****         strcat(telemetry, ", \"raw\":");
 874:command_telemetry.c ****         strcat(telemetry, itoa(CapSense_dsRam.snsList.linearslider0[i].raw[0]));
 875:command_telemetry.c ****         strcat(telemetry, ", \"baseline\":");
 876:command_telemetry.c ****         strcat(telemetry, itoa(CapSense_dsRam.snsList.linearslider0[i].bsln[0]));
 877:command_telemetry.c ****         strcat(telemetry, ", \"bucket baseline\":");
 878:command_telemetry.c ****         strcat(telemetry, itoa(CapSense_dsRam.snsList.linearslider0[i].bslnExt[0]));
 879:command_telemetry.c ****         strcat(telemetry, ", \"diff\":");
ARM GAS  C:\Users\TB1014~1\AppData\Local\Temp\ccPTK8k7.s 			page 27


 880:command_telemetry.c ****         strcat(telemetry, itoa(CapSense_dsRam.snsList.linearslider0[i].diff));
 881:command_telemetry.c ****         strcat(telemetry, ", \"baseline reset\":");
 882:command_telemetry.c ****         strcat(telemetry, itoa(CapSense_dsRam.snsList.linearslider0[i].negBslnRstCnt[0]));
 883:command_telemetry.c ****         strcat(telemetry, ", \"IDAC\":");
 884:command_telemetry.c ****         strcat(telemetry, itoa(CapSense_dsRam.snsList.linearslider0[i].idacComp[0]));
 885:command_telemetry.c ****         strcat(telemetry, "\"}");
 886:command_telemetry.c ****         send_telemetry(telemetry);
 887:command_telemetry.c ****     }// for all the sensors
 888:command_telemetry.c **** }// send_telemetry_capsense
 889:command_telemetry.c **** 
 890:command_telemetry.c **** //=============================================================================
 891:command_telemetry.c **** //======================================================= send_button_telemetry
 892:command_telemetry.c **** //=============================================================================
 893:command_telemetry.c **** void send_button_telemetry(int button, const char* action, t_enum_direction finger_direct, uint16 a
 894:command_telemetry.c **** {
 895:command_telemetry.c ****     int           nb_touched       =  0;
 896:command_telemetry.c ****     long long int clock_time       = (get_timer_interrrupt_count() << 16) + Timer_1_ReadCounter();
 897:command_telemetry.c ****     char          str_direction[2] = {finger_direct, '\0'};
 898:command_telemetry.c ****     uint16        max_sensor       = 0;
 899:command_telemetry.c ****     char          sensors_vec[64];
 900:command_telemetry.c ****     uint16        i;
 901:command_telemetry.c **** 
 902:command_telemetry.c ****     memset(telemetry  , '\0', sizeof(telemetry  ));
 903:command_telemetry.c ****     memset(sensors_vec, '\0', sizeof(sensors_vec));
 904:command_telemetry.c ****     
 905:command_telemetry.c ****     max_sensor = min(CapSense_GET_SENSOR_COUNT(0), sizeof(sensors_vec) - 1);
 906:command_telemetry.c ****          
 907:command_telemetry.c ****     for (i = 0; i < max_sensor; i++)
 908:command_telemetry.c ****     {
 909:command_telemetry.c ****         if (CapSense_IsSensorActive(0, i))
 910:command_telemetry.c ****         {
 911:command_telemetry.c ****             nb_touched++;
 912:command_telemetry.c ****             sensors_vec[i] = '1';
 913:command_telemetry.c ****         }
 914:command_telemetry.c ****         else
 915:command_telemetry.c ****         {
 916:command_telemetry.c ****              sensors_vec[i] = '0';  
 917:command_telemetry.c ****         }
 918:command_telemetry.c ****     }// for all the sensors;
 919:command_telemetry.c ****     
 920:command_telemetry.c ****     strcpy(telemetry, "{\"event\":\"button\", \"id\":");
 921:command_telemetry.c ****     strcat(telemetry, itoa(button));
 922:command_telemetry.c **** #if USE_ALL_BUTTON_TELE     
 923:command_telemetry.c ****     strcat(telemetry, ", \"sensor count\":");
 924:command_telemetry.c ****     strcat(telemetry, itoa(nb_touched));
 925:command_telemetry.c ****     strcat(telemetry, ", \"clock\":");
 926:command_telemetry.c ****     strcat(telemetry, itoa(clock_time));
 927:command_telemetry.c ****     strcat(telemetry, ", \"direction\":\"");
 928:command_telemetry.c ****     strcat(telemetry, str_direction);
 929:command_telemetry.c ****     strcat(telemetry, "\", \"sensors\":\"");
 930:command_telemetry.c ****     strcat(telemetry, sensors_vec);
 931:command_telemetry.c ****     strcat(telemetry, "\", \"actual raw pos\":");
 932:command_telemetry.c ****     strcat(telemetry, itoa(actual_raw_pos));
 933:command_telemetry.c ****     strcat(telemetry, ", \"previous raw pos\":");
 934:command_telemetry.c ****     strcat(telemetry, itoa(previous_raw_pos));
 935:command_telemetry.c **** #endif //  USE_ALL_BUTTON_TELE   
 936:command_telemetry.c ****     strcat(telemetry, ", \"action\":\"");
ARM GAS  C:\Users\TB1014~1\AppData\Local\Temp\ccPTK8k7.s 			page 28


 937:command_telemetry.c ****     strcat(telemetry, action);
 938:command_telemetry.c ****     strcat(telemetry, "\"}");
 939:command_telemetry.c ****     
 940:command_telemetry.c ****     send_telemetry(telemetry);
 941:command_telemetry.c ****     
 942:command_telemetry.c ****     if (get_is_sensor_telemetry_enable())
 943:command_telemetry.c ****     {
 944:command_telemetry.c ****         send_telemetry_capsense();      
 945:command_telemetry.c ****     }
 946:command_telemetry.c **** }// send_button_telemetry
 947:command_telemetry.c **** 
 948:command_telemetry.c **** //=============================================================================
 949:command_telemetry.c **** //================================================== send_push_button_telemetry
 950:command_telemetry.c **** //=============================================================================
 951:command_telemetry.c **** void send_push_button_telemetry(uint8 capsense_id, char* button_name, BOOL is_button_down)
 952:command_telemetry.c **** {
 953:command_telemetry.c ****     memset(telemetry, '\0', sizeof(telemetry));
 954:command_telemetry.c ****     
 955:command_telemetry.c ****     strcat(telemetry, "{\"event\":\"push button\", \"id\":");
 956:command_telemetry.c ****     strcat(telemetry, itoa(capsense_id));
 957:command_telemetry.c ****     strcat(telemetry, ", \"name\":\"");
 958:command_telemetry.c ****     strcat(telemetry, button_name);
 959:command_telemetry.c ****     strcat(telemetry, "\", \"state\":\"");
 960:command_telemetry.c ****     strcat(telemetry, is_button_down ? "down" : "up"); 
 961:command_telemetry.c ****     strcat(telemetry, "\"}");
 962:command_telemetry.c ****     
 963:command_telemetry.c ****     send_telemetry(telemetry);
 964:command_telemetry.c **** }// send_push_button_telemetry
 965:command_telemetry.c **** 
 966:command_telemetry.c **** //=============================================================================
 967:command_telemetry.c **** //=============================================== send_flash_geometry_telemetry
 968:command_telemetry.c **** //=============================================================================
 969:command_telemetry.c **** void send_flash_geometry_telemetry(uint32 flash_checksum, uint32 flash_first_row, uint32 flash_last
 970:command_telemetry.c **** {
 971:command_telemetry.c ****     memset(telemetry, '\0', sizeof(telemetry));
 972:command_telemetry.c ****     strcpy(telemetry, "{\"event\":\"flash geometry\", \"checksum\":");
 973:command_telemetry.c ****     strcat(telemetry, itoa(flash_checksum));
 974:command_telemetry.c ****     strcat(telemetry, ", \"first row\":");
 975:command_telemetry.c ****     strcat(telemetry, itoa(flash_first_row));
 976:command_telemetry.c ****     strcat(telemetry, ", \"last row\":");
 977:command_telemetry.c ****     strcat(telemetry, itoa(flash_last_row));
 978:command_telemetry.c ****     strcat(telemetry, ", \"size\":");
 979:command_telemetry.c ****     strcat(telemetry, itoa(flash_size));
 980:command_telemetry.c ****     strcat(telemetry, "}");
 981:command_telemetry.c ****     
 982:command_telemetry.c ****     send_telemetry(telemetry);
 983:command_telemetry.c **** }// send_flash_geometry_telemetry
 984:command_telemetry.c **** 
 985:command_telemetry.c **** //=============================================================================
 986:command_telemetry.c **** //============================================================== send_telemetry
 987:command_telemetry.c **** //=============================================================================
 988:command_telemetry.c **** void send_telemetry(const char *telemetry)
 989:command_telemetry.c **** {
 990:command_telemetry.c ****     if (get_is_telemetry_enable())
 991:command_telemetry.c ****     {
 992:command_telemetry.c **** #if USE_UART
 993:command_telemetry.c ****         CapSense_ISR_Disable();
ARM GAS  C:\Users\TB1014~1\AppData\Local\Temp\ccPTK8k7.s 			page 29


 994:command_telemetry.c ****         UART_1_UartPutString(telemetry);
 995:command_telemetry.c ****         CapSense_ISR_Enable();
 996:command_telemetry.c **** #else
 997:command_telemetry.c ****     // FIXME: use I2C
 998:command_telemetry.c **** #endif //USE_UART
 999:command_telemetry.c ****     }// If the telemetry are enable
1000:command_telemetry.c **** }// send_button_telemetry
1001:command_telemetry.c **** 
1002:command_telemetry.c **** //=============================================================================
1003:command_telemetry.c **** //===================================================== get_is_telemetry_enable
1004:command_telemetry.c **** //=============================================================================
1005:command_telemetry.c **** BOOL get_is_telemetry_enable()
1006:command_telemetry.c **** {
 588              		.loc 1 1006 0
 589              		.cfi_startproc
1007:command_telemetry.c ****     return is_telemetry_enable;
 590              		.loc 1 1007 0
 591 0000 014B     		ldr	r3, .L57
 592 0002 1878     		ldrb	r0, [r3]
1008:command_telemetry.c **** }// get_is_telemetry_enable
 593              		.loc 1 1008 0
 594              		@ sp needed
 595 0004 7047     		bx	lr
 596              	.L58:
 597 0006 C046     		.align	2
 598              	.L57:
 599 0008 00000000 		.word	.LANCHOR3
 600              		.cfi_endproc
 601              	.LFE52:
 602              		.size	get_is_telemetry_enable, .-get_is_telemetry_enable
 603              		.section	.text.send_telemetry,"ax",%progbits
 604              		.align	2
 605              		.global	send_telemetry
 606              		.code	16
 607              		.thumb_func
 608              		.type	send_telemetry, %function
 609              	send_telemetry:
 610              	.LFB51:
 989:command_telemetry.c ****     if (get_is_telemetry_enable())
 611              		.loc 1 989 0
 612              		.cfi_startproc
 613              	.LVL71:
 614 0000 10B5     		push	{r4, lr}
 615              		.cfi_def_cfa_offset 8
 616              		.cfi_offset 4, -8
 617              		.cfi_offset 14, -4
 618 0002 041C     		mov	r4, r0
 990:command_telemetry.c ****     {
 619              		.loc 1 990 0
 620 0004 FFF7FEFF 		bl	get_is_telemetry_enable
 621              	.LVL72:
 622 0008 0028     		cmp	r0, #0
 623 000a 06D0     		beq	.L59
 993:command_telemetry.c ****         UART_1_UartPutString(telemetry);
 624              		.loc 1 993 0
 625 000c FFF7FEFF 		bl	CapSense_ISR_Disable
 626              	.LVL73:
ARM GAS  C:\Users\TB1014~1\AppData\Local\Temp\ccPTK8k7.s 			page 30


 994:command_telemetry.c ****         CapSense_ISR_Enable();
 627              		.loc 1 994 0
 628 0010 201C     		mov	r0, r4
 629 0012 FFF7FEFF 		bl	UART_1_UartPutString
 630              	.LVL74:
 995:command_telemetry.c **** #else
 631              		.loc 1 995 0
 632 0016 FFF7FEFF 		bl	CapSense_ISR_Enable
 633              	.LVL75:
 634              	.L59:
1000:command_telemetry.c **** 
 635              		.loc 1 1000 0
 636              		@ sp needed
 637              	.LVL76:
 638 001a 10BD     		pop	{r4, pc}
 639              		.cfi_endproc
 640              	.LFE51:
 641              		.size	send_telemetry, .-send_telemetry
 642              		.section	.text.send_alarm_telemetry,"ax",%progbits
 643              		.align	2
 644              		.global	send_alarm_telemetry
 645              		.code	16
 646              		.thumb_func
 647              		.type	send_alarm_telemetry, %function
 648              	send_alarm_telemetry:
 649              	.LFB45:
 825:command_telemetry.c ****     const char* alarm_string[ALARM_UNKNOWN] = {"log", "info", "warning", "error", "fatal"};
 650              		.loc 1 825 0
 651              		.cfi_startproc
 652              	.LVL77:
 653 0000 F0B5     		push	{r4, r5, r6, r7, lr}
 654              		.cfi_def_cfa_offset 20
 655              		.cfi_offset 4, -20
 656              		.cfi_offset 5, -16
 657              		.cfi_offset 6, -12
 658              		.cfi_offset 7, -8
 659              		.cfi_offset 14, -4
 660 0002 4746     		mov	r7, r8
 661 0004 80B4     		push	{r7}
 662              		.cfi_def_cfa_offset 24
 663              		.cfi_offset 8, -24
 664 0006 88B0     		sub	sp, sp, #32
 665              		.cfi_def_cfa_offset 56
 666 0008 8046     		mov	r8, r0
 667 000a 0E1C     		mov	r6, r1
 668 000c 0192     		str	r2, [sp, #4]
 826:command_telemetry.c ****  
 669              		.loc 1 826 0
 670 000e 03AF     		add	r7, sp, #12
 671 0010 3A1C     		mov	r2, r7
 672              	.LVL78:
 673 0012 234B     		ldr	r3, .L62
 674 0014 5033     		add	r3, r3, #80
 675 0016 13CB     		ldmia	r3!, {r0, r1, r4}
 676 0018 13C2     		stmia	r2!, {r0, r1, r4}
 677              	.LVL79:
 678 001a 11CB     		ldmia	r3!, {r0, r4}
ARM GAS  C:\Users\TB1014~1\AppData\Local\Temp\ccPTK8k7.s 			page 31


 679 001c 11C2     		stmia	r2!, {r0, r4}
 828:command_telemetry.c ****     
 680              		.loc 1 828 0
 681 001e 214C     		ldr	r4, .L62+4
 682 0020 0434     		add	r4, r4, #4
 683 0022 201C     		mov	r0, r4
 684 0024 0021     		mov	r1, #0
 685 0026 8022     		mov	r2, #128
 686 0028 9200     		lsl	r2, r2, #2
 687 002a FFF7FEFF 		bl	memset
 688              	.LVL80:
 830:command_telemetry.c ****     strcat(telemetry, alarm_string[alarm_type]);
 689              		.loc 1 830 0
 690 002e 1E49     		ldr	r1, .L62+8
 691 0030 231C     		mov	r3, r4
 692 0032 0A1C     		mov	r2, r1
 693 0034 23CA     		ldmia	r2!, {r0, r1, r5}
 694 0036 23C3     		stmia	r3!, {r0, r1, r5}
 695 0038 23CA     		ldmia	r2!, {r0, r1, r5}
 696 003a 23C3     		stmia	r3!, {r0, r1, r5}
 697 003c 1188     		ldrh	r1, [r2]
 698 003e 1980     		strh	r1, [r3]
 699 0040 9278     		ldrb	r2, [r2, #2]
 700 0042 9A70     		strb	r2, [r3, #2]
 831:command_telemetry.c ****     strcat(telemetry, "\", \"source\":\"");
 701              		.loc 1 831 0
 702 0044 4346     		mov	r3, r8
 703 0046 9B00     		lsl	r3, r3, #2
 704 0048 D959     		ldr	r1, [r3, r7]
 705 004a 201C     		mov	r0, r4
 706 004c FFF7FEFF 		bl	strcat
 707              	.LVL81:
 832:command_telemetry.c ****     strcat(telemetry, source);
 708              		.loc 1 832 0
 709 0050 201C     		mov	r0, r4
 710 0052 FFF7FEFF 		bl	strlen
 711              	.LVL82:
 712 0056 2018     		add	r0, r4, r0
 713 0058 1449     		ldr	r1, .L62+12
 714 005a 0E22     		mov	r2, #14
 715 005c FFF7FEFF 		bl	memcpy
 716              	.LVL83:
 833:command_telemetry.c ****     strcat(telemetry, "\", \"description\":\"");
 717              		.loc 1 833 0
 718 0060 201C     		mov	r0, r4
 719 0062 311C     		mov	r1, r6
 720 0064 FFF7FEFF 		bl	strcat
 721              	.LVL84:
 834:command_telemetry.c ****     strcat(telemetry, description);
 722              		.loc 1 834 0
 723 0068 201C     		mov	r0, r4
 724 006a FFF7FEFF 		bl	strlen
 725              	.LVL85:
 726 006e 2018     		add	r0, r4, r0
 727 0070 0F49     		ldr	r1, .L62+16
 728 0072 1322     		mov	r2, #19
 729 0074 FFF7FEFF 		bl	memcpy
ARM GAS  C:\Users\TB1014~1\AppData\Local\Temp\ccPTK8k7.s 			page 32


 730              	.LVL86:
 835:command_telemetry.c ****     strcat(telemetry, "\"}");
 731              		.loc 1 835 0
 732 0078 201C     		mov	r0, r4
 733 007a 0199     		ldr	r1, [sp, #4]
 734 007c FFF7FEFF 		bl	strcat
 735              	.LVL87:
 836:command_telemetry.c ****     
 736              		.loc 1 836 0
 737 0080 201C     		mov	r0, r4
 738 0082 FFF7FEFF 		bl	strlen
 739              	.LVL88:
 740 0086 2018     		add	r0, r4, r0
 741 0088 0A49     		ldr	r1, .L62+20
 742 008a 0322     		mov	r2, #3
 743 008c FFF7FEFF 		bl	memcpy
 744              	.LVL89:
 838:command_telemetry.c **** }// send_alarm_telemetry
 745              		.loc 1 838 0
 746 0090 201C     		mov	r0, r4
 747 0092 FFF7FEFF 		bl	send_telemetry
 748              	.LVL90:
 839:command_telemetry.c **** 
 749              		.loc 1 839 0
 750 0096 08B0     		add	sp, sp, #32
 751              		@ sp needed
 752              	.LVL91:
 753 0098 04BC     		pop	{r2}
 754 009a 9046     		mov	r8, r2
 755 009c F0BD     		pop	{r4, r5, r6, r7, pc}
 756              	.L63:
 757 009e C046     		.align	2
 758              	.L62:
 759 00a0 38010000 		.word	.LANCHOR2
 760 00a4 00000000 		.word	.LANCHOR3
 761 00a8 00000000 		.word	.LC17
 762 00ac 1C000000 		.word	.LC19
 763 00b0 2C000000 		.word	.LC21
 764 00b4 40000000 		.word	.LC23
 765              		.cfi_endproc
 766              	.LFE45:
 767              		.size	send_alarm_telemetry, .-send_alarm_telemetry
 768              		.section	.text.send_animation_telemetry,"ax",%progbits
 769              		.align	2
 770              		.global	send_animation_telemetry
 771              		.code	16
 772              		.thumb_func
 773              		.type	send_animation_telemetry, %function
 774              	send_animation_telemetry:
 775              	.LFB46:
 845:command_telemetry.c ****     t_struct_animation animation;
 776              		.loc 1 845 0
 777              		.cfi_startproc
 778              	.LVL92:
 779 0000 70B5     		push	{r4, r5, r6, lr}
 780              		.cfi_def_cfa_offset 16
 781              		.cfi_offset 4, -16
ARM GAS  C:\Users\TB1014~1\AppData\Local\Temp\ccPTK8k7.s 			page 33


 782              		.cfi_offset 5, -12
 783              		.cfi_offset 6, -8
 784              		.cfi_offset 14, -4
 785 0002 84B0     		sub	sp, sp, #16
 786              		.cfi_def_cfa_offset 32
 787 0004 0D1C     		mov	r5, r1
 848:command_telemetry.c ****     
 788              		.loc 1 848 0
 789 0006 01A9     		add	r1, sp, #4
 790              	.LVL93:
 791 0008 FFF7FEFF 		bl	get_animation
 792              	.LVL94:
 850:command_telemetry.c ****     strcpy(telemetry, "{\"event\":\"animation\", \"name\":\"");
 793              		.loc 1 850 0
 794 000c 184C     		ldr	r4, .L65
 795 000e 0434     		add	r4, r4, #4
 796 0010 201C     		mov	r0, r4
 797 0012 0021     		mov	r1, #0
 798 0014 8022     		mov	r2, #128
 799 0016 9200     		lsl	r2, r2, #2
 800 0018 FFF7FEFF 		bl	memset
 801              	.LVL95:
 851:command_telemetry.c ****     strcat(telemetry, animation.description);
 802              		.loc 1 851 0
 803 001c 1549     		ldr	r1, .L65+4
 804 001e 231C     		mov	r3, r4
 805 0020 0A1C     		mov	r2, r1
 806 0022 43CA     		ldmia	r2!, {r0, r1, r6}
 807 0024 43C3     		stmia	r3!, {r0, r1, r6}
 808 0026 43CA     		ldmia	r2!, {r0, r1, r6}
 809 0028 43C3     		stmia	r3!, {r0, r1, r6}
 810 002a 1168     		ldr	r1, [r2]
 811 002c 1960     		str	r1, [r3]
 812 002e 9188     		ldrh	r1, [r2, #4]
 813 0030 9980     		strh	r1, [r3, #4]
 814 0032 9279     		ldrb	r2, [r2, #6]
 815 0034 9A71     		strb	r2, [r3, #6]
 852:command_telemetry.c ****     strcat(telemetry, "\", \"action\":\"");
 816              		.loc 1 852 0
 817 0036 0399     		ldr	r1, [sp, #12]
 818 0038 201C     		mov	r0, r4
 819 003a FFF7FEFF 		bl	strcat
 820              	.LVL96:
 853:command_telemetry.c ****     strcat(telemetry, action);
 821              		.loc 1 853 0
 822 003e 201C     		mov	r0, r4
 823 0040 FFF7FEFF 		bl	strlen
 824              	.LVL97:
 825 0044 2018     		add	r0, r4, r0
 826 0046 0C49     		ldr	r1, .L65+8
 827 0048 0E22     		mov	r2, #14
 828 004a FFF7FEFF 		bl	memcpy
 829              	.LVL98:
 854:command_telemetry.c ****     strcat(telemetry, "\"}");
 830              		.loc 1 854 0
 831 004e 201C     		mov	r0, r4
 832 0050 291C     		mov	r1, r5
ARM GAS  C:\Users\TB1014~1\AppData\Local\Temp\ccPTK8k7.s 			page 34


 833 0052 FFF7FEFF 		bl	strcat
 834              	.LVL99:
 855:command_telemetry.c ****     
 835              		.loc 1 855 0
 836 0056 201C     		mov	r0, r4
 837 0058 FFF7FEFF 		bl	strlen
 838              	.LVL100:
 839 005c 2018     		add	r0, r4, r0
 840 005e 0749     		ldr	r1, .L65+12
 841 0060 0322     		mov	r2, #3
 842 0062 FFF7FEFF 		bl	memcpy
 843              	.LVL101:
 857:command_telemetry.c **** }// send_animation_telemetry
 844              		.loc 1 857 0
 845 0066 201C     		mov	r0, r4
 846 0068 FFF7FEFF 		bl	send_telemetry
 847              	.LVL102:
 858:command_telemetry.c **** 
 848              		.loc 1 858 0
 849 006c 04B0     		add	sp, sp, #16
 850              		@ sp needed
 851              	.LVL103:
 852 006e 70BD     		pop	{r4, r5, r6, pc}
 853              	.L66:
 854              		.align	2
 855              	.L65:
 856 0070 00000000 		.word	.LANCHOR3
 857 0074 44000000 		.word	.LC27
 858 0078 64000000 		.word	.LC29
 859 007c 40000000 		.word	.LC23
 860              		.cfi_endproc
 861              	.LFE46:
 862              		.size	send_animation_telemetry, .-send_animation_telemetry
 863              		.section	.text.send_telemetry_capsense,"ax",%progbits
 864              		.align	2
 865              		.global	send_telemetry_capsense
 866              		.code	16
 867              		.thumb_func
 868              		.type	send_telemetry_capsense, %function
 869              	send_telemetry_capsense:
 870              	.LFB47:
 864:command_telemetry.c ****     uint16 i;
 871              		.loc 1 864 0
 872              		.cfi_startproc
 873 0000 F0B5     		push	{r4, r5, r6, r7, lr}
 874              		.cfi_def_cfa_offset 20
 875              		.cfi_offset 4, -20
 876              		.cfi_offset 5, -16
 877              		.cfi_offset 6, -12
 878              		.cfi_offset 7, -8
 879              		.cfi_offset 14, -4
 880 0002 5746     		mov	r7, r10
 881 0004 4E46     		mov	r6, r9
 882 0006 4546     		mov	r5, r8
 883 0008 E0B4     		push	{r5, r6, r7}
 884              		.cfi_def_cfa_offset 32
 885              		.cfi_offset 8, -32
ARM GAS  C:\Users\TB1014~1\AppData\Local\Temp\ccPTK8k7.s 			page 35


 886              		.cfi_offset 9, -28
 887              		.cfi_offset 10, -24
 866:command_telemetry.c ****    
 888              		.loc 1 866 0
 889 000a 504B     		ldr	r3, .L70
 890 000c DB8A     		ldrh	r3, [r3, #22]
 891 000e 9846     		mov	r8, r3
 892              	.LVL104:
 868:command_telemetry.c ****     {
 893              		.loc 1 868 0
 894 0010 0026     		mov	r6, #0
 895 0012 93E0     		b	.L68
 896              	.LVL105:
 897              	.L69:
 870:command_telemetry.c ****         strcpy(telemetry, "{\"event\":\"sensor\", \"id\":");
 898              		.loc 1 870 0 discriminator 3
 899 0014 4E4C     		ldr	r4, .L70+4
 900 0016 0434     		add	r4, r4, #4
 901 0018 201C     		mov	r0, r4
 902 001a 0021     		mov	r1, #0
 903 001c 8022     		mov	r2, #128
 904 001e 9200     		lsl	r2, r2, #2
 905 0020 FFF7FEFF 		bl	memset
 906              	.LVL106:
 871:command_telemetry.c ****         strcat(telemetry, itoa(i));
 907              		.loc 1 871 0 discriminator 3
 908 0024 4B49     		ldr	r1, .L70+8
 909 0026 231C     		mov	r3, r4
 910 0028 0A1C     		mov	r2, r1
 911 002a 23CA     		ldmia	r2!, {r0, r1, r5}
 912 002c 23C3     		stmia	r3!, {r0, r1, r5}
 913 002e 23CA     		ldmia	r2!, {r0, r1, r5}
 914 0030 23C3     		stmia	r3!, {r0, r1, r5}
 915 0032 1278     		ldrb	r2, [r2]
 916 0034 1A70     		strb	r2, [r3]
 872:command_telemetry.c ****         strcat(telemetry, ", \"raw\":");
 917              		.loc 1 872 0 discriminator 3
 918 0036 301C     		mov	r0, r6
 919 0038 0021     		mov	r1, #0
 920 003a FFF7FEFF 		bl	itoa
 921              	.LVL107:
 922 003e 011C     		mov	r1, r0
 923 0040 201C     		mov	r0, r4
 924 0042 FFF7FEFF 		bl	strcat
 925              	.LVL108:
 873:command_telemetry.c ****         strcat(telemetry, itoa(CapSense_dsRam.snsList.linearslider0[i].raw[0]));
 926              		.loc 1 873 0 discriminator 3
 927 0046 201C     		mov	r0, r4
 928 0048 FFF7FEFF 		bl	strlen
 929              	.LVL109:
 930 004c 2018     		add	r0, r4, r0
 931 004e 4249     		ldr	r1, .L70+12
 932 0050 0922     		mov	r2, #9
 933 0052 FFF7FEFF 		bl	memcpy
 934              	.LVL110:
 874:command_telemetry.c ****         strcat(telemetry, ", \"baseline\":");
 935              		.loc 1 874 0 discriminator 3
ARM GAS  C:\Users\TB1014~1\AppData\Local\Temp\ccPTK8k7.s 			page 36


 936 0056 414B     		ldr	r3, .L70+16
 937 0058 9946     		mov	r9, r3
 938 005a B500     		lsl	r5, r6, #2
 939 005c AF19     		add	r7, r5, r6
 940 005e 7F00     		lsl	r7, r7, #1
 941 0060 4F44     		add	r7, r7, r9
 942 0062 B023     		mov	r3, #176
 943 0064 9A46     		mov	r10, r3
 944 0066 BA44     		add	r10, r10, r7
 945 0068 5346     		mov	r3, r10
 946 006a 5888     		ldrh	r0, [r3, #2]
 947 006c 0021     		mov	r1, #0
 948 006e FFF7FEFF 		bl	itoa
 949              	.LVL111:
 950 0072 011C     		mov	r1, r0
 951 0074 201C     		mov	r0, r4
 952 0076 FFF7FEFF 		bl	strcat
 953              	.LVL112:
 875:command_telemetry.c ****         strcat(telemetry, itoa(CapSense_dsRam.snsList.linearslider0[i].bsln[0]));
 954              		.loc 1 875 0 discriminator 3
 955 007a 201C     		mov	r0, r4
 956 007c FFF7FEFF 		bl	strlen
 957              	.LVL113:
 958 0080 2018     		add	r0, r4, r0
 959 0082 3749     		ldr	r1, .L70+20
 960 0084 0E22     		mov	r2, #14
 961 0086 FFF7FEFF 		bl	memcpy
 962              	.LVL114:
 876:command_telemetry.c ****         strcat(telemetry, ", \"bucket baseline\":");
 963              		.loc 1 876 0 discriminator 3
 964 008a 5346     		mov	r3, r10
 965 008c 9888     		ldrh	r0, [r3, #4]
 966 008e 0021     		mov	r1, #0
 967 0090 FFF7FEFF 		bl	itoa
 968              	.LVL115:
 969 0094 011C     		mov	r1, r0
 970 0096 201C     		mov	r0, r4
 971 0098 FFF7FEFF 		bl	strcat
 972              	.LVL116:
 877:command_telemetry.c ****         strcat(telemetry, itoa(CapSense_dsRam.snsList.linearslider0[i].bslnExt[0]));
 973              		.loc 1 877 0 discriminator 3
 974 009c 201C     		mov	r0, r4
 975 009e FFF7FEFF 		bl	strlen
 976              	.LVL117:
 977 00a2 2018     		add	r0, r4, r0
 978 00a4 2F49     		ldr	r1, .L70+24
 979 00a6 1522     		mov	r2, #21
 980 00a8 FFF7FEFF 		bl	memcpy
 981              	.LVL118:
 878:command_telemetry.c ****         strcat(telemetry, ", \"diff\":");
 982              		.loc 1 878 0 discriminator 3
 983 00ac 5346     		mov	r3, r10
 984 00ae 9879     		ldrb	r0, [r3, #6]
 985 00b0 0021     		mov	r1, #0
 986 00b2 FFF7FEFF 		bl	itoa
 987              	.LVL119:
 988 00b6 011C     		mov	r1, r0
ARM GAS  C:\Users\TB1014~1\AppData\Local\Temp\ccPTK8k7.s 			page 37


 989 00b8 201C     		mov	r0, r4
 990 00ba FFF7FEFF 		bl	strcat
 991              	.LVL120:
 879:command_telemetry.c ****         strcat(telemetry, itoa(CapSense_dsRam.snsList.linearslider0[i].diff));
 992              		.loc 1 879 0 discriminator 3
 993 00be 201C     		mov	r0, r4
 994 00c0 FFF7FEFF 		bl	strlen
 995              	.LVL121:
 996 00c4 2018     		add	r0, r4, r0
 997 00c6 2849     		ldr	r1, .L70+28
 998 00c8 0A22     		mov	r2, #10
 999 00ca FFF7FEFF 		bl	memcpy
 1000              	.LVL122:
 880:command_telemetry.c ****         strcat(telemetry, ", \"baseline reset\":");
 1001              		.loc 1 880 0 discriminator 3
 1002 00ce 5346     		mov	r3, r10
 1003 00d0 1889     		ldrh	r0, [r3, #8]
 1004 00d2 0021     		mov	r1, #0
 1005 00d4 FFF7FEFF 		bl	itoa
 1006              	.LVL123:
 1007 00d8 011C     		mov	r1, r0
 1008 00da 201C     		mov	r0, r4
 1009 00dc FFF7FEFF 		bl	strcat
 1010              	.LVL124:
 881:command_telemetry.c ****         strcat(telemetry, itoa(CapSense_dsRam.snsList.linearslider0[i].negBslnRstCnt[0]));
 1011              		.loc 1 881 0 discriminator 3
 1012 00e0 201C     		mov	r0, r4
 1013 00e2 FFF7FEFF 		bl	strlen
 1014              	.LVL125:
 1015 00e6 2018     		add	r0, r4, r0
 1016 00e8 2049     		ldr	r1, .L70+32
 1017 00ea 1422     		mov	r2, #20
 1018 00ec FFF7FEFF 		bl	memcpy
 1019              	.LVL126:
 882:command_telemetry.c ****         strcat(telemetry, ", \"IDAC\":");
 1020              		.loc 1 882 0 discriminator 3
 1021 00f0 B837     		add	r7, r7, #184
 1022 00f2 B878     		ldrb	r0, [r7, #2]
 1023 00f4 0021     		mov	r1, #0
 1024 00f6 FFF7FEFF 		bl	itoa
 1025              	.LVL127:
 1026 00fa 011C     		mov	r1, r0
 1027 00fc 201C     		mov	r0, r4
 1028 00fe FFF7FEFF 		bl	strcat
 1029              	.LVL128:
 883:command_telemetry.c ****         strcat(telemetry, itoa(CapSense_dsRam.snsList.linearslider0[i].idacComp[0]));
 1030              		.loc 1 883 0 discriminator 3
 1031 0102 201C     		mov	r0, r4
 1032 0104 FFF7FEFF 		bl	strlen
 1033              	.LVL129:
 1034 0108 2018     		add	r0, r4, r0
 1035 010a 1949     		ldr	r1, .L70+36
 1036 010c 0A22     		mov	r2, #10
 1037 010e FFF7FEFF 		bl	memcpy
 1038              	.LVL130:
 884:command_telemetry.c ****         strcat(telemetry, "\"}");
 1039              		.loc 1 884 0 discriminator 3
ARM GAS  C:\Users\TB1014~1\AppData\Local\Temp\ccPTK8k7.s 			page 38


 1040 0112 F878     		ldrb	r0, [r7, #3]
 1041 0114 0021     		mov	r1, #0
 1042 0116 FFF7FEFF 		bl	itoa
 1043              	.LVL131:
 1044 011a 011C     		mov	r1, r0
 1045 011c 201C     		mov	r0, r4
 1046 011e FFF7FEFF 		bl	strcat
 1047              	.LVL132:
 885:command_telemetry.c ****         send_telemetry(telemetry);
 1048              		.loc 1 885 0 discriminator 3
 1049 0122 201C     		mov	r0, r4
 1050 0124 FFF7FEFF 		bl	strlen
 1051              	.LVL133:
 1052 0128 2018     		add	r0, r4, r0
 1053 012a 1249     		ldr	r1, .L70+40
 1054 012c 0322     		mov	r2, #3
 1055 012e FFF7FEFF 		bl	memcpy
 1056              	.LVL134:
 886:command_telemetry.c ****     }// for all the sensors
 1057              		.loc 1 886 0 discriminator 3
 1058 0132 201C     		mov	r0, r4
 1059 0134 FFF7FEFF 		bl	send_telemetry
 1060              	.LVL135:
 868:command_telemetry.c ****     {
 1061              		.loc 1 868 0 discriminator 3
 1062 0138 0136     		add	r6, r6, #1
 1063              	.LVL136:
 1064 013a B6B2     		uxth	r6, r6
 1065              	.LVL137:
 1066              	.L68:
 868:command_telemetry.c ****     {
 1067              		.loc 1 868 0 is_stmt 0 discriminator 1
 1068 013c 4645     		cmp	r6, r8
 1069 013e 00D2     		bcs	.LCB1057
 1070 0140 68E7     		b	.L69	@long jump
 1071              	.LCB1057:
 888:command_telemetry.c **** 
 1072              		.loc 1 888 0 is_stmt 1
 1073              		@ sp needed
 1074              	.LVL138:
 1075              	.LVL139:
 1076 0142 1CBC     		pop	{r2, r3, r4}
 1077 0144 9046     		mov	r8, r2
 1078 0146 9946     		mov	r9, r3
 1079 0148 A246     		mov	r10, r4
 1080 014a F0BD     		pop	{r4, r5, r6, r7, pc}
 1081              	.L71:
 1082              		.align	2
 1083              	.L70:
 1084 014c 00000000 		.word	CapSense_dsFlash
 1085 0150 00000000 		.word	.LANCHOR3
 1086 0154 74000000 		.word	.LC35
 1087 0158 90000000 		.word	.LC37
 1088 015c 00000000 		.word	CapSense_dsRam
 1089 0160 9C000000 		.word	.LC40
 1090 0164 AC000000 		.word	.LC42
 1091 0168 C4000000 		.word	.LC44
ARM GAS  C:\Users\TB1014~1\AppData\Local\Temp\ccPTK8k7.s 			page 39


 1092 016c D0000000 		.word	.LC46
 1093 0170 E4000000 		.word	.LC48
 1094 0174 40000000 		.word	.LC23
 1095              		.cfi_endproc
 1096              	.LFE47:
 1097              		.size	send_telemetry_capsense, .-send_telemetry_capsense
 1098              		.section	.text.send_push_button_telemetry,"ax",%progbits
 1099              		.align	2
 1100              		.global	send_push_button_telemetry
 1101              		.code	16
 1102              		.thumb_func
 1103              		.type	send_push_button_telemetry, %function
 1104              	send_push_button_telemetry:
 1105              	.LFB49:
 952:command_telemetry.c ****     memset(telemetry, '\0', sizeof(telemetry));
 1106              		.loc 1 952 0
 1107              		.cfi_startproc
 1108              	.LVL140:
 1109 0000 F8B5     		push	{r3, r4, r5, r6, r7, lr}
 1110              		.cfi_def_cfa_offset 24
 1111              		.cfi_offset 3, -24
 1112              		.cfi_offset 4, -20
 1113              		.cfi_offset 5, -16
 1114              		.cfi_offset 6, -12
 1115              		.cfi_offset 7, -8
 1116              		.cfi_offset 14, -4
 1117 0002 071C     		mov	r7, r0
 1118 0004 0D1C     		mov	r5, r1
 1119 0006 161C     		mov	r6, r2
 953:command_telemetry.c ****     
 1120              		.loc 1 953 0
 1121 0008 204C     		ldr	r4, .L75
 1122 000a 0434     		add	r4, r4, #4
 1123 000c 201C     		mov	r0, r4
 1124              	.LVL141:
 1125 000e 0021     		mov	r1, #0
 1126              	.LVL142:
 1127 0010 8022     		mov	r2, #128
 1128              	.LVL143:
 1129 0012 9200     		lsl	r2, r2, #2
 1130 0014 FFF7FEFF 		bl	memset
 1131              	.LVL144:
 955:command_telemetry.c ****     strcat(telemetry, itoa(capsense_id));
 1132              		.loc 1 955 0
 1133 0018 201C     		mov	r0, r4
 1134 001a FFF7FEFF 		bl	strlen
 1135              	.LVL145:
 1136 001e 2018     		add	r0, r4, r0
 1137 0020 1B49     		ldr	r1, .L75+4
 1138 0022 1E22     		mov	r2, #30
 1139 0024 FFF7FEFF 		bl	memcpy
 1140              	.LVL146:
 956:command_telemetry.c ****     strcat(telemetry, ", \"name\":\"");
 1141              		.loc 1 956 0
 1142 0028 381C     		mov	r0, r7
 1143 002a 0021     		mov	r1, #0
 1144 002c FFF7FEFF 		bl	itoa
ARM GAS  C:\Users\TB1014~1\AppData\Local\Temp\ccPTK8k7.s 			page 40


 1145              	.LVL147:
 1146 0030 011C     		mov	r1, r0
 1147 0032 201C     		mov	r0, r4
 1148 0034 FFF7FEFF 		bl	strcat
 1149              	.LVL148:
 957:command_telemetry.c ****     strcat(telemetry, button_name);
 1150              		.loc 1 957 0
 1151 0038 201C     		mov	r0, r4
 1152 003a FFF7FEFF 		bl	strlen
 1153              	.LVL149:
 1154 003e 2018     		add	r0, r4, r0
 1155 0040 1449     		ldr	r1, .L75+8
 1156 0042 0B22     		mov	r2, #11
 1157 0044 FFF7FEFF 		bl	memcpy
 1158              	.LVL150:
 958:command_telemetry.c ****     strcat(telemetry, "\", \"state\":\"");
 1159              		.loc 1 958 0
 1160 0048 201C     		mov	r0, r4
 1161 004a 291C     		mov	r1, r5
 1162 004c FFF7FEFF 		bl	strcat
 1163              	.LVL151:
 959:command_telemetry.c ****     strcat(telemetry, is_button_down ? "down" : "up"); 
 1164              		.loc 1 959 0
 1165 0050 201C     		mov	r0, r4
 1166 0052 FFF7FEFF 		bl	strlen
 1167              	.LVL152:
 1168 0056 2018     		add	r0, r4, r0
 1169 0058 0F49     		ldr	r1, .L75+12
 1170 005a 0D22     		mov	r2, #13
 1171 005c FFF7FEFF 		bl	memcpy
 1172              	.LVL153:
 960:command_telemetry.c ****     strcat(telemetry, "\"}");
 1173              		.loc 1 960 0
 1174 0060 002E     		cmp	r6, #0
 1175 0062 01D0     		beq	.L74
 1176 0064 0D49     		ldr	r1, .L75+16
 1177 0066 00E0     		b	.L73
 1178              	.L74:
 1179 0068 0D49     		ldr	r1, .L75+20
 1180              	.L73:
 960:command_telemetry.c ****     strcat(telemetry, "\"}");
 1181              		.loc 1 960 0 is_stmt 0 discriminator 4
 1182 006a 084C     		ldr	r4, .L75
 1183 006c 0434     		add	r4, r4, #4
 1184 006e 201C     		mov	r0, r4
 1185 0070 FFF7FEFF 		bl	strcat
 1186              	.LVL154:
 961:command_telemetry.c ****     
 1187              		.loc 1 961 0 is_stmt 1 discriminator 4
 1188 0074 201C     		mov	r0, r4
 1189 0076 FFF7FEFF 		bl	strlen
 1190              	.LVL155:
 1191 007a 2018     		add	r0, r4, r0
 1192 007c 0949     		ldr	r1, .L75+24
 1193 007e 0322     		mov	r2, #3
 1194 0080 FFF7FEFF 		bl	memcpy
 1195              	.LVL156:
ARM GAS  C:\Users\TB1014~1\AppData\Local\Temp\ccPTK8k7.s 			page 41


 963:command_telemetry.c **** }// send_push_button_telemetry
 1196              		.loc 1 963 0 discriminator 4
 1197 0084 201C     		mov	r0, r4
 1198 0086 FFF7FEFF 		bl	send_telemetry
 1199              	.LVL157:
 964:command_telemetry.c **** 
 1200              		.loc 1 964 0 discriminator 4
 1201              		@ sp needed
 1202              	.LVL158:
 1203 008a F8BD     		pop	{r3, r4, r5, r6, r7, pc}
 1204              	.L76:
 1205              		.align	2
 1206              	.L75:
 1207 008c 00000000 		.word	.LANCHOR3
 1208 0090 FC000000 		.word	.LC57
 1209 0094 1C010000 		.word	.LC59
 1210 0098 28010000 		.word	.LC61
 1211 009c F0000000 		.word	.LC52
 1212 00a0 F8000000 		.word	.LC54
 1213 00a4 40000000 		.word	.LC23
 1214              		.cfi_endproc
 1215              	.LFE49:
 1216              		.size	send_push_button_telemetry, .-send_push_button_telemetry
 1217              		.section	.text.send_flash_geometry_telemetry,"ax",%progbits
 1218              		.align	2
 1219              		.global	send_flash_geometry_telemetry
 1220              		.code	16
 1221              		.thumb_func
 1222              		.type	send_flash_geometry_telemetry, %function
 1223              	send_flash_geometry_telemetry:
 1224              	.LFB50:
 970:command_telemetry.c ****     memset(telemetry, '\0', sizeof(telemetry));
 1225              		.loc 1 970 0
 1226              		.cfi_startproc
 1227              	.LVL159:
 1228 0000 F0B5     		push	{r4, r5, r6, r7, lr}
 1229              		.cfi_def_cfa_offset 20
 1230              		.cfi_offset 4, -20
 1231              		.cfi_offset 5, -16
 1232              		.cfi_offset 6, -12
 1233              		.cfi_offset 7, -8
 1234              		.cfi_offset 14, -4
 1235 0002 83B0     		sub	sp, sp, #12
 1236              		.cfi_def_cfa_offset 32
 1237 0004 071C     		mov	r7, r0
 1238 0006 0E1C     		mov	r6, r1
 1239 0008 0092     		str	r2, [sp]
 1240 000a 0193     		str	r3, [sp, #4]
 971:command_telemetry.c ****     strcpy(telemetry, "{\"event\":\"flash geometry\", \"checksum\":");
 1241              		.loc 1 971 0
 1242 000c 2C4C     		ldr	r4, .L78
 1243 000e 0434     		add	r4, r4, #4
 1244 0010 201C     		mov	r0, r4
 1245              	.LVL160:
 1246 0012 0021     		mov	r1, #0
 1247              	.LVL161:
 1248 0014 8022     		mov	r2, #128
ARM GAS  C:\Users\TB1014~1\AppData\Local\Temp\ccPTK8k7.s 			page 42


 1249              	.LVL162:
 1250 0016 9200     		lsl	r2, r2, #2
 1251 0018 FFF7FEFF 		bl	memset
 1252              	.LVL163:
 972:command_telemetry.c ****     strcat(telemetry, itoa(flash_checksum));
 1253              		.loc 1 972 0
 1254 001c 2949     		ldr	r1, .L78+4
 1255 001e 231C     		mov	r3, r4
 1256 0020 0A1C     		mov	r2, r1
 1257 0022 23CA     		ldmia	r2!, {r0, r1, r5}
 1258 0024 23C3     		stmia	r3!, {r0, r1, r5}
 1259 0026 23CA     		ldmia	r2!, {r0, r1, r5}
 1260 0028 23C3     		stmia	r3!, {r0, r1, r5}
 1261 002a 23CA     		ldmia	r2!, {r0, r1, r5}
 1262 002c 23C3     		stmia	r3!, {r0, r1, r5}
 1263 002e 1188     		ldrh	r1, [r2]
 1264 0030 1980     		strh	r1, [r3]
 1265 0032 9278     		ldrb	r2, [r2, #2]
 1266 0034 9A70     		strb	r2, [r3, #2]
 973:command_telemetry.c ****     strcat(telemetry, ", \"first row\":");
 1267              		.loc 1 973 0
 1268 0036 381C     		mov	r0, r7
 1269 0038 0021     		mov	r1, #0
 1270 003a FFF7FEFF 		bl	itoa
 1271              	.LVL164:
 1272 003e 011C     		mov	r1, r0
 1273 0040 201C     		mov	r0, r4
 1274 0042 FFF7FEFF 		bl	strcat
 1275              	.LVL165:
 974:command_telemetry.c ****     strcat(telemetry, itoa(flash_first_row));
 1276              		.loc 1 974 0
 1277 0046 201C     		mov	r0, r4
 1278 0048 FFF7FEFF 		bl	strlen
 1279              	.LVL166:
 1280 004c 2018     		add	r0, r4, r0
 1281 004e 1E49     		ldr	r1, .L78+8
 1282 0050 0F22     		mov	r2, #15
 1283 0052 FFF7FEFF 		bl	memcpy
 1284              	.LVL167:
 975:command_telemetry.c ****     strcat(telemetry, ", \"last row\":");
 1285              		.loc 1 975 0
 1286 0056 301C     		mov	r0, r6
 1287 0058 0021     		mov	r1, #0
 1288 005a FFF7FEFF 		bl	itoa
 1289              	.LVL168:
 1290 005e 011C     		mov	r1, r0
 1291 0060 201C     		mov	r0, r4
 1292 0062 FFF7FEFF 		bl	strcat
 1293              	.LVL169:
 976:command_telemetry.c ****     strcat(telemetry, itoa(flash_last_row));
 1294              		.loc 1 976 0
 1295 0066 201C     		mov	r0, r4
 1296 0068 FFF7FEFF 		bl	strlen
 1297              	.LVL170:
 1298 006c 2018     		add	r0, r4, r0
 1299 006e 1749     		ldr	r1, .L78+12
 1300 0070 0E22     		mov	r2, #14
ARM GAS  C:\Users\TB1014~1\AppData\Local\Temp\ccPTK8k7.s 			page 43


 1301 0072 FFF7FEFF 		bl	memcpy
 1302              	.LVL171:
 977:command_telemetry.c ****     strcat(telemetry, ", \"size\":");
 1303              		.loc 1 977 0
 1304 0076 0098     		ldr	r0, [sp]
 1305 0078 0021     		mov	r1, #0
 1306 007a FFF7FEFF 		bl	itoa
 1307              	.LVL172:
 1308 007e 011C     		mov	r1, r0
 1309 0080 201C     		mov	r0, r4
 1310 0082 FFF7FEFF 		bl	strcat
 1311              	.LVL173:
 978:command_telemetry.c ****     strcat(telemetry, itoa(flash_size));
 1312              		.loc 1 978 0
 1313 0086 201C     		mov	r0, r4
 1314 0088 FFF7FEFF 		bl	strlen
 1315              	.LVL174:
 1316 008c 2018     		add	r0, r4, r0
 1317 008e 1049     		ldr	r1, .L78+16
 1318 0090 0A22     		mov	r2, #10
 1319 0092 FFF7FEFF 		bl	memcpy
 1320              	.LVL175:
 979:command_telemetry.c ****     strcat(telemetry, "}");
 1321              		.loc 1 979 0
 1322 0096 0198     		ldr	r0, [sp, #4]
 1323 0098 0021     		mov	r1, #0
 1324 009a FFF7FEFF 		bl	itoa
 1325              	.LVL176:
 1326 009e 011C     		mov	r1, r0
 1327 00a0 201C     		mov	r0, r4
 1328 00a2 FFF7FEFF 		bl	strcat
 1329              	.LVL177:
 980:command_telemetry.c ****     
 1330              		.loc 1 980 0
 1331 00a6 201C     		mov	r0, r4
 1332 00a8 FFF7FEFF 		bl	strlen
 1333              	.LVL178:
 1334 00ac 2018     		add	r0, r4, r0
 1335 00ae 0949     		ldr	r1, .L78+20
 1336 00b0 0222     		mov	r2, #2
 1337 00b2 FFF7FEFF 		bl	memcpy
 1338              	.LVL179:
 982:command_telemetry.c **** }// send_flash_geometry_telemetry
 1339              		.loc 1 982 0
 1340 00b6 201C     		mov	r0, r4
 1341 00b8 FFF7FEFF 		bl	send_telemetry
 1342              	.LVL180:
 983:command_telemetry.c **** 
 1343              		.loc 1 983 0
 1344 00bc 03B0     		add	sp, sp, #12
 1345              	.LVL181:
 1346              		@ sp needed
 1347              	.LVL182:
 1348              	.LVL183:
 1349 00be F0BD     		pop	{r4, r5, r6, r7, pc}
 1350              	.L79:
 1351              		.align	2
ARM GAS  C:\Users\TB1014~1\AppData\Local\Temp\ccPTK8k7.s 			page 44


 1352              	.L78:
 1353 00c0 00000000 		.word	.LANCHOR3
 1354 00c4 38010000 		.word	.LC66
 1355 00c8 60010000 		.word	.LC68
 1356 00cc 70010000 		.word	.LC70
 1357 00d0 80010000 		.word	.LC72
 1358 00d4 8C010000 		.word	.LC74
 1359              		.cfi_endproc
 1360              	.LFE50:
 1361              		.size	send_flash_geometry_telemetry, .-send_flash_geometry_telemetry
 1362              		.section	.text.set_is_telemetry_enable,"ax",%progbits
 1363              		.align	2
 1364              		.global	set_is_telemetry_enable
 1365              		.code	16
 1366              		.thumb_func
 1367              		.type	set_is_telemetry_enable, %function
 1368              	set_is_telemetry_enable:
 1369              	.LFB53:
1009:command_telemetry.c **** 
1010:command_telemetry.c **** //=============================================================================
1011:command_telemetry.c **** //===================================================== set_is_telemetry_enable
1012:command_telemetry.c **** //=============================================================================
1013:command_telemetry.c **** void set_is_telemetry_enable(BOOL the_is_telemetry_enable)
1014:command_telemetry.c **** {
 1370              		.loc 1 1014 0
 1371              		.cfi_startproc
 1372              	.LVL184:
1015:command_telemetry.c ****     is_telemetry_enable = the_is_telemetry_enable;
 1373              		.loc 1 1015 0
 1374 0000 014B     		ldr	r3, .L81
 1375 0002 1870     		strb	r0, [r3]
1016:command_telemetry.c **** }// set_is_telemetry_enable
 1376              		.loc 1 1016 0
 1377              		@ sp needed
 1378 0004 7047     		bx	lr
 1379              	.L82:
 1380 0006 C046     		.align	2
 1381              	.L81:
 1382 0008 00000000 		.word	.LANCHOR3
 1383              		.cfi_endproc
 1384              	.LFE53:
 1385              		.size	set_is_telemetry_enable, .-set_is_telemetry_enable
 1386              		.section	.text.get_is_sensor_telemetry_enable,"ax",%progbits
 1387              		.align	2
 1388              		.global	get_is_sensor_telemetry_enable
 1389              		.code	16
 1390              		.thumb_func
 1391              		.type	get_is_sensor_telemetry_enable, %function
 1392              	get_is_sensor_telemetry_enable:
 1393              	.LFB54:
1017:command_telemetry.c **** 
1018:command_telemetry.c **** //=============================================================================
1019:command_telemetry.c **** //============================================== get_is_sensor_telemetry_enable
1020:command_telemetry.c **** //=============================================================================
1021:command_telemetry.c **** BOOL get_is_sensor_telemetry_enable()
1022:command_telemetry.c **** {
 1394              		.loc 1 1022 0
ARM GAS  C:\Users\TB1014~1\AppData\Local\Temp\ccPTK8k7.s 			page 45


 1395              		.cfi_startproc
1023:command_telemetry.c ****     return is_sensor_telemetry_enable;
 1396              		.loc 1 1023 0
 1397 0000 014B     		ldr	r3, .L84
 1398 0002 1879     		ldrb	r0, [r3, #4]
1024:command_telemetry.c **** }// get_is_sensor_telemetry_enable
 1399              		.loc 1 1024 0
 1400              		@ sp needed
 1401 0004 7047     		bx	lr
 1402              	.L85:
 1403 0006 C046     		.align	2
 1404              	.L84:
 1405 0008 00020000 		.word	.LANCHOR4
 1406              		.cfi_endproc
 1407              	.LFE54:
 1408              		.size	get_is_sensor_telemetry_enable, .-get_is_sensor_telemetry_enable
 1409              		.section	.text.send_button_telemetry,"ax",%progbits
 1410              		.align	2
 1411              		.global	send_button_telemetry
 1412              		.code	16
 1413              		.thumb_func
 1414              		.type	send_button_telemetry, %function
 1415              	send_button_telemetry:
 1416              	.LFB48:
 894:command_telemetry.c ****     int           nb_touched       =  0;
 1417              		.loc 1 894 0
 1418              		.cfi_startproc
 1419              	.LVL185:
 1420 0000 F0B5     		push	{r4, r5, r6, r7, lr}
 1421              		.cfi_def_cfa_offset 20
 1422              		.cfi_offset 4, -20
 1423              		.cfi_offset 5, -16
 1424              		.cfi_offset 6, -12
 1425              		.cfi_offset 7, -8
 1426              		.cfi_offset 14, -4
 1427 0002 91B0     		sub	sp, sp, #68
 1428              		.cfi_def_cfa_offset 88
 1429 0004 051C     		mov	r5, r0
 1430 0006 0E1C     		mov	r6, r1
 1431              	.LVL186:
 896:command_telemetry.c ****     char          str_direction[2] = {finger_direct, '\0'};
 1432              		.loc 1 896 0
 1433 0008 FFF7FEFF 		bl	get_timer_interrrupt_count
 1434              	.LVL187:
 1435 000c FFF7FEFF 		bl	Timer_1_ReadCounter
 1436              	.LVL188:
 902:command_telemetry.c ****     memset(sensors_vec, '\0', sizeof(sensors_vec));
 1437              		.loc 1 902 0
 1438 0010 2B48     		ldr	r0, .L93
 1439 0012 0430     		add	r0, r0, #4
 1440 0014 0021     		mov	r1, #0
 1441 0016 8022     		mov	r2, #128
 1442 0018 9200     		lsl	r2, r2, #2
 1443 001a FFF7FEFF 		bl	memset
 1444              	.LVL189:
 903:command_telemetry.c ****     
 1445              		.loc 1 903 0
ARM GAS  C:\Users\TB1014~1\AppData\Local\Temp\ccPTK8k7.s 			page 46


 1446 001e 6846     		mov	r0, sp
 1447 0020 0021     		mov	r1, #0
 1448 0022 4022     		mov	r2, #64
 1449 0024 FFF7FEFF 		bl	memset
 1450              	.LVL190:
 905:command_telemetry.c ****          
 1451              		.loc 1 905 0
 1452 0028 264B     		ldr	r3, .L93+4
 1453 002a DB8A     		ldrh	r3, [r3, #22]
 1454 002c 1F1C     		add	r7, r3, #0
 1455 002e 3F2B     		cmp	r3, #63
 1456 0030 00D9     		bls	.L87
 1457 0032 3F27     		mov	r7, #63
 1458              	.L87:
 1459 0034 BFB2     		uxth	r7, r7
 1460              	.LVL191:
 907:command_telemetry.c ****     {
 1461              		.loc 1 907 0
 1462 0036 0024     		mov	r4, #0
 1463 0038 0EE0     		b	.L88
 1464              	.LVL192:
 1465              	.L91:
 909:command_telemetry.c ****         {
 1466              		.loc 1 909 0
 1467 003a 0020     		mov	r0, #0
 1468 003c 211C     		mov	r1, r4
 1469 003e FFF7FEFF 		bl	CapSense_IsSensorActive
 1470              	.LVL193:
 1471 0042 0028     		cmp	r0, #0
 1472 0044 03D0     		beq	.L89
 912:command_telemetry.c ****         }
 1473              		.loc 1 912 0
 1474 0046 3123     		mov	r3, #49
 1475 0048 6A46     		mov	r2, sp
 1476 004a 1355     		strb	r3, [r2, r4]
 1477 004c 02E0     		b	.L90
 1478              	.L89:
 916:command_telemetry.c ****         }
 1479              		.loc 1 916 0
 1480 004e 3023     		mov	r3, #48
 1481 0050 6A46     		mov	r2, sp
 1482 0052 1355     		strb	r3, [r2, r4]
 1483              	.L90:
 907:command_telemetry.c ****     {
 1484              		.loc 1 907 0 discriminator 2
 1485 0054 0134     		add	r4, r4, #1
 1486              	.LVL194:
 1487 0056 A4B2     		uxth	r4, r4
 1488              	.LVL195:
 1489              	.L88:
 907:command_telemetry.c ****     {
 1490              		.loc 1 907 0 is_stmt 0 discriminator 1
 1491 0058 BC42     		cmp	r4, r7
 1492 005a EED3     		bcc	.L91
 920:command_telemetry.c ****     strcat(telemetry, itoa(button));
 1493              		.loc 1 920 0 is_stmt 1
 1494 005c 184C     		ldr	r4, .L93
ARM GAS  C:\Users\TB1014~1\AppData\Local\Temp\ccPTK8k7.s 			page 47


 1495              	.LVL196:
 1496 005e 0434     		add	r4, r4, #4
 1497 0060 1949     		ldr	r1, .L93+8
 1498 0062 231C     		mov	r3, r4
 1499 0064 0A1C     		mov	r2, r1
 1500 0066 83CA     		ldmia	r2!, {r0, r1, r7}
 1501 0068 83C3     		stmia	r3!, {r0, r1, r7}
 1502              	.LVL197:
 1503 006a 83CA     		ldmia	r2!, {r0, r1, r7}
 1504 006c 83C3     		stmia	r3!, {r0, r1, r7}
 1505 006e 1278     		ldrb	r2, [r2]
 1506 0070 1A70     		strb	r2, [r3]
 921:command_telemetry.c **** #if USE_ALL_BUTTON_TELE     
 1507              		.loc 1 921 0
 1508 0072 E917     		asr	r1, r5, #31
 1509 0074 281C     		mov	r0, r5
 1510 0076 FFF7FEFF 		bl	itoa
 1511              	.LVL198:
 1512 007a 011C     		mov	r1, r0
 1513 007c 201C     		mov	r0, r4
 1514 007e FFF7FEFF 		bl	strcat
 1515              	.LVL199:
 936:command_telemetry.c ****     strcat(telemetry, action);
 1516              		.loc 1 936 0
 1517 0082 201C     		mov	r0, r4
 1518 0084 FFF7FEFF 		bl	strlen
 1519              	.LVL200:
 1520 0088 2018     		add	r0, r4, r0
 1521 008a 1049     		ldr	r1, .L93+12
 1522 008c 0D22     		mov	r2, #13
 1523 008e FFF7FEFF 		bl	memcpy
 1524              	.LVL201:
 937:command_telemetry.c ****     strcat(telemetry, "\"}");
 1525              		.loc 1 937 0
 1526 0092 201C     		mov	r0, r4
 1527 0094 311C     		mov	r1, r6
 1528 0096 FFF7FEFF 		bl	strcat
 1529              	.LVL202:
 938:command_telemetry.c ****     
 1530              		.loc 1 938 0
 1531 009a 201C     		mov	r0, r4
 1532 009c FFF7FEFF 		bl	strlen
 1533              	.LVL203:
 1534 00a0 2018     		add	r0, r4, r0
 1535 00a2 0B49     		ldr	r1, .L93+16
 1536 00a4 0322     		mov	r2, #3
 1537 00a6 FFF7FEFF 		bl	memcpy
 1538              	.LVL204:
 940:command_telemetry.c ****     
 1539              		.loc 1 940 0
 1540 00aa 201C     		mov	r0, r4
 1541 00ac FFF7FEFF 		bl	send_telemetry
 1542              	.LVL205:
 942:command_telemetry.c ****     {
 1543              		.loc 1 942 0
 1544 00b0 FFF7FEFF 		bl	get_is_sensor_telemetry_enable
 1545              	.LVL206:
ARM GAS  C:\Users\TB1014~1\AppData\Local\Temp\ccPTK8k7.s 			page 48


 1546 00b4 0028     		cmp	r0, #0
 1547 00b6 01D0     		beq	.L86
 944:command_telemetry.c ****     }
 1548              		.loc 1 944 0
 1549 00b8 FFF7FEFF 		bl	send_telemetry_capsense
 1550              	.LVL207:
 1551              	.L86:
 946:command_telemetry.c **** 
 1552              		.loc 1 946 0
 1553 00bc 11B0     		add	sp, sp, #68
 1554              		@ sp needed
 1555              	.LVL208:
 1556              	.LVL209:
 1557 00be F0BD     		pop	{r4, r5, r6, r7, pc}
 1558              	.L94:
 1559              		.align	2
 1560              	.L93:
 1561 00c0 00000000 		.word	.LANCHOR3
 1562 00c4 00000000 		.word	CapSense_dsFlash
 1563 00c8 90010000 		.word	.LC81
 1564 00cc AC010000 		.word	.LC83
 1565 00d0 40000000 		.word	.LC23
 1566              		.cfi_endproc
 1567              	.LFE48:
 1568              		.size	send_button_telemetry, .-send_button_telemetry
 1569              		.section	.text.set_is_sensor_telemetry_enable,"ax",%progbits
 1570              		.align	2
 1571              		.global	set_is_sensor_telemetry_enable
 1572              		.code	16
 1573              		.thumb_func
 1574              		.type	set_is_sensor_telemetry_enable, %function
 1575              	set_is_sensor_telemetry_enable:
 1576              	.LFB55:
1025:command_telemetry.c **** 
1026:command_telemetry.c **** //=============================================================================
1027:command_telemetry.c **** //============================================== set_is_sensor_telemetry_enable
1028:command_telemetry.c **** //=============================================================================
1029:command_telemetry.c **** void set_is_sensor_telemetry_enable(BOOL the_is_sensor_telemetry_enable)
1030:command_telemetry.c **** {
 1577              		.loc 1 1030 0
 1578              		.cfi_startproc
 1579              	.LVL210:
1031:command_telemetry.c ****     is_sensor_telemetry_enable = the_is_sensor_telemetry_enable;
 1580              		.loc 1 1031 0
 1581 0000 014B     		ldr	r3, .L96
 1582 0002 1871     		strb	r0, [r3, #4]
1032:command_telemetry.c **** }// set_is_sensor_telemetry_enable
 1583              		.loc 1 1032 0
 1584              		@ sp needed
 1585 0004 7047     		bx	lr
 1586              	.L97:
 1587 0006 C046     		.align	2
 1588              	.L96:
 1589 0008 00020000 		.word	.LANCHOR4
 1590              		.cfi_endproc
 1591              	.LFE55:
 1592              		.size	set_is_sensor_telemetry_enable, .-set_is_sensor_telemetry_enable
ARM GAS  C:\Users\TB1014~1\AppData\Local\Temp\ccPTK8k7.s 			page 49


 1593              		.section	.text.parse_and_execute_command,"ax",%progbits
 1594              		.align	2
 1595              		.global	parse_and_execute_command
 1596              		.code	16
 1597              		.thumb_func
 1598              		.type	parse_and_execute_command, %function
 1599              	parse_and_execute_command:
 1600              	.LFB43:
 212:command_telemetry.c ****     t_enum_command            cmd_id           = CMD_UNKNOWN;
 1601              		.loc 1 212 0
 1602              		.cfi_startproc
 1603              	.LVL211:
 1604 0000 F0B5     		push	{r4, r5, r6, r7, lr}
 1605              		.cfi_def_cfa_offset 20
 1606              		.cfi_offset 4, -20
 1607              		.cfi_offset 5, -16
 1608              		.cfi_offset 6, -12
 1609              		.cfi_offset 7, -8
 1610              		.cfi_offset 14, -4
 1611 0002 93B0     		sub	sp, sp, #76
 1612              		.cfi_def_cfa_offset 96
 1613 0004 041C     		mov	r4, r0
 1614              	.LVL212:
 221:command_telemetry.c ****     char*                     next_param_str   = NULL; 
 1615              		.loc 1 221 0
 1616 0006 2C21     		mov	r1, #44
 1617 0008 FFF7FEFF 		bl	strchr
 1618              	.LVL213:
 238:command_telemetry.c ****     {
 1619              		.loc 1 238 0
 1620 000c 0028     		cmp	r0, #0
 1621 000e 06D1     		bne	.L99
 240:command_telemetry.c ****         return FALSE;    
 1622              		.loc 1 240 0
 1623 0010 0230     		add	r0, r0, #2
 1624              	.LVL214:
 1625 0012 211C     		mov	r1, r4
 1626 0014 C94A     		ldr	r2, .L185
 1627 0016 FFF7FEFF 		bl	send_alarm_telemetry
 1628              	.LVL215:
 241:command_telemetry.c ****     }// If we can't a comma inside the command
 1629              		.loc 1 241 0
 1630 001a 0020     		mov	r0, #0
 1631 001c 77E3     		b	.L100
 1632              	.LVL216:
 1633              	.L99:
 244:command_telemetry.c ****     
 1634              		.loc 1 244 0
 1635 001e 451C     		add	r5, r0, #1
 1636              	.LVL217:
 1637 0020 FFF7FEFF 		bl	get_cmd_id_from_cmd_string
 1638              	.LVL218:
 246:command_telemetry.c ****     {
 1639              		.loc 1 246 0
 1640 0024 0828     		cmp	r0, #8
 1641 0026 00D9     		bls	.LCB1616
 1642 0028 6BE3     		b	.L101	@long jump
ARM GAS  C:\Users\TB1014~1\AppData\Local\Temp\ccPTK8k7.s 			page 50


 1643              	.LCB1616:
 1644 002a 8000     		lsl	r0, r0, #2
 1645              	.LVL219:
 1646 002c C44B     		ldr	r3, .L185+4
 1647 002e 1B58     		ldr	r3, [r3, r0]
 1648 0030 9F46     		mov	pc, r3
 1649              		.section	.rodata
 1650              		.align	2
 1651              	.L103:
 1652 0000 7E000000 		.word	.L102
 1653 0004 14010000 		.word	.L104
 1654 0008 32000000 		.word	.L105
 1655 000c 94010000 		.word	.L106
 1656 0010 58000000 		.word	.L179
 1657 0014 5A050000 		.word	.L108
 1658 0018 BE050000 		.word	.L109
 1659 001c 22060000 		.word	.L110
 1660 0020 F0060000 		.word	.L111
 1661              		.section	.text.parse_and_execute_command
 1662              	.L105:
 250:command_telemetry.c ****             return FALSE;    
 1663              		.loc 1 250 0
 1664 0032 0220     		mov	r0, #2
 1665 0034 211C     		mov	r1, r4
 1666 0036 C34A     		ldr	r2, .L185+8
 1667 0038 FFF7FEFF 		bl	send_alarm_telemetry
 1668              	.LVL220:
 251:command_telemetry.c ****         }// CMD_CAPSENSE
 1669              		.loc 1 251 0
 1670 003c 0020     		mov	r0, #0
 1671 003e 66E3     		b	.L100
 1672              	.LVL221:
 1673              	.L112:
 258:command_telemetry.c ****             }// for all the commands
 1674              		.loc 1 258 0 discriminator 3
 1675 0040 6300     		lsl	r3, r4, #1
 1676 0042 1B19     		add	r3, r3, r4
 1677 0044 9B00     		lsl	r3, r3, #2
 1678 0046 C04A     		ldr	r2, .L185+12
 1679 0048 D318     		add	r3, r2, r3
 1680 004a 5968     		ldr	r1, [r3, #4]
 1681 004c 9A68     		ldr	r2, [r3, #8]
 1682 004e 0020     		mov	r0, #0
 1683 0050 FFF7FEFF 		bl	send_alarm_telemetry
 1684              	.LVL222:
 256:command_telemetry.c ****             {
 1685              		.loc 1 256 0 discriminator 3
 1686 0054 0134     		add	r4, r4, #1
 1687              	.LVL223:
 1688 0056 00E0     		b	.L107
 1689              	.LVL224:
 1690              	.L179:
 246:command_telemetry.c ****     {
 1691              		.loc 1 246 0
 1692 0058 0024     		mov	r4, #0
 1693              	.LVL225:
 1694              	.L107:
ARM GAS  C:\Users\TB1014~1\AppData\Local\Temp\ccPTK8k7.s 			page 51


 256:command_telemetry.c ****             {
 1695              		.loc 1 256 0 discriminator 1
 1696 005a 082C     		cmp	r4, #8
 1697 005c F0DD     		ble	.L112
 1698 005e 0024     		mov	r4, #0
 1699              	.LVL226:
 1700 0060 09E0     		b	.L113
 1701              	.LVL227:
 1702              	.L114:
 263:command_telemetry.c ****                 send_alarm_telemetry(ALARM_LOG, "animation", animation.description);
 1703              		.loc 1 263 0 discriminator 3
 1704 0062 E0B2     		uxtb	r0, r4
 1705 0064 0FA9     		add	r1, sp, #60
 1706 0066 FFF7FEFF 		bl	get_animation
 1707              	.LVL228:
 264:command_telemetry.c ****             }// for all the commands
 1708              		.loc 1 264 0 discriminator 3
 1709 006a 119A     		ldr	r2, [sp, #68]
 1710 006c 0020     		mov	r0, #0
 1711 006e B749     		ldr	r1, .L185+16
 1712 0070 FFF7FEFF 		bl	send_alarm_telemetry
 1713              	.LVL229:
 261:command_telemetry.c ****             {
 1714              		.loc 1 261 0 discriminator 3
 1715 0074 0134     		add	r4, r4, #1
 1716              	.LVL230:
 1717              	.L113:
 261:command_telemetry.c ****             {
 1718              		.loc 1 261 0 is_stmt 0 discriminator 1
 1719 0076 0D2C     		cmp	r4, #13
 1720 0078 F3DD     		ble	.L114
 810:command_telemetry.c **** }// parse_and_execute_command
 1721              		.loc 1 810 0 is_stmt 1
 1722 007a 0120     		mov	r0, #1
 1723 007c 47E3     		b	.L100
 1724              	.LVL231:
 1725              	.L102:
 272:command_telemetry.c ****             {
 1726              		.loc 1 272 0
 1727 007e 281C     		mov	r0, r5
 1728 0080 2C21     		mov	r1, #44
 1729 0082 FFF7FEFF 		bl	strchr
 1730              	.LVL232:
 1731 0086 0028     		cmp	r0, #0
 1732 0088 06D1     		bne	.L115
 274:command_telemetry.c ****                 return FALSE;
 1733              		.loc 1 274 0
 1734 008a 0230     		add	r0, r0, #2
 1735              	.LVL233:
 1736 008c 211C     		mov	r1, r4
 1737 008e B04A     		ldr	r2, .L185+20
 1738 0090 FFF7FEFF 		bl	send_alarm_telemetry
 1739              	.LVL234:
 275:command_telemetry.c ****             }// If we can't find the next ',' character
 1740              		.loc 1 275 0
 1741 0094 0020     		mov	r0, #0
 1742 0096 3AE3     		b	.L100
ARM GAS  C:\Users\TB1014~1\AppData\Local\Temp\ccPTK8k7.s 			page 52


 1743              	.LVL235:
 1744              	.L115:
 278:command_telemetry.c ****             {
 1745              		.loc 1 278 0
 1746 0098 0130     		add	r0, r0, #1
 1747              	.LVL236:
 1748 009a 3A21     		mov	r1, #58
 1749 009c FFF7FEFF 		bl	strchr
 1750              	.LVL237:
 1751 00a0 0028     		cmp	r0, #0
 1752 00a2 06D1     		bne	.L116
 280:command_telemetry.c ****                 return FALSE;
 1753              		.loc 1 280 0
 1754 00a4 0230     		add	r0, r0, #2
 1755              	.LVL238:
 1756 00a6 211C     		mov	r1, r4
 1757 00a8 A94A     		ldr	r2, .L185+20
 1758 00aa FFF7FEFF 		bl	send_alarm_telemetry
 1759              	.LVL239:
 281:command_telemetry.c ****             }// If we can't find the next ':' character
 1760              		.loc 1 281 0
 1761 00ae 0020     		mov	r0, #0
 1762 00b0 2DE3     		b	.L100
 1763              	.LVL240:
 1764              	.L116:
 283:command_telemetry.c ****             
 1765              		.loc 1 283 0
 1766 00b2 451C     		add	r5, r0, #1
 1767              	.LVL241:
 285:command_telemetry.c ****             {
 1768              		.loc 1 285 0
 1769 00b4 281C     		mov	r0, r5
 1770 00b6 FFF7FEFF 		bl	get_anim_cmd_id_from_cmd_string
 1771              	.LVL242:
 1772 00ba 0128     		cmp	r0, #1
 1773 00bc 0BD0     		beq	.L118
 1774 00be 0028     		cmp	r0, #0
 1775 00c0 04D0     		beq	.L119
 1776 00c2 0228     		cmp	r0, #2
 1777 00c4 0CD0     		beq	.L120
 1778 00c6 0328     		cmp	r0, #3
 1779 00c8 0FD0     		beq	.L121
 1780 00ca 13E0     		b	.L180
 1781              	.L119:
 289:command_telemetry.c ****                     break;
 1782              		.loc 1 289 0
 1783 00cc 0120     		mov	r0, #1
 1784              	.LVL243:
 1785 00ce FFF7FEFF 		bl	set_is_auto_anim_rotation_enable
 1786              	.LVL244:
 810:command_telemetry.c **** }// parse_and_execute_command
 1787              		.loc 1 810 0
 1788 00d2 0120     		mov	r0, #1
 290:command_telemetry.c ****                 }// CMD_ANIM_AUTO
 1789              		.loc 1 290 0
 1790 00d4 1BE3     		b	.L100
 1791              	.LVL245:
ARM GAS  C:\Users\TB1014~1\AppData\Local\Temp\ccPTK8k7.s 			page 53


 1792              	.L118:
 295:command_telemetry.c ****                     break;
 1793              		.loc 1 295 0
 1794 00d6 0020     		mov	r0, #0
 1795              	.LVL246:
 1796 00d8 FFF7FEFF 		bl	set_is_auto_anim_rotation_enable
 1797              	.LVL247:
 810:command_telemetry.c **** }// parse_and_execute_command
 1798              		.loc 1 810 0
 1799 00dc 0120     		mov	r0, #1
 296:command_telemetry.c ****                 }// CMD_ANIM_MANUAL
 1800              		.loc 1 296 0
 1801 00de 16E3     		b	.L100
 1802              	.LVL248:
 1803              	.L120:
 301:command_telemetry.c ****                     break;
 1804              		.loc 1 301 0
 1805 00e0 0020     		mov	r0, #0
 1806              	.LVL249:
 1807 00e2 FFF7FEFF 		bl	set_is_anim_on_button_up_enable
 1808              	.LVL250:
 810:command_telemetry.c **** }// parse_and_execute_command
 1809              		.loc 1 810 0
 1810 00e6 0120     		mov	r0, #1
 302:command_telemetry.c ****                 }// CMD_ANIM_STOP
 1811              		.loc 1 302 0
 1812 00e8 11E3     		b	.L100
 1813              	.LVL251:
 1814              	.L121:
 307:command_telemetry.c ****                     break;
 1815              		.loc 1 307 0
 1816 00ea 0120     		mov	r0, #1
 1817              	.LVL252:
 1818 00ec FFF7FEFF 		bl	set_is_anim_on_button_up_enable
 1819              	.LVL253:
 810:command_telemetry.c **** }// parse_and_execute_command
 1820              		.loc 1 810 0
 1821 00f0 0120     		mov	r0, #1
 308:command_telemetry.c ****                 }// CMD_ANIM_RESUME
 1822              		.loc 1 308 0
 1823 00f2 0CE3     		b	.L100
 1824              	.LVL254:
 1825              	.L180:
 314:command_telemetry.c ****                     {
 1826              		.loc 1 314 0
 1827 00f4 281C     		mov	r0, r5
 1828              	.LVL255:
 1829 00f6 FFF7FEFF 		bl	get_anim_id_from_cmd_string
 1830              	.LVL256:
 1831 00fa 0E28     		cmp	r0, #14
 1832 00fc 03D0     		beq	.L122
 316:command_telemetry.c ****                     }// if we found a valid animation description in the command
 1833              		.loc 1 316 0
 1834 00fe FFF7FEFF 		bl	set_current_callback_anim
 1835              	.LVL257:
 810:command_telemetry.c **** }// parse_and_execute_command
 1836              		.loc 1 810 0
ARM GAS  C:\Users\TB1014~1\AppData\Local\Temp\ccPTK8k7.s 			page 54


 1837 0102 0120     		mov	r0, #1
 323:command_telemetry.c ****                 }// CMD_ANIM_UNKOWN, default
 1838              		.loc 1 323 0
 1839 0104 03E3     		b	.L100
 1840              	.LVL258:
 1841              	.L122:
 320:command_telemetry.c ****                         return FALSE;
 1842              		.loc 1 320 0
 1843 0106 0220     		mov	r0, #2
 1844              	.LVL259:
 1845 0108 211C     		mov	r1, r4
 1846 010a 914A     		ldr	r2, .L185+20
 1847 010c FFF7FEFF 		bl	send_alarm_telemetry
 1848              	.LVL260:
 321:command_telemetry.c ****                     }// else, we couldn't find a valid animation 
 1849              		.loc 1 321 0
 1850 0110 0020     		mov	r0, #0
 1851 0112 FCE2     		b	.L100
 1852              	.LVL261:
 1853              	.L104:
 331:command_telemetry.c ****             {
 1854              		.loc 1 331 0
 1855 0114 281C     		mov	r0, r5
 1856 0116 2C21     		mov	r1, #44
 1857 0118 FFF7FEFF 		bl	strchr
 1858              	.LVL262:
 1859 011c 0028     		cmp	r0, #0
 1860 011e 06D1     		bne	.L123
 333:command_telemetry.c ****                 return FALSE;
 1861              		.loc 1 333 0
 1862 0120 0230     		add	r0, r0, #2
 1863              	.LVL263:
 1864 0122 211C     		mov	r1, r4
 1865 0124 8B4A     		ldr	r2, .L185+24
 1866 0126 FFF7FEFF 		bl	send_alarm_telemetry
 1867              	.LVL264:
 334:command_telemetry.c ****             }// If we can't find the next ',' character
 1868              		.loc 1 334 0
 1869 012a 0020     		mov	r0, #0
 1870 012c EFE2     		b	.L100
 1871              	.LVL265:
 1872              	.L123:
 337:command_telemetry.c ****             {
 1873              		.loc 1 337 0
 1874 012e 0130     		add	r0, r0, #1
 1875              	.LVL266:
 1876 0130 3A21     		mov	r1, #58
 1877 0132 FFF7FEFF 		bl	strchr
 1878              	.LVL267:
 1879 0136 0028     		cmp	r0, #0
 1880 0138 06D1     		bne	.L124
 339:command_telemetry.c ****                 return FALSE;
 1881              		.loc 1 339 0
 1882 013a 0230     		add	r0, r0, #2
 1883              	.LVL268:
 1884 013c 211C     		mov	r1, r4
 1885 013e 854A     		ldr	r2, .L185+24
ARM GAS  C:\Users\TB1014~1\AppData\Local\Temp\ccPTK8k7.s 			page 55


 1886 0140 FFF7FEFF 		bl	send_alarm_telemetry
 1887              	.LVL269:
 340:command_telemetry.c ****             }// If we can't find the next ':' character
 1888              		.loc 1 340 0
 1889 0144 0020     		mov	r0, #0
 1890 0146 E2E2     		b	.L100
 1891              	.LVL270:
 1892              	.L124:
 342:command_telemetry.c ****             
 1893              		.loc 1 342 0
 1894 0148 0130     		add	r0, r0, #1
 1895              	.LVL271:
 344:command_telemetry.c ****             {
 1896              		.loc 1 344 0
 1897 014a FFF7FEFF 		bl	get_boot_cmd_id_from_cmd_string
 1898              	.LVL272:
 1899 014e 0128     		cmp	r0, #1
 1900 0150 0BD0     		beq	.L126
 1901 0152 0028     		cmp	r0, #0
 1902 0154 02D0     		beq	.L127
 1903 0156 0228     		cmp	r0, #2
 1904 0158 0ED0     		beq	.L128
 1905 015a 14E0     		b	.L181
 1906              	.L127:
 353:command_telemetry.c **** #endif // USE_BOOTLOADER  
 1907              		.loc 1 353 0
 1908 015c 0320     		mov	r0, #3
 1909              	.LVL273:
 1910 015e 211C     		mov	r1, r4
 1911 0160 7D4A     		ldr	r2, .L185+28
 1912 0162 FFF7FEFF 		bl	send_alarm_telemetry
 1913              	.LVL274:
 810:command_telemetry.c **** }// parse_and_execute_command
 1914              		.loc 1 810 0
 1915 0166 0120     		mov	r0, #1
 355:command_telemetry.c ****                 }// CMD_BOOT_START      
 1916              		.loc 1 355 0
 1917 0168 D1E2     		b	.L100
 1918              	.LVL275:
 1919              	.L126:
 363:command_telemetry.c **** #endif // USE_BOOTLOADER      
 1920              		.loc 1 363 0
 1921 016a 0320     		mov	r0, #3
 1922              	.LVL276:
 1923 016c 211C     		mov	r1, r4
 1924 016e 7A4A     		ldr	r2, .L185+28
 1925 0170 FFF7FEFF 		bl	send_alarm_telemetry
 1926              	.LVL277:
 810:command_telemetry.c **** }// parse_and_execute_command
 1927              		.loc 1 810 0
 1928 0174 0120     		mov	r0, #1
 365:command_telemetry.c ****                 }// CMD_BOOT_EXIT
 1929              		.loc 1 365 0
 1930 0176 CAE2     		b	.L100
 1931              	.LVL278:
 1932              	.L128:
 377:command_telemetry.c **** #endif // USE_BOOTLOADER  
ARM GAS  C:\Users\TB1014~1\AppData\Local\Temp\ccPTK8k7.s 			page 56


 1933              		.loc 1 377 0
 1934 0178 0320     		mov	r0, #3
 1935              	.LVL279:
 1936 017a 211C     		mov	r1, r4
 1937 017c 764A     		ldr	r2, .L185+28
 1938 017e FFF7FEFF 		bl	send_alarm_telemetry
 1939              	.LVL280:
 810:command_telemetry.c **** }// parse_and_execute_command
 1940              		.loc 1 810 0
 1941 0182 0120     		mov	r0, #1
 379:command_telemetry.c ****                 }// CMD_BOOT_EXIT
 1942              		.loc 1 379 0
 1943 0184 C3E2     		b	.L100
 1944              	.LVL281:
 1945              	.L181:
 385:command_telemetry.c ****                     return FALSE;
 1946              		.loc 1 385 0
 1947 0186 0220     		mov	r0, #2
 1948              	.LVL282:
 1949 0188 211C     		mov	r1, r4
 1950 018a 744A     		ldr	r2, .L185+32
 1951 018c FFF7FEFF 		bl	send_alarm_telemetry
 1952              	.LVL283:
 386:command_telemetry.c ****                 }// CMD_TRACKER_UNKNOWN, default
 1953              		.loc 1 386 0
 1954 0190 0020     		mov	r0, #0
 1955 0192 BCE2     		b	.L100
 1956              	.LVL284:
 1957              	.L106:
 397:command_telemetry.c ****             {
 1958              		.loc 1 397 0
 1959 0194 281C     		mov	r0, r5
 1960 0196 FFF7FEFF 		bl	get_led_cmd_id_from_cmd_string
 1961              	.LVL285:
 1962 019a 061E     		sub	r6, r0, #0
 1963              	.LVL286:
 1964 019c 042E     		cmp	r6, #4
 1965 019e 00D9     		bls	.LCB1958
 1966 01a0 D4E1     		b	.L129	@long jump
 1967              	.LCB1958:
 1968 01a2 8000     		lsl	r0, r0, #2
 1969              	.LVL287:
 1970 01a4 6E4B     		ldr	r3, .L185+36
 1971 01a6 1B58     		ldr	r3, [r3, r0]
 1972 01a8 9F46     		mov	pc, r3
 1973              		.section	.rodata
 1974              		.align	2
 1975              	.L131:
 1976 0024 AA010000 		.word	.L130
 1977 0028 B4010000 		.word	.L132
 1978 002c B4010000 		.word	.L132
 1979 0030 D2020000 		.word	.L133
 1980 0034 C6030000 		.word	.L134
 1981              		.section	.text.parse_and_execute_command
 1982              	.L130:
 401:command_telemetry.c ****                     break;
 1983              		.loc 1 401 0
ARM GAS  C:\Users\TB1014~1\AppData\Local\Temp\ccPTK8k7.s 			page 57


 1984 01aa 0020     		mov	r0, #0
 1985 01ac FFF7FEFF 		bl	set_all_leds_intensity
 1986              	.LVL288:
 810:command_telemetry.c **** }// parse_and_execute_command
 1987              		.loc 1 810 0
 1988 01b0 0120     		mov	r0, #1
 402:command_telemetry.c ****                 }// CMD_LED_CLEAR
 1989              		.loc 1 402 0
 1990 01b2 ACE2     		b	.L100
 1991              	.L132:
 408:command_telemetry.c ****                     {
 1992              		.loc 1 408 0
 1993 01b4 281C     		mov	r0, r5
 1994 01b6 2C21     		mov	r1, #44
 1995 01b8 FFF7FEFF 		bl	strchr
 1996              	.LVL289:
 1997 01bc 0028     		cmp	r0, #0
 1998 01be 06D1     		bne	.L135
 410:command_telemetry.c ****                         return FALSE;
 1999              		.loc 1 410 0
 2000 01c0 0230     		add	r0, r0, #2
 2001              	.LVL290:
 2002 01c2 211C     		mov	r1, r4
 2003 01c4 624A     		ldr	r2, .L185+20
 2004 01c6 FFF7FEFF 		bl	send_alarm_telemetry
 2005              	.LVL291:
 411:command_telemetry.c ****                     }// If we can't find the next ',' character
 2006              		.loc 1 411 0
 2007 01ca 0020     		mov	r0, #0
 2008 01cc 9FE2     		b	.L100
 2009              	.LVL292:
 2010              	.L135:
 414:command_telemetry.c ****                     {
 2011              		.loc 1 414 0
 2012 01ce 0130     		add	r0, r0, #1
 2013              	.LVL293:
 2014 01d0 3A21     		mov	r1, #58
 2015 01d2 FFF7FEFF 		bl	strchr
 2016              	.LVL294:
 2017 01d6 0028     		cmp	r0, #0
 2018 01d8 06D1     		bne	.L136
 416:command_telemetry.c ****                         return FALSE;
 2019              		.loc 1 416 0
 2020 01da 0230     		add	r0, r0, #2
 2021              	.LVL295:
 2022 01dc 211C     		mov	r1, r4
 2023 01de 614A     		ldr	r2, .L185+40
 2024 01e0 FFF7FEFF 		bl	send_alarm_telemetry
 2025              	.LVL296:
 417:command_telemetry.c ****                     }// If we can't find the next ':' character
 2026              		.loc 1 417 0
 2027 01e4 0020     		mov	r0, #0
 2028 01e6 92E2     		b	.L100
 2029              	.LVL297:
 2030              	.L136:
 423:command_telemetry.c ****                     {
 2031              		.loc 1 423 0
ARM GAS  C:\Users\TB1014~1\AppData\Local\Temp\ccPTK8k7.s 			page 58


 2032 01e8 0130     		add	r0, r0, #1
 2033              	.LVL298:
 2034 01ea 3A21     		mov	r1, #58
 2035 01ec FFF7FEFF 		bl	strchr
 2036              	.LVL299:
 2037 01f0 0028     		cmp	r0, #0
 2038 01f2 06D1     		bne	.L137
 425:command_telemetry.c ****                         return FALSE;
 2039              		.loc 1 425 0
 2040 01f4 0230     		add	r0, r0, #2
 2041              	.LVL300:
 2042 01f6 211C     		mov	r1, r4
 2043 01f8 5A4A     		ldr	r2, .L185+40
 2044 01fa FFF7FEFF 		bl	send_alarm_telemetry
 2045              	.LVL301:
 426:command_telemetry.c ****                     }// If we can't find the next ':' character
 2046              		.loc 1 426 0
 2047 01fe 0020     		mov	r0, #0
 2048 0200 85E2     		b	.L100
 2049              	.LVL302:
 2050              	.L137:
 429:command_telemetry.c ****                     {
 2051              		.loc 1 429 0
 2052 0202 451C     		add	r5, r0, #1
 2053              	.LVL303:
 2054 0204 281C     		mov	r0, r5
 2055 0206 2C21     		mov	r1, #44
 2056 0208 FFF7FEFF 		bl	strchr
 2057              	.LVL304:
 2058 020c 0028     		cmp	r0, #0
 2059 020e 06D1     		bne	.L138
 431:command_telemetry.c ****                         return FALSE;
 2060              		.loc 1 431 0
 2061 0210 0230     		add	r0, r0, #2
 2062              	.LVL305:
 2063 0212 211C     		mov	r1, r4
 2064 0214 534A     		ldr	r2, .L185+40
 2065 0216 FFF7FEFF 		bl	send_alarm_telemetry
 2066              	.LVL306:
 432:command_telemetry.c ****                     }// If we can't find the next ',' character
 2067              		.loc 1 432 0
 2068 021a 0020     		mov	r0, #0
 2069 021c 77E2     		b	.L100
 2070              	.LVL307:
 2071              	.L138:
 434:command_telemetry.c ****                     next_param_str++;
 2072              		.loc 1 434 0
 2073 021e 0023     		mov	r3, #0
 2074 0220 0370     		strb	r3, [r0]
 435:command_telemetry.c ****                     
 2075              		.loc 1 435 0
 2076 0222 471C     		add	r7, r0, #1
 2077              	.LVL308:
 437:command_telemetry.c ****                     
 2078              		.loc 1 437 0
 2079 0224 281C     		mov	r0, r5
 2080 0226 FFF7FEFF 		bl	atoi
ARM GAS  C:\Users\TB1014~1\AppData\Local\Temp\ccPTK8k7.s 			page 59


 2081              	.LVL309:
 2082 022a 0190     		str	r0, [sp, #4]
 2083              	.LVL310:
 442:command_telemetry.c ****                     {
 2084              		.loc 1 442 0
 2085 022c 381C     		mov	r0, r7
 2086              	.LVL311:
 2087 022e 3A21     		mov	r1, #58
 2088 0230 FFF7FEFF 		bl	strchr
 2089              	.LVL312:
 2090 0234 0028     		cmp	r0, #0
 2091 0236 06D1     		bne	.L139
 444:command_telemetry.c ****                         return FALSE;
 2092              		.loc 1 444 0
 2093 0238 0230     		add	r0, r0, #2
 2094              	.LVL313:
 2095 023a 211C     		mov	r1, r4
 2096 023c 4A4A     		ldr	r2, .L185+44
 2097 023e FFF7FEFF 		bl	send_alarm_telemetry
 2098              	.LVL314:
 445:command_telemetry.c ****                     }// If we can't find the next ':' character
 2099              		.loc 1 445 0
 2100 0242 0020     		mov	r0, #0
 2101 0244 63E2     		b	.L100
 2102              	.LVL315:
 2103              	.L139:
 448:command_telemetry.c ****                     {
 2104              		.loc 1 448 0
 2105 0246 471C     		add	r7, r0, #1
 2106              	.LVL316:
 2107 0248 381C     		mov	r0, r7
 2108 024a 2C21     		mov	r1, #44
 2109 024c FFF7FEFF 		bl	strchr
 2110              	.LVL317:
 2111 0250 0028     		cmp	r0, #0
 2112 0252 06D1     		bne	.L140
 450:command_telemetry.c ****                         return FALSE;
 2113              		.loc 1 450 0
 2114 0254 0230     		add	r0, r0, #2
 2115              	.LVL318:
 2116 0256 211C     		mov	r1, r4
 2117 0258 444A     		ldr	r2, .L185+48
 2118 025a FFF7FEFF 		bl	send_alarm_telemetry
 2119              	.LVL319:
 451:command_telemetry.c ****                     }// If we can't find the next ',' character
 2120              		.loc 1 451 0
 2121 025e 0020     		mov	r0, #0
 2122 0260 55E2     		b	.L100
 2123              	.LVL320:
 2124              	.L140:
 453:command_telemetry.c ****                     next_param_str++;
 2125              		.loc 1 453 0
 2126 0262 0023     		mov	r3, #0
 2127 0264 0370     		strb	r3, [r0]
 454:command_telemetry.c ****                     
 2128              		.loc 1 454 0
 2129 0266 451C     		add	r5, r0, #1
ARM GAS  C:\Users\TB1014~1\AppData\Local\Temp\ccPTK8k7.s 			page 60


 2130              	.LVL321:
 456:command_telemetry.c ****                     
 2131              		.loc 1 456 0
 2132 0268 381C     		mov	r0, r7
 2133 026a FFF7FEFF 		bl	atoi
 2134              	.LVL322:
 2135 026e 071C     		mov	r7, r0
 2136              	.LVL323:
 461:command_telemetry.c ****                     {
 2137              		.loc 1 461 0
 2138 0270 281C     		mov	r0, r5
 2139              	.LVL324:
 2140 0272 3A21     		mov	r1, #58
 2141 0274 FFF7FEFF 		bl	strchr
 2142              	.LVL325:
 2143 0278 0028     		cmp	r0, #0
 2144 027a 06D1     		bne	.L141
 463:command_telemetry.c ****                         return FALSE;
 2145              		.loc 1 463 0
 2146 027c 0230     		add	r0, r0, #2
 2147              	.LVL326:
 2148 027e 211C     		mov	r1, r4
 2149 0280 394A     		ldr	r2, .L185+44
 2150 0282 FFF7FEFF 		bl	send_alarm_telemetry
 2151              	.LVL327:
 464:command_telemetry.c ****                     }// If we can't find the next ':' character
 2152              		.loc 1 464 0
 2153 0286 0020     		mov	r0, #0
 2154 0288 41E2     		b	.L100
 2155              	.LVL328:
 2156              	.L141:
 467:command_telemetry.c ****                     // ========================================================
 2157              		.loc 1 467 0
 2158 028a 0130     		add	r0, r0, #1
 2159              	.LVL329:
 2160 028c FFF7FEFF 		bl	atoi
 2161              	.LVL330:
 2162 0290 041C     		mov	r4, r0
 2163              	.LVL331:
 471:command_telemetry.c ****                     {
 2164              		.loc 1 471 0
 2165 0292 012E     		cmp	r6, #1
 2166 0294 0ED1     		bne	.L142
 473:command_telemetry.c ****                         set_led(E_LED_LEFT_GREEN,  green);
 2167              		.loc 1 473 0
 2168 0296 6B46     		mov	r3, sp
 2169 0298 9988     		ldrh	r1, [r3, #4]
 2170 029a 1520     		mov	r0, #21
 2171              	.LVL332:
 2172 029c FFF7FEFF 		bl	set_led
 2173              	.LVL333:
 474:command_telemetry.c ****                         set_led(E_LED_LEFT_BLUE ,  blue );
 2174              		.loc 1 474 0
 2175 02a0 B9B2     		uxth	r1, r7
 2176 02a2 1620     		mov	r0, #22
 2177 02a4 FFF7FEFF 		bl	set_led
 2178              	.LVL334:
ARM GAS  C:\Users\TB1014~1\AppData\Local\Temp\ccPTK8k7.s 			page 61


 475:command_telemetry.c ****                     }// if it's the left colored LED
 2179              		.loc 1 475 0
 2180 02a8 A1B2     		uxth	r1, r4
 2181 02aa 1720     		mov	r0, #23
 2182 02ac FFF7FEFF 		bl	set_led
 2183              	.LVL335:
 810:command_telemetry.c **** }// parse_and_execute_command
 2184              		.loc 1 810 0
 2185 02b0 0120     		mov	r0, #1
 2186 02b2 2CE2     		b	.L100
 2187              	.LVL336:
 2188              	.L142:
 479:command_telemetry.c ****                         set_led(E_LED_RIGHT_GREEN,  green);
 2189              		.loc 1 479 0
 2190 02b4 6B46     		mov	r3, sp
 2191 02b6 9988     		ldrh	r1, [r3, #4]
 2192 02b8 1220     		mov	r0, #18
 2193              	.LVL337:
 2194 02ba FFF7FEFF 		bl	set_led
 2195              	.LVL338:
 480:command_telemetry.c ****                         set_led(E_LED_RIGHT_BLUE ,  blue );
 2196              		.loc 1 480 0
 2197 02be B9B2     		uxth	r1, r7
 2198 02c0 1320     		mov	r0, #19
 2199 02c2 FFF7FEFF 		bl	set_led
 2200              	.LVL339:
 481:command_telemetry.c ****                     }// if it's the right colored LED
 2201              		.loc 1 481 0
 2202 02c6 A1B2     		uxth	r1, r4
 2203 02c8 1420     		mov	r0, #20
 2204 02ca FFF7FEFF 		bl	set_led
 2205              	.LVL340:
 810:command_telemetry.c **** }// parse_and_execute_command
 2206              		.loc 1 810 0
 2207 02ce 0120     		mov	r0, #1
 2208 02d0 1DE2     		b	.L100
 2209              	.LVL341:
 2210              	.L133:
 489:command_telemetry.c ****                     {
 2211              		.loc 1 489 0
 2212 02d2 281C     		mov	r0, r5
 2213 02d4 2C21     		mov	r1, #44
 2214 02d6 FFF7FEFF 		bl	strchr
 2215              	.LVL342:
 2216 02da 0028     		cmp	r0, #0
 2217 02dc 06D1     		bne	.L143
 491:command_telemetry.c ****                         return FALSE;
 2218              		.loc 1 491 0
 2219 02de 0230     		add	r0, r0, #2
 2220              	.LVL343:
 2221 02e0 211C     		mov	r1, r4
 2222 02e2 1B4A     		ldr	r2, .L185+20
 2223 02e4 FFF7FEFF 		bl	send_alarm_telemetry
 2224              	.LVL344:
 492:command_telemetry.c ****                     }// If we can't find the next ',' character
 2225              		.loc 1 492 0
 2226 02e8 0020     		mov	r0, #0
ARM GAS  C:\Users\TB1014~1\AppData\Local\Temp\ccPTK8k7.s 			page 62


 2227 02ea 10E2     		b	.L100
 2228              	.LVL345:
 2229              	.L143:
 495:command_telemetry.c ****                     {
 2230              		.loc 1 495 0
 2231 02ec 0130     		add	r0, r0, #1
 2232              	.LVL346:
 2233 02ee 3A21     		mov	r1, #58
 2234 02f0 FFF7FEFF 		bl	strchr
 2235              	.LVL347:
 2236 02f4 0028     		cmp	r0, #0
 2237 02f6 06D1     		bne	.L144
 497:command_telemetry.c ****                         return FALSE;
 2238              		.loc 1 497 0
 2239 02f8 0230     		add	r0, r0, #2
 2240              	.LVL348:
 2241 02fa 211C     		mov	r1, r4
 2242 02fc 1C4A     		ldr	r2, .L185+52
 2243 02fe FFF7FEFF 		bl	send_alarm_telemetry
 2244              	.LVL349:
 498:command_telemetry.c ****                     }// If we can't find the next ':' character
 2245              		.loc 1 498 0
 2246 0302 0020     		mov	r0, #0
 2247 0304 03E2     		b	.L100
 2248              	.LVL350:
 2249              	.L144:
 504:command_telemetry.c ****                     {
 2250              		.loc 1 504 0
 2251 0306 0130     		add	r0, r0, #1
 2252              	.LVL351:
 2253 0308 3A21     		mov	r1, #58
 2254 030a FFF7FEFF 		bl	strchr
 2255              	.LVL352:
 2256 030e 0028     		cmp	r0, #0
 2257 0310 06D1     		bne	.L145
 506:command_telemetry.c ****                         return FALSE;
 2258              		.loc 1 506 0
 2259 0312 0230     		add	r0, r0, #2
 2260              	.LVL353:
 2261 0314 211C     		mov	r1, r4
 2262 0316 174A     		ldr	r2, .L185+56
 2263 0318 FFF7FEFF 		bl	send_alarm_telemetry
 2264              	.LVL354:
 507:command_telemetry.c ****                     }// If we can't find the next ':' character
 2265              		.loc 1 507 0
 2266 031c 0020     		mov	r0, #0
 2267 031e F6E1     		b	.L100
 2268              	.LVL355:
 2269              	.L145:
 510:command_telemetry.c ****                     {
 2270              		.loc 1 510 0
 2271 0320 461C     		add	r6, r0, #1
 2272              	.LVL356:
 2273 0322 301C     		mov	r0, r6
 2274 0324 2C21     		mov	r1, #44
 2275 0326 FFF7FEFF 		bl	strchr
 2276              	.LVL357:
ARM GAS  C:\Users\TB1014~1\AppData\Local\Temp\ccPTK8k7.s 			page 63


 2277 032a 0028     		cmp	r0, #0
 2278 032c 24D1     		bne	.L146
 512:command_telemetry.c ****                         return FALSE;
 2279              		.loc 1 512 0
 2280 032e 0230     		add	r0, r0, #2
 2281              	.LVL358:
 2282 0330 211C     		mov	r1, r4
 2283 0332 104A     		ldr	r2, .L185+56
 2284 0334 FFF7FEFF 		bl	send_alarm_telemetry
 2285              	.LVL359:
 513:command_telemetry.c ****                     }// If we can't find the next ',' character
 2286              		.loc 1 513 0
 2287 0338 0020     		mov	r0, #0
 2288 033a E8E1     		b	.L100
 2289              	.L186:
 2290              		.align	2
 2291              	.L185:
 2292 033c BC010000 		.word	.LC88
 2293 0340 00000000 		.word	.L103
 2294 0344 D8010000 		.word	.LC91
 2295 0348 38000000 		.word	.LANCHOR0
 2296 034c E0010000 		.word	.LC94
 2297 0350 EC010000 		.word	.LC96
 2298 0354 0C020000 		.word	.LC98
 2299 0358 28020000 		.word	.LC100
 2300 035c 40020000 		.word	.LC102
 2301 0360 24000000 		.word	.L131
 2302 0364 60020000 		.word	.LC105
 2303 0368 80020000 		.word	.LC107
 2304 036c A4020000 		.word	.LC109
 2305 0370 C8020000 		.word	.LC111
 2306 0374 E4020000 		.word	.LC113
 2307              	.LVL360:
 2308              	.L146:
 515:command_telemetry.c ****                     next_param_str++;
 2309              		.loc 1 515 0
 2310 0378 0023     		mov	r3, #0
 2311 037a 0370     		strb	r3, [r0]
 516:command_telemetry.c ****                     
 2312              		.loc 1 516 0
 2313 037c 451C     		add	r5, r0, #1
 2314              	.LVL361:
 518:command_telemetry.c ****                     
 2315              		.loc 1 518 0
 2316 037e 301C     		mov	r0, r6
 2317 0380 FFF7FEFF 		bl	atoi
 2318              	.LVL362:
 2319 0384 061E     		sub	r6, r0, #0
 2320              	.LVL363:
 520:command_telemetry.c ****                     {
 2321              		.loc 1 520 0
 2322 0386 0E2E     		cmp	r6, #14
 2323 0388 06D9     		bls	.L147
 522:command_telemetry.c ****                         return FALSE;
 2324              		.loc 1 522 0
 2325 038a 0220     		mov	r0, #2
 2326              	.LVL364:
ARM GAS  C:\Users\TB1014~1\AppData\Local\Temp\ccPTK8k7.s 			page 64


 2327 038c 211C     		mov	r1, r4
 2328 038e D14A     		ldr	r2, .L187
 2329 0390 FFF7FEFF 		bl	send_alarm_telemetry
 2330              	.LVL365:
 523:command_telemetry.c ****                     }
 2331              		.loc 1 523 0
 2332 0394 0020     		mov	r0, #0
 2333 0396 BAE1     		b	.L100
 2334              	.LVL366:
 2335              	.L147:
 529:command_telemetry.c ****                     {
 2336              		.loc 1 529 0
 2337 0398 281C     		mov	r0, r5
 2338              	.LVL367:
 2339 039a 3A21     		mov	r1, #58
 2340 039c FFF7FEFF 		bl	strchr
 2341              	.LVL368:
 2342 03a0 0028     		cmp	r0, #0
 2343 03a2 06D1     		bne	.L148
 531:command_telemetry.c ****                         return FALSE;
 2344              		.loc 1 531 0
 2345 03a4 0230     		add	r0, r0, #2
 2346              	.LVL369:
 2347 03a6 211C     		mov	r1, r4
 2348 03a8 CB4A     		ldr	r2, .L187+4
 2349 03aa FFF7FEFF 		bl	send_alarm_telemetry
 2350              	.LVL370:
 532:command_telemetry.c ****                     }// If we can't find the next ':' character
 2351              		.loc 1 532 0
 2352 03ae 0020     		mov	r0, #0
 2353 03b0 ADE1     		b	.L100
 2354              	.LVL371:
 2355              	.L148:
 535:command_telemetry.c ****                     
 2356              		.loc 1 535 0
 2357 03b2 0130     		add	r0, r0, #1
 2358              	.LVL372:
 2359 03b4 FFF7FEFF 		bl	atoi
 2360              	.LVL373:
 2361 03b8 011C     		mov	r1, r0
 2362              	.LVL374:
 540:command_telemetry.c ****                     break;
 2363              		.loc 1 540 0
 2364 03ba F0B2     		uxtb	r0, r6
 2365              	.LVL375:
 2366 03bc 89B2     		uxth	r1, r1
 2367              	.LVL376:
 2368 03be FFF7FEFF 		bl	set_led
 2369              	.LVL377:
 810:command_telemetry.c **** }// parse_and_execute_command
 2370              		.loc 1 810 0
 2371 03c2 0120     		mov	r0, #1
 541:command_telemetry.c ****                 }// CMD_LED_SET_WHITE
 2372              		.loc 1 541 0
 2373 03c4 A3E1     		b	.L100
 2374              	.LVL378:
 2375              	.L134:
ARM GAS  C:\Users\TB1014~1\AppData\Local\Temp\ccPTK8k7.s 			page 65


 546:command_telemetry.c ****                     {
 2376              		.loc 1 546 0
 2377 03c6 281C     		mov	r0, r5
 2378 03c8 2C21     		mov	r1, #44
 2379 03ca FFF7FEFF 		bl	strchr
 2380              	.LVL379:
 2381 03ce 0028     		cmp	r0, #0
 2382 03d0 06D1     		bne	.L149
 548:command_telemetry.c ****                         return FALSE;
 2383              		.loc 1 548 0
 2384 03d2 0230     		add	r0, r0, #2
 2385              	.LVL380:
 2386 03d4 211C     		mov	r1, r4
 2387 03d6 C14A     		ldr	r2, .L187+8
 2388 03d8 FFF7FEFF 		bl	send_alarm_telemetry
 2389              	.LVL381:
 549:command_telemetry.c ****                     }// If we can't find the next ',' character
 2390              		.loc 1 549 0
 2391 03dc 0020     		mov	r0, #0
 2392 03de 96E1     		b	.L100
 2393              	.LVL382:
 2394              	.L149:
 552:command_telemetry.c ****                     {
 2395              		.loc 1 552 0
 2396 03e0 0130     		add	r0, r0, #1
 2397              	.LVL383:
 2398 03e2 2C21     		mov	r1, #44
 2399 03e4 FFF7FEFF 		bl	strchr
 2400              	.LVL384:
 2401 03e8 0028     		cmp	r0, #0
 2402 03ea 06D1     		bne	.L150
 554:command_telemetry.c ****                         return FALSE;
 2403              		.loc 1 554 0
 2404 03ec 0230     		add	r0, r0, #2
 2405              	.LVL385:
 2406 03ee 211C     		mov	r1, r4
 2407 03f0 BA4A     		ldr	r2, .L187+8
 2408 03f2 FFF7FEFF 		bl	send_alarm_telemetry
 2409              	.LVL386:
 555:command_telemetry.c ****                     }// If we can't find the next ',' character 
 2410              		.loc 1 555 0
 2411 03f6 0020     		mov	r0, #0
 2412 03f8 89E1     		b	.L100
 2413              	.LVL387:
 2414              	.L150:
 558:command_telemetry.c ****                     {
 2415              		.loc 1 558 0
 2416 03fa 0130     		add	r0, r0, #1
 2417              	.LVL388:
 2418 03fc 3A21     		mov	r1, #58
 2419 03fe FFF7FEFF 		bl	strchr
 2420              	.LVL389:
 2421 0402 0028     		cmp	r0, #0
 2422 0404 06D1     		bne	.L151
 560:command_telemetry.c ****                         return FALSE;
 2423              		.loc 1 560 0
 2424 0406 0230     		add	r0, r0, #2
ARM GAS  C:\Users\TB1014~1\AppData\Local\Temp\ccPTK8k7.s 			page 66


 2425              	.LVL390:
 2426 0408 211C     		mov	r1, r4
 2427 040a B44A     		ldr	r2, .L187+8
 2428 040c FFF7FEFF 		bl	send_alarm_telemetry
 2429              	.LVL391:
 561:command_telemetry.c ****                     }// If we can't find the next ':' character
 2430              		.loc 1 561 0
 2431 0410 0020     		mov	r0, #0
 2432 0412 7CE1     		b	.L100
 2433              	.LVL392:
 2434              	.L151:
 564:command_telemetry.c ****                     
 2435              		.loc 1 564 0
 2436 0414 0023     		mov	r3, #0
 2437 0416 0393     		str	r3, [sp, #12]
 2438 0418 0493     		str	r3, [sp, #16]
 2439 041a 0593     		str	r3, [sp, #20]
 2440 041c 0693     		str	r3, [sp, #24]
 2441 041e 0793     		str	r3, [sp, #28]
 2442 0420 0893     		str	r3, [sp, #32]
 2443 0422 0993     		str	r3, [sp, #36]
 2444 0424 0A93     		str	r3, [sp, #40]
 2445 0426 0B93     		str	r3, [sp, #44]
 2446 0428 0C93     		str	r3, [sp, #48]
 2447 042a 0D93     		str	r3, [sp, #52]
 2448 042c 0E93     		str	r3, [sp, #56]
 569:command_telemetry.c ****                     {
 2449              		.loc 1 569 0
 2450 042e 0130     		add	r0, r0, #1
 2451              	.LVL393:
 2452 0430 2221     		mov	r1, #34
 2453 0432 FFF7FEFF 		bl	strchr
 2454              	.LVL394:
 2455 0436 0028     		cmp	r0, #0
 2456 0438 06D1     		bne	.L152
 571:command_telemetry.c ****                         return FALSE;
 2457              		.loc 1 571 0
 2458 043a 0230     		add	r0, r0, #2
 2459              	.LVL395:
 2460 043c 211C     		mov	r1, r4
 2461 043e A74A     		ldr	r2, .L187+8
 2462 0440 FFF7FEFF 		bl	send_alarm_telemetry
 2463              	.LVL396:
 572:command_telemetry.c ****                     }// If we can't find the next '"' character
 2464              		.loc 1 572 0
 2465 0444 0020     		mov	r0, #0
 2466 0446 62E1     		b	.L100
 2467              	.LVL397:
 2468              	.L152:
 574:command_telemetry.c ****                     led_vec[E_LED_LEFT_RED] = atoi(param_str);
 2469              		.loc 1 574 0
 2470 0448 451C     		add	r5, r0, #1
 2471              	.LVL398:
 575:command_telemetry.c ****                  
 2472              		.loc 1 575 0
 2473 044a 281C     		mov	r0, r5
 2474 044c FFF7FEFF 		bl	atoi
ARM GAS  C:\Users\TB1014~1\AppData\Local\Temp\ccPTK8k7.s 			page 67


 2475              	.LVL399:
 2476 0450 03AB     		add	r3, sp, #12
 2477 0452 5885     		strh	r0, [r3, #42]
 580:command_telemetry.c ****                     {
 2478              		.loc 1 580 0
 2479 0454 281C     		mov	r0, r5
 2480 0456 2D21     		mov	r1, #45
 2481 0458 FFF7FEFF 		bl	strchr
 2482              	.LVL400:
 2483 045c 0028     		cmp	r0, #0
 2484 045e 06D1     		bne	.L153
 582:command_telemetry.c ****                         return FALSE;
 2485              		.loc 1 582 0
 2486 0460 0230     		add	r0, r0, #2
 2487              	.LVL401:
 2488 0462 211C     		mov	r1, r4
 2489 0464 9D4A     		ldr	r2, .L187+8
 2490 0466 FFF7FEFF 		bl	send_alarm_telemetry
 2491              	.LVL402:
 583:command_telemetry.c ****                     }// If we can't find the next '-' character
 2492              		.loc 1 583 0
 2493 046a 0020     		mov	r0, #0
 2494 046c 4FE1     		b	.L100
 2495              	.LVL403:
 2496              	.L153:
 585:command_telemetry.c ****                     led_vec[E_LED_LEFT_GREEN] = atoi(param_str);
 2497              		.loc 1 585 0
 2498 046e 451C     		add	r5, r0, #1
 2499              	.LVL404:
 586:command_telemetry.c ****                     
 2500              		.loc 1 586 0
 2501 0470 281C     		mov	r0, r5
 2502 0472 FFF7FEFF 		bl	atoi
 2503              	.LVL405:
 2504 0476 03AB     		add	r3, sp, #12
 2505 0478 9885     		strh	r0, [r3, #44]
 591:command_telemetry.c ****                     {
 2506              		.loc 1 591 0
 2507 047a 281C     		mov	r0, r5
 2508 047c 2D21     		mov	r1, #45
 2509 047e FFF7FEFF 		bl	strchr
 2510              	.LVL406:
 2511 0482 0028     		cmp	r0, #0
 2512 0484 06D1     		bne	.L154
 593:command_telemetry.c ****                         return FALSE;
 2513              		.loc 1 593 0
 2514 0486 0230     		add	r0, r0, #2
 2515              	.LVL407:
 2516 0488 211C     		mov	r1, r4
 2517 048a 944A     		ldr	r2, .L187+8
 2518 048c FFF7FEFF 		bl	send_alarm_telemetry
 2519              	.LVL408:
 594:command_telemetry.c ****                     }// If we can't find the next '-' character
 2520              		.loc 1 594 0
 2521 0490 0020     		mov	r0, #0
 2522 0492 3CE1     		b	.L100
 2523              	.LVL409:
ARM GAS  C:\Users\TB1014~1\AppData\Local\Temp\ccPTK8k7.s 			page 68


 2524              	.L154:
 596:command_telemetry.c ****                     led_vec[E_LED_LEFT_BLUE] = atoi(param_str);
 2525              		.loc 1 596 0
 2526 0494 451C     		add	r5, r0, #1
 2527              	.LVL410:
 597:command_telemetry.c ****                     
 2528              		.loc 1 597 0
 2529 0496 281C     		mov	r0, r5
 2530 0498 FFF7FEFF 		bl	atoi
 2531              	.LVL411:
 2532 049c 03AB     		add	r3, sp, #12
 2533 049e D885     		strh	r0, [r3, #46]
 2534              	.LVL412:
 602:command_telemetry.c ****                     {
 2535              		.loc 1 602 0
 2536 04a0 0026     		mov	r6, #0
 2537 04a2 14E0     		b	.L155
 2538              	.LVL413:
 2539              	.L157:
 604:command_telemetry.c ****                         {
 2540              		.loc 1 604 0
 2541 04a4 281C     		mov	r0, r5
 2542 04a6 2D21     		mov	r1, #45
 2543 04a8 FFF7FEFF 		bl	strchr
 2544              	.LVL414:
 2545 04ac 0028     		cmp	r0, #0
 2546 04ae 06D1     		bne	.L156
 606:command_telemetry.c ****                             return FALSE;
 2547              		.loc 1 606 0
 2548 04b0 0230     		add	r0, r0, #2
 2549              	.LVL415:
 2550 04b2 211C     		mov	r1, r4
 2551 04b4 894A     		ldr	r2, .L187+8
 2552 04b6 FFF7FEFF 		bl	send_alarm_telemetry
 2553              	.LVL416:
 607:command_telemetry.c ****                         }// If we can't find the next '-' character
 2554              		.loc 1 607 0
 2555 04ba 0020     		mov	r0, #0
 2556 04bc 27E1     		b	.L100
 2557              	.LVL417:
 2558              	.L156:
 609:command_telemetry.c ****                         led_vec[i] = atoi(param_str);
 2559              		.loc 1 609 0 discriminator 2
 2560 04be 451C     		add	r5, r0, #1
 2561              	.LVL418:
 610:command_telemetry.c ****                     }// for all the white LEDS
 2562              		.loc 1 610 0 discriminator 2
 2563 04c0 281C     		mov	r0, r5
 2564 04c2 FFF7FEFF 		bl	atoi
 2565              	.LVL419:
 2566 04c6 7200     		lsl	r2, r6, #1
 2567 04c8 03AB     		add	r3, sp, #12
 2568 04ca D052     		strh	r0, [r2, r3]
 602:command_telemetry.c ****                     {
 2569              		.loc 1 602 0 discriminator 2
 2570 04cc 0136     		add	r6, r6, #1
 2571              	.LVL420:
ARM GAS  C:\Users\TB1014~1\AppData\Local\Temp\ccPTK8k7.s 			page 69


 2572              	.L155:
 602:command_telemetry.c ****                     {
 2573              		.loc 1 602 0 is_stmt 0 discriminator 1
 2574 04ce 0E2E     		cmp	r6, #14
 2575 04d0 E8DD     		ble	.L157
 616:command_telemetry.c ****                     {
 2576              		.loc 1 616 0 is_stmt 1
 2577 04d2 281C     		mov	r0, r5
 2578 04d4 2D21     		mov	r1, #45
 2579 04d6 FFF7FEFF 		bl	strchr
 2580              	.LVL421:
 2581 04da 0028     		cmp	r0, #0
 2582 04dc 06D1     		bne	.L158
 618:command_telemetry.c ****                         return FALSE;
 2583              		.loc 1 618 0
 2584 04de 0230     		add	r0, r0, #2
 2585              	.LVL422:
 2586 04e0 211C     		mov	r1, r4
 2587 04e2 7E4A     		ldr	r2, .L187+8
 2588 04e4 FFF7FEFF 		bl	send_alarm_telemetry
 2589              	.LVL423:
 619:command_telemetry.c ****                     }// If we can't find the next '-' character
 2590              		.loc 1 619 0
 2591 04e8 0020     		mov	r0, #0
 2592 04ea 10E1     		b	.L100
 2593              	.LVL424:
 2594              	.L158:
 621:command_telemetry.c ****                     led_vec[E_LED_RIGHT_RED] = atoi(param_str);
 2595              		.loc 1 621 0
 2596 04ec 451C     		add	r5, r0, #1
 2597              	.LVL425:
 622:command_telemetry.c ****                     
 2598              		.loc 1 622 0
 2599 04ee 281C     		mov	r0, r5
 2600 04f0 FFF7FEFF 		bl	atoi
 2601              	.LVL426:
 2602 04f4 03AB     		add	r3, sp, #12
 2603 04f6 9884     		strh	r0, [r3, #36]
 627:command_telemetry.c ****                     {
 2604              		.loc 1 627 0
 2605 04f8 281C     		mov	r0, r5
 2606 04fa 2D21     		mov	r1, #45
 2607 04fc FFF7FEFF 		bl	strchr
 2608              	.LVL427:
 2609 0500 0028     		cmp	r0, #0
 2610 0502 06D1     		bne	.L159
 629:command_telemetry.c ****                         return FALSE;
 2611              		.loc 1 629 0
 2612 0504 0230     		add	r0, r0, #2
 2613              	.LVL428:
 2614 0506 211C     		mov	r1, r4
 2615 0508 744A     		ldr	r2, .L187+8
 2616 050a FFF7FEFF 		bl	send_alarm_telemetry
 2617              	.LVL429:
 630:command_telemetry.c ****                     }// If we can't find the next '-' character
 2618              		.loc 1 630 0
 2619 050e 0020     		mov	r0, #0
ARM GAS  C:\Users\TB1014~1\AppData\Local\Temp\ccPTK8k7.s 			page 70


 2620 0510 FDE0     		b	.L100
 2621              	.LVL430:
 2622              	.L159:
 632:command_telemetry.c ****                     led_vec[E_LED_RIGHT_GREEN] = atoi(param_str);
 2623              		.loc 1 632 0
 2624 0512 451C     		add	r5, r0, #1
 2625              	.LVL431:
 633:command_telemetry.c ****                     
 2626              		.loc 1 633 0
 2627 0514 281C     		mov	r0, r5
 2628 0516 FFF7FEFF 		bl	atoi
 2629              	.LVL432:
 2630 051a 03AB     		add	r3, sp, #12
 2631 051c D884     		strh	r0, [r3, #38]
 638:command_telemetry.c ****                     {
 2632              		.loc 1 638 0
 2633 051e 281C     		mov	r0, r5
 2634 0520 2D21     		mov	r1, #45
 2635 0522 FFF7FEFF 		bl	strchr
 2636              	.LVL433:
 2637 0526 0028     		cmp	r0, #0
 2638 0528 06D1     		bne	.L160
 640:command_telemetry.c ****                         return FALSE;
 2639              		.loc 1 640 0
 2640 052a 0230     		add	r0, r0, #2
 2641              	.LVL434:
 2642 052c 211C     		mov	r1, r4
 2643 052e 6B4A     		ldr	r2, .L187+8
 2644 0530 FFF7FEFF 		bl	send_alarm_telemetry
 2645              	.LVL435:
 641:command_telemetry.c ****                     }// If we can't find the next '-' character
 2646              		.loc 1 641 0
 2647 0534 0020     		mov	r0, #0
 2648 0536 EAE0     		b	.L100
 2649              	.LVL436:
 2650              	.L160:
 643:command_telemetry.c ****                     led_vec[E_LED_RIGHT_BLUE] = atoi(param_str);
 2651              		.loc 1 643 0
 2652 0538 0130     		add	r0, r0, #1
 2653              	.LVL437:
 644:command_telemetry.c ****                     
 2654              		.loc 1 644 0
 2655 053a FFF7FEFF 		bl	atoi
 2656              	.LVL438:
 2657 053e 03AB     		add	r3, sp, #12
 2658 0540 1885     		strh	r0, [r3, #40]
 646:command_telemetry.c ****                     break;
 2659              		.loc 1 646 0
 2660 0542 181C     		mov	r0, r3
 2661 0544 FFF7FEFF 		bl	set_led_strip
 2662              	.LVL439:
 810:command_telemetry.c **** }// parse_and_execute_command
 2663              		.loc 1 810 0
 2664 0548 0120     		mov	r0, #1
 647:command_telemetry.c ****                 }// CMD_LED_SET_STRIP
 2665              		.loc 1 647 0
 2666 054a E0E0     		b	.L100
ARM GAS  C:\Users\TB1014~1\AppData\Local\Temp\ccPTK8k7.s 			page 71


 2667              	.LVL440:
 2668              	.L129:
 653:command_telemetry.c ****                     return FALSE;
 2669              		.loc 1 653 0
 2670 054c 0220     		mov	r0, #2
 2671              	.LVL441:
 2672 054e 211C     		mov	r1, r4
 2673 0550 634A     		ldr	r2, .L187+12
 2674 0552 FFF7FEFF 		bl	send_alarm_telemetry
 2675              	.LVL442:
 654:command_telemetry.c ****                 }// CMD_LED_UNKNOWN, default
 2676              		.loc 1 654 0
 2677 0556 0020     		mov	r0, #0
 2678 0558 D9E0     		b	.L100
 2679              	.LVL443:
 2680              	.L108:
 663:command_telemetry.c ****             {
 2681              		.loc 1 663 0
 2682 055a 281C     		mov	r0, r5
 2683 055c 2C21     		mov	r1, #44
 2684 055e FFF7FEFF 		bl	strchr
 2685              	.LVL444:
 2686 0562 0028     		cmp	r0, #0
 2687 0564 06D1     		bne	.L161
 665:command_telemetry.c ****                 return FALSE;
 2688              		.loc 1 665 0
 2689 0566 0230     		add	r0, r0, #2
 2690              	.LVL445:
 2691 0568 211C     		mov	r1, r4
 2692 056a 5E4A     		ldr	r2, .L187+16
 2693 056c FFF7FEFF 		bl	send_alarm_telemetry
 2694              	.LVL446:
 666:command_telemetry.c ****             }// If we can't find the next ',' character
 2695              		.loc 1 666 0
 2696 0570 0020     		mov	r0, #0
 2697 0572 CCE0     		b	.L100
 2698              	.LVL447:
 2699              	.L161:
 669:command_telemetry.c ****             {
 2700              		.loc 1 669 0
 2701 0574 0130     		add	r0, r0, #1
 2702              	.LVL448:
 2703 0576 3A21     		mov	r1, #58
 2704 0578 FFF7FEFF 		bl	strchr
 2705              	.LVL449:
 2706 057c 0028     		cmp	r0, #0
 2707 057e 06D1     		bne	.L162
 671:command_telemetry.c ****                 return FALSE;
 2708              		.loc 1 671 0
 2709 0580 0230     		add	r0, r0, #2
 2710              	.LVL450:
 2711 0582 211C     		mov	r1, r4
 2712 0584 574A     		ldr	r2, .L187+16
 2713 0586 FFF7FEFF 		bl	send_alarm_telemetry
 2714              	.LVL451:
 672:command_telemetry.c ****             }// If we can't find the next ':' character
 2715              		.loc 1 672 0
ARM GAS  C:\Users\TB1014~1\AppData\Local\Temp\ccPTK8k7.s 			page 72


 2716 058a 0020     		mov	r0, #0
 2717 058c BFE0     		b	.L100
 2718              	.LVL452:
 2719              	.L162:
 674:command_telemetry.c ****             
 2720              		.loc 1 674 0
 2721 058e 0130     		add	r0, r0, #1
 2722              	.LVL453:
 676:command_telemetry.c ****             {
 2723              		.loc 1 676 0
 2724 0590 FFF7FEFF 		bl	get_sensor_cmd_id_from_cmd_string
 2725              	.LVL454:
 2726 0594 0028     		cmp	r0, #0
 2727 0596 06D0     		beq	.L164
 2728 0598 0128     		cmp	r0, #1
 2729 059a 09D1     		bne	.L182
 680:command_telemetry.c ****                     break;
 2730              		.loc 1 680 0
 2731 059c 0020     		mov	r0, #0
 2732              	.LVL455:
 2733 059e FFF7FEFF 		bl	set_is_sensor_telemetry_enable
 2734              	.LVL456:
 810:command_telemetry.c **** }// parse_and_execute_command
 2735              		.loc 1 810 0
 2736 05a2 0120     		mov	r0, #1
 681:command_telemetry.c ****                 }// CMD_TRACKER_DISABLE      
 2737              		.loc 1 681 0
 2738 05a4 B3E0     		b	.L100
 2739              	.LVL457:
 2740              	.L164:
 686:command_telemetry.c ****                     break;
 2741              		.loc 1 686 0
 2742 05a6 0120     		mov	r0, #1
 2743              	.LVL458:
 2744 05a8 FFF7FEFF 		bl	set_is_sensor_telemetry_enable
 2745              	.LVL459:
 810:command_telemetry.c **** }// parse_and_execute_command
 2746              		.loc 1 810 0
 2747 05ac 0120     		mov	r0, #1
 687:command_telemetry.c ****                 }// CMD_TRACKER_ENABLE
 2748              		.loc 1 687 0
 2749 05ae AEE0     		b	.L100
 2750              	.LVL460:
 2751              	.L182:
 693:command_telemetry.c ****                     return FALSE;
 2752              		.loc 1 693 0
 2753 05b0 0220     		mov	r0, #2
 2754              	.LVL461:
 2755 05b2 211C     		mov	r1, r4
 2756 05b4 4B4A     		ldr	r2, .L187+16
 2757 05b6 FFF7FEFF 		bl	send_alarm_telemetry
 2758              	.LVL462:
 694:command_telemetry.c ****                 }// CMD_TRACKER_UNKNOWN, default
 2759              		.loc 1 694 0
 2760 05ba 0020     		mov	r0, #0
 2761 05bc A7E0     		b	.L100
 2762              	.LVL463:
ARM GAS  C:\Users\TB1014~1\AppData\Local\Temp\ccPTK8k7.s 			page 73


 2763              	.L109:
 702:command_telemetry.c ****             {
 2764              		.loc 1 702 0
 2765 05be 281C     		mov	r0, r5
 2766 05c0 2C21     		mov	r1, #44
 2767 05c2 FFF7FEFF 		bl	strchr
 2768              	.LVL464:
 2769 05c6 0028     		cmp	r0, #0
 2770 05c8 06D1     		bne	.L166
 704:command_telemetry.c ****                 return FALSE;
 2771              		.loc 1 704 0
 2772 05ca 0230     		add	r0, r0, #2
 2773              	.LVL465:
 2774 05cc 211C     		mov	r1, r4
 2775 05ce 464A     		ldr	r2, .L187+20
 2776 05d0 FFF7FEFF 		bl	send_alarm_telemetry
 2777              	.LVL466:
 705:command_telemetry.c ****             }// If we can't find the next ',' character
 2778              		.loc 1 705 0
 2779 05d4 0020     		mov	r0, #0
 2780 05d6 9AE0     		b	.L100
 2781              	.LVL467:
 2782              	.L166:
 708:command_telemetry.c ****             {
 2783              		.loc 1 708 0
 2784 05d8 0130     		add	r0, r0, #1
 2785              	.LVL468:
 2786 05da 3A21     		mov	r1, #58
 2787 05dc FFF7FEFF 		bl	strchr
 2788              	.LVL469:
 2789 05e0 0028     		cmp	r0, #0
 2790 05e2 06D1     		bne	.L167
 710:command_telemetry.c ****                 return FALSE;
 2791              		.loc 1 710 0
 2792 05e4 0230     		add	r0, r0, #2
 2793              	.LVL470:
 2794 05e6 211C     		mov	r1, r4
 2795 05e8 3F4A     		ldr	r2, .L187+20
 2796 05ea FFF7FEFF 		bl	send_alarm_telemetry
 2797              	.LVL471:
 711:command_telemetry.c ****             }// If we can't find the next ':' character
 2798              		.loc 1 711 0
 2799 05ee 0020     		mov	r0, #0
 2800 05f0 8DE0     		b	.L100
 2801              	.LVL472:
 2802              	.L167:
 713:command_telemetry.c ****             
 2803              		.loc 1 713 0
 2804 05f2 0130     		add	r0, r0, #1
 2805              	.LVL473:
 715:command_telemetry.c ****             {
 2806              		.loc 1 715 0
 2807 05f4 FFF7FEFF 		bl	get_telemetry_cmd_id_from_cmd_string
 2808              	.LVL474:
 2809 05f8 0028     		cmp	r0, #0
 2810 05fa 06D0     		beq	.L169
 2811 05fc 0128     		cmp	r0, #1
ARM GAS  C:\Users\TB1014~1\AppData\Local\Temp\ccPTK8k7.s 			page 74


 2812 05fe 09D1     		bne	.L183
 719:command_telemetry.c ****                     break;
 2813              		.loc 1 719 0
 2814 0600 0020     		mov	r0, #0
 2815              	.LVL475:
 2816 0602 FFF7FEFF 		bl	set_is_telemetry_enable
 2817              	.LVL476:
 810:command_telemetry.c **** }// parse_and_execute_command
 2818              		.loc 1 810 0
 2819 0606 0120     		mov	r0, #1
 720:command_telemetry.c ****                 }// CMD_TRACKER_DISABLE      
 2820              		.loc 1 720 0
 2821 0608 81E0     		b	.L100
 2822              	.LVL477:
 2823              	.L169:
 725:command_telemetry.c ****                     break;
 2824              		.loc 1 725 0
 2825 060a 0120     		mov	r0, #1
 2826              	.LVL478:
 2827 060c FFF7FEFF 		bl	set_is_telemetry_enable
 2828              	.LVL479:
 810:command_telemetry.c **** }// parse_and_execute_command
 2829              		.loc 1 810 0
 2830 0610 0120     		mov	r0, #1
 726:command_telemetry.c ****                 }// CMD_TRACKER_ENABLE
 2831              		.loc 1 726 0
 2832 0612 7CE0     		b	.L100
 2833              	.LVL480:
 2834              	.L183:
 732:command_telemetry.c ****                     return FALSE;
 2835              		.loc 1 732 0
 2836 0614 0220     		mov	r0, #2
 2837              	.LVL481:
 2838 0616 211C     		mov	r1, r4
 2839 0618 334A     		ldr	r2, .L187+20
 2840 061a FFF7FEFF 		bl	send_alarm_telemetry
 2841              	.LVL482:
 733:command_telemetry.c ****                 }// CMD_TRACKER_UNKNOWN, default
 2842              		.loc 1 733 0
 2843 061e 0020     		mov	r0, #0
 2844 0620 75E0     		b	.L100
 2845              	.LVL483:
 2846              	.L110:
 741:command_telemetry.c ****             {
 2847              		.loc 1 741 0
 2848 0622 281C     		mov	r0, r5
 2849 0624 2C21     		mov	r1, #44
 2850 0626 FFF7FEFF 		bl	strchr
 2851              	.LVL484:
 2852 062a 0028     		cmp	r0, #0
 2853 062c 06D1     		bne	.L171
 743:command_telemetry.c ****                 return FALSE;
 2854              		.loc 1 743 0
 2855 062e 0230     		add	r0, r0, #2
 2856              	.LVL485:
 2857 0630 211C     		mov	r1, r4
 2858 0632 2E4A     		ldr	r2, .L187+24
ARM GAS  C:\Users\TB1014~1\AppData\Local\Temp\ccPTK8k7.s 			page 75


 2859 0634 FFF7FEFF 		bl	send_alarm_telemetry
 2860              	.LVL486:
 744:command_telemetry.c ****             }// If we can't find the next ',' character
 2861              		.loc 1 744 0
 2862 0638 0020     		mov	r0, #0
 2863 063a 68E0     		b	.L100
 2864              	.LVL487:
 2865              	.L171:
 747:command_telemetry.c ****             {
 2866              		.loc 1 747 0
 2867 063c 0130     		add	r0, r0, #1
 2868              	.LVL488:
 2869 063e 3A21     		mov	r1, #58
 2870 0640 FFF7FEFF 		bl	strchr
 2871              	.LVL489:
 2872 0644 0028     		cmp	r0, #0
 2873 0646 06D1     		bne	.L172
 749:command_telemetry.c ****                 return FALSE;
 2874              		.loc 1 749 0
 2875 0648 0230     		add	r0, r0, #2
 2876              	.LVL490:
 2877 064a 211C     		mov	r1, r4
 2878 064c 274A     		ldr	r2, .L187+24
 2879 064e FFF7FEFF 		bl	send_alarm_telemetry
 2880              	.LVL491:
 750:command_telemetry.c ****             }// If we can't find the next ':' character
 2881              		.loc 1 750 0
 2882 0652 0020     		mov	r0, #0
 2883 0654 5BE0     		b	.L100
 2884              	.LVL492:
 2885              	.L172:
 752:command_telemetry.c ****             
 2886              		.loc 1 752 0
 2887 0656 451C     		add	r5, r0, #1
 2888              	.LVL493:
 754:command_telemetry.c ****             {
 2889              		.loc 1 754 0
 2890 0658 281C     		mov	r0, r5
 2891 065a FFF7FEFF 		bl	get_tracker_cmd_id_from_cmd_string
 2892              	.LVL494:
 2893 065e 0128     		cmp	r0, #1
 2894 0660 04D0     		beq	.L174
 2895 0662 0028     		cmp	r0, #0
 2896 0664 07D0     		beq	.L175
 2897 0666 0228     		cmp	r0, #2
 2898 0668 0AD0     		beq	.L176
 2899 066a 2BE0     		b	.L184
 2900              	.L174:
 758:command_telemetry.c ****                     break;
 2901              		.loc 1 758 0
 2902 066c 0020     		mov	r0, #0
 2903              	.LVL495:
 2904 066e FFF7FEFF 		bl	set_is_tracker_enable
 2905              	.LVL496:
 810:command_telemetry.c **** }// parse_and_execute_command
 2906              		.loc 1 810 0
 2907 0672 0120     		mov	r0, #1
ARM GAS  C:\Users\TB1014~1\AppData\Local\Temp\ccPTK8k7.s 			page 76


 759:command_telemetry.c ****                 }// CMD_TRACKER_DISABLE      
 2908              		.loc 1 759 0
 2909 0674 4BE0     		b	.L100
 2910              	.LVL497:
 2911              	.L175:
 764:command_telemetry.c ****                     break;
 2912              		.loc 1 764 0
 2913 0676 0120     		mov	r0, #1
 2914              	.LVL498:
 2915 0678 FFF7FEFF 		bl	set_is_tracker_enable
 2916              	.LVL499:
 810:command_telemetry.c **** }// parse_and_execute_command
 2917              		.loc 1 810 0
 2918 067c 0120     		mov	r0, #1
 765:command_telemetry.c ****                 }// CMD_TRACKER_ENABLE
 2919              		.loc 1 765 0
 2920 067e 46E0     		b	.L100
 2921              	.LVL500:
 2922              	.L176:
 770:command_telemetry.c ****                     {
 2923              		.loc 1 770 0
 2924 0680 281C     		mov	r0, r5
 2925              	.LVL501:
 2926 0682 2C21     		mov	r1, #44
 2927 0684 FFF7FEFF 		bl	strchr
 2928              	.LVL502:
 2929 0688 0028     		cmp	r0, #0
 2930 068a 06D1     		bne	.L177
 772:command_telemetry.c ****                         return FALSE;
 2931              		.loc 1 772 0
 2932 068c 0230     		add	r0, r0, #2
 2933              	.LVL503:
 2934 068e 211C     		mov	r1, r4
 2935 0690 164A     		ldr	r2, .L187+24
 2936 0692 FFF7FEFF 		bl	send_alarm_telemetry
 2937              	.LVL504:
 773:command_telemetry.c ****                     }// If we can't find the next ',' character
 2938              		.loc 1 773 0
 2939 0696 0020     		mov	r0, #0
 2940 0698 39E0     		b	.L100
 2941              	.LVL505:
 2942              	.L177:
 776:command_telemetry.c ****                     {
 2943              		.loc 1 776 0
 2944 069a 0130     		add	r0, r0, #1
 2945              	.LVL506:
 2946 069c 3A21     		mov	r1, #58
 2947 069e FFF7FEFF 		bl	strchr
 2948              	.LVL507:
 2949 06a2 0028     		cmp	r0, #0
 2950 06a4 06D1     		bne	.L178
 778:command_telemetry.c ****                         return FALSE;
 2951              		.loc 1 778 0
 2952 06a6 0230     		add	r0, r0, #2
 2953              	.LVL508:
 2954 06a8 211C     		mov	r1, r4
 2955 06aa 104A     		ldr	r2, .L187+24
ARM GAS  C:\Users\TB1014~1\AppData\Local\Temp\ccPTK8k7.s 			page 77


 2956 06ac FFF7FEFF 		bl	send_alarm_telemetry
 2957              	.LVL509:
 779:command_telemetry.c ****                     }// If we can't find the next ':' character
 2958              		.loc 1 779 0
 2959 06b0 0020     		mov	r0, #0
 2960 06b2 2CE0     		b	.L100
 2961              	.LVL510:
 2962              	.L178:
 781:command_telemetry.c ****                     set_number_of_buttons (atoi(param_str));
 2963              		.loc 1 781 0
 2964 06b4 0130     		add	r0, r0, #1
 2965              	.LVL511:
 782:command_telemetry.c ****                     break;
 2966              		.loc 1 782 0
 2967 06b6 FFF7FEFF 		bl	atoi
 2968              	.LVL512:
 2969 06ba 80B2     		uxth	r0, r0
 2970 06bc FFF7FEFF 		bl	set_number_of_buttons
 2971              	.LVL513:
 810:command_telemetry.c **** }// parse_and_execute_command
 2972              		.loc 1 810 0
 2973 06c0 0120     		mov	r0, #1
 783:command_telemetry.c ****                 }// CMD_TRACKER_SET_BUTTON
 2974              		.loc 1 783 0
 2975 06c2 24E0     		b	.L100
 2976              	.LVL514:
 2977              	.L184:
 789:command_telemetry.c ****                     return FALSE;
 2978              		.loc 1 789 0
 2979 06c4 0220     		mov	r0, #2
 2980              	.LVL515:
 2981 06c6 211C     		mov	r1, r4
 2982 06c8 084A     		ldr	r2, .L187+24
 2983 06ca FFF7FEFF 		bl	send_alarm_telemetry
 2984              	.LVL516:
 790:command_telemetry.c ****                 }// CMD_TRACKER_UNKNOWN, default
 2985              		.loc 1 790 0
 2986 06ce 0020     		mov	r0, #0
 2987 06d0 1DE0     		b	.L100
 2988              	.L188:
 2989 06d2 C046     		.align	2
 2990              	.L187:
 2991 06d4 FC020000 		.word	.LC115
 2992 06d8 80020000 		.word	.LC107
 2993 06dc 10030000 		.word	.LC117
 2994 06e0 30030000 		.word	.LC119
 2995 06e4 0C020000 		.word	.LC98
 2996 06e8 48030000 		.word	.LC121
 2997 06ec 68030000 		.word	.LC123
 2998              	.LVL517:
 2999              	.L111:
 798:command_telemetry.c ****             break;
 3000              		.loc 1 798 0
 3001 06f0 FFF7FEFF 		bl	get_software_version
 3002              	.LVL518:
 3003 06f4 021C     		mov	r2, r0
 3004 06f6 0120     		mov	r0, #1
ARM GAS  C:\Users\TB1014~1\AppData\Local\Temp\ccPTK8k7.s 			page 78


 3005 06f8 0649     		ldr	r1, .L189
 3006 06fa FFF7FEFF 		bl	send_alarm_telemetry
 3007              	.LVL519:
 810:command_telemetry.c **** }// parse_and_execute_command
 3008              		.loc 1 810 0
 3009 06fe 0120     		mov	r0, #1
 799:command_telemetry.c ****         }// CMD_VERSION
 3010              		.loc 1 799 0
 3011 0700 05E0     		b	.L100
 3012              	.LVL520:
 3013              	.L101:
 805:command_telemetry.c ****             return FALSE;
 3014              		.loc 1 805 0
 3015 0702 0220     		mov	r0, #2
 3016              	.LVL521:
 3017 0704 211C     		mov	r1, r4
 3018 0706 044A     		ldr	r2, .L189+4
 3019 0708 FFF7FEFF 		bl	send_alarm_telemetry
 3020              	.LVL522:
 806:command_telemetry.c ****         }// default
 3021              		.loc 1 806 0
 3022 070c 0020     		mov	r0, #0
 3023              	.LVL523:
 3024              	.L100:
 811:command_telemetry.c **** 
 3025              		.loc 1 811 0
 3026 070e 13B0     		add	sp, sp, #76
 3027              		@ sp needed
 3028 0710 F0BD     		pop	{r4, r5, r6, r7, pc}
 3029              	.L190:
 3030 0712 C046     		.align	2
 3031              	.L189:
 3032 0714 84030000 		.word	.LC125
 3033 0718 8C030000 		.word	.LC127
 3034              		.cfi_endproc
 3035              	.LFE43:
 3036              		.size	parse_and_execute_command, .-parse_and_execute_command
 3037              		.section	.rodata
 3038              		.align	2
 3039              		.set	.LANCHOR0,. + 0
 3040              		.set	.LANCHOR1,. + 128
 3041              		.set	.LANCHOR2,. + 256
 3042              		.type	vec_commands, %object
 3043              		.size	vec_commands, 108
 3044              	vec_commands:
 3045 0038 0000     		.short	0
 3046 003a 0000     		.space	2
 3047 003c E0010000 		.word	.LC94
 3048 0040 C4030000 		.word	.LC129
 3049 0044 0100     		.short	1
 3050 0046 0000     		.space	2
 3051 0048 E4030000 		.word	.LC130
 3052 004c F0030000 		.word	.LC131
 3053 0050 0200     		.short	2
 3054 0052 0000     		.space	2
 3055 0054 08040000 		.word	.LC132
 3056 0058 14040000 		.word	.LC133
ARM GAS  C:\Users\TB1014~1\AppData\Local\Temp\ccPTK8k7.s 			page 79


 3057 005c 0400     		.short	4
 3058 005e 0000     		.space	2
 3059 0060 38040000 		.word	.LC134
 3060 0064 40040000 		.word	.LC135
 3061 0068 0300     		.short	3
 3062 006a 0000     		.space	2
 3063 006c 44040000 		.word	.LC136
 3064 0070 48040000 		.word	.LC137
 3065 0074 0500     		.short	5
 3066 0076 0000     		.space	2
 3067 0078 54040000 		.word	.LC138
 3068 007c 5C040000 		.word	.LC139
 3069 0080 0600     		.short	6
 3070 0082 0000     		.space	2
 3071 0084 80040000 		.word	.LC140
 3072 0088 8C040000 		.word	.LC141
 3073 008c 0700     		.short	7
 3074 008e 0000     		.space	2
 3075 0090 A8040000 		.word	.LC142
 3076 0094 B0040000 		.word	.LC143
 3077 0098 0800     		.short	8
 3078 009a 0000     		.space	2
 3079 009c 84030000 		.word	.LC125
 3080 00a0 D4040000 		.word	.LC144
 3081              		.type	vec_sensor_commands, %object
 3082              		.size	vec_sensor_commands, 24
 3083              	vec_sensor_commands:
 3084 00a4 0100     		.short	1
 3085 00a6 0000     		.space	2
 3086 00a8 AC050000 		.word	.LC155
 3087 00ac 54060000 		.word	.LC163
 3088 00b0 0000     		.short	0
 3089 00b2 0000     		.space	2
 3090 00b4 D4050000 		.word	.LC157
 3091 00b8 70060000 		.word	.LC164
 3092              		.type	vec_telemetry_commands, %object
 3093              		.size	vec_telemetry_commands, 24
 3094              	vec_telemetry_commands:
 3095 00bc 0100     		.short	1
 3096 00be 0000     		.space	2
 3097 00c0 AC050000 		.word	.LC155
 3098 00c4 2C060000 		.word	.LC161
 3099 00c8 0000     		.short	0
 3100 00ca 0000     		.space	2
 3101 00cc D4050000 		.word	.LC157
 3102 00d0 40060000 		.word	.LC162
 3103              		.type	vec_tracker_commands, %object
 3104              		.size	vec_tracker_commands, 36
 3105              	vec_tracker_commands:
 3106 00d4 0100     		.short	1
 3107 00d6 0000     		.space	2
 3108 00d8 AC050000 		.word	.LC155
 3109 00dc B4050000 		.word	.LC156
 3110 00e0 0000     		.short	0
 3111 00e2 0000     		.space	2
 3112 00e4 D4050000 		.word	.LC157
 3113 00e8 DC050000 		.word	.LC158
ARM GAS  C:\Users\TB1014~1\AppData\Local\Temp\ccPTK8k7.s 			page 80


 3114 00ec 0200     		.short	2
 3115 00ee 0000     		.space	2
 3116 00f0 FC050000 		.word	.LC159
 3117 00f4 08060000 		.word	.LC160
 3118              		.type	vec_anim_commands, %object
 3119              		.size	vec_anim_commands, 48
 3120              	vec_anim_commands:
 3121 00f8 0000     		.short	0
 3122 00fa 0000     		.space	2
 3123 00fc 8C060000 		.word	.LC165
 3124 0100 94060000 		.word	.LC166
 3125 0104 0100     		.short	1
 3126 0106 0000     		.space	2
 3127 0108 B4060000 		.word	.LC167
 3128 010c BC060000 		.word	.LC168
 3129 0110 0200     		.short	2
 3130 0112 0000     		.space	2
 3131 0114 DC060000 		.word	.LC169
 3132 0118 E4060000 		.word	.LC170
 3133 011c 0300     		.short	3
 3134 011e 0000     		.space	2
 3135 0120 F4060000 		.word	.LC171
 3136 0124 FC060000 		.word	.LC172
 3137              		.type	vec_boot_commands, %object
 3138              		.size	vec_boot_commands, 36
 3139              	vec_boot_commands:
 3140 0128 0000     		.short	0
 3141 012a 0000     		.space	2
 3142 012c 10070000 		.word	.LC173
 3143 0130 18070000 		.word	.LC174
 3144 0134 0100     		.short	1
 3145 0136 0000     		.space	2
 3146 0138 34070000 		.word	.LC175
 3147 013c 3C070000 		.word	.LC176
 3148 0140 0200     		.short	2
 3149 0142 0000     		.space	2
 3150 0144 58070000 		.word	.LC177
 3151 0148 68070000 		.word	.LC178
 3152              		.type	vec_led_commands, %object
 3153              		.size	vec_led_commands, 60
 3154              	vec_led_commands:
 3155 014c 0000     		.short	0
 3156 014e 0000     		.space	2
 3157 0150 EC040000 		.word	.LC145
 3158 0154 F4040000 		.word	.LC146
 3159 0158 0100     		.short	1
 3160 015a 0000     		.space	2
 3161 015c 04050000 		.word	.LC147
 3162 0160 14050000 		.word	.LC148
 3163 0164 0200     		.short	2
 3164 0166 0000     		.space	2
 3165 0168 34050000 		.word	.LC149
 3166 016c 44050000 		.word	.LC150
 3167 0170 0300     		.short	3
 3168 0172 0000     		.space	2
 3169 0174 64050000 		.word	.LC151
 3170 0178 70050000 		.word	.LC152
ARM GAS  C:\Users\TB1014~1\AppData\Local\Temp\ccPTK8k7.s 			page 81


 3171 017c 0400     		.short	4
 3172 017e 0000     		.space	2
 3173 0180 8C050000 		.word	.LC153
 3174 0184 98050000 		.word	.LC154
 3175              	.LC14:
 3176 0188 A0030000 		.word	.LC0
 3177 018c A4030000 		.word	.LC1
 3178 0190 AC030000 		.word	.LC2
 3179 0194 B4030000 		.word	.LC3
 3180 0198 BC030000 		.word	.LC4
 3181              		.section	.rodata.str1.4,"aMS",%progbits,1
 3182              		.align	2
 3183              	.LC17:
 3184 0000 7B226576 		.ascii	"{\"event\":\"alarm\", \"type\":\"\000"
 3184      656E7422 
 3184      3A22616C 
 3184      61726D22 
 3184      2C202274 
 3185 001b 00       		.space	1
 3186              	.LC19:
 3187 001c 222C2022 		.ascii	"\", \"source\":\"\000"
 3187      736F7572 
 3187      6365223A 
 3187      2200
 3188 002a 0000     		.space	2
 3189              	.LC21:
 3190 002c 222C2022 		.ascii	"\", \"description\":\"\000"
 3190      64657363 
 3190      72697074 
 3190      696F6E22 
 3190      3A2200
 3191 003f 00       		.space	1
 3192              	.LC23:
 3193 0040 227D00   		.ascii	"\"}\000"
 3194 0043 00       		.space	1
 3195              	.LC27:
 3196 0044 7B226576 		.ascii	"{\"event\":\"animation\", \"name\":\"\000"
 3196      656E7422 
 3196      3A22616E 
 3196      696D6174 
 3196      696F6E22 
 3197 0063 00       		.space	1
 3198              	.LC29:
 3199 0064 222C2022 		.ascii	"\", \"action\":\"\000"
 3199      61637469 
 3199      6F6E223A 
 3199      2200
 3200 0072 0000     		.space	2
 3201              	.LC35:
 3202 0074 7B226576 		.ascii	"{\"event\":\"sensor\", \"id\":\000"
 3202      656E7422 
 3202      3A227365 
 3202      6E736F72 
 3202      222C2022 
 3203 008d 000000   		.space	3
 3204              	.LC37:
 3205 0090 2C202272 		.ascii	", \"raw\":\000"
ARM GAS  C:\Users\TB1014~1\AppData\Local\Temp\ccPTK8k7.s 			page 82


 3205      6177223A 
 3205      00
 3206 0099 000000   		.space	3
 3207              	.LC40:
 3208 009c 2C202262 		.ascii	", \"baseline\":\000"
 3208      6173656C 
 3208      696E6522 
 3208      3A00
 3209 00aa 0000     		.space	2
 3210              	.LC42:
 3211 00ac 2C202262 		.ascii	", \"bucket baseline\":\000"
 3211      75636B65 
 3211      74206261 
 3211      73656C69 
 3211      6E65223A 
 3212 00c1 000000   		.space	3
 3213              	.LC44:
 3214 00c4 2C202264 		.ascii	", \"diff\":\000"
 3214      69666622 
 3214      3A00
 3215 00ce 0000     		.space	2
 3216              	.LC46:
 3217 00d0 2C202262 		.ascii	", \"baseline reset\":\000"
 3217      6173656C 
 3217      696E6520 
 3217      72657365 
 3217      74223A00 
 3218              	.LC48:
 3219 00e4 2C202249 		.ascii	", \"IDAC\":\000"
 3219      44414322 
 3219      3A00
 3220 00ee 0000     		.space	2
 3221              	.LC52:
 3222 00f0 646F776E 		.ascii	"down\000"
 3222      00
 3223 00f5 000000   		.space	3
 3224              	.LC54:
 3225 00f8 757000   		.ascii	"up\000"
 3226 00fb 00       		.space	1
 3227              	.LC57:
 3228 00fc 7B226576 		.ascii	"{\"event\":\"push button\", \"id\":\000"
 3228      656E7422 
 3228      3A227075 
 3228      73682062 
 3228      7574746F 
 3229 011a 0000     		.space	2
 3230              	.LC59:
 3231 011c 2C20226E 		.ascii	", \"name\":\"\000"
 3231      616D6522 
 3231      3A2200
 3232 0127 00       		.space	1
 3233              	.LC61:
 3234 0128 222C2022 		.ascii	"\", \"state\":\"\000"
 3234      73746174 
 3234      65223A22 
 3234      00
 3235 0135 000000   		.space	3
ARM GAS  C:\Users\TB1014~1\AppData\Local\Temp\ccPTK8k7.s 			page 83


 3236              	.LC66:
 3237 0138 7B226576 		.ascii	"{\"event\":\"flash geometry\", \"checksum\":\000"
 3237      656E7422 
 3237      3A22666C 
 3237      61736820 
 3237      67656F6D 
 3238 015f 00       		.space	1
 3239              	.LC68:
 3240 0160 2C202266 		.ascii	", \"first row\":\000"
 3240      69727374 
 3240      20726F77 
 3240      223A00
 3241 016f 00       		.space	1
 3242              	.LC70:
 3243 0170 2C20226C 		.ascii	", \"last row\":\000"
 3243      61737420 
 3243      726F7722 
 3243      3A00
 3244 017e 0000     		.space	2
 3245              	.LC72:
 3246 0180 2C202273 		.ascii	", \"size\":\000"
 3246      697A6522 
 3246      3A00
 3247 018a 0000     		.space	2
 3248              	.LC74:
 3249 018c 7D00     		.ascii	"}\000"
 3250 018e 0000     		.space	2
 3251              	.LC81:
 3252 0190 7B226576 		.ascii	"{\"event\":\"button\", \"id\":\000"
 3252      656E7422 
 3252      3A226275 
 3252      74746F6E 
 3252      222C2022 
 3253 01a9 000000   		.space	3
 3254              	.LC83:
 3255 01ac 2C202261 		.ascii	", \"action\":\"\000"
 3255      6374696F 
 3255      6E223A22 
 3255      00
 3256 01b9 000000   		.space	3
 3257              	.LC88:
 3258 01bc 63616E27 		.ascii	"can't find comma in command\000"
 3258      74206669 
 3258      6E642063 
 3258      6F6D6D61 
 3258      20696E20 
 3259              	.LC91:
 3260 01d8 4649584D 		.ascii	"FIXME!\000"
 3260      452100
 3261 01df 00       		.space	1
 3262              	.LC94:
 3263 01e0 616E696D 		.ascii	"animation\000"
 3263      6174696F 
 3263      6E00
 3264 01ea 0000     		.space	2
 3265              	.LC96:
 3266 01ec 756E7375 		.ascii	"unsupported animation action\000"
ARM GAS  C:\Users\TB1014~1\AppData\Local\Temp\ccPTK8k7.s 			page 84


 3266      70706F72 
 3266      74656420 
 3266      616E696D 
 3266      6174696F 
 3267 0209 000000   		.space	3
 3268              	.LC98:
 3269 020c 756E7375 		.ascii	"unsupported sensor action\000"
 3269      70706F72 
 3269      74656420 
 3269      73656E73 
 3269      6F722061 
 3270 0226 0000     		.space	2
 3271              	.LC100:
 3272 0228 626F6F74 		.ascii	"bootloader is disabled\000"
 3272      6C6F6164 
 3272      65722069 
 3272      73206469 
 3272      7361626C 
 3273 023f 00       		.space	1
 3274              	.LC102:
 3275 0240 756E7375 		.ascii	"unsupported bootloader action\000"
 3275      70706F72 
 3275      74656420 
 3275      626F6F74 
 3275      6C6F6164 
 3276 025e 0000     		.space	2
 3277              	.LC105:
 3278 0260 63616E27 		.ascii	"can't parse red from RGB color\000"
 3278      74207061 
 3278      72736520 
 3278      72656420 
 3278      66726F6D 
 3279 027f 00       		.space	1
 3280              	.LC107:
 3281 0280 63616E27 		.ascii	"can't parse green from RGB color\000"
 3281      74207061 
 3281      72736520 
 3281      67726565 
 3281      6E206672 
 3282 02a1 000000   		.space	3
 3283              	.LC109:
 3284 02a4 63616E27 		.ascii	"can't parsed green from RGB color\000"
 3284      74207061 
 3284      72736564 
 3284      20677265 
 3284      656E2066 
 3285 02c6 0000     		.space	2
 3286              	.LC111:
 3287 02c8 63616E27 		.ascii	"can't parse LED index color\000"
 3287      74207061 
 3287      72736520 
 3287      4C454420 
 3287      696E6465 
 3288              	.LC113:
 3289 02e4 63616E27 		.ascii	"can't parse LED index\000"
 3289      74207061 
 3289      72736520 
ARM GAS  C:\Users\TB1014~1\AppData\Local\Temp\ccPTK8k7.s 			page 85


 3289      4C454420 
 3289      696E6465 
 3290 02fa 0000     		.space	2
 3291              	.LC115:
 3292 02fc 696E7661 		.ascii	"invalid led index\000"
 3292      6C696420 
 3292      6C656420 
 3292      696E6465 
 3292      7800
 3293 030e 0000     		.space	2
 3294              	.LC117:
 3295 0310 63616E27 		.ascii	"can't parse LED strip command\000"
 3295      74207061 
 3295      72736520 
 3295      4C454420 
 3295      73747269 
 3296 032e 0000     		.space	2
 3297              	.LC119:
 3298 0330 756E7375 		.ascii	"unsupported led action\000"
 3298      70706F72 
 3298      74656420 
 3298      6C656420 
 3298      61637469 
 3299 0347 00       		.space	1
 3300              	.LC121:
 3301 0348 756E7375 		.ascii	"unsupported telemetry action\000"
 3301      70706F72 
 3301      74656420 
 3301      74656C65 
 3301      6D657472 
 3302 0365 000000   		.space	3
 3303              	.LC123:
 3304 0368 756E7375 		.ascii	"unsupported tracker action\000"
 3304      70706F72 
 3304      74656420 
 3304      74726163 
 3304      6B657220 
 3305 0383 00       		.space	1
 3306              	.LC125:
 3307 0384 76657273 		.ascii	"version\000"
 3307      696F6E00 
 3308              	.LC127:
 3309 038c 756E7375 		.ascii	"unsupported command\000"
 3309      70706F72 
 3309      74656420 
 3309      636F6D6D 
 3309      616E6400 
 3310              	.LC0:
 3311 03a0 6C6F6700 		.ascii	"log\000"
 3312              	.LC1:
 3313 03a4 696E666F 		.ascii	"info\000"
 3313      00
 3314 03a9 000000   		.space	3
 3315              	.LC2:
 3316 03ac 7761726E 		.ascii	"warning\000"
 3316      696E6700 
 3317              	.LC3:
ARM GAS  C:\Users\TB1014~1\AppData\Local\Temp\ccPTK8k7.s 			page 86


 3318 03b4 6572726F 		.ascii	"error\000"
 3318      7200
 3319 03ba 0000     		.space	2
 3320              	.LC4:
 3321 03bc 66617461 		.ascii	"fatal\000"
 3321      6C00
 3322 03c2 0000     		.space	2
 3323              	.LC129:
 3324 03c4 73657420 		.ascii	"set the animation parameters\000"
 3324      74686520 
 3324      616E696D 
 3324      6174696F 
 3324      6E207061 
 3325 03e1 000000   		.space	3
 3326              	.LC130:
 3327 03e4 626F6F74 		.ascii	"bootloader\000"
 3327      6C6F6164 
 3327      657200
 3328 03ef 00       		.space	1
 3329              	.LC131:
 3330 03f0 6A756D70 		.ascii	"jump in booloader mode\000"
 3330      20696E20 
 3330      626F6F6C 
 3330      6F616465 
 3330      72206D6F 
 3331 0407 00       		.space	1
 3332              	.LC132:
 3333 0408 63617073 		.ascii	"capsense\000"
 3333      656E7365 
 3333      00
 3334 0411 000000   		.space	3
 3335              	.LC133:
 3336 0414 7365742F 		.ascii	"set/get the capsense configuration\000"
 3336      67657420 
 3336      74686520 
 3336      63617073 
 3336      656E7365 
 3337 0437 00       		.space	1
 3338              	.LC134:
 3339 0438 68656C70 		.ascii	"help\000"
 3339      00
 3340 043d 000000   		.space	3
 3341              	.LC135:
 3342 0440 00       		.ascii	"\000"
 3343 0441 000000   		.space	3
 3344              	.LC136:
 3345 0444 6C656400 		.ascii	"led\000"
 3346              	.LC137:
 3347 0448 73657420 		.ascii	"set led(s)\000"
 3347      6C656428 
 3347      732900
 3348 0453 00       		.space	1
 3349              	.LC138:
 3350 0454 73656E73 		.ascii	"sensor\000"
 3350      6F7200
 3351 045b 00       		.space	1
 3352              	.LC139:
ARM GAS  C:\Users\TB1014~1\AppData\Local\Temp\ccPTK8k7.s 			page 87


 3353 045c 656E6162 		.ascii	"enable/disable sensors telemetries\000"
 3353      6C652F64 
 3353      69736162 
 3353      6C652073 
 3353      656E736F 
 3354 047f 00       		.space	1
 3355              	.LC140:
 3356 0480 74656C65 		.ascii	"telemetry\000"
 3356      6D657472 
 3356      7900
 3357 048a 0000     		.space	2
 3358              	.LC141:
 3359 048c 656E6162 		.ascii	"enable/disable telemetries\000"
 3359      6C652F64 
 3359      69736162 
 3359      6C652074 
 3359      656C656D 
 3360 04a7 00       		.space	1
 3361              	.LC142:
 3362 04a8 74726163 		.ascii	"tracker\000"
 3362      6B657200 
 3363              	.LC143:
 3364 04b0 7365742F 		.ascii	"set/get the tracker configuration\000"
 3364      67657420 
 3364      74686520 
 3364      74726163 
 3364      6B657220 
 3365 04d2 0000     		.space	2
 3366              	.LC144:
 3367 04d4 67657420 		.ascii	"get the actual version\000"
 3367      74686520 
 3367      61637475 
 3367      616C2076 
 3367      65727369 
 3368 04eb 00       		.space	1
 3369              	.LC145:
 3370 04ec 636C6561 		.ascii	"clear\000"
 3370      7200
 3371 04f2 0000     		.space	2
 3372              	.LC146:
 3373 04f4 636C6561 		.ascii	"clear all leds\000"
 3373      7220616C 
 3373      6C206C65 
 3373      647300
 3374 0503 00       		.space	1
 3375              	.LC147:
 3376 0504 73657420 		.ascii	"set color left\000"
 3376      636F6C6F 
 3376      72206C65 
 3376      667400
 3377 0513 00       		.space	1
 3378              	.LC148:
 3379 0514 73657420 		.ascii	"set the color of the left LED\000"
 3379      74686520 
 3379      636F6C6F 
 3379      72206F66 
 3379      20746865 
ARM GAS  C:\Users\TB1014~1\AppData\Local\Temp\ccPTK8k7.s 			page 88


 3380 0532 0000     		.space	2
 3381              	.LC149:
 3382 0534 73657420 		.ascii	"set color right\000"
 3382      636F6C6F 
 3382      72207269 
 3382      67687400 
 3383              	.LC150:
 3384 0544 73657420 		.ascii	"set the color of the right LED\000"
 3384      74686520 
 3384      636F6C6F 
 3384      72206F66 
 3384      20746865 
 3385 0563 00       		.space	1
 3386              	.LC151:
 3387 0564 73657420 		.ascii	"set white\000"
 3387      77686974 
 3387      6500
 3388 056e 0000     		.space	2
 3389              	.LC152:
 3390 0570 73657420 		.ascii	"set the white LED intensity\000"
 3390      74686520 
 3390      77686974 
 3390      65204C45 
 3390      4420696E 
 3391              	.LC153:
 3392 058c 73657420 		.ascii	"set strip\000"
 3392      73747269 
 3392      7000
 3393 0596 0000     		.space	2
 3394              	.LC154:
 3395 0598 73657420 		.ascii	"set the LED strip\000"
 3395      74686520 
 3395      4C454420 
 3395      73747269 
 3395      7000
 3396 05aa 0000     		.space	2
 3397              	.LC155:
 3398 05ac 64697361 		.ascii	"disable\000"
 3398      626C6500 
 3399              	.LC156:
 3400 05b4 64697361 		.ascii	"disable finger tracker on LEDs\000"
 3400      626C6520 
 3400      66696E67 
 3400      65722074 
 3400      7261636B 
 3401 05d3 00       		.space	1
 3402              	.LC157:
 3403 05d4 656E6162 		.ascii	"enable\000"
 3403      6C6500
 3404 05db 00       		.space	1
 3405              	.LC158:
 3406 05dc 656E6162 		.ascii	"enable finger tracker on LEDs\000"
 3406      6C652066 
 3406      696E6765 
 3406      72207472 
 3406      61636B65 
 3407 05fa 0000     		.space	2
ARM GAS  C:\Users\TB1014~1\AppData\Local\Temp\ccPTK8k7.s 			page 89


 3408              	.LC159:
 3409 05fc 73657420 		.ascii	"set button\000"
 3409      62757474 
 3409      6F6E00
 3410 0607 00       		.space	1
 3411              	.LC160:
 3412 0608 73657420 		.ascii	"set the number of logical buttons\000"
 3412      74686520 
 3412      6E756D62 
 3412      6572206F 
 3412      66206C6F 
 3413 062a 0000     		.space	2
 3414              	.LC161:
 3415 062c 64697361 		.ascii	"disable telemetries\000"
 3415      626C6520 
 3415      74656C65 
 3415      6D657472 
 3415      69657300 
 3416              	.LC162:
 3417 0640 656E6162 		.ascii	"enable telemetries\000"
 3417      6C652074 
 3417      656C656D 
 3417      65747269 
 3417      657300
 3418 0653 00       		.space	1
 3419              	.LC163:
 3420 0654 64697361 		.ascii	"disable sensors telemetries\000"
 3420      626C6520 
 3420      73656E73 
 3420      6F727320 
 3420      74656C65 
 3421              	.LC164:
 3422 0670 656E6162 		.ascii	"enable sensors telemetries\000"
 3422      6C652073 
 3422      656E736F 
 3422      72732074 
 3422      656C656D 
 3423 068b 00       		.space	1
 3424              	.LC165:
 3425 068c 6175746F 		.ascii	"auto\000"
 3425      00
 3426 0691 000000   		.space	3
 3427              	.LC166:
 3428 0694 73657420 		.ascii	"set animation in automatic mode\000"
 3428      616E696D 
 3428      6174696F 
 3428      6E20696E 
 3428      20617574 
 3429              	.LC167:
 3430 06b4 6D616E75 		.ascii	"manual\000"
 3430      616C00
 3431 06bb 00       		.space	1
 3432              	.LC168:
 3433 06bc 73657420 		.ascii	"set animation in manual mode\000"
 3433      616E696D 
 3433      6174696F 
 3433      6E20696E 
ARM GAS  C:\Users\TB1014~1\AppData\Local\Temp\ccPTK8k7.s 			page 90


 3433      206D616E 
 3434 06d9 000000   		.space	3
 3435              	.LC169:
 3436 06dc 73746F70 		.ascii	"stop\000"
 3436      00
 3437 06e1 000000   		.space	3
 3438              	.LC170:
 3439 06e4 73746F70 		.ascii	"stop animation\000"
 3439      20616E69 
 3439      6D617469 
 3439      6F6E00
 3440 06f3 00       		.space	1
 3441              	.LC171:
 3442 06f4 72657375 		.ascii	"resume\000"
 3442      6D6500
 3443 06fb 00       		.space	1
 3444              	.LC172:
 3445 06fc 72657375 		.ascii	"resume animation\000"
 3445      6D652061 
 3445      6E696D61 
 3445      74696F6E 
 3445      00
 3446 070d 000000   		.space	3
 3447              	.LC173:
 3448 0710 73746172 		.ascii	"start\000"
 3448      7400
 3449 0716 0000     		.space	2
 3450              	.LC174:
 3451 0718 656E7465 		.ascii	"enter in bootloader mode\000"
 3451      7220696E 
 3451      20626F6F 
 3451      746C6F61 
 3451      64657220 
 3452 0731 000000   		.space	3
 3453              	.LC175:
 3454 0734 65786974 		.ascii	"exit\000"
 3454      00
 3455 0739 000000   		.space	3
 3456              	.LC176:
 3457 073c 65786974 		.ascii	"exit from bootloader mode\000"
 3457      2066726F 
 3457      6D20626F 
 3457      6F746C6F 
 3457      61646572 
 3458 0756 0000     		.space	2
 3459              	.LC177:
 3460 0758 67657420 		.ascii	"get flash geo\000"
 3460      666C6173 
 3460      68206765 
 3460      6F00
 3461 0766 0000     		.space	2
 3462              	.LC178:
 3463 0768 67657420 		.ascii	"get flash geometry\000"
 3463      666C6173 
 3463      68206765 
 3463      6F6D6574 
 3463      727900
ARM GAS  C:\Users\TB1014~1\AppData\Local\Temp\ccPTK8k7.s 			page 91


 3464 077b 00       		.bss
 3465              		.align	2
 3466              		.set	.LANCHOR3,. + 0
 3467              		.set	.LANCHOR4,. + 512
 3468              		.type	is_telemetry_enable, %object
 3469              		.size	is_telemetry_enable, 1
 3470              	is_telemetry_enable:
 3471 0000 00       		.space	1
 3472 0001 000000   		.space	3
 3473              		.type	telemetry, %object
 3474              		.size	telemetry, 512
 3475              	telemetry:
 3476 0004 00000000 		.space	512
 3476      00000000 
 3476      00000000 
 3476      00000000 
 3476      00000000 
 3477              		.type	is_sensor_telemetry_enable, %object
 3478              		.size	is_sensor_telemetry_enable, 1
 3479              	is_sensor_telemetry_enable:
 3480 0204 00       		.space	1
 3481 0205 000000   		.text
 3482              	.Letext0:
 3483              		.file 2 "c:\\program files (x86)\\cypress\\psoc creator\\4.0\\psoc creator\\import\\gnu\\arm\\4.9.
 3484              		.file 3 "Generated_Source\\PSoC4/cytypes.h"
 3485              		.file 4 "Generated_Source\\PSoC4/CapSense_Configuration.h"
 3486              		.file 5 "Generated_Source\\PSoC4/CapSense_SmartSense_LL.h"
 3487              		.file 6 "Generated_Source\\PSoC4/CapSense_Structure.h"
 3488              		.file 7 "util.h"
 3489              		.file 8 "led.h"
 3490              		.file 9 "animation.h"
 3491              		.file 10 "command_telemetry.h"
 3492              		.file 11 "Generated_Source\\PSoC4/UART_1_SPI_UART.h"
 3493              		.file 12 "Generated_Source\\PSoC4/CapSense_ISR.h"
 3494              		.file 13 "c:\\program files (x86)\\cypress\\psoc creator\\4.0\\psoc creator\\import\\gnu\\arm\\4.9
 3495              		.file 14 "<built-in>"
 3496              		.file 15 "Generated_Source\\PSoC4/Timer_1.h"