ARM GAS  C:\Users\MM1005~1\AppData\Local\Temp\ccukbKgl.s 			page 1


   1              		.cpu cortex-m0plus
   2              		.fpu softvfp
   3              		.eabi_attribute 20, 1
   4              		.eabi_attribute 21, 1
   5              		.eabi_attribute 23, 3
   6              		.eabi_attribute 24, 1
   7              		.eabi_attribute 25, 1
   8              		.eabi_attribute 26, 1
   9              		.eabi_attribute 30, 1
  10              		.eabi_attribute 34, 0
  11              		.eabi_attribute 18, 4
  12              		.code	16
  13              		.file	"command_telemetry.c"
  14              		.text
  15              	.Ltext0:
  16              		.cfi_sections	.debug_frame
  17              		.section	.text.get_cmd_id_from_cmd_string,"ax",%progbits
  18              		.align	2
  19              		.global	get_cmd_id_from_cmd_string
  20              		.code	16
  21              		.thumb_func
  22              		.type	get_cmd_id_from_cmd_string, %function
  23              	get_cmd_id_from_cmd_string:
  24              	.LFB35:
  25              		.file 1 "command_telemetry.c"
   1:command_telemetry.c **** /* ========================================
   2:command_telemetry.c ****  *
   3:command_telemetry.c ****  * Copyright YOUR COMPANY, THE YEAR
   4:command_telemetry.c ****  * All Rights Reserved
   5:command_telemetry.c ****  * UNPUBLISHED, LICENSED SOFTWARE.
   6:command_telemetry.c ****  *
   7:command_telemetry.c ****  * CONFIDENTIAL AND PROPRIETARY INFORMATION
   8:command_telemetry.c ****  * WHICH IS THE PROPERTY OF your company.
   9:command_telemetry.c ****  *
  10:command_telemetry.c ****  * ========================================
  11:command_telemetry.c **** */
  12:command_telemetry.c **** #include "command_telemetry.h"
  13:command_telemetry.c **** #include "comms.h"
  14:command_telemetry.c **** 
  15:command_telemetry.c **** //=============================================================================
  16:command_telemetry.c **** //============================================================ static variables
  17:command_telemetry.c **** //=============================================================================
  18:command_telemetry.c **** static t_struct_command vec_boot_commands[CMD_BOOT_UNKNOWN]           = {{CMD_BOOT_START         , 
  19:command_telemetry.c ****                                                                          {CMD_BOOT_EXIT          , 
  20:command_telemetry.c ****                                                                          {CMD_BOOT_GET_FLASH_GEO , 
  21:command_telemetry.c **** static t_struct_command vec_anim_commands[CMD_ANIM_UNKNOWN]           = {{CMD_ANIM_AUTO          , 
  22:command_telemetry.c ****                                                                          {CMD_ANIM_MANUAL        , 
  23:command_telemetry.c ****                                                                          {CMD_ANIM_STOP          , 
  24:command_telemetry.c ****                                                                          {CMD_ANIM_RESUME        , 
  25:command_telemetry.c **** static t_struct_command vec_sensor_commands[CMD_SENSOR_UNKNOWN]       = {{CMD_SENSOR_DISABLE     , 
  26:command_telemetry.c ****                                                                          {CMD_SENSOR_ENABLE      , 
  27:command_telemetry.c **** static t_struct_command vec_telemetry_commands[CMD_TELEMETRY_UNKNOWN] = {{CMD_TELEMETRY_DISABLE  , 
  28:command_telemetry.c ****                                                                          {CMD_TELEMETRY_ENABLE   , 
  29:command_telemetry.c **** static t_struct_command vec_tracker_commands[CMD_TRACKER_UNKNOWN]     = {{CMD_TRACKER_DISABLE    , 
  30:command_telemetry.c ****                                                                          {CMD_TRACKER_ENABLE     , 
  31:command_telemetry.c ****                                                                          {CMD_TRACKER_SET_BUTTON , 
  32:command_telemetry.c **** static t_struct_command vec_led_commands[CMD_LED_UNKNOWN]             = {{CMD_LED_CLEAR          , 
ARM GAS  C:\Users\MM1005~1\AppData\Local\Temp\ccukbKgl.s 			page 2


  33:command_telemetry.c ****                                                                          {CMD_LED_SET_COLOR_LEFT , 
  34:command_telemetry.c ****                                                                          {CMD_LED_SET_COLOR_RIGHT, 
  35:command_telemetry.c ****                                                                          {CMD_LED_SET_WHITE      , 
  36:command_telemetry.c ****                                                                          {CMD_LED_SET_STRIP      , 
  37:command_telemetry.c **** static t_struct_command vec_commands[CMD_UNKNOWN]                     = {{CMD_ANIMATION          , 
  38:command_telemetry.c ****                                                                          {CMD_BOOTLOADER         , 
  39:command_telemetry.c ****                                                                          {CMD_CAPSENSE           , 
  40:command_telemetry.c ****                                                                          {CMD_HELP               , 
  41:command_telemetry.c ****                                                                          {CMD_LED                , 
  42:command_telemetry.c ****                                                                          {CMD_SENSOR             , 
  43:command_telemetry.c ****                                                                          {CMD_TELEMETRY          , 
  44:command_telemetry.c ****                                                                          {CMD_TRACKER            , 
  45:command_telemetry.c ****                                                                          {CMD_VERSION            , 
  46:command_telemetry.c **** 
  47:command_telemetry.c **** static BOOL is_telemetry_enable        = FALSE; // enable/disable the telemetry
  48:command_telemetry.c **** static BOOL is_sensor_telemetry_enable = FALSE; // when enable: send the sensors status on each cap
  49:command_telemetry.c **** static char telemetry[512];
  50:command_telemetry.c **** 
  51:command_telemetry.c **** //=============================================================================
  52:command_telemetry.c **** //========================================================= function prototypes
  53:command_telemetry.c **** //=============================================================================
  54:command_telemetry.c **** t_enum_command            get_cmd_id_from_cmd_string          (const char* command_str);
  55:command_telemetry.c **** t_enum_anim_command       get_anim_cmd_id_from_cmd_string     (const char* cmd_str);
  56:command_telemetry.c **** t_enum_animation          get_anim_id_from_cmd_string         (const char* cmd_str);
  57:command_telemetry.c **** t_enum_sensor_command     get_sensor_cmd_id_from_cmd_string   (const char* cmd_str);
  58:command_telemetry.c **** t_enum_telemetry_command  get_telemetry_cmd_id_from_cmd_string(const char* cmd_str);
  59:command_telemetry.c **** t_enum_tracker_command    get_tracker_cmd_id_from_cmd_string  (const char* cmd_str);
  60:command_telemetry.c **** t_enum_led_command        get_led_cmd_id_from_cmd_string      (const char* cmd_str);
  61:command_telemetry.c **** t_enum_bootloader_command get_boot_cmd_id_from_cmd_string     (const char* cmd_str);
  62:command_telemetry.c **** 
  63:command_telemetry.c **** //=============================================================================
  64:command_telemetry.c **** //================================================== get_cmd_id_from_cmd_string
  65:command_telemetry.c **** //=============================================================================
  66:command_telemetry.c **** t_enum_command get_cmd_id_from_cmd_string(const char* cmd_str)
  67:command_telemetry.c **** {
  26              		.loc 1 67 0
  27              		.cfi_startproc
  28              	.LVL0:
  29 0000 38B5     		push	{r3, r4, r5, lr}
  30              		.cfi_def_cfa_offset 16
  31              		.cfi_offset 3, -16
  32              		.cfi_offset 4, -12
  33              		.cfi_offset 5, -8
  34              		.cfi_offset 14, -4
  35 0002 041C     		mov	r4, r0
  36              	.LVL1:
  68:command_telemetry.c ****     int i;
  69:command_telemetry.c ****     
  70:command_telemetry.c ****     for (i = 0; i < CMD_UNKNOWN; i++)
  37              		.loc 1 70 0
  38 0004 0025     		mov	r5, #0
  39 0006 11E0     		b	.L2
  40              	.LVL2:
  41              	.L5:
  71:command_telemetry.c ****     {
  72:command_telemetry.c ****         if (strstr(cmd_str, vec_commands[i].name))
  42              		.loc 1 72 0
ARM GAS  C:\Users\MM1005~1\AppData\Local\Temp\ccukbKgl.s 			page 3


  43 0008 6B00     		lsl	r3, r5, #1
  44 000a 5B19     		add	r3, r3, r5
  45 000c 9B00     		lsl	r3, r3, #2
  46 000e 094A     		ldr	r2, .L6
  47 0010 D318     		add	r3, r2, r3
  48 0012 5968     		ldr	r1, [r3, #4]
  49 0014 201C     		mov	r0, r4
  50 0016 FFF7FEFF 		bl	strstr
  51              	.LVL3:
  52 001a 0028     		cmp	r0, #0
  53 001c 05D0     		beq	.L3
  73:command_telemetry.c ****         {
  74:command_telemetry.c ****             return vec_commands[i].id;
  54              		.loc 1 74 0
  55 001e 6B00     		lsl	r3, r5, #1
  56 0020 5D19     		add	r5, r3, r5
  57              	.LVL4:
  58 0022 AD00     		lsl	r5, r5, #2
  59 0024 034B     		ldr	r3, .L6
  60 0026 585D     		ldrb	r0, [r3, r5]
  61 0028 03E0     		b	.L4
  62              	.LVL5:
  63              	.L3:
  70:command_telemetry.c ****     {
  64              		.loc 1 70 0 discriminator 2
  65 002a 0135     		add	r5, r5, #1
  66              	.LVL6:
  67              	.L2:
  70:command_telemetry.c ****     {
  68              		.loc 1 70 0 is_stmt 0 discriminator 1
  69 002c 082D     		cmp	r5, #8
  70 002e EBDD     		ble	.L5
  75:command_telemetry.c ****         }
  76:command_telemetry.c ****     }// for all the commands
  77:command_telemetry.c ****     
  78:command_telemetry.c ****     return CMD_UNKNOWN;
  71              		.loc 1 78 0 is_stmt 1
  72 0030 0920     		mov	r0, #9
  73              	.LVL7:
  74              	.L4:
  79:command_telemetry.c **** }// get_cmd_id_from_cmd_string
  75              		.loc 1 79 0
  76              		@ sp needed
  77              	.LVL8:
  78 0032 38BD     		pop	{r3, r4, r5, pc}
  79              	.L7:
  80              		.align	2
  81              	.L6:
  82 0034 38000000 		.word	.LANCHOR0
  83              		.cfi_endproc
  84              	.LFE35:
  85              		.size	get_cmd_id_from_cmd_string, .-get_cmd_id_from_cmd_string
  86              		.section	.text.get_sensor_cmd_id_from_cmd_string,"ax",%progbits
  87              		.align	2
  88              		.global	get_sensor_cmd_id_from_cmd_string
  89              		.code	16
  90              		.thumb_func
ARM GAS  C:\Users\MM1005~1\AppData\Local\Temp\ccukbKgl.s 			page 4


  91              		.type	get_sensor_cmd_id_from_cmd_string, %function
  92              	get_sensor_cmd_id_from_cmd_string:
  93              	.LFB36:
  80:command_telemetry.c **** 
  81:command_telemetry.c **** //=============================================================================
  82:command_telemetry.c **** //=========================================== get_sensor_cmd_id_from_cmd_string
  83:command_telemetry.c **** //=============================================================================
  84:command_telemetry.c **** t_enum_sensor_command get_sensor_cmd_id_from_cmd_string (const char* cmd_str)
  85:command_telemetry.c **** {
  94              		.loc 1 85 0
  95              		.cfi_startproc
  96              	.LVL9:
  97 0000 38B5     		push	{r3, r4, r5, lr}
  98              		.cfi_def_cfa_offset 16
  99              		.cfi_offset 3, -16
 100              		.cfi_offset 4, -12
 101              		.cfi_offset 5, -8
 102              		.cfi_offset 14, -4
 103 0002 041C     		mov	r4, r0
 104              	.LVL10:
  86:command_telemetry.c ****     int i;
  87:command_telemetry.c ****     
  88:command_telemetry.c ****     for (i = 0; i < CMD_SENSOR_UNKNOWN; i++)
 105              		.loc 1 88 0
 106 0004 0025     		mov	r5, #0
 107 0006 13E0     		b	.L9
 108              	.LVL11:
 109              	.L12:
  89:command_telemetry.c ****     {
  90:command_telemetry.c ****         if (strstr(cmd_str, vec_sensor_commands[i].name))
 110              		.loc 1 90 0
 111 0008 6B00     		lsl	r3, r5, #1
 112 000a 5B19     		add	r3, r3, r5
 113 000c 9B00     		lsl	r3, r3, #2
 114 000e 0A4A     		ldr	r2, .L13
 115 0010 D318     		add	r3, r2, r3
 116 0012 196F     		ldr	r1, [r3, #112]
 117 0014 201C     		mov	r0, r4
 118 0016 FFF7FEFF 		bl	strstr
 119              	.LVL12:
 120 001a 0028     		cmp	r0, #0
 121 001c 07D0     		beq	.L10
  91:command_telemetry.c ****         {
  92:command_telemetry.c ****             return vec_sensor_commands[i].id;
 122              		.loc 1 92 0
 123 001e 6B00     		lsl	r3, r5, #1
 124 0020 5D19     		add	r5, r3, r5
 125              	.LVL13:
 126 0022 AD00     		lsl	r5, r5, #2
 127 0024 044B     		ldr	r3, .L13
 128 0026 5D19     		add	r5, r3, r5
 129 0028 6C23     		mov	r3, #108
 130 002a E85C     		ldrb	r0, [r5, r3]
 131 002c 03E0     		b	.L11
 132              	.LVL14:
 133              	.L10:
  88:command_telemetry.c ****     {
ARM GAS  C:\Users\MM1005~1\AppData\Local\Temp\ccukbKgl.s 			page 5


 134              		.loc 1 88 0 discriminator 2
 135 002e 0135     		add	r5, r5, #1
 136              	.LVL15:
 137              	.L9:
  88:command_telemetry.c ****     {
 138              		.loc 1 88 0 is_stmt 0 discriminator 1
 139 0030 012D     		cmp	r5, #1
 140 0032 E9DD     		ble	.L12
  93:command_telemetry.c ****         }
  94:command_telemetry.c ****     }// for all the commands
  95:command_telemetry.c ****     
  96:command_telemetry.c ****     return CMD_SENSOR_UNKNOWN;
 141              		.loc 1 96 0 is_stmt 1
 142 0034 0220     		mov	r0, #2
 143              	.LVL16:
 144              	.L11:
  97:command_telemetry.c **** }// get_sensor_cmd_id_from_cmd_string
 145              		.loc 1 97 0
 146              		@ sp needed
 147              	.LVL17:
 148 0036 38BD     		pop	{r3, r4, r5, pc}
 149              	.L14:
 150              		.align	2
 151              	.L13:
 152 0038 38000000 		.word	.LANCHOR0
 153              		.cfi_endproc
 154              	.LFE36:
 155              		.size	get_sensor_cmd_id_from_cmd_string, .-get_sensor_cmd_id_from_cmd_string
 156              		.section	.text.get_telemetry_cmd_id_from_cmd_string,"ax",%progbits
 157              		.align	2
 158              		.global	get_telemetry_cmd_id_from_cmd_string
 159              		.code	16
 160              		.thumb_func
 161              		.type	get_telemetry_cmd_id_from_cmd_string, %function
 162              	get_telemetry_cmd_id_from_cmd_string:
 163              	.LFB37:
  98:command_telemetry.c **** 
  99:command_telemetry.c **** //=============================================================================
 100:command_telemetry.c **** //======================================== get_telemetry_cmd_id_from_cmd_string
 101:command_telemetry.c **** //=============================================================================
 102:command_telemetry.c **** t_enum_telemetry_command get_telemetry_cmd_id_from_cmd_string (const char* cmd_str)
 103:command_telemetry.c **** {
 164              		.loc 1 103 0
 165              		.cfi_startproc
 166              	.LVL18:
 167 0000 38B5     		push	{r3, r4, r5, lr}
 168              		.cfi_def_cfa_offset 16
 169              		.cfi_offset 3, -16
 170              		.cfi_offset 4, -12
 171              		.cfi_offset 5, -8
 172              		.cfi_offset 14, -4
 173 0002 041C     		mov	r4, r0
 174              	.LVL19:
 104:command_telemetry.c ****     int i;
 105:command_telemetry.c ****     
 106:command_telemetry.c ****     for (i = 0; i < CMD_TELEMETRY_UNKNOWN; i++)
 175              		.loc 1 106 0
ARM GAS  C:\Users\MM1005~1\AppData\Local\Temp\ccukbKgl.s 			page 6


 176 0004 0025     		mov	r5, #0
 177 0006 12E0     		b	.L16
 178              	.LVL20:
 179              	.L19:
 107:command_telemetry.c ****     {
 108:command_telemetry.c ****         if (strstr(cmd_str, vec_telemetry_commands[i].name))
 180              		.loc 1 108 0
 181 0008 6B00     		lsl	r3, r5, #1
 182 000a 5B19     		add	r3, r3, r5
 183 000c 9B00     		lsl	r3, r3, #2
 184 000e 0A4A     		ldr	r2, .L20
 185 0010 D318     		add	r3, r2, r3
 186 0012 9968     		ldr	r1, [r3, #8]
 187 0014 201C     		mov	r0, r4
 188 0016 FFF7FEFF 		bl	strstr
 189              	.LVL21:
 190 001a 0028     		cmp	r0, #0
 191 001c 06D0     		beq	.L17
 109:command_telemetry.c ****         {
 110:command_telemetry.c ****             return vec_telemetry_commands[i].id;
 192              		.loc 1 110 0
 193 001e 6B00     		lsl	r3, r5, #1
 194 0020 5D19     		add	r5, r3, r5
 195              	.LVL22:
 196 0022 AD00     		lsl	r5, r5, #2
 197 0024 044B     		ldr	r3, .L20
 198 0026 5D19     		add	r5, r3, r5
 199 0028 2879     		ldrb	r0, [r5, #4]
 200 002a 03E0     		b	.L18
 201              	.LVL23:
 202              	.L17:
 106:command_telemetry.c ****     {
 203              		.loc 1 106 0 discriminator 2
 204 002c 0135     		add	r5, r5, #1
 205              	.LVL24:
 206              	.L16:
 106:command_telemetry.c ****     {
 207              		.loc 1 106 0 is_stmt 0 discriminator 1
 208 002e 012D     		cmp	r5, #1
 209 0030 EADD     		ble	.L19
 111:command_telemetry.c ****         }
 112:command_telemetry.c ****     }// for all the commands
 113:command_telemetry.c ****     
 114:command_telemetry.c ****     return CMD_TELEMETRY_UNKNOWN;
 210              		.loc 1 114 0 is_stmt 1
 211 0032 0220     		mov	r0, #2
 212              	.LVL25:
 213              	.L18:
 115:command_telemetry.c **** }// get_telemetry_cmd_id_from_cmd_string
 214              		.loc 1 115 0
 215              		@ sp needed
 216              	.LVL26:
 217 0034 38BD     		pop	{r3, r4, r5, pc}
 218              	.L21:
 219 0036 C046     		.align	2
 220              	.L20:
 221 0038 B8000000 		.word	.LANCHOR1
ARM GAS  C:\Users\MM1005~1\AppData\Local\Temp\ccukbKgl.s 			page 7


 222              		.cfi_endproc
 223              	.LFE37:
 224              		.size	get_telemetry_cmd_id_from_cmd_string, .-get_telemetry_cmd_id_from_cmd_string
 225              		.section	.text.get_tracker_cmd_id_from_cmd_string,"ax",%progbits
 226              		.align	2
 227              		.global	get_tracker_cmd_id_from_cmd_string
 228              		.code	16
 229              		.thumb_func
 230              		.type	get_tracker_cmd_id_from_cmd_string, %function
 231              	get_tracker_cmd_id_from_cmd_string:
 232              	.LFB38:
 116:command_telemetry.c **** 
 117:command_telemetry.c **** //=============================================================================
 118:command_telemetry.c **** //========================================== get_tracker_cmd_id_from_cmd_string
 119:command_telemetry.c **** //=============================================================================
 120:command_telemetry.c **** t_enum_tracker_command get_tracker_cmd_id_from_cmd_string(const char* cmd_str)
 121:command_telemetry.c **** {
 233              		.loc 1 121 0
 234              		.cfi_startproc
 235              	.LVL27:
 236 0000 38B5     		push	{r3, r4, r5, lr}
 237              		.cfi_def_cfa_offset 16
 238              		.cfi_offset 3, -16
 239              		.cfi_offset 4, -12
 240              		.cfi_offset 5, -8
 241              		.cfi_offset 14, -4
 242 0002 041C     		mov	r4, r0
 243              	.LVL28:
 122:command_telemetry.c ****     int i;
 123:command_telemetry.c ****     
 124:command_telemetry.c ****     for (i = 0; i < CMD_TRACKER_UNKNOWN; i++)
 244              		.loc 1 124 0
 245 0004 0025     		mov	r5, #0
 246 0006 12E0     		b	.L23
 247              	.LVL29:
 248              	.L26:
 125:command_telemetry.c ****     {
 126:command_telemetry.c ****         if (strstr(cmd_str, vec_tracker_commands[i].name))
 249              		.loc 1 126 0
 250 0008 6B00     		lsl	r3, r5, #1
 251 000a 5B19     		add	r3, r3, r5
 252 000c 9B00     		lsl	r3, r3, #2
 253 000e 0A4A     		ldr	r2, .L27
 254 0010 D318     		add	r3, r2, r3
 255 0012 196A     		ldr	r1, [r3, #32]
 256 0014 201C     		mov	r0, r4
 257 0016 FFF7FEFF 		bl	strstr
 258              	.LVL30:
 259 001a 0028     		cmp	r0, #0
 260 001c 06D0     		beq	.L24
 127:command_telemetry.c ****         {
 128:command_telemetry.c ****             return vec_tracker_commands[i].id;
 261              		.loc 1 128 0
 262 001e 6B00     		lsl	r3, r5, #1
 263 0020 5D19     		add	r5, r3, r5
 264              	.LVL31:
 265 0022 AD00     		lsl	r5, r5, #2
ARM GAS  C:\Users\MM1005~1\AppData\Local\Temp\ccukbKgl.s 			page 8


 266 0024 044B     		ldr	r3, .L27
 267 0026 5D19     		add	r5, r3, r5
 268 0028 287F     		ldrb	r0, [r5, #28]
 269 002a 03E0     		b	.L25
 270              	.LVL32:
 271              	.L24:
 124:command_telemetry.c ****     {
 272              		.loc 1 124 0 discriminator 2
 273 002c 0135     		add	r5, r5, #1
 274              	.LVL33:
 275              	.L23:
 124:command_telemetry.c ****     {
 276              		.loc 1 124 0 is_stmt 0 discriminator 1
 277 002e 022D     		cmp	r5, #2
 278 0030 EADD     		ble	.L26
 129:command_telemetry.c ****         }
 130:command_telemetry.c ****     }// for all the commands
 131:command_telemetry.c ****     
 132:command_telemetry.c ****     return CMD_TRACKER_UNKNOWN;
 279              		.loc 1 132 0 is_stmt 1
 280 0032 0320     		mov	r0, #3
 281              	.LVL34:
 282              	.L25:
 133:command_telemetry.c **** }// get_anim_cmd_id_from_cmd_string
 283              		.loc 1 133 0
 284              		@ sp needed
 285              	.LVL35:
 286 0034 38BD     		pop	{r3, r4, r5, pc}
 287              	.L28:
 288 0036 C046     		.align	2
 289              	.L27:
 290 0038 B8000000 		.word	.LANCHOR1
 291              		.cfi_endproc
 292              	.LFE38:
 293              		.size	get_tracker_cmd_id_from_cmd_string, .-get_tracker_cmd_id_from_cmd_string
 294              		.section	.text.get_anim_cmd_id_from_cmd_string,"ax",%progbits
 295              		.align	2
 296              		.global	get_anim_cmd_id_from_cmd_string
 297              		.code	16
 298              		.thumb_func
 299              		.type	get_anim_cmd_id_from_cmd_string, %function
 300              	get_anim_cmd_id_from_cmd_string:
 301              	.LFB39:
 134:command_telemetry.c **** 
 135:command_telemetry.c **** //=============================================================================
 136:command_telemetry.c **** //============================================= get_anim_cmd_id_from_cmd_string
 137:command_telemetry.c **** //=============================================================================
 138:command_telemetry.c **** t_enum_anim_command get_anim_cmd_id_from_cmd_string(const char* cmd_str)
 139:command_telemetry.c **** {
 302              		.loc 1 139 0
 303              		.cfi_startproc
 304              	.LVL36:
 305 0000 38B5     		push	{r3, r4, r5, lr}
 306              		.cfi_def_cfa_offset 16
 307              		.cfi_offset 3, -16
 308              		.cfi_offset 4, -12
 309              		.cfi_offset 5, -8
ARM GAS  C:\Users\MM1005~1\AppData\Local\Temp\ccukbKgl.s 			page 9


 310              		.cfi_offset 14, -4
 311 0002 041C     		mov	r4, r0
 312              	.LVL37:
 140:command_telemetry.c ****     int i;
 141:command_telemetry.c ****     
 142:command_telemetry.c ****     for (i = 0; i < CMD_ANIM_UNKNOWN; i++)
 313              		.loc 1 142 0
 314 0004 0025     		mov	r5, #0
 315 0006 13E0     		b	.L30
 316              	.LVL38:
 317              	.L33:
 143:command_telemetry.c ****     {
 144:command_telemetry.c ****         if (strstr(cmd_str, vec_anim_commands[i].name))
 318              		.loc 1 144 0
 319 0008 6B00     		lsl	r3, r5, #1
 320 000a 5B19     		add	r3, r3, r5
 321 000c 9B00     		lsl	r3, r3, #2
 322 000e 0A4A     		ldr	r2, .L34
 323 0010 D318     		add	r3, r2, r3
 324 0012 596C     		ldr	r1, [r3, #68]
 325 0014 201C     		mov	r0, r4
 326 0016 FFF7FEFF 		bl	strstr
 327              	.LVL39:
 328 001a 0028     		cmp	r0, #0
 329 001c 07D0     		beq	.L31
 145:command_telemetry.c ****         {
 146:command_telemetry.c ****             return vec_anim_commands[i].id;
 330              		.loc 1 146 0
 331 001e 6B00     		lsl	r3, r5, #1
 332 0020 5D19     		add	r5, r3, r5
 333              	.LVL40:
 334 0022 AD00     		lsl	r5, r5, #2
 335 0024 044B     		ldr	r3, .L34
 336 0026 5D19     		add	r5, r3, r5
 337 0028 4023     		mov	r3, #64
 338 002a E85C     		ldrb	r0, [r5, r3]
 339 002c 03E0     		b	.L32
 340              	.LVL41:
 341              	.L31:
 142:command_telemetry.c ****     {
 342              		.loc 1 142 0 discriminator 2
 343 002e 0135     		add	r5, r5, #1
 344              	.LVL42:
 345              	.L30:
 142:command_telemetry.c ****     {
 346              		.loc 1 142 0 is_stmt 0 discriminator 1
 347 0030 032D     		cmp	r5, #3
 348 0032 E9DD     		ble	.L33
 147:command_telemetry.c ****         }
 148:command_telemetry.c ****     }// for all the commands
 149:command_telemetry.c ****     
 150:command_telemetry.c ****     return CMD_ANIM_UNKNOWN;
 349              		.loc 1 150 0 is_stmt 1
 350 0034 0420     		mov	r0, #4
 351              	.LVL43:
 352              	.L32:
 151:command_telemetry.c **** }// get_anim_cmd_id_from_cmd_string
ARM GAS  C:\Users\MM1005~1\AppData\Local\Temp\ccukbKgl.s 			page 10


 353              		.loc 1 151 0
 354              		@ sp needed
 355              	.LVL44:
 356 0036 38BD     		pop	{r3, r4, r5, pc}
 357              	.L35:
 358              		.align	2
 359              	.L34:
 360 0038 B8000000 		.word	.LANCHOR1
 361              		.cfi_endproc
 362              	.LFE39:
 363              		.size	get_anim_cmd_id_from_cmd_string, .-get_anim_cmd_id_from_cmd_string
 364              		.section	.text.get_anim_id_from_cmd_string,"ax",%progbits
 365              		.align	2
 366              		.global	get_anim_id_from_cmd_string
 367              		.code	16
 368              		.thumb_func
 369              		.type	get_anim_id_from_cmd_string, %function
 370              	get_anim_id_from_cmd_string:
 371              	.LFB40:
 152:command_telemetry.c **** 
 153:command_telemetry.c **** //=============================================================================
 154:command_telemetry.c **** //================================================= get_anim_id_from_cmd_string
 155:command_telemetry.c **** //=============================================================================
 156:command_telemetry.c **** t_enum_animation get_anim_id_from_cmd_string(const char* cmd_str)
 157:command_telemetry.c **** {
 372              		.loc 1 157 0
 373              		.cfi_startproc
 374              	.LVL45:
 375 0000 30B5     		push	{r4, r5, lr}
 376              		.cfi_def_cfa_offset 12
 377              		.cfi_offset 4, -12
 378              		.cfi_offset 5, -8
 379              		.cfi_offset 14, -4
 380 0002 85B0     		sub	sp, sp, #20
 381              		.cfi_def_cfa_offset 32
 382 0004 051C     		mov	r5, r0
 383              	.LVL46:
 158:command_telemetry.c ****     int                i;
 159:command_telemetry.c ****     t_struct_animation animation;
 160:command_telemetry.c ****     
 161:command_telemetry.c ****     for (i = 0; i < ANIM_UNKNOWN; i++)
 384              		.loc 1 161 0
 385 0006 0024     		mov	r4, #0
 386 0008 0DE0     		b	.L37
 387              	.LVL47:
 388              	.L40:
 162:command_telemetry.c ****     {
 163:command_telemetry.c ****         get_animation ((t_enum_animation) i, &animation);
 389              		.loc 1 163 0
 390 000a E0B2     		uxtb	r0, r4
 391 000c 01A9     		add	r1, sp, #4
 392 000e FFF7FEFF 		bl	get_animation
 393              	.LVL48:
 164:command_telemetry.c ****         if (strstr(cmd_str, animation.description))
 394              		.loc 1 164 0
 395 0012 0399     		ldr	r1, [sp, #12]
 396 0014 281C     		mov	r0, r5
ARM GAS  C:\Users\MM1005~1\AppData\Local\Temp\ccukbKgl.s 			page 11


 397 0016 FFF7FEFF 		bl	strstr
 398              	.LVL49:
 399 001a 0028     		cmp	r0, #0
 400 001c 02D0     		beq	.L38
 165:command_telemetry.c ****         {
 166:command_telemetry.c ****             return animation.id;
 401              		.loc 1 166 0
 402 001e 01AB     		add	r3, sp, #4
 403 0020 1878     		ldrb	r0, [r3]
 404 0022 03E0     		b	.L39
 405              	.L38:
 161:command_telemetry.c ****     {
 406              		.loc 1 161 0 discriminator 2
 407 0024 0134     		add	r4, r4, #1
 408              	.LVL50:
 409              	.L37:
 161:command_telemetry.c ****     {
 410              		.loc 1 161 0 is_stmt 0 discriminator 1
 411 0026 0D2C     		cmp	r4, #13
 412 0028 EFDD     		ble	.L40
 167:command_telemetry.c ****         }
 168:command_telemetry.c ****     }// for all the commands
 169:command_telemetry.c ****     
 170:command_telemetry.c ****     return ANIM_UNKNOWN;
 413              		.loc 1 170 0 is_stmt 1
 414 002a 0E20     		mov	r0, #14
 415              	.L39:
 171:command_telemetry.c **** }// get_anim_cmd_id_from_cmd_string
 416              		.loc 1 171 0
 417 002c 05B0     		add	sp, sp, #20
 418              		@ sp needed
 419              	.LVL51:
 420              	.LVL52:
 421 002e 30BD     		pop	{r4, r5, pc}
 422              		.cfi_endproc
 423              	.LFE40:
 424              		.size	get_anim_id_from_cmd_string, .-get_anim_id_from_cmd_string
 425              		.section	.text.get_boot_cmd_id_from_cmd_string,"ax",%progbits
 426              		.align	2
 427              		.global	get_boot_cmd_id_from_cmd_string
 428              		.code	16
 429              		.thumb_func
 430              		.type	get_boot_cmd_id_from_cmd_string, %function
 431              	get_boot_cmd_id_from_cmd_string:
 432              	.LFB41:
 172:command_telemetry.c **** 
 173:command_telemetry.c **** //=============================================================================
 174:command_telemetry.c **** //============================================= get_boot_cmd_id_from_cmd_string
 175:command_telemetry.c **** //=============================================================================
 176:command_telemetry.c **** t_enum_bootloader_command get_boot_cmd_id_from_cmd_string(const char* cmd_str)
 177:command_telemetry.c **** {
 433              		.loc 1 177 0
 434              		.cfi_startproc
 435              	.LVL53:
 436 0000 38B5     		push	{r3, r4, r5, lr}
 437              		.cfi_def_cfa_offset 16
 438              		.cfi_offset 3, -16
ARM GAS  C:\Users\MM1005~1\AppData\Local\Temp\ccukbKgl.s 			page 12


 439              		.cfi_offset 4, -12
 440              		.cfi_offset 5, -8
 441              		.cfi_offset 14, -4
 442 0002 041C     		mov	r4, r0
 443              	.LVL54:
 178:command_telemetry.c ****     int i;
 179:command_telemetry.c ****     
 180:command_telemetry.c ****     for (i = 0; i < CMD_BOOT_UNKNOWN; i++)
 444              		.loc 1 180 0
 445 0004 0025     		mov	r5, #0
 446 0006 13E0     		b	.L42
 447              	.LVL55:
 448              	.L45:
 181:command_telemetry.c ****     {
 182:command_telemetry.c ****         if (strstr(cmd_str, vec_boot_commands[i].name))
 449              		.loc 1 182 0
 450 0008 6B00     		lsl	r3, r5, #1
 451 000a 5B19     		add	r3, r3, r5
 452 000c 9B00     		lsl	r3, r3, #2
 453 000e 0A4A     		ldr	r2, .L46
 454 0010 D318     		add	r3, r2, r3
 455 0012 596F     		ldr	r1, [r3, #116]
 456 0014 201C     		mov	r0, r4
 457 0016 FFF7FEFF 		bl	strstr
 458              	.LVL56:
 459 001a 0028     		cmp	r0, #0
 460 001c 07D0     		beq	.L43
 183:command_telemetry.c ****         {
 184:command_telemetry.c ****             return vec_boot_commands[i].id;
 461              		.loc 1 184 0
 462 001e 6B00     		lsl	r3, r5, #1
 463 0020 5D19     		add	r5, r3, r5
 464              	.LVL57:
 465 0022 AD00     		lsl	r5, r5, #2
 466 0024 044B     		ldr	r3, .L46
 467 0026 5D19     		add	r5, r3, r5
 468 0028 7023     		mov	r3, #112
 469 002a E85C     		ldrb	r0, [r5, r3]
 470 002c 03E0     		b	.L44
 471              	.LVL58:
 472              	.L43:
 180:command_telemetry.c ****     {
 473              		.loc 1 180 0 discriminator 2
 474 002e 0135     		add	r5, r5, #1
 475              	.LVL59:
 476              	.L42:
 180:command_telemetry.c ****     {
 477              		.loc 1 180 0 is_stmt 0 discriminator 1
 478 0030 022D     		cmp	r5, #2
 479 0032 E9DD     		ble	.L45
 185:command_telemetry.c ****         }
 186:command_telemetry.c ****     }// for all the commands
 187:command_telemetry.c ****     
 188:command_telemetry.c ****     return CMD_BOOT_UNKNOWN;
 480              		.loc 1 188 0 is_stmt 1
 481 0034 0320     		mov	r0, #3
 482              	.LVL60:
ARM GAS  C:\Users\MM1005~1\AppData\Local\Temp\ccukbKgl.s 			page 13


 483              	.L44:
 189:command_telemetry.c **** }// get_boot_cmd_id_from_cmd_string
 484              		.loc 1 189 0
 485              		@ sp needed
 486              	.LVL61:
 487 0036 38BD     		pop	{r3, r4, r5, pc}
 488              	.L47:
 489              		.align	2
 490              	.L46:
 491 0038 B8000000 		.word	.LANCHOR1
 492              		.cfi_endproc
 493              	.LFE41:
 494              		.size	get_boot_cmd_id_from_cmd_string, .-get_boot_cmd_id_from_cmd_string
 495              		.section	.text.get_led_cmd_id_from_cmd_string,"ax",%progbits
 496              		.align	2
 497              		.global	get_led_cmd_id_from_cmd_string
 498              		.code	16
 499              		.thumb_func
 500              		.type	get_led_cmd_id_from_cmd_string, %function
 501              	get_led_cmd_id_from_cmd_string:
 502              	.LFB42:
 190:command_telemetry.c **** 
 191:command_telemetry.c **** //=============================================================================
 192:command_telemetry.c **** //============================================== get_led_cmd_id_from_cmd_string
 193:command_telemetry.c **** //=============================================================================
 194:command_telemetry.c **** t_enum_led_command get_led_cmd_id_from_cmd_string(const char* cmd_str)
 195:command_telemetry.c **** {
 503              		.loc 1 195 0
 504              		.cfi_startproc
 505              	.LVL62:
 506 0000 38B5     		push	{r3, r4, r5, lr}
 507              		.cfi_def_cfa_offset 16
 508              		.cfi_offset 3, -16
 509              		.cfi_offset 4, -12
 510              		.cfi_offset 5, -8
 511              		.cfi_offset 14, -4
 512 0002 041C     		mov	r4, r0
 513              	.LVL63:
 196:command_telemetry.c ****     int i;
 197:command_telemetry.c ****     
 198:command_telemetry.c ****     for (i = 0; i < CMD_LED_UNKNOWN; i++)
 514              		.loc 1 198 0
 515 0004 0025     		mov	r5, #0
 516 0006 12E0     		b	.L49
 517              	.LVL64:
 518              	.L52:
 199:command_telemetry.c ****     {
 200:command_telemetry.c ****         if (strstr(cmd_str, vec_led_commands[i].name))
 519              		.loc 1 200 0
 520 0008 6B00     		lsl	r3, r5, #1
 521 000a 5B19     		add	r3, r3, r5
 522 000c 9B00     		lsl	r3, r3, #2
 523 000e 0A4A     		ldr	r2, .L53
 524 0010 D318     		add	r3, r2, r3
 525 0012 9969     		ldr	r1, [r3, #24]
 526 0014 201C     		mov	r0, r4
 527 0016 FFF7FEFF 		bl	strstr
ARM GAS  C:\Users\MM1005~1\AppData\Local\Temp\ccukbKgl.s 			page 14


 528              	.LVL65:
 529 001a 0028     		cmp	r0, #0
 530 001c 06D0     		beq	.L50
 201:command_telemetry.c ****         {
 202:command_telemetry.c ****             return vec_led_commands[i].id;
 531              		.loc 1 202 0
 532 001e 6B00     		lsl	r3, r5, #1
 533 0020 5D19     		add	r5, r3, r5
 534              	.LVL66:
 535 0022 AD00     		lsl	r5, r5, #2
 536 0024 044B     		ldr	r3, .L53
 537 0026 5D19     		add	r5, r3, r5
 538 0028 287D     		ldrb	r0, [r5, #20]
 539 002a 03E0     		b	.L51
 540              	.LVL67:
 541              	.L50:
 198:command_telemetry.c ****     {
 542              		.loc 1 198 0 discriminator 2
 543 002c 0135     		add	r5, r5, #1
 544              	.LVL68:
 545              	.L49:
 198:command_telemetry.c ****     {
 546              		.loc 1 198 0 is_stmt 0 discriminator 1
 547 002e 042D     		cmp	r5, #4
 548 0030 EADD     		ble	.L52
 203:command_telemetry.c ****         }
 204:command_telemetry.c ****     }// for all the commands
 205:command_telemetry.c ****     
 206:command_telemetry.c ****     return CMD_LED_UNKNOWN;
 549              		.loc 1 206 0 is_stmt 1
 550 0032 0520     		mov	r0, #5
 551              	.LVL69:
 552              	.L51:
 207:command_telemetry.c **** }// get_led_cmd_id_from_cmd_string
 553              		.loc 1 207 0
 554              		@ sp needed
 555              	.LVL70:
 556 0034 38BD     		pop	{r3, r4, r5, pc}
 557              	.L54:
 558 0036 C046     		.align	2
 559              	.L53:
 560 0038 38010000 		.word	.LANCHOR2
 561              		.cfi_endproc
 562              	.LFE42:
 563              		.size	get_led_cmd_id_from_cmd_string, .-get_led_cmd_id_from_cmd_string
 564              		.section	.text.send_bootloader_config_telemetry,"ax",%progbits
 565              		.align	2
 566              		.global	send_bootloader_config_telemetry
 567              		.code	16
 568              		.thumb_func
 569              		.type	send_bootloader_config_telemetry, %function
 570              	send_bootloader_config_telemetry:
 571              	.LFB44:
 208:command_telemetry.c **** 
 209:command_telemetry.c **** //=============================================================================
 210:command_telemetry.c **** //=================================================== parse_and_execute_command
 211:command_telemetry.c **** //=============================================================================
ARM GAS  C:\Users\MM1005~1\AppData\Local\Temp\ccukbKgl.s 			page 15


 212:command_telemetry.c **** BOOL parse_and_execute_command(const char* cmd_str_and_param)
 213:command_telemetry.c **** { 
 214:command_telemetry.c ****     t_enum_command            cmd_id           = CMD_UNKNOWN;
 215:command_telemetry.c ****     t_enum_anim_command       anim_cmd_id      = CMD_ANIM_UNKNOWN;
 216:command_telemetry.c ****     t_enum_animation          anim_id          = ANIM_UNKNOWN;
 217:command_telemetry.c ****     t_enum_led_command        led_cmd_id       = CMD_LED_UNKNOWN;
 218:command_telemetry.c ****     t_enum_sensor_command     sensor_cmd_id    = CMD_SENSOR_UNKNOWN;
 219:command_telemetry.c ****     t_enum_telemetry_command  telemetry_cmd_id = CMD_TELEMETRY_UNKNOWN;
 220:command_telemetry.c ****     t_enum_tracker_command    tracker_cmd_id   = CMD_TRACKER_UNKNOWN;
 221:command_telemetry.c ****     t_enum_bootloader_command boot_cmd_id      = CMD_BOOT_UNKNOWN;   
 222:command_telemetry.c ****     char*                     param_str        = strchr(cmd_str_and_param, ',');
 223:command_telemetry.c ****     char*                     next_param_str   = NULL; 
 224:command_telemetry.c ****     int                       red              = 0;
 225:command_telemetry.c ****     int                       green            = 0;
 226:command_telemetry.c ****     int                       blue             = 0;
 227:command_telemetry.c ****     int                       led_index        = 0;
 228:command_telemetry.c ****     int                       led_intensity    = 0;
 229:command_telemetry.c **** #if 0   
 230:command_telemetry.c ****     uint32                    flash_checksum   = 0;
 231:command_telemetry.c ****     uint32                    flash_first_row  = 0;
 232:command_telemetry.c ****     uint32                    flash_last_row   = 0;
 233:command_telemetry.c ****     uint32                    flash_size       = 0;
 234:command_telemetry.c **** #endif // USE_BOOTLOADER    
 235:command_telemetry.c ****     t_struct_animation        animation;
 236:command_telemetry.c ****     uint16                    led_vec[MAX_LEDS]; 
 237:command_telemetry.c ****     int                       i;
 238:command_telemetry.c ****     
 239:command_telemetry.c ****     if (param_str == NULL)
 240:command_telemetry.c ****     {
 241:command_telemetry.c ****         send_alarm_telemetry(ALARM_WARNING, cmd_str_and_param, "can't find comma in command");
 242:command_telemetry.c ****         return FALSE;    
 243:command_telemetry.c ****     }// If we can't a comma inside the command
 244:command_telemetry.c ****    
 245:command_telemetry.c ****     cmd_id = get_cmd_id_from_cmd_string(param_str++);
 246:command_telemetry.c ****     
 247:command_telemetry.c ****     switch (cmd_id)
 248:command_telemetry.c ****     {
 249:command_telemetry.c ****         case CMD_CAPSENSE:
 250:command_telemetry.c ****         {
 251:command_telemetry.c ****             send_alarm_telemetry(ALARM_WARNING, cmd_str_and_param, "FIXME!");
 252:command_telemetry.c ****             return FALSE;    
 253:command_telemetry.c ****         }// CMD_CAPSENSE
 254:command_telemetry.c ****         
 255:command_telemetry.c ****         case CMD_HELP:
 256:command_telemetry.c ****         {
 257:command_telemetry.c ****             for (i = 0; i < CMD_UNKNOWN; i++)
 258:command_telemetry.c ****             {
 259:command_telemetry.c ****                 send_alarm_telemetry(ALARM_LOG, vec_commands[i].name, vec_commands[i].description);
 260:command_telemetry.c ****             }// for all the commands
 261:command_telemetry.c ****             
 262:command_telemetry.c ****             for (i = 0; i < ANIM_UNKNOWN; i++)
 263:command_telemetry.c ****             {
 264:command_telemetry.c ****                 get_animation ((t_enum_animation) i, &animation);
 265:command_telemetry.c ****                 send_alarm_telemetry(ALARM_LOG, "animation", animation.description);
 266:command_telemetry.c ****             }// for all the commands
 267:command_telemetry.c ****             
 268:command_telemetry.c ****             break;      
ARM GAS  C:\Users\MM1005~1\AppData\Local\Temp\ccukbKgl.s 			page 16


 269:command_telemetry.c ****         }// CMD_HELP
 270:command_telemetry.c ****         
 271:command_telemetry.c ****         case CMD_ANIMATION:
 272:command_telemetry.c ****         {
 273:command_telemetry.c ****             if ((param_str = strchr(param_str, ',')) == NULL)
 274:command_telemetry.c ****             {
 275:command_telemetry.c ****                 send_alarm_telemetry(ALARM_WARNING, cmd_str_and_param, "unsupported animation actio
 276:command_telemetry.c ****                 return FALSE;
 277:command_telemetry.c ****             }// If we can't find the next ',' character
 278:command_telemetry.c ****             
 279:command_telemetry.c ****             if ((param_str = strchr(++param_str, ':')) == NULL)
 280:command_telemetry.c ****             {
 281:command_telemetry.c ****                 send_alarm_telemetry(ALARM_WARNING, cmd_str_and_param, "unsupported animation actio
 282:command_telemetry.c ****                 return FALSE;
 283:command_telemetry.c ****             }// If we can't find the next ':' character
 284:command_telemetry.c ****             param_str++;
 285:command_telemetry.c ****             
 286:command_telemetry.c ****             switch (anim_cmd_id = get_anim_cmd_id_from_cmd_string(param_str))
 287:command_telemetry.c ****             {
 288:command_telemetry.c ****                 case CMD_ANIM_AUTO:
 289:command_telemetry.c ****                 {
 290:command_telemetry.c ****                     set_is_auto_anim_rotation_enable(TRUE);
 291:command_telemetry.c ****                     break;
 292:command_telemetry.c ****                 }// CMD_ANIM_AUTO
 293:command_telemetry.c ****                 
 294:command_telemetry.c ****                 case CMD_ANIM_MANUAL:
 295:command_telemetry.c ****                 {
 296:command_telemetry.c ****                     set_is_auto_anim_rotation_enable(FALSE);
 297:command_telemetry.c ****                     break;
 298:command_telemetry.c ****                 }// CMD_ANIM_MANUAL
 299:command_telemetry.c ****                 
 300:command_telemetry.c ****                 case CMD_ANIM_STOP:
 301:command_telemetry.c ****                 {
 302:command_telemetry.c ****                     set_is_anim_on_button_up_enable(FALSE);
 303:command_telemetry.c ****                     break;
 304:command_telemetry.c ****                 }// CMD_ANIM_STOP
 305:command_telemetry.c ****                 
 306:command_telemetry.c ****                 case CMD_ANIM_RESUME:
 307:command_telemetry.c ****                 {
 308:command_telemetry.c ****                     set_is_anim_on_button_up_enable(TRUE);
 309:command_telemetry.c ****                     break;
 310:command_telemetry.c ****                 }// CMD_ANIM_RESUME
 311:command_telemetry.c ****                 
 312:command_telemetry.c ****                 case CMD_ANIM_UNKNOWN:
 313:command_telemetry.c ****                 default              :
 314:command_telemetry.c ****                 {
 315:command_telemetry.c ****                     if ((anim_id = get_anim_id_from_cmd_string(param_str)) != ANIM_UNKNOWN)
 316:command_telemetry.c ****                     {
 317:command_telemetry.c ****                         set_current_callback_anim(anim_id);
 318:command_telemetry.c ****                     }// if we found a valid animation description in the command
 319:command_telemetry.c ****                     else
 320:command_telemetry.c ****                     {
 321:command_telemetry.c ****                         send_alarm_telemetry(ALARM_WARNING, cmd_str_and_param, "unsupported animati
 322:command_telemetry.c ****                         return FALSE;
 323:command_telemetry.c ****                     }// else, we couldn't find a valid animation 
 324:command_telemetry.c ****                     break;
 325:command_telemetry.c ****                 }// CMD_ANIM_UNKOWN, default
ARM GAS  C:\Users\MM1005~1\AppData\Local\Temp\ccukbKgl.s 			page 17


 326:command_telemetry.c ****             }// switch on the animation command
 327:command_telemetry.c ****             break;  
 328:command_telemetry.c ****         }// CMD_SET_ANIMATION
 329:command_telemetry.c ****         
 330:command_telemetry.c ****         case CMD_BOOTLOADER:
 331:command_telemetry.c ****         {
 332:command_telemetry.c ****             if ((param_str = strchr(param_str, ',')) == NULL)
 333:command_telemetry.c ****             {
 334:command_telemetry.c ****                 send_alarm_telemetry(ALARM_WARNING, cmd_str_and_param, "unsupported sensor action")
 335:command_telemetry.c ****                 return FALSE;
 336:command_telemetry.c ****             }// If we can't find the next ',' character
 337:command_telemetry.c ****             
 338:command_telemetry.c ****             if ((param_str = strchr(++param_str, ':')) == NULL)
 339:command_telemetry.c ****             {
 340:command_telemetry.c ****                 send_alarm_telemetry(ALARM_WARNING, cmd_str_and_param, "unsupported sensor action")
 341:command_telemetry.c ****                 return FALSE;
 342:command_telemetry.c ****             }// If we can't find the next ':' character
 343:command_telemetry.c ****             param_str++;
 344:command_telemetry.c ****             
 345:command_telemetry.c ****             switch (boot_cmd_id = get_boot_cmd_id_from_cmd_string(param_str))
 346:command_telemetry.c ****             {
 347:command_telemetry.c ****                 case CMD_BOOT_START:
 348:command_telemetry.c ****                 {   
 349:command_telemetry.c **** 
 350:command_telemetry.c **** #if USE_BOOTLOADER                     
 351:command_telemetry.c ****                     Timer_1_Stop();
 352:command_telemetry.c ****                     Bootloadable_1_Load();
 353:command_telemetry.c **** #else 
 354:command_telemetry.c ****                     send_alarm_telemetry(ALARM_ERROR, cmd_str_and_param, "bootloader is disabled");
 355:command_telemetry.c **** #endif // USE_BOOTLOADER  
 356:command_telemetry.c ****                     break;
 357:command_telemetry.c ****                 }// CMD_BOOT_START      
 358:command_telemetry.c ****                 
 359:command_telemetry.c ****                 case CMD_BOOT_EXIT:
 360:command_telemetry.c ****                 {
 361:command_telemetry.c **** #if 0                    
 362:command_telemetry.c ****                     Bootloader_1_Exit(Bootloader_1_EXIT_TO_BTLDB);
 363:command_telemetry.c **** #else 
 364:command_telemetry.c ****                     send_alarm_telemetry(ALARM_ERROR, cmd_str_and_param, "bootloader is disabled");
 365:command_telemetry.c **** #endif // USE_BOOTLOADER      
 366:command_telemetry.c ****                     break;
 367:command_telemetry.c ****                 }// CMD_BOOT_EXIT
 368:command_telemetry.c ****                 
 369:command_telemetry.c ****                 case CMD_BOOT_GET_FLASH_GEO:
 370:command_telemetry.c ****                 {
 371:command_telemetry.c **** #if 0                   
 372:command_telemetry.c ****                     flash_checksum  = Bootloader_1_GetMetadata(Bootloader_1_GET_BTLDB_CHECKSUM, 0);
 373:command_telemetry.c ****                     flash_first_row = Bootloader_1_GetMetadata(Bootloader_1_GET_BTLDB_ADDR    , 0);
 374:command_telemetry.c ****                     flash_last_row  = Bootloader_1_GetMetadata(Bootloader_1_GET_BTLDR_LAST_ROW, 0);
 375:command_telemetry.c ****                     flash_size      = Bootloader_1_GetMetadata(Bootloader_1_GET_BTLDB_LENGTH  , 0);
 376:command_telemetry.c ****                     send_flash_geometry_telemetry(flash_checksum, flash_first_row, flash_last_row, 
 377:command_telemetry.c **** #else 
 378:command_telemetry.c ****                     send_alarm_telemetry(ALARM_ERROR, cmd_str_and_param, "bootloader is disabled");
 379:command_telemetry.c **** #endif // USE_BOOTLOADER  
 380:command_telemetry.c ****                     break;
 381:command_telemetry.c ****                 }// CMD_BOOT_EXIT
 382:command_telemetry.c ****                 
ARM GAS  C:\Users\MM1005~1\AppData\Local\Temp\ccukbKgl.s 			page 18


 383:command_telemetry.c ****                 case CMD_BOOT_UNKNOWN:
 384:command_telemetry.c ****                 default              :
 385:command_telemetry.c ****                 {
 386:command_telemetry.c ****                     send_alarm_telemetry(ALARM_WARNING, cmd_str_and_param, "unsupported bootloader 
 387:command_telemetry.c ****                     return FALSE;
 388:command_telemetry.c ****                 }// CMD_TRACKER_UNKNOWN, default
 389:command_telemetry.c ****             }// switch in the tracker action
 390:command_telemetry.c ****             break;
 391:command_telemetry.c ****             //send_alarm_telemetry(ALARM_WARNING, cmd_str_and_param, "jumping in bootloader");     
 392:command_telemetry.c ****            
 393:command_telemetry.c ****             break;
 394:command_telemetry.c ****         }// CMD_BOOTLOADER
 395:command_telemetry.c ****               
 396:command_telemetry.c ****         case CMD_LED:
 397:command_telemetry.c ****         {
 398:command_telemetry.c ****             switch (led_cmd_id = get_led_cmd_id_from_cmd_string(param_str))
 399:command_telemetry.c ****             {
 400:command_telemetry.c ****                 case CMD_LED_CLEAR:
 401:command_telemetry.c ****                 {
 402:command_telemetry.c ****                     set_all_leds_intensity(0x00);
 403:command_telemetry.c ****                     break;
 404:command_telemetry.c ****                 }// CMD_LED_CLEAR
 405:command_telemetry.c ****                 
 406:command_telemetry.c ****                 case CMD_LED_SET_COLOR_LEFT:
 407:command_telemetry.c ****                 case CMD_LED_SET_COLOR_RIGHT:
 408:command_telemetry.c ****                 {
 409:command_telemetry.c ****                     if ((param_str = strchr(param_str, ',')) == NULL)
 410:command_telemetry.c ****                     {
 411:command_telemetry.c ****                         send_alarm_telemetry(ALARM_WARNING, cmd_str_and_param, "unsupported animati
 412:command_telemetry.c ****                         return FALSE;
 413:command_telemetry.c ****                     }// If we can't find the next ',' character
 414:command_telemetry.c ****                     
 415:command_telemetry.c ****                     if ((param_str = strchr(++param_str, ':')) == NULL)
 416:command_telemetry.c ****                     {
 417:command_telemetry.c ****                         send_alarm_telemetry(ALARM_WARNING, cmd_str_and_param, "can't parse red fro
 418:command_telemetry.c ****                         return FALSE;
 419:command_telemetry.c ****                     }// If we can't find the next ':' character
 420:command_telemetry.c **** 
 421:command_telemetry.c ****                     // ========================================================
 422:command_telemetry.c ****                     // parse red
 423:command_telemetry.c ****                     // ========================================================
 424:command_telemetry.c ****                     if ((param_str = strchr(++param_str, ':')) == NULL)
 425:command_telemetry.c ****                     {
 426:command_telemetry.c ****                         send_alarm_telemetry(ALARM_WARNING, cmd_str_and_param, "can't parse red fro
 427:command_telemetry.c ****                         return FALSE;
 428:command_telemetry.c ****                     }// If we can't find the next ':' character
 429:command_telemetry.c **** 
 430:command_telemetry.c ****                     if ((next_param_str = strchr(++param_str, ',')) == NULL)
 431:command_telemetry.c ****                     {
 432:command_telemetry.c ****                         send_alarm_telemetry(ALARM_WARNING, cmd_str_and_param, "can't parse red fro
 433:command_telemetry.c ****                         return FALSE;
 434:command_telemetry.c ****                     }// If we can't find the next ',' character
 435:command_telemetry.c ****                     *next_param_str = '\0';
 436:command_telemetry.c ****                     next_param_str++;
 437:command_telemetry.c ****                     
 438:command_telemetry.c ****                     red = atoi(param_str);
 439:command_telemetry.c ****                     
ARM GAS  C:\Users\MM1005~1\AppData\Local\Temp\ccukbKgl.s 			page 19


 440:command_telemetry.c ****                     // ========================================================
 441:command_telemetry.c ****                     // parse green
 442:command_telemetry.c ****                     // ========================================================
 443:command_telemetry.c ****                     if ((param_str = strchr(next_param_str, ':')) == NULL)
 444:command_telemetry.c ****                     {
 445:command_telemetry.c ****                         send_alarm_telemetry(ALARM_WARNING, cmd_str_and_param, "can't parse green f
 446:command_telemetry.c ****                         return FALSE;
 447:command_telemetry.c ****                     }// If we can't find the next ':' character
 448:command_telemetry.c **** 
 449:command_telemetry.c ****                     if ((next_param_str = strchr(++param_str, ',')) == NULL)
 450:command_telemetry.c ****                     {
 451:command_telemetry.c ****                         send_alarm_telemetry(ALARM_WARNING, cmd_str_and_param, "can't parsed green 
 452:command_telemetry.c ****                         return FALSE;
 453:command_telemetry.c ****                     }// If we can't find the next ',' character
 454:command_telemetry.c ****                     *next_param_str = '\0';
 455:command_telemetry.c ****                     next_param_str++;
 456:command_telemetry.c ****                     
 457:command_telemetry.c ****                     green = atoi(param_str);
 458:command_telemetry.c ****                     
 459:command_telemetry.c ****                     // ========================================================
 460:command_telemetry.c ****                     // parse blue
 461:command_telemetry.c ****                     // ========================================================
 462:command_telemetry.c ****                     if ((param_str = strchr(next_param_str, ':')) == NULL)
 463:command_telemetry.c ****                     {
 464:command_telemetry.c ****                         send_alarm_telemetry(ALARM_WARNING, cmd_str_and_param, "can't parse green f
 465:command_telemetry.c ****                         return FALSE;
 466:command_telemetry.c ****                     }// If we can't find the next ':' character
 467:command_telemetry.c ****                     
 468:command_telemetry.c ****                     blue = atoi(++param_str);                    
 469:command_telemetry.c ****                     // ========================================================
 470:command_telemetry.c ****                     // execute the command
 471:command_telemetry.c ****                     // ========================================================
 472:command_telemetry.c ****                     if (led_cmd_id == CMD_LED_SET_COLOR_LEFT)
 473:command_telemetry.c ****                     {
 474:command_telemetry.c ****                         set_led(E_LED_LEFT_RED  ,  red  );
 475:command_telemetry.c ****                         set_led(E_LED_LEFT_GREEN,  green);
 476:command_telemetry.c ****                         set_led(E_LED_LEFT_BLUE ,  blue );
 477:command_telemetry.c ****                     }// if it's the left colored LED
 478:command_telemetry.c ****                     else
 479:command_telemetry.c ****                     {
 480:command_telemetry.c ****                         set_led(E_LED_RIGHT_RED  ,  red  );
 481:command_telemetry.c ****                         set_led(E_LED_RIGHT_GREEN,  green);
 482:command_telemetry.c ****                         set_led(E_LED_RIGHT_BLUE ,  blue );
 483:command_telemetry.c ****                     }// if it's the right colored LED
 484:command_telemetry.c ****                     
 485:command_telemetry.c ****                     break;
 486:command_telemetry.c ****                 }// CMD_LED_SET_COLOR_LEFT
 487:command_telemetry.c ****                 
 488:command_telemetry.c ****                 case CMD_LED_SET_WHITE:
 489:command_telemetry.c ****                 {
 490:command_telemetry.c ****                     if ((param_str = strchr(param_str, ',')) == NULL)
 491:command_telemetry.c ****                     {
 492:command_telemetry.c ****                         send_alarm_telemetry(ALARM_WARNING, cmd_str_and_param, "unsupported animati
 493:command_telemetry.c ****                         return FALSE;
 494:command_telemetry.c ****                     }// If we can't find the next ',' character
 495:command_telemetry.c ****                     
 496:command_telemetry.c ****                     if ((param_str = strchr(++param_str, ':')) == NULL)
ARM GAS  C:\Users\MM1005~1\AppData\Local\Temp\ccukbKgl.s 			page 20


 497:command_telemetry.c ****                     {
 498:command_telemetry.c ****                         send_alarm_telemetry(ALARM_WARNING, cmd_str_and_param, "can't parse LED ind
 499:command_telemetry.c ****                         return FALSE;
 500:command_telemetry.c ****                     }// If we can't find the next ':' character
 501:command_telemetry.c **** 
 502:command_telemetry.c ****                     // ========================================================
 503:command_telemetry.c ****                     // parse index
 504:command_telemetry.c ****                     // ========================================================
 505:command_telemetry.c ****                     if ((param_str = strchr(++param_str, ':')) == NULL)
 506:command_telemetry.c ****                     {
 507:command_telemetry.c ****                         send_alarm_telemetry(ALARM_WARNING, cmd_str_and_param, "can't parse LED ind
 508:command_telemetry.c ****                         return FALSE;
 509:command_telemetry.c ****                     }// If we can't find the next ':' character
 510:command_telemetry.c **** 
 511:command_telemetry.c ****                     if ((next_param_str = strchr(++param_str, ',')) == NULL)
 512:command_telemetry.c ****                     {
 513:command_telemetry.c ****                         send_alarm_telemetry(ALARM_WARNING, cmd_str_and_param, "can't parse LED ind
 514:command_telemetry.c ****                         return FALSE;
 515:command_telemetry.c ****                     }// If we can't find the next ',' character
 516:command_telemetry.c ****                     *next_param_str = '\0';
 517:command_telemetry.c ****                     next_param_str++;
 518:command_telemetry.c ****                     
 519:command_telemetry.c ****                     led_index = atoi(param_str);
 520:command_telemetry.c ****                     
 521:command_telemetry.c ****                     if ((led_index < 0) || (led_index >= NUMBER_OF_WHITE_LEDS))
 522:command_telemetry.c ****                     {
 523:command_telemetry.c ****                         send_alarm_telemetry(ALARM_WARNING, cmd_str_and_param, "invalid led index")
 524:command_telemetry.c ****                         return FALSE;
 525:command_telemetry.c ****                     }
 526:command_telemetry.c ****                     
 527:command_telemetry.c ****                     // ========================================================
 528:command_telemetry.c ****                     // parse led intensity
 529:command_telemetry.c ****                     // ========================================================
 530:command_telemetry.c ****                     if ((param_str = strchr(next_param_str, ':')) == NULL)
 531:command_telemetry.c ****                     {
 532:command_telemetry.c ****                         send_alarm_telemetry(ALARM_WARNING, cmd_str_and_param, "can't parse green f
 533:command_telemetry.c ****                         return FALSE;
 534:command_telemetry.c ****                     }// If we can't find the next ':' character
 535:command_telemetry.c ****                     
 536:command_telemetry.c ****                     led_intensity = atoi(++param_str);     
 537:command_telemetry.c ****                     
 538:command_telemetry.c ****                     // ========================================================
 539:command_telemetry.c ****                     // execute the command
 540:command_telemetry.c ****                     // ========================================================
 541:command_telemetry.c ****                     set_led(led_index, led_intensity);
 542:command_telemetry.c ****                     break;
 543:command_telemetry.c ****                 }// CMD_LED_SET_WHITE
 544:command_telemetry.c ****                 
 545:command_telemetry.c ****                 case CMD_LED_SET_STRIP:
 546:command_telemetry.c ****                 {
 547:command_telemetry.c ****                     if ((param_str = strchr(param_str, ',')) == NULL)
 548:command_telemetry.c ****                     {
 549:command_telemetry.c ****                         send_alarm_telemetry(ALARM_WARNING, cmd_str_and_param, "can't parse LED str
 550:command_telemetry.c ****                         return FALSE;
 551:command_telemetry.c ****                     }// If we can't find the next ',' character
 552:command_telemetry.c ****                     
 553:command_telemetry.c ****                     if ((param_str = strchr(++param_str, ',')) == NULL)
ARM GAS  C:\Users\MM1005~1\AppData\Local\Temp\ccukbKgl.s 			page 21


 554:command_telemetry.c ****                     {
 555:command_telemetry.c ****                         send_alarm_telemetry(ALARM_WARNING, cmd_str_and_param, "can't parse LED str
 556:command_telemetry.c ****                         return FALSE;
 557:command_telemetry.c ****                     }// If we can't find the next ',' character 
 558:command_telemetry.c ****                     
 559:command_telemetry.c ****                     if ((param_str = strchr(++param_str, ':')) == NULL)
 560:command_telemetry.c ****                     {
 561:command_telemetry.c ****                         send_alarm_telemetry(ALARM_WARNING, cmd_str_and_param, "can't parse LED str
 562:command_telemetry.c ****                         return FALSE;
 563:command_telemetry.c ****                     }// If we can't find the next ':' character
 564:command_telemetry.c ****                     
 565:command_telemetry.c ****                     memset(led_vec, 0, sizeof(led_vec));
 566:command_telemetry.c ****                     
 567:command_telemetry.c ****                     //=========================================================
 568:command_telemetry.c ****                     // left red
 569:command_telemetry.c ****                     //=========================================================
 570:command_telemetry.c ****                     if ((param_str = strchr(++param_str, '\"')) == NULL)
 571:command_telemetry.c ****                     {
 572:command_telemetry.c ****                         send_alarm_telemetry(ALARM_WARNING, cmd_str_and_param, "can't parse LED str
 573:command_telemetry.c ****                         return FALSE;
 574:command_telemetry.c ****                     }// If we can't find the next '"' character
 575:command_telemetry.c ****                     param_str++;  
 576:command_telemetry.c ****                     led_vec[E_LED_LEFT_RED] = atoi(param_str);
 577:command_telemetry.c ****                  
 578:command_telemetry.c ****                     //=========================================================
 579:command_telemetry.c ****                     // left green
 580:command_telemetry.c ****                     //=========================================================
 581:command_telemetry.c ****                     if ((param_str = strchr(param_str, '-')) == NULL)
 582:command_telemetry.c ****                     {
 583:command_telemetry.c ****                         send_alarm_telemetry(ALARM_WARNING, cmd_str_and_param, "can't parse LED str
 584:command_telemetry.c ****                         return FALSE;
 585:command_telemetry.c ****                     }// If we can't find the next '-' character
 586:command_telemetry.c ****                     param_str++;
 587:command_telemetry.c ****                     led_vec[E_LED_LEFT_GREEN] = atoi(param_str);
 588:command_telemetry.c ****                     
 589:command_telemetry.c ****                     //=========================================================
 590:command_telemetry.c ****                     // left blue
 591:command_telemetry.c ****                     //=========================================================
 592:command_telemetry.c ****                     if ((param_str = strchr(param_str, '-')) == NULL)
 593:command_telemetry.c ****                     {
 594:command_telemetry.c ****                         send_alarm_telemetry(ALARM_WARNING, cmd_str_and_param, "can't parse LED str
 595:command_telemetry.c ****                         return FALSE;
 596:command_telemetry.c ****                     }// If we can't find the next '-' character
 597:command_telemetry.c ****                     param_str++;
 598:command_telemetry.c ****                     led_vec[E_LED_LEFT_BLUE] = atoi(param_str);
 599:command_telemetry.c ****                     
 600:command_telemetry.c ****                     //=========================================================
 601:command_telemetry.c ****                     // All whites
 602:command_telemetry.c ****                     //=========================================================                    
 603:command_telemetry.c ****                     for(i = 0; i < NUMBER_OF_WHITE_LEDS; i++)
 604:command_telemetry.c ****                     {
 605:command_telemetry.c ****                         if ((param_str = strchr(param_str, '-')) == NULL)
 606:command_telemetry.c ****                         {
 607:command_telemetry.c ****                             send_alarm_telemetry(ALARM_WARNING, cmd_str_and_param, "can't parse LED
 608:command_telemetry.c ****                             return FALSE;
 609:command_telemetry.c ****                         }// If we can't find the next '-' character
 610:command_telemetry.c ****                         param_str++;
ARM GAS  C:\Users\MM1005~1\AppData\Local\Temp\ccukbKgl.s 			page 22


 611:command_telemetry.c ****                         led_vec[i] = atoi(param_str);
 612:command_telemetry.c ****                     }// for all the white LEDS
 613:command_telemetry.c ****                     
 614:command_telemetry.c ****                     //=========================================================
 615:command_telemetry.c ****                     // right red
 616:command_telemetry.c ****                     //=========================================================
 617:command_telemetry.c ****                     if ((param_str = strchr(param_str, '-')) == NULL)
 618:command_telemetry.c ****                     {
 619:command_telemetry.c ****                         send_alarm_telemetry(ALARM_WARNING, cmd_str_and_param, "can't parse LED str
 620:command_telemetry.c ****                         return FALSE;
 621:command_telemetry.c ****                     }// If we can't find the next '-' character
 622:command_telemetry.c ****                     param_str++;
 623:command_telemetry.c ****                     led_vec[E_LED_RIGHT_RED] = atoi(param_str);
 624:command_telemetry.c ****                     
 625:command_telemetry.c ****                     //=========================================================
 626:command_telemetry.c ****                     // right green
 627:command_telemetry.c ****                     //=========================================================
 628:command_telemetry.c ****                     if ((param_str = strchr(param_str, '-')) == NULL)
 629:command_telemetry.c ****                     {
 630:command_telemetry.c ****                         send_alarm_telemetry(ALARM_WARNING, cmd_str_and_param, "can't parse LED str
 631:command_telemetry.c ****                         return FALSE;
 632:command_telemetry.c ****                     }// If we can't find the next '-' character
 633:command_telemetry.c ****                     param_str++;
 634:command_telemetry.c ****                     led_vec[E_LED_RIGHT_GREEN] = atoi(param_str);
 635:command_telemetry.c ****                     
 636:command_telemetry.c ****                     //=========================================================
 637:command_telemetry.c ****                     // right blue
 638:command_telemetry.c ****                     //=========================================================
 639:command_telemetry.c ****                     if ((param_str = strchr(param_str, '-')) == NULL)
 640:command_telemetry.c ****                     {
 641:command_telemetry.c ****                         send_alarm_telemetry(ALARM_WARNING, cmd_str_and_param, "can't parse LED str
 642:command_telemetry.c ****                         return FALSE;
 643:command_telemetry.c ****                     }// If we can't find the next '-' character
 644:command_telemetry.c ****                     param_str++;
 645:command_telemetry.c ****                     led_vec[E_LED_RIGHT_BLUE] = atoi(param_str);
 646:command_telemetry.c ****                     
 647:command_telemetry.c ****                     set_led_strip(led_vec);
 648:command_telemetry.c ****                     break;
 649:command_telemetry.c ****                 }// CMD_LED_SET_STRIP
 650:command_telemetry.c ****                 
 651:command_telemetry.c ****                 case CMD_LED_UNKNOWN:
 652:command_telemetry.c ****                 default             :
 653:command_telemetry.c ****                 {
 654:command_telemetry.c ****                     send_alarm_telemetry(ALARM_WARNING, cmd_str_and_param, "unsupported led action"
 655:command_telemetry.c ****                     return FALSE;
 656:command_telemetry.c ****                 }// CMD_LED_UNKNOWN, default
 657:command_telemetry.c ****             }// switch on the led command
 658:command_telemetry.c ****             
 659:command_telemetry.c ****             break;
 660:command_telemetry.c ****         }// CMD_LED
 661:command_telemetry.c ****         
 662:command_telemetry.c ****         case CMD_SENSOR:
 663:command_telemetry.c ****         {
 664:command_telemetry.c ****             if ((param_str = strchr(param_str, ',')) == NULL)
 665:command_telemetry.c ****             {
 666:command_telemetry.c ****                 send_alarm_telemetry(ALARM_WARNING, cmd_str_and_param, "unsupported sensor action")
 667:command_telemetry.c ****                 return FALSE;
ARM GAS  C:\Users\MM1005~1\AppData\Local\Temp\ccukbKgl.s 			page 23


 668:command_telemetry.c ****             }// If we can't find the next ',' character
 669:command_telemetry.c ****             
 670:command_telemetry.c ****             if ((param_str = strchr(++param_str, ':')) == NULL)
 671:command_telemetry.c ****             {
 672:command_telemetry.c ****                 send_alarm_telemetry(ALARM_WARNING, cmd_str_and_param, "unsupported sensor action")
 673:command_telemetry.c ****                 return FALSE;
 674:command_telemetry.c ****             }// If we can't find the next ':' character
 675:command_telemetry.c ****             param_str++;
 676:command_telemetry.c ****             
 677:command_telemetry.c ****             switch (sensor_cmd_id = get_sensor_cmd_id_from_cmd_string(param_str))
 678:command_telemetry.c ****             {
 679:command_telemetry.c ****                 case CMD_SENSOR_DISABLE:
 680:command_telemetry.c ****                 {
 681:command_telemetry.c ****                     set_is_sensor_telemetry_enable(FALSE);
 682:command_telemetry.c ****                     break;
 683:command_telemetry.c ****                 }// CMD_TRACKER_DISABLE      
 684:command_telemetry.c ****                 
 685:command_telemetry.c ****                 case CMD_SENSOR_ENABLE:
 686:command_telemetry.c ****                 {
 687:command_telemetry.c ****                     set_is_sensor_telemetry_enable(TRUE);
 688:command_telemetry.c ****                     break;
 689:command_telemetry.c ****                 }// CMD_TRACKER_ENABLE
 690:command_telemetry.c ****                 
 691:command_telemetry.c ****                 case CMD_SENSOR_UNKNOWN:
 692:command_telemetry.c ****                 default                 :
 693:command_telemetry.c ****                 {
 694:command_telemetry.c ****                     send_alarm_telemetry(ALARM_WARNING, cmd_str_and_param, "unsupported sensor acti
 695:command_telemetry.c ****                     return FALSE;
 696:command_telemetry.c ****                 }// CMD_TRACKER_UNKNOWN, default
 697:command_telemetry.c ****             }// switch in the tracker action
 698:command_telemetry.c ****             break;
 699:command_telemetry.c ****         }// CMD_SENSOR
 700:command_telemetry.c ****         
 701:command_telemetry.c ****        case CMD_TELEMETRY:
 702:command_telemetry.c ****         {
 703:command_telemetry.c ****             if ((param_str = strchr(param_str, ',')) == NULL)
 704:command_telemetry.c ****             {
 705:command_telemetry.c ****                 send_alarm_telemetry(ALARM_WARNING, cmd_str_and_param, "unsupported telemetry actio
 706:command_telemetry.c ****                 return FALSE;
 707:command_telemetry.c ****             }// If we can't find the next ',' character
 708:command_telemetry.c ****             
 709:command_telemetry.c ****             if ((param_str = strchr(++param_str, ':')) == NULL)
 710:command_telemetry.c ****             {
 711:command_telemetry.c ****                 send_alarm_telemetry(ALARM_WARNING, cmd_str_and_param, "unsupported telemetry actio
 712:command_telemetry.c ****                 return FALSE;
 713:command_telemetry.c ****             }// If we can't find the next ':' character
 714:command_telemetry.c ****             param_str++;
 715:command_telemetry.c ****             
 716:command_telemetry.c ****             switch (telemetry_cmd_id = get_telemetry_cmd_id_from_cmd_string(param_str))
 717:command_telemetry.c ****             {
 718:command_telemetry.c ****                 case CMD_TELEMETRY_DISABLE:
 719:command_telemetry.c ****                 {
 720:command_telemetry.c ****                     set_is_telemetry_enable(FALSE);
 721:command_telemetry.c ****                     break;
 722:command_telemetry.c ****                 }// CMD_TRACKER_DISABLE      
 723:command_telemetry.c ****                 
 724:command_telemetry.c ****                 case CMD_TELEMETRY_ENABLE:
ARM GAS  C:\Users\MM1005~1\AppData\Local\Temp\ccukbKgl.s 			page 24


 725:command_telemetry.c ****                 {
 726:command_telemetry.c ****                     set_is_telemetry_enable(TRUE);
 727:command_telemetry.c ****                     break;
 728:command_telemetry.c ****                 }// CMD_TRACKER_ENABLE
 729:command_telemetry.c ****                 
 730:command_telemetry.c ****                 case CMD_TELEMETRY_UNKNOWN:
 731:command_telemetry.c ****                 default                   :
 732:command_telemetry.c ****                 {
 733:command_telemetry.c ****                     send_alarm_telemetry(ALARM_WARNING, cmd_str_and_param, "unsupported telemetry a
 734:command_telemetry.c ****                     return FALSE;
 735:command_telemetry.c ****                 }// CMD_TRACKER_UNKNOWN, default
 736:command_telemetry.c ****             }// switch in the tracker action
 737:command_telemetry.c ****             break;
 738:command_telemetry.c ****         }// CMD_TELEMETRY
 739:command_telemetry.c **** 
 740:command_telemetry.c ****         case CMD_TRACKER:
 741:command_telemetry.c ****         {
 742:command_telemetry.c ****             if ((param_str = strchr(param_str, ',')) == NULL)
 743:command_telemetry.c ****             {
 744:command_telemetry.c ****                 send_alarm_telemetry(ALARM_WARNING, cmd_str_and_param, "unsupported tracker action"
 745:command_telemetry.c ****                 return FALSE;
 746:command_telemetry.c ****             }// If we can't find the next ',' character
 747:command_telemetry.c ****             
 748:command_telemetry.c ****             if ((param_str = strchr(++param_str, ':')) == NULL)
 749:command_telemetry.c ****             {
 750:command_telemetry.c ****                 send_alarm_telemetry(ALARM_WARNING, cmd_str_and_param, "unsupported tracker action"
 751:command_telemetry.c ****                 return FALSE;
 752:command_telemetry.c ****             }// If we can't find the next ':' character
 753:command_telemetry.c ****             param_str++;
 754:command_telemetry.c ****             
 755:command_telemetry.c ****             switch (tracker_cmd_id = get_tracker_cmd_id_from_cmd_string(param_str))
 756:command_telemetry.c ****             {
 757:command_telemetry.c ****                 case CMD_TRACKER_DISABLE:
 758:command_telemetry.c ****                 {
 759:command_telemetry.c ****                     set_is_tracker_enable(FALSE);
 760:command_telemetry.c ****                     break;
 761:command_telemetry.c ****                 }// CMD_TRACKER_DISABLE      
 762:command_telemetry.c ****                 
 763:command_telemetry.c ****                 case CMD_TRACKER_ENABLE:
 764:command_telemetry.c ****                 {
 765:command_telemetry.c ****                     set_is_tracker_enable(TRUE);
 766:command_telemetry.c ****                     break;
 767:command_telemetry.c ****                 }// CMD_TRACKER_ENABLE
 768:command_telemetry.c ****                 
 769:command_telemetry.c ****                 case CMD_TRACKER_SET_BUTTON:
 770:command_telemetry.c ****                 {
 771:command_telemetry.c ****                     if ((param_str = strchr(param_str, ',')) == NULL)
 772:command_telemetry.c ****                     {
 773:command_telemetry.c ****                         send_alarm_telemetry(ALARM_WARNING, cmd_str_and_param, "unsupported tracker
 774:command_telemetry.c ****                         return FALSE;
 775:command_telemetry.c ****                     }// If we can't find the next ',' character
 776:command_telemetry.c ****             
 777:command_telemetry.c ****                     if ((param_str = strchr(++param_str, ':')) == NULL)
 778:command_telemetry.c ****                     {
 779:command_telemetry.c ****                         send_alarm_telemetry(ALARM_WARNING, cmd_str_and_param, "unsupported tracker
 780:command_telemetry.c ****                         return FALSE;
 781:command_telemetry.c ****                     }// If we can't find the next ':' character
ARM GAS  C:\Users\MM1005~1\AppData\Local\Temp\ccukbKgl.s 			page 25


 782:command_telemetry.c ****                     param_str++;
 783:command_telemetry.c ****                     set_number_of_buttons (atoi(param_str));
 784:command_telemetry.c ****                     break;
 785:command_telemetry.c ****                 }// CMD_TRACKER_SET_BUTTON
 786:command_telemetry.c ****                 
 787:command_telemetry.c ****                 case CMD_TRACKER_UNKNOWN:
 788:command_telemetry.c ****                 default                 :
 789:command_telemetry.c ****                 {
 790:command_telemetry.c ****                     send_alarm_telemetry(ALARM_WARNING, cmd_str_and_param, "unsupported tracker act
 791:command_telemetry.c ****                     return FALSE;
 792:command_telemetry.c ****                 }// CMD_TRACKER_UNKNOWN, default
 793:command_telemetry.c ****             }// switch in the tracker action
 794:command_telemetry.c ****             break;
 795:command_telemetry.c ****         }// CMD_TRACKER
 796:command_telemetry.c ****         
 797:command_telemetry.c ****         case CMD_VERSION:
 798:command_telemetry.c ****         {
 799:command_telemetry.c ****             send_alarm_telemetry(ALARM_INFO, "version", get_software_version());
 800:command_telemetry.c ****             break;
 801:command_telemetry.c ****         }// CMD_VERSION
 802:command_telemetry.c ****         
 803:command_telemetry.c ****         case CMD_UNKNOWN:
 804:command_telemetry.c ****         default         :
 805:command_telemetry.c ****         {
 806:command_telemetry.c ****             send_alarm_telemetry(ALARM_WARNING, cmd_str_and_param, "unsupported command");
 807:command_telemetry.c ****             return FALSE;
 808:command_telemetry.c ****         }// default
 809:command_telemetry.c ****     }// switch cmd id
 810:command_telemetry.c ****     
 811:command_telemetry.c ****     return TRUE; // the command succeed 
 812:command_telemetry.c **** }// parse_and_execute_command
 813:command_telemetry.c **** 
 814:command_telemetry.c **** //=============================================================================
 815:command_telemetry.c **** //============================================ send_bootloader_config_telemetry
 816:command_telemetry.c **** //=============================================================================
 817:command_telemetry.c **** void send_bootloader_config_telemetry(void)
 818:command_telemetry.c **** {
 572              		.loc 1 818 0
 573              		.cfi_startproc
 819:command_telemetry.c ****     // FIXME!
 820:command_telemetry.c **** }// send_bootloader_config_telemetry
 574              		.loc 1 820 0
 575              		@ sp needed
 576 0000 7047     		bx	lr
 577              		.cfi_endproc
 578              	.LFE44:
 579              		.size	send_bootloader_config_telemetry, .-send_bootloader_config_telemetry
 580 0002 C046     		.section	.text.get_is_telemetry_enable,"ax",%progbits
 581              		.align	2
 582              		.global	get_is_telemetry_enable
 583              		.code	16
 584              		.thumb_func
 585              		.type	get_is_telemetry_enable, %function
 586              	get_is_telemetry_enable:
 587              	.LFB52:
 821:command_telemetry.c **** 
 822:command_telemetry.c **** //=============================================================================
ARM GAS  C:\Users\MM1005~1\AppData\Local\Temp\ccukbKgl.s 			page 26


 823:command_telemetry.c **** //======================================================== send_alarm_telemetry
 824:command_telemetry.c **** //=============================================================================
 825:command_telemetry.c **** void send_alarm_telemetry(t_enum_alarm_type alarm_type, const char* source, const char* description
 826:command_telemetry.c **** {
 827:command_telemetry.c ****     const char* alarm_string[ALARM_UNKNOWN] = {"log", "info", "warning", "error", "fatal"};
 828:command_telemetry.c ****  
 829:command_telemetry.c ****     memset(telemetry, '\0', sizeof(telemetry));
 830:command_telemetry.c ****     
 831:command_telemetry.c ****     strcpy(telemetry, "{\"event\":\"alarm\", \"type\":\"");
 832:command_telemetry.c ****     strcat(telemetry, alarm_string[alarm_type]);
 833:command_telemetry.c ****     strcat(telemetry, "\", \"source\":\"");
 834:command_telemetry.c ****     strcat(telemetry, source);
 835:command_telemetry.c ****     strcat(telemetry, "\", \"description\":\"");
 836:command_telemetry.c ****     strcat(telemetry, description);
 837:command_telemetry.c ****     strcat(telemetry, "\"}");
 838:command_telemetry.c ****     
 839:command_telemetry.c ****     send_telemetry(telemetry);
 840:command_telemetry.c **** }// send_alarm_telemetry
 841:command_telemetry.c **** 
 842:command_telemetry.c **** //=============================================================================
 843:command_telemetry.c **** //==================================================== send_animation_telemetry
 844:command_telemetry.c **** //=============================================================================
 845:command_telemetry.c **** void send_animation_telemetry(t_enum_animation animation_index, const char* action)
 846:command_telemetry.c **** {
 847:command_telemetry.c ****     t_struct_animation animation;
 848:command_telemetry.c ****  
 849:command_telemetry.c ****     get_animation(animation_index, &animation);
 850:command_telemetry.c ****     
 851:command_telemetry.c ****     memset(telemetry, '\0', sizeof(telemetry));
 852:command_telemetry.c ****     strcpy(telemetry, "{\"event\":\"animation\", \"name\":\"");
 853:command_telemetry.c ****     strcat(telemetry, animation.description);
 854:command_telemetry.c ****     strcat(telemetry, "\", \"action\":\"");
 855:command_telemetry.c ****     strcat(telemetry, action);
 856:command_telemetry.c ****     strcat(telemetry, "\"}");
 857:command_telemetry.c ****     
 858:command_telemetry.c ****     send_telemetry(telemetry);
 859:command_telemetry.c **** }// send_animation_telemetry
 860:command_telemetry.c **** 
 861:command_telemetry.c **** //=============================================================================
 862:command_telemetry.c **** //===================================================== send_telemetry_capsense
 863:command_telemetry.c **** //=============================================================================
 864:command_telemetry.c **** void send_telemetry_capsense(void)
 865:command_telemetry.c **** {
 866:command_telemetry.c ****     uint16 i;
 867:command_telemetry.c ****     uint16 nb_sensors = CapSense_GET_SENSOR_COUNT(0);
 868:command_telemetry.c ****    
 869:command_telemetry.c ****     for (i = 0; i < nb_sensors; i++)
 870:command_telemetry.c ****     {
 871:command_telemetry.c ****         memset(telemetry, '\0', sizeof(telemetry));
 872:command_telemetry.c ****         strcpy(telemetry, "{\"event\":\"sensor\", \"id\":");
 873:command_telemetry.c ****         strcat(telemetry, itoa(i));
 874:command_telemetry.c ****         strcat(telemetry, ", \"raw\":");
 875:command_telemetry.c ****         strcat(telemetry, itoa(CapSense_dsRam.snsList.linearslider0[i].raw[0]));
 876:command_telemetry.c ****         strcat(telemetry, ", \"baseline\":");
 877:command_telemetry.c ****         strcat(telemetry, itoa(CapSense_dsRam.snsList.linearslider0[i].bsln[0]));
 878:command_telemetry.c ****         strcat(telemetry, ", \"bucket baseline\":");
 879:command_telemetry.c ****         strcat(telemetry, itoa(CapSense_dsRam.snsList.linearslider0[i].bslnExt[0]));
ARM GAS  C:\Users\MM1005~1\AppData\Local\Temp\ccukbKgl.s 			page 27


 880:command_telemetry.c ****         strcat(telemetry, ", \"diff\":");
 881:command_telemetry.c ****         strcat(telemetry, itoa(CapSense_dsRam.snsList.linearslider0[i].diff));
 882:command_telemetry.c ****         strcat(telemetry, ", \"baseline reset\":");
 883:command_telemetry.c ****         strcat(telemetry, itoa(CapSense_dsRam.snsList.linearslider0[i].negBslnRstCnt[0]));
 884:command_telemetry.c ****         strcat(telemetry, ", \"IDAC\":");
 885:command_telemetry.c ****         strcat(telemetry, itoa(CapSense_dsRam.snsList.linearslider0[i].idacComp[0]));
 886:command_telemetry.c ****         strcat(telemetry, "\"}");
 887:command_telemetry.c ****         send_telemetry(telemetry);
 888:command_telemetry.c ****     }// for all the sensors
 889:command_telemetry.c **** }// send_telemetry_capsense
 890:command_telemetry.c **** 
 891:command_telemetry.c **** //=============================================================================
 892:command_telemetry.c **** //======================================================= send_button_telemetry
 893:command_telemetry.c **** //=============================================================================
 894:command_telemetry.c **** void send_button_telemetry(int button, const char* action, t_enum_direction finger_direct, uint16 a
 895:command_telemetry.c **** {
 896:command_telemetry.c ****     int           nb_touched       =  0;
 897:command_telemetry.c ****     long long int clock_time       = (get_timer_interrrupt_count() << 16) + Timer_1_ReadCounter();
 898:command_telemetry.c ****     char          str_direction[2] = {finger_direct, '\0'};
 899:command_telemetry.c ****     uint16        max_sensor       = 0;
 900:command_telemetry.c ****     char          sensors_vec[64];
 901:command_telemetry.c ****     uint16        i;
 902:command_telemetry.c **** 
 903:command_telemetry.c ****     memset(telemetry  , '\0', sizeof(telemetry  ));
 904:command_telemetry.c ****     memset(sensors_vec, '\0', sizeof(sensors_vec));
 905:command_telemetry.c ****     
 906:command_telemetry.c ****     max_sensor = min(CapSense_GET_SENSOR_COUNT(0), sizeof(sensors_vec) - 1);
 907:command_telemetry.c ****          
 908:command_telemetry.c ****     for (i = 0; i < max_sensor; i++)
 909:command_telemetry.c ****     {
 910:command_telemetry.c ****         if (CapSense_IsSensorActive(0, i))
 911:command_telemetry.c ****         {
 912:command_telemetry.c ****             nb_touched++;
 913:command_telemetry.c ****             sensors_vec[i] = '1';
 914:command_telemetry.c ****         }
 915:command_telemetry.c ****         else
 916:command_telemetry.c ****         {
 917:command_telemetry.c ****              sensors_vec[i] = '0';  
 918:command_telemetry.c ****         }
 919:command_telemetry.c ****     }// for all the sensors;
 920:command_telemetry.c ****     
 921:command_telemetry.c ****     strcpy(telemetry, "{\"event\":\"button\", \"id\":");
 922:command_telemetry.c ****     strcat(telemetry, itoa(button));
 923:command_telemetry.c **** #if USE_ALL_BUTTON_TELE     
 924:command_telemetry.c ****     strcat(telemetry, ", \"sensor count\":");
 925:command_telemetry.c ****     strcat(telemetry, itoa(nb_touched));
 926:command_telemetry.c ****     strcat(telemetry, ", \"clock\":");
 927:command_telemetry.c ****     strcat(telemetry, itoa(clock_time));
 928:command_telemetry.c ****     strcat(telemetry, ", \"direction\":\"");
 929:command_telemetry.c ****     strcat(telemetry, str_direction);
 930:command_telemetry.c ****     strcat(telemetry, "\", \"sensors\":\"");
 931:command_telemetry.c ****     strcat(telemetry, sensors_vec);
 932:command_telemetry.c ****     strcat(telemetry, "\", \"actual raw pos\":");
 933:command_telemetry.c ****     strcat(telemetry, itoa(actual_raw_pos));
 934:command_telemetry.c ****     strcat(telemetry, ", \"previous raw pos\":");
 935:command_telemetry.c ****     strcat(telemetry, itoa(previous_raw_pos));
 936:command_telemetry.c **** #endif //  USE_ALL_BUTTON_TELE   
ARM GAS  C:\Users\MM1005~1\AppData\Local\Temp\ccukbKgl.s 			page 28


 937:command_telemetry.c ****     strcat(telemetry, ", \"action\":\"");
 938:command_telemetry.c ****     strcat(telemetry, action);
 939:command_telemetry.c ****     strcat(telemetry, "\"}");
 940:command_telemetry.c ****     
 941:command_telemetry.c ****     send_telemetry(telemetry);
 942:command_telemetry.c ****     
 943:command_telemetry.c ****     if (get_is_sensor_telemetry_enable())
 944:command_telemetry.c ****     {
 945:command_telemetry.c ****         send_telemetry_capsense();      
 946:command_telemetry.c ****     }
 947:command_telemetry.c **** }// send_button_telemetry
 948:command_telemetry.c **** 
 949:command_telemetry.c **** //=============================================================================
 950:command_telemetry.c **** //================================================== send_push_button_telemetry
 951:command_telemetry.c **** //=============================================================================
 952:command_telemetry.c **** void send_push_button_telemetry(uint8 capsense_id, char* button_name, BOOL is_button_down)
 953:command_telemetry.c **** {
 954:command_telemetry.c ****     memset(telemetry, '\0', sizeof(telemetry));
 955:command_telemetry.c ****     
 956:command_telemetry.c ****     strcat(telemetry, "{\"event\":\"push button\", \"id\":");
 957:command_telemetry.c ****     strcat(telemetry, itoa(capsense_id));
 958:command_telemetry.c ****     strcat(telemetry, ", \"name\":\"");
 959:command_telemetry.c ****     strcat(telemetry, button_name);
 960:command_telemetry.c ****     strcat(telemetry, "\", \"state\":\"");
 961:command_telemetry.c ****     strcat(telemetry, is_button_down ? "down" : "up"); 
 962:command_telemetry.c ****     strcat(telemetry, "\"}");
 963:command_telemetry.c ****     
 964:command_telemetry.c ****     send_telemetry(telemetry);
 965:command_telemetry.c **** }// send_push_button_telemetry
 966:command_telemetry.c **** 
 967:command_telemetry.c **** //=============================================================================
 968:command_telemetry.c **** //=============================================== send_flash_geometry_telemetry
 969:command_telemetry.c **** //=============================================================================
 970:command_telemetry.c **** void send_flash_geometry_telemetry(uint32 flash_checksum, uint32 flash_first_row, uint32 flash_last
 971:command_telemetry.c **** {
 972:command_telemetry.c ****     memset(telemetry, '\0', sizeof(telemetry));
 973:command_telemetry.c ****     strcpy(telemetry, "{\"event\":\"flash geometry\", \"checksum\":");
 974:command_telemetry.c ****     strcat(telemetry, itoa(flash_checksum));
 975:command_telemetry.c ****     strcat(telemetry, ", \"first row\":");
 976:command_telemetry.c ****     strcat(telemetry, itoa(flash_first_row));
 977:command_telemetry.c ****     strcat(telemetry, ", \"last row\":");
 978:command_telemetry.c ****     strcat(telemetry, itoa(flash_last_row));
 979:command_telemetry.c ****     strcat(telemetry, ", \"size\":");
 980:command_telemetry.c ****     strcat(telemetry, itoa(flash_size));
 981:command_telemetry.c ****     strcat(telemetry, "}");
 982:command_telemetry.c ****     
 983:command_telemetry.c ****     send_telemetry(telemetry);
 984:command_telemetry.c **** }// send_flash_geometry_telemetry
 985:command_telemetry.c **** 
 986:command_telemetry.c **** //=============================================================================
 987:command_telemetry.c **** //============================================================== send_telemetry
 988:command_telemetry.c **** //=============================================================================
 989:command_telemetry.c **** void send_telemetry(const char *telemetry)
 990:command_telemetry.c **** {
 991:command_telemetry.c ****     if (get_is_telemetry_enable())
 992:command_telemetry.c ****     {
 993:command_telemetry.c ****         CapSense_ISR_Disable();
ARM GAS  C:\Users\MM1005~1\AppData\Local\Temp\ccukbKgl.s 			page 29


 994:command_telemetry.c ****         CommsSendData(telemetry);
 995:command_telemetry.c ****         CapSense_ISR_Enable();
 996:command_telemetry.c ****     }// If the telemetry are enable
 997:command_telemetry.c **** }// send_button_telemetry
 998:command_telemetry.c **** 
 999:command_telemetry.c **** //=============================================================================
1000:command_telemetry.c **** //===================================================== get_is_telemetry_enable
1001:command_telemetry.c **** //=============================================================================
1002:command_telemetry.c **** BOOL get_is_telemetry_enable()
1003:command_telemetry.c **** {
 588              		.loc 1 1003 0
 589              		.cfi_startproc
1004:command_telemetry.c ****     return is_telemetry_enable;
 590              		.loc 1 1004 0
 591 0000 014B     		ldr	r3, .L57
 592 0002 1878     		ldrb	r0, [r3]
1005:command_telemetry.c **** }// get_is_telemetry_enable
 593              		.loc 1 1005 0
 594              		@ sp needed
 595 0004 7047     		bx	lr
 596              	.L58:
 597 0006 C046     		.align	2
 598              	.L57:
 599 0008 00000000 		.word	.LANCHOR3
 600              		.cfi_endproc
 601              	.LFE52:
 602              		.size	get_is_telemetry_enable, .-get_is_telemetry_enable
 603              		.section	.text.send_telemetry,"ax",%progbits
 604              		.align	2
 605              		.global	send_telemetry
 606              		.code	16
 607              		.thumb_func
 608              		.type	send_telemetry, %function
 609              	send_telemetry:
 610              	.LFB51:
 990:command_telemetry.c ****     if (get_is_telemetry_enable())
 611              		.loc 1 990 0
 612              		.cfi_startproc
 613              	.LVL71:
 614 0000 10B5     		push	{r4, lr}
 615              		.cfi_def_cfa_offset 8
 616              		.cfi_offset 4, -8
 617              		.cfi_offset 14, -4
 618 0002 041C     		mov	r4, r0
 991:command_telemetry.c ****     {
 619              		.loc 1 991 0
 620 0004 FFF7FEFF 		bl	get_is_telemetry_enable
 621              	.LVL72:
 622 0008 0028     		cmp	r0, #0
 623 000a 06D0     		beq	.L59
 993:command_telemetry.c ****         CommsSendData(telemetry);
 624              		.loc 1 993 0
 625 000c FFF7FEFF 		bl	CapSense_ISR_Disable
 626              	.LVL73:
 994:command_telemetry.c ****         CapSense_ISR_Enable();
 627              		.loc 1 994 0
 628 0010 201C     		mov	r0, r4
ARM GAS  C:\Users\MM1005~1\AppData\Local\Temp\ccukbKgl.s 			page 30


 629 0012 FFF7FEFF 		bl	CommsSendData
 630              	.LVL74:
 995:command_telemetry.c ****     }// If the telemetry are enable
 631              		.loc 1 995 0
 632 0016 FFF7FEFF 		bl	CapSense_ISR_Enable
 633              	.LVL75:
 634              	.L59:
 997:command_telemetry.c **** 
 635              		.loc 1 997 0
 636              		@ sp needed
 637              	.LVL76:
 638 001a 10BD     		pop	{r4, pc}
 639              		.cfi_endproc
 640              	.LFE51:
 641              		.size	send_telemetry, .-send_telemetry
 642              		.section	.text.send_alarm_telemetry,"ax",%progbits
 643              		.align	2
 644              		.global	send_alarm_telemetry
 645              		.code	16
 646              		.thumb_func
 647              		.type	send_alarm_telemetry, %function
 648              	send_alarm_telemetry:
 649              	.LFB45:
 826:command_telemetry.c ****     const char* alarm_string[ALARM_UNKNOWN] = {"log", "info", "warning", "error", "fatal"};
 650              		.loc 1 826 0
 651              		.cfi_startproc
 652              	.LVL77:
 653 0000 F0B5     		push	{r4, r5, r6, r7, lr}
 654              		.cfi_def_cfa_offset 20
 655              		.cfi_offset 4, -20
 656              		.cfi_offset 5, -16
 657              		.cfi_offset 6, -12
 658              		.cfi_offset 7, -8
 659              		.cfi_offset 14, -4
 660 0002 4746     		mov	r7, r8
 661 0004 80B4     		push	{r7}
 662              		.cfi_def_cfa_offset 24
 663              		.cfi_offset 8, -24
 664 0006 88B0     		sub	sp, sp, #32
 665              		.cfi_def_cfa_offset 56
 666 0008 8046     		mov	r8, r0
 667 000a 0E1C     		mov	r6, r1
 668 000c 0192     		str	r2, [sp, #4]
 827:command_telemetry.c ****  
 669              		.loc 1 827 0
 670 000e 03AF     		add	r7, sp, #12
 671 0010 3A1C     		mov	r2, r7
 672              	.LVL78:
 673 0012 234B     		ldr	r3, .L62
 674 0014 5033     		add	r3, r3, #80
 675 0016 13CB     		ldmia	r3!, {r0, r1, r4}
 676 0018 13C2     		stmia	r2!, {r0, r1, r4}
 677              	.LVL79:
 678 001a 11CB     		ldmia	r3!, {r0, r4}
 679 001c 11C2     		stmia	r2!, {r0, r4}
 829:command_telemetry.c ****     
 680              		.loc 1 829 0
ARM GAS  C:\Users\MM1005~1\AppData\Local\Temp\ccukbKgl.s 			page 31


 681 001e 214C     		ldr	r4, .L62+4
 682 0020 0434     		add	r4, r4, #4
 683 0022 201C     		mov	r0, r4
 684 0024 0021     		mov	r1, #0
 685 0026 8022     		mov	r2, #128
 686 0028 9200     		lsl	r2, r2, #2
 687 002a FFF7FEFF 		bl	memset
 688              	.LVL80:
 831:command_telemetry.c ****     strcat(telemetry, alarm_string[alarm_type]);
 689              		.loc 1 831 0
 690 002e 1E49     		ldr	r1, .L62+8
 691 0030 231C     		mov	r3, r4
 692 0032 0A1C     		mov	r2, r1
 693 0034 23CA     		ldmia	r2!, {r0, r1, r5}
 694 0036 23C3     		stmia	r3!, {r0, r1, r5}
 695 0038 23CA     		ldmia	r2!, {r0, r1, r5}
 696 003a 23C3     		stmia	r3!, {r0, r1, r5}
 697 003c 1188     		ldrh	r1, [r2]
 698 003e 1980     		strh	r1, [r3]
 699 0040 9278     		ldrb	r2, [r2, #2]
 700 0042 9A70     		strb	r2, [r3, #2]
 832:command_telemetry.c ****     strcat(telemetry, "\", \"source\":\"");
 701              		.loc 1 832 0
 702 0044 4346     		mov	r3, r8
 703 0046 9B00     		lsl	r3, r3, #2
 704 0048 D959     		ldr	r1, [r3, r7]
 705 004a 201C     		mov	r0, r4
 706 004c FFF7FEFF 		bl	strcat
 707              	.LVL81:
 833:command_telemetry.c ****     strcat(telemetry, source);
 708              		.loc 1 833 0
 709 0050 201C     		mov	r0, r4
 710 0052 FFF7FEFF 		bl	strlen
 711              	.LVL82:
 712 0056 2018     		add	r0, r4, r0
 713 0058 1449     		ldr	r1, .L62+12
 714 005a 0E22     		mov	r2, #14
 715 005c FFF7FEFF 		bl	memcpy
 716              	.LVL83:
 834:command_telemetry.c ****     strcat(telemetry, "\", \"description\":\"");
 717              		.loc 1 834 0
 718 0060 201C     		mov	r0, r4
 719 0062 311C     		mov	r1, r6
 720 0064 FFF7FEFF 		bl	strcat
 721              	.LVL84:
 835:command_telemetry.c ****     strcat(telemetry, description);
 722              		.loc 1 835 0
 723 0068 201C     		mov	r0, r4
 724 006a FFF7FEFF 		bl	strlen
 725              	.LVL85:
 726 006e 2018     		add	r0, r4, r0
 727 0070 0F49     		ldr	r1, .L62+16
 728 0072 1322     		mov	r2, #19
 729 0074 FFF7FEFF 		bl	memcpy
 730              	.LVL86:
 836:command_telemetry.c ****     strcat(telemetry, "\"}");
 731              		.loc 1 836 0
ARM GAS  C:\Users\MM1005~1\AppData\Local\Temp\ccukbKgl.s 			page 32


 732 0078 201C     		mov	r0, r4
 733 007a 0199     		ldr	r1, [sp, #4]
 734 007c FFF7FEFF 		bl	strcat
 735              	.LVL87:
 837:command_telemetry.c ****     
 736              		.loc 1 837 0
 737 0080 201C     		mov	r0, r4
 738 0082 FFF7FEFF 		bl	strlen
 739              	.LVL88:
 740 0086 2018     		add	r0, r4, r0
 741 0088 0A49     		ldr	r1, .L62+20
 742 008a 0322     		mov	r2, #3
 743 008c FFF7FEFF 		bl	memcpy
 744              	.LVL89:
 839:command_telemetry.c **** }// send_alarm_telemetry
 745              		.loc 1 839 0
 746 0090 201C     		mov	r0, r4
 747 0092 FFF7FEFF 		bl	send_telemetry
 748              	.LVL90:
 840:command_telemetry.c **** 
 749              		.loc 1 840 0
 750 0096 08B0     		add	sp, sp, #32
 751              		@ sp needed
 752              	.LVL91:
 753 0098 04BC     		pop	{r2}
 754 009a 9046     		mov	r8, r2
 755 009c F0BD     		pop	{r4, r5, r6, r7, pc}
 756              	.L63:
 757 009e C046     		.align	2
 758              	.L62:
 759 00a0 38010000 		.word	.LANCHOR2
 760 00a4 00000000 		.word	.LANCHOR3
 761 00a8 00000000 		.word	.LC17
 762 00ac 1C000000 		.word	.LC19
 763 00b0 2C000000 		.word	.LC21
 764 00b4 40000000 		.word	.LC23
 765              		.cfi_endproc
 766              	.LFE45:
 767              		.size	send_alarm_telemetry, .-send_alarm_telemetry
 768              		.section	.text.send_animation_telemetry,"ax",%progbits
 769              		.align	2
 770              		.global	send_animation_telemetry
 771              		.code	16
 772              		.thumb_func
 773              		.type	send_animation_telemetry, %function
 774              	send_animation_telemetry:
 775              	.LFB46:
 846:command_telemetry.c ****     t_struct_animation animation;
 776              		.loc 1 846 0
 777              		.cfi_startproc
 778              	.LVL92:
 779 0000 70B5     		push	{r4, r5, r6, lr}
 780              		.cfi_def_cfa_offset 16
 781              		.cfi_offset 4, -16
 782              		.cfi_offset 5, -12
 783              		.cfi_offset 6, -8
 784              		.cfi_offset 14, -4
ARM GAS  C:\Users\MM1005~1\AppData\Local\Temp\ccukbKgl.s 			page 33


 785 0002 84B0     		sub	sp, sp, #16
 786              		.cfi_def_cfa_offset 32
 787 0004 0D1C     		mov	r5, r1
 849:command_telemetry.c ****     
 788              		.loc 1 849 0
 789 0006 01A9     		add	r1, sp, #4
 790              	.LVL93:
 791 0008 FFF7FEFF 		bl	get_animation
 792              	.LVL94:
 851:command_telemetry.c ****     strcpy(telemetry, "{\"event\":\"animation\", \"name\":\"");
 793              		.loc 1 851 0
 794 000c 184C     		ldr	r4, .L65
 795 000e 0434     		add	r4, r4, #4
 796 0010 201C     		mov	r0, r4
 797 0012 0021     		mov	r1, #0
 798 0014 8022     		mov	r2, #128
 799 0016 9200     		lsl	r2, r2, #2
 800 0018 FFF7FEFF 		bl	memset
 801              	.LVL95:
 852:command_telemetry.c ****     strcat(telemetry, animation.description);
 802              		.loc 1 852 0
 803 001c 1549     		ldr	r1, .L65+4
 804 001e 231C     		mov	r3, r4
 805 0020 0A1C     		mov	r2, r1
 806 0022 43CA     		ldmia	r2!, {r0, r1, r6}
 807 0024 43C3     		stmia	r3!, {r0, r1, r6}
 808 0026 43CA     		ldmia	r2!, {r0, r1, r6}
 809 0028 43C3     		stmia	r3!, {r0, r1, r6}
 810 002a 1168     		ldr	r1, [r2]
 811 002c 1960     		str	r1, [r3]
 812 002e 9188     		ldrh	r1, [r2, #4]
 813 0030 9980     		strh	r1, [r3, #4]
 814 0032 9279     		ldrb	r2, [r2, #6]
 815 0034 9A71     		strb	r2, [r3, #6]
 853:command_telemetry.c ****     strcat(telemetry, "\", \"action\":\"");
 816              		.loc 1 853 0
 817 0036 0399     		ldr	r1, [sp, #12]
 818 0038 201C     		mov	r0, r4
 819 003a FFF7FEFF 		bl	strcat
 820              	.LVL96:
 854:command_telemetry.c ****     strcat(telemetry, action);
 821              		.loc 1 854 0
 822 003e 201C     		mov	r0, r4
 823 0040 FFF7FEFF 		bl	strlen
 824              	.LVL97:
 825 0044 2018     		add	r0, r4, r0
 826 0046 0C49     		ldr	r1, .L65+8
 827 0048 0E22     		mov	r2, #14
 828 004a FFF7FEFF 		bl	memcpy
 829              	.LVL98:
 855:command_telemetry.c ****     strcat(telemetry, "\"}");
 830              		.loc 1 855 0
 831 004e 201C     		mov	r0, r4
 832 0050 291C     		mov	r1, r5
 833 0052 FFF7FEFF 		bl	strcat
 834              	.LVL99:
 856:command_telemetry.c ****     
ARM GAS  C:\Users\MM1005~1\AppData\Local\Temp\ccukbKgl.s 			page 34


 835              		.loc 1 856 0
 836 0056 201C     		mov	r0, r4
 837 0058 FFF7FEFF 		bl	strlen
 838              	.LVL100:
 839 005c 2018     		add	r0, r4, r0
 840 005e 0749     		ldr	r1, .L65+12
 841 0060 0322     		mov	r2, #3
 842 0062 FFF7FEFF 		bl	memcpy
 843              	.LVL101:
 858:command_telemetry.c **** }// send_animation_telemetry
 844              		.loc 1 858 0
 845 0066 201C     		mov	r0, r4
 846 0068 FFF7FEFF 		bl	send_telemetry
 847              	.LVL102:
 859:command_telemetry.c **** 
 848              		.loc 1 859 0
 849 006c 04B0     		add	sp, sp, #16
 850              		@ sp needed
 851              	.LVL103:
 852 006e 70BD     		pop	{r4, r5, r6, pc}
 853              	.L66:
 854              		.align	2
 855              	.L65:
 856 0070 00000000 		.word	.LANCHOR3
 857 0074 44000000 		.word	.LC27
 858 0078 64000000 		.word	.LC29
 859 007c 40000000 		.word	.LC23
 860              		.cfi_endproc
 861              	.LFE46:
 862              		.size	send_animation_telemetry, .-send_animation_telemetry
 863              		.section	.text.send_telemetry_capsense,"ax",%progbits
 864              		.align	2
 865              		.global	send_telemetry_capsense
 866              		.code	16
 867              		.thumb_func
 868              		.type	send_telemetry_capsense, %function
 869              	send_telemetry_capsense:
 870              	.LFB47:
 865:command_telemetry.c ****     uint16 i;
 871              		.loc 1 865 0
 872              		.cfi_startproc
 873 0000 F0B5     		push	{r4, r5, r6, r7, lr}
 874              		.cfi_def_cfa_offset 20
 875              		.cfi_offset 4, -20
 876              		.cfi_offset 5, -16
 877              		.cfi_offset 6, -12
 878              		.cfi_offset 7, -8
 879              		.cfi_offset 14, -4
 880 0002 5746     		mov	r7, r10
 881 0004 4E46     		mov	r6, r9
 882 0006 4546     		mov	r5, r8
 883 0008 E0B4     		push	{r5, r6, r7}
 884              		.cfi_def_cfa_offset 32
 885              		.cfi_offset 8, -32
 886              		.cfi_offset 9, -28
 887              		.cfi_offset 10, -24
 867:command_telemetry.c ****    
ARM GAS  C:\Users\MM1005~1\AppData\Local\Temp\ccukbKgl.s 			page 35


 888              		.loc 1 867 0
 889 000a 504B     		ldr	r3, .L70
 890 000c DB8A     		ldrh	r3, [r3, #22]
 891 000e 9846     		mov	r8, r3
 892              	.LVL104:
 869:command_telemetry.c ****     {
 893              		.loc 1 869 0
 894 0010 0026     		mov	r6, #0
 895 0012 93E0     		b	.L68
 896              	.LVL105:
 897              	.L69:
 871:command_telemetry.c ****         strcpy(telemetry, "{\"event\":\"sensor\", \"id\":");
 898              		.loc 1 871 0 discriminator 3
 899 0014 4E4C     		ldr	r4, .L70+4
 900 0016 0434     		add	r4, r4, #4
 901 0018 201C     		mov	r0, r4
 902 001a 0021     		mov	r1, #0
 903 001c 8022     		mov	r2, #128
 904 001e 9200     		lsl	r2, r2, #2
 905 0020 FFF7FEFF 		bl	memset
 906              	.LVL106:
 872:command_telemetry.c ****         strcat(telemetry, itoa(i));
 907              		.loc 1 872 0 discriminator 3
 908 0024 4B49     		ldr	r1, .L70+8
 909 0026 231C     		mov	r3, r4
 910 0028 0A1C     		mov	r2, r1
 911 002a 23CA     		ldmia	r2!, {r0, r1, r5}
 912 002c 23C3     		stmia	r3!, {r0, r1, r5}
 913 002e 23CA     		ldmia	r2!, {r0, r1, r5}
 914 0030 23C3     		stmia	r3!, {r0, r1, r5}
 915 0032 1278     		ldrb	r2, [r2]
 916 0034 1A70     		strb	r2, [r3]
 873:command_telemetry.c ****         strcat(telemetry, ", \"raw\":");
 917              		.loc 1 873 0 discriminator 3
 918 0036 301C     		mov	r0, r6
 919 0038 0021     		mov	r1, #0
 920 003a FFF7FEFF 		bl	itoa
 921              	.LVL107:
 922 003e 011C     		mov	r1, r0
 923 0040 201C     		mov	r0, r4
 924 0042 FFF7FEFF 		bl	strcat
 925              	.LVL108:
 874:command_telemetry.c ****         strcat(telemetry, itoa(CapSense_dsRam.snsList.linearslider0[i].raw[0]));
 926              		.loc 1 874 0 discriminator 3
 927 0046 201C     		mov	r0, r4
 928 0048 FFF7FEFF 		bl	strlen
 929              	.LVL109:
 930 004c 2018     		add	r0, r4, r0
 931 004e 4249     		ldr	r1, .L70+12
 932 0050 0922     		mov	r2, #9
 933 0052 FFF7FEFF 		bl	memcpy
 934              	.LVL110:
 875:command_telemetry.c ****         strcat(telemetry, ", \"baseline\":");
 935              		.loc 1 875 0 discriminator 3
 936 0056 414B     		ldr	r3, .L70+16
 937 0058 9946     		mov	r9, r3
 938 005a B500     		lsl	r5, r6, #2
ARM GAS  C:\Users\MM1005~1\AppData\Local\Temp\ccukbKgl.s 			page 36


 939 005c AF19     		add	r7, r5, r6
 940 005e 7F00     		lsl	r7, r7, #1
 941 0060 4F44     		add	r7, r7, r9
 942 0062 B023     		mov	r3, #176
 943 0064 9A46     		mov	r10, r3
 944 0066 BA44     		add	r10, r10, r7
 945 0068 5346     		mov	r3, r10
 946 006a 5888     		ldrh	r0, [r3, #2]
 947 006c 0021     		mov	r1, #0
 948 006e FFF7FEFF 		bl	itoa
 949              	.LVL111:
 950 0072 011C     		mov	r1, r0
 951 0074 201C     		mov	r0, r4
 952 0076 FFF7FEFF 		bl	strcat
 953              	.LVL112:
 876:command_telemetry.c ****         strcat(telemetry, itoa(CapSense_dsRam.snsList.linearslider0[i].bsln[0]));
 954              		.loc 1 876 0 discriminator 3
 955 007a 201C     		mov	r0, r4
 956 007c FFF7FEFF 		bl	strlen
 957              	.LVL113:
 958 0080 2018     		add	r0, r4, r0
 959 0082 3749     		ldr	r1, .L70+20
 960 0084 0E22     		mov	r2, #14
 961 0086 FFF7FEFF 		bl	memcpy
 962              	.LVL114:
 877:command_telemetry.c ****         strcat(telemetry, ", \"bucket baseline\":");
 963              		.loc 1 877 0 discriminator 3
 964 008a 5346     		mov	r3, r10
 965 008c 9888     		ldrh	r0, [r3, #4]
 966 008e 0021     		mov	r1, #0
 967 0090 FFF7FEFF 		bl	itoa
 968              	.LVL115:
 969 0094 011C     		mov	r1, r0
 970 0096 201C     		mov	r0, r4
 971 0098 FFF7FEFF 		bl	strcat
 972              	.LVL116:
 878:command_telemetry.c ****         strcat(telemetry, itoa(CapSense_dsRam.snsList.linearslider0[i].bslnExt[0]));
 973              		.loc 1 878 0 discriminator 3
 974 009c 201C     		mov	r0, r4
 975 009e FFF7FEFF 		bl	strlen
 976              	.LVL117:
 977 00a2 2018     		add	r0, r4, r0
 978 00a4 2F49     		ldr	r1, .L70+24
 979 00a6 1522     		mov	r2, #21
 980 00a8 FFF7FEFF 		bl	memcpy
 981              	.LVL118:
 879:command_telemetry.c ****         strcat(telemetry, ", \"diff\":");
 982              		.loc 1 879 0 discriminator 3
 983 00ac 5346     		mov	r3, r10
 984 00ae 9879     		ldrb	r0, [r3, #6]
 985 00b0 0021     		mov	r1, #0
 986 00b2 FFF7FEFF 		bl	itoa
 987              	.LVL119:
 988 00b6 011C     		mov	r1, r0
 989 00b8 201C     		mov	r0, r4
 990 00ba FFF7FEFF 		bl	strcat
 991              	.LVL120:
ARM GAS  C:\Users\MM1005~1\AppData\Local\Temp\ccukbKgl.s 			page 37


 880:command_telemetry.c ****         strcat(telemetry, itoa(CapSense_dsRam.snsList.linearslider0[i].diff));
 992              		.loc 1 880 0 discriminator 3
 993 00be 201C     		mov	r0, r4
 994 00c0 FFF7FEFF 		bl	strlen
 995              	.LVL121:
 996 00c4 2018     		add	r0, r4, r0
 997 00c6 2849     		ldr	r1, .L70+28
 998 00c8 0A22     		mov	r2, #10
 999 00ca FFF7FEFF 		bl	memcpy
 1000              	.LVL122:
 881:command_telemetry.c ****         strcat(telemetry, ", \"baseline reset\":");
 1001              		.loc 1 881 0 discriminator 3
 1002 00ce 5346     		mov	r3, r10
 1003 00d0 1889     		ldrh	r0, [r3, #8]
 1004 00d2 0021     		mov	r1, #0
 1005 00d4 FFF7FEFF 		bl	itoa
 1006              	.LVL123:
 1007 00d8 011C     		mov	r1, r0
 1008 00da 201C     		mov	r0, r4
 1009 00dc FFF7FEFF 		bl	strcat
 1010              	.LVL124:
 882:command_telemetry.c ****         strcat(telemetry, itoa(CapSense_dsRam.snsList.linearslider0[i].negBslnRstCnt[0]));
 1011              		.loc 1 882 0 discriminator 3
 1012 00e0 201C     		mov	r0, r4
 1013 00e2 FFF7FEFF 		bl	strlen
 1014              	.LVL125:
 1015 00e6 2018     		add	r0, r4, r0
 1016 00e8 2049     		ldr	r1, .L70+32
 1017 00ea 1422     		mov	r2, #20
 1018 00ec FFF7FEFF 		bl	memcpy
 1019              	.LVL126:
 883:command_telemetry.c ****         strcat(telemetry, ", \"IDAC\":");
 1020              		.loc 1 883 0 discriminator 3
 1021 00f0 B837     		add	r7, r7, #184
 1022 00f2 B878     		ldrb	r0, [r7, #2]
 1023 00f4 0021     		mov	r1, #0
 1024 00f6 FFF7FEFF 		bl	itoa
 1025              	.LVL127:
 1026 00fa 011C     		mov	r1, r0
 1027 00fc 201C     		mov	r0, r4
 1028 00fe FFF7FEFF 		bl	strcat
 1029              	.LVL128:
 884:command_telemetry.c ****         strcat(telemetry, itoa(CapSense_dsRam.snsList.linearslider0[i].idacComp[0]));
 1030              		.loc 1 884 0 discriminator 3
 1031 0102 201C     		mov	r0, r4
 1032 0104 FFF7FEFF 		bl	strlen
 1033              	.LVL129:
 1034 0108 2018     		add	r0, r4, r0
 1035 010a 1949     		ldr	r1, .L70+36
 1036 010c 0A22     		mov	r2, #10
 1037 010e FFF7FEFF 		bl	memcpy
 1038              	.LVL130:
 885:command_telemetry.c ****         strcat(telemetry, "\"}");
 1039              		.loc 1 885 0 discriminator 3
 1040 0112 F878     		ldrb	r0, [r7, #3]
 1041 0114 0021     		mov	r1, #0
 1042 0116 FFF7FEFF 		bl	itoa
ARM GAS  C:\Users\MM1005~1\AppData\Local\Temp\ccukbKgl.s 			page 38


 1043              	.LVL131:
 1044 011a 011C     		mov	r1, r0
 1045 011c 201C     		mov	r0, r4
 1046 011e FFF7FEFF 		bl	strcat
 1047              	.LVL132:
 886:command_telemetry.c ****         send_telemetry(telemetry);
 1048              		.loc 1 886 0 discriminator 3
 1049 0122 201C     		mov	r0, r4
 1050 0124 FFF7FEFF 		bl	strlen
 1051              	.LVL133:
 1052 0128 2018     		add	r0, r4, r0
 1053 012a 1249     		ldr	r1, .L70+40
 1054 012c 0322     		mov	r2, #3
 1055 012e FFF7FEFF 		bl	memcpy
 1056              	.LVL134:
 887:command_telemetry.c ****     }// for all the sensors
 1057              		.loc 1 887 0 discriminator 3
 1058 0132 201C     		mov	r0, r4
 1059 0134 FFF7FEFF 		bl	send_telemetry
 1060              	.LVL135:
 869:command_telemetry.c ****     {
 1061              		.loc 1 869 0 discriminator 3
 1062 0138 0136     		add	r6, r6, #1
 1063              	.LVL136:
 1064 013a B6B2     		uxth	r6, r6
 1065              	.LVL137:
 1066              	.L68:
 869:command_telemetry.c ****     {
 1067              		.loc 1 869 0 is_stmt 0 discriminator 1
 1068 013c 4645     		cmp	r6, r8
 1069 013e 00D2     		bcs	.LCB1057
 1070 0140 68E7     		b	.L69	@long jump
 1071              	.LCB1057:
 889:command_telemetry.c **** 
 1072              		.loc 1 889 0 is_stmt 1
 1073              		@ sp needed
 1074              	.LVL138:
 1075              	.LVL139:
 1076 0142 1CBC     		pop	{r2, r3, r4}
 1077 0144 9046     		mov	r8, r2
 1078 0146 9946     		mov	r9, r3
 1079 0148 A246     		mov	r10, r4
 1080 014a F0BD     		pop	{r4, r5, r6, r7, pc}
 1081              	.L71:
 1082              		.align	2
 1083              	.L70:
 1084 014c 00000000 		.word	CapSense_dsFlash
 1085 0150 00000000 		.word	.LANCHOR3
 1086 0154 74000000 		.word	.LC35
 1087 0158 90000000 		.word	.LC37
 1088 015c 00000000 		.word	CapSense_dsRam
 1089 0160 9C000000 		.word	.LC40
 1090 0164 AC000000 		.word	.LC42
 1091 0168 C4000000 		.word	.LC44
 1092 016c D0000000 		.word	.LC46
 1093 0170 E4000000 		.word	.LC48
 1094 0174 40000000 		.word	.LC23
ARM GAS  C:\Users\MM1005~1\AppData\Local\Temp\ccukbKgl.s 			page 39


 1095              		.cfi_endproc
 1096              	.LFE47:
 1097              		.size	send_telemetry_capsense, .-send_telemetry_capsense
 1098              		.section	.text.send_push_button_telemetry,"ax",%progbits
 1099              		.align	2
 1100              		.global	send_push_button_telemetry
 1101              		.code	16
 1102              		.thumb_func
 1103              		.type	send_push_button_telemetry, %function
 1104              	send_push_button_telemetry:
 1105              	.LFB49:
 953:command_telemetry.c ****     memset(telemetry, '\0', sizeof(telemetry));
 1106              		.loc 1 953 0
 1107              		.cfi_startproc
 1108              	.LVL140:
 1109 0000 F8B5     		push	{r3, r4, r5, r6, r7, lr}
 1110              		.cfi_def_cfa_offset 24
 1111              		.cfi_offset 3, -24
 1112              		.cfi_offset 4, -20
 1113              		.cfi_offset 5, -16
 1114              		.cfi_offset 6, -12
 1115              		.cfi_offset 7, -8
 1116              		.cfi_offset 14, -4
 1117 0002 071C     		mov	r7, r0
 1118 0004 0D1C     		mov	r5, r1
 1119 0006 161C     		mov	r6, r2
 954:command_telemetry.c ****     
 1120              		.loc 1 954 0
 1121 0008 204C     		ldr	r4, .L75
 1122 000a 0434     		add	r4, r4, #4
 1123 000c 201C     		mov	r0, r4
 1124              	.LVL141:
 1125 000e 0021     		mov	r1, #0
 1126              	.LVL142:
 1127 0010 8022     		mov	r2, #128
 1128              	.LVL143:
 1129 0012 9200     		lsl	r2, r2, #2
 1130 0014 FFF7FEFF 		bl	memset
 1131              	.LVL144:
 956:command_telemetry.c ****     strcat(telemetry, itoa(capsense_id));
 1132              		.loc 1 956 0
 1133 0018 201C     		mov	r0, r4
 1134 001a FFF7FEFF 		bl	strlen
 1135              	.LVL145:
 1136 001e 2018     		add	r0, r4, r0
 1137 0020 1B49     		ldr	r1, .L75+4
 1138 0022 1E22     		mov	r2, #30
 1139 0024 FFF7FEFF 		bl	memcpy
 1140              	.LVL146:
 957:command_telemetry.c ****     strcat(telemetry, ", \"name\":\"");
 1141              		.loc 1 957 0
 1142 0028 381C     		mov	r0, r7
 1143 002a 0021     		mov	r1, #0
 1144 002c FFF7FEFF 		bl	itoa
 1145              	.LVL147:
 1146 0030 011C     		mov	r1, r0
 1147 0032 201C     		mov	r0, r4
ARM GAS  C:\Users\MM1005~1\AppData\Local\Temp\ccukbKgl.s 			page 40


 1148 0034 FFF7FEFF 		bl	strcat
 1149              	.LVL148:
 958:command_telemetry.c ****     strcat(telemetry, button_name);
 1150              		.loc 1 958 0
 1151 0038 201C     		mov	r0, r4
 1152 003a FFF7FEFF 		bl	strlen
 1153              	.LVL149:
 1154 003e 2018     		add	r0, r4, r0
 1155 0040 1449     		ldr	r1, .L75+8
 1156 0042 0B22     		mov	r2, #11
 1157 0044 FFF7FEFF 		bl	memcpy
 1158              	.LVL150:
 959:command_telemetry.c ****     strcat(telemetry, "\", \"state\":\"");
 1159              		.loc 1 959 0
 1160 0048 201C     		mov	r0, r4
 1161 004a 291C     		mov	r1, r5
 1162 004c FFF7FEFF 		bl	strcat
 1163              	.LVL151:
 960:command_telemetry.c ****     strcat(telemetry, is_button_down ? "down" : "up"); 
 1164              		.loc 1 960 0
 1165 0050 201C     		mov	r0, r4
 1166 0052 FFF7FEFF 		bl	strlen
 1167              	.LVL152:
 1168 0056 2018     		add	r0, r4, r0
 1169 0058 0F49     		ldr	r1, .L75+12
 1170 005a 0D22     		mov	r2, #13
 1171 005c FFF7FEFF 		bl	memcpy
 1172              	.LVL153:
 961:command_telemetry.c ****     strcat(telemetry, "\"}");
 1173              		.loc 1 961 0
 1174 0060 002E     		cmp	r6, #0
 1175 0062 01D0     		beq	.L74
 1176 0064 0D49     		ldr	r1, .L75+16
 1177 0066 00E0     		b	.L73
 1178              	.L74:
 1179 0068 0D49     		ldr	r1, .L75+20
 1180              	.L73:
 961:command_telemetry.c ****     strcat(telemetry, "\"}");
 1181              		.loc 1 961 0 is_stmt 0 discriminator 4
 1182 006a 084C     		ldr	r4, .L75
 1183 006c 0434     		add	r4, r4, #4
 1184 006e 201C     		mov	r0, r4
 1185 0070 FFF7FEFF 		bl	strcat
 1186              	.LVL154:
 962:command_telemetry.c ****     
 1187              		.loc 1 962 0 is_stmt 1 discriminator 4
 1188 0074 201C     		mov	r0, r4
 1189 0076 FFF7FEFF 		bl	strlen
 1190              	.LVL155:
 1191 007a 2018     		add	r0, r4, r0
 1192 007c 0949     		ldr	r1, .L75+24
 1193 007e 0322     		mov	r2, #3
 1194 0080 FFF7FEFF 		bl	memcpy
 1195              	.LVL156:
 964:command_telemetry.c **** }// send_push_button_telemetry
 1196              		.loc 1 964 0 discriminator 4
 1197 0084 201C     		mov	r0, r4
ARM GAS  C:\Users\MM1005~1\AppData\Local\Temp\ccukbKgl.s 			page 41


 1198 0086 FFF7FEFF 		bl	send_telemetry
 1199              	.LVL157:
 965:command_telemetry.c **** 
 1200              		.loc 1 965 0 discriminator 4
 1201              		@ sp needed
 1202              	.LVL158:
 1203 008a F8BD     		pop	{r3, r4, r5, r6, r7, pc}
 1204              	.L76:
 1205              		.align	2
 1206              	.L75:
 1207 008c 00000000 		.word	.LANCHOR3
 1208 0090 FC000000 		.word	.LC57
 1209 0094 1C010000 		.word	.LC59
 1210 0098 28010000 		.word	.LC61
 1211 009c F0000000 		.word	.LC52
 1212 00a0 F8000000 		.word	.LC54
 1213 00a4 40000000 		.word	.LC23
 1214              		.cfi_endproc
 1215              	.LFE49:
 1216              		.size	send_push_button_telemetry, .-send_push_button_telemetry
 1217              		.section	.text.send_flash_geometry_telemetry,"ax",%progbits
 1218              		.align	2
 1219              		.global	send_flash_geometry_telemetry
 1220              		.code	16
 1221              		.thumb_func
 1222              		.type	send_flash_geometry_telemetry, %function
 1223              	send_flash_geometry_telemetry:
 1224              	.LFB50:
 971:command_telemetry.c ****     memset(telemetry, '\0', sizeof(telemetry));
 1225              		.loc 1 971 0
 1226              		.cfi_startproc
 1227              	.LVL159:
 1228 0000 F0B5     		push	{r4, r5, r6, r7, lr}
 1229              		.cfi_def_cfa_offset 20
 1230              		.cfi_offset 4, -20
 1231              		.cfi_offset 5, -16
 1232              		.cfi_offset 6, -12
 1233              		.cfi_offset 7, -8
 1234              		.cfi_offset 14, -4
 1235 0002 83B0     		sub	sp, sp, #12
 1236              		.cfi_def_cfa_offset 32
 1237 0004 071C     		mov	r7, r0
 1238 0006 0E1C     		mov	r6, r1
 1239 0008 0092     		str	r2, [sp]
 1240 000a 0193     		str	r3, [sp, #4]
 972:command_telemetry.c ****     strcpy(telemetry, "{\"event\":\"flash geometry\", \"checksum\":");
 1241              		.loc 1 972 0
 1242 000c 2C4C     		ldr	r4, .L78
 1243 000e 0434     		add	r4, r4, #4
 1244 0010 201C     		mov	r0, r4
 1245              	.LVL160:
 1246 0012 0021     		mov	r1, #0
 1247              	.LVL161:
 1248 0014 8022     		mov	r2, #128
 1249              	.LVL162:
 1250 0016 9200     		lsl	r2, r2, #2
 1251 0018 FFF7FEFF 		bl	memset
ARM GAS  C:\Users\MM1005~1\AppData\Local\Temp\ccukbKgl.s 			page 42


 1252              	.LVL163:
 973:command_telemetry.c ****     strcat(telemetry, itoa(flash_checksum));
 1253              		.loc 1 973 0
 1254 001c 2949     		ldr	r1, .L78+4
 1255 001e 231C     		mov	r3, r4
 1256 0020 0A1C     		mov	r2, r1
 1257 0022 23CA     		ldmia	r2!, {r0, r1, r5}
 1258 0024 23C3     		stmia	r3!, {r0, r1, r5}
 1259 0026 23CA     		ldmia	r2!, {r0, r1, r5}
 1260 0028 23C3     		stmia	r3!, {r0, r1, r5}
 1261 002a 23CA     		ldmia	r2!, {r0, r1, r5}
 1262 002c 23C3     		stmia	r3!, {r0, r1, r5}
 1263 002e 1188     		ldrh	r1, [r2]
 1264 0030 1980     		strh	r1, [r3]
 1265 0032 9278     		ldrb	r2, [r2, #2]
 1266 0034 9A70     		strb	r2, [r3, #2]
 974:command_telemetry.c ****     strcat(telemetry, ", \"first row\":");
 1267              		.loc 1 974 0
 1268 0036 381C     		mov	r0, r7
 1269 0038 0021     		mov	r1, #0
 1270 003a FFF7FEFF 		bl	itoa
 1271              	.LVL164:
 1272 003e 011C     		mov	r1, r0
 1273 0040 201C     		mov	r0, r4
 1274 0042 FFF7FEFF 		bl	strcat
 1275              	.LVL165:
 975:command_telemetry.c ****     strcat(telemetry, itoa(flash_first_row));
 1276              		.loc 1 975 0
 1277 0046 201C     		mov	r0, r4
 1278 0048 FFF7FEFF 		bl	strlen
 1279              	.LVL166:
 1280 004c 2018     		add	r0, r4, r0
 1281 004e 1E49     		ldr	r1, .L78+8
 1282 0050 0F22     		mov	r2, #15
 1283 0052 FFF7FEFF 		bl	memcpy
 1284              	.LVL167:
 976:command_telemetry.c ****     strcat(telemetry, ", \"last row\":");
 1285              		.loc 1 976 0
 1286 0056 301C     		mov	r0, r6
 1287 0058 0021     		mov	r1, #0
 1288 005a FFF7FEFF 		bl	itoa
 1289              	.LVL168:
 1290 005e 011C     		mov	r1, r0
 1291 0060 201C     		mov	r0, r4
 1292 0062 FFF7FEFF 		bl	strcat
 1293              	.LVL169:
 977:command_telemetry.c ****     strcat(telemetry, itoa(flash_last_row));
 1294              		.loc 1 977 0
 1295 0066 201C     		mov	r0, r4
 1296 0068 FFF7FEFF 		bl	strlen
 1297              	.LVL170:
 1298 006c 2018     		add	r0, r4, r0
 1299 006e 1749     		ldr	r1, .L78+12
 1300 0070 0E22     		mov	r2, #14
 1301 0072 FFF7FEFF 		bl	memcpy
 1302              	.LVL171:
 978:command_telemetry.c ****     strcat(telemetry, ", \"size\":");
ARM GAS  C:\Users\MM1005~1\AppData\Local\Temp\ccukbKgl.s 			page 43


 1303              		.loc 1 978 0
 1304 0076 0098     		ldr	r0, [sp]
 1305 0078 0021     		mov	r1, #0
 1306 007a FFF7FEFF 		bl	itoa
 1307              	.LVL172:
 1308 007e 011C     		mov	r1, r0
 1309 0080 201C     		mov	r0, r4
 1310 0082 FFF7FEFF 		bl	strcat
 1311              	.LVL173:
 979:command_telemetry.c ****     strcat(telemetry, itoa(flash_size));
 1312              		.loc 1 979 0
 1313 0086 201C     		mov	r0, r4
 1314 0088 FFF7FEFF 		bl	strlen
 1315              	.LVL174:
 1316 008c 2018     		add	r0, r4, r0
 1317 008e 1049     		ldr	r1, .L78+16
 1318 0090 0A22     		mov	r2, #10
 1319 0092 FFF7FEFF 		bl	memcpy
 1320              	.LVL175:
 980:command_telemetry.c ****     strcat(telemetry, "}");
 1321              		.loc 1 980 0
 1322 0096 0198     		ldr	r0, [sp, #4]
 1323 0098 0021     		mov	r1, #0
 1324 009a FFF7FEFF 		bl	itoa
 1325              	.LVL176:
 1326 009e 011C     		mov	r1, r0
 1327 00a0 201C     		mov	r0, r4
 1328 00a2 FFF7FEFF 		bl	strcat
 1329              	.LVL177:
 981:command_telemetry.c ****     
 1330              		.loc 1 981 0
 1331 00a6 201C     		mov	r0, r4
 1332 00a8 FFF7FEFF 		bl	strlen
 1333              	.LVL178:
 1334 00ac 2018     		add	r0, r4, r0
 1335 00ae 0949     		ldr	r1, .L78+20
 1336 00b0 0222     		mov	r2, #2
 1337 00b2 FFF7FEFF 		bl	memcpy
 1338              	.LVL179:
 983:command_telemetry.c **** }// send_flash_geometry_telemetry
 1339              		.loc 1 983 0
 1340 00b6 201C     		mov	r0, r4
 1341 00b8 FFF7FEFF 		bl	send_telemetry
 1342              	.LVL180:
 984:command_telemetry.c **** 
 1343              		.loc 1 984 0
 1344 00bc 03B0     		add	sp, sp, #12
 1345              	.LVL181:
 1346              		@ sp needed
 1347              	.LVL182:
 1348              	.LVL183:
 1349 00be F0BD     		pop	{r4, r5, r6, r7, pc}
 1350              	.L79:
 1351              		.align	2
 1352              	.L78:
 1353 00c0 00000000 		.word	.LANCHOR3
 1354 00c4 38010000 		.word	.LC66
ARM GAS  C:\Users\MM1005~1\AppData\Local\Temp\ccukbKgl.s 			page 44


 1355 00c8 60010000 		.word	.LC68
 1356 00cc 70010000 		.word	.LC70
 1357 00d0 80010000 		.word	.LC72
 1358 00d4 8C010000 		.word	.LC74
 1359              		.cfi_endproc
 1360              	.LFE50:
 1361              		.size	send_flash_geometry_telemetry, .-send_flash_geometry_telemetry
 1362              		.section	.text.set_is_telemetry_enable,"ax",%progbits
 1363              		.align	2
 1364              		.global	set_is_telemetry_enable
 1365              		.code	16
 1366              		.thumb_func
 1367              		.type	set_is_telemetry_enable, %function
 1368              	set_is_telemetry_enable:
 1369              	.LFB53:
1006:command_telemetry.c **** 
1007:command_telemetry.c **** //=============================================================================
1008:command_telemetry.c **** //===================================================== set_is_telemetry_enable
1009:command_telemetry.c **** //=============================================================================
1010:command_telemetry.c **** void set_is_telemetry_enable(BOOL the_is_telemetry_enable)
1011:command_telemetry.c **** {
 1370              		.loc 1 1011 0
 1371              		.cfi_startproc
 1372              	.LVL184:
1012:command_telemetry.c ****     is_telemetry_enable = the_is_telemetry_enable;
 1373              		.loc 1 1012 0
 1374 0000 014B     		ldr	r3, .L81
 1375 0002 1870     		strb	r0, [r3]
1013:command_telemetry.c **** }// set_is_telemetry_enable
 1376              		.loc 1 1013 0
 1377              		@ sp needed
 1378 0004 7047     		bx	lr
 1379              	.L82:
 1380 0006 C046     		.align	2
 1381              	.L81:
 1382 0008 00000000 		.word	.LANCHOR3
 1383              		.cfi_endproc
 1384              	.LFE53:
 1385              		.size	set_is_telemetry_enable, .-set_is_telemetry_enable
 1386              		.section	.text.get_is_sensor_telemetry_enable,"ax",%progbits
 1387              		.align	2
 1388              		.global	get_is_sensor_telemetry_enable
 1389              		.code	16
 1390              		.thumb_func
 1391              		.type	get_is_sensor_telemetry_enable, %function
 1392              	get_is_sensor_telemetry_enable:
 1393              	.LFB54:
1014:command_telemetry.c **** 
1015:command_telemetry.c **** //=============================================================================
1016:command_telemetry.c **** //============================================== get_is_sensor_telemetry_enable
1017:command_telemetry.c **** //=============================================================================
1018:command_telemetry.c **** BOOL get_is_sensor_telemetry_enable()
1019:command_telemetry.c **** {
 1394              		.loc 1 1019 0
 1395              		.cfi_startproc
1020:command_telemetry.c ****     return is_sensor_telemetry_enable;
 1396              		.loc 1 1020 0
ARM GAS  C:\Users\MM1005~1\AppData\Local\Temp\ccukbKgl.s 			page 45


 1397 0000 014B     		ldr	r3, .L84
 1398 0002 1879     		ldrb	r0, [r3, #4]
1021:command_telemetry.c **** }// get_is_sensor_telemetry_enable
 1399              		.loc 1 1021 0
 1400              		@ sp needed
 1401 0004 7047     		bx	lr
 1402              	.L85:
 1403 0006 C046     		.align	2
 1404              	.L84:
 1405 0008 00020000 		.word	.LANCHOR4
 1406              		.cfi_endproc
 1407              	.LFE54:
 1408              		.size	get_is_sensor_telemetry_enable, .-get_is_sensor_telemetry_enable
 1409              		.section	.text.send_button_telemetry,"ax",%progbits
 1410              		.align	2
 1411              		.global	send_button_telemetry
 1412              		.code	16
 1413              		.thumb_func
 1414              		.type	send_button_telemetry, %function
 1415              	send_button_telemetry:
 1416              	.LFB48:
 895:command_telemetry.c ****     int           nb_touched       =  0;
 1417              		.loc 1 895 0
 1418              		.cfi_startproc
 1419              	.LVL185:
 1420 0000 F0B5     		push	{r4, r5, r6, r7, lr}
 1421              		.cfi_def_cfa_offset 20
 1422              		.cfi_offset 4, -20
 1423              		.cfi_offset 5, -16
 1424              		.cfi_offset 6, -12
 1425              		.cfi_offset 7, -8
 1426              		.cfi_offset 14, -4
 1427 0002 91B0     		sub	sp, sp, #68
 1428              		.cfi_def_cfa_offset 88
 1429 0004 051C     		mov	r5, r0
 1430 0006 0E1C     		mov	r6, r1
 1431              	.LVL186:
 897:command_telemetry.c ****     char          str_direction[2] = {finger_direct, '\0'};
 1432              		.loc 1 897 0
 1433 0008 FFF7FEFF 		bl	get_timer_interrrupt_count
 1434              	.LVL187:
 1435 000c FFF7FEFF 		bl	Timer_1_ReadCounter
 1436              	.LVL188:
 903:command_telemetry.c ****     memset(sensors_vec, '\0', sizeof(sensors_vec));
 1437              		.loc 1 903 0
 1438 0010 2B48     		ldr	r0, .L93
 1439 0012 0430     		add	r0, r0, #4
 1440 0014 0021     		mov	r1, #0
 1441 0016 8022     		mov	r2, #128
 1442 0018 9200     		lsl	r2, r2, #2
 1443 001a FFF7FEFF 		bl	memset
 1444              	.LVL189:
 904:command_telemetry.c ****     
 1445              		.loc 1 904 0
 1446 001e 6846     		mov	r0, sp
 1447 0020 0021     		mov	r1, #0
 1448 0022 4022     		mov	r2, #64
ARM GAS  C:\Users\MM1005~1\AppData\Local\Temp\ccukbKgl.s 			page 46


 1449 0024 FFF7FEFF 		bl	memset
 1450              	.LVL190:
 906:command_telemetry.c ****          
 1451              		.loc 1 906 0
 1452 0028 264B     		ldr	r3, .L93+4
 1453 002a DB8A     		ldrh	r3, [r3, #22]
 1454 002c 1F1C     		add	r7, r3, #0
 1455 002e 3F2B     		cmp	r3, #63
 1456 0030 00D9     		bls	.L87
 1457 0032 3F27     		mov	r7, #63
 1458              	.L87:
 1459 0034 BFB2     		uxth	r7, r7
 1460              	.LVL191:
 908:command_telemetry.c ****     {
 1461              		.loc 1 908 0
 1462 0036 0024     		mov	r4, #0
 1463 0038 0EE0     		b	.L88
 1464              	.LVL192:
 1465              	.L91:
 910:command_telemetry.c ****         {
 1466              		.loc 1 910 0
 1467 003a 0020     		mov	r0, #0
 1468 003c 211C     		mov	r1, r4
 1469 003e FFF7FEFF 		bl	CapSense_IsSensorActive
 1470              	.LVL193:
 1471 0042 0028     		cmp	r0, #0
 1472 0044 03D0     		beq	.L89
 913:command_telemetry.c ****         }
 1473              		.loc 1 913 0
 1474 0046 3123     		mov	r3, #49
 1475 0048 6A46     		mov	r2, sp
 1476 004a 1355     		strb	r3, [r2, r4]
 1477 004c 02E0     		b	.L90
 1478              	.L89:
 917:command_telemetry.c ****         }
 1479              		.loc 1 917 0
 1480 004e 3023     		mov	r3, #48
 1481 0050 6A46     		mov	r2, sp
 1482 0052 1355     		strb	r3, [r2, r4]
 1483              	.L90:
 908:command_telemetry.c ****     {
 1484              		.loc 1 908 0 discriminator 2
 1485 0054 0134     		add	r4, r4, #1
 1486              	.LVL194:
 1487 0056 A4B2     		uxth	r4, r4
 1488              	.LVL195:
 1489              	.L88:
 908:command_telemetry.c ****     {
 1490              		.loc 1 908 0 is_stmt 0 discriminator 1
 1491 0058 BC42     		cmp	r4, r7
 1492 005a EED3     		bcc	.L91
 921:command_telemetry.c ****     strcat(telemetry, itoa(button));
 1493              		.loc 1 921 0 is_stmt 1
 1494 005c 184C     		ldr	r4, .L93
 1495              	.LVL196:
 1496 005e 0434     		add	r4, r4, #4
 1497 0060 1949     		ldr	r1, .L93+8
ARM GAS  C:\Users\MM1005~1\AppData\Local\Temp\ccukbKgl.s 			page 47


 1498 0062 231C     		mov	r3, r4
 1499 0064 0A1C     		mov	r2, r1
 1500 0066 83CA     		ldmia	r2!, {r0, r1, r7}
 1501 0068 83C3     		stmia	r3!, {r0, r1, r7}
 1502              	.LVL197:
 1503 006a 83CA     		ldmia	r2!, {r0, r1, r7}
 1504 006c 83C3     		stmia	r3!, {r0, r1, r7}
 1505 006e 1278     		ldrb	r2, [r2]
 1506 0070 1A70     		strb	r2, [r3]
 922:command_telemetry.c **** #if USE_ALL_BUTTON_TELE     
 1507              		.loc 1 922 0
 1508 0072 E917     		asr	r1, r5, #31
 1509 0074 281C     		mov	r0, r5
 1510 0076 FFF7FEFF 		bl	itoa
 1511              	.LVL198:
 1512 007a 011C     		mov	r1, r0
 1513 007c 201C     		mov	r0, r4
 1514 007e FFF7FEFF 		bl	strcat
 1515              	.LVL199:
 937:command_telemetry.c ****     strcat(telemetry, action);
 1516              		.loc 1 937 0
 1517 0082 201C     		mov	r0, r4
 1518 0084 FFF7FEFF 		bl	strlen
 1519              	.LVL200:
 1520 0088 2018     		add	r0, r4, r0
 1521 008a 1049     		ldr	r1, .L93+12
 1522 008c 0D22     		mov	r2, #13
 1523 008e FFF7FEFF 		bl	memcpy
 1524              	.LVL201:
 938:command_telemetry.c ****     strcat(telemetry, "\"}");
 1525              		.loc 1 938 0
 1526 0092 201C     		mov	r0, r4
 1527 0094 311C     		mov	r1, r6
 1528 0096 FFF7FEFF 		bl	strcat
 1529              	.LVL202:
 939:command_telemetry.c ****     
 1530              		.loc 1 939 0
 1531 009a 201C     		mov	r0, r4
 1532 009c FFF7FEFF 		bl	strlen
 1533              	.LVL203:
 1534 00a0 2018     		add	r0, r4, r0
 1535 00a2 0B49     		ldr	r1, .L93+16
 1536 00a4 0322     		mov	r2, #3
 1537 00a6 FFF7FEFF 		bl	memcpy
 1538              	.LVL204:
 941:command_telemetry.c ****     
 1539              		.loc 1 941 0
 1540 00aa 201C     		mov	r0, r4
 1541 00ac FFF7FEFF 		bl	send_telemetry
 1542              	.LVL205:
 943:command_telemetry.c ****     {
 1543              		.loc 1 943 0
 1544 00b0 FFF7FEFF 		bl	get_is_sensor_telemetry_enable
 1545              	.LVL206:
 1546 00b4 0028     		cmp	r0, #0
 1547 00b6 01D0     		beq	.L86
 945:command_telemetry.c ****     }
ARM GAS  C:\Users\MM1005~1\AppData\Local\Temp\ccukbKgl.s 			page 48


 1548              		.loc 1 945 0
 1549 00b8 FFF7FEFF 		bl	send_telemetry_capsense
 1550              	.LVL207:
 1551              	.L86:
 947:command_telemetry.c **** 
 1552              		.loc 1 947 0
 1553 00bc 11B0     		add	sp, sp, #68
 1554              		@ sp needed
 1555              	.LVL208:
 1556              	.LVL209:
 1557 00be F0BD     		pop	{r4, r5, r6, r7, pc}
 1558              	.L94:
 1559              		.align	2
 1560              	.L93:
 1561 00c0 00000000 		.word	.LANCHOR3
 1562 00c4 00000000 		.word	CapSense_dsFlash
 1563 00c8 90010000 		.word	.LC81
 1564 00cc AC010000 		.word	.LC83
 1565 00d0 40000000 		.word	.LC23
 1566              		.cfi_endproc
 1567              	.LFE48:
 1568              		.size	send_button_telemetry, .-send_button_telemetry
 1569              		.section	.text.set_is_sensor_telemetry_enable,"ax",%progbits
 1570              		.align	2
 1571              		.global	set_is_sensor_telemetry_enable
 1572              		.code	16
 1573              		.thumb_func
 1574              		.type	set_is_sensor_telemetry_enable, %function
 1575              	set_is_sensor_telemetry_enable:
 1576              	.LFB55:
1022:command_telemetry.c **** 
1023:command_telemetry.c **** //=============================================================================
1024:command_telemetry.c **** //============================================== set_is_sensor_telemetry_enable
1025:command_telemetry.c **** //=============================================================================
1026:command_telemetry.c **** void set_is_sensor_telemetry_enable(BOOL the_is_sensor_telemetry_enable)
1027:command_telemetry.c **** {
 1577              		.loc 1 1027 0
 1578              		.cfi_startproc
 1579              	.LVL210:
1028:command_telemetry.c ****     is_sensor_telemetry_enable = the_is_sensor_telemetry_enable;
 1580              		.loc 1 1028 0
 1581 0000 014B     		ldr	r3, .L96
 1582 0002 1871     		strb	r0, [r3, #4]
1029:command_telemetry.c **** }// set_is_sensor_telemetry_enable
 1583              		.loc 1 1029 0
 1584              		@ sp needed
 1585 0004 7047     		bx	lr
 1586              	.L97:
 1587 0006 C046     		.align	2
 1588              	.L96:
 1589 0008 00020000 		.word	.LANCHOR4
 1590              		.cfi_endproc
 1591              	.LFE55:
 1592              		.size	set_is_sensor_telemetry_enable, .-set_is_sensor_telemetry_enable
 1593              		.section	.text.parse_and_execute_command,"ax",%progbits
 1594              		.align	2
 1595              		.global	parse_and_execute_command
ARM GAS  C:\Users\MM1005~1\AppData\Local\Temp\ccukbKgl.s 			page 49


 1596              		.code	16
 1597              		.thumb_func
 1598              		.type	parse_and_execute_command, %function
 1599              	parse_and_execute_command:
 1600              	.LFB43:
 213:command_telemetry.c ****     t_enum_command            cmd_id           = CMD_UNKNOWN;
 1601              		.loc 1 213 0
 1602              		.cfi_startproc
 1603              	.LVL211:
 1604 0000 F0B5     		push	{r4, r5, r6, r7, lr}
 1605              		.cfi_def_cfa_offset 20
 1606              		.cfi_offset 4, -20
 1607              		.cfi_offset 5, -16
 1608              		.cfi_offset 6, -12
 1609              		.cfi_offset 7, -8
 1610              		.cfi_offset 14, -4
 1611 0002 93B0     		sub	sp, sp, #76
 1612              		.cfi_def_cfa_offset 96
 1613 0004 041C     		mov	r4, r0
 1614              	.LVL212:
 222:command_telemetry.c ****     char*                     next_param_str   = NULL; 
 1615              		.loc 1 222 0
 1616 0006 2C21     		mov	r1, #44
 1617 0008 FFF7FEFF 		bl	strchr
 1618              	.LVL213:
 239:command_telemetry.c ****     {
 1619              		.loc 1 239 0
 1620 000c 0028     		cmp	r0, #0
 1621 000e 06D1     		bne	.L99
 241:command_telemetry.c ****         return FALSE;    
 1622              		.loc 1 241 0
 1623 0010 0230     		add	r0, r0, #2
 1624              	.LVL214:
 1625 0012 211C     		mov	r1, r4
 1626 0014 C94A     		ldr	r2, .L185
 1627 0016 FFF7FEFF 		bl	send_alarm_telemetry
 1628              	.LVL215:
 242:command_telemetry.c ****     }// If we can't a comma inside the command
 1629              		.loc 1 242 0
 1630 001a 0020     		mov	r0, #0
 1631 001c 77E3     		b	.L100
 1632              	.LVL216:
 1633              	.L99:
 245:command_telemetry.c ****     
 1634              		.loc 1 245 0
 1635 001e 451C     		add	r5, r0, #1
 1636              	.LVL217:
 1637 0020 FFF7FEFF 		bl	get_cmd_id_from_cmd_string
 1638              	.LVL218:
 247:command_telemetry.c ****     {
 1639              		.loc 1 247 0
 1640 0024 0828     		cmp	r0, #8
 1641 0026 00D9     		bls	.LCB1616
 1642 0028 6BE3     		b	.L101	@long jump
 1643              	.LCB1616:
 1644 002a 8000     		lsl	r0, r0, #2
 1645              	.LVL219:
ARM GAS  C:\Users\MM1005~1\AppData\Local\Temp\ccukbKgl.s 			page 50


 1646 002c C44B     		ldr	r3, .L185+4
 1647 002e 1B58     		ldr	r3, [r3, r0]
 1648 0030 9F46     		mov	pc, r3
 1649              		.section	.rodata
 1650              		.align	2
 1651              	.L103:
 1652 0000 7E000000 		.word	.L102
 1653 0004 14010000 		.word	.L104
 1654 0008 32000000 		.word	.L105
 1655 000c 94010000 		.word	.L106
 1656 0010 58000000 		.word	.L179
 1657 0014 5A050000 		.word	.L108
 1658 0018 BE050000 		.word	.L109
 1659 001c 22060000 		.word	.L110
 1660 0020 F0060000 		.word	.L111
 1661              		.section	.text.parse_and_execute_command
 1662              	.L105:
 251:command_telemetry.c ****             return FALSE;    
 1663              		.loc 1 251 0
 1664 0032 0220     		mov	r0, #2
 1665 0034 211C     		mov	r1, r4
 1666 0036 C34A     		ldr	r2, .L185+8
 1667 0038 FFF7FEFF 		bl	send_alarm_telemetry
 1668              	.LVL220:
 252:command_telemetry.c ****         }// CMD_CAPSENSE
 1669              		.loc 1 252 0
 1670 003c 0020     		mov	r0, #0
 1671 003e 66E3     		b	.L100
 1672              	.LVL221:
 1673              	.L112:
 259:command_telemetry.c ****             }// for all the commands
 1674              		.loc 1 259 0 discriminator 3
 1675 0040 6300     		lsl	r3, r4, #1
 1676 0042 1B19     		add	r3, r3, r4
 1677 0044 9B00     		lsl	r3, r3, #2
 1678 0046 C04A     		ldr	r2, .L185+12
 1679 0048 D318     		add	r3, r2, r3
 1680 004a 5968     		ldr	r1, [r3, #4]
 1681 004c 9A68     		ldr	r2, [r3, #8]
 1682 004e 0020     		mov	r0, #0
 1683 0050 FFF7FEFF 		bl	send_alarm_telemetry
 1684              	.LVL222:
 257:command_telemetry.c ****             {
 1685              		.loc 1 257 0 discriminator 3
 1686 0054 0134     		add	r4, r4, #1
 1687              	.LVL223:
 1688 0056 00E0     		b	.L107
 1689              	.LVL224:
 1690              	.L179:
 247:command_telemetry.c ****     {
 1691              		.loc 1 247 0
 1692 0058 0024     		mov	r4, #0
 1693              	.LVL225:
 1694              	.L107:
 257:command_telemetry.c ****             {
 1695              		.loc 1 257 0 discriminator 1
 1696 005a 082C     		cmp	r4, #8
ARM GAS  C:\Users\MM1005~1\AppData\Local\Temp\ccukbKgl.s 			page 51


 1697 005c F0DD     		ble	.L112
 1698 005e 0024     		mov	r4, #0
 1699              	.LVL226:
 1700 0060 09E0     		b	.L113
 1701              	.LVL227:
 1702              	.L114:
 264:command_telemetry.c ****                 send_alarm_telemetry(ALARM_LOG, "animation", animation.description);
 1703              		.loc 1 264 0 discriminator 3
 1704 0062 E0B2     		uxtb	r0, r4
 1705 0064 0FA9     		add	r1, sp, #60
 1706 0066 FFF7FEFF 		bl	get_animation
 1707              	.LVL228:
 265:command_telemetry.c ****             }// for all the commands
 1708              		.loc 1 265 0 discriminator 3
 1709 006a 119A     		ldr	r2, [sp, #68]
 1710 006c 0020     		mov	r0, #0
 1711 006e B749     		ldr	r1, .L185+16
 1712 0070 FFF7FEFF 		bl	send_alarm_telemetry
 1713              	.LVL229:
 262:command_telemetry.c ****             {
 1714              		.loc 1 262 0 discriminator 3
 1715 0074 0134     		add	r4, r4, #1
 1716              	.LVL230:
 1717              	.L113:
 262:command_telemetry.c ****             {
 1718              		.loc 1 262 0 is_stmt 0 discriminator 1
 1719 0076 0D2C     		cmp	r4, #13
 1720 0078 F3DD     		ble	.L114
 811:command_telemetry.c **** }// parse_and_execute_command
 1721              		.loc 1 811 0 is_stmt 1
 1722 007a 0120     		mov	r0, #1
 1723 007c 47E3     		b	.L100
 1724              	.LVL231:
 1725              	.L102:
 273:command_telemetry.c ****             {
 1726              		.loc 1 273 0
 1727 007e 281C     		mov	r0, r5
 1728 0080 2C21     		mov	r1, #44
 1729 0082 FFF7FEFF 		bl	strchr
 1730              	.LVL232:
 1731 0086 0028     		cmp	r0, #0
 1732 0088 06D1     		bne	.L115
 275:command_telemetry.c ****                 return FALSE;
 1733              		.loc 1 275 0
 1734 008a 0230     		add	r0, r0, #2
 1735              	.LVL233:
 1736 008c 211C     		mov	r1, r4
 1737 008e B04A     		ldr	r2, .L185+20
 1738 0090 FFF7FEFF 		bl	send_alarm_telemetry
 1739              	.LVL234:
 276:command_telemetry.c ****             }// If we can't find the next ',' character
 1740              		.loc 1 276 0
 1741 0094 0020     		mov	r0, #0
 1742 0096 3AE3     		b	.L100
 1743              	.LVL235:
 1744              	.L115:
 279:command_telemetry.c ****             {
ARM GAS  C:\Users\MM1005~1\AppData\Local\Temp\ccukbKgl.s 			page 52


 1745              		.loc 1 279 0
 1746 0098 0130     		add	r0, r0, #1
 1747              	.LVL236:
 1748 009a 3A21     		mov	r1, #58
 1749 009c FFF7FEFF 		bl	strchr
 1750              	.LVL237:
 1751 00a0 0028     		cmp	r0, #0
 1752 00a2 06D1     		bne	.L116
 281:command_telemetry.c ****                 return FALSE;
 1753              		.loc 1 281 0
 1754 00a4 0230     		add	r0, r0, #2
 1755              	.LVL238:
 1756 00a6 211C     		mov	r1, r4
 1757 00a8 A94A     		ldr	r2, .L185+20
 1758 00aa FFF7FEFF 		bl	send_alarm_telemetry
 1759              	.LVL239:
 282:command_telemetry.c ****             }// If we can't find the next ':' character
 1760              		.loc 1 282 0
 1761 00ae 0020     		mov	r0, #0
 1762 00b0 2DE3     		b	.L100
 1763              	.LVL240:
 1764              	.L116:
 284:command_telemetry.c ****             
 1765              		.loc 1 284 0
 1766 00b2 451C     		add	r5, r0, #1
 1767              	.LVL241:
 286:command_telemetry.c ****             {
 1768              		.loc 1 286 0
 1769 00b4 281C     		mov	r0, r5
 1770 00b6 FFF7FEFF 		bl	get_anim_cmd_id_from_cmd_string
 1771              	.LVL242:
 1772 00ba 0128     		cmp	r0, #1
 1773 00bc 0BD0     		beq	.L118
 1774 00be 0028     		cmp	r0, #0
 1775 00c0 04D0     		beq	.L119
 1776 00c2 0228     		cmp	r0, #2
 1777 00c4 0CD0     		beq	.L120
 1778 00c6 0328     		cmp	r0, #3
 1779 00c8 0FD0     		beq	.L121
 1780 00ca 13E0     		b	.L180
 1781              	.L119:
 290:command_telemetry.c ****                     break;
 1782              		.loc 1 290 0
 1783 00cc 0120     		mov	r0, #1
 1784              	.LVL243:
 1785 00ce FFF7FEFF 		bl	set_is_auto_anim_rotation_enable
 1786              	.LVL244:
 811:command_telemetry.c **** }// parse_and_execute_command
 1787              		.loc 1 811 0
 1788 00d2 0120     		mov	r0, #1
 291:command_telemetry.c ****                 }// CMD_ANIM_AUTO
 1789              		.loc 1 291 0
 1790 00d4 1BE3     		b	.L100
 1791              	.LVL245:
 1792              	.L118:
 296:command_telemetry.c ****                     break;
 1793              		.loc 1 296 0
ARM GAS  C:\Users\MM1005~1\AppData\Local\Temp\ccukbKgl.s 			page 53


 1794 00d6 0020     		mov	r0, #0
 1795              	.LVL246:
 1796 00d8 FFF7FEFF 		bl	set_is_auto_anim_rotation_enable
 1797              	.LVL247:
 811:command_telemetry.c **** }// parse_and_execute_command
 1798              		.loc 1 811 0
 1799 00dc 0120     		mov	r0, #1
 297:command_telemetry.c ****                 }// CMD_ANIM_MANUAL
 1800              		.loc 1 297 0
 1801 00de 16E3     		b	.L100
 1802              	.LVL248:
 1803              	.L120:
 302:command_telemetry.c ****                     break;
 1804              		.loc 1 302 0
 1805 00e0 0020     		mov	r0, #0
 1806              	.LVL249:
 1807 00e2 FFF7FEFF 		bl	set_is_anim_on_button_up_enable
 1808              	.LVL250:
 811:command_telemetry.c **** }// parse_and_execute_command
 1809              		.loc 1 811 0
 1810 00e6 0120     		mov	r0, #1
 303:command_telemetry.c ****                 }// CMD_ANIM_STOP
 1811              		.loc 1 303 0
 1812 00e8 11E3     		b	.L100
 1813              	.LVL251:
 1814              	.L121:
 308:command_telemetry.c ****                     break;
 1815              		.loc 1 308 0
 1816 00ea 0120     		mov	r0, #1
 1817              	.LVL252:
 1818 00ec FFF7FEFF 		bl	set_is_anim_on_button_up_enable
 1819              	.LVL253:
 811:command_telemetry.c **** }// parse_and_execute_command
 1820              		.loc 1 811 0
 1821 00f0 0120     		mov	r0, #1
 309:command_telemetry.c ****                 }// CMD_ANIM_RESUME
 1822              		.loc 1 309 0
 1823 00f2 0CE3     		b	.L100
 1824              	.LVL254:
 1825              	.L180:
 315:command_telemetry.c ****                     {
 1826              		.loc 1 315 0
 1827 00f4 281C     		mov	r0, r5
 1828              	.LVL255:
 1829 00f6 FFF7FEFF 		bl	get_anim_id_from_cmd_string
 1830              	.LVL256:
 1831 00fa 0E28     		cmp	r0, #14
 1832 00fc 03D0     		beq	.L122
 317:command_telemetry.c ****                     }// if we found a valid animation description in the command
 1833              		.loc 1 317 0
 1834 00fe FFF7FEFF 		bl	set_current_callback_anim
 1835              	.LVL257:
 811:command_telemetry.c **** }// parse_and_execute_command
 1836              		.loc 1 811 0
 1837 0102 0120     		mov	r0, #1
 324:command_telemetry.c ****                 }// CMD_ANIM_UNKOWN, default
 1838              		.loc 1 324 0
ARM GAS  C:\Users\MM1005~1\AppData\Local\Temp\ccukbKgl.s 			page 54


 1839 0104 03E3     		b	.L100
 1840              	.LVL258:
 1841              	.L122:
 321:command_telemetry.c ****                         return FALSE;
 1842              		.loc 1 321 0
 1843 0106 0220     		mov	r0, #2
 1844              	.LVL259:
 1845 0108 211C     		mov	r1, r4
 1846 010a 914A     		ldr	r2, .L185+20
 1847 010c FFF7FEFF 		bl	send_alarm_telemetry
 1848              	.LVL260:
 322:command_telemetry.c ****                     }// else, we couldn't find a valid animation 
 1849              		.loc 1 322 0
 1850 0110 0020     		mov	r0, #0
 1851 0112 FCE2     		b	.L100
 1852              	.LVL261:
 1853              	.L104:
 332:command_telemetry.c ****             {
 1854              		.loc 1 332 0
 1855 0114 281C     		mov	r0, r5
 1856 0116 2C21     		mov	r1, #44
 1857 0118 FFF7FEFF 		bl	strchr
 1858              	.LVL262:
 1859 011c 0028     		cmp	r0, #0
 1860 011e 06D1     		bne	.L123
 334:command_telemetry.c ****                 return FALSE;
 1861              		.loc 1 334 0
 1862 0120 0230     		add	r0, r0, #2
 1863              	.LVL263:
 1864 0122 211C     		mov	r1, r4
 1865 0124 8B4A     		ldr	r2, .L185+24
 1866 0126 FFF7FEFF 		bl	send_alarm_telemetry
 1867              	.LVL264:
 335:command_telemetry.c ****             }// If we can't find the next ',' character
 1868              		.loc 1 335 0
 1869 012a 0020     		mov	r0, #0
 1870 012c EFE2     		b	.L100
 1871              	.LVL265:
 1872              	.L123:
 338:command_telemetry.c ****             {
 1873              		.loc 1 338 0
 1874 012e 0130     		add	r0, r0, #1
 1875              	.LVL266:
 1876 0130 3A21     		mov	r1, #58
 1877 0132 FFF7FEFF 		bl	strchr
 1878              	.LVL267:
 1879 0136 0028     		cmp	r0, #0
 1880 0138 06D1     		bne	.L124
 340:command_telemetry.c ****                 return FALSE;
 1881              		.loc 1 340 0
 1882 013a 0230     		add	r0, r0, #2
 1883              	.LVL268:
 1884 013c 211C     		mov	r1, r4
 1885 013e 854A     		ldr	r2, .L185+24
 1886 0140 FFF7FEFF 		bl	send_alarm_telemetry
 1887              	.LVL269:
 341:command_telemetry.c ****             }// If we can't find the next ':' character
ARM GAS  C:\Users\MM1005~1\AppData\Local\Temp\ccukbKgl.s 			page 55


 1888              		.loc 1 341 0
 1889 0144 0020     		mov	r0, #0
 1890 0146 E2E2     		b	.L100
 1891              	.LVL270:
 1892              	.L124:
 343:command_telemetry.c ****             
 1893              		.loc 1 343 0
 1894 0148 0130     		add	r0, r0, #1
 1895              	.LVL271:
 345:command_telemetry.c ****             {
 1896              		.loc 1 345 0
 1897 014a FFF7FEFF 		bl	get_boot_cmd_id_from_cmd_string
 1898              	.LVL272:
 1899 014e 0128     		cmp	r0, #1
 1900 0150 0BD0     		beq	.L126
 1901 0152 0028     		cmp	r0, #0
 1902 0154 02D0     		beq	.L127
 1903 0156 0228     		cmp	r0, #2
 1904 0158 0ED0     		beq	.L128
 1905 015a 14E0     		b	.L181
 1906              	.L127:
 354:command_telemetry.c **** #endif // USE_BOOTLOADER  
 1907              		.loc 1 354 0
 1908 015c 0320     		mov	r0, #3
 1909              	.LVL273:
 1910 015e 211C     		mov	r1, r4
 1911 0160 7D4A     		ldr	r2, .L185+28
 1912 0162 FFF7FEFF 		bl	send_alarm_telemetry
 1913              	.LVL274:
 811:command_telemetry.c **** }// parse_and_execute_command
 1914              		.loc 1 811 0
 1915 0166 0120     		mov	r0, #1
 356:command_telemetry.c ****                 }// CMD_BOOT_START      
 1916              		.loc 1 356 0
 1917 0168 D1E2     		b	.L100
 1918              	.LVL275:
 1919              	.L126:
 364:command_telemetry.c **** #endif // USE_BOOTLOADER      
 1920              		.loc 1 364 0
 1921 016a 0320     		mov	r0, #3
 1922              	.LVL276:
 1923 016c 211C     		mov	r1, r4
 1924 016e 7A4A     		ldr	r2, .L185+28
 1925 0170 FFF7FEFF 		bl	send_alarm_telemetry
 1926              	.LVL277:
 811:command_telemetry.c **** }// parse_and_execute_command
 1927              		.loc 1 811 0
 1928 0174 0120     		mov	r0, #1
 366:command_telemetry.c ****                 }// CMD_BOOT_EXIT
 1929              		.loc 1 366 0
 1930 0176 CAE2     		b	.L100
 1931              	.LVL278:
 1932              	.L128:
 378:command_telemetry.c **** #endif // USE_BOOTLOADER  
 1933              		.loc 1 378 0
 1934 0178 0320     		mov	r0, #3
 1935              	.LVL279:
ARM GAS  C:\Users\MM1005~1\AppData\Local\Temp\ccukbKgl.s 			page 56


 1936 017a 211C     		mov	r1, r4
 1937 017c 764A     		ldr	r2, .L185+28
 1938 017e FFF7FEFF 		bl	send_alarm_telemetry
 1939              	.LVL280:
 811:command_telemetry.c **** }// parse_and_execute_command
 1940              		.loc 1 811 0
 1941 0182 0120     		mov	r0, #1
 380:command_telemetry.c ****                 }// CMD_BOOT_EXIT
 1942              		.loc 1 380 0
 1943 0184 C3E2     		b	.L100
 1944              	.LVL281:
 1945              	.L181:
 386:command_telemetry.c ****                     return FALSE;
 1946              		.loc 1 386 0
 1947 0186 0220     		mov	r0, #2
 1948              	.LVL282:
 1949 0188 211C     		mov	r1, r4
 1950 018a 744A     		ldr	r2, .L185+32
 1951 018c FFF7FEFF 		bl	send_alarm_telemetry
 1952              	.LVL283:
 387:command_telemetry.c ****                 }// CMD_TRACKER_UNKNOWN, default
 1953              		.loc 1 387 0
 1954 0190 0020     		mov	r0, #0
 1955 0192 BCE2     		b	.L100
 1956              	.LVL284:
 1957              	.L106:
 398:command_telemetry.c ****             {
 1958              		.loc 1 398 0
 1959 0194 281C     		mov	r0, r5
 1960 0196 FFF7FEFF 		bl	get_led_cmd_id_from_cmd_string
 1961              	.LVL285:
 1962 019a 061E     		sub	r6, r0, #0
 1963              	.LVL286:
 1964 019c 042E     		cmp	r6, #4
 1965 019e 00D9     		bls	.LCB1958
 1966 01a0 D4E1     		b	.L129	@long jump
 1967              	.LCB1958:
 1968 01a2 8000     		lsl	r0, r0, #2
 1969              	.LVL287:
 1970 01a4 6E4B     		ldr	r3, .L185+36
 1971 01a6 1B58     		ldr	r3, [r3, r0]
 1972 01a8 9F46     		mov	pc, r3
 1973              		.section	.rodata
 1974              		.align	2
 1975              	.L131:
 1976 0024 AA010000 		.word	.L130
 1977 0028 B4010000 		.word	.L132
 1978 002c B4010000 		.word	.L132
 1979 0030 D2020000 		.word	.L133
 1980 0034 C6030000 		.word	.L134
 1981              		.section	.text.parse_and_execute_command
 1982              	.L130:
 402:command_telemetry.c ****                     break;
 1983              		.loc 1 402 0
 1984 01aa 0020     		mov	r0, #0
 1985 01ac FFF7FEFF 		bl	set_all_leds_intensity
 1986              	.LVL288:
ARM GAS  C:\Users\MM1005~1\AppData\Local\Temp\ccukbKgl.s 			page 57


 811:command_telemetry.c **** }// parse_and_execute_command
 1987              		.loc 1 811 0
 1988 01b0 0120     		mov	r0, #1
 403:command_telemetry.c ****                 }// CMD_LED_CLEAR
 1989              		.loc 1 403 0
 1990 01b2 ACE2     		b	.L100
 1991              	.L132:
 409:command_telemetry.c ****                     {
 1992              		.loc 1 409 0
 1993 01b4 281C     		mov	r0, r5
 1994 01b6 2C21     		mov	r1, #44
 1995 01b8 FFF7FEFF 		bl	strchr
 1996              	.LVL289:
 1997 01bc 0028     		cmp	r0, #0
 1998 01be 06D1     		bne	.L135
 411:command_telemetry.c ****                         return FALSE;
 1999              		.loc 1 411 0
 2000 01c0 0230     		add	r0, r0, #2
 2001              	.LVL290:
 2002 01c2 211C     		mov	r1, r4
 2003 01c4 624A     		ldr	r2, .L185+20
 2004 01c6 FFF7FEFF 		bl	send_alarm_telemetry
 2005              	.LVL291:
 412:command_telemetry.c ****                     }// If we can't find the next ',' character
 2006              		.loc 1 412 0
 2007 01ca 0020     		mov	r0, #0
 2008 01cc 9FE2     		b	.L100
 2009              	.LVL292:
 2010              	.L135:
 415:command_telemetry.c ****                     {
 2011              		.loc 1 415 0
 2012 01ce 0130     		add	r0, r0, #1
 2013              	.LVL293:
 2014 01d0 3A21     		mov	r1, #58
 2015 01d2 FFF7FEFF 		bl	strchr
 2016              	.LVL294:
 2017 01d6 0028     		cmp	r0, #0
 2018 01d8 06D1     		bne	.L136
 417:command_telemetry.c ****                         return FALSE;
 2019              		.loc 1 417 0
 2020 01da 0230     		add	r0, r0, #2
 2021              	.LVL295:
 2022 01dc 211C     		mov	r1, r4
 2023 01de 614A     		ldr	r2, .L185+40
 2024 01e0 FFF7FEFF 		bl	send_alarm_telemetry
 2025              	.LVL296:
 418:command_telemetry.c ****                     }// If we can't find the next ':' character
 2026              		.loc 1 418 0
 2027 01e4 0020     		mov	r0, #0
 2028 01e6 92E2     		b	.L100
 2029              	.LVL297:
 2030              	.L136:
 424:command_telemetry.c ****                     {
 2031              		.loc 1 424 0
 2032 01e8 0130     		add	r0, r0, #1
 2033              	.LVL298:
 2034 01ea 3A21     		mov	r1, #58
ARM GAS  C:\Users\MM1005~1\AppData\Local\Temp\ccukbKgl.s 			page 58


 2035 01ec FFF7FEFF 		bl	strchr
 2036              	.LVL299:
 2037 01f0 0028     		cmp	r0, #0
 2038 01f2 06D1     		bne	.L137
 426:command_telemetry.c ****                         return FALSE;
 2039              		.loc 1 426 0
 2040 01f4 0230     		add	r0, r0, #2
 2041              	.LVL300:
 2042 01f6 211C     		mov	r1, r4
 2043 01f8 5A4A     		ldr	r2, .L185+40
 2044 01fa FFF7FEFF 		bl	send_alarm_telemetry
 2045              	.LVL301:
 427:command_telemetry.c ****                     }// If we can't find the next ':' character
 2046              		.loc 1 427 0
 2047 01fe 0020     		mov	r0, #0
 2048 0200 85E2     		b	.L100
 2049              	.LVL302:
 2050              	.L137:
 430:command_telemetry.c ****                     {
 2051              		.loc 1 430 0
 2052 0202 451C     		add	r5, r0, #1
 2053              	.LVL303:
 2054 0204 281C     		mov	r0, r5
 2055 0206 2C21     		mov	r1, #44
 2056 0208 FFF7FEFF 		bl	strchr
 2057              	.LVL304:
 2058 020c 0028     		cmp	r0, #0
 2059 020e 06D1     		bne	.L138
 432:command_telemetry.c ****                         return FALSE;
 2060              		.loc 1 432 0
 2061 0210 0230     		add	r0, r0, #2
 2062              	.LVL305:
 2063 0212 211C     		mov	r1, r4
 2064 0214 534A     		ldr	r2, .L185+40
 2065 0216 FFF7FEFF 		bl	send_alarm_telemetry
 2066              	.LVL306:
 433:command_telemetry.c ****                     }// If we can't find the next ',' character
 2067              		.loc 1 433 0
 2068 021a 0020     		mov	r0, #0
 2069 021c 77E2     		b	.L100
 2070              	.LVL307:
 2071              	.L138:
 435:command_telemetry.c ****                     next_param_str++;
 2072              		.loc 1 435 0
 2073 021e 0023     		mov	r3, #0
 2074 0220 0370     		strb	r3, [r0]
 436:command_telemetry.c ****                     
 2075              		.loc 1 436 0
 2076 0222 471C     		add	r7, r0, #1
 2077              	.LVL308:
 438:command_telemetry.c ****                     
 2078              		.loc 1 438 0
 2079 0224 281C     		mov	r0, r5
 2080 0226 FFF7FEFF 		bl	atoi
 2081              	.LVL309:
 2082 022a 0190     		str	r0, [sp, #4]
 2083              	.LVL310:
ARM GAS  C:\Users\MM1005~1\AppData\Local\Temp\ccukbKgl.s 			page 59


 443:command_telemetry.c ****                     {
 2084              		.loc 1 443 0
 2085 022c 381C     		mov	r0, r7
 2086              	.LVL311:
 2087 022e 3A21     		mov	r1, #58
 2088 0230 FFF7FEFF 		bl	strchr
 2089              	.LVL312:
 2090 0234 0028     		cmp	r0, #0
 2091 0236 06D1     		bne	.L139
 445:command_telemetry.c ****                         return FALSE;
 2092              		.loc 1 445 0
 2093 0238 0230     		add	r0, r0, #2
 2094              	.LVL313:
 2095 023a 211C     		mov	r1, r4
 2096 023c 4A4A     		ldr	r2, .L185+44
 2097 023e FFF7FEFF 		bl	send_alarm_telemetry
 2098              	.LVL314:
 446:command_telemetry.c ****                     }// If we can't find the next ':' character
 2099              		.loc 1 446 0
 2100 0242 0020     		mov	r0, #0
 2101 0244 63E2     		b	.L100
 2102              	.LVL315:
 2103              	.L139:
 449:command_telemetry.c ****                     {
 2104              		.loc 1 449 0
 2105 0246 471C     		add	r7, r0, #1
 2106              	.LVL316:
 2107 0248 381C     		mov	r0, r7
 2108 024a 2C21     		mov	r1, #44
 2109 024c FFF7FEFF 		bl	strchr
 2110              	.LVL317:
 2111 0250 0028     		cmp	r0, #0
 2112 0252 06D1     		bne	.L140
 451:command_telemetry.c ****                         return FALSE;
 2113              		.loc 1 451 0
 2114 0254 0230     		add	r0, r0, #2
 2115              	.LVL318:
 2116 0256 211C     		mov	r1, r4
 2117 0258 444A     		ldr	r2, .L185+48
 2118 025a FFF7FEFF 		bl	send_alarm_telemetry
 2119              	.LVL319:
 452:command_telemetry.c ****                     }// If we can't find the next ',' character
 2120              		.loc 1 452 0
 2121 025e 0020     		mov	r0, #0
 2122 0260 55E2     		b	.L100
 2123              	.LVL320:
 2124              	.L140:
 454:command_telemetry.c ****                     next_param_str++;
 2125              		.loc 1 454 0
 2126 0262 0023     		mov	r3, #0
 2127 0264 0370     		strb	r3, [r0]
 455:command_telemetry.c ****                     
 2128              		.loc 1 455 0
 2129 0266 451C     		add	r5, r0, #1
 2130              	.LVL321:
 457:command_telemetry.c ****                     
 2131              		.loc 1 457 0
ARM GAS  C:\Users\MM1005~1\AppData\Local\Temp\ccukbKgl.s 			page 60


 2132 0268 381C     		mov	r0, r7
 2133 026a FFF7FEFF 		bl	atoi
 2134              	.LVL322:
 2135 026e 071C     		mov	r7, r0
 2136              	.LVL323:
 462:command_telemetry.c ****                     {
 2137              		.loc 1 462 0
 2138 0270 281C     		mov	r0, r5
 2139              	.LVL324:
 2140 0272 3A21     		mov	r1, #58
 2141 0274 FFF7FEFF 		bl	strchr
 2142              	.LVL325:
 2143 0278 0028     		cmp	r0, #0
 2144 027a 06D1     		bne	.L141
 464:command_telemetry.c ****                         return FALSE;
 2145              		.loc 1 464 0
 2146 027c 0230     		add	r0, r0, #2
 2147              	.LVL326:
 2148 027e 211C     		mov	r1, r4
 2149 0280 394A     		ldr	r2, .L185+44
 2150 0282 FFF7FEFF 		bl	send_alarm_telemetry
 2151              	.LVL327:
 465:command_telemetry.c ****                     }// If we can't find the next ':' character
 2152              		.loc 1 465 0
 2153 0286 0020     		mov	r0, #0
 2154 0288 41E2     		b	.L100
 2155              	.LVL328:
 2156              	.L141:
 468:command_telemetry.c ****                     // ========================================================
 2157              		.loc 1 468 0
 2158 028a 0130     		add	r0, r0, #1
 2159              	.LVL329:
 2160 028c FFF7FEFF 		bl	atoi
 2161              	.LVL330:
 2162 0290 041C     		mov	r4, r0
 2163              	.LVL331:
 472:command_telemetry.c ****                     {
 2164              		.loc 1 472 0
 2165 0292 012E     		cmp	r6, #1
 2166 0294 0ED1     		bne	.L142
 474:command_telemetry.c ****                         set_led(E_LED_LEFT_GREEN,  green);
 2167              		.loc 1 474 0
 2168 0296 6B46     		mov	r3, sp
 2169 0298 9988     		ldrh	r1, [r3, #4]
 2170 029a 1520     		mov	r0, #21
 2171              	.LVL332:
 2172 029c FFF7FEFF 		bl	set_led
 2173              	.LVL333:
 475:command_telemetry.c ****                         set_led(E_LED_LEFT_BLUE ,  blue );
 2174              		.loc 1 475 0
 2175 02a0 B9B2     		uxth	r1, r7
 2176 02a2 1620     		mov	r0, #22
 2177 02a4 FFF7FEFF 		bl	set_led
 2178              	.LVL334:
 476:command_telemetry.c ****                     }// if it's the left colored LED
 2179              		.loc 1 476 0
 2180 02a8 A1B2     		uxth	r1, r4
ARM GAS  C:\Users\MM1005~1\AppData\Local\Temp\ccukbKgl.s 			page 61


 2181 02aa 1720     		mov	r0, #23
 2182 02ac FFF7FEFF 		bl	set_led
 2183              	.LVL335:
 811:command_telemetry.c **** }// parse_and_execute_command
 2184              		.loc 1 811 0
 2185 02b0 0120     		mov	r0, #1
 2186 02b2 2CE2     		b	.L100
 2187              	.LVL336:
 2188              	.L142:
 480:command_telemetry.c ****                         set_led(E_LED_RIGHT_GREEN,  green);
 2189              		.loc 1 480 0
 2190 02b4 6B46     		mov	r3, sp
 2191 02b6 9988     		ldrh	r1, [r3, #4]
 2192 02b8 1220     		mov	r0, #18
 2193              	.LVL337:
 2194 02ba FFF7FEFF 		bl	set_led
 2195              	.LVL338:
 481:command_telemetry.c ****                         set_led(E_LED_RIGHT_BLUE ,  blue );
 2196              		.loc 1 481 0
 2197 02be B9B2     		uxth	r1, r7
 2198 02c0 1320     		mov	r0, #19
 2199 02c2 FFF7FEFF 		bl	set_led
 2200              	.LVL339:
 482:command_telemetry.c ****                     }// if it's the right colored LED
 2201              		.loc 1 482 0
 2202 02c6 A1B2     		uxth	r1, r4
 2203 02c8 1420     		mov	r0, #20
 2204 02ca FFF7FEFF 		bl	set_led
 2205              	.LVL340:
 811:command_telemetry.c **** }// parse_and_execute_command
 2206              		.loc 1 811 0
 2207 02ce 0120     		mov	r0, #1
 2208 02d0 1DE2     		b	.L100
 2209              	.LVL341:
 2210              	.L133:
 490:command_telemetry.c ****                     {
 2211              		.loc 1 490 0
 2212 02d2 281C     		mov	r0, r5
 2213 02d4 2C21     		mov	r1, #44
 2214 02d6 FFF7FEFF 		bl	strchr
 2215              	.LVL342:
 2216 02da 0028     		cmp	r0, #0
 2217 02dc 06D1     		bne	.L143
 492:command_telemetry.c ****                         return FALSE;
 2218              		.loc 1 492 0
 2219 02de 0230     		add	r0, r0, #2
 2220              	.LVL343:
 2221 02e0 211C     		mov	r1, r4
 2222 02e2 1B4A     		ldr	r2, .L185+20
 2223 02e4 FFF7FEFF 		bl	send_alarm_telemetry
 2224              	.LVL344:
 493:command_telemetry.c ****                     }// If we can't find the next ',' character
 2225              		.loc 1 493 0
 2226 02e8 0020     		mov	r0, #0
 2227 02ea 10E2     		b	.L100
 2228              	.LVL345:
 2229              	.L143:
ARM GAS  C:\Users\MM1005~1\AppData\Local\Temp\ccukbKgl.s 			page 62


 496:command_telemetry.c ****                     {
 2230              		.loc 1 496 0
 2231 02ec 0130     		add	r0, r0, #1
 2232              	.LVL346:
 2233 02ee 3A21     		mov	r1, #58
 2234 02f0 FFF7FEFF 		bl	strchr
 2235              	.LVL347:
 2236 02f4 0028     		cmp	r0, #0
 2237 02f6 06D1     		bne	.L144
 498:command_telemetry.c ****                         return FALSE;
 2238              		.loc 1 498 0
 2239 02f8 0230     		add	r0, r0, #2
 2240              	.LVL348:
 2241 02fa 211C     		mov	r1, r4
 2242 02fc 1C4A     		ldr	r2, .L185+52
 2243 02fe FFF7FEFF 		bl	send_alarm_telemetry
 2244              	.LVL349:
 499:command_telemetry.c ****                     }// If we can't find the next ':' character
 2245              		.loc 1 499 0
 2246 0302 0020     		mov	r0, #0
 2247 0304 03E2     		b	.L100
 2248              	.LVL350:
 2249              	.L144:
 505:command_telemetry.c ****                     {
 2250              		.loc 1 505 0
 2251 0306 0130     		add	r0, r0, #1
 2252              	.LVL351:
 2253 0308 3A21     		mov	r1, #58
 2254 030a FFF7FEFF 		bl	strchr
 2255              	.LVL352:
 2256 030e 0028     		cmp	r0, #0
 2257 0310 06D1     		bne	.L145
 507:command_telemetry.c ****                         return FALSE;
 2258              		.loc 1 507 0
 2259 0312 0230     		add	r0, r0, #2
 2260              	.LVL353:
 2261 0314 211C     		mov	r1, r4
 2262 0316 174A     		ldr	r2, .L185+56
 2263 0318 FFF7FEFF 		bl	send_alarm_telemetry
 2264              	.LVL354:
 508:command_telemetry.c ****                     }// If we can't find the next ':' character
 2265              		.loc 1 508 0
 2266 031c 0020     		mov	r0, #0
 2267 031e F6E1     		b	.L100
 2268              	.LVL355:
 2269              	.L145:
 511:command_telemetry.c ****                     {
 2270              		.loc 1 511 0
 2271 0320 461C     		add	r6, r0, #1
 2272              	.LVL356:
 2273 0322 301C     		mov	r0, r6
 2274 0324 2C21     		mov	r1, #44
 2275 0326 FFF7FEFF 		bl	strchr
 2276              	.LVL357:
 2277 032a 0028     		cmp	r0, #0
 2278 032c 24D1     		bne	.L146
 513:command_telemetry.c ****                         return FALSE;
ARM GAS  C:\Users\MM1005~1\AppData\Local\Temp\ccukbKgl.s 			page 63


 2279              		.loc 1 513 0
 2280 032e 0230     		add	r0, r0, #2
 2281              	.LVL358:
 2282 0330 211C     		mov	r1, r4
 2283 0332 104A     		ldr	r2, .L185+56
 2284 0334 FFF7FEFF 		bl	send_alarm_telemetry
 2285              	.LVL359:
 514:command_telemetry.c ****                     }// If we can't find the next ',' character
 2286              		.loc 1 514 0
 2287 0338 0020     		mov	r0, #0
 2288 033a E8E1     		b	.L100
 2289              	.L186:
 2290              		.align	2
 2291              	.L185:
 2292 033c BC010000 		.word	.LC88
 2293 0340 00000000 		.word	.L103
 2294 0344 D8010000 		.word	.LC91
 2295 0348 38000000 		.word	.LANCHOR0
 2296 034c E0010000 		.word	.LC94
 2297 0350 EC010000 		.word	.LC96
 2298 0354 0C020000 		.word	.LC98
 2299 0358 28020000 		.word	.LC100
 2300 035c 40020000 		.word	.LC102
 2301 0360 24000000 		.word	.L131
 2302 0364 60020000 		.word	.LC105
 2303 0368 80020000 		.word	.LC107
 2304 036c A4020000 		.word	.LC109
 2305 0370 C8020000 		.word	.LC111
 2306 0374 E4020000 		.word	.LC113
 2307              	.LVL360:
 2308              	.L146:
 516:command_telemetry.c ****                     next_param_str++;
 2309              		.loc 1 516 0
 2310 0378 0023     		mov	r3, #0
 2311 037a 0370     		strb	r3, [r0]
 517:command_telemetry.c ****                     
 2312              		.loc 1 517 0
 2313 037c 451C     		add	r5, r0, #1
 2314              	.LVL361:
 519:command_telemetry.c ****                     
 2315              		.loc 1 519 0
 2316 037e 301C     		mov	r0, r6
 2317 0380 FFF7FEFF 		bl	atoi
 2318              	.LVL362:
 2319 0384 061E     		sub	r6, r0, #0
 2320              	.LVL363:
 521:command_telemetry.c ****                     {
 2321              		.loc 1 521 0
 2322 0386 0E2E     		cmp	r6, #14
 2323 0388 06D9     		bls	.L147
 523:command_telemetry.c ****                         return FALSE;
 2324              		.loc 1 523 0
 2325 038a 0220     		mov	r0, #2
 2326              	.LVL364:
 2327 038c 211C     		mov	r1, r4
 2328 038e D14A     		ldr	r2, .L187
 2329 0390 FFF7FEFF 		bl	send_alarm_telemetry
ARM GAS  C:\Users\MM1005~1\AppData\Local\Temp\ccukbKgl.s 			page 64


 2330              	.LVL365:
 524:command_telemetry.c ****                     }
 2331              		.loc 1 524 0
 2332 0394 0020     		mov	r0, #0
 2333 0396 BAE1     		b	.L100
 2334              	.LVL366:
 2335              	.L147:
 530:command_telemetry.c ****                     {
 2336              		.loc 1 530 0
 2337 0398 281C     		mov	r0, r5
 2338              	.LVL367:
 2339 039a 3A21     		mov	r1, #58
 2340 039c FFF7FEFF 		bl	strchr
 2341              	.LVL368:
 2342 03a0 0028     		cmp	r0, #0
 2343 03a2 06D1     		bne	.L148
 532:command_telemetry.c ****                         return FALSE;
 2344              		.loc 1 532 0
 2345 03a4 0230     		add	r0, r0, #2
 2346              	.LVL369:
 2347 03a6 211C     		mov	r1, r4
 2348 03a8 CB4A     		ldr	r2, .L187+4
 2349 03aa FFF7FEFF 		bl	send_alarm_telemetry
 2350              	.LVL370:
 533:command_telemetry.c ****                     }// If we can't find the next ':' character
 2351              		.loc 1 533 0
 2352 03ae 0020     		mov	r0, #0
 2353 03b0 ADE1     		b	.L100
 2354              	.LVL371:
 2355              	.L148:
 536:command_telemetry.c ****                     
 2356              		.loc 1 536 0
 2357 03b2 0130     		add	r0, r0, #1
 2358              	.LVL372:
 2359 03b4 FFF7FEFF 		bl	atoi
 2360              	.LVL373:
 2361 03b8 011C     		mov	r1, r0
 2362              	.LVL374:
 541:command_telemetry.c ****                     break;
 2363              		.loc 1 541 0
 2364 03ba F0B2     		uxtb	r0, r6
 2365              	.LVL375:
 2366 03bc 89B2     		uxth	r1, r1
 2367              	.LVL376:
 2368 03be FFF7FEFF 		bl	set_led
 2369              	.LVL377:
 811:command_telemetry.c **** }// parse_and_execute_command
 2370              		.loc 1 811 0
 2371 03c2 0120     		mov	r0, #1
 542:command_telemetry.c ****                 }// CMD_LED_SET_WHITE
 2372              		.loc 1 542 0
 2373 03c4 A3E1     		b	.L100
 2374              	.LVL378:
 2375              	.L134:
 547:command_telemetry.c ****                     {
 2376              		.loc 1 547 0
 2377 03c6 281C     		mov	r0, r5
ARM GAS  C:\Users\MM1005~1\AppData\Local\Temp\ccukbKgl.s 			page 65


 2378 03c8 2C21     		mov	r1, #44
 2379 03ca FFF7FEFF 		bl	strchr
 2380              	.LVL379:
 2381 03ce 0028     		cmp	r0, #0
 2382 03d0 06D1     		bne	.L149
 549:command_telemetry.c ****                         return FALSE;
 2383              		.loc 1 549 0
 2384 03d2 0230     		add	r0, r0, #2
 2385              	.LVL380:
 2386 03d4 211C     		mov	r1, r4
 2387 03d6 C14A     		ldr	r2, .L187+8
 2388 03d8 FFF7FEFF 		bl	send_alarm_telemetry
 2389              	.LVL381:
 550:command_telemetry.c ****                     }// If we can't find the next ',' character
 2390              		.loc 1 550 0
 2391 03dc 0020     		mov	r0, #0
 2392 03de 96E1     		b	.L100
 2393              	.LVL382:
 2394              	.L149:
 553:command_telemetry.c ****                     {
 2395              		.loc 1 553 0
 2396 03e0 0130     		add	r0, r0, #1
 2397              	.LVL383:
 2398 03e2 2C21     		mov	r1, #44
 2399 03e4 FFF7FEFF 		bl	strchr
 2400              	.LVL384:
 2401 03e8 0028     		cmp	r0, #0
 2402 03ea 06D1     		bne	.L150
 555:command_telemetry.c ****                         return FALSE;
 2403              		.loc 1 555 0
 2404 03ec 0230     		add	r0, r0, #2
 2405              	.LVL385:
 2406 03ee 211C     		mov	r1, r4
 2407 03f0 BA4A     		ldr	r2, .L187+8
 2408 03f2 FFF7FEFF 		bl	send_alarm_telemetry
 2409              	.LVL386:
 556:command_telemetry.c ****                     }// If we can't find the next ',' character 
 2410              		.loc 1 556 0
 2411 03f6 0020     		mov	r0, #0
 2412 03f8 89E1     		b	.L100
 2413              	.LVL387:
 2414              	.L150:
 559:command_telemetry.c ****                     {
 2415              		.loc 1 559 0
 2416 03fa 0130     		add	r0, r0, #1
 2417              	.LVL388:
 2418 03fc 3A21     		mov	r1, #58
 2419 03fe FFF7FEFF 		bl	strchr
 2420              	.LVL389:
 2421 0402 0028     		cmp	r0, #0
 2422 0404 06D1     		bne	.L151
 561:command_telemetry.c ****                         return FALSE;
 2423              		.loc 1 561 0
 2424 0406 0230     		add	r0, r0, #2
 2425              	.LVL390:
 2426 0408 211C     		mov	r1, r4
 2427 040a B44A     		ldr	r2, .L187+8
ARM GAS  C:\Users\MM1005~1\AppData\Local\Temp\ccukbKgl.s 			page 66


 2428 040c FFF7FEFF 		bl	send_alarm_telemetry
 2429              	.LVL391:
 562:command_telemetry.c ****                     }// If we can't find the next ':' character
 2430              		.loc 1 562 0
 2431 0410 0020     		mov	r0, #0
 2432 0412 7CE1     		b	.L100
 2433              	.LVL392:
 2434              	.L151:
 565:command_telemetry.c ****                     
 2435              		.loc 1 565 0
 2436 0414 0023     		mov	r3, #0
 2437 0416 0393     		str	r3, [sp, #12]
 2438 0418 0493     		str	r3, [sp, #16]
 2439 041a 0593     		str	r3, [sp, #20]
 2440 041c 0693     		str	r3, [sp, #24]
 2441 041e 0793     		str	r3, [sp, #28]
 2442 0420 0893     		str	r3, [sp, #32]
 2443 0422 0993     		str	r3, [sp, #36]
 2444 0424 0A93     		str	r3, [sp, #40]
 2445 0426 0B93     		str	r3, [sp, #44]
 2446 0428 0C93     		str	r3, [sp, #48]
 2447 042a 0D93     		str	r3, [sp, #52]
 2448 042c 0E93     		str	r3, [sp, #56]
 570:command_telemetry.c ****                     {
 2449              		.loc 1 570 0
 2450 042e 0130     		add	r0, r0, #1
 2451              	.LVL393:
 2452 0430 2221     		mov	r1, #34
 2453 0432 FFF7FEFF 		bl	strchr
 2454              	.LVL394:
 2455 0436 0028     		cmp	r0, #0
 2456 0438 06D1     		bne	.L152
 572:command_telemetry.c ****                         return FALSE;
 2457              		.loc 1 572 0
 2458 043a 0230     		add	r0, r0, #2
 2459              	.LVL395:
 2460 043c 211C     		mov	r1, r4
 2461 043e A74A     		ldr	r2, .L187+8
 2462 0440 FFF7FEFF 		bl	send_alarm_telemetry
 2463              	.LVL396:
 573:command_telemetry.c ****                     }// If we can't find the next '"' character
 2464              		.loc 1 573 0
 2465 0444 0020     		mov	r0, #0
 2466 0446 62E1     		b	.L100
 2467              	.LVL397:
 2468              	.L152:
 575:command_telemetry.c ****                     led_vec[E_LED_LEFT_RED] = atoi(param_str);
 2469              		.loc 1 575 0
 2470 0448 451C     		add	r5, r0, #1
 2471              	.LVL398:
 576:command_telemetry.c ****                  
 2472              		.loc 1 576 0
 2473 044a 281C     		mov	r0, r5
 2474 044c FFF7FEFF 		bl	atoi
 2475              	.LVL399:
 2476 0450 03AB     		add	r3, sp, #12
 2477 0452 5885     		strh	r0, [r3, #42]
ARM GAS  C:\Users\MM1005~1\AppData\Local\Temp\ccukbKgl.s 			page 67


 581:command_telemetry.c ****                     {
 2478              		.loc 1 581 0
 2479 0454 281C     		mov	r0, r5
 2480 0456 2D21     		mov	r1, #45
 2481 0458 FFF7FEFF 		bl	strchr
 2482              	.LVL400:
 2483 045c 0028     		cmp	r0, #0
 2484 045e 06D1     		bne	.L153
 583:command_telemetry.c ****                         return FALSE;
 2485              		.loc 1 583 0
 2486 0460 0230     		add	r0, r0, #2
 2487              	.LVL401:
 2488 0462 211C     		mov	r1, r4
 2489 0464 9D4A     		ldr	r2, .L187+8
 2490 0466 FFF7FEFF 		bl	send_alarm_telemetry
 2491              	.LVL402:
 584:command_telemetry.c ****                     }// If we can't find the next '-' character
 2492              		.loc 1 584 0
 2493 046a 0020     		mov	r0, #0
 2494 046c 4FE1     		b	.L100
 2495              	.LVL403:
 2496              	.L153:
 586:command_telemetry.c ****                     led_vec[E_LED_LEFT_GREEN] = atoi(param_str);
 2497              		.loc 1 586 0
 2498 046e 451C     		add	r5, r0, #1
 2499              	.LVL404:
 587:command_telemetry.c ****                     
 2500              		.loc 1 587 0
 2501 0470 281C     		mov	r0, r5
 2502 0472 FFF7FEFF 		bl	atoi
 2503              	.LVL405:
 2504 0476 03AB     		add	r3, sp, #12
 2505 0478 9885     		strh	r0, [r3, #44]
 592:command_telemetry.c ****                     {
 2506              		.loc 1 592 0
 2507 047a 281C     		mov	r0, r5
 2508 047c 2D21     		mov	r1, #45
 2509 047e FFF7FEFF 		bl	strchr
 2510              	.LVL406:
 2511 0482 0028     		cmp	r0, #0
 2512 0484 06D1     		bne	.L154
 594:command_telemetry.c ****                         return FALSE;
 2513              		.loc 1 594 0
 2514 0486 0230     		add	r0, r0, #2
 2515              	.LVL407:
 2516 0488 211C     		mov	r1, r4
 2517 048a 944A     		ldr	r2, .L187+8
 2518 048c FFF7FEFF 		bl	send_alarm_telemetry
 2519              	.LVL408:
 595:command_telemetry.c ****                     }// If we can't find the next '-' character
 2520              		.loc 1 595 0
 2521 0490 0020     		mov	r0, #0
 2522 0492 3CE1     		b	.L100
 2523              	.LVL409:
 2524              	.L154:
 597:command_telemetry.c ****                     led_vec[E_LED_LEFT_BLUE] = atoi(param_str);
 2525              		.loc 1 597 0
ARM GAS  C:\Users\MM1005~1\AppData\Local\Temp\ccukbKgl.s 			page 68


 2526 0494 451C     		add	r5, r0, #1
 2527              	.LVL410:
 598:command_telemetry.c ****                     
 2528              		.loc 1 598 0
 2529 0496 281C     		mov	r0, r5
 2530 0498 FFF7FEFF 		bl	atoi
 2531              	.LVL411:
 2532 049c 03AB     		add	r3, sp, #12
 2533 049e D885     		strh	r0, [r3, #46]
 2534              	.LVL412:
 603:command_telemetry.c ****                     {
 2535              		.loc 1 603 0
 2536 04a0 0026     		mov	r6, #0
 2537 04a2 14E0     		b	.L155
 2538              	.LVL413:
 2539              	.L157:
 605:command_telemetry.c ****                         {
 2540              		.loc 1 605 0
 2541 04a4 281C     		mov	r0, r5
 2542 04a6 2D21     		mov	r1, #45
 2543 04a8 FFF7FEFF 		bl	strchr
 2544              	.LVL414:
 2545 04ac 0028     		cmp	r0, #0
 2546 04ae 06D1     		bne	.L156
 607:command_telemetry.c ****                             return FALSE;
 2547              		.loc 1 607 0
 2548 04b0 0230     		add	r0, r0, #2
 2549              	.LVL415:
 2550 04b2 211C     		mov	r1, r4
 2551 04b4 894A     		ldr	r2, .L187+8
 2552 04b6 FFF7FEFF 		bl	send_alarm_telemetry
 2553              	.LVL416:
 608:command_telemetry.c ****                         }// If we can't find the next '-' character
 2554              		.loc 1 608 0
 2555 04ba 0020     		mov	r0, #0
 2556 04bc 27E1     		b	.L100
 2557              	.LVL417:
 2558              	.L156:
 610:command_telemetry.c ****                         led_vec[i] = atoi(param_str);
 2559              		.loc 1 610 0 discriminator 2
 2560 04be 451C     		add	r5, r0, #1
 2561              	.LVL418:
 611:command_telemetry.c ****                     }// for all the white LEDS
 2562              		.loc 1 611 0 discriminator 2
 2563 04c0 281C     		mov	r0, r5
 2564 04c2 FFF7FEFF 		bl	atoi
 2565              	.LVL419:
 2566 04c6 7200     		lsl	r2, r6, #1
 2567 04c8 03AB     		add	r3, sp, #12
 2568 04ca D052     		strh	r0, [r2, r3]
 603:command_telemetry.c ****                     {
 2569              		.loc 1 603 0 discriminator 2
 2570 04cc 0136     		add	r6, r6, #1
 2571              	.LVL420:
 2572              	.L155:
 603:command_telemetry.c ****                     {
 2573              		.loc 1 603 0 is_stmt 0 discriminator 1
ARM GAS  C:\Users\MM1005~1\AppData\Local\Temp\ccukbKgl.s 			page 69


 2574 04ce 0E2E     		cmp	r6, #14
 2575 04d0 E8DD     		ble	.L157
 617:command_telemetry.c ****                     {
 2576              		.loc 1 617 0 is_stmt 1
 2577 04d2 281C     		mov	r0, r5
 2578 04d4 2D21     		mov	r1, #45
 2579 04d6 FFF7FEFF 		bl	strchr
 2580              	.LVL421:
 2581 04da 0028     		cmp	r0, #0
 2582 04dc 06D1     		bne	.L158
 619:command_telemetry.c ****                         return FALSE;
 2583              		.loc 1 619 0
 2584 04de 0230     		add	r0, r0, #2
 2585              	.LVL422:
 2586 04e0 211C     		mov	r1, r4
 2587 04e2 7E4A     		ldr	r2, .L187+8
 2588 04e4 FFF7FEFF 		bl	send_alarm_telemetry
 2589              	.LVL423:
 620:command_telemetry.c ****                     }// If we can't find the next '-' character
 2590              		.loc 1 620 0
 2591 04e8 0020     		mov	r0, #0
 2592 04ea 10E1     		b	.L100
 2593              	.LVL424:
 2594              	.L158:
 622:command_telemetry.c ****                     led_vec[E_LED_RIGHT_RED] = atoi(param_str);
 2595              		.loc 1 622 0
 2596 04ec 451C     		add	r5, r0, #1
 2597              	.LVL425:
 623:command_telemetry.c ****                     
 2598              		.loc 1 623 0
 2599 04ee 281C     		mov	r0, r5
 2600 04f0 FFF7FEFF 		bl	atoi
 2601              	.LVL426:
 2602 04f4 03AB     		add	r3, sp, #12
 2603 04f6 9884     		strh	r0, [r3, #36]
 628:command_telemetry.c ****                     {
 2604              		.loc 1 628 0
 2605 04f8 281C     		mov	r0, r5
 2606 04fa 2D21     		mov	r1, #45
 2607 04fc FFF7FEFF 		bl	strchr
 2608              	.LVL427:
 2609 0500 0028     		cmp	r0, #0
 2610 0502 06D1     		bne	.L159
 630:command_telemetry.c ****                         return FALSE;
 2611              		.loc 1 630 0
 2612 0504 0230     		add	r0, r0, #2
 2613              	.LVL428:
 2614 0506 211C     		mov	r1, r4
 2615 0508 744A     		ldr	r2, .L187+8
 2616 050a FFF7FEFF 		bl	send_alarm_telemetry
 2617              	.LVL429:
 631:command_telemetry.c ****                     }// If we can't find the next '-' character
 2618              		.loc 1 631 0
 2619 050e 0020     		mov	r0, #0
 2620 0510 FDE0     		b	.L100
 2621              	.LVL430:
 2622              	.L159:
ARM GAS  C:\Users\MM1005~1\AppData\Local\Temp\ccukbKgl.s 			page 70


 633:command_telemetry.c ****                     led_vec[E_LED_RIGHT_GREEN] = atoi(param_str);
 2623              		.loc 1 633 0
 2624 0512 451C     		add	r5, r0, #1
 2625              	.LVL431:
 634:command_telemetry.c ****                     
 2626              		.loc 1 634 0
 2627 0514 281C     		mov	r0, r5
 2628 0516 FFF7FEFF 		bl	atoi
 2629              	.LVL432:
 2630 051a 03AB     		add	r3, sp, #12
 2631 051c D884     		strh	r0, [r3, #38]
 639:command_telemetry.c ****                     {
 2632              		.loc 1 639 0
 2633 051e 281C     		mov	r0, r5
 2634 0520 2D21     		mov	r1, #45
 2635 0522 FFF7FEFF 		bl	strchr
 2636              	.LVL433:
 2637 0526 0028     		cmp	r0, #0
 2638 0528 06D1     		bne	.L160
 641:command_telemetry.c ****                         return FALSE;
 2639              		.loc 1 641 0
 2640 052a 0230     		add	r0, r0, #2
 2641              	.LVL434:
 2642 052c 211C     		mov	r1, r4
 2643 052e 6B4A     		ldr	r2, .L187+8
 2644 0530 FFF7FEFF 		bl	send_alarm_telemetry
 2645              	.LVL435:
 642:command_telemetry.c ****                     }// If we can't find the next '-' character
 2646              		.loc 1 642 0
 2647 0534 0020     		mov	r0, #0
 2648 0536 EAE0     		b	.L100
 2649              	.LVL436:
 2650              	.L160:
 644:command_telemetry.c ****                     led_vec[E_LED_RIGHT_BLUE] = atoi(param_str);
 2651              		.loc 1 644 0
 2652 0538 0130     		add	r0, r0, #1
 2653              	.LVL437:
 645:command_telemetry.c ****                     
 2654              		.loc 1 645 0
 2655 053a FFF7FEFF 		bl	atoi
 2656              	.LVL438:
 2657 053e 03AB     		add	r3, sp, #12
 2658 0540 1885     		strh	r0, [r3, #40]
 647:command_telemetry.c ****                     break;
 2659              		.loc 1 647 0
 2660 0542 181C     		mov	r0, r3
 2661 0544 FFF7FEFF 		bl	set_led_strip
 2662              	.LVL439:
 811:command_telemetry.c **** }// parse_and_execute_command
 2663              		.loc 1 811 0
 2664 0548 0120     		mov	r0, #1
 648:command_telemetry.c ****                 }// CMD_LED_SET_STRIP
 2665              		.loc 1 648 0
 2666 054a E0E0     		b	.L100
 2667              	.LVL440:
 2668              	.L129:
 654:command_telemetry.c ****                     return FALSE;
ARM GAS  C:\Users\MM1005~1\AppData\Local\Temp\ccukbKgl.s 			page 71


 2669              		.loc 1 654 0
 2670 054c 0220     		mov	r0, #2
 2671              	.LVL441:
 2672 054e 211C     		mov	r1, r4
 2673 0550 634A     		ldr	r2, .L187+12
 2674 0552 FFF7FEFF 		bl	send_alarm_telemetry
 2675              	.LVL442:
 655:command_telemetry.c ****                 }// CMD_LED_UNKNOWN, default
 2676              		.loc 1 655 0
 2677 0556 0020     		mov	r0, #0
 2678 0558 D9E0     		b	.L100
 2679              	.LVL443:
 2680              	.L108:
 664:command_telemetry.c ****             {
 2681              		.loc 1 664 0
 2682 055a 281C     		mov	r0, r5
 2683 055c 2C21     		mov	r1, #44
 2684 055e FFF7FEFF 		bl	strchr
 2685              	.LVL444:
 2686 0562 0028     		cmp	r0, #0
 2687 0564 06D1     		bne	.L161
 666:command_telemetry.c ****                 return FALSE;
 2688              		.loc 1 666 0
 2689 0566 0230     		add	r0, r0, #2
 2690              	.LVL445:
 2691 0568 211C     		mov	r1, r4
 2692 056a 5E4A     		ldr	r2, .L187+16
 2693 056c FFF7FEFF 		bl	send_alarm_telemetry
 2694              	.LVL446:
 667:command_telemetry.c ****             }// If we can't find the next ',' character
 2695              		.loc 1 667 0
 2696 0570 0020     		mov	r0, #0
 2697 0572 CCE0     		b	.L100
 2698              	.LVL447:
 2699              	.L161:
 670:command_telemetry.c ****             {
 2700              		.loc 1 670 0
 2701 0574 0130     		add	r0, r0, #1
 2702              	.LVL448:
 2703 0576 3A21     		mov	r1, #58
 2704 0578 FFF7FEFF 		bl	strchr
 2705              	.LVL449:
 2706 057c 0028     		cmp	r0, #0
 2707 057e 06D1     		bne	.L162
 672:command_telemetry.c ****                 return FALSE;
 2708              		.loc 1 672 0
 2709 0580 0230     		add	r0, r0, #2
 2710              	.LVL450:
 2711 0582 211C     		mov	r1, r4
 2712 0584 574A     		ldr	r2, .L187+16
 2713 0586 FFF7FEFF 		bl	send_alarm_telemetry
 2714              	.LVL451:
 673:command_telemetry.c ****             }// If we can't find the next ':' character
 2715              		.loc 1 673 0
 2716 058a 0020     		mov	r0, #0
 2717 058c BFE0     		b	.L100
 2718              	.LVL452:
ARM GAS  C:\Users\MM1005~1\AppData\Local\Temp\ccukbKgl.s 			page 72


 2719              	.L162:
 675:command_telemetry.c ****             
 2720              		.loc 1 675 0
 2721 058e 0130     		add	r0, r0, #1
 2722              	.LVL453:
 677:command_telemetry.c ****             {
 2723              		.loc 1 677 0
 2724 0590 FFF7FEFF 		bl	get_sensor_cmd_id_from_cmd_string
 2725              	.LVL454:
 2726 0594 0028     		cmp	r0, #0
 2727 0596 06D0     		beq	.L164
 2728 0598 0128     		cmp	r0, #1
 2729 059a 09D1     		bne	.L182
 681:command_telemetry.c ****                     break;
 2730              		.loc 1 681 0
 2731 059c 0020     		mov	r0, #0
 2732              	.LVL455:
 2733 059e FFF7FEFF 		bl	set_is_sensor_telemetry_enable
 2734              	.LVL456:
 811:command_telemetry.c **** }// parse_and_execute_command
 2735              		.loc 1 811 0
 2736 05a2 0120     		mov	r0, #1
 682:command_telemetry.c ****                 }// CMD_TRACKER_DISABLE      
 2737              		.loc 1 682 0
 2738 05a4 B3E0     		b	.L100
 2739              	.LVL457:
 2740              	.L164:
 687:command_telemetry.c ****                     break;
 2741              		.loc 1 687 0
 2742 05a6 0120     		mov	r0, #1
 2743              	.LVL458:
 2744 05a8 FFF7FEFF 		bl	set_is_sensor_telemetry_enable
 2745              	.LVL459:
 811:command_telemetry.c **** }// parse_and_execute_command
 2746              		.loc 1 811 0
 2747 05ac 0120     		mov	r0, #1
 688:command_telemetry.c ****                 }// CMD_TRACKER_ENABLE
 2748              		.loc 1 688 0
 2749 05ae AEE0     		b	.L100
 2750              	.LVL460:
 2751              	.L182:
 694:command_telemetry.c ****                     return FALSE;
 2752              		.loc 1 694 0
 2753 05b0 0220     		mov	r0, #2
 2754              	.LVL461:
 2755 05b2 211C     		mov	r1, r4
 2756 05b4 4B4A     		ldr	r2, .L187+16
 2757 05b6 FFF7FEFF 		bl	send_alarm_telemetry
 2758              	.LVL462:
 695:command_telemetry.c ****                 }// CMD_TRACKER_UNKNOWN, default
 2759              		.loc 1 695 0
 2760 05ba 0020     		mov	r0, #0
 2761 05bc A7E0     		b	.L100
 2762              	.LVL463:
 2763              	.L109:
 703:command_telemetry.c ****             {
 2764              		.loc 1 703 0
ARM GAS  C:\Users\MM1005~1\AppData\Local\Temp\ccukbKgl.s 			page 73


 2765 05be 281C     		mov	r0, r5
 2766 05c0 2C21     		mov	r1, #44
 2767 05c2 FFF7FEFF 		bl	strchr
 2768              	.LVL464:
 2769 05c6 0028     		cmp	r0, #0
 2770 05c8 06D1     		bne	.L166
 705:command_telemetry.c ****                 return FALSE;
 2771              		.loc 1 705 0
 2772 05ca 0230     		add	r0, r0, #2
 2773              	.LVL465:
 2774 05cc 211C     		mov	r1, r4
 2775 05ce 464A     		ldr	r2, .L187+20
 2776 05d0 FFF7FEFF 		bl	send_alarm_telemetry
 2777              	.LVL466:
 706:command_telemetry.c ****             }// If we can't find the next ',' character
 2778              		.loc 1 706 0
 2779 05d4 0020     		mov	r0, #0
 2780 05d6 9AE0     		b	.L100
 2781              	.LVL467:
 2782              	.L166:
 709:command_telemetry.c ****             {
 2783              		.loc 1 709 0
 2784 05d8 0130     		add	r0, r0, #1
 2785              	.LVL468:
 2786 05da 3A21     		mov	r1, #58
 2787 05dc FFF7FEFF 		bl	strchr
 2788              	.LVL469:
 2789 05e0 0028     		cmp	r0, #0
 2790 05e2 06D1     		bne	.L167
 711:command_telemetry.c ****                 return FALSE;
 2791              		.loc 1 711 0
 2792 05e4 0230     		add	r0, r0, #2
 2793              	.LVL470:
 2794 05e6 211C     		mov	r1, r4
 2795 05e8 3F4A     		ldr	r2, .L187+20
 2796 05ea FFF7FEFF 		bl	send_alarm_telemetry
 2797              	.LVL471:
 712:command_telemetry.c ****             }// If we can't find the next ':' character
 2798              		.loc 1 712 0
 2799 05ee 0020     		mov	r0, #0
 2800 05f0 8DE0     		b	.L100
 2801              	.LVL472:
 2802              	.L167:
 714:command_telemetry.c ****             
 2803              		.loc 1 714 0
 2804 05f2 0130     		add	r0, r0, #1
 2805              	.LVL473:
 716:command_telemetry.c ****             {
 2806              		.loc 1 716 0
 2807 05f4 FFF7FEFF 		bl	get_telemetry_cmd_id_from_cmd_string
 2808              	.LVL474:
 2809 05f8 0028     		cmp	r0, #0
 2810 05fa 06D0     		beq	.L169
 2811 05fc 0128     		cmp	r0, #1
 2812 05fe 09D1     		bne	.L183
 720:command_telemetry.c ****                     break;
 2813              		.loc 1 720 0
ARM GAS  C:\Users\MM1005~1\AppData\Local\Temp\ccukbKgl.s 			page 74


 2814 0600 0020     		mov	r0, #0
 2815              	.LVL475:
 2816 0602 FFF7FEFF 		bl	set_is_telemetry_enable
 2817              	.LVL476:
 811:command_telemetry.c **** }// parse_and_execute_command
 2818              		.loc 1 811 0
 2819 0606 0120     		mov	r0, #1
 721:command_telemetry.c ****                 }// CMD_TRACKER_DISABLE      
 2820              		.loc 1 721 0
 2821 0608 81E0     		b	.L100
 2822              	.LVL477:
 2823              	.L169:
 726:command_telemetry.c ****                     break;
 2824              		.loc 1 726 0
 2825 060a 0120     		mov	r0, #1
 2826              	.LVL478:
 2827 060c FFF7FEFF 		bl	set_is_telemetry_enable
 2828              	.LVL479:
 811:command_telemetry.c **** }// parse_and_execute_command
 2829              		.loc 1 811 0
 2830 0610 0120     		mov	r0, #1
 727:command_telemetry.c ****                 }// CMD_TRACKER_ENABLE
 2831              		.loc 1 727 0
 2832 0612 7CE0     		b	.L100
 2833              	.LVL480:
 2834              	.L183:
 733:command_telemetry.c ****                     return FALSE;
 2835              		.loc 1 733 0
 2836 0614 0220     		mov	r0, #2
 2837              	.LVL481:
 2838 0616 211C     		mov	r1, r4
 2839 0618 334A     		ldr	r2, .L187+20
 2840 061a FFF7FEFF 		bl	send_alarm_telemetry
 2841              	.LVL482:
 734:command_telemetry.c ****                 }// CMD_TRACKER_UNKNOWN, default
 2842              		.loc 1 734 0
 2843 061e 0020     		mov	r0, #0
 2844 0620 75E0     		b	.L100
 2845              	.LVL483:
 2846              	.L110:
 742:command_telemetry.c ****             {
 2847              		.loc 1 742 0
 2848 0622 281C     		mov	r0, r5
 2849 0624 2C21     		mov	r1, #44
 2850 0626 FFF7FEFF 		bl	strchr
 2851              	.LVL484:
 2852 062a 0028     		cmp	r0, #0
 2853 062c 06D1     		bne	.L171
 744:command_telemetry.c ****                 return FALSE;
 2854              		.loc 1 744 0
 2855 062e 0230     		add	r0, r0, #2
 2856              	.LVL485:
 2857 0630 211C     		mov	r1, r4
 2858 0632 2E4A     		ldr	r2, .L187+24
 2859 0634 FFF7FEFF 		bl	send_alarm_telemetry
 2860              	.LVL486:
 745:command_telemetry.c ****             }// If we can't find the next ',' character
ARM GAS  C:\Users\MM1005~1\AppData\Local\Temp\ccukbKgl.s 			page 75


 2861              		.loc 1 745 0
 2862 0638 0020     		mov	r0, #0
 2863 063a 68E0     		b	.L100
 2864              	.LVL487:
 2865              	.L171:
 748:command_telemetry.c ****             {
 2866              		.loc 1 748 0
 2867 063c 0130     		add	r0, r0, #1
 2868              	.LVL488:
 2869 063e 3A21     		mov	r1, #58
 2870 0640 FFF7FEFF 		bl	strchr
 2871              	.LVL489:
 2872 0644 0028     		cmp	r0, #0
 2873 0646 06D1     		bne	.L172
 750:command_telemetry.c ****                 return FALSE;
 2874              		.loc 1 750 0
 2875 0648 0230     		add	r0, r0, #2
 2876              	.LVL490:
 2877 064a 211C     		mov	r1, r4
 2878 064c 274A     		ldr	r2, .L187+24
 2879 064e FFF7FEFF 		bl	send_alarm_telemetry
 2880              	.LVL491:
 751:command_telemetry.c ****             }// If we can't find the next ':' character
 2881              		.loc 1 751 0
 2882 0652 0020     		mov	r0, #0
 2883 0654 5BE0     		b	.L100
 2884              	.LVL492:
 2885              	.L172:
 753:command_telemetry.c ****             
 2886              		.loc 1 753 0
 2887 0656 451C     		add	r5, r0, #1
 2888              	.LVL493:
 755:command_telemetry.c ****             {
 2889              		.loc 1 755 0
 2890 0658 281C     		mov	r0, r5
 2891 065a FFF7FEFF 		bl	get_tracker_cmd_id_from_cmd_string
 2892              	.LVL494:
 2893 065e 0128     		cmp	r0, #1
 2894 0660 04D0     		beq	.L174
 2895 0662 0028     		cmp	r0, #0
 2896 0664 07D0     		beq	.L175
 2897 0666 0228     		cmp	r0, #2
 2898 0668 0AD0     		beq	.L176
 2899 066a 2BE0     		b	.L184
 2900              	.L174:
 759:command_telemetry.c ****                     break;
 2901              		.loc 1 759 0
 2902 066c 0020     		mov	r0, #0
 2903              	.LVL495:
 2904 066e FFF7FEFF 		bl	set_is_tracker_enable
 2905              	.LVL496:
 811:command_telemetry.c **** }// parse_and_execute_command
 2906              		.loc 1 811 0
 2907 0672 0120     		mov	r0, #1
 760:command_telemetry.c ****                 }// CMD_TRACKER_DISABLE      
 2908              		.loc 1 760 0
 2909 0674 4BE0     		b	.L100
ARM GAS  C:\Users\MM1005~1\AppData\Local\Temp\ccukbKgl.s 			page 76


 2910              	.LVL497:
 2911              	.L175:
 765:command_telemetry.c ****                     break;
 2912              		.loc 1 765 0
 2913 0676 0120     		mov	r0, #1
 2914              	.LVL498:
 2915 0678 FFF7FEFF 		bl	set_is_tracker_enable
 2916              	.LVL499:
 811:command_telemetry.c **** }// parse_and_execute_command
 2917              		.loc 1 811 0
 2918 067c 0120     		mov	r0, #1
 766:command_telemetry.c ****                 }// CMD_TRACKER_ENABLE
 2919              		.loc 1 766 0
 2920 067e 46E0     		b	.L100
 2921              	.LVL500:
 2922              	.L176:
 771:command_telemetry.c ****                     {
 2923              		.loc 1 771 0
 2924 0680 281C     		mov	r0, r5
 2925              	.LVL501:
 2926 0682 2C21     		mov	r1, #44
 2927 0684 FFF7FEFF 		bl	strchr
 2928              	.LVL502:
 2929 0688 0028     		cmp	r0, #0
 2930 068a 06D1     		bne	.L177
 773:command_telemetry.c ****                         return FALSE;
 2931              		.loc 1 773 0
 2932 068c 0230     		add	r0, r0, #2
 2933              	.LVL503:
 2934 068e 211C     		mov	r1, r4
 2935 0690 164A     		ldr	r2, .L187+24
 2936 0692 FFF7FEFF 		bl	send_alarm_telemetry
 2937              	.LVL504:
 774:command_telemetry.c ****                     }// If we can't find the next ',' character
 2938              		.loc 1 774 0
 2939 0696 0020     		mov	r0, #0
 2940 0698 39E0     		b	.L100
 2941              	.LVL505:
 2942              	.L177:
 777:command_telemetry.c ****                     {
 2943              		.loc 1 777 0
 2944 069a 0130     		add	r0, r0, #1
 2945              	.LVL506:
 2946 069c 3A21     		mov	r1, #58
 2947 069e FFF7FEFF 		bl	strchr
 2948              	.LVL507:
 2949 06a2 0028     		cmp	r0, #0
 2950 06a4 06D1     		bne	.L178
 779:command_telemetry.c ****                         return FALSE;
 2951              		.loc 1 779 0
 2952 06a6 0230     		add	r0, r0, #2
 2953              	.LVL508:
 2954 06a8 211C     		mov	r1, r4
 2955 06aa 104A     		ldr	r2, .L187+24
 2956 06ac FFF7FEFF 		bl	send_alarm_telemetry
 2957              	.LVL509:
 780:command_telemetry.c ****                     }// If we can't find the next ':' character
ARM GAS  C:\Users\MM1005~1\AppData\Local\Temp\ccukbKgl.s 			page 77


 2958              		.loc 1 780 0
 2959 06b0 0020     		mov	r0, #0
 2960 06b2 2CE0     		b	.L100
 2961              	.LVL510:
 2962              	.L178:
 782:command_telemetry.c ****                     set_number_of_buttons (atoi(param_str));
 2963              		.loc 1 782 0
 2964 06b4 0130     		add	r0, r0, #1
 2965              	.LVL511:
 783:command_telemetry.c ****                     break;
 2966              		.loc 1 783 0
 2967 06b6 FFF7FEFF 		bl	atoi
 2968              	.LVL512:
 2969 06ba 80B2     		uxth	r0, r0
 2970 06bc FFF7FEFF 		bl	set_number_of_buttons
 2971              	.LVL513:
 811:command_telemetry.c **** }// parse_and_execute_command
 2972              		.loc 1 811 0
 2973 06c0 0120     		mov	r0, #1
 784:command_telemetry.c ****                 }// CMD_TRACKER_SET_BUTTON
 2974              		.loc 1 784 0
 2975 06c2 24E0     		b	.L100
 2976              	.LVL514:
 2977              	.L184:
 790:command_telemetry.c ****                     return FALSE;
 2978              		.loc 1 790 0
 2979 06c4 0220     		mov	r0, #2
 2980              	.LVL515:
 2981 06c6 211C     		mov	r1, r4
 2982 06c8 084A     		ldr	r2, .L187+24
 2983 06ca FFF7FEFF 		bl	send_alarm_telemetry
 2984              	.LVL516:
 791:command_telemetry.c ****                 }// CMD_TRACKER_UNKNOWN, default
 2985              		.loc 1 791 0
 2986 06ce 0020     		mov	r0, #0
 2987 06d0 1DE0     		b	.L100
 2988              	.L188:
 2989 06d2 C046     		.align	2
 2990              	.L187:
 2991 06d4 FC020000 		.word	.LC115
 2992 06d8 80020000 		.word	.LC107
 2993 06dc 10030000 		.word	.LC117
 2994 06e0 30030000 		.word	.LC119
 2995 06e4 0C020000 		.word	.LC98
 2996 06e8 48030000 		.word	.LC121
 2997 06ec 68030000 		.word	.LC123
 2998              	.LVL517:
 2999              	.L111:
 799:command_telemetry.c ****             break;
 3000              		.loc 1 799 0
 3001 06f0 FFF7FEFF 		bl	get_software_version
 3002              	.LVL518:
 3003 06f4 021C     		mov	r2, r0
 3004 06f6 0120     		mov	r0, #1
 3005 06f8 0649     		ldr	r1, .L189
 3006 06fa FFF7FEFF 		bl	send_alarm_telemetry
 3007              	.LVL519:
ARM GAS  C:\Users\MM1005~1\AppData\Local\Temp\ccukbKgl.s 			page 78


 811:command_telemetry.c **** }// parse_and_execute_command
 3008              		.loc 1 811 0
 3009 06fe 0120     		mov	r0, #1
 800:command_telemetry.c ****         }// CMD_VERSION
 3010              		.loc 1 800 0
 3011 0700 05E0     		b	.L100
 3012              	.LVL520:
 3013              	.L101:
 806:command_telemetry.c ****             return FALSE;
 3014              		.loc 1 806 0
 3015 0702 0220     		mov	r0, #2
 3016              	.LVL521:
 3017 0704 211C     		mov	r1, r4
 3018 0706 044A     		ldr	r2, .L189+4
 3019 0708 FFF7FEFF 		bl	send_alarm_telemetry
 3020              	.LVL522:
 807:command_telemetry.c ****         }// default
 3021              		.loc 1 807 0
 3022 070c 0020     		mov	r0, #0
 3023              	.LVL523:
 3024              	.L100:
 812:command_telemetry.c **** 
 3025              		.loc 1 812 0
 3026 070e 13B0     		add	sp, sp, #76
 3027              		@ sp needed
 3028 0710 F0BD     		pop	{r4, r5, r6, r7, pc}
 3029              	.L190:
 3030 0712 C046     		.align	2
 3031              	.L189:
 3032 0714 84030000 		.word	.LC125
 3033 0718 8C030000 		.word	.LC127
 3034              		.cfi_endproc
 3035              	.LFE43:
 3036              		.size	parse_and_execute_command, .-parse_and_execute_command
 3037              		.section	.rodata
 3038              		.align	2
 3039              		.set	.LANCHOR0,. + 0
 3040              		.set	.LANCHOR1,. + 128
 3041              		.set	.LANCHOR2,. + 256
 3042              		.type	vec_commands, %object
 3043              		.size	vec_commands, 108
 3044              	vec_commands:
 3045 0038 0000     		.short	0
 3046 003a 0000     		.space	2
 3047 003c E0010000 		.word	.LC94
 3048 0040 C4030000 		.word	.LC129
 3049 0044 0100     		.short	1
 3050 0046 0000     		.space	2
 3051 0048 E4030000 		.word	.LC130
 3052 004c F0030000 		.word	.LC131
 3053 0050 0200     		.short	2
 3054 0052 0000     		.space	2
 3055 0054 08040000 		.word	.LC132
 3056 0058 14040000 		.word	.LC133
 3057 005c 0400     		.short	4
 3058 005e 0000     		.space	2
 3059 0060 38040000 		.word	.LC134
ARM GAS  C:\Users\MM1005~1\AppData\Local\Temp\ccukbKgl.s 			page 79


 3060 0064 40040000 		.word	.LC135
 3061 0068 0300     		.short	3
 3062 006a 0000     		.space	2
 3063 006c 44040000 		.word	.LC136
 3064 0070 48040000 		.word	.LC137
 3065 0074 0500     		.short	5
 3066 0076 0000     		.space	2
 3067 0078 54040000 		.word	.LC138
 3068 007c 5C040000 		.word	.LC139
 3069 0080 0600     		.short	6
 3070 0082 0000     		.space	2
 3071 0084 80040000 		.word	.LC140
 3072 0088 8C040000 		.word	.LC141
 3073 008c 0700     		.short	7
 3074 008e 0000     		.space	2
 3075 0090 A8040000 		.word	.LC142
 3076 0094 B0040000 		.word	.LC143
 3077 0098 0800     		.short	8
 3078 009a 0000     		.space	2
 3079 009c 84030000 		.word	.LC125
 3080 00a0 D4040000 		.word	.LC144
 3081              		.type	vec_sensor_commands, %object
 3082              		.size	vec_sensor_commands, 24
 3083              	vec_sensor_commands:
 3084 00a4 0100     		.short	1
 3085 00a6 0000     		.space	2
 3086 00a8 AC050000 		.word	.LC155
 3087 00ac 54060000 		.word	.LC163
 3088 00b0 0000     		.short	0
 3089 00b2 0000     		.space	2
 3090 00b4 D4050000 		.word	.LC157
 3091 00b8 70060000 		.word	.LC164
 3092              		.type	vec_telemetry_commands, %object
 3093              		.size	vec_telemetry_commands, 24
 3094              	vec_telemetry_commands:
 3095 00bc 0100     		.short	1
 3096 00be 0000     		.space	2
 3097 00c0 AC050000 		.word	.LC155
 3098 00c4 2C060000 		.word	.LC161
 3099 00c8 0000     		.short	0
 3100 00ca 0000     		.space	2
 3101 00cc D4050000 		.word	.LC157
 3102 00d0 40060000 		.word	.LC162
 3103              		.type	vec_tracker_commands, %object
 3104              		.size	vec_tracker_commands, 36
 3105              	vec_tracker_commands:
 3106 00d4 0100     		.short	1
 3107 00d6 0000     		.space	2
 3108 00d8 AC050000 		.word	.LC155
 3109 00dc B4050000 		.word	.LC156
 3110 00e0 0000     		.short	0
 3111 00e2 0000     		.space	2
 3112 00e4 D4050000 		.word	.LC157
 3113 00e8 DC050000 		.word	.LC158
 3114 00ec 0200     		.short	2
 3115 00ee 0000     		.space	2
 3116 00f0 FC050000 		.word	.LC159
ARM GAS  C:\Users\MM1005~1\AppData\Local\Temp\ccukbKgl.s 			page 80


 3117 00f4 08060000 		.word	.LC160
 3118              		.type	vec_anim_commands, %object
 3119              		.size	vec_anim_commands, 48
 3120              	vec_anim_commands:
 3121 00f8 0000     		.short	0
 3122 00fa 0000     		.space	2
 3123 00fc 8C060000 		.word	.LC165
 3124 0100 94060000 		.word	.LC166
 3125 0104 0100     		.short	1
 3126 0106 0000     		.space	2
 3127 0108 B4060000 		.word	.LC167
 3128 010c BC060000 		.word	.LC168
 3129 0110 0200     		.short	2
 3130 0112 0000     		.space	2
 3131 0114 DC060000 		.word	.LC169
 3132 0118 E4060000 		.word	.LC170
 3133 011c 0300     		.short	3
 3134 011e 0000     		.space	2
 3135 0120 F4060000 		.word	.LC171
 3136 0124 FC060000 		.word	.LC172
 3137              		.type	vec_boot_commands, %object
 3138              		.size	vec_boot_commands, 36
 3139              	vec_boot_commands:
 3140 0128 0000     		.short	0
 3141 012a 0000     		.space	2
 3142 012c 10070000 		.word	.LC173
 3143 0130 18070000 		.word	.LC174
 3144 0134 0100     		.short	1
 3145 0136 0000     		.space	2
 3146 0138 34070000 		.word	.LC175
 3147 013c 3C070000 		.word	.LC176
 3148 0140 0200     		.short	2
 3149 0142 0000     		.space	2
 3150 0144 58070000 		.word	.LC177
 3151 0148 68070000 		.word	.LC178
 3152              		.type	vec_led_commands, %object
 3153              		.size	vec_led_commands, 60
 3154              	vec_led_commands:
 3155 014c 0000     		.short	0
 3156 014e 0000     		.space	2
 3157 0150 EC040000 		.word	.LC145
 3158 0154 F4040000 		.word	.LC146
 3159 0158 0100     		.short	1
 3160 015a 0000     		.space	2
 3161 015c 04050000 		.word	.LC147
 3162 0160 14050000 		.word	.LC148
 3163 0164 0200     		.short	2
 3164 0166 0000     		.space	2
 3165 0168 34050000 		.word	.LC149
 3166 016c 44050000 		.word	.LC150
 3167 0170 0300     		.short	3
 3168 0172 0000     		.space	2
 3169 0174 64050000 		.word	.LC151
 3170 0178 70050000 		.word	.LC152
 3171 017c 0400     		.short	4
 3172 017e 0000     		.space	2
 3173 0180 8C050000 		.word	.LC153
ARM GAS  C:\Users\MM1005~1\AppData\Local\Temp\ccukbKgl.s 			page 81


 3174 0184 98050000 		.word	.LC154
 3175              	.LC14:
 3176 0188 A0030000 		.word	.LC0
 3177 018c A4030000 		.word	.LC1
 3178 0190 AC030000 		.word	.LC2
 3179 0194 B4030000 		.word	.LC3
 3180 0198 BC030000 		.word	.LC4
 3181              		.section	.rodata.str1.4,"aMS",%progbits,1
 3182              		.align	2
 3183              	.LC17:
 3184 0000 7B226576 		.ascii	"{\"event\":\"alarm\", \"type\":\"\000"
 3184      656E7422 
 3184      3A22616C 
 3184      61726D22 
 3184      2C202274 
 3185 001b 00       		.space	1
 3186              	.LC19:
 3187 001c 222C2022 		.ascii	"\", \"source\":\"\000"
 3187      736F7572 
 3187      6365223A 
 3187      2200
 3188 002a 0000     		.space	2
 3189              	.LC21:
 3190 002c 222C2022 		.ascii	"\", \"description\":\"\000"
 3190      64657363 
 3190      72697074 
 3190      696F6E22 
 3190      3A2200
 3191 003f 00       		.space	1
 3192              	.LC23:
 3193 0040 227D00   		.ascii	"\"}\000"
 3194 0043 00       		.space	1
 3195              	.LC27:
 3196 0044 7B226576 		.ascii	"{\"event\":\"animation\", \"name\":\"\000"
 3196      656E7422 
 3196      3A22616E 
 3196      696D6174 
 3196      696F6E22 
 3197 0063 00       		.space	1
 3198              	.LC29:
 3199 0064 222C2022 		.ascii	"\", \"action\":\"\000"
 3199      61637469 
 3199      6F6E223A 
 3199      2200
 3200 0072 0000     		.space	2
 3201              	.LC35:
 3202 0074 7B226576 		.ascii	"{\"event\":\"sensor\", \"id\":\000"
 3202      656E7422 
 3202      3A227365 
 3202      6E736F72 
 3202      222C2022 
 3203 008d 000000   		.space	3
 3204              	.LC37:
 3205 0090 2C202272 		.ascii	", \"raw\":\000"
 3205      6177223A 
 3205      00
 3206 0099 000000   		.space	3
ARM GAS  C:\Users\MM1005~1\AppData\Local\Temp\ccukbKgl.s 			page 82


 3207              	.LC40:
 3208 009c 2C202262 		.ascii	", \"baseline\":\000"
 3208      6173656C 
 3208      696E6522 
 3208      3A00
 3209 00aa 0000     		.space	2
 3210              	.LC42:
 3211 00ac 2C202262 		.ascii	", \"bucket baseline\":\000"
 3211      75636B65 
 3211      74206261 
 3211      73656C69 
 3211      6E65223A 
 3212 00c1 000000   		.space	3
 3213              	.LC44:
 3214 00c4 2C202264 		.ascii	", \"diff\":\000"
 3214      69666622 
 3214      3A00
 3215 00ce 0000     		.space	2
 3216              	.LC46:
 3217 00d0 2C202262 		.ascii	", \"baseline reset\":\000"
 3217      6173656C 
 3217      696E6520 
 3217      72657365 
 3217      74223A00 
 3218              	.LC48:
 3219 00e4 2C202249 		.ascii	", \"IDAC\":\000"
 3219      44414322 
 3219      3A00
 3220 00ee 0000     		.space	2
 3221              	.LC52:
 3222 00f0 646F776E 		.ascii	"down\000"
 3222      00
 3223 00f5 000000   		.space	3
 3224              	.LC54:
 3225 00f8 757000   		.ascii	"up\000"
 3226 00fb 00       		.space	1
 3227              	.LC57:
 3228 00fc 7B226576 		.ascii	"{\"event\":\"push button\", \"id\":\000"
 3228      656E7422 
 3228      3A227075 
 3228      73682062 
 3228      7574746F 
 3229 011a 0000     		.space	2
 3230              	.LC59:
 3231 011c 2C20226E 		.ascii	", \"name\":\"\000"
 3231      616D6522 
 3231      3A2200
 3232 0127 00       		.space	1
 3233              	.LC61:
 3234 0128 222C2022 		.ascii	"\", \"state\":\"\000"
 3234      73746174 
 3234      65223A22 
 3234      00
 3235 0135 000000   		.space	3
 3236              	.LC66:
 3237 0138 7B226576 		.ascii	"{\"event\":\"flash geometry\", \"checksum\":\000"
 3237      656E7422 
ARM GAS  C:\Users\MM1005~1\AppData\Local\Temp\ccukbKgl.s 			page 83


 3237      3A22666C 
 3237      61736820 
 3237      67656F6D 
 3238 015f 00       		.space	1
 3239              	.LC68:
 3240 0160 2C202266 		.ascii	", \"first row\":\000"
 3240      69727374 
 3240      20726F77 
 3240      223A00
 3241 016f 00       		.space	1
 3242              	.LC70:
 3243 0170 2C20226C 		.ascii	", \"last row\":\000"
 3243      61737420 
 3243      726F7722 
 3243      3A00
 3244 017e 0000     		.space	2
 3245              	.LC72:
 3246 0180 2C202273 		.ascii	", \"size\":\000"
 3246      697A6522 
 3246      3A00
 3247 018a 0000     		.space	2
 3248              	.LC74:
 3249 018c 7D00     		.ascii	"}\000"
 3250 018e 0000     		.space	2
 3251              	.LC81:
 3252 0190 7B226576 		.ascii	"{\"event\":\"button\", \"id\":\000"
 3252      656E7422 
 3252      3A226275 
 3252      74746F6E 
 3252      222C2022 
 3253 01a9 000000   		.space	3
 3254              	.LC83:
 3255 01ac 2C202261 		.ascii	", \"action\":\"\000"
 3255      6374696F 
 3255      6E223A22 
 3255      00
 3256 01b9 000000   		.space	3
 3257              	.LC88:
 3258 01bc 63616E27 		.ascii	"can't find comma in command\000"
 3258      74206669 
 3258      6E642063 
 3258      6F6D6D61 
 3258      20696E20 
 3259              	.LC91:
 3260 01d8 4649584D 		.ascii	"FIXME!\000"
 3260      452100
 3261 01df 00       		.space	1
 3262              	.LC94:
 3263 01e0 616E696D 		.ascii	"animation\000"
 3263      6174696F 
 3263      6E00
 3264 01ea 0000     		.space	2
 3265              	.LC96:
 3266 01ec 756E7375 		.ascii	"unsupported animation action\000"
 3266      70706F72 
 3266      74656420 
 3266      616E696D 
ARM GAS  C:\Users\MM1005~1\AppData\Local\Temp\ccukbKgl.s 			page 84


 3266      6174696F 
 3267 0209 000000   		.space	3
 3268              	.LC98:
 3269 020c 756E7375 		.ascii	"unsupported sensor action\000"
 3269      70706F72 
 3269      74656420 
 3269      73656E73 
 3269      6F722061 
 3270 0226 0000     		.space	2
 3271              	.LC100:
 3272 0228 626F6F74 		.ascii	"bootloader is disabled\000"
 3272      6C6F6164 
 3272      65722069 
 3272      73206469 
 3272      7361626C 
 3273 023f 00       		.space	1
 3274              	.LC102:
 3275 0240 756E7375 		.ascii	"unsupported bootloader action\000"
 3275      70706F72 
 3275      74656420 
 3275      626F6F74 
 3275      6C6F6164 
 3276 025e 0000     		.space	2
 3277              	.LC105:
 3278 0260 63616E27 		.ascii	"can't parse red from RGB color\000"
 3278      74207061 
 3278      72736520 
 3278      72656420 
 3278      66726F6D 
 3279 027f 00       		.space	1
 3280              	.LC107:
 3281 0280 63616E27 		.ascii	"can't parse green from RGB color\000"
 3281      74207061 
 3281      72736520 
 3281      67726565 
 3281      6E206672 
 3282 02a1 000000   		.space	3
 3283              	.LC109:
 3284 02a4 63616E27 		.ascii	"can't parsed green from RGB color\000"
 3284      74207061 
 3284      72736564 
 3284      20677265 
 3284      656E2066 
 3285 02c6 0000     		.space	2
 3286              	.LC111:
 3287 02c8 63616E27 		.ascii	"can't parse LED index color\000"
 3287      74207061 
 3287      72736520 
 3287      4C454420 
 3287      696E6465 
 3288              	.LC113:
 3289 02e4 63616E27 		.ascii	"can't parse LED index\000"
 3289      74207061 
 3289      72736520 
 3289      4C454420 
 3289      696E6465 
 3290 02fa 0000     		.space	2
ARM GAS  C:\Users\MM1005~1\AppData\Local\Temp\ccukbKgl.s 			page 85


 3291              	.LC115:
 3292 02fc 696E7661 		.ascii	"invalid led index\000"
 3292      6C696420 
 3292      6C656420 
 3292      696E6465 
 3292      7800
 3293 030e 0000     		.space	2
 3294              	.LC117:
 3295 0310 63616E27 		.ascii	"can't parse LED strip command\000"
 3295      74207061 
 3295      72736520 
 3295      4C454420 
 3295      73747269 
 3296 032e 0000     		.space	2
 3297              	.LC119:
 3298 0330 756E7375 		.ascii	"unsupported led action\000"
 3298      70706F72 
 3298      74656420 
 3298      6C656420 
 3298      61637469 
 3299 0347 00       		.space	1
 3300              	.LC121:
 3301 0348 756E7375 		.ascii	"unsupported telemetry action\000"
 3301      70706F72 
 3301      74656420 
 3301      74656C65 
 3301      6D657472 
 3302 0365 000000   		.space	3
 3303              	.LC123:
 3304 0368 756E7375 		.ascii	"unsupported tracker action\000"
 3304      70706F72 
 3304      74656420 
 3304      74726163 
 3304      6B657220 
 3305 0383 00       		.space	1
 3306              	.LC125:
 3307 0384 76657273 		.ascii	"version\000"
 3307      696F6E00 
 3308              	.LC127:
 3309 038c 756E7375 		.ascii	"unsupported command\000"
 3309      70706F72 
 3309      74656420 
 3309      636F6D6D 
 3309      616E6400 
 3310              	.LC0:
 3311 03a0 6C6F6700 		.ascii	"log\000"
 3312              	.LC1:
 3313 03a4 696E666F 		.ascii	"info\000"
 3313      00
 3314 03a9 000000   		.space	3
 3315              	.LC2:
 3316 03ac 7761726E 		.ascii	"warning\000"
 3316      696E6700 
 3317              	.LC3:
 3318 03b4 6572726F 		.ascii	"error\000"
 3318      7200
 3319 03ba 0000     		.space	2
ARM GAS  C:\Users\MM1005~1\AppData\Local\Temp\ccukbKgl.s 			page 86


 3320              	.LC4:
 3321 03bc 66617461 		.ascii	"fatal\000"
 3321      6C00
 3322 03c2 0000     		.space	2
 3323              	.LC129:
 3324 03c4 73657420 		.ascii	"set the animation parameters\000"
 3324      74686520 
 3324      616E696D 
 3324      6174696F 
 3324      6E207061 
 3325 03e1 000000   		.space	3
 3326              	.LC130:
 3327 03e4 626F6F74 		.ascii	"bootloader\000"
 3327      6C6F6164 
 3327      657200
 3328 03ef 00       		.space	1
 3329              	.LC131:
 3330 03f0 6A756D70 		.ascii	"jump in booloader mode\000"
 3330      20696E20 
 3330      626F6F6C 
 3330      6F616465 
 3330      72206D6F 
 3331 0407 00       		.space	1
 3332              	.LC132:
 3333 0408 63617073 		.ascii	"capsense\000"
 3333      656E7365 
 3333      00
 3334 0411 000000   		.space	3
 3335              	.LC133:
 3336 0414 7365742F 		.ascii	"set/get the capsense configuration\000"
 3336      67657420 
 3336      74686520 
 3336      63617073 
 3336      656E7365 
 3337 0437 00       		.space	1
 3338              	.LC134:
 3339 0438 68656C70 		.ascii	"help\000"
 3339      00
 3340 043d 000000   		.space	3
 3341              	.LC135:
 3342 0440 00       		.ascii	"\000"
 3343 0441 000000   		.space	3
 3344              	.LC136:
 3345 0444 6C656400 		.ascii	"led\000"
 3346              	.LC137:
 3347 0448 73657420 		.ascii	"set led(s)\000"
 3347      6C656428 
 3347      732900
 3348 0453 00       		.space	1
 3349              	.LC138:
 3350 0454 73656E73 		.ascii	"sensor\000"
 3350      6F7200
 3351 045b 00       		.space	1
 3352              	.LC139:
 3353 045c 656E6162 		.ascii	"enable/disable sensors telemetries\000"
 3353      6C652F64 
 3353      69736162 
ARM GAS  C:\Users\MM1005~1\AppData\Local\Temp\ccukbKgl.s 			page 87


 3353      6C652073 
 3353      656E736F 
 3354 047f 00       		.space	1
 3355              	.LC140:
 3356 0480 74656C65 		.ascii	"telemetry\000"
 3356      6D657472 
 3356      7900
 3357 048a 0000     		.space	2
 3358              	.LC141:
 3359 048c 656E6162 		.ascii	"enable/disable telemetries\000"
 3359      6C652F64 
 3359      69736162 
 3359      6C652074 
 3359      656C656D 
 3360 04a7 00       		.space	1
 3361              	.LC142:
 3362 04a8 74726163 		.ascii	"tracker\000"
 3362      6B657200 
 3363              	.LC143:
 3364 04b0 7365742F 		.ascii	"set/get the tracker configuration\000"
 3364      67657420 
 3364      74686520 
 3364      74726163 
 3364      6B657220 
 3365 04d2 0000     		.space	2
 3366              	.LC144:
 3367 04d4 67657420 		.ascii	"get the actual version\000"
 3367      74686520 
 3367      61637475 
 3367      616C2076 
 3367      65727369 
 3368 04eb 00       		.space	1
 3369              	.LC145:
 3370 04ec 636C6561 		.ascii	"clear\000"
 3370      7200
 3371 04f2 0000     		.space	2
 3372              	.LC146:
 3373 04f4 636C6561 		.ascii	"clear all leds\000"
 3373      7220616C 
 3373      6C206C65 
 3373      647300
 3374 0503 00       		.space	1
 3375              	.LC147:
 3376 0504 73657420 		.ascii	"set color left\000"
 3376      636F6C6F 
 3376      72206C65 
 3376      667400
 3377 0513 00       		.space	1
 3378              	.LC148:
 3379 0514 73657420 		.ascii	"set the color of the left LED\000"
 3379      74686520 
 3379      636F6C6F 
 3379      72206F66 
 3379      20746865 
 3380 0532 0000     		.space	2
 3381              	.LC149:
 3382 0534 73657420 		.ascii	"set color right\000"
ARM GAS  C:\Users\MM1005~1\AppData\Local\Temp\ccukbKgl.s 			page 88


 3382      636F6C6F 
 3382      72207269 
 3382      67687400 
 3383              	.LC150:
 3384 0544 73657420 		.ascii	"set the color of the right LED\000"
 3384      74686520 
 3384      636F6C6F 
 3384      72206F66 
 3384      20746865 
 3385 0563 00       		.space	1
 3386              	.LC151:
 3387 0564 73657420 		.ascii	"set white\000"
 3387      77686974 
 3387      6500
 3388 056e 0000     		.space	2
 3389              	.LC152:
 3390 0570 73657420 		.ascii	"set the white LED intensity\000"
 3390      74686520 
 3390      77686974 
 3390      65204C45 
 3390      4420696E 
 3391              	.LC153:
 3392 058c 73657420 		.ascii	"set strip\000"
 3392      73747269 
 3392      7000
 3393 0596 0000     		.space	2
 3394              	.LC154:
 3395 0598 73657420 		.ascii	"set the LED strip\000"
 3395      74686520 
 3395      4C454420 
 3395      73747269 
 3395      7000
 3396 05aa 0000     		.space	2
 3397              	.LC155:
 3398 05ac 64697361 		.ascii	"disable\000"
 3398      626C6500 
 3399              	.LC156:
 3400 05b4 64697361 		.ascii	"disable finger tracker on LEDs\000"
 3400      626C6520 
 3400      66696E67 
 3400      65722074 
 3400      7261636B 
 3401 05d3 00       		.space	1
 3402              	.LC157:
 3403 05d4 656E6162 		.ascii	"enable\000"
 3403      6C6500
 3404 05db 00       		.space	1
 3405              	.LC158:
 3406 05dc 656E6162 		.ascii	"enable finger tracker on LEDs\000"
 3406      6C652066 
 3406      696E6765 
 3406      72207472 
 3406      61636B65 
 3407 05fa 0000     		.space	2
 3408              	.LC159:
 3409 05fc 73657420 		.ascii	"set button\000"
 3409      62757474 
ARM GAS  C:\Users\MM1005~1\AppData\Local\Temp\ccukbKgl.s 			page 89


 3409      6F6E00
 3410 0607 00       		.space	1
 3411              	.LC160:
 3412 0608 73657420 		.ascii	"set the number of logical buttons\000"
 3412      74686520 
 3412      6E756D62 
 3412      6572206F 
 3412      66206C6F 
 3413 062a 0000     		.space	2
 3414              	.LC161:
 3415 062c 64697361 		.ascii	"disable telemetries\000"
 3415      626C6520 
 3415      74656C65 
 3415      6D657472 
 3415      69657300 
 3416              	.LC162:
 3417 0640 656E6162 		.ascii	"enable telemetries\000"
 3417      6C652074 
 3417      656C656D 
 3417      65747269 
 3417      657300
 3418 0653 00       		.space	1
 3419              	.LC163:
 3420 0654 64697361 		.ascii	"disable sensors telemetries\000"
 3420      626C6520 
 3420      73656E73 
 3420      6F727320 
 3420      74656C65 
 3421              	.LC164:
 3422 0670 656E6162 		.ascii	"enable sensors telemetries\000"
 3422      6C652073 
 3422      656E736F 
 3422      72732074 
 3422      656C656D 
 3423 068b 00       		.space	1
 3424              	.LC165:
 3425 068c 6175746F 		.ascii	"auto\000"
 3425      00
 3426 0691 000000   		.space	3
 3427              	.LC166:
 3428 0694 73657420 		.ascii	"set animation in automatic mode\000"
 3428      616E696D 
 3428      6174696F 
 3428      6E20696E 
 3428      20617574 
 3429              	.LC167:
 3430 06b4 6D616E75 		.ascii	"manual\000"
 3430      616C00
 3431 06bb 00       		.space	1
 3432              	.LC168:
 3433 06bc 73657420 		.ascii	"set animation in manual mode\000"
 3433      616E696D 
 3433      6174696F 
 3433      6E20696E 
 3433      206D616E 
 3434 06d9 000000   		.space	3
 3435              	.LC169:
ARM GAS  C:\Users\MM1005~1\AppData\Local\Temp\ccukbKgl.s 			page 90


 3436 06dc 73746F70 		.ascii	"stop\000"
 3436      00
 3437 06e1 000000   		.space	3
 3438              	.LC170:
 3439 06e4 73746F70 		.ascii	"stop animation\000"
 3439      20616E69 
 3439      6D617469 
 3439      6F6E00
 3440 06f3 00       		.space	1
 3441              	.LC171:
 3442 06f4 72657375 		.ascii	"resume\000"
 3442      6D6500
 3443 06fb 00       		.space	1
 3444              	.LC172:
 3445 06fc 72657375 		.ascii	"resume animation\000"
 3445      6D652061 
 3445      6E696D61 
 3445      74696F6E 
 3445      00
 3446 070d 000000   		.space	3
 3447              	.LC173:
 3448 0710 73746172 		.ascii	"start\000"
 3448      7400
 3449 0716 0000     		.space	2
 3450              	.LC174:
 3451 0718 656E7465 		.ascii	"enter in bootloader mode\000"
 3451      7220696E 
 3451      20626F6F 
 3451      746C6F61 
 3451      64657220 
 3452 0731 000000   		.space	3
 3453              	.LC175:
 3454 0734 65786974 		.ascii	"exit\000"
 3454      00
 3455 0739 000000   		.space	3
 3456              	.LC176:
 3457 073c 65786974 		.ascii	"exit from bootloader mode\000"
 3457      2066726F 
 3457      6D20626F 
 3457      6F746C6F 
 3457      61646572 
 3458 0756 0000     		.space	2
 3459              	.LC177:
 3460 0758 67657420 		.ascii	"get flash geo\000"
 3460      666C6173 
 3460      68206765 
 3460      6F00
 3461 0766 0000     		.space	2
 3462              	.LC178:
 3463 0768 67657420 		.ascii	"get flash geometry\000"
 3463      666C6173 
 3463      68206765 
 3463      6F6D6574 
 3463      727900
 3464 077b 00       		.bss
 3465              		.align	2
 3466              		.set	.LANCHOR3,. + 0
ARM GAS  C:\Users\MM1005~1\AppData\Local\Temp\ccukbKgl.s 			page 91


 3467              		.set	.LANCHOR4,. + 512
 3468              		.type	is_telemetry_enable, %object
 3469              		.size	is_telemetry_enable, 1
 3470              	is_telemetry_enable:
 3471 0000 00       		.space	1
 3472 0001 000000   		.space	3
 3473              		.type	telemetry, %object
 3474              		.size	telemetry, 512
 3475              	telemetry:
 3476 0004 00000000 		.space	512
 3476      00000000 
 3476      00000000 
 3476      00000000 
 3476      00000000 
 3477              		.type	is_sensor_telemetry_enable, %object
 3478              		.size	is_sensor_telemetry_enable, 1
 3479              	is_sensor_telemetry_enable:
 3480 0204 00       		.space	1
 3481 0205 000000   		.text
 3482              	.Letext0:
 3483              		.file 2 "c:\\program files (x86)\\cypress\\psoc creator\\4.0\\psoc creator\\import\\gnu\\arm\\4.9.
 3484              		.file 3 "Generated_Source\\PSoC4/cytypes.h"
 3485              		.file 4 "Generated_Source\\PSoC4/CapSense_Configuration.h"
 3486              		.file 5 "Generated_Source\\PSoC4/CapSense_SmartSense_LL.h"
 3487              		.file 6 "Generated_Source\\PSoC4/CapSense_Structure.h"
 3488              		.file 7 "util.h"
 3489              		.file 8 "led.h"
 3490              		.file 9 "animation.h"
 3491              		.file 10 "command_telemetry.h"
 3492              		.file 11 "comms.h"
 3493              		.file 12 "Generated_Source\\PSoC4/CapSense_ISR.h"
 3494              		.file 13 "c:\\program files (x86)\\cypress\\psoc creator\\4.0\\psoc creator\\import\\gnu\\arm\\4.9
 3495              		.file 14 "<built-in>"
 3496              		.file 15 "Generated_Source\\PSoC4/Timer_1.h"
 3497              		.section	.debug_info,"",%progbits
 3498              	.Ldebug_info0:
 3499 0000 BC280000 		.4byte	0x28bc
 3500 0004 0400     		.2byte	0x4
 3501 0006 00000000 		.4byte	.Ldebug_abbrev0
 3502 000a 04       		.byte	0x4
 3503 000b 01       		.uleb128 0x1
 3504 000c 16000000 		.4byte	.LASF287
 3505 0010 01       		.byte	0x1
 3506 0011 F2060000 		.4byte	.LASF288
 3507 0015 E3050000 		.4byte	.LASF289
 3508 0019 00000000 		.4byte	.Ldebug_ranges0+0
 3509 001d 00000000 		.4byte	0
 3510 0021 00000000 		.4byte	.Ldebug_line0
 3511 0025 02       		.uleb128 0x2
 3512 0026 01       		.byte	0x1
 3513 0027 06       		.byte	0x6
 3514 0028 30110000 		.4byte	.LASF0
 3515 002c 02       		.uleb128 0x2
 3516 002d 01       		.byte	0x1
 3517 002e 08       		.byte	0x8
 3518 002f AF0F0000 		.4byte	.LASF1
 3519 0033 02       		.uleb128 0x2
ARM GAS  C:\Users\MM1005~1\AppData\Local\Temp\ccukbKgl.s 			page 92


 3520 0034 02       		.byte	0x2
 3521 0035 05       		.byte	0x5
 3522 0036 650C0000 		.4byte	.LASF2
 3523 003a 02       		.uleb128 0x2
 3524 003b 02       		.byte	0x2
 3525 003c 07       		.byte	0x7
 3526 003d 41110000 		.4byte	.LASF3
 3527 0041 02       		.uleb128 0x2
 3528 0042 04       		.byte	0x4
 3529 0043 05       		.byte	0x5
 3530 0044 910C0000 		.4byte	.LASF4
 3531 0048 02       		.uleb128 0x2
 3532 0049 04       		.byte	0x4
 3533 004a 07       		.byte	0x7
 3534 004b 4A0E0000 		.4byte	.LASF5
 3535 004f 02       		.uleb128 0x2
 3536 0050 08       		.byte	0x8
 3537 0051 05       		.byte	0x5
 3538 0052 3D090000 		.4byte	.LASF6
 3539 0056 02       		.uleb128 0x2
 3540 0057 08       		.byte	0x8
 3541 0058 07       		.byte	0x7
 3542 0059 ED030000 		.4byte	.LASF7
 3543 005d 03       		.uleb128 0x3
 3544 005e 04       		.byte	0x4
 3545 005f 05       		.byte	0x5
 3546 0060 696E7400 		.ascii	"int\000"
 3547 0064 02       		.uleb128 0x2
 3548 0065 04       		.byte	0x4
 3549 0066 07       		.byte	0x7
 3550 0067 06020000 		.4byte	.LASF8
 3551 006b 04       		.uleb128 0x4
 3552 006c 3F020000 		.4byte	.LASF9
 3553 0070 02       		.byte	0x2
 3554 0071 69       		.byte	0x69
 3555 0072 56000000 		.4byte	0x56
 3556 0076 05       		.uleb128 0x5
 3557 0077 7A110000 		.4byte	.LASF10
 3558 007b 03       		.byte	0x3
 3559 007c B901     		.2byte	0x1b9
 3560 007e 2C000000 		.4byte	0x2c
 3561 0082 05       		.uleb128 0x5
 3562 0083 53080000 		.4byte	.LASF11
 3563 0087 03       		.byte	0x3
 3564 0088 BA01     		.2byte	0x1ba
 3565 008a 3A000000 		.4byte	0x3a
 3566 008e 05       		.uleb128 0x5
 3567 008f C00A0000 		.4byte	.LASF12
 3568 0093 03       		.byte	0x3
 3569 0094 BB01     		.2byte	0x1bb
 3570 0096 48000000 		.4byte	0x48
 3571 009a 02       		.uleb128 0x2
 3572 009b 04       		.byte	0x4
 3573 009c 04       		.byte	0x4
 3574 009d 9B030000 		.4byte	.LASF13
 3575 00a1 02       		.uleb128 0x2
 3576 00a2 08       		.byte	0x8
ARM GAS  C:\Users\MM1005~1\AppData\Local\Temp\ccukbKgl.s 			page 93


 3577 00a3 04       		.byte	0x4
 3578 00a4 80110000 		.4byte	.LASF14
 3579 00a8 02       		.uleb128 0x2
 3580 00a9 01       		.byte	0x1
 3581 00aa 08       		.byte	0x8
 3582 00ab 00080000 		.4byte	.LASF15
 3583 00af 06       		.uleb128 0x6
 3584 00b0 04       		.byte	0x4
 3585 00b1 B5000000 		.4byte	0xb5
 3586 00b5 07       		.uleb128 0x7
 3587 00b6 04       		.uleb128 0x4
 3588 00b7 48100000 		.4byte	.LASF16
 3589 00bb 04       		.byte	0x4
 3590 00bc F9       		.byte	0xf9
 3591 00bd 82000000 		.4byte	0x82
 3592 00c1 04       		.uleb128 0x4
 3593 00c2 C3080000 		.4byte	.LASF17
 3594 00c6 04       		.byte	0x4
 3595 00c7 FD       		.byte	0xfd
 3596 00c8 76000000 		.4byte	0x76
 3597 00cc 02       		.uleb128 0x2
 3598 00cd 04       		.byte	0x4
 3599 00ce 07       		.byte	0x7
 3600 00cf 410E0000 		.4byte	.LASF18
 3601 00d3 08       		.uleb128 0x8
 3602 00d4 04       		.byte	0x4
 3603 00d5 06       		.uleb128 0x6
 3604 00d6 04       		.byte	0x4
 3605 00d7 A8000000 		.4byte	0xa8
 3606 00db 06       		.uleb128 0x6
 3607 00dc 04       		.byte	0x4
 3608 00dd E1000000 		.4byte	0xe1
 3609 00e1 09       		.uleb128 0x9
 3610 00e2 A8000000 		.4byte	0xa8
 3611 00e6 06       		.uleb128 0x6
 3612 00e7 04       		.byte	0x4
 3613 00e8 76000000 		.4byte	0x76
 3614 00ec 06       		.uleb128 0x6
 3615 00ed 04       		.byte	0x4
 3616 00ee 82000000 		.4byte	0x82
 3617 00f2 0A       		.uleb128 0xa
 3618 00f3 0C       		.byte	0xc
 3619 00f4 05       		.byte	0x5
 3620 00f5 6C       		.byte	0x6c
 3621 00f6 4F010000 		.4byte	0x14f
 3622 00fa 0B       		.uleb128 0xb
 3623 00fb A9110000 		.4byte	.LASF19
 3624 00ff 05       		.byte	0x5
 3625 0100 6E       		.byte	0x6e
 3626 0101 82000000 		.4byte	0x82
 3627 0105 00       		.byte	0
 3628 0106 0B       		.uleb128 0xb
 3629 0107 B0110000 		.4byte	.LASF20
 3630 010b 05       		.byte	0x5
 3631 010c 6F       		.byte	0x6f
 3632 010d 82000000 		.4byte	0x82
 3633 0111 02       		.byte	0x2
ARM GAS  C:\Users\MM1005~1\AppData\Local\Temp\ccukbKgl.s 			page 94


 3634 0112 0B       		.uleb128 0xb
 3635 0113 B7110000 		.4byte	.LASF21
 3636 0117 05       		.byte	0x5
 3637 0118 70       		.byte	0x70
 3638 0119 82000000 		.4byte	0x82
 3639 011d 04       		.byte	0x4
 3640 011e 0B       		.uleb128 0xb
 3641 011f BE110000 		.4byte	.LASF22
 3642 0123 05       		.byte	0x5
 3643 0124 71       		.byte	0x71
 3644 0125 82000000 		.4byte	0x82
 3645 0129 06       		.byte	0x6
 3646 012a 0B       		.uleb128 0xb
 3647 012b C5110000 		.4byte	.LASF23
 3648 012f 05       		.byte	0x5
 3649 0130 72       		.byte	0x72
 3650 0131 82000000 		.4byte	0x82
 3651 0135 08       		.byte	0x8
 3652 0136 0B       		.uleb128 0xb
 3653 0137 CC110000 		.4byte	.LASF24
 3654 013b 05       		.byte	0x5
 3655 013c 73       		.byte	0x73
 3656 013d 76000000 		.4byte	0x76
 3657 0141 0A       		.byte	0xa
 3658 0142 0B       		.uleb128 0xb
 3659 0143 D3110000 		.4byte	.LASF25
 3660 0147 05       		.byte	0x5
 3661 0148 74       		.byte	0x74
 3662 0149 76000000 		.4byte	0x76
 3663 014d 0B       		.byte	0xb
 3664 014e 00       		.byte	0
 3665 014f 04       		.uleb128 0x4
 3666 0150 A6070000 		.4byte	.LASF26
 3667 0154 05       		.byte	0x5
 3668 0155 75       		.byte	0x75
 3669 0156 F2000000 		.4byte	0xf2
 3670 015a 0C       		.uleb128 0xc
 3671 015b 76000000 		.4byte	0x76
 3672 015f 6A010000 		.4byte	0x16a
 3673 0163 0D       		.uleb128 0xd
 3674 0164 CC000000 		.4byte	0xcc
 3675 0168 00       		.byte	0
 3676 0169 00       		.byte	0
 3677 016a 0A       		.uleb128 0xa
 3678 016b 14       		.byte	0x14
 3679 016c 06       		.byte	0x6
 3680 016d CA       		.byte	0xca
 3681 016e 20020000 		.4byte	0x220
 3682 0172 0B       		.uleb128 0xb
 3683 0173 9A080000 		.4byte	.LASF27
 3684 0177 06       		.byte	0x6
 3685 0178 D0       		.byte	0xd0
 3686 0179 82000000 		.4byte	0x82
 3687 017d 00       		.byte	0
 3688 017e 0B       		.uleb128 0xb
 3689 017f 090F0000 		.4byte	.LASF28
 3690 0183 06       		.byte	0x6
ARM GAS  C:\Users\MM1005~1\AppData\Local\Temp\ccukbKgl.s 			page 95


 3691 0184 D5       		.byte	0xd5
 3692 0185 B6000000 		.4byte	0xb6
 3693 0189 02       		.byte	0x2
 3694 018a 0B       		.uleb128 0xb
 3695 018b F8070000 		.4byte	.LASF29
 3696 018f 06       		.byte	0x6
 3697 0190 DA       		.byte	0xda
 3698 0191 76000000 		.4byte	0x76
 3699 0195 04       		.byte	0x4
 3700 0196 0B       		.uleb128 0xb
 3701 0197 540A0000 		.4byte	.LASF30
 3702 019b 06       		.byte	0x6
 3703 019c DF       		.byte	0xdf
 3704 019d 76000000 		.4byte	0x76
 3705 01a1 05       		.byte	0x5
 3706 01a2 0B       		.uleb128 0xb
 3707 01a3 A5060000 		.4byte	.LASF31
 3708 01a7 06       		.byte	0x6
 3709 01a8 E4       		.byte	0xe4
 3710 01a9 76000000 		.4byte	0x76
 3711 01ad 06       		.byte	0x6
 3712 01ae 0B       		.uleb128 0xb
 3713 01af 73090000 		.4byte	.LASF32
 3714 01b3 06       		.byte	0x6
 3715 01b4 E9       		.byte	0xe9
 3716 01b5 76000000 		.4byte	0x76
 3717 01b9 07       		.byte	0x7
 3718 01ba 0B       		.uleb128 0xb
 3719 01bb 37070000 		.4byte	.LASF33
 3720 01bf 06       		.byte	0x6
 3721 01c0 EF       		.byte	0xef
 3722 01c1 C1000000 		.4byte	0xc1
 3723 01c5 08       		.byte	0x8
 3724 01c6 0B       		.uleb128 0xb
 3725 01c7 B1050000 		.4byte	.LASF34
 3726 01cb 06       		.byte	0x6
 3727 01cc F4       		.byte	0xf4
 3728 01cd 76000000 		.4byte	0x76
 3729 01d1 09       		.byte	0x9
 3730 01d2 0B       		.uleb128 0xb
 3731 01d3 700E0000 		.4byte	.LASF35
 3732 01d7 06       		.byte	0x6
 3733 01d8 FB       		.byte	0xfb
 3734 01d9 5A010000 		.4byte	0x15a
 3735 01dd 0A       		.byte	0xa
 3736 01de 0E       		.uleb128 0xe
 3737 01df EE100000 		.4byte	.LASF36
 3738 01e3 06       		.byte	0x6
 3739 01e4 0201     		.2byte	0x102
 3740 01e6 76000000 		.4byte	0x76
 3741 01ea 0B       		.byte	0xb
 3742 01eb 0E       		.uleb128 0xe
 3743 01ec F00B0000 		.4byte	.LASF37
 3744 01f0 06       		.byte	0x6
 3745 01f1 0701     		.2byte	0x107
 3746 01f3 76000000 		.4byte	0x76
 3747 01f7 0C       		.byte	0xc
ARM GAS  C:\Users\MM1005~1\AppData\Local\Temp\ccukbKgl.s 			page 96


 3748 01f8 0E       		.uleb128 0xe
 3749 01f9 FF0D0000 		.4byte	.LASF38
 3750 01fd 06       		.byte	0x6
 3751 01fe 0D01     		.2byte	0x10d
 3752 0200 82000000 		.4byte	0x82
 3753 0204 0E       		.byte	0xe
 3754 0205 0E       		.uleb128 0xe
 3755 0206 7D060000 		.4byte	.LASF39
 3756 020a 06       		.byte	0x6
 3757 020b 1201     		.2byte	0x112
 3758 020d 82000000 		.4byte	0x82
 3759 0211 10       		.byte	0x10
 3760 0212 0E       		.uleb128 0xe
 3761 0213 20120000 		.4byte	.LASF40
 3762 0217 06       		.byte	0x6
 3763 0218 1701     		.2byte	0x117
 3764 021a 20020000 		.4byte	0x220
 3765 021e 12       		.byte	0x12
 3766 021f 00       		.byte	0
 3767 0220 0C       		.uleb128 0xc
 3768 0221 82000000 		.4byte	0x82
 3769 0225 30020000 		.4byte	0x230
 3770 0229 0D       		.uleb128 0xd
 3771 022a CC000000 		.4byte	0xcc
 3772 022e 00       		.byte	0
 3773 022f 00       		.byte	0
 3774 0230 05       		.uleb128 0x5
 3775 0231 230E0000 		.4byte	.LASF41
 3776 0235 06       		.byte	0x6
 3777 0236 1801     		.2byte	0x118
 3778 0238 6A010000 		.4byte	0x16a
 3779 023c 0F       		.uleb128 0xf
 3780 023d 12       		.byte	0x12
 3781 023e 06       		.byte	0x6
 3782 023f 1D01     		.2byte	0x11d
 3783 0241 EF020000 		.4byte	0x2ef
 3784 0245 0E       		.uleb128 0xe
 3785 0246 9A080000 		.4byte	.LASF27
 3786 024a 06       		.byte	0x6
 3787 024b 2301     		.2byte	0x123
 3788 024d 82000000 		.4byte	0x82
 3789 0251 00       		.byte	0
 3790 0252 0E       		.uleb128 0xe
 3791 0253 090F0000 		.4byte	.LASF28
 3792 0257 06       		.byte	0x6
 3793 0258 2801     		.2byte	0x128
 3794 025a B6000000 		.4byte	0xb6
 3795 025e 02       		.byte	0x2
 3796 025f 0E       		.uleb128 0xe
 3797 0260 F8070000 		.4byte	.LASF29
 3798 0264 06       		.byte	0x6
 3799 0265 2D01     		.2byte	0x12d
 3800 0267 76000000 		.4byte	0x76
 3801 026b 04       		.byte	0x4
 3802 026c 0E       		.uleb128 0xe
 3803 026d 540A0000 		.4byte	.LASF30
 3804 0271 06       		.byte	0x6
ARM GAS  C:\Users\MM1005~1\AppData\Local\Temp\ccukbKgl.s 			page 97


 3805 0272 3201     		.2byte	0x132
 3806 0274 76000000 		.4byte	0x76
 3807 0278 05       		.byte	0x5
 3808 0279 0E       		.uleb128 0xe
 3809 027a A5060000 		.4byte	.LASF31
 3810 027e 06       		.byte	0x6
 3811 027f 3701     		.2byte	0x137
 3812 0281 76000000 		.4byte	0x76
 3813 0285 06       		.byte	0x6
 3814 0286 0E       		.uleb128 0xe
 3815 0287 73090000 		.4byte	.LASF32
 3816 028b 06       		.byte	0x6
 3817 028c 3C01     		.2byte	0x13c
 3818 028e 76000000 		.4byte	0x76
 3819 0292 07       		.byte	0x7
 3820 0293 0E       		.uleb128 0xe
 3821 0294 37070000 		.4byte	.LASF33
 3822 0298 06       		.byte	0x6
 3823 0299 4201     		.2byte	0x142
 3824 029b C1000000 		.4byte	0xc1
 3825 029f 08       		.byte	0x8
 3826 02a0 0E       		.uleb128 0xe
 3827 02a1 B1050000 		.4byte	.LASF34
 3828 02a5 06       		.byte	0x6
 3829 02a6 4701     		.2byte	0x147
 3830 02a8 76000000 		.4byte	0x76
 3831 02ac 09       		.byte	0x9
 3832 02ad 0E       		.uleb128 0xe
 3833 02ae 700E0000 		.4byte	.LASF35
 3834 02b2 06       		.byte	0x6
 3835 02b3 4E01     		.2byte	0x14e
 3836 02b5 5A010000 		.4byte	0x15a
 3837 02b9 0A       		.byte	0xa
 3838 02ba 0E       		.uleb128 0xe
 3839 02bb EE100000 		.4byte	.LASF36
 3840 02bf 06       		.byte	0x6
 3841 02c0 5501     		.2byte	0x155
 3842 02c2 76000000 		.4byte	0x76
 3843 02c6 0B       		.byte	0xb
 3844 02c7 0E       		.uleb128 0xe
 3845 02c8 F00B0000 		.4byte	.LASF37
 3846 02cc 06       		.byte	0x6
 3847 02cd 5A01     		.2byte	0x15a
 3848 02cf 76000000 		.4byte	0x76
 3849 02d3 0C       		.byte	0xc
 3850 02d4 0E       		.uleb128 0xe
 3851 02d5 FF0D0000 		.4byte	.LASF38
 3852 02d9 06       		.byte	0x6
 3853 02da 6001     		.2byte	0x160
 3854 02dc 82000000 		.4byte	0x82
 3855 02e0 0E       		.byte	0xe
 3856 02e1 0E       		.uleb128 0xe
 3857 02e2 7D060000 		.4byte	.LASF39
 3858 02e6 06       		.byte	0x6
 3859 02e7 6501     		.2byte	0x165
 3860 02e9 82000000 		.4byte	0x82
 3861 02ed 10       		.byte	0x10
ARM GAS  C:\Users\MM1005~1\AppData\Local\Temp\ccukbKgl.s 			page 98


 3862 02ee 00       		.byte	0
 3863 02ef 05       		.uleb128 0x5
 3864 02f0 5B0F0000 		.4byte	.LASF42
 3865 02f4 06       		.byte	0x6
 3866 02f5 6601     		.2byte	0x166
 3867 02f7 3C020000 		.4byte	0x23c
 3868 02fb 0F       		.uleb128 0xf
 3869 02fc 92       		.byte	0x92
 3870 02fd 06       		.byte	0x6
 3871 02fe 6C01     		.2byte	0x16c
 3872 0300 6D030000 		.4byte	0x36d
 3873 0304 0E       		.uleb128 0xe
 3874 0305 AB100000 		.4byte	.LASF43
 3875 0309 06       		.byte	0x6
 3876 030a 7101     		.2byte	0x171
 3877 030c 30020000 		.4byte	0x230
 3878 0310 00       		.byte	0
 3879 0311 0E       		.uleb128 0xe
 3880 0312 2B030000 		.4byte	.LASF44
 3881 0316 06       		.byte	0x6
 3882 0317 7601     		.2byte	0x176
 3883 0319 EF020000 		.4byte	0x2ef
 3884 031d 14       		.byte	0x14
 3885 031e 0E       		.uleb128 0xe
 3886 031f 30030000 		.4byte	.LASF45
 3887 0323 06       		.byte	0x6
 3888 0324 7B01     		.2byte	0x17b
 3889 0326 EF020000 		.4byte	0x2ef
 3890 032a 26       		.byte	0x26
 3891 032b 0E       		.uleb128 0xe
 3892 032c 4B030000 		.4byte	.LASF46
 3893 0330 06       		.byte	0x6
 3894 0331 8001     		.2byte	0x180
 3895 0333 EF020000 		.4byte	0x2ef
 3896 0337 38       		.byte	0x38
 3897 0338 0E       		.uleb128 0xe
 3898 0339 50030000 		.4byte	.LASF47
 3899 033d 06       		.byte	0x6
 3900 033e 8501     		.2byte	0x185
 3901 0340 EF020000 		.4byte	0x2ef
 3902 0344 4A       		.byte	0x4a
 3903 0345 0E       		.uleb128 0xe
 3904 0346 55030000 		.4byte	.LASF48
 3905 034a 06       		.byte	0x6
 3906 034b 8A01     		.2byte	0x18a
 3907 034d EF020000 		.4byte	0x2ef
 3908 0351 5C       		.byte	0x5c
 3909 0352 0E       		.uleb128 0xe
 3910 0353 5A030000 		.4byte	.LASF49
 3911 0357 06       		.byte	0x6
 3912 0358 8F01     		.2byte	0x18f
 3913 035a EF020000 		.4byte	0x2ef
 3914 035e 6E       		.byte	0x6e
 3915 035f 0E       		.uleb128 0xe
 3916 0360 5F030000 		.4byte	.LASF50
 3917 0364 06       		.byte	0x6
 3918 0365 9401     		.2byte	0x194
ARM GAS  C:\Users\MM1005~1\AppData\Local\Temp\ccukbKgl.s 			page 99


 3919 0367 EF020000 		.4byte	0x2ef
 3920 036b 80       		.byte	0x80
 3921 036c 00       		.byte	0
 3922 036d 05       		.uleb128 0x5
 3923 036e F5020000 		.4byte	.LASF51
 3924 0372 06       		.byte	0x6
 3925 0373 9501     		.2byte	0x195
 3926 0375 FB020000 		.4byte	0x2fb
 3927 0379 0F       		.uleb128 0xf
 3928 037a 0A       		.byte	0xa
 3929 037b 06       		.byte	0x6
 3930 037c 9B01     		.2byte	0x19b
 3931 037e D1030000 		.4byte	0x3d1
 3932 0382 10       		.uleb128 0x10
 3933 0383 72617700 		.ascii	"raw\000"
 3934 0387 06       		.byte	0x6
 3935 0388 A001     		.2byte	0x1a0
 3936 038a 20020000 		.4byte	0x220
 3937 038e 00       		.byte	0
 3938 038f 0E       		.uleb128 0xe
 3939 0390 3C110000 		.4byte	.LASF52
 3940 0394 06       		.byte	0x6
 3941 0395 A501     		.2byte	0x1a5
 3942 0397 20020000 		.4byte	0x220
 3943 039b 02       		.byte	0x2
 3944 039c 0E       		.uleb128 0xe
 3945 039d 440F0000 		.4byte	.LASF53
 3946 03a1 06       		.byte	0x6
 3947 03a2 AB01     		.2byte	0x1ab
 3948 03a4 5A010000 		.4byte	0x15a
 3949 03a8 04       		.byte	0x4
 3950 03a9 0E       		.uleb128 0xe
 3951 03aa D80C0000 		.4byte	.LASF54
 3952 03ae 06       		.byte	0x6
 3953 03af B001     		.2byte	0x1b0
 3954 03b1 B6000000 		.4byte	0xb6
 3955 03b5 06       		.byte	0x6
 3956 03b6 0E       		.uleb128 0xe
 3957 03b7 87110000 		.4byte	.LASF55
 3958 03bb 06       		.byte	0x6
 3959 03bc B501     		.2byte	0x1b5
 3960 03be D1030000 		.4byte	0x3d1
 3961 03c2 08       		.byte	0x8
 3962 03c3 0E       		.uleb128 0xe
 3963 03c4 02090000 		.4byte	.LASF56
 3964 03c8 06       		.byte	0x6
 3965 03c9 BB01     		.2byte	0x1bb
 3966 03cb 5A010000 		.4byte	0x15a
 3967 03cf 09       		.byte	0x9
 3968 03d0 00       		.byte	0
 3969 03d1 0C       		.uleb128 0xc
 3970 03d2 C1000000 		.4byte	0xc1
 3971 03d6 E1030000 		.4byte	0x3e1
 3972 03da 0D       		.uleb128 0xd
 3973 03db CC000000 		.4byte	0xcc
 3974 03df 00       		.byte	0
 3975 03e0 00       		.byte	0
ARM GAS  C:\Users\MM1005~1\AppData\Local\Temp\ccukbKgl.s 			page 100


 3976 03e1 05       		.uleb128 0x5
 3977 03e2 81050000 		.4byte	.LASF57
 3978 03e6 06       		.byte	0x6
 3979 03e7 BC01     		.2byte	0x1bc
 3980 03e9 79030000 		.4byte	0x379
 3981 03ed 0F       		.uleb128 0xf
 3982 03ee 8C       		.byte	0x8c
 3983 03ef 06       		.byte	0x6
 3984 03f0 C201     		.2byte	0x1c2
 3985 03f2 5F040000 		.4byte	0x45f
 3986 03f6 0E       		.uleb128 0xe
 3987 03f7 AB100000 		.4byte	.LASF43
 3988 03fb 06       		.byte	0x6
 3989 03fc C701     		.2byte	0x1c7
 3990 03fe 5F040000 		.4byte	0x45f
 3991 0402 00       		.byte	0
 3992 0403 0E       		.uleb128 0xe
 3993 0404 2B030000 		.4byte	.LASF44
 3994 0408 06       		.byte	0x6
 3995 0409 CC01     		.2byte	0x1cc
 3996 040b 6F040000 		.4byte	0x46f
 3997 040f 46       		.byte	0x46
 3998 0410 0E       		.uleb128 0xe
 3999 0411 30030000 		.4byte	.LASF45
 4000 0415 06       		.byte	0x6
 4001 0416 D101     		.2byte	0x1d1
 4002 0418 6F040000 		.4byte	0x46f
 4003 041c 50       		.byte	0x50
 4004 041d 0E       		.uleb128 0xe
 4005 041e 4B030000 		.4byte	.LASF46
 4006 0422 06       		.byte	0x6
 4007 0423 D601     		.2byte	0x1d6
 4008 0425 6F040000 		.4byte	0x46f
 4009 0429 5A       		.byte	0x5a
 4010 042a 0E       		.uleb128 0xe
 4011 042b 50030000 		.4byte	.LASF47
 4012 042f 06       		.byte	0x6
 4013 0430 DB01     		.2byte	0x1db
 4014 0432 6F040000 		.4byte	0x46f
 4015 0436 64       		.byte	0x64
 4016 0437 0E       		.uleb128 0xe
 4017 0438 55030000 		.4byte	.LASF48
 4018 043c 06       		.byte	0x6
 4019 043d E001     		.2byte	0x1e0
 4020 043f 6F040000 		.4byte	0x46f
 4021 0443 6E       		.byte	0x6e
 4022 0444 0E       		.uleb128 0xe
 4023 0445 5A030000 		.4byte	.LASF49
 4024 0449 06       		.byte	0x6
 4025 044a E501     		.2byte	0x1e5
 4026 044c 6F040000 		.4byte	0x46f
 4027 0450 78       		.byte	0x78
 4028 0451 0E       		.uleb128 0xe
 4029 0452 5F030000 		.4byte	.LASF50
 4030 0456 06       		.byte	0x6
 4031 0457 EA01     		.2byte	0x1ea
 4032 0459 6F040000 		.4byte	0x46f
ARM GAS  C:\Users\MM1005~1\AppData\Local\Temp\ccukbKgl.s 			page 101


 4033 045d 82       		.byte	0x82
 4034 045e 00       		.byte	0
 4035 045f 0C       		.uleb128 0xc
 4036 0460 E1030000 		.4byte	0x3e1
 4037 0464 6F040000 		.4byte	0x46f
 4038 0468 0D       		.uleb128 0xd
 4039 0469 CC000000 		.4byte	0xcc
 4040 046d 06       		.byte	0x6
 4041 046e 00       		.byte	0
 4042 046f 0C       		.uleb128 0xc
 4043 0470 E1030000 		.4byte	0x3e1
 4044 0474 7F040000 		.4byte	0x47f
 4045 0478 0D       		.uleb128 0xd
 4046 0479 CC000000 		.4byte	0xcc
 4047 047d 00       		.byte	0
 4048 047e 00       		.byte	0
 4049 047f 05       		.uleb128 0x5
 4050 0480 29120000 		.4byte	.LASF58
 4051 0484 06       		.byte	0x6
 4052 0485 EB01     		.2byte	0x1eb
 4053 0487 ED030000 		.4byte	0x3ed
 4054 048b 11       		.uleb128 0x11
 4055 048c 4401     		.2byte	0x144
 4056 048e 06       		.byte	0x6
 4057 048f F201     		.2byte	0x1f2
 4058 0491 77050000 		.4byte	0x577
 4059 0495 0E       		.uleb128 0xe
 4060 0496 9A0B0000 		.4byte	.LASF59
 4061 049a 06       		.byte	0x6
 4062 049b F801     		.2byte	0x1f8
 4063 049d 82000000 		.4byte	0x82
 4064 04a1 00       		.byte	0
 4065 04a2 0E       		.uleb128 0xe
 4066 04a3 0B120000 		.4byte	.LASF60
 4067 04a7 06       		.byte	0x6
 4068 04a8 FD01     		.2byte	0x1fd
 4069 04aa 82000000 		.4byte	0x82
 4070 04ae 02       		.byte	0x2
 4071 04af 0E       		.uleb128 0xe
 4072 04b0 160D0000 		.4byte	.LASF61
 4073 04b4 06       		.byte	0x6
 4074 04b5 0302     		.2byte	0x203
 4075 04b7 82000000 		.4byte	0x82
 4076 04bb 04       		.byte	0x4
 4077 04bc 0E       		.uleb128 0xe
 4078 04bd 22020000 		.4byte	.LASF62
 4079 04c1 06       		.byte	0x6
 4080 04c2 0802     		.2byte	0x208
 4081 04c4 82000000 		.4byte	0x82
 4082 04c8 06       		.byte	0x6
 4083 04c9 0E       		.uleb128 0xe
 4084 04ca BC080000 		.4byte	.LASF63
 4085 04ce 06       		.byte	0x6
 4086 04cf 0D02     		.2byte	0x20d
 4087 04d1 8E000000 		.4byte	0x8e
 4088 04d5 08       		.byte	0x8
 4089 04d6 0E       		.uleb128 0xe
ARM GAS  C:\Users\MM1005~1\AppData\Local\Temp\ccukbKgl.s 			page 102


 4090 04d7 B20C0000 		.4byte	.LASF64
 4091 04db 06       		.byte	0x6
 4092 04dc 1202     		.2byte	0x212
 4093 04de 77050000 		.4byte	0x577
 4094 04e2 0C       		.byte	0xc
 4095 04e3 0E       		.uleb128 0xe
 4096 04e4 090E0000 		.4byte	.LASF65
 4097 04e8 06       		.byte	0x6
 4098 04e9 1702     		.2byte	0x217
 4099 04eb 77050000 		.4byte	0x577
 4100 04ef 10       		.byte	0x10
 4101 04f0 0E       		.uleb128 0xe
 4102 04f1 E60B0000 		.4byte	.LASF66
 4103 04f5 06       		.byte	0x6
 4104 04f6 2502     		.2byte	0x225
 4105 04f8 87050000 		.4byte	0x587
 4106 04fc 14       		.byte	0x14
 4107 04fd 0E       		.uleb128 0xe
 4108 04fe 5D0A0000 		.4byte	.LASF67
 4109 0502 06       		.byte	0x6
 4110 0503 2A02     		.2byte	0x22a
 4111 0505 82000000 		.4byte	0x82
 4112 0509 1C       		.byte	0x1c
 4113 050a 0E       		.uleb128 0xe
 4114 050b 54050000 		.4byte	.LASF68
 4115 050f 06       		.byte	0x6
 4116 0510 2F02     		.2byte	0x22f
 4117 0512 76000000 		.4byte	0x76
 4118 0516 1E       		.byte	0x1e
 4119 0517 0E       		.uleb128 0xe
 4120 0518 FD0F0000 		.4byte	.LASF69
 4121 051c 06       		.byte	0x6
 4122 051d 3402     		.2byte	0x234
 4123 051f 76000000 		.4byte	0x76
 4124 0523 1F       		.byte	0x1f
 4125 0524 0E       		.uleb128 0xe
 4126 0525 C9090000 		.4byte	.LASF70
 4127 0529 06       		.byte	0x6
 4128 052a 3902     		.2byte	0x239
 4129 052c 6D030000 		.4byte	0x36d
 4130 0530 20       		.byte	0x20
 4131 0531 0E       		.uleb128 0xe
 4132 0532 DA030000 		.4byte	.LASF71
 4133 0536 06       		.byte	0x6
 4134 0537 3E02     		.2byte	0x23e
 4135 0539 7F040000 		.4byte	0x47f
 4136 053d B2       		.byte	0xb2
 4137 053e 12       		.uleb128 0x12
 4138 053f 8E010000 		.4byte	.LASF72
 4139 0543 06       		.byte	0x6
 4140 0544 4302     		.2byte	0x243
 4141 0546 76000000 		.4byte	0x76
 4142 054a 3E01     		.2byte	0x13e
 4143 054c 12       		.uleb128 0x12
 4144 054d 61040000 		.4byte	.LASF73
 4145 0551 06       		.byte	0x6
 4146 0552 4802     		.2byte	0x248
ARM GAS  C:\Users\MM1005~1\AppData\Local\Temp\ccukbKgl.s 			page 103


 4147 0554 76000000 		.4byte	0x76
 4148 0558 3F01     		.2byte	0x13f
 4149 055a 12       		.uleb128 0x12
 4150 055b 870B0000 		.4byte	.LASF74
 4151 055f 06       		.byte	0x6
 4152 0560 4D02     		.2byte	0x24d
 4153 0562 82000000 		.4byte	0x82
 4154 0566 4001     		.2byte	0x140
 4155 0568 12       		.uleb128 0x12
 4156 0569 090A0000 		.4byte	.LASF75
 4157 056d 06       		.byte	0x6
 4158 056e 5202     		.2byte	0x252
 4159 0570 20020000 		.4byte	0x220
 4160 0574 4201     		.2byte	0x142
 4161 0576 00       		.byte	0
 4162 0577 0C       		.uleb128 0xc
 4163 0578 8E000000 		.4byte	0x8e
 4164 057c 87050000 		.4byte	0x587
 4165 0580 0D       		.uleb128 0xd
 4166 0581 CC000000 		.4byte	0xcc
 4167 0585 00       		.byte	0
 4168 0586 00       		.byte	0
 4169 0587 0C       		.uleb128 0xc
 4170 0588 76000000 		.4byte	0x76
 4171 058c 97050000 		.4byte	0x597
 4172 0590 0D       		.uleb128 0xd
 4173 0591 CC000000 		.4byte	0xcc
 4174 0595 07       		.byte	0x7
 4175 0596 00       		.byte	0
 4176 0597 05       		.uleb128 0x5
 4177 0598 6F0C0000 		.4byte	.LASF76
 4178 059c 06       		.byte	0x6
 4179 059d 5302     		.2byte	0x253
 4180 059f 8B040000 		.4byte	0x48b
 4181 05a3 0F       		.uleb128 0xf
 4182 05a4 2C       		.byte	0x2c
 4183 05a5 06       		.byte	0x6
 4184 05a6 B202     		.2byte	0x2b2
 4185 05a8 70060000 		.4byte	0x670
 4186 05ac 0E       		.uleb128 0xe
 4187 05ad 6D110000 		.4byte	.LASF77
 4188 05b1 06       		.byte	0x6
 4189 05b2 BB02     		.2byte	0x2bb
 4190 05b4 70060000 		.4byte	0x670
 4191 05b8 00       		.byte	0
 4192 05b9 0E       		.uleb128 0xe
 4193 05ba 3C100000 		.4byte	.LASF78
 4194 05be 06       		.byte	0x6
 4195 05bf C102     		.2byte	0x2c1
 4196 05c1 D3000000 		.4byte	0xd3
 4197 05c5 04       		.byte	0x4
 4198 05c6 0E       		.uleb128 0xe
 4199 05c7 A30B0000 		.4byte	.LASF79
 4200 05cb 06       		.byte	0x6
 4201 05cc C702     		.2byte	0x2c7
 4202 05ce 77060000 		.4byte	0x677
 4203 05d2 08       		.byte	0x8
ARM GAS  C:\Users\MM1005~1\AppData\Local\Temp\ccukbKgl.s 			page 104


 4204 05d3 0E       		.uleb128 0xe
 4205 05d4 D00A0000 		.4byte	.LASF80
 4206 05d8 06       		.byte	0x6
 4207 05d9 CC02     		.2byte	0x2cc
 4208 05db D3000000 		.4byte	0xd3
 4209 05df 0C       		.byte	0xc
 4210 05e0 0E       		.uleb128 0xe
 4211 05e1 BF0E0000 		.4byte	.LASF81
 4212 05e5 06       		.byte	0x6
 4213 05e6 D302     		.2byte	0x2d3
 4214 05e8 E6000000 		.4byte	0xe6
 4215 05ec 10       		.byte	0x10
 4216 05ed 0E       		.uleb128 0xe
 4217 05ee D90F0000 		.4byte	.LASF82
 4218 05f2 06       		.byte	0x6
 4219 05f3 D802     		.2byte	0x2d8
 4220 05f5 82000000 		.4byte	0x82
 4221 05f9 14       		.byte	0x14
 4222 05fa 0E       		.uleb128 0xe
 4223 05fb 8C070000 		.4byte	.LASF83
 4224 05ff 06       		.byte	0x6
 4225 0600 DF02     		.2byte	0x2df
 4226 0602 82000000 		.4byte	0x82
 4227 0606 16       		.byte	0x16
 4228 0607 0E       		.uleb128 0xe
 4229 0608 91040000 		.4byte	.LASF84
 4230 060c 06       		.byte	0x6
 4231 060d EA02     		.2byte	0x2ea
 4232 060f 76000000 		.4byte	0x76
 4233 0613 18       		.byte	0x18
 4234 0614 0E       		.uleb128 0xe
 4235 0615 1B090000 		.4byte	.LASF85
 4236 0619 06       		.byte	0x6
 4237 061a EF02     		.2byte	0x2ef
 4238 061c 76000000 		.4byte	0x76
 4239 0620 19       		.byte	0x19
 4240 0621 0E       		.uleb128 0xe
 4241 0622 4B090000 		.4byte	.LASF86
 4242 0626 06       		.byte	0x6
 4243 0627 F702     		.2byte	0x2f7
 4244 0629 76000000 		.4byte	0x76
 4245 062d 1A       		.byte	0x1a
 4246 062e 0E       		.uleb128 0xe
 4247 062f 81100000 		.4byte	.LASF87
 4248 0633 06       		.byte	0x6
 4249 0634 FE02     		.2byte	0x2fe
 4250 0636 76000000 		.4byte	0x76
 4251 063a 1B       		.byte	0x1b
 4252 063b 0E       		.uleb128 0xe
 4253 063c 380C0000 		.4byte	.LASF88
 4254 0640 06       		.byte	0x6
 4255 0641 0403     		.2byte	0x304
 4256 0643 82000000 		.4byte	0x82
 4257 0647 1C       		.byte	0x1c
 4258 0648 0E       		.uleb128 0xe
 4259 0649 F50E0000 		.4byte	.LASF89
 4260 064d 06       		.byte	0x6
ARM GAS  C:\Users\MM1005~1\AppData\Local\Temp\ccukbKgl.s 			page 105


 4261 064e 0D03     		.2byte	0x30d
 4262 0650 8E000000 		.4byte	0x8e
 4263 0654 20       		.byte	0x20
 4264 0655 0E       		.uleb128 0xe
 4265 0656 82040000 		.4byte	.LASF90
 4266 065a 06       		.byte	0x6
 4267 065b 1503     		.2byte	0x315
 4268 065d 7D060000 		.4byte	0x67d
 4269 0661 24       		.byte	0x24
 4270 0662 0E       		.uleb128 0xe
 4271 0663 4C0F0000 		.4byte	.LASF91
 4272 0667 06       		.byte	0x6
 4273 0668 1A03     		.2byte	0x31a
 4274 066a D3000000 		.4byte	0xd3
 4275 066e 28       		.byte	0x28
 4276 066f 00       		.byte	0
 4277 0670 06       		.uleb128 0x6
 4278 0671 04       		.byte	0x4
 4279 0672 76060000 		.4byte	0x676
 4280 0676 13       		.uleb128 0x13
 4281 0677 06       		.uleb128 0x6
 4282 0678 04       		.byte	0x4
 4283 0679 E1030000 		.4byte	0x3e1
 4284 067d 06       		.uleb128 0x6
 4285 067e 04       		.byte	0x4
 4286 067f 4F010000 		.4byte	0x14f
 4287 0683 05       		.uleb128 0x5
 4288 0684 06070000 		.4byte	.LASF92
 4289 0688 06       		.byte	0x6
 4290 0689 1B03     		.2byte	0x31b
 4291 068b A3050000 		.4byte	0x5a3
 4292 068f 11       		.uleb128 0x11
 4293 0690 6001     		.2byte	0x160
 4294 0692 06       		.byte	0x6
 4295 0693 2103     		.2byte	0x321
 4296 0695 A7060000 		.4byte	0x6a7
 4297 0699 0E       		.uleb128 0xe
 4298 069a 75120000 		.4byte	.LASF93
 4299 069e 06       		.byte	0x6
 4300 069f 2603     		.2byte	0x326
 4301 06a1 A7060000 		.4byte	0x6a7
 4302 06a5 00       		.byte	0
 4303 06a6 00       		.byte	0
 4304 06a7 0C       		.uleb128 0xc
 4305 06a8 83060000 		.4byte	0x683
 4306 06ac B7060000 		.4byte	0x6b7
 4307 06b0 0D       		.uleb128 0xd
 4308 06b1 CC000000 		.4byte	0xcc
 4309 06b5 07       		.byte	0x7
 4310 06b6 00       		.byte	0
 4311 06b7 05       		.uleb128 0x5
 4312 06b8 DE090000 		.4byte	.LASF94
 4313 06bc 06       		.byte	0x6
 4314 06bd 2703     		.2byte	0x327
 4315 06bf 8F060000 		.4byte	0x68f
 4316 06c3 14       		.uleb128 0x14
 4317 06c4 450A0000 		.4byte	.LASF99
ARM GAS  C:\Users\MM1005~1\AppData\Local\Temp\ccukbKgl.s 			page 106


 4318 06c8 01       		.byte	0x1
 4319 06c9 07       		.byte	0x7
 4320 06ca 2E       		.byte	0x2e
 4321 06cb E5060000 		.4byte	0x6e5
 4322 06cf 15       		.uleb128 0x15
 4323 06d0 14120000 		.4byte	.LASF95
 4324 06d4 CC00     		.sleb128 76
 4325 06d6 15       		.uleb128 0x15
 4326 06d7 E1100000 		.4byte	.LASF96
 4327 06db D200     		.sleb128 82
 4328 06dd 15       		.uleb128 0x15
 4329 06de 680A0000 		.4byte	.LASF97
 4330 06e2 D300     		.sleb128 83
 4331 06e4 00       		.byte	0
 4332 06e5 04       		.uleb128 0x4
 4333 06e6 B5040000 		.4byte	.LASF98
 4334 06ea 07       		.byte	0x7
 4335 06eb 33       		.byte	0x33
 4336 06ec C3060000 		.4byte	0x6c3
 4337 06f0 14       		.uleb128 0x14
 4338 06f1 E00A0000 		.4byte	.LASF100
 4339 06f5 01       		.byte	0x1
 4340 06f6 08       		.byte	0x8
 4341 06f7 2C       		.byte	0x2c
 4342 06f8 21070000 		.4byte	0x721
 4343 06fc 15       		.uleb128 0x15
 4344 06fd 500B0000 		.4byte	.LASF101
 4345 0701 12       		.sleb128 18
 4346 0702 15       		.uleb128 0x15
 4347 0703 C6040000 		.4byte	.LASF102
 4348 0707 13       		.sleb128 19
 4349 0708 15       		.uleb128 0x15
 4350 0709 9A100000 		.4byte	.LASF103
 4351 070d 14       		.sleb128 20
 4352 070e 15       		.uleb128 0x15
 4353 070f 07050000 		.4byte	.LASF104
 4354 0713 15       		.sleb128 21
 4355 0714 15       		.uleb128 0x15
 4356 0715 2C010000 		.4byte	.LASF105
 4357 0719 16       		.sleb128 22
 4358 071a 15       		.uleb128 0x15
 4359 071b D8040000 		.4byte	.LASF106
 4360 071f 17       		.sleb128 23
 4361 0720 00       		.byte	0
 4362 0721 14       		.uleb128 0x14
 4363 0722 13020000 		.4byte	.LASF107
 4364 0726 01       		.byte	0x1
 4365 0727 09       		.byte	0x9
 4366 0728 16       		.byte	0x16
 4367 0729 88070000 		.4byte	0x788
 4368 072d 15       		.uleb128 0x15
 4369 072e 350D0000 		.4byte	.LASF108
 4370 0732 00       		.sleb128 0
 4371 0733 15       		.uleb128 0x15
 4372 0734 4D020000 		.4byte	.LASF109
 4373 0738 01       		.sleb128 1
 4374 0739 15       		.uleb128 0x15
ARM GAS  C:\Users\MM1005~1\AppData\Local\Temp\ccukbKgl.s 			page 107


 4375 073a 8A080000 		.4byte	.LASF110
 4376 073e 02       		.sleb128 2
 4377 073f 15       		.uleb128 0x15
 4378 0740 C70D0000 		.4byte	.LASF111
 4379 0744 03       		.sleb128 3
 4380 0745 15       		.uleb128 0x15
 4381 0746 FF110000 		.4byte	.LASF112
 4382 074a 04       		.sleb128 4
 4383 074b 15       		.uleb128 0x15
 4384 074c D0050000 		.4byte	.LASF113
 4385 0750 05       		.sleb128 5
 4386 0751 15       		.uleb128 0x15
 4387 0752 BB050000 		.4byte	.LASF114
 4388 0756 06       		.sleb128 6
 4389 0757 15       		.uleb128 0x15
 4390 0758 CA060000 		.4byte	.LASF115
 4391 075c 07       		.sleb128 7
 4392 075d 15       		.uleb128 0x15
 4393 075e C5020000 		.4byte	.LASF116
 4394 0762 08       		.sleb128 8
 4395 0763 15       		.uleb128 0x15
 4396 0764 4D0D0000 		.4byte	.LASF117
 4397 0768 09       		.sleb128 9
 4398 0769 15       		.uleb128 0x15
 4399 076a A60A0000 		.4byte	.LASF118
 4400 076e 0A       		.sleb128 10
 4401 076f 15       		.uleb128 0x15
 4402 0770 C30B0000 		.4byte	.LASF119
 4403 0774 0B       		.sleb128 11
 4404 0775 15       		.uleb128 0x15
 4405 0776 5C0E0000 		.4byte	.LASF120
 4406 077a 0C       		.sleb128 12
 4407 077b 15       		.uleb128 0x15
 4408 077c A3090000 		.4byte	.LASF121
 4409 0780 0D       		.sleb128 13
 4410 0781 15       		.uleb128 0x15
 4411 0782 F7000000 		.4byte	.LASF122
 4412 0786 0E       		.sleb128 14
 4413 0787 00       		.byte	0
 4414 0788 04       		.uleb128 0x4
 4415 0789 330F0000 		.4byte	.LASF123
 4416 078d 09       		.byte	0x9
 4417 078e 27       		.byte	0x27
 4418 078f 21070000 		.4byte	0x721
 4419 0793 04       		.uleb128 0x4
 4420 0794 8A020000 		.4byte	.LASF124
 4421 0798 09       		.byte	0x9
 4422 0799 29       		.byte	0x29
 4423 079a AF000000 		.4byte	0xaf
 4424 079e 16       		.uleb128 0x16
 4425 079f 2E020000 		.4byte	.LASF187
 4426 07a3 0C       		.byte	0xc
 4427 07a4 09       		.byte	0x9
 4428 07a5 2A       		.byte	0x2a
 4429 07a6 E6070000 		.4byte	0x7e6
 4430 07aa 17       		.uleb128 0x17
 4431 07ab 696400   		.ascii	"id\000"
ARM GAS  C:\Users\MM1005~1\AppData\Local\Temp\ccukbKgl.s 			page 108


 4432 07ae 09       		.byte	0x9
 4433 07af 2C       		.byte	0x2c
 4434 07b0 88070000 		.4byte	0x788
 4435 07b4 00       		.byte	0
 4436 07b5 0B       		.uleb128 0xb
 4437 07b6 E2030000 		.4byte	.LASF125
 4438 07ba 09       		.byte	0x9
 4439 07bb 2D       		.byte	0x2d
 4440 07bc 76000000 		.4byte	0x76
 4441 07c0 01       		.byte	0x1
 4442 07c1 0B       		.uleb128 0xb
 4443 07c2 160B0000 		.4byte	.LASF126
 4444 07c6 09       		.byte	0x9
 4445 07c7 2E       		.byte	0x2e
 4446 07c8 76000000 		.4byte	0x76
 4447 07cc 02       		.byte	0x2
 4448 07cd 0B       		.uleb128 0xb
 4449 07ce C70A0000 		.4byte	.LASF127
 4450 07d2 09       		.byte	0x9
 4451 07d3 2F       		.byte	0x2f
 4452 07d4 93070000 		.4byte	0x793
 4453 07d8 04       		.byte	0x4
 4454 07d9 0B       		.uleb128 0xb
 4455 07da 67090000 		.4byte	.LASF128
 4456 07de 09       		.byte	0x9
 4457 07df 30       		.byte	0x30
 4458 07e0 DB000000 		.4byte	0xdb
 4459 07e4 08       		.byte	0x8
 4460 07e5 00       		.byte	0
 4461 07e6 04       		.uleb128 0x4
 4462 07e7 04010000 		.4byte	.LASF129
 4463 07eb 09       		.byte	0x9
 4464 07ec 31       		.byte	0x31
 4465 07ed 9E070000 		.4byte	0x79e
 4466 07f1 14       		.uleb128 0x14
 4467 07f2 060D0000 		.4byte	.LASF130
 4468 07f6 01       		.byte	0x1
 4469 07f7 0A       		.byte	0xa
 4470 07f8 16       		.byte	0x16
 4471 07f9 22080000 		.4byte	0x822
 4472 07fd 15       		.uleb128 0x15
 4473 07fe 1E0B0000 		.4byte	.LASF131
 4474 0802 00       		.sleb128 0
 4475 0803 15       		.uleb128 0x15
 4476 0804 44010000 		.4byte	.LASF132
 4477 0808 01       		.sleb128 1
 4478 0809 15       		.uleb128 0x15
 4479 080a DE080000 		.4byte	.LASF133
 4480 080e 02       		.sleb128 2
 4481 080f 15       		.uleb128 0x15
 4482 0810 CB000000 		.4byte	.LASF134
 4483 0814 03       		.sleb128 3
 4484 0815 15       		.uleb128 0x15
 4485 0816 48050000 		.4byte	.LASF135
 4486 081a 04       		.sleb128 4
 4487 081b 15       		.uleb128 0x15
 4488 081c 790B0000 		.4byte	.LASF136
ARM GAS  C:\Users\MM1005~1\AppData\Local\Temp\ccukbKgl.s 			page 109


 4489 0820 05       		.sleb128 5
 4490 0821 00       		.byte	0
 4491 0822 04       		.uleb128 0x4
 4492 0823 530C0000 		.4byte	.LASF137
 4493 0827 0A       		.byte	0xa
 4494 0828 1E       		.byte	0x1e
 4495 0829 F1070000 		.4byte	0x7f1
 4496 082d 14       		.uleb128 0x14
 4497 082e DE020000 		.4byte	.LASF138
 4498 0832 01       		.byte	0x1
 4499 0833 0A       		.byte	0xa
 4500 0834 20       		.byte	0x20
 4501 0835 76080000 		.4byte	0x876
 4502 0839 15       		.uleb128 0x15
 4503 083a 830C0000 		.4byte	.LASF139
 4504 083e 00       		.sleb128 0
 4505 083f 15       		.uleb128 0x15
 4506 0840 D4010000 		.4byte	.LASF140
 4507 0844 01       		.sleb128 1
 4508 0845 15       		.uleb128 0x15
 4509 0846 7D020000 		.4byte	.LASF141
 4510 084a 02       		.sleb128 2
 4511 084b 15       		.uleb128 0x15
 4512 084c 9D060000 		.4byte	.LASF142
 4513 0850 03       		.sleb128 3
 4514 0851 15       		.uleb128 0x15
 4515 0852 BE0D0000 		.4byte	.LASF143
 4516 0856 04       		.sleb128 4
 4517 0857 15       		.uleb128 0x15
 4518 0858 98090000 		.4byte	.LASF144
 4519 085c 05       		.sleb128 5
 4520 085d 15       		.uleb128 0x15
 4521 085e 98070000 		.4byte	.LASF145
 4522 0862 06       		.sleb128 6
 4523 0863 15       		.uleb128 0x15
 4524 0864 64080000 		.4byte	.LASF146
 4525 0868 07       		.sleb128 7
 4526 0869 15       		.uleb128 0x15
 4527 086a DD0D0000 		.4byte	.LASF147
 4528 086e 08       		.sleb128 8
 4529 086f 15       		.uleb128 0x15
 4530 0870 64030000 		.4byte	.LASF148
 4531 0874 09       		.sleb128 9
 4532 0875 00       		.byte	0
 4533 0876 04       		.uleb128 0x4
 4534 0877 18040000 		.4byte	.LASF149
 4535 087b 0A       		.byte	0xa
 4536 087c 2C       		.byte	0x2c
 4537 087d 2D080000 		.4byte	0x82d
 4538 0881 14       		.uleb128 0x14
 4539 0882 8B060000 		.4byte	.LASF150
 4540 0886 01       		.byte	0x1
 4541 0887 0A       		.byte	0xa
 4542 0888 2E       		.byte	0x2e
 4543 0889 AC080000 		.4byte	0x8ac
 4544 088d 15       		.uleb128 0x15
 4545 088e BC060000 		.4byte	.LASF151
ARM GAS  C:\Users\MM1005~1\AppData\Local\Temp\ccukbKgl.s 			page 110


 4546 0892 00       		.sleb128 0
 4547 0893 15       		.uleb128 0x15
 4548 0894 860D0000 		.4byte	.LASF152
 4549 0898 01       		.sleb128 1
 4550 0899 15       		.uleb128 0x15
 4551 089a 08000000 		.4byte	.LASF153
 4552 089e 02       		.sleb128 2
 4553 089f 15       		.uleb128 0x15
 4554 08a0 C4010000 		.4byte	.LASF154
 4555 08a4 03       		.sleb128 3
 4556 08a5 15       		.uleb128 0x15
 4557 08a6 960D0000 		.4byte	.LASF155
 4558 08aa 04       		.sleb128 4
 4559 08ab 00       		.byte	0
 4560 08ac 04       		.uleb128 0x4
 4561 08ad 5E050000 		.4byte	.LASF156
 4562 08b1 0A       		.byte	0xa
 4563 08b2 35       		.byte	0x35
 4564 08b3 81080000 		.4byte	0x881
 4565 08b7 14       		.uleb128 0x14
 4566 08b8 DE060000 		.4byte	.LASF157
 4567 08bc 01       		.byte	0x1
 4568 08bd 0A       		.byte	0xa
 4569 08be 37       		.byte	0x37
 4570 08bf D6080000 		.4byte	0x8d6
 4571 08c3 15       		.uleb128 0x15
 4572 08c4 A8020000 		.4byte	.LASF158
 4573 08c8 00       		.sleb128 0
 4574 08c9 15       		.uleb128 0x15
 4575 08ca 5C060000 		.4byte	.LASF159
 4576 08ce 01       		.sleb128 1
 4577 08cf 15       		.uleb128 0x15
 4578 08d0 190A0000 		.4byte	.LASF160
 4579 08d4 02       		.sleb128 2
 4580 08d5 00       		.byte	0
 4581 08d6 04       		.uleb128 0x4
 4582 08d7 EC080000 		.4byte	.LASF161
 4583 08db 0A       		.byte	0xa
 4584 08dc 3C       		.byte	0x3c
 4585 08dd B7080000 		.4byte	0x8b7
 4586 08e1 14       		.uleb128 0x14
 4587 08e2 E60F0000 		.4byte	.LASF162
 4588 08e6 01       		.byte	0x1
 4589 08e7 0A       		.byte	0xa
 4590 08e8 3E       		.byte	0x3e
 4591 08e9 00090000 		.4byte	0x900
 4592 08ed 15       		.uleb128 0x15
 4593 08ee 17010000 		.4byte	.LASF163
 4594 08f2 00       		.sleb128 0
 4595 08f3 15       		.uleb128 0x15
 4596 08f4 35030000 		.4byte	.LASF164
 4597 08f8 01       		.sleb128 1
 4598 08f9 15       		.uleb128 0x15
 4599 08fa 27090000 		.4byte	.LASF165
 4600 08fe 02       		.sleb128 2
 4601 08ff 00       		.byte	0
 4602 0900 04       		.uleb128 0x4
ARM GAS  C:\Users\MM1005~1\AppData\Local\Temp\ccukbKgl.s 			page 111


 4603 0901 A1030000 		.4byte	.LASF166
 4604 0905 0A       		.byte	0xa
 4605 0906 43       		.byte	0x43
 4606 0907 E1080000 		.4byte	0x8e1
 4607 090b 14       		.uleb128 0x14
 4608 090c AE0B0000 		.4byte	.LASF167
 4609 0910 01       		.byte	0x1
 4610 0911 0A       		.byte	0xa
 4611 0912 45       		.byte	0x45
 4612 0913 30090000 		.4byte	0x930
 4613 0917 15       		.uleb128 0x15
 4614 0918 05080000 		.4byte	.LASF168
 4615 091c 00       		.sleb128 0
 4616 091d 15       		.uleb128 0x15
 4617 091e 280B0000 		.4byte	.LASF169
 4618 0922 01       		.sleb128 1
 4619 0923 15       		.uleb128 0x15
 4620 0924 52070000 		.4byte	.LASF170
 4621 0928 02       		.sleb128 2
 4622 0929 15       		.uleb128 0x15
 4623 092a 04040000 		.4byte	.LASF171
 4624 092e 03       		.sleb128 3
 4625 092f 00       		.byte	0
 4626 0930 04       		.uleb128 0x4
 4627 0931 24080000 		.4byte	.LASF172
 4628 0935 0A       		.byte	0xa
 4629 0936 4B       		.byte	0x4b
 4630 0937 0B090000 		.4byte	0x90b
 4631 093b 14       		.uleb128 0x14
 4632 093c 71040000 		.4byte	.LASF173
 4633 0940 01       		.byte	0x1
 4634 0941 0A       		.byte	0xa
 4635 0942 4D       		.byte	0x4d
 4636 0943 6C090000 		.4byte	0x96c
 4637 0947 15       		.uleb128 0x15
 4638 0948 F5100000 		.4byte	.LASF174
 4639 094c 00       		.sleb128 0
 4640 094d 15       		.uleb128 0x15
 4641 094e A70D0000 		.4byte	.LASF175
 4642 0952 01       		.sleb128 1
 4643 0953 15       		.uleb128 0x15
 4644 0954 99050000 		.4byte	.LASF176
 4645 0958 02       		.sleb128 2
 4646 0959 15       		.uleb128 0x15
 4647 095a 2C0A0000 		.4byte	.LASF177
 4648 095e 03       		.sleb128 3
 4649 095f 15       		.uleb128 0x15
 4650 0960 680D0000 		.4byte	.LASF178
 4651 0964 04       		.sleb128 4
 4652 0965 15       		.uleb128 0x15
 4653 0966 42070000 		.4byte	.LASF179
 4654 096a 05       		.sleb128 5
 4655 096b 00       		.byte	0
 4656 096c 04       		.uleb128 0x4
 4657 096d 81030000 		.4byte	.LASF180
 4658 0971 0A       		.byte	0xa
 4659 0972 55       		.byte	0x55
ARM GAS  C:\Users\MM1005~1\AppData\Local\Temp\ccukbKgl.s 			page 112


 4660 0973 3B090000 		.4byte	0x93b
 4661 0977 14       		.uleb128 0x14
 4662 0978 9A0C0000 		.4byte	.LASF181
 4663 097c 01       		.byte	0x1
 4664 097d 0A       		.byte	0xa
 4665 097e 57       		.byte	0x57
 4666 097f 9C090000 		.4byte	0x99c
 4667 0983 15       		.uleb128 0x15
 4668 0984 780E0000 		.4byte	.LASF182
 4669 0988 00       		.sleb128 0
 4670 0989 15       		.uleb128 0x15
 4671 098a 4E060000 		.4byte	.LASF183
 4672 098e 01       		.sleb128 1
 4673 098f 15       		.uleb128 0x15
 4674 0990 B2090000 		.4byte	.LASF184
 4675 0994 02       		.sleb128 2
 4676 0995 15       		.uleb128 0x15
 4677 0996 CB070000 		.4byte	.LASF185
 4678 099a 03       		.sleb128 3
 4679 099b 00       		.byte	0
 4680 099c 04       		.uleb128 0x4
 4681 099d 7E090000 		.4byte	.LASF186
 4682 09a1 0A       		.byte	0xa
 4683 09a2 5D       		.byte	0x5d
 4684 09a3 77090000 		.4byte	0x977
 4685 09a7 16       		.uleb128 0x16
 4686 09a8 440C0000 		.4byte	.LASF188
 4687 09ac 0C       		.byte	0xc
 4688 09ad 0A       		.byte	0xa
 4689 09ae 5F       		.byte	0x5f
 4690 09af D7090000 		.4byte	0x9d7
 4691 09b3 17       		.uleb128 0x17
 4692 09b4 696400   		.ascii	"id\000"
 4693 09b7 0A       		.byte	0xa
 4694 09b8 61       		.byte	0x61
 4695 09b9 82000000 		.4byte	0x82
 4696 09bd 00       		.byte	0
 4697 09be 0B       		.uleb128 0xb
 4698 09bf E90D0000 		.4byte	.LASF189
 4699 09c3 0A       		.byte	0xa
 4700 09c4 62       		.byte	0x62
 4701 09c5 DB000000 		.4byte	0xdb
 4702 09c9 04       		.byte	0x4
 4703 09ca 0B       		.uleb128 0xb
 4704 09cb 67090000 		.4byte	.LASF128
 4705 09cf 0A       		.byte	0xa
 4706 09d0 63       		.byte	0x63
 4707 09d1 DB000000 		.4byte	0xdb
 4708 09d5 08       		.byte	0x8
 4709 09d6 00       		.byte	0
 4710 09d7 04       		.uleb128 0x4
 4711 09d8 DC070000 		.4byte	.LASF190
 4712 09dc 0A       		.byte	0xa
 4713 09dd 64       		.byte	0x64
 4714 09de A7090000 		.4byte	0x9a7
 4715 09e2 18       		.uleb128 0x18
 4716 09e3 69070000 		.4byte	.LASF191
ARM GAS  C:\Users\MM1005~1\AppData\Local\Temp\ccukbKgl.s 			page 113


 4717 09e7 01       		.byte	0x1
 4718 09e8 42       		.byte	0x42
 4719 09e9 76080000 		.4byte	0x876
 4720 09ed 00000000 		.4byte	.LFB35
 4721 09f1 38000000 		.4byte	.LFE35-.LFB35
 4722 09f5 01       		.uleb128 0x1
 4723 09f6 9C       		.byte	0x9c
 4724 09f7 3C0A0000 		.4byte	0xa3c
 4725 09fb 19       		.uleb128 0x19
 4726 09fc 00000000 		.4byte	.LASF193
 4727 0a00 01       		.byte	0x1
 4728 0a01 42       		.byte	0x42
 4729 0a02 DB000000 		.4byte	0xdb
 4730 0a06 00000000 		.4byte	.LLST0
 4731 0a0a 1A       		.uleb128 0x1a
 4732 0a0b 6900     		.ascii	"i\000"
 4733 0a0d 01       		.byte	0x1
 4734 0a0e 44       		.byte	0x44
 4735 0a0f 5D000000 		.4byte	0x5d
 4736 0a13 2C000000 		.4byte	.LLST1
 4737 0a17 1B       		.uleb128 0x1b
 4738 0a18 1A000000 		.4byte	.LVL3
 4739 0a1c E7260000 		.4byte	0x26e7
 4740 0a20 1C       		.uleb128 0x1c
 4741 0a21 01       		.uleb128 0x1
 4742 0a22 51       		.byte	0x51
 4743 0a23 10       		.uleb128 0x10
 4744 0a24 75       		.byte	0x75
 4745 0a25 00       		.sleb128 0
 4746 0a26 31       		.byte	0x31
 4747 0a27 24       		.byte	0x24
 4748 0a28 75       		.byte	0x75
 4749 0a29 00       		.sleb128 0
 4750 0a2a 22       		.byte	0x22
 4751 0a2b 32       		.byte	0x32
 4752 0a2c 24       		.byte	0x24
 4753 0a2d 03       		.byte	0x3
 4754 0a2e 3C000000 		.4byte	.LANCHOR0+4
 4755 0a32 22       		.byte	0x22
 4756 0a33 06       		.byte	0x6
 4757 0a34 1C       		.uleb128 0x1c
 4758 0a35 01       		.uleb128 0x1
 4759 0a36 50       		.byte	0x50
 4760 0a37 02       		.uleb128 0x2
 4761 0a38 74       		.byte	0x74
 4762 0a39 00       		.sleb128 0
 4763 0a3a 00       		.byte	0
 4764 0a3b 00       		.byte	0
 4765 0a3c 18       		.uleb128 0x18
 4766 0a3d 15100000 		.4byte	.LASF192
 4767 0a41 01       		.byte	0x1
 4768 0a42 54       		.byte	0x54
 4769 0a43 D6080000 		.4byte	0x8d6
 4770 0a47 00000000 		.4byte	.LFB36
 4771 0a4b 3C000000 		.4byte	.LFE36-.LFB36
 4772 0a4f 01       		.uleb128 0x1
 4773 0a50 9C       		.byte	0x9c
ARM GAS  C:\Users\MM1005~1\AppData\Local\Temp\ccukbKgl.s 			page 114


 4774 0a51 960A0000 		.4byte	0xa96
 4775 0a55 19       		.uleb128 0x19
 4776 0a56 00000000 		.4byte	.LASF193
 4777 0a5a 01       		.byte	0x1
 4778 0a5b 54       		.byte	0x54
 4779 0a5c DB000000 		.4byte	0xdb
 4780 0a60 56000000 		.4byte	.LLST2
 4781 0a64 1A       		.uleb128 0x1a
 4782 0a65 6900     		.ascii	"i\000"
 4783 0a67 01       		.byte	0x1
 4784 0a68 56       		.byte	0x56
 4785 0a69 5D000000 		.4byte	0x5d
 4786 0a6d 82000000 		.4byte	.LLST3
 4787 0a71 1B       		.uleb128 0x1b
 4788 0a72 1A000000 		.4byte	.LVL12
 4789 0a76 E7260000 		.4byte	0x26e7
 4790 0a7a 1C       		.uleb128 0x1c
 4791 0a7b 01       		.uleb128 0x1
 4792 0a7c 51       		.byte	0x51
 4793 0a7d 10       		.uleb128 0x10
 4794 0a7e 75       		.byte	0x75
 4795 0a7f 00       		.sleb128 0
 4796 0a80 31       		.byte	0x31
 4797 0a81 24       		.byte	0x24
 4798 0a82 75       		.byte	0x75
 4799 0a83 00       		.sleb128 0
 4800 0a84 22       		.byte	0x22
 4801 0a85 32       		.byte	0x32
 4802 0a86 24       		.byte	0x24
 4803 0a87 03       		.byte	0x3
 4804 0a88 A8000000 		.4byte	.LANCHOR0+112
 4805 0a8c 22       		.byte	0x22
 4806 0a8d 06       		.byte	0x6
 4807 0a8e 1C       		.uleb128 0x1c
 4808 0a8f 01       		.uleb128 0x1
 4809 0a90 50       		.byte	0x50
 4810 0a91 02       		.uleb128 0x2
 4811 0a92 74       		.byte	0x74
 4812 0a93 00       		.sleb128 0
 4813 0a94 00       		.byte	0
 4814 0a95 00       		.byte	0
 4815 0a96 18       		.uleb128 0x18
 4816 0a97 DA110000 		.4byte	.LASF194
 4817 0a9b 01       		.byte	0x1
 4818 0a9c 66       		.byte	0x66
 4819 0a9d 00090000 		.4byte	0x900
 4820 0aa1 00000000 		.4byte	.LFB37
 4821 0aa5 3C000000 		.4byte	.LFE37-.LFB37
 4822 0aa9 01       		.uleb128 0x1
 4823 0aaa 9C       		.byte	0x9c
 4824 0aab F00A0000 		.4byte	0xaf0
 4825 0aaf 19       		.uleb128 0x19
 4826 0ab0 00000000 		.4byte	.LASF193
 4827 0ab4 01       		.byte	0x1
 4828 0ab5 66       		.byte	0x66
 4829 0ab6 DB000000 		.4byte	0xdb
 4830 0aba AC000000 		.4byte	.LLST4
ARM GAS  C:\Users\MM1005~1\AppData\Local\Temp\ccukbKgl.s 			page 115


 4831 0abe 1A       		.uleb128 0x1a
 4832 0abf 6900     		.ascii	"i\000"
 4833 0ac1 01       		.byte	0x1
 4834 0ac2 68       		.byte	0x68
 4835 0ac3 5D000000 		.4byte	0x5d
 4836 0ac7 D8000000 		.4byte	.LLST5
 4837 0acb 1B       		.uleb128 0x1b
 4838 0acc 1A000000 		.4byte	.LVL21
 4839 0ad0 E7260000 		.4byte	0x26e7
 4840 0ad4 1C       		.uleb128 0x1c
 4841 0ad5 01       		.uleb128 0x1
 4842 0ad6 51       		.byte	0x51
 4843 0ad7 10       		.uleb128 0x10
 4844 0ad8 75       		.byte	0x75
 4845 0ad9 00       		.sleb128 0
 4846 0ada 31       		.byte	0x31
 4847 0adb 24       		.byte	0x24
 4848 0adc 75       		.byte	0x75
 4849 0add 00       		.sleb128 0
 4850 0ade 22       		.byte	0x22
 4851 0adf 32       		.byte	0x32
 4852 0ae0 24       		.byte	0x24
 4853 0ae1 03       		.byte	0x3
 4854 0ae2 C0000000 		.4byte	.LANCHOR1+8
 4855 0ae6 22       		.byte	0x22
 4856 0ae7 06       		.byte	0x6
 4857 0ae8 1C       		.uleb128 0x1c
 4858 0ae9 01       		.uleb128 0x1
 4859 0aea 50       		.byte	0x50
 4860 0aeb 02       		.uleb128 0x2
 4861 0aec 74       		.byte	0x74
 4862 0aed 00       		.sleb128 0
 4863 0aee 00       		.byte	0
 4864 0aef 00       		.byte	0
 4865 0af0 18       		.uleb128 0x18
 4866 0af1 A8000000 		.4byte	.LASF195
 4867 0af5 01       		.byte	0x1
 4868 0af6 78       		.byte	0x78
 4869 0af7 30090000 		.4byte	0x930
 4870 0afb 00000000 		.4byte	.LFB38
 4871 0aff 3C000000 		.4byte	.LFE38-.LFB38
 4872 0b03 01       		.uleb128 0x1
 4873 0b04 9C       		.byte	0x9c
 4874 0b05 4A0B0000 		.4byte	0xb4a
 4875 0b09 19       		.uleb128 0x19
 4876 0b0a 00000000 		.4byte	.LASF193
 4877 0b0e 01       		.byte	0x1
 4878 0b0f 78       		.byte	0x78
 4879 0b10 DB000000 		.4byte	0xdb
 4880 0b14 02010000 		.4byte	.LLST6
 4881 0b18 1A       		.uleb128 0x1a
 4882 0b19 6900     		.ascii	"i\000"
 4883 0b1b 01       		.byte	0x1
 4884 0b1c 7A       		.byte	0x7a
 4885 0b1d 5D000000 		.4byte	0x5d
 4886 0b21 2E010000 		.4byte	.LLST7
 4887 0b25 1B       		.uleb128 0x1b
ARM GAS  C:\Users\MM1005~1\AppData\Local\Temp\ccukbKgl.s 			page 116


 4888 0b26 1A000000 		.4byte	.LVL30
 4889 0b2a E7260000 		.4byte	0x26e7
 4890 0b2e 1C       		.uleb128 0x1c
 4891 0b2f 01       		.uleb128 0x1
 4892 0b30 51       		.byte	0x51
 4893 0b31 10       		.uleb128 0x10
 4894 0b32 75       		.byte	0x75
 4895 0b33 00       		.sleb128 0
 4896 0b34 31       		.byte	0x31
 4897 0b35 24       		.byte	0x24
 4898 0b36 75       		.byte	0x75
 4899 0b37 00       		.sleb128 0
 4900 0b38 22       		.byte	0x22
 4901 0b39 32       		.byte	0x32
 4902 0b3a 24       		.byte	0x24
 4903 0b3b 03       		.byte	0x3
 4904 0b3c D8000000 		.4byte	.LANCHOR1+32
 4905 0b40 22       		.byte	0x22
 4906 0b41 06       		.byte	0x6
 4907 0b42 1C       		.uleb128 0x1c
 4908 0b43 01       		.uleb128 0x1
 4909 0b44 50       		.byte	0x50
 4910 0b45 02       		.uleb128 0x2
 4911 0b46 74       		.byte	0x74
 4912 0b47 00       		.sleb128 0
 4913 0b48 00       		.byte	0
 4914 0b49 00       		.byte	0
 4915 0b4a 18       		.uleb128 0x18
 4916 0b4b 16050000 		.4byte	.LASF196
 4917 0b4f 01       		.byte	0x1
 4918 0b50 8A       		.byte	0x8a
 4919 0b51 AC080000 		.4byte	0x8ac
 4920 0b55 00000000 		.4byte	.LFB39
 4921 0b59 3C000000 		.4byte	.LFE39-.LFB39
 4922 0b5d 01       		.uleb128 0x1
 4923 0b5e 9C       		.byte	0x9c
 4924 0b5f A40B0000 		.4byte	0xba4
 4925 0b63 19       		.uleb128 0x19
 4926 0b64 00000000 		.4byte	.LASF193
 4927 0b68 01       		.byte	0x1
 4928 0b69 8A       		.byte	0x8a
 4929 0b6a DB000000 		.4byte	0xdb
 4930 0b6e 58010000 		.4byte	.LLST8
 4931 0b72 1A       		.uleb128 0x1a
 4932 0b73 6900     		.ascii	"i\000"
 4933 0b75 01       		.byte	0x1
 4934 0b76 8C       		.byte	0x8c
 4935 0b77 5D000000 		.4byte	0x5d
 4936 0b7b 84010000 		.4byte	.LLST9
 4937 0b7f 1B       		.uleb128 0x1b
 4938 0b80 1A000000 		.4byte	.LVL39
 4939 0b84 E7260000 		.4byte	0x26e7
 4940 0b88 1C       		.uleb128 0x1c
 4941 0b89 01       		.uleb128 0x1
 4942 0b8a 51       		.byte	0x51
 4943 0b8b 10       		.uleb128 0x10
 4944 0b8c 75       		.byte	0x75
ARM GAS  C:\Users\MM1005~1\AppData\Local\Temp\ccukbKgl.s 			page 117


 4945 0b8d 00       		.sleb128 0
 4946 0b8e 31       		.byte	0x31
 4947 0b8f 24       		.byte	0x24
 4948 0b90 75       		.byte	0x75
 4949 0b91 00       		.sleb128 0
 4950 0b92 22       		.byte	0x22
 4951 0b93 32       		.byte	0x32
 4952 0b94 24       		.byte	0x24
 4953 0b95 03       		.byte	0x3
 4954 0b96 FC000000 		.4byte	.LANCHOR1+68
 4955 0b9a 22       		.byte	0x22
 4956 0b9b 06       		.byte	0x6
 4957 0b9c 1C       		.uleb128 0x1c
 4958 0b9d 01       		.uleb128 0x1
 4959 0b9e 50       		.byte	0x50
 4960 0b9f 02       		.uleb128 0x2
 4961 0ba0 74       		.byte	0x74
 4962 0ba1 00       		.sleb128 0
 4963 0ba2 00       		.byte	0
 4964 0ba3 00       		.byte	0
 4965 0ba4 18       		.uleb128 0x18
 4966 0ba5 03110000 		.4byte	.LASF197
 4967 0ba9 01       		.byte	0x1
 4968 0baa 9C       		.byte	0x9c
 4969 0bab 88070000 		.4byte	0x788
 4970 0baf 00000000 		.4byte	.LFB40
 4971 0bb3 30000000 		.4byte	.LFE40-.LFB40
 4972 0bb7 01       		.uleb128 0x1
 4973 0bb8 9C       		.byte	0x9c
 4974 0bb9 120C0000 		.4byte	0xc12
 4975 0bbd 19       		.uleb128 0x19
 4976 0bbe 00000000 		.4byte	.LASF193
 4977 0bc2 01       		.byte	0x1
 4978 0bc3 9C       		.byte	0x9c
 4979 0bc4 DB000000 		.4byte	0xdb
 4980 0bc8 AE010000 		.4byte	.LLST10
 4981 0bcc 1A       		.uleb128 0x1a
 4982 0bcd 6900     		.ascii	"i\000"
 4983 0bcf 01       		.byte	0x1
 4984 0bd0 9E       		.byte	0x9e
 4985 0bd1 5D000000 		.4byte	0x5d
 4986 0bd5 DA010000 		.4byte	.LLST11
 4987 0bd9 1D       		.uleb128 0x1d
 4988 0bda EB020000 		.4byte	.LASF198
 4989 0bde 01       		.byte	0x1
 4990 0bdf 9F       		.byte	0x9f
 4991 0be0 E6070000 		.4byte	0x7e6
 4992 0be4 02       		.uleb128 0x2
 4993 0be5 91       		.byte	0x91
 4994 0be6 64       		.sleb128 -28
 4995 0be7 1E       		.uleb128 0x1e
 4996 0be8 12000000 		.4byte	.LVL48
 4997 0bec 01270000 		.4byte	0x2701
 4998 0bf0 010C0000 		.4byte	0xc01
 4999 0bf4 1C       		.uleb128 0x1c
 5000 0bf5 01       		.uleb128 0x1
 5001 0bf6 51       		.byte	0x51
ARM GAS  C:\Users\MM1005~1\AppData\Local\Temp\ccukbKgl.s 			page 118


 5002 0bf7 02       		.uleb128 0x2
 5003 0bf8 91       		.byte	0x91
 5004 0bf9 64       		.sleb128 -28
 5005 0bfa 1C       		.uleb128 0x1c
 5006 0bfb 01       		.uleb128 0x1
 5007 0bfc 50       		.byte	0x50
 5008 0bfd 02       		.uleb128 0x2
 5009 0bfe 74       		.byte	0x74
 5010 0bff 00       		.sleb128 0
 5011 0c00 00       		.byte	0
 5012 0c01 1B       		.uleb128 0x1b
 5013 0c02 1A000000 		.4byte	.LVL49
 5014 0c06 E7260000 		.4byte	0x26e7
 5015 0c0a 1C       		.uleb128 0x1c
 5016 0c0b 01       		.uleb128 0x1
 5017 0c0c 50       		.byte	0x50
 5018 0c0d 02       		.uleb128 0x2
 5019 0c0e 75       		.byte	0x75
 5020 0c0f 00       		.sleb128 0
 5021 0c10 00       		.byte	0
 5022 0c11 00       		.byte	0
 5023 0c12 18       		.uleb128 0x18
 5024 0c13 BA030000 		.4byte	.LASF199
 5025 0c17 01       		.byte	0x1
 5026 0c18 B0       		.byte	0xb0
 5027 0c19 9C090000 		.4byte	0x99c
 5028 0c1d 00000000 		.4byte	.LFB41
 5029 0c21 3C000000 		.4byte	.LFE41-.LFB41
 5030 0c25 01       		.uleb128 0x1
 5031 0c26 9C       		.byte	0x9c
 5032 0c27 6C0C0000 		.4byte	0xc6c
 5033 0c2b 19       		.uleb128 0x19
 5034 0c2c 00000000 		.4byte	.LASF193
 5035 0c30 01       		.byte	0x1
 5036 0c31 B0       		.byte	0xb0
 5037 0c32 DB000000 		.4byte	0xdb
 5038 0c36 F9010000 		.4byte	.LLST12
 5039 0c3a 1A       		.uleb128 0x1a
 5040 0c3b 6900     		.ascii	"i\000"
 5041 0c3d 01       		.byte	0x1
 5042 0c3e B2       		.byte	0xb2
 5043 0c3f 5D000000 		.4byte	0x5d
 5044 0c43 25020000 		.4byte	.LLST13
 5045 0c47 1B       		.uleb128 0x1b
 5046 0c48 1A000000 		.4byte	.LVL56
 5047 0c4c E7260000 		.4byte	0x26e7
 5048 0c50 1C       		.uleb128 0x1c
 5049 0c51 01       		.uleb128 0x1
 5050 0c52 51       		.byte	0x51
 5051 0c53 10       		.uleb128 0x10
 5052 0c54 75       		.byte	0x75
 5053 0c55 00       		.sleb128 0
 5054 0c56 31       		.byte	0x31
 5055 0c57 24       		.byte	0x24
 5056 0c58 75       		.byte	0x75
 5057 0c59 00       		.sleb128 0
 5058 0c5a 22       		.byte	0x22
ARM GAS  C:\Users\MM1005~1\AppData\Local\Temp\ccukbKgl.s 			page 119


 5059 0c5b 32       		.byte	0x32
 5060 0c5c 24       		.byte	0x24
 5061 0c5d 03       		.byte	0x3
 5062 0c5e 2C010000 		.4byte	.LANCHOR1+116
 5063 0c62 22       		.byte	0x22
 5064 0c63 06       		.byte	0x6
 5065 0c64 1C       		.uleb128 0x1c
 5066 0c65 01       		.uleb128 0x1
 5067 0c66 50       		.byte	0x50
 5068 0c67 02       		.uleb128 0x2
 5069 0c68 74       		.byte	0x74
 5070 0c69 00       		.sleb128 0
 5071 0c6a 00       		.byte	0
 5072 0c6b 00       		.byte	0
 5073 0c6c 18       		.uleb128 0x18
 5074 0c6d 900F0000 		.4byte	.LASF200
 5075 0c71 01       		.byte	0x1
 5076 0c72 C2       		.byte	0xc2
 5077 0c73 6C090000 		.4byte	0x96c
 5078 0c77 00000000 		.4byte	.LFB42
 5079 0c7b 3C000000 		.4byte	.LFE42-.LFB42
 5080 0c7f 01       		.uleb128 0x1
 5081 0c80 9C       		.byte	0x9c
 5082 0c81 C60C0000 		.4byte	0xcc6
 5083 0c85 19       		.uleb128 0x19
 5084 0c86 00000000 		.4byte	.LASF193
 5085 0c8a 01       		.byte	0x1
 5086 0c8b C2       		.byte	0xc2
 5087 0c8c DB000000 		.4byte	0xdb
 5088 0c90 4F020000 		.4byte	.LLST14
 5089 0c94 1A       		.uleb128 0x1a
 5090 0c95 6900     		.ascii	"i\000"
 5091 0c97 01       		.byte	0x1
 5092 0c98 C4       		.byte	0xc4
 5093 0c99 5D000000 		.4byte	0x5d
 5094 0c9d 7B020000 		.4byte	.LLST15
 5095 0ca1 1B       		.uleb128 0x1b
 5096 0ca2 1A000000 		.4byte	.LVL65
 5097 0ca6 E7260000 		.4byte	0x26e7
 5098 0caa 1C       		.uleb128 0x1c
 5099 0cab 01       		.uleb128 0x1
 5100 0cac 51       		.byte	0x51
 5101 0cad 10       		.uleb128 0x10
 5102 0cae 75       		.byte	0x75
 5103 0caf 00       		.sleb128 0
 5104 0cb0 31       		.byte	0x31
 5105 0cb1 24       		.byte	0x24
 5106 0cb2 75       		.byte	0x75
 5107 0cb3 00       		.sleb128 0
 5108 0cb4 22       		.byte	0x22
 5109 0cb5 32       		.byte	0x32
 5110 0cb6 24       		.byte	0x24
 5111 0cb7 03       		.byte	0x3
 5112 0cb8 50010000 		.4byte	.LANCHOR2+24
 5113 0cbc 22       		.byte	0x22
 5114 0cbd 06       		.byte	0x6
 5115 0cbe 1C       		.uleb128 0x1c
ARM GAS  C:\Users\MM1005~1\AppData\Local\Temp\ccukbKgl.s 			page 120


 5116 0cbf 01       		.uleb128 0x1
 5117 0cc0 50       		.byte	0x50
 5118 0cc1 02       		.uleb128 0x2
 5119 0cc2 74       		.byte	0x74
 5120 0cc3 00       		.sleb128 0
 5121 0cc4 00       		.byte	0
 5122 0cc5 00       		.byte	0
 5123 0cc6 1F       		.uleb128 0x1f
 5124 0cc7 46120000 		.4byte	.LASF201
 5125 0ccb 01       		.byte	0x1
 5126 0ccc 3103     		.2byte	0x331
 5127 0cce 00000000 		.4byte	.LFB44
 5128 0cd2 02000000 		.4byte	.LFE44-.LFB44
 5129 0cd6 01       		.uleb128 0x1
 5130 0cd7 9C       		.byte	0x9c
 5131 0cd8 20       		.uleb128 0x20
 5132 0cd9 200C0000 		.4byte	.LASF202
 5133 0cdd 01       		.byte	0x1
 5134 0cde EA03     		.2byte	0x3ea
 5135 0ce0 76000000 		.4byte	0x76
 5136 0ce4 00000000 		.4byte	.LFB52
 5137 0ce8 0C000000 		.4byte	.LFE52-.LFB52
 5138 0cec 01       		.uleb128 0x1
 5139 0ced 9C       		.byte	0x9c
 5140 0cee 21       		.uleb128 0x21
 5141 0cef 72050000 		.4byte	.LASF204
 5142 0cf3 01       		.byte	0x1
 5143 0cf4 DD03     		.2byte	0x3dd
 5144 0cf6 00000000 		.4byte	.LFB51
 5145 0cfa 1C000000 		.4byte	.LFE51-.LFB51
 5146 0cfe 01       		.uleb128 0x1
 5147 0cff 9C       		.byte	0x9c
 5148 0d00 440D0000 		.4byte	0xd44
 5149 0d04 22       		.uleb128 0x22
 5150 0d05 5A080000 		.4byte	.LASF203
 5151 0d09 01       		.byte	0x1
 5152 0d0a DD03     		.2byte	0x3dd
 5153 0d0c DB000000 		.4byte	0xdb
 5154 0d10 A5020000 		.4byte	.LLST16
 5155 0d14 23       		.uleb128 0x23
 5156 0d15 08000000 		.4byte	.LVL72
 5157 0d19 D80C0000 		.4byte	0xcd8
 5158 0d1d 23       		.uleb128 0x23
 5159 0d1e 10000000 		.4byte	.LVL73
 5160 0d22 1D270000 		.4byte	0x271d
 5161 0d26 1E       		.uleb128 0x1e
 5162 0d27 16000000 		.4byte	.LVL74
 5163 0d2b 24270000 		.4byte	0x2724
 5164 0d2f 3A0D0000 		.4byte	0xd3a
 5165 0d33 1C       		.uleb128 0x1c
 5166 0d34 01       		.uleb128 0x1
 5167 0d35 50       		.byte	0x50
 5168 0d36 02       		.uleb128 0x2
 5169 0d37 74       		.byte	0x74
 5170 0d38 00       		.sleb128 0
 5171 0d39 00       		.byte	0
 5172 0d3a 23       		.uleb128 0x23
ARM GAS  C:\Users\MM1005~1\AppData\Local\Temp\ccukbKgl.s 			page 121


 5173 0d3b 1A000000 		.4byte	.LVL75
 5174 0d3f 35270000 		.4byte	0x2735
 5175 0d43 00       		.byte	0
 5176 0d44 21       		.uleb128 0x21
 5177 0d45 F4090000 		.4byte	.LASF205
 5178 0d49 01       		.byte	0x1
 5179 0d4a 3903     		.2byte	0x339
 5180 0d4c 00000000 		.4byte	.LFB45
 5181 0d50 B8000000 		.4byte	.LFE45-.LFB45
 5182 0d54 01       		.uleb128 0x1
 5183 0d55 9C       		.byte	0x9c
 5184 0d56 AF0E0000 		.4byte	0xeaf
 5185 0d5a 22       		.uleb128 0x22
 5186 0d5b 45040000 		.4byte	.LASF206
 5187 0d5f 01       		.byte	0x1
 5188 0d60 3903     		.2byte	0x339
 5189 0d62 22080000 		.4byte	0x822
 5190 0d66 D1020000 		.4byte	.LLST17
 5191 0d6a 22       		.uleb128 0x22
 5192 0d6b D60D0000 		.4byte	.LASF207
 5193 0d6f 01       		.byte	0x1
 5194 0d70 3903     		.2byte	0x339
 5195 0d72 DB000000 		.4byte	0xdb
 5196 0d76 F2020000 		.4byte	.LLST18
 5197 0d7a 22       		.uleb128 0x22
 5198 0d7b 67090000 		.4byte	.LASF128
 5199 0d7f 01       		.byte	0x1
 5200 0d80 3903     		.2byte	0x339
 5201 0d82 DB000000 		.4byte	0xdb
 5202 0d86 1E030000 		.4byte	.LLST19
 5203 0d8a 24       		.uleb128 0x24
 5204 0d8b D90B0000 		.4byte	.LASF208
 5205 0d8f 01       		.byte	0x1
 5206 0d90 3B03     		.2byte	0x33b
 5207 0d92 AF0E0000 		.4byte	0xeaf
 5208 0d96 02       		.uleb128 0x2
 5209 0d97 91       		.byte	0x91
 5210 0d98 54       		.sleb128 -44
 5211 0d99 1E       		.uleb128 0x1e
 5212 0d9a 2E000000 		.4byte	.LVL80
 5213 0d9e 3C270000 		.4byte	0x273c
 5214 0da2 B90D0000 		.4byte	0xdb9
 5215 0da6 1C       		.uleb128 0x1c
 5216 0da7 01       		.uleb128 0x1
 5217 0da8 52       		.byte	0x52
 5218 0da9 03       		.uleb128 0x3
 5219 0daa 0A       		.byte	0xa
 5220 0dab 0002     		.2byte	0x200
 5221 0dad 1C       		.uleb128 0x1c
 5222 0dae 01       		.uleb128 0x1
 5223 0daf 51       		.byte	0x51
 5224 0db0 01       		.uleb128 0x1
 5225 0db1 30       		.byte	0x30
 5226 0db2 1C       		.uleb128 0x1c
 5227 0db3 01       		.uleb128 0x1
 5228 0db4 50       		.byte	0x50
 5229 0db5 02       		.uleb128 0x2
ARM GAS  C:\Users\MM1005~1\AppData\Local\Temp\ccukbKgl.s 			page 122


 5230 0db6 74       		.byte	0x74
 5231 0db7 00       		.sleb128 0
 5232 0db8 00       		.byte	0
 5233 0db9 1E       		.uleb128 0x1e
 5234 0dba 50000000 		.4byte	.LVL81
 5235 0dbe 59270000 		.4byte	0x2759
 5236 0dc2 D90D0000 		.4byte	0xdd9
 5237 0dc6 1C       		.uleb128 0x1c
 5238 0dc7 01       		.uleb128 0x1
 5239 0dc8 51       		.byte	0x51
 5240 0dc9 08       		.uleb128 0x8
 5241 0dca 78       		.byte	0x78
 5242 0dcb 00       		.sleb128 0
 5243 0dcc 32       		.byte	0x32
 5244 0dcd 24       		.byte	0x24
 5245 0dce 77       		.byte	0x77
 5246 0dcf 00       		.sleb128 0
 5247 0dd0 22       		.byte	0x22
 5248 0dd1 06       		.byte	0x6
 5249 0dd2 1C       		.uleb128 0x1c
 5250 0dd3 01       		.uleb128 0x1
 5251 0dd4 50       		.byte	0x50
 5252 0dd5 02       		.uleb128 0x2
 5253 0dd6 74       		.byte	0x74
 5254 0dd7 00       		.sleb128 0
 5255 0dd8 00       		.byte	0
 5256 0dd9 1E       		.uleb128 0x1e
 5257 0dda 56000000 		.4byte	.LVL82
 5258 0dde 73270000 		.4byte	0x2773
 5259 0de2 ED0D0000 		.4byte	0xded
 5260 0de6 1C       		.uleb128 0x1c
 5261 0de7 01       		.uleb128 0x1
 5262 0de8 50       		.byte	0x50
 5263 0de9 02       		.uleb128 0x2
 5264 0dea 74       		.byte	0x74
 5265 0deb 00       		.sleb128 0
 5266 0dec 00       		.byte	0
 5267 0ded 1E       		.uleb128 0x1e
 5268 0dee 60000000 		.4byte	.LVL83
 5269 0df2 8C270000 		.4byte	0x278c
 5270 0df6 090E0000 		.4byte	0xe09
 5271 0dfa 1C       		.uleb128 0x1c
 5272 0dfb 01       		.uleb128 0x1
 5273 0dfc 52       		.byte	0x52
 5274 0dfd 01       		.uleb128 0x1
 5275 0dfe 3E       		.byte	0x3e
 5276 0dff 1C       		.uleb128 0x1c
 5277 0e00 01       		.uleb128 0x1
 5278 0e01 51       		.byte	0x51
 5279 0e02 05       		.uleb128 0x5
 5280 0e03 03       		.byte	0x3
 5281 0e04 1C000000 		.4byte	.LC19
 5282 0e08 00       		.byte	0
 5283 0e09 1E       		.uleb128 0x1e
 5284 0e0a 68000000 		.4byte	.LVL84
 5285 0e0e 59270000 		.4byte	0x2759
 5286 0e12 230E0000 		.4byte	0xe23
ARM GAS  C:\Users\MM1005~1\AppData\Local\Temp\ccukbKgl.s 			page 123


 5287 0e16 1C       		.uleb128 0x1c
 5288 0e17 01       		.uleb128 0x1
 5289 0e18 51       		.byte	0x51
 5290 0e19 02       		.uleb128 0x2
 5291 0e1a 76       		.byte	0x76
 5292 0e1b 00       		.sleb128 0
 5293 0e1c 1C       		.uleb128 0x1c
 5294 0e1d 01       		.uleb128 0x1
 5295 0e1e 50       		.byte	0x50
 5296 0e1f 02       		.uleb128 0x2
 5297 0e20 74       		.byte	0x74
 5298 0e21 00       		.sleb128 0
 5299 0e22 00       		.byte	0
 5300 0e23 1E       		.uleb128 0x1e
 5301 0e24 6E000000 		.4byte	.LVL85
 5302 0e28 73270000 		.4byte	0x2773
 5303 0e2c 370E0000 		.4byte	0xe37
 5304 0e30 1C       		.uleb128 0x1c
 5305 0e31 01       		.uleb128 0x1
 5306 0e32 50       		.byte	0x50
 5307 0e33 02       		.uleb128 0x2
 5308 0e34 74       		.byte	0x74
 5309 0e35 00       		.sleb128 0
 5310 0e36 00       		.byte	0
 5311 0e37 1E       		.uleb128 0x1e
 5312 0e38 78000000 		.4byte	.LVL86
 5313 0e3c 8C270000 		.4byte	0x278c
 5314 0e40 530E0000 		.4byte	0xe53
 5315 0e44 1C       		.uleb128 0x1c
 5316 0e45 01       		.uleb128 0x1
 5317 0e46 52       		.byte	0x52
 5318 0e47 01       		.uleb128 0x1
 5319 0e48 43       		.byte	0x43
 5320 0e49 1C       		.uleb128 0x1c
 5321 0e4a 01       		.uleb128 0x1
 5322 0e4b 51       		.byte	0x51
 5323 0e4c 05       		.uleb128 0x5
 5324 0e4d 03       		.byte	0x3
 5325 0e4e 2C000000 		.4byte	.LC21
 5326 0e52 00       		.byte	0
 5327 0e53 1E       		.uleb128 0x1e
 5328 0e54 80000000 		.4byte	.LVL87
 5329 0e58 59270000 		.4byte	0x2759
 5330 0e5c 6E0E0000 		.4byte	0xe6e
 5331 0e60 1C       		.uleb128 0x1c
 5332 0e61 01       		.uleb128 0x1
 5333 0e62 51       		.byte	0x51
 5334 0e63 03       		.uleb128 0x3
 5335 0e64 91       		.byte	0x91
 5336 0e65 4C       		.sleb128 -52
 5337 0e66 06       		.byte	0x6
 5338 0e67 1C       		.uleb128 0x1c
 5339 0e68 01       		.uleb128 0x1
 5340 0e69 50       		.byte	0x50
 5341 0e6a 02       		.uleb128 0x2
 5342 0e6b 74       		.byte	0x74
 5343 0e6c 00       		.sleb128 0
ARM GAS  C:\Users\MM1005~1\AppData\Local\Temp\ccukbKgl.s 			page 124


 5344 0e6d 00       		.byte	0
 5345 0e6e 1E       		.uleb128 0x1e
 5346 0e6f 86000000 		.4byte	.LVL88
 5347 0e73 73270000 		.4byte	0x2773
 5348 0e77 820E0000 		.4byte	0xe82
 5349 0e7b 1C       		.uleb128 0x1c
 5350 0e7c 01       		.uleb128 0x1
 5351 0e7d 50       		.byte	0x50
 5352 0e7e 02       		.uleb128 0x2
 5353 0e7f 74       		.byte	0x74
 5354 0e80 00       		.sleb128 0
 5355 0e81 00       		.byte	0
 5356 0e82 1E       		.uleb128 0x1e
 5357 0e83 90000000 		.4byte	.LVL89
 5358 0e87 8C270000 		.4byte	0x278c
 5359 0e8b 9E0E0000 		.4byte	0xe9e
 5360 0e8f 1C       		.uleb128 0x1c
 5361 0e90 01       		.uleb128 0x1
 5362 0e91 52       		.byte	0x52
 5363 0e92 01       		.uleb128 0x1
 5364 0e93 33       		.byte	0x33
 5365 0e94 1C       		.uleb128 0x1c
 5366 0e95 01       		.uleb128 0x1
 5367 0e96 51       		.byte	0x51
 5368 0e97 05       		.uleb128 0x5
 5369 0e98 03       		.byte	0x3
 5370 0e99 40000000 		.4byte	.LC23
 5371 0e9d 00       		.byte	0
 5372 0e9e 1B       		.uleb128 0x1b
 5373 0e9f 96000000 		.4byte	.LVL90
 5374 0ea3 EE0C0000 		.4byte	0xcee
 5375 0ea7 1C       		.uleb128 0x1c
 5376 0ea8 01       		.uleb128 0x1
 5377 0ea9 50       		.byte	0x50
 5378 0eaa 02       		.uleb128 0x2
 5379 0eab 74       		.byte	0x74
 5380 0eac 00       		.sleb128 0
 5381 0ead 00       		.byte	0
 5382 0eae 00       		.byte	0
 5383 0eaf 0C       		.uleb128 0xc
 5384 0eb0 DB000000 		.4byte	0xdb
 5385 0eb4 BF0E0000 		.4byte	0xebf
 5386 0eb8 0D       		.uleb128 0xd
 5387 0eb9 CC000000 		.4byte	0xcc
 5388 0ebd 04       		.byte	0x4
 5389 0ebe 00       		.byte	0
 5390 0ebf 21       		.uleb128 0x21
 5391 0ec0 600B0000 		.4byte	.LASF209
 5392 0ec4 01       		.byte	0x1
 5393 0ec5 4D03     		.2byte	0x34d
 5394 0ec7 00000000 		.4byte	.LFB46
 5395 0ecb 80000000 		.4byte	.LFE46-.LFB46
 5396 0ecf 01       		.uleb128 0x1
 5397 0ed0 9C       		.byte	0x9c
 5398 0ed1 D70F0000 		.4byte	0xfd7
 5399 0ed5 22       		.uleb128 0x22
 5400 0ed6 EB0C0000 		.4byte	.LASF210
ARM GAS  C:\Users\MM1005~1\AppData\Local\Temp\ccukbKgl.s 			page 125


 5401 0eda 01       		.byte	0x1
 5402 0edb 4D03     		.2byte	0x34d
 5403 0edd 88070000 		.4byte	0x788
 5404 0ee1 3D030000 		.4byte	.LLST20
 5405 0ee5 22       		.uleb128 0x22
 5406 0ee6 7F0D0000 		.4byte	.LASF211
 5407 0eea 01       		.byte	0x1
 5408 0eeb 4D03     		.2byte	0x34d
 5409 0eed DB000000 		.4byte	0xdb
 5410 0ef1 5E030000 		.4byte	.LLST21
 5411 0ef5 24       		.uleb128 0x24
 5412 0ef6 EB020000 		.4byte	.LASF198
 5413 0efa 01       		.byte	0x1
 5414 0efb 4F03     		.2byte	0x34f
 5415 0efd E6070000 		.4byte	0x7e6
 5416 0f01 02       		.uleb128 0x2
 5417 0f02 91       		.byte	0x91
 5418 0f03 64       		.sleb128 -28
 5419 0f04 1E       		.uleb128 0x1e
 5420 0f05 0C000000 		.4byte	.LVL94
 5421 0f09 01270000 		.4byte	0x2701
 5422 0f0d 180F0000 		.4byte	0xf18
 5423 0f11 1C       		.uleb128 0x1c
 5424 0f12 01       		.uleb128 0x1
 5425 0f13 51       		.byte	0x51
 5426 0f14 02       		.uleb128 0x2
 5427 0f15 91       		.byte	0x91
 5428 0f16 64       		.sleb128 -28
 5429 0f17 00       		.byte	0
 5430 0f18 1E       		.uleb128 0x1e
 5431 0f19 1C000000 		.4byte	.LVL95
 5432 0f1d 3C270000 		.4byte	0x273c
 5433 0f21 380F0000 		.4byte	0xf38
 5434 0f25 1C       		.uleb128 0x1c
 5435 0f26 01       		.uleb128 0x1
 5436 0f27 52       		.byte	0x52
 5437 0f28 03       		.uleb128 0x3
 5438 0f29 0A       		.byte	0xa
 5439 0f2a 0002     		.2byte	0x200
 5440 0f2c 1C       		.uleb128 0x1c
 5441 0f2d 01       		.uleb128 0x1
 5442 0f2e 51       		.byte	0x51
 5443 0f2f 01       		.uleb128 0x1
 5444 0f30 30       		.byte	0x30
 5445 0f31 1C       		.uleb128 0x1c
 5446 0f32 01       		.uleb128 0x1
 5447 0f33 50       		.byte	0x50
 5448 0f34 02       		.uleb128 0x2
 5449 0f35 74       		.byte	0x74
 5450 0f36 00       		.sleb128 0
 5451 0f37 00       		.byte	0
 5452 0f38 1E       		.uleb128 0x1e
 5453 0f39 3E000000 		.4byte	.LVL96
 5454 0f3d 59270000 		.4byte	0x2759
 5455 0f41 4C0F0000 		.4byte	0xf4c
 5456 0f45 1C       		.uleb128 0x1c
 5457 0f46 01       		.uleb128 0x1
ARM GAS  C:\Users\MM1005~1\AppData\Local\Temp\ccukbKgl.s 			page 126


 5458 0f47 50       		.byte	0x50
 5459 0f48 02       		.uleb128 0x2
 5460 0f49 74       		.byte	0x74
 5461 0f4a 00       		.sleb128 0
 5462 0f4b 00       		.byte	0
 5463 0f4c 1E       		.uleb128 0x1e
 5464 0f4d 44000000 		.4byte	.LVL97
 5465 0f51 73270000 		.4byte	0x2773
 5466 0f55 600F0000 		.4byte	0xf60
 5467 0f59 1C       		.uleb128 0x1c
 5468 0f5a 01       		.uleb128 0x1
 5469 0f5b 50       		.byte	0x50
 5470 0f5c 02       		.uleb128 0x2
 5471 0f5d 74       		.byte	0x74
 5472 0f5e 00       		.sleb128 0
 5473 0f5f 00       		.byte	0
 5474 0f60 1E       		.uleb128 0x1e
 5475 0f61 4E000000 		.4byte	.LVL98
 5476 0f65 8C270000 		.4byte	0x278c
 5477 0f69 7C0F0000 		.4byte	0xf7c
 5478 0f6d 1C       		.uleb128 0x1c
 5479 0f6e 01       		.uleb128 0x1
 5480 0f6f 52       		.byte	0x52
 5481 0f70 01       		.uleb128 0x1
 5482 0f71 3E       		.byte	0x3e
 5483 0f72 1C       		.uleb128 0x1c
 5484 0f73 01       		.uleb128 0x1
 5485 0f74 51       		.byte	0x51
 5486 0f75 05       		.uleb128 0x5
 5487 0f76 03       		.byte	0x3
 5488 0f77 64000000 		.4byte	.LC29
 5489 0f7b 00       		.byte	0
 5490 0f7c 1E       		.uleb128 0x1e
 5491 0f7d 56000000 		.4byte	.LVL99
 5492 0f81 59270000 		.4byte	0x2759
 5493 0f85 960F0000 		.4byte	0xf96
 5494 0f89 1C       		.uleb128 0x1c
 5495 0f8a 01       		.uleb128 0x1
 5496 0f8b 51       		.byte	0x51
 5497 0f8c 02       		.uleb128 0x2
 5498 0f8d 75       		.byte	0x75
 5499 0f8e 00       		.sleb128 0
 5500 0f8f 1C       		.uleb128 0x1c
 5501 0f90 01       		.uleb128 0x1
 5502 0f91 50       		.byte	0x50
 5503 0f92 02       		.uleb128 0x2
 5504 0f93 74       		.byte	0x74
 5505 0f94 00       		.sleb128 0
 5506 0f95 00       		.byte	0
 5507 0f96 1E       		.uleb128 0x1e
 5508 0f97 5C000000 		.4byte	.LVL100
 5509 0f9b 73270000 		.4byte	0x2773
 5510 0f9f AA0F0000 		.4byte	0xfaa
 5511 0fa3 1C       		.uleb128 0x1c
 5512 0fa4 01       		.uleb128 0x1
 5513 0fa5 50       		.byte	0x50
 5514 0fa6 02       		.uleb128 0x2
ARM GAS  C:\Users\MM1005~1\AppData\Local\Temp\ccukbKgl.s 			page 127


 5515 0fa7 74       		.byte	0x74
 5516 0fa8 00       		.sleb128 0
 5517 0fa9 00       		.byte	0
 5518 0faa 1E       		.uleb128 0x1e
 5519 0fab 66000000 		.4byte	.LVL101
 5520 0faf 8C270000 		.4byte	0x278c
 5521 0fb3 C60F0000 		.4byte	0xfc6
 5522 0fb7 1C       		.uleb128 0x1c
 5523 0fb8 01       		.uleb128 0x1
 5524 0fb9 52       		.byte	0x52
 5525 0fba 01       		.uleb128 0x1
 5526 0fbb 33       		.byte	0x33
 5527 0fbc 1C       		.uleb128 0x1c
 5528 0fbd 01       		.uleb128 0x1
 5529 0fbe 51       		.byte	0x51
 5530 0fbf 05       		.uleb128 0x5
 5531 0fc0 03       		.byte	0x3
 5532 0fc1 40000000 		.4byte	.LC23
 5533 0fc5 00       		.byte	0
 5534 0fc6 1B       		.uleb128 0x1b
 5535 0fc7 6C000000 		.4byte	.LVL102
 5536 0fcb EE0C0000 		.4byte	0xcee
 5537 0fcf 1C       		.uleb128 0x1c
 5538 0fd0 01       		.uleb128 0x1
 5539 0fd1 50       		.byte	0x50
 5540 0fd2 02       		.uleb128 0x2
 5541 0fd3 74       		.byte	0x74
 5542 0fd4 00       		.sleb128 0
 5543 0fd5 00       		.byte	0
 5544 0fd6 00       		.byte	0
 5545 0fd7 21       		.uleb128 0x21
 5546 0fd8 1F070000 		.4byte	.LASF212
 5547 0fdc 01       		.byte	0x1
 5548 0fdd 6003     		.2byte	0x360
 5549 0fdf 00000000 		.4byte	.LFB47
 5550 0fe3 78010000 		.4byte	.LFE47-.LFB47
 5551 0fe7 01       		.uleb128 0x1
 5552 0fe8 9C       		.byte	0x9c
 5553 0fe9 57120000 		.4byte	0x1257
 5554 0fed 25       		.uleb128 0x25
 5555 0fee 6900     		.ascii	"i\000"
 5556 0ff0 01       		.byte	0x1
 5557 0ff1 6203     		.2byte	0x362
 5558 0ff3 82000000 		.4byte	0x82
 5559 0ff7 8A030000 		.4byte	.LLST22
 5560 0ffb 26       		.uleb128 0x26
 5561 0ffc CE0F0000 		.4byte	.LASF213
 5562 1000 01       		.byte	0x1
 5563 1001 6303     		.2byte	0x363
 5564 1003 82000000 		.4byte	0x82
 5565 1007 B4030000 		.4byte	.LLST23
 5566 100b 1E       		.uleb128 0x1e
 5567 100c 24000000 		.4byte	.LVL106
 5568 1010 3C270000 		.4byte	0x273c
 5569 1014 2B100000 		.4byte	0x102b
 5570 1018 1C       		.uleb128 0x1c
 5571 1019 01       		.uleb128 0x1
ARM GAS  C:\Users\MM1005~1\AppData\Local\Temp\ccukbKgl.s 			page 128


 5572 101a 52       		.byte	0x52
 5573 101b 03       		.uleb128 0x3
 5574 101c 0A       		.byte	0xa
 5575 101d 0002     		.2byte	0x200
 5576 101f 1C       		.uleb128 0x1c
 5577 1020 01       		.uleb128 0x1
 5578 1021 51       		.byte	0x51
 5579 1022 01       		.uleb128 0x1
 5580 1023 30       		.byte	0x30
 5581 1024 1C       		.uleb128 0x1c
 5582 1025 01       		.uleb128 0x1
 5583 1026 50       		.byte	0x50
 5584 1027 02       		.uleb128 0x2
 5585 1028 74       		.byte	0x74
 5586 1029 00       		.sleb128 0
 5587 102a 00       		.byte	0
 5588 102b 23       		.uleb128 0x23
 5589 102c 3E000000 		.4byte	.LVL107
 5590 1030 A9270000 		.4byte	0x27a9
 5591 1034 1E       		.uleb128 0x1e
 5592 1035 46000000 		.4byte	.LVL108
 5593 1039 59270000 		.4byte	0x2759
 5594 103d 48100000 		.4byte	0x1048
 5595 1041 1C       		.uleb128 0x1c
 5596 1042 01       		.uleb128 0x1
 5597 1043 50       		.byte	0x50
 5598 1044 02       		.uleb128 0x2
 5599 1045 74       		.byte	0x74
 5600 1046 00       		.sleb128 0
 5601 1047 00       		.byte	0
 5602 1048 1E       		.uleb128 0x1e
 5603 1049 4C000000 		.4byte	.LVL109
 5604 104d 73270000 		.4byte	0x2773
 5605 1051 5C100000 		.4byte	0x105c
 5606 1055 1C       		.uleb128 0x1c
 5607 1056 01       		.uleb128 0x1
 5608 1057 50       		.byte	0x50
 5609 1058 02       		.uleb128 0x2
 5610 1059 74       		.byte	0x74
 5611 105a 00       		.sleb128 0
 5612 105b 00       		.byte	0
 5613 105c 1E       		.uleb128 0x1e
 5614 105d 56000000 		.4byte	.LVL110
 5615 1061 8C270000 		.4byte	0x278c
 5616 1065 78100000 		.4byte	0x1078
 5617 1069 1C       		.uleb128 0x1c
 5618 106a 01       		.uleb128 0x1
 5619 106b 52       		.byte	0x52
 5620 106c 01       		.uleb128 0x1
 5621 106d 39       		.byte	0x39
 5622 106e 1C       		.uleb128 0x1c
 5623 106f 01       		.uleb128 0x1
 5624 1070 51       		.byte	0x51
 5625 1071 05       		.uleb128 0x5
 5626 1072 03       		.byte	0x3
 5627 1073 90000000 		.4byte	.LC37
 5628 1077 00       		.byte	0
ARM GAS  C:\Users\MM1005~1\AppData\Local\Temp\ccukbKgl.s 			page 129


 5629 1078 23       		.uleb128 0x23
 5630 1079 72000000 		.4byte	.LVL111
 5631 107d A9270000 		.4byte	0x27a9
 5632 1081 1E       		.uleb128 0x1e
 5633 1082 7A000000 		.4byte	.LVL112
 5634 1086 59270000 		.4byte	0x2759
 5635 108a 95100000 		.4byte	0x1095
 5636 108e 1C       		.uleb128 0x1c
 5637 108f 01       		.uleb128 0x1
 5638 1090 50       		.byte	0x50
 5639 1091 02       		.uleb128 0x2
 5640 1092 74       		.byte	0x74
 5641 1093 00       		.sleb128 0
 5642 1094 00       		.byte	0
 5643 1095 1E       		.uleb128 0x1e
 5644 1096 80000000 		.4byte	.LVL113
 5645 109a 73270000 		.4byte	0x2773
 5646 109e A9100000 		.4byte	0x10a9
 5647 10a2 1C       		.uleb128 0x1c
 5648 10a3 01       		.uleb128 0x1
 5649 10a4 50       		.byte	0x50
 5650 10a5 02       		.uleb128 0x2
 5651 10a6 74       		.byte	0x74
 5652 10a7 00       		.sleb128 0
 5653 10a8 00       		.byte	0
 5654 10a9 1E       		.uleb128 0x1e
 5655 10aa 8A000000 		.4byte	.LVL114
 5656 10ae 8C270000 		.4byte	0x278c
 5657 10b2 C5100000 		.4byte	0x10c5
 5658 10b6 1C       		.uleb128 0x1c
 5659 10b7 01       		.uleb128 0x1
 5660 10b8 52       		.byte	0x52
 5661 10b9 01       		.uleb128 0x1
 5662 10ba 3E       		.byte	0x3e
 5663 10bb 1C       		.uleb128 0x1c
 5664 10bc 01       		.uleb128 0x1
 5665 10bd 51       		.byte	0x51
 5666 10be 05       		.uleb128 0x5
 5667 10bf 03       		.byte	0x3
 5668 10c0 9C000000 		.4byte	.LC40
 5669 10c4 00       		.byte	0
 5670 10c5 23       		.uleb128 0x23
 5671 10c6 94000000 		.4byte	.LVL115
 5672 10ca A9270000 		.4byte	0x27a9
 5673 10ce 1E       		.uleb128 0x1e
 5674 10cf 9C000000 		.4byte	.LVL116
 5675 10d3 59270000 		.4byte	0x2759
 5676 10d7 E2100000 		.4byte	0x10e2
 5677 10db 1C       		.uleb128 0x1c
 5678 10dc 01       		.uleb128 0x1
 5679 10dd 50       		.byte	0x50
 5680 10de 02       		.uleb128 0x2
 5681 10df 74       		.byte	0x74
 5682 10e0 00       		.sleb128 0
 5683 10e1 00       		.byte	0
 5684 10e2 1E       		.uleb128 0x1e
 5685 10e3 A2000000 		.4byte	.LVL117
ARM GAS  C:\Users\MM1005~1\AppData\Local\Temp\ccukbKgl.s 			page 130


 5686 10e7 73270000 		.4byte	0x2773
 5687 10eb F6100000 		.4byte	0x10f6
 5688 10ef 1C       		.uleb128 0x1c
 5689 10f0 01       		.uleb128 0x1
 5690 10f1 50       		.byte	0x50
 5691 10f2 02       		.uleb128 0x2
 5692 10f3 74       		.byte	0x74
 5693 10f4 00       		.sleb128 0
 5694 10f5 00       		.byte	0
 5695 10f6 1E       		.uleb128 0x1e
 5696 10f7 AC000000 		.4byte	.LVL118
 5697 10fb 8C270000 		.4byte	0x278c
 5698 10ff 12110000 		.4byte	0x1112
 5699 1103 1C       		.uleb128 0x1c
 5700 1104 01       		.uleb128 0x1
 5701 1105 52       		.byte	0x52
 5702 1106 01       		.uleb128 0x1
 5703 1107 45       		.byte	0x45
 5704 1108 1C       		.uleb128 0x1c
 5705 1109 01       		.uleb128 0x1
 5706 110a 51       		.byte	0x51
 5707 110b 05       		.uleb128 0x5
 5708 110c 03       		.byte	0x3
 5709 110d AC000000 		.4byte	.LC42
 5710 1111 00       		.byte	0
 5711 1112 23       		.uleb128 0x23
 5712 1113 B6000000 		.4byte	.LVL119
 5713 1117 A9270000 		.4byte	0x27a9
 5714 111b 1E       		.uleb128 0x1e
 5715 111c BE000000 		.4byte	.LVL120
 5716 1120 59270000 		.4byte	0x2759
 5717 1124 2F110000 		.4byte	0x112f
 5718 1128 1C       		.uleb128 0x1c
 5719 1129 01       		.uleb128 0x1
 5720 112a 50       		.byte	0x50
 5721 112b 02       		.uleb128 0x2
 5722 112c 74       		.byte	0x74
 5723 112d 00       		.sleb128 0
 5724 112e 00       		.byte	0
 5725 112f 1E       		.uleb128 0x1e
 5726 1130 C4000000 		.4byte	.LVL121
 5727 1134 73270000 		.4byte	0x2773
 5728 1138 43110000 		.4byte	0x1143
 5729 113c 1C       		.uleb128 0x1c
 5730 113d 01       		.uleb128 0x1
 5731 113e 50       		.byte	0x50
 5732 113f 02       		.uleb128 0x2
 5733 1140 74       		.byte	0x74
 5734 1141 00       		.sleb128 0
 5735 1142 00       		.byte	0
 5736 1143 1E       		.uleb128 0x1e
 5737 1144 CE000000 		.4byte	.LVL122
 5738 1148 8C270000 		.4byte	0x278c
 5739 114c 5F110000 		.4byte	0x115f
 5740 1150 1C       		.uleb128 0x1c
 5741 1151 01       		.uleb128 0x1
 5742 1152 52       		.byte	0x52
ARM GAS  C:\Users\MM1005~1\AppData\Local\Temp\ccukbKgl.s 			page 131


 5743 1153 01       		.uleb128 0x1
 5744 1154 3A       		.byte	0x3a
 5745 1155 1C       		.uleb128 0x1c
 5746 1156 01       		.uleb128 0x1
 5747 1157 51       		.byte	0x51
 5748 1158 05       		.uleb128 0x5
 5749 1159 03       		.byte	0x3
 5750 115a C4000000 		.4byte	.LC44
 5751 115e 00       		.byte	0
 5752 115f 23       		.uleb128 0x23
 5753 1160 D8000000 		.4byte	.LVL123
 5754 1164 A9270000 		.4byte	0x27a9
 5755 1168 1E       		.uleb128 0x1e
 5756 1169 E0000000 		.4byte	.LVL124
 5757 116d 59270000 		.4byte	0x2759
 5758 1171 7C110000 		.4byte	0x117c
 5759 1175 1C       		.uleb128 0x1c
 5760 1176 01       		.uleb128 0x1
 5761 1177 50       		.byte	0x50
 5762 1178 02       		.uleb128 0x2
 5763 1179 74       		.byte	0x74
 5764 117a 00       		.sleb128 0
 5765 117b 00       		.byte	0
 5766 117c 1E       		.uleb128 0x1e
 5767 117d E6000000 		.4byte	.LVL125
 5768 1181 73270000 		.4byte	0x2773
 5769 1185 90110000 		.4byte	0x1190
 5770 1189 1C       		.uleb128 0x1c
 5771 118a 01       		.uleb128 0x1
 5772 118b 50       		.byte	0x50
 5773 118c 02       		.uleb128 0x2
 5774 118d 74       		.byte	0x74
 5775 118e 00       		.sleb128 0
 5776 118f 00       		.byte	0
 5777 1190 1E       		.uleb128 0x1e
 5778 1191 F0000000 		.4byte	.LVL126
 5779 1195 8C270000 		.4byte	0x278c
 5780 1199 AC110000 		.4byte	0x11ac
 5781 119d 1C       		.uleb128 0x1c
 5782 119e 01       		.uleb128 0x1
 5783 119f 52       		.byte	0x52
 5784 11a0 01       		.uleb128 0x1
 5785 11a1 44       		.byte	0x44
 5786 11a2 1C       		.uleb128 0x1c
 5787 11a3 01       		.uleb128 0x1
 5788 11a4 51       		.byte	0x51
 5789 11a5 05       		.uleb128 0x5
 5790 11a6 03       		.byte	0x3
 5791 11a7 D0000000 		.4byte	.LC46
 5792 11ab 00       		.byte	0
 5793 11ac 23       		.uleb128 0x23
 5794 11ad FA000000 		.4byte	.LVL127
 5795 11b1 A9270000 		.4byte	0x27a9
 5796 11b5 1E       		.uleb128 0x1e
 5797 11b6 02010000 		.4byte	.LVL128
 5798 11ba 59270000 		.4byte	0x2759
 5799 11be C9110000 		.4byte	0x11c9
ARM GAS  C:\Users\MM1005~1\AppData\Local\Temp\ccukbKgl.s 			page 132


 5800 11c2 1C       		.uleb128 0x1c
 5801 11c3 01       		.uleb128 0x1
 5802 11c4 50       		.byte	0x50
 5803 11c5 02       		.uleb128 0x2
 5804 11c6 74       		.byte	0x74
 5805 11c7 00       		.sleb128 0
 5806 11c8 00       		.byte	0
 5807 11c9 1E       		.uleb128 0x1e
 5808 11ca 08010000 		.4byte	.LVL129
 5809 11ce 73270000 		.4byte	0x2773
 5810 11d2 DD110000 		.4byte	0x11dd
 5811 11d6 1C       		.uleb128 0x1c
 5812 11d7 01       		.uleb128 0x1
 5813 11d8 50       		.byte	0x50
 5814 11d9 02       		.uleb128 0x2
 5815 11da 74       		.byte	0x74
 5816 11db 00       		.sleb128 0
 5817 11dc 00       		.byte	0
 5818 11dd 1E       		.uleb128 0x1e
 5819 11de 12010000 		.4byte	.LVL130
 5820 11e2 8C270000 		.4byte	0x278c
 5821 11e6 F9110000 		.4byte	0x11f9
 5822 11ea 1C       		.uleb128 0x1c
 5823 11eb 01       		.uleb128 0x1
 5824 11ec 52       		.byte	0x52
 5825 11ed 01       		.uleb128 0x1
 5826 11ee 3A       		.byte	0x3a
 5827 11ef 1C       		.uleb128 0x1c
 5828 11f0 01       		.uleb128 0x1
 5829 11f1 51       		.byte	0x51
 5830 11f2 05       		.uleb128 0x5
 5831 11f3 03       		.byte	0x3
 5832 11f4 E4000000 		.4byte	.LC48
 5833 11f8 00       		.byte	0
 5834 11f9 23       		.uleb128 0x23
 5835 11fa 1A010000 		.4byte	.LVL131
 5836 11fe A9270000 		.4byte	0x27a9
 5837 1202 1E       		.uleb128 0x1e
 5838 1203 22010000 		.4byte	.LVL132
 5839 1207 59270000 		.4byte	0x2759
 5840 120b 16120000 		.4byte	0x1216
 5841 120f 1C       		.uleb128 0x1c
 5842 1210 01       		.uleb128 0x1
 5843 1211 50       		.byte	0x50
 5844 1212 02       		.uleb128 0x2
 5845 1213 74       		.byte	0x74
 5846 1214 00       		.sleb128 0
 5847 1215 00       		.byte	0
 5848 1216 1E       		.uleb128 0x1e
 5849 1217 28010000 		.4byte	.LVL133
 5850 121b 73270000 		.4byte	0x2773
 5851 121f 2A120000 		.4byte	0x122a
 5852 1223 1C       		.uleb128 0x1c
 5853 1224 01       		.uleb128 0x1
 5854 1225 50       		.byte	0x50
 5855 1226 02       		.uleb128 0x2
 5856 1227 74       		.byte	0x74
ARM GAS  C:\Users\MM1005~1\AppData\Local\Temp\ccukbKgl.s 			page 133


 5857 1228 00       		.sleb128 0
 5858 1229 00       		.byte	0
 5859 122a 1E       		.uleb128 0x1e
 5860 122b 32010000 		.4byte	.LVL134
 5861 122f 8C270000 		.4byte	0x278c
 5862 1233 46120000 		.4byte	0x1246
 5863 1237 1C       		.uleb128 0x1c
 5864 1238 01       		.uleb128 0x1
 5865 1239 52       		.byte	0x52
 5866 123a 01       		.uleb128 0x1
 5867 123b 33       		.byte	0x33
 5868 123c 1C       		.uleb128 0x1c
 5869 123d 01       		.uleb128 0x1
 5870 123e 51       		.byte	0x51
 5871 123f 05       		.uleb128 0x5
 5872 1240 03       		.byte	0x3
 5873 1241 40000000 		.4byte	.LC23
 5874 1245 00       		.byte	0
 5875 1246 1B       		.uleb128 0x1b
 5876 1247 38010000 		.4byte	.LVL135
 5877 124b EE0C0000 		.4byte	0xcee
 5878 124f 1C       		.uleb128 0x1c
 5879 1250 01       		.uleb128 0x1
 5880 1251 50       		.byte	0x50
 5881 1252 02       		.uleb128 0x2
 5882 1253 74       		.byte	0x74
 5883 1254 00       		.sleb128 0
 5884 1255 00       		.byte	0
 5885 1256 00       		.byte	0
 5886 1257 21       		.uleb128 0x21
 5887 1258 E3010000 		.4byte	.LASF214
 5888 125c 01       		.byte	0x1
 5889 125d B803     		.2byte	0x3b8
 5890 125f 00000000 		.4byte	.LFB49
 5891 1263 A8000000 		.4byte	.LFE49-.LFB49
 5892 1267 01       		.uleb128 0x1
 5893 1268 9C       		.byte	0x9c
 5894 1269 D9130000 		.4byte	0x13d9
 5895 126d 22       		.uleb128 0x22
 5896 126e B0060000 		.4byte	.LASF215
 5897 1272 01       		.byte	0x1
 5898 1273 B803     		.2byte	0x3b8
 5899 1275 76000000 		.4byte	0x76
 5900 1279 C7030000 		.4byte	.LLST24
 5901 127d 22       		.uleb128 0x22
 5902 127e D2090000 		.4byte	.LASF216
 5903 1282 01       		.byte	0x1
 5904 1283 B803     		.2byte	0x3b8
 5905 1285 D5000000 		.4byte	0xd5
 5906 1289 E8030000 		.4byte	.LLST25
 5907 128d 22       		.uleb128 0x22
 5908 128e 140E0000 		.4byte	.LASF217
 5909 1292 01       		.byte	0x1
 5910 1293 B803     		.2byte	0x3b8
 5911 1295 76000000 		.4byte	0x76
 5912 1299 14040000 		.4byte	.LLST26
 5913 129d 1E       		.uleb128 0x1e
ARM GAS  C:\Users\MM1005~1\AppData\Local\Temp\ccukbKgl.s 			page 134


 5914 129e 18000000 		.4byte	.LVL144
 5915 12a2 3C270000 		.4byte	0x273c
 5916 12a6 BD120000 		.4byte	0x12bd
 5917 12aa 1C       		.uleb128 0x1c
 5918 12ab 01       		.uleb128 0x1
 5919 12ac 52       		.byte	0x52
 5920 12ad 03       		.uleb128 0x3
 5921 12ae 0A       		.byte	0xa
 5922 12af 0002     		.2byte	0x200
 5923 12b1 1C       		.uleb128 0x1c
 5924 12b2 01       		.uleb128 0x1
 5925 12b3 51       		.byte	0x51
 5926 12b4 01       		.uleb128 0x1
 5927 12b5 30       		.byte	0x30
 5928 12b6 1C       		.uleb128 0x1c
 5929 12b7 01       		.uleb128 0x1
 5930 12b8 50       		.byte	0x50
 5931 12b9 02       		.uleb128 0x2
 5932 12ba 74       		.byte	0x74
 5933 12bb 00       		.sleb128 0
 5934 12bc 00       		.byte	0
 5935 12bd 1E       		.uleb128 0x1e
 5936 12be 1E000000 		.4byte	.LVL145
 5937 12c2 73270000 		.4byte	0x2773
 5938 12c6 D1120000 		.4byte	0x12d1
 5939 12ca 1C       		.uleb128 0x1c
 5940 12cb 01       		.uleb128 0x1
 5941 12cc 50       		.byte	0x50
 5942 12cd 02       		.uleb128 0x2
 5943 12ce 74       		.byte	0x74
 5944 12cf 00       		.sleb128 0
 5945 12d0 00       		.byte	0
 5946 12d1 1E       		.uleb128 0x1e
 5947 12d2 28000000 		.4byte	.LVL146
 5948 12d6 8C270000 		.4byte	0x278c
 5949 12da ED120000 		.4byte	0x12ed
 5950 12de 1C       		.uleb128 0x1c
 5951 12df 01       		.uleb128 0x1
 5952 12e0 52       		.byte	0x52
 5953 12e1 01       		.uleb128 0x1
 5954 12e2 4E       		.byte	0x4e
 5955 12e3 1C       		.uleb128 0x1c
 5956 12e4 01       		.uleb128 0x1
 5957 12e5 51       		.byte	0x51
 5958 12e6 05       		.uleb128 0x5
 5959 12e7 03       		.byte	0x3
 5960 12e8 FC000000 		.4byte	.LC57
 5961 12ec 00       		.byte	0
 5962 12ed 23       		.uleb128 0x23
 5963 12ee 30000000 		.4byte	.LVL147
 5964 12f2 A9270000 		.4byte	0x27a9
 5965 12f6 1E       		.uleb128 0x1e
 5966 12f7 38000000 		.4byte	.LVL148
 5967 12fb 59270000 		.4byte	0x2759
 5968 12ff 0A130000 		.4byte	0x130a
 5969 1303 1C       		.uleb128 0x1c
 5970 1304 01       		.uleb128 0x1
ARM GAS  C:\Users\MM1005~1\AppData\Local\Temp\ccukbKgl.s 			page 135


 5971 1305 50       		.byte	0x50
 5972 1306 02       		.uleb128 0x2
 5973 1307 74       		.byte	0x74
 5974 1308 00       		.sleb128 0
 5975 1309 00       		.byte	0
 5976 130a 1E       		.uleb128 0x1e
 5977 130b 3E000000 		.4byte	.LVL149
 5978 130f 73270000 		.4byte	0x2773
 5979 1313 1E130000 		.4byte	0x131e
 5980 1317 1C       		.uleb128 0x1c
 5981 1318 01       		.uleb128 0x1
 5982 1319 50       		.byte	0x50
 5983 131a 02       		.uleb128 0x2
 5984 131b 74       		.byte	0x74
 5985 131c 00       		.sleb128 0
 5986 131d 00       		.byte	0
 5987 131e 1E       		.uleb128 0x1e
 5988 131f 48000000 		.4byte	.LVL150
 5989 1323 8C270000 		.4byte	0x278c
 5990 1327 3A130000 		.4byte	0x133a
 5991 132b 1C       		.uleb128 0x1c
 5992 132c 01       		.uleb128 0x1
 5993 132d 52       		.byte	0x52
 5994 132e 01       		.uleb128 0x1
 5995 132f 3B       		.byte	0x3b
 5996 1330 1C       		.uleb128 0x1c
 5997 1331 01       		.uleb128 0x1
 5998 1332 51       		.byte	0x51
 5999 1333 05       		.uleb128 0x5
 6000 1334 03       		.byte	0x3
 6001 1335 1C010000 		.4byte	.LC59
 6002 1339 00       		.byte	0
 6003 133a 1E       		.uleb128 0x1e
 6004 133b 50000000 		.4byte	.LVL151
 6005 133f 59270000 		.4byte	0x2759
 6006 1343 54130000 		.4byte	0x1354
 6007 1347 1C       		.uleb128 0x1c
 6008 1348 01       		.uleb128 0x1
 6009 1349 51       		.byte	0x51
 6010 134a 02       		.uleb128 0x2
 6011 134b 75       		.byte	0x75
 6012 134c 00       		.sleb128 0
 6013 134d 1C       		.uleb128 0x1c
 6014 134e 01       		.uleb128 0x1
 6015 134f 50       		.byte	0x50
 6016 1350 02       		.uleb128 0x2
 6017 1351 74       		.byte	0x74
 6018 1352 00       		.sleb128 0
 6019 1353 00       		.byte	0
 6020 1354 1E       		.uleb128 0x1e
 6021 1355 56000000 		.4byte	.LVL152
 6022 1359 73270000 		.4byte	0x2773
 6023 135d 68130000 		.4byte	0x1368
 6024 1361 1C       		.uleb128 0x1c
 6025 1362 01       		.uleb128 0x1
 6026 1363 50       		.byte	0x50
 6027 1364 02       		.uleb128 0x2
ARM GAS  C:\Users\MM1005~1\AppData\Local\Temp\ccukbKgl.s 			page 136


 6028 1365 74       		.byte	0x74
 6029 1366 00       		.sleb128 0
 6030 1367 00       		.byte	0
 6031 1368 1E       		.uleb128 0x1e
 6032 1369 60000000 		.4byte	.LVL153
 6033 136d 8C270000 		.4byte	0x278c
 6034 1371 84130000 		.4byte	0x1384
 6035 1375 1C       		.uleb128 0x1c
 6036 1376 01       		.uleb128 0x1
 6037 1377 52       		.byte	0x52
 6038 1378 01       		.uleb128 0x1
 6039 1379 3D       		.byte	0x3d
 6040 137a 1C       		.uleb128 0x1c
 6041 137b 01       		.uleb128 0x1
 6042 137c 51       		.byte	0x51
 6043 137d 05       		.uleb128 0x5
 6044 137e 03       		.byte	0x3
 6045 137f 28010000 		.4byte	.LC61
 6046 1383 00       		.byte	0
 6047 1384 1E       		.uleb128 0x1e
 6048 1385 74000000 		.4byte	.LVL154
 6049 1389 59270000 		.4byte	0x2759
 6050 138d 98130000 		.4byte	0x1398
 6051 1391 1C       		.uleb128 0x1c
 6052 1392 01       		.uleb128 0x1
 6053 1393 50       		.byte	0x50
 6054 1394 02       		.uleb128 0x2
 6055 1395 74       		.byte	0x74
 6056 1396 00       		.sleb128 0
 6057 1397 00       		.byte	0
 6058 1398 1E       		.uleb128 0x1e
 6059 1399 7A000000 		.4byte	.LVL155
 6060 139d 73270000 		.4byte	0x2773
 6061 13a1 AC130000 		.4byte	0x13ac
 6062 13a5 1C       		.uleb128 0x1c
 6063 13a6 01       		.uleb128 0x1
 6064 13a7 50       		.byte	0x50
 6065 13a8 02       		.uleb128 0x2
 6066 13a9 74       		.byte	0x74
 6067 13aa 00       		.sleb128 0
 6068 13ab 00       		.byte	0
 6069 13ac 1E       		.uleb128 0x1e
 6070 13ad 84000000 		.4byte	.LVL156
 6071 13b1 8C270000 		.4byte	0x278c
 6072 13b5 C8130000 		.4byte	0x13c8
 6073 13b9 1C       		.uleb128 0x1c
 6074 13ba 01       		.uleb128 0x1
 6075 13bb 52       		.byte	0x52
 6076 13bc 01       		.uleb128 0x1
 6077 13bd 33       		.byte	0x33
 6078 13be 1C       		.uleb128 0x1c
 6079 13bf 01       		.uleb128 0x1
 6080 13c0 51       		.byte	0x51
 6081 13c1 05       		.uleb128 0x5
 6082 13c2 03       		.byte	0x3
 6083 13c3 40000000 		.4byte	.LC23
 6084 13c7 00       		.byte	0
ARM GAS  C:\Users\MM1005~1\AppData\Local\Temp\ccukbKgl.s 			page 137


 6085 13c8 1B       		.uleb128 0x1b
 6086 13c9 8A000000 		.4byte	.LVL157
 6087 13cd EE0C0000 		.4byte	0xcee
 6088 13d1 1C       		.uleb128 0x1c
 6089 13d2 01       		.uleb128 0x1
 6090 13d3 50       		.byte	0x50
 6091 13d4 02       		.uleb128 0x2
 6092 13d5 74       		.byte	0x74
 6093 13d6 00       		.sleb128 0
 6094 13d7 00       		.byte	0
 6095 13d8 00       		.byte	0
 6096 13d9 21       		.uleb128 0x21
 6097 13da 27040000 		.4byte	.LASF218
 6098 13de 01       		.byte	0x1
 6099 13df CA03     		.2byte	0x3ca
 6100 13e1 00000000 		.4byte	.LFB50
 6101 13e5 D8000000 		.4byte	.LFE50-.LFB50
 6102 13e9 01       		.uleb128 0x1
 6103 13ea 9C       		.byte	0x9c
 6104 13eb 94150000 		.4byte	0x1594
 6105 13ef 22       		.uleb128 0x22
 6106 13f0 070B0000 		.4byte	.LASF219
 6107 13f4 01       		.byte	0x1
 6108 13f5 CA03     		.2byte	0x3ca
 6109 13f7 8E000000 		.4byte	0x8e
 6110 13fb 35040000 		.4byte	.LLST27
 6111 13ff 22       		.uleb128 0x22
 6112 1400 0B090000 		.4byte	.LASF220
 6113 1404 01       		.byte	0x1
 6114 1405 CA03     		.2byte	0x3ca
 6115 1407 8E000000 		.4byte	0x8e
 6116 140b 61040000 		.4byte	.LLST28
 6117 140f 22       		.uleb128 0x22
 6118 1410 870E0000 		.4byte	.LASF221
 6119 1414 01       		.byte	0x1
 6120 1415 CA03     		.2byte	0x3ca
 6121 1417 8E000000 		.4byte	0x8e
 6122 141b 8D040000 		.4byte	.LLST29
 6123 141f 22       		.uleb128 0x22
 6124 1420 FB0C0000 		.4byte	.LASF222
 6125 1424 01       		.byte	0x1
 6126 1425 CA03     		.2byte	0x3ca
 6127 1427 8E000000 		.4byte	0x8e
 6128 142b B8040000 		.4byte	.LLST30
 6129 142f 1E       		.uleb128 0x1e
 6130 1430 1C000000 		.4byte	.LVL163
 6131 1434 3C270000 		.4byte	0x273c
 6132 1438 4F140000 		.4byte	0x144f
 6133 143c 1C       		.uleb128 0x1c
 6134 143d 01       		.uleb128 0x1
 6135 143e 52       		.byte	0x52
 6136 143f 03       		.uleb128 0x3
 6137 1440 0A       		.byte	0xa
 6138 1441 0002     		.2byte	0x200
 6139 1443 1C       		.uleb128 0x1c
 6140 1444 01       		.uleb128 0x1
 6141 1445 51       		.byte	0x51
ARM GAS  C:\Users\MM1005~1\AppData\Local\Temp\ccukbKgl.s 			page 138


 6142 1446 01       		.uleb128 0x1
 6143 1447 30       		.byte	0x30
 6144 1448 1C       		.uleb128 0x1c
 6145 1449 01       		.uleb128 0x1
 6146 144a 50       		.byte	0x50
 6147 144b 02       		.uleb128 0x2
 6148 144c 74       		.byte	0x74
 6149 144d 00       		.sleb128 0
 6150 144e 00       		.byte	0
 6151 144f 23       		.uleb128 0x23
 6152 1450 3E000000 		.4byte	.LVL164
 6153 1454 A9270000 		.4byte	0x27a9
 6154 1458 1E       		.uleb128 0x1e
 6155 1459 46000000 		.4byte	.LVL165
 6156 145d 59270000 		.4byte	0x2759
 6157 1461 6C140000 		.4byte	0x146c
 6158 1465 1C       		.uleb128 0x1c
 6159 1466 01       		.uleb128 0x1
 6160 1467 50       		.byte	0x50
 6161 1468 02       		.uleb128 0x2
 6162 1469 74       		.byte	0x74
 6163 146a 00       		.sleb128 0
 6164 146b 00       		.byte	0
 6165 146c 1E       		.uleb128 0x1e
 6166 146d 4C000000 		.4byte	.LVL166
 6167 1471 73270000 		.4byte	0x2773
 6168 1475 80140000 		.4byte	0x1480
 6169 1479 1C       		.uleb128 0x1c
 6170 147a 01       		.uleb128 0x1
 6171 147b 50       		.byte	0x50
 6172 147c 02       		.uleb128 0x2
 6173 147d 74       		.byte	0x74
 6174 147e 00       		.sleb128 0
 6175 147f 00       		.byte	0
 6176 1480 1E       		.uleb128 0x1e
 6177 1481 56000000 		.4byte	.LVL167
 6178 1485 8C270000 		.4byte	0x278c
 6179 1489 9C140000 		.4byte	0x149c
 6180 148d 1C       		.uleb128 0x1c
 6181 148e 01       		.uleb128 0x1
 6182 148f 52       		.byte	0x52
 6183 1490 01       		.uleb128 0x1
 6184 1491 3F       		.byte	0x3f
 6185 1492 1C       		.uleb128 0x1c
 6186 1493 01       		.uleb128 0x1
 6187 1494 51       		.byte	0x51
 6188 1495 05       		.uleb128 0x5
 6189 1496 03       		.byte	0x3
 6190 1497 60010000 		.4byte	.LC68
 6191 149b 00       		.byte	0
 6192 149c 23       		.uleb128 0x23
 6193 149d 5E000000 		.4byte	.LVL168
 6194 14a1 A9270000 		.4byte	0x27a9
 6195 14a5 1E       		.uleb128 0x1e
 6196 14a6 66000000 		.4byte	.LVL169
 6197 14aa 59270000 		.4byte	0x2759
 6198 14ae B9140000 		.4byte	0x14b9
ARM GAS  C:\Users\MM1005~1\AppData\Local\Temp\ccukbKgl.s 			page 139


 6199 14b2 1C       		.uleb128 0x1c
 6200 14b3 01       		.uleb128 0x1
 6201 14b4 50       		.byte	0x50
 6202 14b5 02       		.uleb128 0x2
 6203 14b6 74       		.byte	0x74
 6204 14b7 00       		.sleb128 0
 6205 14b8 00       		.byte	0
 6206 14b9 1E       		.uleb128 0x1e
 6207 14ba 6C000000 		.4byte	.LVL170
 6208 14be 73270000 		.4byte	0x2773
 6209 14c2 CD140000 		.4byte	0x14cd
 6210 14c6 1C       		.uleb128 0x1c
 6211 14c7 01       		.uleb128 0x1
 6212 14c8 50       		.byte	0x50
 6213 14c9 02       		.uleb128 0x2
 6214 14ca 74       		.byte	0x74
 6215 14cb 00       		.sleb128 0
 6216 14cc 00       		.byte	0
 6217 14cd 1E       		.uleb128 0x1e
 6218 14ce 76000000 		.4byte	.LVL171
 6219 14d2 8C270000 		.4byte	0x278c
 6220 14d6 E9140000 		.4byte	0x14e9
 6221 14da 1C       		.uleb128 0x1c
 6222 14db 01       		.uleb128 0x1
 6223 14dc 52       		.byte	0x52
 6224 14dd 01       		.uleb128 0x1
 6225 14de 3E       		.byte	0x3e
 6226 14df 1C       		.uleb128 0x1c
 6227 14e0 01       		.uleb128 0x1
 6228 14e1 51       		.byte	0x51
 6229 14e2 05       		.uleb128 0x5
 6230 14e3 03       		.byte	0x3
 6231 14e4 70010000 		.4byte	.LC70
 6232 14e8 00       		.byte	0
 6233 14e9 23       		.uleb128 0x23
 6234 14ea 7E000000 		.4byte	.LVL172
 6235 14ee A9270000 		.4byte	0x27a9
 6236 14f2 1E       		.uleb128 0x1e
 6237 14f3 86000000 		.4byte	.LVL173
 6238 14f7 59270000 		.4byte	0x2759
 6239 14fb 06150000 		.4byte	0x1506
 6240 14ff 1C       		.uleb128 0x1c
 6241 1500 01       		.uleb128 0x1
 6242 1501 50       		.byte	0x50
 6243 1502 02       		.uleb128 0x2
 6244 1503 74       		.byte	0x74
 6245 1504 00       		.sleb128 0
 6246 1505 00       		.byte	0
 6247 1506 1E       		.uleb128 0x1e
 6248 1507 8C000000 		.4byte	.LVL174
 6249 150b 73270000 		.4byte	0x2773
 6250 150f 1A150000 		.4byte	0x151a
 6251 1513 1C       		.uleb128 0x1c
 6252 1514 01       		.uleb128 0x1
 6253 1515 50       		.byte	0x50
 6254 1516 02       		.uleb128 0x2
 6255 1517 74       		.byte	0x74
ARM GAS  C:\Users\MM1005~1\AppData\Local\Temp\ccukbKgl.s 			page 140


 6256 1518 00       		.sleb128 0
 6257 1519 00       		.byte	0
 6258 151a 1E       		.uleb128 0x1e
 6259 151b 96000000 		.4byte	.LVL175
 6260 151f 8C270000 		.4byte	0x278c
 6261 1523 36150000 		.4byte	0x1536
 6262 1527 1C       		.uleb128 0x1c
 6263 1528 01       		.uleb128 0x1
 6264 1529 52       		.byte	0x52
 6265 152a 01       		.uleb128 0x1
 6266 152b 3A       		.byte	0x3a
 6267 152c 1C       		.uleb128 0x1c
 6268 152d 01       		.uleb128 0x1
 6269 152e 51       		.byte	0x51
 6270 152f 05       		.uleb128 0x5
 6271 1530 03       		.byte	0x3
 6272 1531 80010000 		.4byte	.LC72
 6273 1535 00       		.byte	0
 6274 1536 23       		.uleb128 0x23
 6275 1537 9E000000 		.4byte	.LVL176
 6276 153b A9270000 		.4byte	0x27a9
 6277 153f 1E       		.uleb128 0x1e
 6278 1540 A6000000 		.4byte	.LVL177
 6279 1544 59270000 		.4byte	0x2759
 6280 1548 53150000 		.4byte	0x1553
 6281 154c 1C       		.uleb128 0x1c
 6282 154d 01       		.uleb128 0x1
 6283 154e 50       		.byte	0x50
 6284 154f 02       		.uleb128 0x2
 6285 1550 74       		.byte	0x74
 6286 1551 00       		.sleb128 0
 6287 1552 00       		.byte	0
 6288 1553 1E       		.uleb128 0x1e
 6289 1554 AC000000 		.4byte	.LVL178
 6290 1558 73270000 		.4byte	0x2773
 6291 155c 67150000 		.4byte	0x1567
 6292 1560 1C       		.uleb128 0x1c
 6293 1561 01       		.uleb128 0x1
 6294 1562 50       		.byte	0x50
 6295 1563 02       		.uleb128 0x2
 6296 1564 74       		.byte	0x74
 6297 1565 00       		.sleb128 0
 6298 1566 00       		.byte	0
 6299 1567 1E       		.uleb128 0x1e
 6300 1568 B6000000 		.4byte	.LVL179
 6301 156c 8C270000 		.4byte	0x278c
 6302 1570 83150000 		.4byte	0x1583
 6303 1574 1C       		.uleb128 0x1c
 6304 1575 01       		.uleb128 0x1
 6305 1576 52       		.byte	0x52
 6306 1577 01       		.uleb128 0x1
 6307 1578 32       		.byte	0x32
 6308 1579 1C       		.uleb128 0x1c
 6309 157a 01       		.uleb128 0x1
 6310 157b 51       		.byte	0x51
 6311 157c 05       		.uleb128 0x5
 6312 157d 03       		.byte	0x3
ARM GAS  C:\Users\MM1005~1\AppData\Local\Temp\ccukbKgl.s 			page 141


 6313 157e 8C010000 		.4byte	.LC74
 6314 1582 00       		.byte	0
 6315 1583 1B       		.uleb128 0x1b
 6316 1584 BC000000 		.4byte	.LVL180
 6317 1588 EE0C0000 		.4byte	0xcee
 6318 158c 1C       		.uleb128 0x1c
 6319 158d 01       		.uleb128 0x1
 6320 158e 50       		.byte	0x50
 6321 158f 02       		.uleb128 0x2
 6322 1590 74       		.byte	0x74
 6323 1591 00       		.sleb128 0
 6324 1592 00       		.byte	0
 6325 1593 00       		.byte	0
 6326 1594 21       		.uleb128 0x21
 6327 1595 65020000 		.4byte	.LASF223
 6328 1599 01       		.byte	0x1
 6329 159a F203     		.2byte	0x3f2
 6330 159c 00000000 		.4byte	.LFB53
 6331 15a0 0C000000 		.4byte	.LFE53-.LFB53
 6332 15a4 01       		.uleb128 0x1
 6333 15a5 9C       		.byte	0x9c
 6334 15a6 B9150000 		.4byte	0x15b9
 6335 15aa 27       		.uleb128 0x27
 6336 15ab 9D0E0000 		.4byte	.LASF224
 6337 15af 01       		.byte	0x1
 6338 15b0 F203     		.2byte	0x3f2
 6339 15b2 76000000 		.4byte	0x76
 6340 15b6 01       		.uleb128 0x1
 6341 15b7 50       		.byte	0x50
 6342 15b8 00       		.byte	0
 6343 15b9 20       		.uleb128 0x20
 6344 15ba 0F060000 		.4byte	.LASF225
 6345 15be 01       		.byte	0x1
 6346 15bf FA03     		.2byte	0x3fa
 6347 15c1 76000000 		.4byte	0x76
 6348 15c5 00000000 		.4byte	.LFB54
 6349 15c9 0C000000 		.4byte	.LFE54-.LFB54
 6350 15cd 01       		.uleb128 0x1
 6351 15ce 9C       		.byte	0x9c
 6352 15cf 21       		.uleb128 0x21
 6353 15d0 CB100000 		.4byte	.LASF226
 6354 15d4 01       		.byte	0x1
 6355 15d5 7E03     		.2byte	0x37e
 6356 15d7 00000000 		.4byte	.LFB48
 6357 15db D4000000 		.4byte	.LFE48-.LFB48
 6358 15df 01       		.uleb128 0x1
 6359 15e0 9C       		.byte	0x9c
 6360 15e1 B5170000 		.4byte	0x17b5
 6361 15e5 22       		.uleb128 0x22
 6362 15e6 84060000 		.4byte	.LASF227
 6363 15ea 01       		.byte	0x1
 6364 15eb 7E03     		.2byte	0x37e
 6365 15ed 5D000000 		.4byte	0x5d
 6366 15f1 D7040000 		.4byte	.LLST31
 6367 15f5 22       		.uleb128 0x22
 6368 15f6 7F0D0000 		.4byte	.LASF211
 6369 15fa 01       		.byte	0x1
ARM GAS  C:\Users\MM1005~1\AppData\Local\Temp\ccukbKgl.s 			page 142


 6370 15fb 7E03     		.2byte	0x37e
 6371 15fd DB000000 		.4byte	0xdb
 6372 1601 03050000 		.4byte	.LLST32
 6373 1605 22       		.uleb128 0x22
 6374 1606 DD0C0000 		.4byte	.LASF228
 6375 160a 01       		.byte	0x1
 6376 160b 7E03     		.2byte	0x37e
 6377 160d E5060000 		.4byte	0x6e5
 6378 1611 2F050000 		.4byte	.LLST33
 6379 1615 22       		.uleb128 0x22
 6380 1616 60100000 		.4byte	.LASF229
 6381 161a 01       		.byte	0x1
 6382 161b 7E03     		.2byte	0x37e
 6383 161d 82000000 		.4byte	0x82
 6384 1621 50050000 		.4byte	.LLST34
 6385 1625 27       		.uleb128 0x27
 6386 1626 BD0F0000 		.4byte	.LASF230
 6387 162a 01       		.byte	0x1
 6388 162b 7E03     		.2byte	0x37e
 6389 162d 82000000 		.4byte	0x82
 6390 1631 02       		.uleb128 0x2
 6391 1632 91       		.byte	0x91
 6392 1633 00       		.sleb128 0
 6393 1634 26       		.uleb128 0x26
 6394 1635 BA020000 		.4byte	.LASF231
 6395 1639 01       		.byte	0x1
 6396 163a 8003     		.2byte	0x380
 6397 163c 5D000000 		.4byte	0x5d
 6398 1640 71050000 		.4byte	.LLST35
 6399 1644 28       		.uleb128 0x28
 6400 1645 9E010000 		.4byte	.LASF232
 6401 1649 01       		.byte	0x1
 6402 164a 8103     		.2byte	0x381
 6403 164c 4F000000 		.4byte	0x4f
 6404 1650 28       		.uleb128 0x28
 6405 1651 3C0B0000 		.4byte	.LASF233
 6406 1655 01       		.byte	0x1
 6407 1656 8203     		.2byte	0x382
 6408 1658 B5170000 		.4byte	0x17b5
 6409 165c 26       		.uleb128 0x26
 6410 165d 43060000 		.4byte	.LASF234
 6411 1661 01       		.byte	0x1
 6412 1662 8303     		.2byte	0x383
 6413 1664 82000000 		.4byte	0x82
 6414 1668 85050000 		.4byte	.LLST36
 6415 166c 24       		.uleb128 0x24
 6416 166d A9040000 		.4byte	.LASF235
 6417 1671 01       		.byte	0x1
 6418 1672 8403     		.2byte	0x384
 6419 1674 C5170000 		.4byte	0x17c5
 6420 1678 03       		.uleb128 0x3
 6421 1679 91       		.byte	0x91
 6422 167a A87F     		.sleb128 -88
 6423 167c 25       		.uleb128 0x25
 6424 167d 6900     		.ascii	"i\000"
 6425 167f 01       		.byte	0x1
 6426 1680 8503     		.2byte	0x385
ARM GAS  C:\Users\MM1005~1\AppData\Local\Temp\ccukbKgl.s 			page 143


 6427 1682 82000000 		.4byte	0x82
 6428 1686 A4050000 		.4byte	.LLST37
 6429 168a 23       		.uleb128 0x23
 6430 168b 0C000000 		.4byte	.LVL187
 6431 168f BE270000 		.4byte	0x27be
 6432 1693 23       		.uleb128 0x23
 6433 1694 10000000 		.4byte	.LVL188
 6434 1698 CF270000 		.4byte	0x27cf
 6435 169c 1E       		.uleb128 0x1e
 6436 169d 1E000000 		.4byte	.LVL189
 6437 16a1 3C270000 		.4byte	0x273c
 6438 16a5 BF160000 		.4byte	0x16bf
 6439 16a9 1C       		.uleb128 0x1c
 6440 16aa 01       		.uleb128 0x1
 6441 16ab 52       		.byte	0x52
 6442 16ac 03       		.uleb128 0x3
 6443 16ad 0A       		.byte	0xa
 6444 16ae 0002     		.2byte	0x200
 6445 16b0 1C       		.uleb128 0x1c
 6446 16b1 01       		.uleb128 0x1
 6447 16b2 51       		.byte	0x51
 6448 16b3 01       		.uleb128 0x1
 6449 16b4 30       		.byte	0x30
 6450 16b5 1C       		.uleb128 0x1c
 6451 16b6 01       		.uleb128 0x1
 6452 16b7 50       		.byte	0x50
 6453 16b8 05       		.uleb128 0x5
 6454 16b9 03       		.byte	0x3
 6455 16ba 04000000 		.4byte	.LANCHOR3+4
 6456 16be 00       		.byte	0
 6457 16bf 1E       		.uleb128 0x1e
 6458 16c0 28000000 		.4byte	.LVL190
 6459 16c4 3C270000 		.4byte	0x273c
 6460 16c8 DE160000 		.4byte	0x16de
 6461 16cc 1C       		.uleb128 0x1c
 6462 16cd 01       		.uleb128 0x1
 6463 16ce 52       		.byte	0x52
 6464 16cf 02       		.uleb128 0x2
 6465 16d0 08       		.byte	0x8
 6466 16d1 40       		.byte	0x40
 6467 16d2 1C       		.uleb128 0x1c
 6468 16d3 01       		.uleb128 0x1
 6469 16d4 51       		.byte	0x51
 6470 16d5 01       		.uleb128 0x1
 6471 16d6 30       		.byte	0x30
 6472 16d7 1C       		.uleb128 0x1c
 6473 16d8 01       		.uleb128 0x1
 6474 16d9 50       		.byte	0x50
 6475 16da 02       		.uleb128 0x2
 6476 16db 7D       		.byte	0x7d
 6477 16dc 00       		.sleb128 0
 6478 16dd 00       		.byte	0
 6479 16de 1E       		.uleb128 0x1e
 6480 16df 42000000 		.4byte	.LVL193
 6481 16e3 DB270000 		.4byte	0x27db
 6482 16e7 F7160000 		.4byte	0x16f7
 6483 16eb 1C       		.uleb128 0x1c
ARM GAS  C:\Users\MM1005~1\AppData\Local\Temp\ccukbKgl.s 			page 144


 6484 16ec 01       		.uleb128 0x1
 6485 16ed 51       		.byte	0x51
 6486 16ee 02       		.uleb128 0x2
 6487 16ef 74       		.byte	0x74
 6488 16f0 00       		.sleb128 0
 6489 16f1 1C       		.uleb128 0x1c
 6490 16f2 01       		.uleb128 0x1
 6491 16f3 50       		.byte	0x50
 6492 16f4 01       		.uleb128 0x1
 6493 16f5 30       		.byte	0x30
 6494 16f6 00       		.byte	0
 6495 16f7 23       		.uleb128 0x23
 6496 16f8 7A000000 		.4byte	.LVL198
 6497 16fc A9270000 		.4byte	0x27a9
 6498 1700 1E       		.uleb128 0x1e
 6499 1701 82000000 		.4byte	.LVL199
 6500 1705 59270000 		.4byte	0x2759
 6501 1709 14170000 		.4byte	0x1714
 6502 170d 1C       		.uleb128 0x1c
 6503 170e 01       		.uleb128 0x1
 6504 170f 50       		.byte	0x50
 6505 1710 02       		.uleb128 0x2
 6506 1711 74       		.byte	0x74
 6507 1712 00       		.sleb128 0
 6508 1713 00       		.byte	0
 6509 1714 1E       		.uleb128 0x1e
 6510 1715 88000000 		.4byte	.LVL200
 6511 1719 73270000 		.4byte	0x2773
 6512 171d 28170000 		.4byte	0x1728
 6513 1721 1C       		.uleb128 0x1c
 6514 1722 01       		.uleb128 0x1
 6515 1723 50       		.byte	0x50
 6516 1724 02       		.uleb128 0x2
 6517 1725 74       		.byte	0x74
 6518 1726 00       		.sleb128 0
 6519 1727 00       		.byte	0
 6520 1728 1E       		.uleb128 0x1e
 6521 1729 92000000 		.4byte	.LVL201
 6522 172d 8C270000 		.4byte	0x278c
 6523 1731 44170000 		.4byte	0x1744
 6524 1735 1C       		.uleb128 0x1c
 6525 1736 01       		.uleb128 0x1
 6526 1737 52       		.byte	0x52
 6527 1738 01       		.uleb128 0x1
 6528 1739 3D       		.byte	0x3d
 6529 173a 1C       		.uleb128 0x1c
 6530 173b 01       		.uleb128 0x1
 6531 173c 51       		.byte	0x51
 6532 173d 05       		.uleb128 0x5
 6533 173e 03       		.byte	0x3
 6534 173f AC010000 		.4byte	.LC83
 6535 1743 00       		.byte	0
 6536 1744 1E       		.uleb128 0x1e
 6537 1745 9A000000 		.4byte	.LVL202
 6538 1749 59270000 		.4byte	0x2759
 6539 174d 5E170000 		.4byte	0x175e
 6540 1751 1C       		.uleb128 0x1c
ARM GAS  C:\Users\MM1005~1\AppData\Local\Temp\ccukbKgl.s 			page 145


 6541 1752 01       		.uleb128 0x1
 6542 1753 51       		.byte	0x51
 6543 1754 02       		.uleb128 0x2
 6544 1755 76       		.byte	0x76
 6545 1756 00       		.sleb128 0
 6546 1757 1C       		.uleb128 0x1c
 6547 1758 01       		.uleb128 0x1
 6548 1759 50       		.byte	0x50
 6549 175a 02       		.uleb128 0x2
 6550 175b 74       		.byte	0x74
 6551 175c 00       		.sleb128 0
 6552 175d 00       		.byte	0
 6553 175e 1E       		.uleb128 0x1e
 6554 175f A0000000 		.4byte	.LVL203
 6555 1763 73270000 		.4byte	0x2773
 6556 1767 72170000 		.4byte	0x1772
 6557 176b 1C       		.uleb128 0x1c
 6558 176c 01       		.uleb128 0x1
 6559 176d 50       		.byte	0x50
 6560 176e 02       		.uleb128 0x2
 6561 176f 74       		.byte	0x74
 6562 1770 00       		.sleb128 0
 6563 1771 00       		.byte	0
 6564 1772 1E       		.uleb128 0x1e
 6565 1773 AA000000 		.4byte	.LVL204
 6566 1777 8C270000 		.4byte	0x278c
 6567 177b 8E170000 		.4byte	0x178e
 6568 177f 1C       		.uleb128 0x1c
 6569 1780 01       		.uleb128 0x1
 6570 1781 52       		.byte	0x52
 6571 1782 01       		.uleb128 0x1
 6572 1783 33       		.byte	0x33
 6573 1784 1C       		.uleb128 0x1c
 6574 1785 01       		.uleb128 0x1
 6575 1786 51       		.byte	0x51
 6576 1787 05       		.uleb128 0x5
 6577 1788 03       		.byte	0x3
 6578 1789 40000000 		.4byte	.LC23
 6579 178d 00       		.byte	0
 6580 178e 1E       		.uleb128 0x1e
 6581 178f B0000000 		.4byte	.LVL205
 6582 1793 EE0C0000 		.4byte	0xcee
 6583 1797 A2170000 		.4byte	0x17a2
 6584 179b 1C       		.uleb128 0x1c
 6585 179c 01       		.uleb128 0x1
 6586 179d 50       		.byte	0x50
 6587 179e 02       		.uleb128 0x2
 6588 179f 74       		.byte	0x74
 6589 17a0 00       		.sleb128 0
 6590 17a1 00       		.byte	0
 6591 17a2 23       		.uleb128 0x23
 6592 17a3 B4000000 		.4byte	.LVL206
 6593 17a7 B9150000 		.4byte	0x15b9
 6594 17ab 23       		.uleb128 0x23
 6595 17ac BC000000 		.4byte	.LVL207
 6596 17b0 D70F0000 		.4byte	0xfd7
 6597 17b4 00       		.byte	0
ARM GAS  C:\Users\MM1005~1\AppData\Local\Temp\ccukbKgl.s 			page 146


 6598 17b5 0C       		.uleb128 0xc
 6599 17b6 A8000000 		.4byte	0xa8
 6600 17ba C5170000 		.4byte	0x17c5
 6601 17be 0D       		.uleb128 0xd
 6602 17bf CC000000 		.4byte	0xcc
 6603 17c3 01       		.byte	0x1
 6604 17c4 00       		.byte	0
 6605 17c5 0C       		.uleb128 0xc
 6606 17c6 A8000000 		.4byte	0xa8
 6607 17ca D5170000 		.4byte	0x17d5
 6608 17ce 0D       		.uleb128 0xd
 6609 17cf CC000000 		.4byte	0xcc
 6610 17d3 3F       		.byte	0x3f
 6611 17d4 00       		.byte	0
 6612 17d5 21       		.uleb128 0x21
 6613 17d6 CF0E0000 		.4byte	.LASF236
 6614 17da 01       		.byte	0x1
 6615 17db 0204     		.2byte	0x402
 6616 17dd 00000000 		.4byte	.LFB55
 6617 17e1 0C000000 		.4byte	.LFE55-.LFB55
 6618 17e5 01       		.uleb128 0x1
 6619 17e6 9C       		.byte	0x9c
 6620 17e7 FA170000 		.4byte	0x17fa
 6621 17eb 27       		.uleb128 0x27
 6622 17ec E8040000 		.4byte	.LASF237
 6623 17f0 01       		.byte	0x1
 6624 17f1 0204     		.2byte	0x402
 6625 17f3 76000000 		.4byte	0x76
 6626 17f7 01       		.uleb128 0x1
 6627 17f8 50       		.byte	0x50
 6628 17f9 00       		.byte	0
 6629 17fa 18       		.uleb128 0x18
 6630 17fb 11030000 		.4byte	.LASF238
 6631 17ff 01       		.byte	0x1
 6632 1800 D4       		.byte	0xd4
 6633 1801 76000000 		.4byte	0x76
 6634 1805 00000000 		.4byte	.LFB43
 6635 1809 1C070000 		.4byte	.LFE43-.LFB43
 6636 180d 01       		.uleb128 0x1
 6637 180e 9C       		.byte	0x9c
 6638 180f 8C250000 		.4byte	0x258c
 6639 1813 19       		.uleb128 0x19
 6640 1814 B9100000 		.4byte	.LASF239
 6641 1818 01       		.byte	0x1
 6642 1819 D4       		.byte	0xd4
 6643 181a DB000000 		.4byte	0xdb
 6644 181e CE050000 		.4byte	.LLST38
 6645 1822 29       		.uleb128 0x29
 6646 1823 EE0E0000 		.4byte	.LASF240
 6647 1827 01       		.byte	0x1
 6648 1828 D6       		.byte	0xd6
 6649 1829 76080000 		.4byte	0x876
 6650 182d 45060000 		.4byte	.LLST39
 6651 1831 29       		.uleb128 0x29
 6652 1832 FB0A0000 		.4byte	.LASF241
 6653 1836 01       		.byte	0x1
 6654 1837 D7       		.byte	0xd7
ARM GAS  C:\Users\MM1005~1\AppData\Local\Temp\ccukbKgl.s 			page 147


 6655 1838 AC080000 		.4byte	0x8ac
 6656 183c 6F060000 		.4byte	.LLST40
 6657 1840 29       		.uleb128 0x29
 6658 1841 FE010000 		.4byte	.LASF242
 6659 1845 01       		.byte	0x1
 6660 1846 D8       		.byte	0xd8
 6661 1847 88070000 		.4byte	0x788
 6662 184b C6060000 		.4byte	.LLST41
 6663 184f 29       		.uleb128 0x29
 6664 1850 ED070000 		.4byte	.LASF243
 6665 1854 01       		.byte	0x1
 6666 1855 D9       		.byte	0xd9
 6667 1856 6C090000 		.4byte	0x96c
 6668 185a FC060000 		.4byte	.LLST42
 6669 185e 29       		.uleb128 0x29
 6670 185f 6F060000 		.4byte	.LASF244
 6671 1863 01       		.byte	0x1
 6672 1864 DA       		.byte	0xda
 6673 1865 D6080000 		.4byte	0x8d6
 6674 1869 32070000 		.4byte	.LLST43
 6675 186d 29       		.uleb128 0x29
 6676 186e 1F110000 		.4byte	.LASF245
 6677 1872 01       		.byte	0x1
 6678 1873 DB       		.byte	0xdb
 6679 1874 00090000 		.4byte	0x900
 6680 1878 73070000 		.4byte	.LLST44
 6681 187c 29       		.uleb128 0x29
 6682 187d 890A0000 		.4byte	.LASF246
 6683 1881 01       		.byte	0x1
 6684 1882 DC       		.byte	0xdc
 6685 1883 30090000 		.4byte	0x930
 6686 1887 B4070000 		.4byte	.LLST45
 6687 188b 29       		.uleb128 0x29
 6688 188c 18080000 		.4byte	.LASF247
 6689 1890 01       		.byte	0x1
 6690 1891 DD       		.byte	0xdd
 6691 1892 9C090000 		.4byte	0x99c
 6692 1896 00080000 		.4byte	.LLST46
 6693 189a 29       		.uleb128 0x29
 6694 189b B50E0000 		.4byte	.LASF248
 6695 189f 01       		.byte	0x1
 6696 18a0 DE       		.byte	0xde
 6697 18a1 D5000000 		.4byte	0xd5
 6698 18a5 4C080000 		.4byte	.LLST47
 6699 18a9 29       		.uleb128 0x29
 6700 18aa 110C0000 		.4byte	.LASF249
 6701 18ae 01       		.byte	0x1
 6702 18af DF       		.byte	0xdf
 6703 18b0 D5000000 		.4byte	0xd5
 6704 18b4 9F0D0000 		.4byte	.LLST48
 6705 18b8 1A       		.uleb128 0x1a
 6706 18b9 72656400 		.ascii	"red\000"
 6707 18bd 01       		.byte	0x1
 6708 18be E0       		.byte	0xe0
 6709 18bf 5D000000 		.4byte	0x5d
 6710 18c3 550E0000 		.4byte	.LLST49
 6711 18c7 29       		.uleb128 0x29
ARM GAS  C:\Users\MM1005~1\AppData\Local\Temp\ccukbKgl.s 			page 148


 6712 18c8 4A0B0000 		.4byte	.LASF250
 6713 18cc 01       		.byte	0x1
 6714 18cd E1       		.byte	0xe1
 6715 18ce 5D000000 		.4byte	0x5d
 6716 18d2 8D0E0000 		.4byte	.LLST50
 6717 18d6 29       		.uleb128 0x29
 6718 18d7 7A0D0000 		.4byte	.LASF251
 6719 18db 01       		.byte	0x1
 6720 18dc E2       		.byte	0xe2
 6721 18dd 5D000000 		.4byte	0x5d
 6722 18e1 C30E0000 		.4byte	.LLST51
 6723 18e5 29       		.uleb128 0x29
 6724 18e6 70030000 		.4byte	.LASF252
 6725 18ea 01       		.byte	0x1
 6726 18eb E3       		.byte	0xe3
 6727 18ec 5D000000 		.4byte	0x5d
 6728 18f0 0F0F0000 		.4byte	.LLST52
 6729 18f4 29       		.uleb128 0x29
 6730 18f5 07100000 		.4byte	.LASF253
 6731 18f9 01       		.byte	0x1
 6732 18fa E4       		.byte	0xe4
 6733 18fb 5D000000 		.4byte	0x5d
 6734 18ff 5B0F0000 		.4byte	.LLST53
 6735 1903 1D       		.uleb128 0x1d
 6736 1904 EB020000 		.4byte	.LASF198
 6737 1908 01       		.byte	0x1
 6738 1909 EB       		.byte	0xeb
 6739 190a E6070000 		.4byte	0x7e6
 6740 190e 02       		.uleb128 0x2
 6741 190f 91       		.byte	0x91
 6742 1910 5C       		.sleb128 -36
 6743 1911 1D       		.uleb128 0x1d
 6744 1912 84070000 		.4byte	.LASF254
 6745 1916 01       		.byte	0x1
 6746 1917 EC       		.byte	0xec
 6747 1918 8C250000 		.4byte	0x258c
 6748 191c 03       		.uleb128 0x3
 6749 191d 91       		.byte	0x91
 6750 191e AC7F     		.sleb128 -84
 6751 1920 1A       		.uleb128 0x1a
 6752 1921 6900     		.ascii	"i\000"
 6753 1923 01       		.byte	0x1
 6754 1924 ED       		.byte	0xed
 6755 1925 5D000000 		.4byte	0x5d
 6756 1929 910F0000 		.4byte	.LLST54
 6757 192d 1E       		.uleb128 0x1e
 6758 192e 0C000000 		.4byte	.LVL213
 6759 1932 F6270000 		.4byte	0x27f6
 6760 1936 47190000 		.4byte	0x1947
 6761 193a 1C       		.uleb128 0x1c
 6762 193b 01       		.uleb128 0x1
 6763 193c 51       		.byte	0x51
 6764 193d 02       		.uleb128 0x2
 6765 193e 08       		.byte	0x8
 6766 193f 2C       		.byte	0x2c
 6767 1940 1C       		.uleb128 0x1c
 6768 1941 01       		.uleb128 0x1
ARM GAS  C:\Users\MM1005~1\AppData\Local\Temp\ccukbKgl.s 			page 149


 6769 1942 50       		.byte	0x50
 6770 1943 02       		.uleb128 0x2
 6771 1944 74       		.byte	0x74
 6772 1945 00       		.sleb128 0
 6773 1946 00       		.byte	0
 6774 1947 1E       		.uleb128 0x1e
 6775 1948 1A000000 		.4byte	.LVL215
 6776 194c 440D0000 		.4byte	0xd44
 6777 1950 64190000 		.4byte	0x1964
 6778 1954 1C       		.uleb128 0x1c
 6779 1955 01       		.uleb128 0x1
 6780 1956 52       		.byte	0x52
 6781 1957 05       		.uleb128 0x5
 6782 1958 03       		.byte	0x3
 6783 1959 BC010000 		.4byte	.LC88
 6784 195d 1C       		.uleb128 0x1c
 6785 195e 01       		.uleb128 0x1
 6786 195f 51       		.byte	0x51
 6787 1960 02       		.uleb128 0x2
 6788 1961 74       		.byte	0x74
 6789 1962 00       		.sleb128 0
 6790 1963 00       		.byte	0
 6791 1964 1E       		.uleb128 0x1e
 6792 1965 24000000 		.4byte	.LVL218
 6793 1969 E2090000 		.4byte	0x9e2
 6794 196d 78190000 		.4byte	0x1978
 6795 1971 1C       		.uleb128 0x1c
 6796 1972 01       		.uleb128 0x1
 6797 1973 50       		.byte	0x50
 6798 1974 02       		.uleb128 0x2
 6799 1975 75       		.byte	0x75
 6800 1976 7F       		.sleb128 -1
 6801 1977 00       		.byte	0
 6802 1978 1E       		.uleb128 0x1e
 6803 1979 3C000000 		.4byte	.LVL220
 6804 197d 440D0000 		.4byte	0xd44
 6805 1981 9A190000 		.4byte	0x199a
 6806 1985 1C       		.uleb128 0x1c
 6807 1986 01       		.uleb128 0x1
 6808 1987 52       		.byte	0x52
 6809 1988 05       		.uleb128 0x5
 6810 1989 03       		.byte	0x3
 6811 198a D8010000 		.4byte	.LC91
 6812 198e 1C       		.uleb128 0x1c
 6813 198f 01       		.uleb128 0x1
 6814 1990 51       		.byte	0x51
 6815 1991 02       		.uleb128 0x2
 6816 1992 74       		.byte	0x74
 6817 1993 00       		.sleb128 0
 6818 1994 1C       		.uleb128 0x1c
 6819 1995 01       		.uleb128 0x1
 6820 1996 50       		.byte	0x50
 6821 1997 01       		.uleb128 0x1
 6822 1998 32       		.byte	0x32
 6823 1999 00       		.byte	0
 6824 199a 1E       		.uleb128 0x1e
 6825 199b 54000000 		.4byte	.LVL222
ARM GAS  C:\Users\MM1005~1\AppData\Local\Temp\ccukbKgl.s 			page 150


 6826 199f 440D0000 		.4byte	0xd44
 6827 19a3 D5190000 		.4byte	0x19d5
 6828 19a7 1C       		.uleb128 0x1c
 6829 19a8 01       		.uleb128 0x1
 6830 19a9 52       		.byte	0x52
 6831 19aa 10       		.uleb128 0x10
 6832 19ab 74       		.byte	0x74
 6833 19ac 00       		.sleb128 0
 6834 19ad 31       		.byte	0x31
 6835 19ae 24       		.byte	0x24
 6836 19af 74       		.byte	0x74
 6837 19b0 00       		.sleb128 0
 6838 19b1 22       		.byte	0x22
 6839 19b2 32       		.byte	0x32
 6840 19b3 24       		.byte	0x24
 6841 19b4 03       		.byte	0x3
 6842 19b5 40000000 		.4byte	.LANCHOR0+8
 6843 19b9 22       		.byte	0x22
 6844 19ba 06       		.byte	0x6
 6845 19bb 1C       		.uleb128 0x1c
 6846 19bc 01       		.uleb128 0x1
 6847 19bd 51       		.byte	0x51
 6848 19be 10       		.uleb128 0x10
 6849 19bf 74       		.byte	0x74
 6850 19c0 00       		.sleb128 0
 6851 19c1 31       		.byte	0x31
 6852 19c2 24       		.byte	0x24
 6853 19c3 74       		.byte	0x74
 6854 19c4 00       		.sleb128 0
 6855 19c5 22       		.byte	0x22
 6856 19c6 32       		.byte	0x32
 6857 19c7 24       		.byte	0x24
 6858 19c8 03       		.byte	0x3
 6859 19c9 3C000000 		.4byte	.LANCHOR0+4
 6860 19cd 22       		.byte	0x22
 6861 19ce 06       		.byte	0x6
 6862 19cf 1C       		.uleb128 0x1c
 6863 19d0 01       		.uleb128 0x1
 6864 19d1 50       		.byte	0x50
 6865 19d2 01       		.uleb128 0x1
 6866 19d3 30       		.byte	0x30
 6867 19d4 00       		.byte	0
 6868 19d5 1E       		.uleb128 0x1e
 6869 19d6 6A000000 		.4byte	.LVL228
 6870 19da 01270000 		.4byte	0x2701
 6871 19de EF190000 		.4byte	0x19ef
 6872 19e2 1C       		.uleb128 0x1c
 6873 19e3 01       		.uleb128 0x1
 6874 19e4 51       		.byte	0x51
 6875 19e5 02       		.uleb128 0x2
 6876 19e6 91       		.byte	0x91
 6877 19e7 5C       		.sleb128 -36
 6878 19e8 1C       		.uleb128 0x1c
 6879 19e9 01       		.uleb128 0x1
 6880 19ea 50       		.byte	0x50
 6881 19eb 02       		.uleb128 0x2
 6882 19ec 74       		.byte	0x74
ARM GAS  C:\Users\MM1005~1\AppData\Local\Temp\ccukbKgl.s 			page 151


 6883 19ed 00       		.sleb128 0
 6884 19ee 00       		.byte	0
 6885 19ef 1E       		.uleb128 0x1e
 6886 19f0 74000000 		.4byte	.LVL229
 6887 19f4 440D0000 		.4byte	0xd44
 6888 19f8 0B1A0000 		.4byte	0x1a0b
 6889 19fc 1C       		.uleb128 0x1c
 6890 19fd 01       		.uleb128 0x1
 6891 19fe 51       		.byte	0x51
 6892 19ff 05       		.uleb128 0x5
 6893 1a00 03       		.byte	0x3
 6894 1a01 E0010000 		.4byte	.LC94
 6895 1a05 1C       		.uleb128 0x1c
 6896 1a06 01       		.uleb128 0x1
 6897 1a07 50       		.byte	0x50
 6898 1a08 01       		.uleb128 0x1
 6899 1a09 30       		.byte	0x30
 6900 1a0a 00       		.byte	0
 6901 1a0b 1E       		.uleb128 0x1e
 6902 1a0c 86000000 		.4byte	.LVL232
 6903 1a10 F6270000 		.4byte	0x27f6
 6904 1a14 251A0000 		.4byte	0x1a25
 6905 1a18 1C       		.uleb128 0x1c
 6906 1a19 01       		.uleb128 0x1
 6907 1a1a 51       		.byte	0x51
 6908 1a1b 02       		.uleb128 0x2
 6909 1a1c 08       		.byte	0x8
 6910 1a1d 2C       		.byte	0x2c
 6911 1a1e 1C       		.uleb128 0x1c
 6912 1a1f 01       		.uleb128 0x1
 6913 1a20 50       		.byte	0x50
 6914 1a21 02       		.uleb128 0x2
 6915 1a22 75       		.byte	0x75
 6916 1a23 00       		.sleb128 0
 6917 1a24 00       		.byte	0
 6918 1a25 1E       		.uleb128 0x1e
 6919 1a26 94000000 		.4byte	.LVL234
 6920 1a2a 440D0000 		.4byte	0xd44
 6921 1a2e 421A0000 		.4byte	0x1a42
 6922 1a32 1C       		.uleb128 0x1c
 6923 1a33 01       		.uleb128 0x1
 6924 1a34 52       		.byte	0x52
 6925 1a35 05       		.uleb128 0x5
 6926 1a36 03       		.byte	0x3
 6927 1a37 EC010000 		.4byte	.LC96
 6928 1a3b 1C       		.uleb128 0x1c
 6929 1a3c 01       		.uleb128 0x1
 6930 1a3d 51       		.byte	0x51
 6931 1a3e 02       		.uleb128 0x2
 6932 1a3f 74       		.byte	0x74
 6933 1a40 00       		.sleb128 0
 6934 1a41 00       		.byte	0
 6935 1a42 1E       		.uleb128 0x1e
 6936 1a43 A0000000 		.4byte	.LVL237
 6937 1a47 F6270000 		.4byte	0x27f6
 6938 1a4b 561A0000 		.4byte	0x1a56
 6939 1a4f 1C       		.uleb128 0x1c
ARM GAS  C:\Users\MM1005~1\AppData\Local\Temp\ccukbKgl.s 			page 152


 6940 1a50 01       		.uleb128 0x1
 6941 1a51 51       		.byte	0x51
 6942 1a52 02       		.uleb128 0x2
 6943 1a53 08       		.byte	0x8
 6944 1a54 3A       		.byte	0x3a
 6945 1a55 00       		.byte	0
 6946 1a56 1E       		.uleb128 0x1e
 6947 1a57 AE000000 		.4byte	.LVL239
 6948 1a5b 440D0000 		.4byte	0xd44
 6949 1a5f 731A0000 		.4byte	0x1a73
 6950 1a63 1C       		.uleb128 0x1c
 6951 1a64 01       		.uleb128 0x1
 6952 1a65 52       		.byte	0x52
 6953 1a66 05       		.uleb128 0x5
 6954 1a67 03       		.byte	0x3
 6955 1a68 EC010000 		.4byte	.LC96
 6956 1a6c 1C       		.uleb128 0x1c
 6957 1a6d 01       		.uleb128 0x1
 6958 1a6e 51       		.byte	0x51
 6959 1a6f 02       		.uleb128 0x2
 6960 1a70 74       		.byte	0x74
 6961 1a71 00       		.sleb128 0
 6962 1a72 00       		.byte	0
 6963 1a73 1E       		.uleb128 0x1e
 6964 1a74 BA000000 		.4byte	.LVL242
 6965 1a78 4A0B0000 		.4byte	0xb4a
 6966 1a7c 871A0000 		.4byte	0x1a87
 6967 1a80 1C       		.uleb128 0x1c
 6968 1a81 01       		.uleb128 0x1
 6969 1a82 50       		.byte	0x50
 6970 1a83 02       		.uleb128 0x2
 6971 1a84 75       		.byte	0x75
 6972 1a85 00       		.sleb128 0
 6973 1a86 00       		.byte	0
 6974 1a87 1E       		.uleb128 0x1e
 6975 1a88 D2000000 		.4byte	.LVL244
 6976 1a8c 10280000 		.4byte	0x2810
 6977 1a90 9A1A0000 		.4byte	0x1a9a
 6978 1a94 1C       		.uleb128 0x1c
 6979 1a95 01       		.uleb128 0x1
 6980 1a96 50       		.byte	0x50
 6981 1a97 01       		.uleb128 0x1
 6982 1a98 31       		.byte	0x31
 6983 1a99 00       		.byte	0
 6984 1a9a 1E       		.uleb128 0x1e
 6985 1a9b DC000000 		.4byte	.LVL247
 6986 1a9f 10280000 		.4byte	0x2810
 6987 1aa3 AD1A0000 		.4byte	0x1aad
 6988 1aa7 1C       		.uleb128 0x1c
 6989 1aa8 01       		.uleb128 0x1
 6990 1aa9 50       		.byte	0x50
 6991 1aaa 01       		.uleb128 0x1
 6992 1aab 30       		.byte	0x30
 6993 1aac 00       		.byte	0
 6994 1aad 1E       		.uleb128 0x1e
 6995 1aae E6000000 		.4byte	.LVL250
 6996 1ab2 21280000 		.4byte	0x2821
ARM GAS  C:\Users\MM1005~1\AppData\Local\Temp\ccukbKgl.s 			page 153


 6997 1ab6 C01A0000 		.4byte	0x1ac0
 6998 1aba 1C       		.uleb128 0x1c
 6999 1abb 01       		.uleb128 0x1
 7000 1abc 50       		.byte	0x50
 7001 1abd 01       		.uleb128 0x1
 7002 1abe 30       		.byte	0x30
 7003 1abf 00       		.byte	0
 7004 1ac0 1E       		.uleb128 0x1e
 7005 1ac1 F0000000 		.4byte	.LVL253
 7006 1ac5 21280000 		.4byte	0x2821
 7007 1ac9 D31A0000 		.4byte	0x1ad3
 7008 1acd 1C       		.uleb128 0x1c
 7009 1ace 01       		.uleb128 0x1
 7010 1acf 50       		.byte	0x50
 7011 1ad0 01       		.uleb128 0x1
 7012 1ad1 31       		.byte	0x31
 7013 1ad2 00       		.byte	0
 7014 1ad3 1E       		.uleb128 0x1e
 7015 1ad4 FA000000 		.4byte	.LVL256
 7016 1ad8 A40B0000 		.4byte	0xba4
 7017 1adc E71A0000 		.4byte	0x1ae7
 7018 1ae0 1C       		.uleb128 0x1c
 7019 1ae1 01       		.uleb128 0x1
 7020 1ae2 50       		.byte	0x50
 7021 1ae3 02       		.uleb128 0x2
 7022 1ae4 75       		.byte	0x75
 7023 1ae5 00       		.sleb128 0
 7024 1ae6 00       		.byte	0
 7025 1ae7 23       		.uleb128 0x23
 7026 1ae8 02010000 		.4byte	.LVL257
 7027 1aec 32280000 		.4byte	0x2832
 7028 1af0 1E       		.uleb128 0x1e
 7029 1af1 10010000 		.4byte	.LVL260
 7030 1af5 440D0000 		.4byte	0xd44
 7031 1af9 121B0000 		.4byte	0x1b12
 7032 1afd 1C       		.uleb128 0x1c
 7033 1afe 01       		.uleb128 0x1
 7034 1aff 52       		.byte	0x52
 7035 1b00 05       		.uleb128 0x5
 7036 1b01 03       		.byte	0x3
 7037 1b02 EC010000 		.4byte	.LC96
 7038 1b06 1C       		.uleb128 0x1c
 7039 1b07 01       		.uleb128 0x1
 7040 1b08 51       		.byte	0x51
 7041 1b09 02       		.uleb128 0x2
 7042 1b0a 74       		.byte	0x74
 7043 1b0b 00       		.sleb128 0
 7044 1b0c 1C       		.uleb128 0x1c
 7045 1b0d 01       		.uleb128 0x1
 7046 1b0e 50       		.byte	0x50
 7047 1b0f 01       		.uleb128 0x1
 7048 1b10 32       		.byte	0x32
 7049 1b11 00       		.byte	0
 7050 1b12 1E       		.uleb128 0x1e
 7051 1b13 1C010000 		.4byte	.LVL262
 7052 1b17 F6270000 		.4byte	0x27f6
 7053 1b1b 2C1B0000 		.4byte	0x1b2c
ARM GAS  C:\Users\MM1005~1\AppData\Local\Temp\ccukbKgl.s 			page 154


 7054 1b1f 1C       		.uleb128 0x1c
 7055 1b20 01       		.uleb128 0x1
 7056 1b21 51       		.byte	0x51
 7057 1b22 02       		.uleb128 0x2
 7058 1b23 08       		.byte	0x8
 7059 1b24 2C       		.byte	0x2c
 7060 1b25 1C       		.uleb128 0x1c
 7061 1b26 01       		.uleb128 0x1
 7062 1b27 50       		.byte	0x50
 7063 1b28 02       		.uleb128 0x2
 7064 1b29 75       		.byte	0x75
 7065 1b2a 00       		.sleb128 0
 7066 1b2b 00       		.byte	0
 7067 1b2c 1E       		.uleb128 0x1e
 7068 1b2d 2A010000 		.4byte	.LVL264
 7069 1b31 440D0000 		.4byte	0xd44
 7070 1b35 491B0000 		.4byte	0x1b49
 7071 1b39 1C       		.uleb128 0x1c
 7072 1b3a 01       		.uleb128 0x1
 7073 1b3b 52       		.byte	0x52
 7074 1b3c 05       		.uleb128 0x5
 7075 1b3d 03       		.byte	0x3
 7076 1b3e 0C020000 		.4byte	.LC98
 7077 1b42 1C       		.uleb128 0x1c
 7078 1b43 01       		.uleb128 0x1
 7079 1b44 51       		.byte	0x51
 7080 1b45 02       		.uleb128 0x2
 7081 1b46 74       		.byte	0x74
 7082 1b47 00       		.sleb128 0
 7083 1b48 00       		.byte	0
 7084 1b49 1E       		.uleb128 0x1e
 7085 1b4a 36010000 		.4byte	.LVL267
 7086 1b4e F6270000 		.4byte	0x27f6
 7087 1b52 5D1B0000 		.4byte	0x1b5d
 7088 1b56 1C       		.uleb128 0x1c
 7089 1b57 01       		.uleb128 0x1
 7090 1b58 51       		.byte	0x51
 7091 1b59 02       		.uleb128 0x2
 7092 1b5a 08       		.byte	0x8
 7093 1b5b 3A       		.byte	0x3a
 7094 1b5c 00       		.byte	0
 7095 1b5d 1E       		.uleb128 0x1e
 7096 1b5e 44010000 		.4byte	.LVL269
 7097 1b62 440D0000 		.4byte	0xd44
 7098 1b66 7A1B0000 		.4byte	0x1b7a
 7099 1b6a 1C       		.uleb128 0x1c
 7100 1b6b 01       		.uleb128 0x1
 7101 1b6c 52       		.byte	0x52
 7102 1b6d 05       		.uleb128 0x5
 7103 1b6e 03       		.byte	0x3
 7104 1b6f 0C020000 		.4byte	.LC98
 7105 1b73 1C       		.uleb128 0x1c
 7106 1b74 01       		.uleb128 0x1
 7107 1b75 51       		.byte	0x51
 7108 1b76 02       		.uleb128 0x2
 7109 1b77 74       		.byte	0x74
 7110 1b78 00       		.sleb128 0
ARM GAS  C:\Users\MM1005~1\AppData\Local\Temp\ccukbKgl.s 			page 155


 7111 1b79 00       		.byte	0
 7112 1b7a 23       		.uleb128 0x23
 7113 1b7b 4E010000 		.4byte	.LVL272
 7114 1b7f 120C0000 		.4byte	0xc12
 7115 1b83 1E       		.uleb128 0x1e
 7116 1b84 66010000 		.4byte	.LVL274
 7117 1b88 440D0000 		.4byte	0xd44
 7118 1b8c A51B0000 		.4byte	0x1ba5
 7119 1b90 1C       		.uleb128 0x1c
 7120 1b91 01       		.uleb128 0x1
 7121 1b92 52       		.byte	0x52
 7122 1b93 05       		.uleb128 0x5
 7123 1b94 03       		.byte	0x3
 7124 1b95 28020000 		.4byte	.LC100
 7125 1b99 1C       		.uleb128 0x1c
 7126 1b9a 01       		.uleb128 0x1
 7127 1b9b 51       		.byte	0x51
 7128 1b9c 02       		.uleb128 0x2
 7129 1b9d 74       		.byte	0x74
 7130 1b9e 00       		.sleb128 0
 7131 1b9f 1C       		.uleb128 0x1c
 7132 1ba0 01       		.uleb128 0x1
 7133 1ba1 50       		.byte	0x50
 7134 1ba2 01       		.uleb128 0x1
 7135 1ba3 33       		.byte	0x33
 7136 1ba4 00       		.byte	0
 7137 1ba5 1E       		.uleb128 0x1e
 7138 1ba6 74010000 		.4byte	.LVL277
 7139 1baa 440D0000 		.4byte	0xd44
 7140 1bae C71B0000 		.4byte	0x1bc7
 7141 1bb2 1C       		.uleb128 0x1c
 7142 1bb3 01       		.uleb128 0x1
 7143 1bb4 52       		.byte	0x52
 7144 1bb5 05       		.uleb128 0x5
 7145 1bb6 03       		.byte	0x3
 7146 1bb7 28020000 		.4byte	.LC100
 7147 1bbb 1C       		.uleb128 0x1c
 7148 1bbc 01       		.uleb128 0x1
 7149 1bbd 51       		.byte	0x51
 7150 1bbe 02       		.uleb128 0x2
 7151 1bbf 74       		.byte	0x74
 7152 1bc0 00       		.sleb128 0
 7153 1bc1 1C       		.uleb128 0x1c
 7154 1bc2 01       		.uleb128 0x1
 7155 1bc3 50       		.byte	0x50
 7156 1bc4 01       		.uleb128 0x1
 7157 1bc5 33       		.byte	0x33
 7158 1bc6 00       		.byte	0
 7159 1bc7 1E       		.uleb128 0x1e
 7160 1bc8 82010000 		.4byte	.LVL280
 7161 1bcc 440D0000 		.4byte	0xd44
 7162 1bd0 E91B0000 		.4byte	0x1be9
 7163 1bd4 1C       		.uleb128 0x1c
 7164 1bd5 01       		.uleb128 0x1
 7165 1bd6 52       		.byte	0x52
 7166 1bd7 05       		.uleb128 0x5
 7167 1bd8 03       		.byte	0x3
ARM GAS  C:\Users\MM1005~1\AppData\Local\Temp\ccukbKgl.s 			page 156


 7168 1bd9 28020000 		.4byte	.LC100
 7169 1bdd 1C       		.uleb128 0x1c
 7170 1bde 01       		.uleb128 0x1
 7171 1bdf 51       		.byte	0x51
 7172 1be0 02       		.uleb128 0x2
 7173 1be1 74       		.byte	0x74
 7174 1be2 00       		.sleb128 0
 7175 1be3 1C       		.uleb128 0x1c
 7176 1be4 01       		.uleb128 0x1
 7177 1be5 50       		.byte	0x50
 7178 1be6 01       		.uleb128 0x1
 7179 1be7 33       		.byte	0x33
 7180 1be8 00       		.byte	0
 7181 1be9 1E       		.uleb128 0x1e
 7182 1bea 90010000 		.4byte	.LVL283
 7183 1bee 440D0000 		.4byte	0xd44
 7184 1bf2 0B1C0000 		.4byte	0x1c0b
 7185 1bf6 1C       		.uleb128 0x1c
 7186 1bf7 01       		.uleb128 0x1
 7187 1bf8 52       		.byte	0x52
 7188 1bf9 05       		.uleb128 0x5
 7189 1bfa 03       		.byte	0x3
 7190 1bfb 40020000 		.4byte	.LC102
 7191 1bff 1C       		.uleb128 0x1c
 7192 1c00 01       		.uleb128 0x1
 7193 1c01 51       		.byte	0x51
 7194 1c02 02       		.uleb128 0x2
 7195 1c03 74       		.byte	0x74
 7196 1c04 00       		.sleb128 0
 7197 1c05 1C       		.uleb128 0x1c
 7198 1c06 01       		.uleb128 0x1
 7199 1c07 50       		.byte	0x50
 7200 1c08 01       		.uleb128 0x1
 7201 1c09 32       		.byte	0x32
 7202 1c0a 00       		.byte	0
 7203 1c0b 1E       		.uleb128 0x1e
 7204 1c0c 9A010000 		.4byte	.LVL285
 7205 1c10 6C0C0000 		.4byte	0xc6c
 7206 1c14 1F1C0000 		.4byte	0x1c1f
 7207 1c18 1C       		.uleb128 0x1c
 7208 1c19 01       		.uleb128 0x1
 7209 1c1a 50       		.byte	0x50
 7210 1c1b 02       		.uleb128 0x2
 7211 1c1c 75       		.byte	0x75
 7212 1c1d 00       		.sleb128 0
 7213 1c1e 00       		.byte	0
 7214 1c1f 1E       		.uleb128 0x1e
 7215 1c20 B0010000 		.4byte	.LVL288
 7216 1c24 43280000 		.4byte	0x2843
 7217 1c28 321C0000 		.4byte	0x1c32
 7218 1c2c 1C       		.uleb128 0x1c
 7219 1c2d 01       		.uleb128 0x1
 7220 1c2e 50       		.byte	0x50
 7221 1c2f 01       		.uleb128 0x1
 7222 1c30 30       		.byte	0x30
 7223 1c31 00       		.byte	0
 7224 1c32 1E       		.uleb128 0x1e
ARM GAS  C:\Users\MM1005~1\AppData\Local\Temp\ccukbKgl.s 			page 157


 7225 1c33 BC010000 		.4byte	.LVL289
 7226 1c37 F6270000 		.4byte	0x27f6
 7227 1c3b 4C1C0000 		.4byte	0x1c4c
 7228 1c3f 1C       		.uleb128 0x1c
 7229 1c40 01       		.uleb128 0x1
 7230 1c41 51       		.byte	0x51
 7231 1c42 02       		.uleb128 0x2
 7232 1c43 08       		.byte	0x8
 7233 1c44 2C       		.byte	0x2c
 7234 1c45 1C       		.uleb128 0x1c
 7235 1c46 01       		.uleb128 0x1
 7236 1c47 50       		.byte	0x50
 7237 1c48 02       		.uleb128 0x2
 7238 1c49 75       		.byte	0x75
 7239 1c4a 00       		.sleb128 0
 7240 1c4b 00       		.byte	0
 7241 1c4c 1E       		.uleb128 0x1e
 7242 1c4d CA010000 		.4byte	.LVL291
 7243 1c51 440D0000 		.4byte	0xd44
 7244 1c55 691C0000 		.4byte	0x1c69
 7245 1c59 1C       		.uleb128 0x1c
 7246 1c5a 01       		.uleb128 0x1
 7247 1c5b 52       		.byte	0x52
 7248 1c5c 05       		.uleb128 0x5
 7249 1c5d 03       		.byte	0x3
 7250 1c5e EC010000 		.4byte	.LC96
 7251 1c62 1C       		.uleb128 0x1c
 7252 1c63 01       		.uleb128 0x1
 7253 1c64 51       		.byte	0x51
 7254 1c65 02       		.uleb128 0x2
 7255 1c66 74       		.byte	0x74
 7256 1c67 00       		.sleb128 0
 7257 1c68 00       		.byte	0
 7258 1c69 1E       		.uleb128 0x1e
 7259 1c6a D6010000 		.4byte	.LVL294
 7260 1c6e F6270000 		.4byte	0x27f6
 7261 1c72 7D1C0000 		.4byte	0x1c7d
 7262 1c76 1C       		.uleb128 0x1c
 7263 1c77 01       		.uleb128 0x1
 7264 1c78 51       		.byte	0x51
 7265 1c79 02       		.uleb128 0x2
 7266 1c7a 08       		.byte	0x8
 7267 1c7b 3A       		.byte	0x3a
 7268 1c7c 00       		.byte	0
 7269 1c7d 1E       		.uleb128 0x1e
 7270 1c7e E4010000 		.4byte	.LVL296
 7271 1c82 440D0000 		.4byte	0xd44
 7272 1c86 9A1C0000 		.4byte	0x1c9a
 7273 1c8a 1C       		.uleb128 0x1c
 7274 1c8b 01       		.uleb128 0x1
 7275 1c8c 52       		.byte	0x52
 7276 1c8d 05       		.uleb128 0x5
 7277 1c8e 03       		.byte	0x3
 7278 1c8f 60020000 		.4byte	.LC105
 7279 1c93 1C       		.uleb128 0x1c
 7280 1c94 01       		.uleb128 0x1
 7281 1c95 51       		.byte	0x51
ARM GAS  C:\Users\MM1005~1\AppData\Local\Temp\ccukbKgl.s 			page 158


 7282 1c96 02       		.uleb128 0x2
 7283 1c97 74       		.byte	0x74
 7284 1c98 00       		.sleb128 0
 7285 1c99 00       		.byte	0
 7286 1c9a 1E       		.uleb128 0x1e
 7287 1c9b F0010000 		.4byte	.LVL299
 7288 1c9f F6270000 		.4byte	0x27f6
 7289 1ca3 AE1C0000 		.4byte	0x1cae
 7290 1ca7 1C       		.uleb128 0x1c
 7291 1ca8 01       		.uleb128 0x1
 7292 1ca9 51       		.byte	0x51
 7293 1caa 02       		.uleb128 0x2
 7294 1cab 08       		.byte	0x8
 7295 1cac 3A       		.byte	0x3a
 7296 1cad 00       		.byte	0
 7297 1cae 1E       		.uleb128 0x1e
 7298 1caf FE010000 		.4byte	.LVL301
 7299 1cb3 440D0000 		.4byte	0xd44
 7300 1cb7 CB1C0000 		.4byte	0x1ccb
 7301 1cbb 1C       		.uleb128 0x1c
 7302 1cbc 01       		.uleb128 0x1
 7303 1cbd 52       		.byte	0x52
 7304 1cbe 05       		.uleb128 0x5
 7305 1cbf 03       		.byte	0x3
 7306 1cc0 60020000 		.4byte	.LC105
 7307 1cc4 1C       		.uleb128 0x1c
 7308 1cc5 01       		.uleb128 0x1
 7309 1cc6 51       		.byte	0x51
 7310 1cc7 02       		.uleb128 0x2
 7311 1cc8 74       		.byte	0x74
 7312 1cc9 00       		.sleb128 0
 7313 1cca 00       		.byte	0
 7314 1ccb 1E       		.uleb128 0x1e
 7315 1ccc 0C020000 		.4byte	.LVL304
 7316 1cd0 F6270000 		.4byte	0x27f6
 7317 1cd4 E51C0000 		.4byte	0x1ce5
 7318 1cd8 1C       		.uleb128 0x1c
 7319 1cd9 01       		.uleb128 0x1
 7320 1cda 51       		.byte	0x51
 7321 1cdb 02       		.uleb128 0x2
 7322 1cdc 08       		.byte	0x8
 7323 1cdd 2C       		.byte	0x2c
 7324 1cde 1C       		.uleb128 0x1c
 7325 1cdf 01       		.uleb128 0x1
 7326 1ce0 50       		.byte	0x50
 7327 1ce1 02       		.uleb128 0x2
 7328 1ce2 75       		.byte	0x75
 7329 1ce3 00       		.sleb128 0
 7330 1ce4 00       		.byte	0
 7331 1ce5 1E       		.uleb128 0x1e
 7332 1ce6 1A020000 		.4byte	.LVL306
 7333 1cea 440D0000 		.4byte	0xd44
 7334 1cee 021D0000 		.4byte	0x1d02
 7335 1cf2 1C       		.uleb128 0x1c
 7336 1cf3 01       		.uleb128 0x1
 7337 1cf4 52       		.byte	0x52
 7338 1cf5 05       		.uleb128 0x5
ARM GAS  C:\Users\MM1005~1\AppData\Local\Temp\ccukbKgl.s 			page 159


 7339 1cf6 03       		.byte	0x3
 7340 1cf7 60020000 		.4byte	.LC105
 7341 1cfb 1C       		.uleb128 0x1c
 7342 1cfc 01       		.uleb128 0x1
 7343 1cfd 51       		.byte	0x51
 7344 1cfe 02       		.uleb128 0x2
 7345 1cff 74       		.byte	0x74
 7346 1d00 00       		.sleb128 0
 7347 1d01 00       		.byte	0
 7348 1d02 1E       		.uleb128 0x1e
 7349 1d03 2A020000 		.4byte	.LVL309
 7350 1d07 54280000 		.4byte	0x2854
 7351 1d0b 161D0000 		.4byte	0x1d16
 7352 1d0f 1C       		.uleb128 0x1c
 7353 1d10 01       		.uleb128 0x1
 7354 1d11 50       		.byte	0x50
 7355 1d12 02       		.uleb128 0x2
 7356 1d13 75       		.byte	0x75
 7357 1d14 00       		.sleb128 0
 7358 1d15 00       		.byte	0
 7359 1d16 1E       		.uleb128 0x1e
 7360 1d17 34020000 		.4byte	.LVL312
 7361 1d1b F6270000 		.4byte	0x27f6
 7362 1d1f 301D0000 		.4byte	0x1d30
 7363 1d23 1C       		.uleb128 0x1c
 7364 1d24 01       		.uleb128 0x1
 7365 1d25 51       		.byte	0x51
 7366 1d26 02       		.uleb128 0x2
 7367 1d27 08       		.byte	0x8
 7368 1d28 3A       		.byte	0x3a
 7369 1d29 1C       		.uleb128 0x1c
 7370 1d2a 01       		.uleb128 0x1
 7371 1d2b 50       		.byte	0x50
 7372 1d2c 02       		.uleb128 0x2
 7373 1d2d 77       		.byte	0x77
 7374 1d2e 00       		.sleb128 0
 7375 1d2f 00       		.byte	0
 7376 1d30 1E       		.uleb128 0x1e
 7377 1d31 42020000 		.4byte	.LVL314
 7378 1d35 440D0000 		.4byte	0xd44
 7379 1d39 4D1D0000 		.4byte	0x1d4d
 7380 1d3d 1C       		.uleb128 0x1c
 7381 1d3e 01       		.uleb128 0x1
 7382 1d3f 52       		.byte	0x52
 7383 1d40 05       		.uleb128 0x5
 7384 1d41 03       		.byte	0x3
 7385 1d42 80020000 		.4byte	.LC107
 7386 1d46 1C       		.uleb128 0x1c
 7387 1d47 01       		.uleb128 0x1
 7388 1d48 51       		.byte	0x51
 7389 1d49 02       		.uleb128 0x2
 7390 1d4a 74       		.byte	0x74
 7391 1d4b 00       		.sleb128 0
 7392 1d4c 00       		.byte	0
 7393 1d4d 1E       		.uleb128 0x1e
 7394 1d4e 50020000 		.4byte	.LVL317
 7395 1d52 F6270000 		.4byte	0x27f6
ARM GAS  C:\Users\MM1005~1\AppData\Local\Temp\ccukbKgl.s 			page 160


 7396 1d56 671D0000 		.4byte	0x1d67
 7397 1d5a 1C       		.uleb128 0x1c
 7398 1d5b 01       		.uleb128 0x1
 7399 1d5c 51       		.byte	0x51
 7400 1d5d 02       		.uleb128 0x2
 7401 1d5e 08       		.byte	0x8
 7402 1d5f 2C       		.byte	0x2c
 7403 1d60 1C       		.uleb128 0x1c
 7404 1d61 01       		.uleb128 0x1
 7405 1d62 50       		.byte	0x50
 7406 1d63 02       		.uleb128 0x2
 7407 1d64 77       		.byte	0x77
 7408 1d65 00       		.sleb128 0
 7409 1d66 00       		.byte	0
 7410 1d67 1E       		.uleb128 0x1e
 7411 1d68 5E020000 		.4byte	.LVL319
 7412 1d6c 440D0000 		.4byte	0xd44
 7413 1d70 841D0000 		.4byte	0x1d84
 7414 1d74 1C       		.uleb128 0x1c
 7415 1d75 01       		.uleb128 0x1
 7416 1d76 52       		.byte	0x52
 7417 1d77 05       		.uleb128 0x5
 7418 1d78 03       		.byte	0x3
 7419 1d79 A4020000 		.4byte	.LC109
 7420 1d7d 1C       		.uleb128 0x1c
 7421 1d7e 01       		.uleb128 0x1
 7422 1d7f 51       		.byte	0x51
 7423 1d80 02       		.uleb128 0x2
 7424 1d81 74       		.byte	0x74
 7425 1d82 00       		.sleb128 0
 7426 1d83 00       		.byte	0
 7427 1d84 1E       		.uleb128 0x1e
 7428 1d85 6E020000 		.4byte	.LVL322
 7429 1d89 54280000 		.4byte	0x2854
 7430 1d8d 981D0000 		.4byte	0x1d98
 7431 1d91 1C       		.uleb128 0x1c
 7432 1d92 01       		.uleb128 0x1
 7433 1d93 50       		.byte	0x50
 7434 1d94 02       		.uleb128 0x2
 7435 1d95 77       		.byte	0x77
 7436 1d96 00       		.sleb128 0
 7437 1d97 00       		.byte	0
 7438 1d98 1E       		.uleb128 0x1e
 7439 1d99 78020000 		.4byte	.LVL325
 7440 1d9d F6270000 		.4byte	0x27f6
 7441 1da1 B21D0000 		.4byte	0x1db2
 7442 1da5 1C       		.uleb128 0x1c
 7443 1da6 01       		.uleb128 0x1
 7444 1da7 51       		.byte	0x51
 7445 1da8 02       		.uleb128 0x2
 7446 1da9 08       		.byte	0x8
 7447 1daa 3A       		.byte	0x3a
 7448 1dab 1C       		.uleb128 0x1c
 7449 1dac 01       		.uleb128 0x1
 7450 1dad 50       		.byte	0x50
 7451 1dae 02       		.uleb128 0x2
 7452 1daf 75       		.byte	0x75
ARM GAS  C:\Users\MM1005~1\AppData\Local\Temp\ccukbKgl.s 			page 161


 7453 1db0 00       		.sleb128 0
 7454 1db1 00       		.byte	0
 7455 1db2 1E       		.uleb128 0x1e
 7456 1db3 86020000 		.4byte	.LVL327
 7457 1db7 440D0000 		.4byte	0xd44
 7458 1dbb CF1D0000 		.4byte	0x1dcf
 7459 1dbf 1C       		.uleb128 0x1c
 7460 1dc0 01       		.uleb128 0x1
 7461 1dc1 52       		.byte	0x52
 7462 1dc2 05       		.uleb128 0x5
 7463 1dc3 03       		.byte	0x3
 7464 1dc4 80020000 		.4byte	.LC107
 7465 1dc8 1C       		.uleb128 0x1c
 7466 1dc9 01       		.uleb128 0x1
 7467 1dca 51       		.byte	0x51
 7468 1dcb 02       		.uleb128 0x2
 7469 1dcc 74       		.byte	0x74
 7470 1dcd 00       		.sleb128 0
 7471 1dce 00       		.byte	0
 7472 1dcf 23       		.uleb128 0x23
 7473 1dd0 90020000 		.4byte	.LVL330
 7474 1dd4 54280000 		.4byte	0x2854
 7475 1dd8 1E       		.uleb128 0x1e
 7476 1dd9 A0020000 		.4byte	.LVL333
 7477 1ddd 69280000 		.4byte	0x2869
 7478 1de1 F31D0000 		.4byte	0x1df3
 7479 1de5 1C       		.uleb128 0x1c
 7480 1de6 01       		.uleb128 0x1
 7481 1de7 51       		.byte	0x51
 7482 1de8 04       		.uleb128 0x4
 7483 1de9 7D       		.byte	0x7d
 7484 1dea 04       		.sleb128 4
 7485 1deb 94       		.byte	0x94
 7486 1dec 02       		.byte	0x2
 7487 1ded 1C       		.uleb128 0x1c
 7488 1dee 01       		.uleb128 0x1
 7489 1def 50       		.byte	0x50
 7490 1df0 01       		.uleb128 0x1
 7491 1df1 45       		.byte	0x45
 7492 1df2 00       		.byte	0
 7493 1df3 1E       		.uleb128 0x1e
 7494 1df4 A8020000 		.4byte	.LVL334
 7495 1df8 69280000 		.4byte	0x2869
 7496 1dfc 0C1E0000 		.4byte	0x1e0c
 7497 1e00 1C       		.uleb128 0x1c
 7498 1e01 01       		.uleb128 0x1
 7499 1e02 51       		.byte	0x51
 7500 1e03 02       		.uleb128 0x2
 7501 1e04 77       		.byte	0x77
 7502 1e05 00       		.sleb128 0
 7503 1e06 1C       		.uleb128 0x1c
 7504 1e07 01       		.uleb128 0x1
 7505 1e08 50       		.byte	0x50
 7506 1e09 01       		.uleb128 0x1
 7507 1e0a 46       		.byte	0x46
 7508 1e0b 00       		.byte	0
 7509 1e0c 1E       		.uleb128 0x1e
ARM GAS  C:\Users\MM1005~1\AppData\Local\Temp\ccukbKgl.s 			page 162


 7510 1e0d B0020000 		.4byte	.LVL335
 7511 1e11 69280000 		.4byte	0x2869
 7512 1e15 251E0000 		.4byte	0x1e25
 7513 1e19 1C       		.uleb128 0x1c
 7514 1e1a 01       		.uleb128 0x1
 7515 1e1b 51       		.byte	0x51
 7516 1e1c 02       		.uleb128 0x2
 7517 1e1d 74       		.byte	0x74
 7518 1e1e 00       		.sleb128 0
 7519 1e1f 1C       		.uleb128 0x1c
 7520 1e20 01       		.uleb128 0x1
 7521 1e21 50       		.byte	0x50
 7522 1e22 01       		.uleb128 0x1
 7523 1e23 47       		.byte	0x47
 7524 1e24 00       		.byte	0
 7525 1e25 1E       		.uleb128 0x1e
 7526 1e26 BE020000 		.4byte	.LVL338
 7527 1e2a 69280000 		.4byte	0x2869
 7528 1e2e 401E0000 		.4byte	0x1e40
 7529 1e32 1C       		.uleb128 0x1c
 7530 1e33 01       		.uleb128 0x1
 7531 1e34 51       		.byte	0x51
 7532 1e35 04       		.uleb128 0x4
 7533 1e36 7D       		.byte	0x7d
 7534 1e37 04       		.sleb128 4
 7535 1e38 94       		.byte	0x94
 7536 1e39 02       		.byte	0x2
 7537 1e3a 1C       		.uleb128 0x1c
 7538 1e3b 01       		.uleb128 0x1
 7539 1e3c 50       		.byte	0x50
 7540 1e3d 01       		.uleb128 0x1
 7541 1e3e 42       		.byte	0x42
 7542 1e3f 00       		.byte	0
 7543 1e40 1E       		.uleb128 0x1e
 7544 1e41 C6020000 		.4byte	.LVL339
 7545 1e45 69280000 		.4byte	0x2869
 7546 1e49 591E0000 		.4byte	0x1e59
 7547 1e4d 1C       		.uleb128 0x1c
 7548 1e4e 01       		.uleb128 0x1
 7549 1e4f 51       		.byte	0x51
 7550 1e50 02       		.uleb128 0x2
 7551 1e51 77       		.byte	0x77
 7552 1e52 00       		.sleb128 0
 7553 1e53 1C       		.uleb128 0x1c
 7554 1e54 01       		.uleb128 0x1
 7555 1e55 50       		.byte	0x50
 7556 1e56 01       		.uleb128 0x1
 7557 1e57 43       		.byte	0x43
 7558 1e58 00       		.byte	0
 7559 1e59 1E       		.uleb128 0x1e
 7560 1e5a CE020000 		.4byte	.LVL340
 7561 1e5e 69280000 		.4byte	0x2869
 7562 1e62 721E0000 		.4byte	0x1e72
 7563 1e66 1C       		.uleb128 0x1c
 7564 1e67 01       		.uleb128 0x1
 7565 1e68 51       		.byte	0x51
 7566 1e69 02       		.uleb128 0x2
ARM GAS  C:\Users\MM1005~1\AppData\Local\Temp\ccukbKgl.s 			page 163


 7567 1e6a 74       		.byte	0x74
 7568 1e6b 00       		.sleb128 0
 7569 1e6c 1C       		.uleb128 0x1c
 7570 1e6d 01       		.uleb128 0x1
 7571 1e6e 50       		.byte	0x50
 7572 1e6f 01       		.uleb128 0x1
 7573 1e70 44       		.byte	0x44
 7574 1e71 00       		.byte	0
 7575 1e72 1E       		.uleb128 0x1e
 7576 1e73 DA020000 		.4byte	.LVL342
 7577 1e77 F6270000 		.4byte	0x27f6
 7578 1e7b 8C1E0000 		.4byte	0x1e8c
 7579 1e7f 1C       		.uleb128 0x1c
 7580 1e80 01       		.uleb128 0x1
 7581 1e81 51       		.byte	0x51
 7582 1e82 02       		.uleb128 0x2
 7583 1e83 08       		.byte	0x8
 7584 1e84 2C       		.byte	0x2c
 7585 1e85 1C       		.uleb128 0x1c
 7586 1e86 01       		.uleb128 0x1
 7587 1e87 50       		.byte	0x50
 7588 1e88 02       		.uleb128 0x2
 7589 1e89 75       		.byte	0x75
 7590 1e8a 00       		.sleb128 0
 7591 1e8b 00       		.byte	0
 7592 1e8c 1E       		.uleb128 0x1e
 7593 1e8d E8020000 		.4byte	.LVL344
 7594 1e91 440D0000 		.4byte	0xd44
 7595 1e95 A91E0000 		.4byte	0x1ea9
 7596 1e99 1C       		.uleb128 0x1c
 7597 1e9a 01       		.uleb128 0x1
 7598 1e9b 52       		.byte	0x52
 7599 1e9c 05       		.uleb128 0x5
 7600 1e9d 03       		.byte	0x3
 7601 1e9e EC010000 		.4byte	.LC96
 7602 1ea2 1C       		.uleb128 0x1c
 7603 1ea3 01       		.uleb128 0x1
 7604 1ea4 51       		.byte	0x51
 7605 1ea5 02       		.uleb128 0x2
 7606 1ea6 74       		.byte	0x74
 7607 1ea7 00       		.sleb128 0
 7608 1ea8 00       		.byte	0
 7609 1ea9 1E       		.uleb128 0x1e
 7610 1eaa F4020000 		.4byte	.LVL347
 7611 1eae F6270000 		.4byte	0x27f6
 7612 1eb2 BD1E0000 		.4byte	0x1ebd
 7613 1eb6 1C       		.uleb128 0x1c
 7614 1eb7 01       		.uleb128 0x1
 7615 1eb8 51       		.byte	0x51
 7616 1eb9 02       		.uleb128 0x2
 7617 1eba 08       		.byte	0x8
 7618 1ebb 3A       		.byte	0x3a
 7619 1ebc 00       		.byte	0
 7620 1ebd 1E       		.uleb128 0x1e
 7621 1ebe 02030000 		.4byte	.LVL349
 7622 1ec2 440D0000 		.4byte	0xd44
 7623 1ec6 DA1E0000 		.4byte	0x1eda
ARM GAS  C:\Users\MM1005~1\AppData\Local\Temp\ccukbKgl.s 			page 164


 7624 1eca 1C       		.uleb128 0x1c
 7625 1ecb 01       		.uleb128 0x1
 7626 1ecc 52       		.byte	0x52
 7627 1ecd 05       		.uleb128 0x5
 7628 1ece 03       		.byte	0x3
 7629 1ecf C8020000 		.4byte	.LC111
 7630 1ed3 1C       		.uleb128 0x1c
 7631 1ed4 01       		.uleb128 0x1
 7632 1ed5 51       		.byte	0x51
 7633 1ed6 02       		.uleb128 0x2
 7634 1ed7 74       		.byte	0x74
 7635 1ed8 00       		.sleb128 0
 7636 1ed9 00       		.byte	0
 7637 1eda 1E       		.uleb128 0x1e
 7638 1edb 0E030000 		.4byte	.LVL352
 7639 1edf F6270000 		.4byte	0x27f6
 7640 1ee3 EE1E0000 		.4byte	0x1eee
 7641 1ee7 1C       		.uleb128 0x1c
 7642 1ee8 01       		.uleb128 0x1
 7643 1ee9 51       		.byte	0x51
 7644 1eea 02       		.uleb128 0x2
 7645 1eeb 08       		.byte	0x8
 7646 1eec 3A       		.byte	0x3a
 7647 1eed 00       		.byte	0
 7648 1eee 1E       		.uleb128 0x1e
 7649 1eef 1C030000 		.4byte	.LVL354
 7650 1ef3 440D0000 		.4byte	0xd44
 7651 1ef7 0B1F0000 		.4byte	0x1f0b
 7652 1efb 1C       		.uleb128 0x1c
 7653 1efc 01       		.uleb128 0x1
 7654 1efd 52       		.byte	0x52
 7655 1efe 05       		.uleb128 0x5
 7656 1eff 03       		.byte	0x3
 7657 1f00 E4020000 		.4byte	.LC113
 7658 1f04 1C       		.uleb128 0x1c
 7659 1f05 01       		.uleb128 0x1
 7660 1f06 51       		.byte	0x51
 7661 1f07 02       		.uleb128 0x2
 7662 1f08 74       		.byte	0x74
 7663 1f09 00       		.sleb128 0
 7664 1f0a 00       		.byte	0
 7665 1f0b 1E       		.uleb128 0x1e
 7666 1f0c 2A030000 		.4byte	.LVL357
 7667 1f10 F6270000 		.4byte	0x27f6
 7668 1f14 251F0000 		.4byte	0x1f25
 7669 1f18 1C       		.uleb128 0x1c
 7670 1f19 01       		.uleb128 0x1
 7671 1f1a 51       		.byte	0x51
 7672 1f1b 02       		.uleb128 0x2
 7673 1f1c 08       		.byte	0x8
 7674 1f1d 2C       		.byte	0x2c
 7675 1f1e 1C       		.uleb128 0x1c
 7676 1f1f 01       		.uleb128 0x1
 7677 1f20 50       		.byte	0x50
 7678 1f21 02       		.uleb128 0x2
 7679 1f22 76       		.byte	0x76
 7680 1f23 00       		.sleb128 0
ARM GAS  C:\Users\MM1005~1\AppData\Local\Temp\ccukbKgl.s 			page 165


 7681 1f24 00       		.byte	0
 7682 1f25 1E       		.uleb128 0x1e
 7683 1f26 38030000 		.4byte	.LVL359
 7684 1f2a 440D0000 		.4byte	0xd44
 7685 1f2e 421F0000 		.4byte	0x1f42
 7686 1f32 1C       		.uleb128 0x1c
 7687 1f33 01       		.uleb128 0x1
 7688 1f34 52       		.byte	0x52
 7689 1f35 05       		.uleb128 0x5
 7690 1f36 03       		.byte	0x3
 7691 1f37 E4020000 		.4byte	.LC113
 7692 1f3b 1C       		.uleb128 0x1c
 7693 1f3c 01       		.uleb128 0x1
 7694 1f3d 51       		.byte	0x51
 7695 1f3e 02       		.uleb128 0x2
 7696 1f3f 74       		.byte	0x74
 7697 1f40 00       		.sleb128 0
 7698 1f41 00       		.byte	0
 7699 1f42 1E       		.uleb128 0x1e
 7700 1f43 84030000 		.4byte	.LVL362
 7701 1f47 54280000 		.4byte	0x2854
 7702 1f4b 561F0000 		.4byte	0x1f56
 7703 1f4f 1C       		.uleb128 0x1c
 7704 1f50 01       		.uleb128 0x1
 7705 1f51 50       		.byte	0x50
 7706 1f52 02       		.uleb128 0x2
 7707 1f53 76       		.byte	0x76
 7708 1f54 00       		.sleb128 0
 7709 1f55 00       		.byte	0
 7710 1f56 1E       		.uleb128 0x1e
 7711 1f57 94030000 		.4byte	.LVL365
 7712 1f5b 440D0000 		.4byte	0xd44
 7713 1f5f 781F0000 		.4byte	0x1f78
 7714 1f63 1C       		.uleb128 0x1c
 7715 1f64 01       		.uleb128 0x1
 7716 1f65 52       		.byte	0x52
 7717 1f66 05       		.uleb128 0x5
 7718 1f67 03       		.byte	0x3
 7719 1f68 FC020000 		.4byte	.LC115
 7720 1f6c 1C       		.uleb128 0x1c
 7721 1f6d 01       		.uleb128 0x1
 7722 1f6e 51       		.byte	0x51
 7723 1f6f 02       		.uleb128 0x2
 7724 1f70 74       		.byte	0x74
 7725 1f71 00       		.sleb128 0
 7726 1f72 1C       		.uleb128 0x1c
 7727 1f73 01       		.uleb128 0x1
 7728 1f74 50       		.byte	0x50
 7729 1f75 01       		.uleb128 0x1
 7730 1f76 32       		.byte	0x32
 7731 1f77 00       		.byte	0
 7732 1f78 1E       		.uleb128 0x1e
 7733 1f79 A0030000 		.4byte	.LVL368
 7734 1f7d F6270000 		.4byte	0x27f6
 7735 1f81 921F0000 		.4byte	0x1f92
 7736 1f85 1C       		.uleb128 0x1c
 7737 1f86 01       		.uleb128 0x1
ARM GAS  C:\Users\MM1005~1\AppData\Local\Temp\ccukbKgl.s 			page 166


 7738 1f87 51       		.byte	0x51
 7739 1f88 02       		.uleb128 0x2
 7740 1f89 08       		.byte	0x8
 7741 1f8a 3A       		.byte	0x3a
 7742 1f8b 1C       		.uleb128 0x1c
 7743 1f8c 01       		.uleb128 0x1
 7744 1f8d 50       		.byte	0x50
 7745 1f8e 02       		.uleb128 0x2
 7746 1f8f 75       		.byte	0x75
 7747 1f90 00       		.sleb128 0
 7748 1f91 00       		.byte	0
 7749 1f92 1E       		.uleb128 0x1e
 7750 1f93 AE030000 		.4byte	.LVL370
 7751 1f97 440D0000 		.4byte	0xd44
 7752 1f9b AF1F0000 		.4byte	0x1faf
 7753 1f9f 1C       		.uleb128 0x1c
 7754 1fa0 01       		.uleb128 0x1
 7755 1fa1 52       		.byte	0x52
 7756 1fa2 05       		.uleb128 0x5
 7757 1fa3 03       		.byte	0x3
 7758 1fa4 80020000 		.4byte	.LC107
 7759 1fa8 1C       		.uleb128 0x1c
 7760 1fa9 01       		.uleb128 0x1
 7761 1faa 51       		.byte	0x51
 7762 1fab 02       		.uleb128 0x2
 7763 1fac 74       		.byte	0x74
 7764 1fad 00       		.sleb128 0
 7765 1fae 00       		.byte	0
 7766 1faf 23       		.uleb128 0x23
 7767 1fb0 B8030000 		.4byte	.LVL373
 7768 1fb4 54280000 		.4byte	0x2854
 7769 1fb8 1E       		.uleb128 0x1e
 7770 1fb9 C2030000 		.4byte	.LVL377
 7771 1fbd 69280000 		.4byte	0x2869
 7772 1fc1 CC1F0000 		.4byte	0x1fcc
 7773 1fc5 1C       		.uleb128 0x1c
 7774 1fc6 01       		.uleb128 0x1
 7775 1fc7 50       		.byte	0x50
 7776 1fc8 02       		.uleb128 0x2
 7777 1fc9 76       		.byte	0x76
 7778 1fca 00       		.sleb128 0
 7779 1fcb 00       		.byte	0
 7780 1fcc 1E       		.uleb128 0x1e
 7781 1fcd CE030000 		.4byte	.LVL379
 7782 1fd1 F6270000 		.4byte	0x27f6
 7783 1fd5 E61F0000 		.4byte	0x1fe6
 7784 1fd9 1C       		.uleb128 0x1c
 7785 1fda 01       		.uleb128 0x1
 7786 1fdb 51       		.byte	0x51
 7787 1fdc 02       		.uleb128 0x2
 7788 1fdd 08       		.byte	0x8
 7789 1fde 2C       		.byte	0x2c
 7790 1fdf 1C       		.uleb128 0x1c
 7791 1fe0 01       		.uleb128 0x1
 7792 1fe1 50       		.byte	0x50
 7793 1fe2 02       		.uleb128 0x2
 7794 1fe3 75       		.byte	0x75
ARM GAS  C:\Users\MM1005~1\AppData\Local\Temp\ccukbKgl.s 			page 167


 7795 1fe4 00       		.sleb128 0
 7796 1fe5 00       		.byte	0
 7797 1fe6 1E       		.uleb128 0x1e
 7798 1fe7 DC030000 		.4byte	.LVL381
 7799 1feb 440D0000 		.4byte	0xd44
 7800 1fef 03200000 		.4byte	0x2003
 7801 1ff3 1C       		.uleb128 0x1c
 7802 1ff4 01       		.uleb128 0x1
 7803 1ff5 52       		.byte	0x52
 7804 1ff6 05       		.uleb128 0x5
 7805 1ff7 03       		.byte	0x3
 7806 1ff8 10030000 		.4byte	.LC117
 7807 1ffc 1C       		.uleb128 0x1c
 7808 1ffd 01       		.uleb128 0x1
 7809 1ffe 51       		.byte	0x51
 7810 1fff 02       		.uleb128 0x2
 7811 2000 74       		.byte	0x74
 7812 2001 00       		.sleb128 0
 7813 2002 00       		.byte	0
 7814 2003 1E       		.uleb128 0x1e
 7815 2004 E8030000 		.4byte	.LVL384
 7816 2008 F6270000 		.4byte	0x27f6
 7817 200c 17200000 		.4byte	0x2017
 7818 2010 1C       		.uleb128 0x1c
 7819 2011 01       		.uleb128 0x1
 7820 2012 51       		.byte	0x51
 7821 2013 02       		.uleb128 0x2
 7822 2014 08       		.byte	0x8
 7823 2015 2C       		.byte	0x2c
 7824 2016 00       		.byte	0
 7825 2017 1E       		.uleb128 0x1e
 7826 2018 F6030000 		.4byte	.LVL386
 7827 201c 440D0000 		.4byte	0xd44
 7828 2020 34200000 		.4byte	0x2034
 7829 2024 1C       		.uleb128 0x1c
 7830 2025 01       		.uleb128 0x1
 7831 2026 52       		.byte	0x52
 7832 2027 05       		.uleb128 0x5
 7833 2028 03       		.byte	0x3
 7834 2029 10030000 		.4byte	.LC117
 7835 202d 1C       		.uleb128 0x1c
 7836 202e 01       		.uleb128 0x1
 7837 202f 51       		.byte	0x51
 7838 2030 02       		.uleb128 0x2
 7839 2031 74       		.byte	0x74
 7840 2032 00       		.sleb128 0
 7841 2033 00       		.byte	0
 7842 2034 1E       		.uleb128 0x1e
 7843 2035 02040000 		.4byte	.LVL389
 7844 2039 F6270000 		.4byte	0x27f6
 7845 203d 48200000 		.4byte	0x2048
 7846 2041 1C       		.uleb128 0x1c
 7847 2042 01       		.uleb128 0x1
 7848 2043 51       		.byte	0x51
 7849 2044 02       		.uleb128 0x2
 7850 2045 08       		.byte	0x8
 7851 2046 3A       		.byte	0x3a
ARM GAS  C:\Users\MM1005~1\AppData\Local\Temp\ccukbKgl.s 			page 168


 7852 2047 00       		.byte	0
 7853 2048 1E       		.uleb128 0x1e
 7854 2049 10040000 		.4byte	.LVL391
 7855 204d 440D0000 		.4byte	0xd44
 7856 2051 65200000 		.4byte	0x2065
 7857 2055 1C       		.uleb128 0x1c
 7858 2056 01       		.uleb128 0x1
 7859 2057 52       		.byte	0x52
 7860 2058 05       		.uleb128 0x5
 7861 2059 03       		.byte	0x3
 7862 205a 10030000 		.4byte	.LC117
 7863 205e 1C       		.uleb128 0x1c
 7864 205f 01       		.uleb128 0x1
 7865 2060 51       		.byte	0x51
 7866 2061 02       		.uleb128 0x2
 7867 2062 74       		.byte	0x74
 7868 2063 00       		.sleb128 0
 7869 2064 00       		.byte	0
 7870 2065 1E       		.uleb128 0x1e
 7871 2066 36040000 		.4byte	.LVL394
 7872 206a F6270000 		.4byte	0x27f6
 7873 206e 79200000 		.4byte	0x2079
 7874 2072 1C       		.uleb128 0x1c
 7875 2073 01       		.uleb128 0x1
 7876 2074 51       		.byte	0x51
 7877 2075 02       		.uleb128 0x2
 7878 2076 08       		.byte	0x8
 7879 2077 22       		.byte	0x22
 7880 2078 00       		.byte	0
 7881 2079 1E       		.uleb128 0x1e
 7882 207a 44040000 		.4byte	.LVL396
 7883 207e 440D0000 		.4byte	0xd44
 7884 2082 96200000 		.4byte	0x2096
 7885 2086 1C       		.uleb128 0x1c
 7886 2087 01       		.uleb128 0x1
 7887 2088 52       		.byte	0x52
 7888 2089 05       		.uleb128 0x5
 7889 208a 03       		.byte	0x3
 7890 208b 10030000 		.4byte	.LC117
 7891 208f 1C       		.uleb128 0x1c
 7892 2090 01       		.uleb128 0x1
 7893 2091 51       		.byte	0x51
 7894 2092 02       		.uleb128 0x2
 7895 2093 74       		.byte	0x74
 7896 2094 00       		.sleb128 0
 7897 2095 00       		.byte	0
 7898 2096 1E       		.uleb128 0x1e
 7899 2097 50040000 		.4byte	.LVL399
 7900 209b 54280000 		.4byte	0x2854
 7901 209f AA200000 		.4byte	0x20aa
 7902 20a3 1C       		.uleb128 0x1c
 7903 20a4 01       		.uleb128 0x1
 7904 20a5 50       		.byte	0x50
 7905 20a6 02       		.uleb128 0x2
 7906 20a7 75       		.byte	0x75
 7907 20a8 00       		.sleb128 0
 7908 20a9 00       		.byte	0
ARM GAS  C:\Users\MM1005~1\AppData\Local\Temp\ccukbKgl.s 			page 169


 7909 20aa 1E       		.uleb128 0x1e
 7910 20ab 5C040000 		.4byte	.LVL400
 7911 20af F6270000 		.4byte	0x27f6
 7912 20b3 C4200000 		.4byte	0x20c4
 7913 20b7 1C       		.uleb128 0x1c
 7914 20b8 01       		.uleb128 0x1
 7915 20b9 51       		.byte	0x51
 7916 20ba 02       		.uleb128 0x2
 7917 20bb 08       		.byte	0x8
 7918 20bc 2D       		.byte	0x2d
 7919 20bd 1C       		.uleb128 0x1c
 7920 20be 01       		.uleb128 0x1
 7921 20bf 50       		.byte	0x50
 7922 20c0 02       		.uleb128 0x2
 7923 20c1 75       		.byte	0x75
 7924 20c2 00       		.sleb128 0
 7925 20c3 00       		.byte	0
 7926 20c4 1E       		.uleb128 0x1e
 7927 20c5 6A040000 		.4byte	.LVL402
 7928 20c9 440D0000 		.4byte	0xd44
 7929 20cd E1200000 		.4byte	0x20e1
 7930 20d1 1C       		.uleb128 0x1c
 7931 20d2 01       		.uleb128 0x1
 7932 20d3 52       		.byte	0x52
 7933 20d4 05       		.uleb128 0x5
 7934 20d5 03       		.byte	0x3
 7935 20d6 10030000 		.4byte	.LC117
 7936 20da 1C       		.uleb128 0x1c
 7937 20db 01       		.uleb128 0x1
 7938 20dc 51       		.byte	0x51
 7939 20dd 02       		.uleb128 0x2
 7940 20de 74       		.byte	0x74
 7941 20df 00       		.sleb128 0
 7942 20e0 00       		.byte	0
 7943 20e1 1E       		.uleb128 0x1e
 7944 20e2 76040000 		.4byte	.LVL405
 7945 20e6 54280000 		.4byte	0x2854
 7946 20ea F5200000 		.4byte	0x20f5
 7947 20ee 1C       		.uleb128 0x1c
 7948 20ef 01       		.uleb128 0x1
 7949 20f0 50       		.byte	0x50
 7950 20f1 02       		.uleb128 0x2
 7951 20f2 75       		.byte	0x75
 7952 20f3 00       		.sleb128 0
 7953 20f4 00       		.byte	0
 7954 20f5 1E       		.uleb128 0x1e
 7955 20f6 82040000 		.4byte	.LVL406
 7956 20fa F6270000 		.4byte	0x27f6
 7957 20fe 0F210000 		.4byte	0x210f
 7958 2102 1C       		.uleb128 0x1c
 7959 2103 01       		.uleb128 0x1
 7960 2104 51       		.byte	0x51
 7961 2105 02       		.uleb128 0x2
 7962 2106 08       		.byte	0x8
 7963 2107 2D       		.byte	0x2d
 7964 2108 1C       		.uleb128 0x1c
 7965 2109 01       		.uleb128 0x1
ARM GAS  C:\Users\MM1005~1\AppData\Local\Temp\ccukbKgl.s 			page 170


 7966 210a 50       		.byte	0x50
 7967 210b 02       		.uleb128 0x2
 7968 210c 75       		.byte	0x75
 7969 210d 00       		.sleb128 0
 7970 210e 00       		.byte	0
 7971 210f 1E       		.uleb128 0x1e
 7972 2110 90040000 		.4byte	.LVL408
 7973 2114 440D0000 		.4byte	0xd44
 7974 2118 2C210000 		.4byte	0x212c
 7975 211c 1C       		.uleb128 0x1c
 7976 211d 01       		.uleb128 0x1
 7977 211e 52       		.byte	0x52
 7978 211f 05       		.uleb128 0x5
 7979 2120 03       		.byte	0x3
 7980 2121 10030000 		.4byte	.LC117
 7981 2125 1C       		.uleb128 0x1c
 7982 2126 01       		.uleb128 0x1
 7983 2127 51       		.byte	0x51
 7984 2128 02       		.uleb128 0x2
 7985 2129 74       		.byte	0x74
 7986 212a 00       		.sleb128 0
 7987 212b 00       		.byte	0
 7988 212c 1E       		.uleb128 0x1e
 7989 212d 9C040000 		.4byte	.LVL411
 7990 2131 54280000 		.4byte	0x2854
 7991 2135 40210000 		.4byte	0x2140
 7992 2139 1C       		.uleb128 0x1c
 7993 213a 01       		.uleb128 0x1
 7994 213b 50       		.byte	0x50
 7995 213c 02       		.uleb128 0x2
 7996 213d 75       		.byte	0x75
 7997 213e 00       		.sleb128 0
 7998 213f 00       		.byte	0
 7999 2140 1E       		.uleb128 0x1e
 8000 2141 AC040000 		.4byte	.LVL414
 8001 2145 F6270000 		.4byte	0x27f6
 8002 2149 5A210000 		.4byte	0x215a
 8003 214d 1C       		.uleb128 0x1c
 8004 214e 01       		.uleb128 0x1
 8005 214f 51       		.byte	0x51
 8006 2150 02       		.uleb128 0x2
 8007 2151 08       		.byte	0x8
 8008 2152 2D       		.byte	0x2d
 8009 2153 1C       		.uleb128 0x1c
 8010 2154 01       		.uleb128 0x1
 8011 2155 50       		.byte	0x50
 8012 2156 02       		.uleb128 0x2
 8013 2157 75       		.byte	0x75
 8014 2158 00       		.sleb128 0
 8015 2159 00       		.byte	0
 8016 215a 1E       		.uleb128 0x1e
 8017 215b BA040000 		.4byte	.LVL416
 8018 215f 440D0000 		.4byte	0xd44
 8019 2163 77210000 		.4byte	0x2177
 8020 2167 1C       		.uleb128 0x1c
 8021 2168 01       		.uleb128 0x1
 8022 2169 52       		.byte	0x52
ARM GAS  C:\Users\MM1005~1\AppData\Local\Temp\ccukbKgl.s 			page 171


 8023 216a 05       		.uleb128 0x5
 8024 216b 03       		.byte	0x3
 8025 216c 10030000 		.4byte	.LC117
 8026 2170 1C       		.uleb128 0x1c
 8027 2171 01       		.uleb128 0x1
 8028 2172 51       		.byte	0x51
 8029 2173 02       		.uleb128 0x2
 8030 2174 74       		.byte	0x74
 8031 2175 00       		.sleb128 0
 8032 2176 00       		.byte	0
 8033 2177 1E       		.uleb128 0x1e
 8034 2178 C6040000 		.4byte	.LVL419
 8035 217c 54280000 		.4byte	0x2854
 8036 2180 8B210000 		.4byte	0x218b
 8037 2184 1C       		.uleb128 0x1c
 8038 2185 01       		.uleb128 0x1
 8039 2186 50       		.byte	0x50
 8040 2187 02       		.uleb128 0x2
 8041 2188 75       		.byte	0x75
 8042 2189 00       		.sleb128 0
 8043 218a 00       		.byte	0
 8044 218b 1E       		.uleb128 0x1e
 8045 218c DA040000 		.4byte	.LVL421
 8046 2190 F6270000 		.4byte	0x27f6
 8047 2194 A5210000 		.4byte	0x21a5
 8048 2198 1C       		.uleb128 0x1c
 8049 2199 01       		.uleb128 0x1
 8050 219a 51       		.byte	0x51
 8051 219b 02       		.uleb128 0x2
 8052 219c 08       		.byte	0x8
 8053 219d 2D       		.byte	0x2d
 8054 219e 1C       		.uleb128 0x1c
 8055 219f 01       		.uleb128 0x1
 8056 21a0 50       		.byte	0x50
 8057 21a1 02       		.uleb128 0x2
 8058 21a2 75       		.byte	0x75
 8059 21a3 00       		.sleb128 0
 8060 21a4 00       		.byte	0
 8061 21a5 1E       		.uleb128 0x1e
 8062 21a6 E8040000 		.4byte	.LVL423
 8063 21aa 440D0000 		.4byte	0xd44
 8064 21ae C2210000 		.4byte	0x21c2
 8065 21b2 1C       		.uleb128 0x1c
 8066 21b3 01       		.uleb128 0x1
 8067 21b4 52       		.byte	0x52
 8068 21b5 05       		.uleb128 0x5
 8069 21b6 03       		.byte	0x3
 8070 21b7 10030000 		.4byte	.LC117
 8071 21bb 1C       		.uleb128 0x1c
 8072 21bc 01       		.uleb128 0x1
 8073 21bd 51       		.byte	0x51
 8074 21be 02       		.uleb128 0x2
 8075 21bf 74       		.byte	0x74
 8076 21c0 00       		.sleb128 0
 8077 21c1 00       		.byte	0
 8078 21c2 1E       		.uleb128 0x1e
 8079 21c3 F4040000 		.4byte	.LVL426
ARM GAS  C:\Users\MM1005~1\AppData\Local\Temp\ccukbKgl.s 			page 172


 8080 21c7 54280000 		.4byte	0x2854
 8081 21cb D6210000 		.4byte	0x21d6
 8082 21cf 1C       		.uleb128 0x1c
 8083 21d0 01       		.uleb128 0x1
 8084 21d1 50       		.byte	0x50
 8085 21d2 02       		.uleb128 0x2
 8086 21d3 75       		.byte	0x75
 8087 21d4 00       		.sleb128 0
 8088 21d5 00       		.byte	0
 8089 21d6 1E       		.uleb128 0x1e
 8090 21d7 00050000 		.4byte	.LVL427
 8091 21db F6270000 		.4byte	0x27f6
 8092 21df F0210000 		.4byte	0x21f0
 8093 21e3 1C       		.uleb128 0x1c
 8094 21e4 01       		.uleb128 0x1
 8095 21e5 51       		.byte	0x51
 8096 21e6 02       		.uleb128 0x2
 8097 21e7 08       		.byte	0x8
 8098 21e8 2D       		.byte	0x2d
 8099 21e9 1C       		.uleb128 0x1c
 8100 21ea 01       		.uleb128 0x1
 8101 21eb 50       		.byte	0x50
 8102 21ec 02       		.uleb128 0x2
 8103 21ed 75       		.byte	0x75
 8104 21ee 00       		.sleb128 0
 8105 21ef 00       		.byte	0
 8106 21f0 1E       		.uleb128 0x1e
 8107 21f1 0E050000 		.4byte	.LVL429
 8108 21f5 440D0000 		.4byte	0xd44
 8109 21f9 0D220000 		.4byte	0x220d
 8110 21fd 1C       		.uleb128 0x1c
 8111 21fe 01       		.uleb128 0x1
 8112 21ff 52       		.byte	0x52
 8113 2200 05       		.uleb128 0x5
 8114 2201 03       		.byte	0x3
 8115 2202 10030000 		.4byte	.LC117
 8116 2206 1C       		.uleb128 0x1c
 8117 2207 01       		.uleb128 0x1
 8118 2208 51       		.byte	0x51
 8119 2209 02       		.uleb128 0x2
 8120 220a 74       		.byte	0x74
 8121 220b 00       		.sleb128 0
 8122 220c 00       		.byte	0
 8123 220d 1E       		.uleb128 0x1e
 8124 220e 1A050000 		.4byte	.LVL432
 8125 2212 54280000 		.4byte	0x2854
 8126 2216 21220000 		.4byte	0x2221
 8127 221a 1C       		.uleb128 0x1c
 8128 221b 01       		.uleb128 0x1
 8129 221c 50       		.byte	0x50
 8130 221d 02       		.uleb128 0x2
 8131 221e 75       		.byte	0x75
 8132 221f 00       		.sleb128 0
 8133 2220 00       		.byte	0
 8134 2221 1E       		.uleb128 0x1e
 8135 2222 26050000 		.4byte	.LVL433
 8136 2226 F6270000 		.4byte	0x27f6
ARM GAS  C:\Users\MM1005~1\AppData\Local\Temp\ccukbKgl.s 			page 173


 8137 222a 3B220000 		.4byte	0x223b
 8138 222e 1C       		.uleb128 0x1c
 8139 222f 01       		.uleb128 0x1
 8140 2230 51       		.byte	0x51
 8141 2231 02       		.uleb128 0x2
 8142 2232 08       		.byte	0x8
 8143 2233 2D       		.byte	0x2d
 8144 2234 1C       		.uleb128 0x1c
 8145 2235 01       		.uleb128 0x1
 8146 2236 50       		.byte	0x50
 8147 2237 02       		.uleb128 0x2
 8148 2238 75       		.byte	0x75
 8149 2239 00       		.sleb128 0
 8150 223a 00       		.byte	0
 8151 223b 1E       		.uleb128 0x1e
 8152 223c 34050000 		.4byte	.LVL435
 8153 2240 440D0000 		.4byte	0xd44
 8154 2244 58220000 		.4byte	0x2258
 8155 2248 1C       		.uleb128 0x1c
 8156 2249 01       		.uleb128 0x1
 8157 224a 52       		.byte	0x52
 8158 224b 05       		.uleb128 0x5
 8159 224c 03       		.byte	0x3
 8160 224d 10030000 		.4byte	.LC117
 8161 2251 1C       		.uleb128 0x1c
 8162 2252 01       		.uleb128 0x1
 8163 2253 51       		.byte	0x51
 8164 2254 02       		.uleb128 0x2
 8165 2255 74       		.byte	0x74
 8166 2256 00       		.sleb128 0
 8167 2257 00       		.byte	0
 8168 2258 23       		.uleb128 0x23
 8169 2259 3E050000 		.4byte	.LVL438
 8170 225d 54280000 		.4byte	0x2854
 8171 2261 1E       		.uleb128 0x1e
 8172 2262 48050000 		.4byte	.LVL439
 8173 2266 7F280000 		.4byte	0x287f
 8174 226a 76220000 		.4byte	0x2276
 8175 226e 1C       		.uleb128 0x1c
 8176 226f 01       		.uleb128 0x1
 8177 2270 50       		.byte	0x50
 8178 2271 03       		.uleb128 0x3
 8179 2272 91       		.byte	0x91
 8180 2273 AC7F     		.sleb128 -84
 8181 2275 00       		.byte	0
 8182 2276 1E       		.uleb128 0x1e
 8183 2277 56050000 		.4byte	.LVL442
 8184 227b 440D0000 		.4byte	0xd44
 8185 227f 98220000 		.4byte	0x2298
 8186 2283 1C       		.uleb128 0x1c
 8187 2284 01       		.uleb128 0x1
 8188 2285 52       		.byte	0x52
 8189 2286 05       		.uleb128 0x5
 8190 2287 03       		.byte	0x3
 8191 2288 30030000 		.4byte	.LC119
 8192 228c 1C       		.uleb128 0x1c
 8193 228d 01       		.uleb128 0x1
ARM GAS  C:\Users\MM1005~1\AppData\Local\Temp\ccukbKgl.s 			page 174


 8194 228e 51       		.byte	0x51
 8195 228f 02       		.uleb128 0x2
 8196 2290 74       		.byte	0x74
 8197 2291 00       		.sleb128 0
 8198 2292 1C       		.uleb128 0x1c
 8199 2293 01       		.uleb128 0x1
 8200 2294 50       		.byte	0x50
 8201 2295 01       		.uleb128 0x1
 8202 2296 32       		.byte	0x32
 8203 2297 00       		.byte	0
 8204 2298 1E       		.uleb128 0x1e
 8205 2299 62050000 		.4byte	.LVL444
 8206 229d F6270000 		.4byte	0x27f6
 8207 22a1 B2220000 		.4byte	0x22b2
 8208 22a5 1C       		.uleb128 0x1c
 8209 22a6 01       		.uleb128 0x1
 8210 22a7 51       		.byte	0x51
 8211 22a8 02       		.uleb128 0x2
 8212 22a9 08       		.byte	0x8
 8213 22aa 2C       		.byte	0x2c
 8214 22ab 1C       		.uleb128 0x1c
 8215 22ac 01       		.uleb128 0x1
 8216 22ad 50       		.byte	0x50
 8217 22ae 02       		.uleb128 0x2
 8218 22af 75       		.byte	0x75
 8219 22b0 00       		.sleb128 0
 8220 22b1 00       		.byte	0
 8221 22b2 1E       		.uleb128 0x1e
 8222 22b3 70050000 		.4byte	.LVL446
 8223 22b7 440D0000 		.4byte	0xd44
 8224 22bb CF220000 		.4byte	0x22cf
 8225 22bf 1C       		.uleb128 0x1c
 8226 22c0 01       		.uleb128 0x1
 8227 22c1 52       		.byte	0x52
 8228 22c2 05       		.uleb128 0x5
 8229 22c3 03       		.byte	0x3
 8230 22c4 0C020000 		.4byte	.LC98
 8231 22c8 1C       		.uleb128 0x1c
 8232 22c9 01       		.uleb128 0x1
 8233 22ca 51       		.byte	0x51
 8234 22cb 02       		.uleb128 0x2
 8235 22cc 74       		.byte	0x74
 8236 22cd 00       		.sleb128 0
 8237 22ce 00       		.byte	0
 8238 22cf 1E       		.uleb128 0x1e
 8239 22d0 7C050000 		.4byte	.LVL449
 8240 22d4 F6270000 		.4byte	0x27f6
 8241 22d8 E3220000 		.4byte	0x22e3
 8242 22dc 1C       		.uleb128 0x1c
 8243 22dd 01       		.uleb128 0x1
 8244 22de 51       		.byte	0x51
 8245 22df 02       		.uleb128 0x2
 8246 22e0 08       		.byte	0x8
 8247 22e1 3A       		.byte	0x3a
 8248 22e2 00       		.byte	0
 8249 22e3 1E       		.uleb128 0x1e
 8250 22e4 8A050000 		.4byte	.LVL451
ARM GAS  C:\Users\MM1005~1\AppData\Local\Temp\ccukbKgl.s 			page 175


 8251 22e8 440D0000 		.4byte	0xd44
 8252 22ec 00230000 		.4byte	0x2300
 8253 22f0 1C       		.uleb128 0x1c
 8254 22f1 01       		.uleb128 0x1
 8255 22f2 52       		.byte	0x52
 8256 22f3 05       		.uleb128 0x5
 8257 22f4 03       		.byte	0x3
 8258 22f5 0C020000 		.4byte	.LC98
 8259 22f9 1C       		.uleb128 0x1c
 8260 22fa 01       		.uleb128 0x1
 8261 22fb 51       		.byte	0x51
 8262 22fc 02       		.uleb128 0x2
 8263 22fd 74       		.byte	0x74
 8264 22fe 00       		.sleb128 0
 8265 22ff 00       		.byte	0
 8266 2300 23       		.uleb128 0x23
 8267 2301 94050000 		.4byte	.LVL454
 8268 2305 3C0A0000 		.4byte	0xa3c
 8269 2309 1E       		.uleb128 0x1e
 8270 230a A2050000 		.4byte	.LVL456
 8271 230e D5170000 		.4byte	0x17d5
 8272 2312 1C230000 		.4byte	0x231c
 8273 2316 1C       		.uleb128 0x1c
 8274 2317 01       		.uleb128 0x1
 8275 2318 50       		.byte	0x50
 8276 2319 01       		.uleb128 0x1
 8277 231a 30       		.byte	0x30
 8278 231b 00       		.byte	0
 8279 231c 1E       		.uleb128 0x1e
 8280 231d AC050000 		.4byte	.LVL459
 8281 2321 D5170000 		.4byte	0x17d5
 8282 2325 2F230000 		.4byte	0x232f
 8283 2329 1C       		.uleb128 0x1c
 8284 232a 01       		.uleb128 0x1
 8285 232b 50       		.byte	0x50
 8286 232c 01       		.uleb128 0x1
 8287 232d 31       		.byte	0x31
 8288 232e 00       		.byte	0
 8289 232f 1E       		.uleb128 0x1e
 8290 2330 BA050000 		.4byte	.LVL462
 8291 2334 440D0000 		.4byte	0xd44
 8292 2338 51230000 		.4byte	0x2351
 8293 233c 1C       		.uleb128 0x1c
 8294 233d 01       		.uleb128 0x1
 8295 233e 52       		.byte	0x52
 8296 233f 05       		.uleb128 0x5
 8297 2340 03       		.byte	0x3
 8298 2341 0C020000 		.4byte	.LC98
 8299 2345 1C       		.uleb128 0x1c
 8300 2346 01       		.uleb128 0x1
 8301 2347 51       		.byte	0x51
 8302 2348 02       		.uleb128 0x2
 8303 2349 74       		.byte	0x74
 8304 234a 00       		.sleb128 0
 8305 234b 1C       		.uleb128 0x1c
 8306 234c 01       		.uleb128 0x1
 8307 234d 50       		.byte	0x50
ARM GAS  C:\Users\MM1005~1\AppData\Local\Temp\ccukbKgl.s 			page 176


 8308 234e 01       		.uleb128 0x1
 8309 234f 32       		.byte	0x32
 8310 2350 00       		.byte	0
 8311 2351 1E       		.uleb128 0x1e
 8312 2352 C6050000 		.4byte	.LVL464
 8313 2356 F6270000 		.4byte	0x27f6
 8314 235a 6B230000 		.4byte	0x236b
 8315 235e 1C       		.uleb128 0x1c
 8316 235f 01       		.uleb128 0x1
 8317 2360 51       		.byte	0x51
 8318 2361 02       		.uleb128 0x2
 8319 2362 08       		.byte	0x8
 8320 2363 2C       		.byte	0x2c
 8321 2364 1C       		.uleb128 0x1c
 8322 2365 01       		.uleb128 0x1
 8323 2366 50       		.byte	0x50
 8324 2367 02       		.uleb128 0x2
 8325 2368 75       		.byte	0x75
 8326 2369 00       		.sleb128 0
 8327 236a 00       		.byte	0
 8328 236b 1E       		.uleb128 0x1e
 8329 236c D4050000 		.4byte	.LVL466
 8330 2370 440D0000 		.4byte	0xd44
 8331 2374 88230000 		.4byte	0x2388
 8332 2378 1C       		.uleb128 0x1c
 8333 2379 01       		.uleb128 0x1
 8334 237a 52       		.byte	0x52
 8335 237b 05       		.uleb128 0x5
 8336 237c 03       		.byte	0x3
 8337 237d 48030000 		.4byte	.LC121
 8338 2381 1C       		.uleb128 0x1c
 8339 2382 01       		.uleb128 0x1
 8340 2383 51       		.byte	0x51
 8341 2384 02       		.uleb128 0x2
 8342 2385 74       		.byte	0x74
 8343 2386 00       		.sleb128 0
 8344 2387 00       		.byte	0
 8345 2388 1E       		.uleb128 0x1e
 8346 2389 E0050000 		.4byte	.LVL469
 8347 238d F6270000 		.4byte	0x27f6
 8348 2391 9C230000 		.4byte	0x239c
 8349 2395 1C       		.uleb128 0x1c
 8350 2396 01       		.uleb128 0x1
 8351 2397 51       		.byte	0x51
 8352 2398 02       		.uleb128 0x2
 8353 2399 08       		.byte	0x8
 8354 239a 3A       		.byte	0x3a
 8355 239b 00       		.byte	0
 8356 239c 1E       		.uleb128 0x1e
 8357 239d EE050000 		.4byte	.LVL471
 8358 23a1 440D0000 		.4byte	0xd44
 8359 23a5 B9230000 		.4byte	0x23b9
 8360 23a9 1C       		.uleb128 0x1c
 8361 23aa 01       		.uleb128 0x1
 8362 23ab 52       		.byte	0x52
 8363 23ac 05       		.uleb128 0x5
 8364 23ad 03       		.byte	0x3
ARM GAS  C:\Users\MM1005~1\AppData\Local\Temp\ccukbKgl.s 			page 177


 8365 23ae 48030000 		.4byte	.LC121
 8366 23b2 1C       		.uleb128 0x1c
 8367 23b3 01       		.uleb128 0x1
 8368 23b4 51       		.byte	0x51
 8369 23b5 02       		.uleb128 0x2
 8370 23b6 74       		.byte	0x74
 8371 23b7 00       		.sleb128 0
 8372 23b8 00       		.byte	0
 8373 23b9 23       		.uleb128 0x23
 8374 23ba F8050000 		.4byte	.LVL474
 8375 23be 960A0000 		.4byte	0xa96
 8376 23c2 1E       		.uleb128 0x1e
 8377 23c3 06060000 		.4byte	.LVL476
 8378 23c7 94150000 		.4byte	0x1594
 8379 23cb D5230000 		.4byte	0x23d5
 8380 23cf 1C       		.uleb128 0x1c
 8381 23d0 01       		.uleb128 0x1
 8382 23d1 50       		.byte	0x50
 8383 23d2 01       		.uleb128 0x1
 8384 23d3 30       		.byte	0x30
 8385 23d4 00       		.byte	0
 8386 23d5 1E       		.uleb128 0x1e
 8387 23d6 10060000 		.4byte	.LVL479
 8388 23da 94150000 		.4byte	0x1594
 8389 23de E8230000 		.4byte	0x23e8
 8390 23e2 1C       		.uleb128 0x1c
 8391 23e3 01       		.uleb128 0x1
 8392 23e4 50       		.byte	0x50
 8393 23e5 01       		.uleb128 0x1
 8394 23e6 31       		.byte	0x31
 8395 23e7 00       		.byte	0
 8396 23e8 1E       		.uleb128 0x1e
 8397 23e9 1E060000 		.4byte	.LVL482
 8398 23ed 440D0000 		.4byte	0xd44
 8399 23f1 0A240000 		.4byte	0x240a
 8400 23f5 1C       		.uleb128 0x1c
 8401 23f6 01       		.uleb128 0x1
 8402 23f7 52       		.byte	0x52
 8403 23f8 05       		.uleb128 0x5
 8404 23f9 03       		.byte	0x3
 8405 23fa 48030000 		.4byte	.LC121
 8406 23fe 1C       		.uleb128 0x1c
 8407 23ff 01       		.uleb128 0x1
 8408 2400 51       		.byte	0x51
 8409 2401 02       		.uleb128 0x2
 8410 2402 74       		.byte	0x74
 8411 2403 00       		.sleb128 0
 8412 2404 1C       		.uleb128 0x1c
 8413 2405 01       		.uleb128 0x1
 8414 2406 50       		.byte	0x50
 8415 2407 01       		.uleb128 0x1
 8416 2408 32       		.byte	0x32
 8417 2409 00       		.byte	0
 8418 240a 1E       		.uleb128 0x1e
 8419 240b 2A060000 		.4byte	.LVL484
 8420 240f F6270000 		.4byte	0x27f6
 8421 2413 24240000 		.4byte	0x2424
ARM GAS  C:\Users\MM1005~1\AppData\Local\Temp\ccukbKgl.s 			page 178


 8422 2417 1C       		.uleb128 0x1c
 8423 2418 01       		.uleb128 0x1
 8424 2419 51       		.byte	0x51
 8425 241a 02       		.uleb128 0x2
 8426 241b 08       		.byte	0x8
 8427 241c 2C       		.byte	0x2c
 8428 241d 1C       		.uleb128 0x1c
 8429 241e 01       		.uleb128 0x1
 8430 241f 50       		.byte	0x50
 8431 2420 02       		.uleb128 0x2
 8432 2421 75       		.byte	0x75
 8433 2422 00       		.sleb128 0
 8434 2423 00       		.byte	0
 8435 2424 1E       		.uleb128 0x1e
 8436 2425 38060000 		.4byte	.LVL486
 8437 2429 440D0000 		.4byte	0xd44
 8438 242d 41240000 		.4byte	0x2441
 8439 2431 1C       		.uleb128 0x1c
 8440 2432 01       		.uleb128 0x1
 8441 2433 52       		.byte	0x52
 8442 2434 05       		.uleb128 0x5
 8443 2435 03       		.byte	0x3
 8444 2436 68030000 		.4byte	.LC123
 8445 243a 1C       		.uleb128 0x1c
 8446 243b 01       		.uleb128 0x1
 8447 243c 51       		.byte	0x51
 8448 243d 02       		.uleb128 0x2
 8449 243e 74       		.byte	0x74
 8450 243f 00       		.sleb128 0
 8451 2440 00       		.byte	0
 8452 2441 1E       		.uleb128 0x1e
 8453 2442 44060000 		.4byte	.LVL489
 8454 2446 F6270000 		.4byte	0x27f6
 8455 244a 55240000 		.4byte	0x2455
 8456 244e 1C       		.uleb128 0x1c
 8457 244f 01       		.uleb128 0x1
 8458 2450 51       		.byte	0x51
 8459 2451 02       		.uleb128 0x2
 8460 2452 08       		.byte	0x8
 8461 2453 3A       		.byte	0x3a
 8462 2454 00       		.byte	0
 8463 2455 1E       		.uleb128 0x1e
 8464 2456 52060000 		.4byte	.LVL491
 8465 245a 440D0000 		.4byte	0xd44
 8466 245e 72240000 		.4byte	0x2472
 8467 2462 1C       		.uleb128 0x1c
 8468 2463 01       		.uleb128 0x1
 8469 2464 52       		.byte	0x52
 8470 2465 05       		.uleb128 0x5
 8471 2466 03       		.byte	0x3
 8472 2467 68030000 		.4byte	.LC123
 8473 246b 1C       		.uleb128 0x1c
 8474 246c 01       		.uleb128 0x1
 8475 246d 51       		.byte	0x51
 8476 246e 02       		.uleb128 0x2
 8477 246f 74       		.byte	0x74
 8478 2470 00       		.sleb128 0
ARM GAS  C:\Users\MM1005~1\AppData\Local\Temp\ccukbKgl.s 			page 179


 8479 2471 00       		.byte	0
 8480 2472 1E       		.uleb128 0x1e
 8481 2473 5E060000 		.4byte	.LVL494
 8482 2477 F00A0000 		.4byte	0xaf0
 8483 247b 86240000 		.4byte	0x2486
 8484 247f 1C       		.uleb128 0x1c
 8485 2480 01       		.uleb128 0x1
 8486 2481 50       		.byte	0x50
 8487 2482 02       		.uleb128 0x2
 8488 2483 75       		.byte	0x75
 8489 2484 00       		.sleb128 0
 8490 2485 00       		.byte	0
 8491 2486 1E       		.uleb128 0x1e
 8492 2487 72060000 		.4byte	.LVL496
 8493 248b 90280000 		.4byte	0x2890
 8494 248f 99240000 		.4byte	0x2499
 8495 2493 1C       		.uleb128 0x1c
 8496 2494 01       		.uleb128 0x1
 8497 2495 50       		.byte	0x50
 8498 2496 01       		.uleb128 0x1
 8499 2497 30       		.byte	0x30
 8500 2498 00       		.byte	0
 8501 2499 1E       		.uleb128 0x1e
 8502 249a 7C060000 		.4byte	.LVL499
 8503 249e 90280000 		.4byte	0x2890
 8504 24a2 AC240000 		.4byte	0x24ac
 8505 24a6 1C       		.uleb128 0x1c
 8506 24a7 01       		.uleb128 0x1
 8507 24a8 50       		.byte	0x50
 8508 24a9 01       		.uleb128 0x1
 8509 24aa 31       		.byte	0x31
 8510 24ab 00       		.byte	0
 8511 24ac 1E       		.uleb128 0x1e
 8512 24ad 88060000 		.4byte	.LVL502
 8513 24b1 F6270000 		.4byte	0x27f6
 8514 24b5 C6240000 		.4byte	0x24c6
 8515 24b9 1C       		.uleb128 0x1c
 8516 24ba 01       		.uleb128 0x1
 8517 24bb 51       		.byte	0x51
 8518 24bc 02       		.uleb128 0x2
 8519 24bd 08       		.byte	0x8
 8520 24be 2C       		.byte	0x2c
 8521 24bf 1C       		.uleb128 0x1c
 8522 24c0 01       		.uleb128 0x1
 8523 24c1 50       		.byte	0x50
 8524 24c2 02       		.uleb128 0x2
 8525 24c3 75       		.byte	0x75
 8526 24c4 00       		.sleb128 0
 8527 24c5 00       		.byte	0
 8528 24c6 1E       		.uleb128 0x1e
 8529 24c7 96060000 		.4byte	.LVL504
 8530 24cb 440D0000 		.4byte	0xd44
 8531 24cf E3240000 		.4byte	0x24e3
 8532 24d3 1C       		.uleb128 0x1c
 8533 24d4 01       		.uleb128 0x1
 8534 24d5 52       		.byte	0x52
 8535 24d6 05       		.uleb128 0x5
ARM GAS  C:\Users\MM1005~1\AppData\Local\Temp\ccukbKgl.s 			page 180


 8536 24d7 03       		.byte	0x3
 8537 24d8 68030000 		.4byte	.LC123
 8538 24dc 1C       		.uleb128 0x1c
 8539 24dd 01       		.uleb128 0x1
 8540 24de 51       		.byte	0x51
 8541 24df 02       		.uleb128 0x2
 8542 24e0 74       		.byte	0x74
 8543 24e1 00       		.sleb128 0
 8544 24e2 00       		.byte	0
 8545 24e3 1E       		.uleb128 0x1e
 8546 24e4 A2060000 		.4byte	.LVL507
 8547 24e8 F6270000 		.4byte	0x27f6
 8548 24ec F7240000 		.4byte	0x24f7
 8549 24f0 1C       		.uleb128 0x1c
 8550 24f1 01       		.uleb128 0x1
 8551 24f2 51       		.byte	0x51
 8552 24f3 02       		.uleb128 0x2
 8553 24f4 08       		.byte	0x8
 8554 24f5 3A       		.byte	0x3a
 8555 24f6 00       		.byte	0
 8556 24f7 1E       		.uleb128 0x1e
 8557 24f8 B0060000 		.4byte	.LVL509
 8558 24fc 440D0000 		.4byte	0xd44
 8559 2500 14250000 		.4byte	0x2514
 8560 2504 1C       		.uleb128 0x1c
 8561 2505 01       		.uleb128 0x1
 8562 2506 52       		.byte	0x52
 8563 2507 05       		.uleb128 0x5
 8564 2508 03       		.byte	0x3
 8565 2509 68030000 		.4byte	.LC123
 8566 250d 1C       		.uleb128 0x1c
 8567 250e 01       		.uleb128 0x1
 8568 250f 51       		.byte	0x51
 8569 2510 02       		.uleb128 0x2
 8570 2511 74       		.byte	0x74
 8571 2512 00       		.sleb128 0
 8572 2513 00       		.byte	0
 8573 2514 23       		.uleb128 0x23
 8574 2515 BA060000 		.4byte	.LVL512
 8575 2519 54280000 		.4byte	0x2854
 8576 251d 23       		.uleb128 0x23
 8577 251e C0060000 		.4byte	.LVL513
 8578 2522 A1280000 		.4byte	0x28a1
 8579 2526 1E       		.uleb128 0x1e
 8580 2527 CE060000 		.4byte	.LVL516
 8581 252b 440D0000 		.4byte	0xd44
 8582 252f 48250000 		.4byte	0x2548
 8583 2533 1C       		.uleb128 0x1c
 8584 2534 01       		.uleb128 0x1
 8585 2535 52       		.byte	0x52
 8586 2536 05       		.uleb128 0x5
 8587 2537 03       		.byte	0x3
 8588 2538 68030000 		.4byte	.LC123
 8589 253c 1C       		.uleb128 0x1c
 8590 253d 01       		.uleb128 0x1
 8591 253e 51       		.byte	0x51
 8592 253f 02       		.uleb128 0x2
ARM GAS  C:\Users\MM1005~1\AppData\Local\Temp\ccukbKgl.s 			page 181


 8593 2540 74       		.byte	0x74
 8594 2541 00       		.sleb128 0
 8595 2542 1C       		.uleb128 0x1c
 8596 2543 01       		.uleb128 0x1
 8597 2544 50       		.byte	0x50
 8598 2545 01       		.uleb128 0x1
 8599 2546 32       		.byte	0x32
 8600 2547 00       		.byte	0
 8601 2548 23       		.uleb128 0x23
 8602 2549 F4060000 		.4byte	.LVL518
 8603 254d B2280000 		.4byte	0x28b2
 8604 2551 1E       		.uleb128 0x1e
 8605 2552 FE060000 		.4byte	.LVL519
 8606 2556 440D0000 		.4byte	0xd44
 8607 255a 6D250000 		.4byte	0x256d
 8608 255e 1C       		.uleb128 0x1c
 8609 255f 01       		.uleb128 0x1
 8610 2560 51       		.byte	0x51
 8611 2561 05       		.uleb128 0x5
 8612 2562 03       		.byte	0x3
 8613 2563 84030000 		.4byte	.LC125
 8614 2567 1C       		.uleb128 0x1c
 8615 2568 01       		.uleb128 0x1
 8616 2569 50       		.byte	0x50
 8617 256a 01       		.uleb128 0x1
 8618 256b 31       		.byte	0x31
 8619 256c 00       		.byte	0
 8620 256d 1B       		.uleb128 0x1b
 8621 256e 0C070000 		.4byte	.LVL522
 8622 2572 440D0000 		.4byte	0xd44
 8623 2576 1C       		.uleb128 0x1c
 8624 2577 01       		.uleb128 0x1
 8625 2578 52       		.byte	0x52
 8626 2579 05       		.uleb128 0x5
 8627 257a 03       		.byte	0x3
 8628 257b 8C030000 		.4byte	.LC127
 8629 257f 1C       		.uleb128 0x1c
 8630 2580 01       		.uleb128 0x1
 8631 2581 51       		.byte	0x51
 8632 2582 02       		.uleb128 0x2
 8633 2583 74       		.byte	0x74
 8634 2584 00       		.sleb128 0
 8635 2585 1C       		.uleb128 0x1c
 8636 2586 01       		.uleb128 0x1
 8637 2587 50       		.byte	0x50
 8638 2588 01       		.uleb128 0x1
 8639 2589 32       		.byte	0x32
 8640 258a 00       		.byte	0
 8641 258b 00       		.byte	0
 8642 258c 0C       		.uleb128 0xc
 8643 258d 82000000 		.4byte	0x82
 8644 2591 9C250000 		.4byte	0x259c
 8645 2595 0D       		.uleb128 0xd
 8646 2596 CC000000 		.4byte	0xcc
 8647 259a 17       		.byte	0x17
 8648 259b 00       		.byte	0
 8649 259c 0C       		.uleb128 0xc
ARM GAS  C:\Users\MM1005~1\AppData\Local\Temp\ccukbKgl.s 			page 182


 8650 259d D7090000 		.4byte	0x9d7
 8651 25a1 AC250000 		.4byte	0x25ac
 8652 25a5 0D       		.uleb128 0xd
 8653 25a6 CC000000 		.4byte	0xcc
 8654 25aa 02       		.byte	0x2
 8655 25ab 00       		.byte	0
 8656 25ac 1D       		.uleb128 0x1d
 8657 25ad 6F100000 		.4byte	.LASF255
 8658 25b1 01       		.byte	0x1
 8659 25b2 12       		.byte	0x12
 8660 25b3 BD250000 		.4byte	0x25bd
 8661 25b7 05       		.uleb128 0x5
 8662 25b8 03       		.byte	0x3
 8663 25b9 28010000 		.4byte	vec_boot_commands
 8664 25bd 09       		.uleb128 0x9
 8665 25be 9C250000 		.4byte	0x259c
 8666 25c2 0C       		.uleb128 0xc
 8667 25c3 D7090000 		.4byte	0x9d7
 8668 25c7 D2250000 		.4byte	0x25d2
 8669 25cb 0D       		.uleb128 0xd
 8670 25cc CC000000 		.4byte	0xcc
 8671 25d0 03       		.byte	0x3
 8672 25d1 00       		.byte	0
 8673 25d2 1D       		.uleb128 0x1d
 8674 25d3 36050000 		.4byte	.LASF256
 8675 25d7 01       		.byte	0x1
 8676 25d8 15       		.byte	0x15
 8677 25d9 E3250000 		.4byte	0x25e3
 8678 25dd 05       		.uleb128 0x5
 8679 25de 03       		.byte	0x3
 8680 25df F8000000 		.4byte	vec_anim_commands
 8681 25e3 09       		.uleb128 0x9
 8682 25e4 C2250000 		.4byte	0x25c2
 8683 25e8 0C       		.uleb128 0xc
 8684 25e9 D7090000 		.4byte	0x9d7
 8685 25ed F8250000 		.4byte	0x25f8
 8686 25f1 0D       		.uleb128 0xd
 8687 25f2 CC000000 		.4byte	0xcc
 8688 25f6 01       		.byte	0x1
 8689 25f7 00       		.byte	0
 8690 25f8 1D       		.uleb128 0x1d
 8691 25f9 4F010000 		.4byte	.LASF257
 8692 25fd 01       		.byte	0x1
 8693 25fe 19       		.byte	0x19
 8694 25ff 09260000 		.4byte	0x2609
 8695 2603 05       		.uleb128 0x5
 8696 2604 03       		.byte	0x3
 8697 2605 A4000000 		.4byte	vec_sensor_commands
 8698 2609 09       		.uleb128 0x9
 8699 260a E8250000 		.4byte	0x25e8
 8700 260e 1D       		.uleb128 0x1d
 8701 260f A5080000 		.4byte	.LASF258
 8702 2613 01       		.byte	0x1
 8703 2614 1B       		.byte	0x1b
 8704 2615 1F260000 		.4byte	0x261f
 8705 2619 05       		.uleb128 0x5
 8706 261a 03       		.byte	0x3
ARM GAS  C:\Users\MM1005~1\AppData\Local\Temp\ccukbKgl.s 			page 183


 8707 261b BC000000 		.4byte	vec_telemetry_commands
 8708 261f 09       		.uleb128 0x9
 8709 2620 E8250000 		.4byte	0x25e8
 8710 2624 1D       		.uleb128 0x1d
 8711 2625 2E060000 		.4byte	.LASF259
 8712 2629 01       		.byte	0x1
 8713 262a 1D       		.byte	0x1d
 8714 262b 35260000 		.4byte	0x2635
 8715 262f 05       		.uleb128 0x5
 8716 2630 03       		.byte	0x3
 8717 2631 D4000000 		.4byte	vec_tracker_commands
 8718 2635 09       		.uleb128 0x9
 8719 2636 9C250000 		.4byte	0x259c
 8720 263a 0C       		.uleb128 0xc
 8721 263b D7090000 		.4byte	0x9d7
 8722 263f 4A260000 		.4byte	0x264a
 8723 2643 0D       		.uleb128 0xd
 8724 2644 CC000000 		.4byte	0xcc
 8725 2648 04       		.byte	0x4
 8726 2649 00       		.byte	0
 8727 264a 1D       		.uleb128 0x1d
 8728 264b 89100000 		.4byte	.LASF260
 8729 264f 01       		.byte	0x1
 8730 2650 20       		.byte	0x20
 8731 2651 5B260000 		.4byte	0x265b
 8732 2655 05       		.uleb128 0x5
 8733 2656 03       		.byte	0x3
 8734 2657 4C010000 		.4byte	vec_led_commands
 8735 265b 09       		.uleb128 0x9
 8736 265c 3A260000 		.4byte	0x263a
 8737 2660 0C       		.uleb128 0xc
 8738 2661 D7090000 		.4byte	0x9d7
 8739 2665 70260000 		.4byte	0x2670
 8740 2669 0D       		.uleb128 0xd
 8741 266a CC000000 		.4byte	0xcc
 8742 266e 08       		.byte	0x8
 8743 266f 00       		.byte	0
 8744 2670 1D       		.uleb128 0x1d
 8745 2671 54110000 		.4byte	.LASF261
 8746 2675 01       		.byte	0x1
 8747 2676 25       		.byte	0x25
 8748 2677 81260000 		.4byte	0x2681
 8749 267b 05       		.uleb128 0x5
 8750 267c 03       		.byte	0x3
 8751 267d 38000000 		.4byte	vec_commands
 8752 2681 09       		.uleb128 0x9
 8753 2682 60260000 		.4byte	0x2660
 8754 2686 1D       		.uleb128 0x1d
 8755 2687 FD0B0000 		.4byte	.LASF262
 8756 268b 01       		.byte	0x1
 8757 268c 2F       		.byte	0x2f
 8758 268d 76000000 		.4byte	0x76
 8759 2691 05       		.uleb128 0x5
 8760 2692 03       		.byte	0x3
 8761 2693 00000000 		.4byte	is_telemetry_enable
 8762 2697 1D       		.uleb128 0x1d
 8763 2698 A9010000 		.4byte	.LASF263
ARM GAS  C:\Users\MM1005~1\AppData\Local\Temp\ccukbKgl.s 			page 184


 8764 269c 01       		.byte	0x1
 8765 269d 30       		.byte	0x30
 8766 269e 76000000 		.4byte	0x76
 8767 26a2 05       		.uleb128 0x5
 8768 26a3 03       		.byte	0x3
 8769 26a4 04020000 		.4byte	is_sensor_telemetry_enable
 8770 26a8 0C       		.uleb128 0xc
 8771 26a9 A8000000 		.4byte	0xa8
 8772 26ad B9260000 		.4byte	0x26b9
 8773 26b1 2A       		.uleb128 0x2a
 8774 26b2 CC000000 		.4byte	0xcc
 8775 26b6 FF01     		.2byte	0x1ff
 8776 26b8 00       		.byte	0
 8777 26b9 1D       		.uleb128 0x1d
 8778 26ba 5A080000 		.4byte	.LASF203
 8779 26be 01       		.byte	0x1
 8780 26bf 31       		.byte	0x31
 8781 26c0 A8260000 		.4byte	0x26a8
 8782 26c4 05       		.uleb128 0x5
 8783 26c5 03       		.byte	0x3
 8784 26c6 04000000 		.4byte	telemetry
 8785 26ca 2B       		.uleb128 0x2b
 8786 26cb 9A040000 		.4byte	.LASF264
 8787 26cf 06       		.byte	0x6
 8788 26d0 7E04     		.2byte	0x47e
 8789 26d2 97050000 		.4byte	0x597
 8790 26d6 2B       		.uleb128 0x2b
 8791 26d7 EE0D0000 		.4byte	.LASF265
 8792 26db 06       		.byte	0x6
 8793 26dc 7F04     		.2byte	0x47f
 8794 26de E2260000 		.4byte	0x26e2
 8795 26e2 09       		.uleb128 0x9
 8796 26e3 B7060000 		.4byte	0x6b7
 8797 26e7 2C       		.uleb128 0x2c
 8798 26e8 7A030000 		.4byte	.LASF271
 8799 26ec 0D       		.byte	0xd
 8800 26ed 28       		.byte	0x28
 8801 26ee D5000000 		.4byte	0xd5
 8802 26f2 01270000 		.4byte	0x2701
 8803 26f6 2D       		.uleb128 0x2d
 8804 26f7 DB000000 		.4byte	0xdb
 8805 26fb 2D       		.uleb128 0x2d
 8806 26fc DB000000 		.4byte	0xdb
 8807 2700 00       		.byte	0
 8808 2701 2E       		.uleb128 0x2e
 8809 2702 980A0000 		.4byte	.LASF266
 8810 2706 09       		.byte	0x9
 8811 2707 47       		.byte	0x47
 8812 2708 17270000 		.4byte	0x2717
 8813 270c 2D       		.uleb128 0x2d
 8814 270d 88070000 		.4byte	0x788
 8815 2711 2D       		.uleb128 0x2d
 8816 2712 17270000 		.4byte	0x2717
 8817 2716 00       		.byte	0
 8818 2717 06       		.uleb128 0x6
 8819 2718 04       		.byte	0x4
 8820 2719 E6070000 		.4byte	0x7e6
ARM GAS  C:\Users\MM1005~1\AppData\Local\Temp\ccukbKgl.s 			page 185


 8821 271d 2F       		.uleb128 0x2f
 8822 271e 79010000 		.4byte	.LASF268
 8823 2722 0C       		.byte	0xc
 8824 2723 25       		.byte	0x25
 8825 2724 2E       		.uleb128 0x2e
 8826 2725 67120000 		.4byte	.LASF267
 8827 2729 0B       		.byte	0xb
 8828 272a 11       		.byte	0x11
 8829 272b 35270000 		.4byte	0x2735
 8830 272f 2D       		.uleb128 0x2d
 8831 2730 DB000000 		.4byte	0xdb
 8832 2734 00       		.byte	0
 8833 2735 2F       		.uleb128 0x2f
 8834 2736 53090000 		.4byte	.LASF269
 8835 273a 0C       		.byte	0xc
 8836 273b 23       		.byte	0x23
 8837 273c 30       		.uleb128 0x30
 8838 273d 3E0A0000 		.4byte	.LASF270
 8839 2741 D3000000 		.4byte	0xd3
 8840 2745 59270000 		.4byte	0x2759
 8841 2749 2D       		.uleb128 0x2d
 8842 274a D3000000 		.4byte	0xd3
 8843 274e 2D       		.uleb128 0x2d
 8844 274f 5D000000 		.4byte	0x5d
 8845 2753 2D       		.uleb128 0x2d
 8846 2754 CC000000 		.4byte	0xcc
 8847 2758 00       		.byte	0
 8848 2759 2C       		.uleb128 0x2c
 8849 275a 94030000 		.4byte	.LASF272
 8850 275e 0D       		.byte	0xd
 8851 275f 1A       		.byte	0x1a
 8852 2760 D5000000 		.4byte	0xd5
 8853 2764 73270000 		.4byte	0x2773
 8854 2768 2D       		.uleb128 0x2d
 8855 2769 D5000000 		.4byte	0xd5
 8856 276d 2D       		.uleb128 0x2d
 8857 276e DB000000 		.4byte	0xdb
 8858 2772 00       		.byte	0
 8859 2773 31       		.uleb128 0x31
 8860 2774 50040000 		.4byte	.LASF290
 8861 2778 0E       		.byte	0xe
 8862 2779 00       		.byte	0
 8863 277a 3D010000 		.4byte	.LASF291
 8864 277e 64000000 		.4byte	0x64
 8865 2782 8C270000 		.4byte	0x278c
 8866 2786 2D       		.uleb128 0x2d
 8867 2787 DB000000 		.4byte	0xdb
 8868 278b 00       		.byte	0
 8869 278c 30       		.uleb128 0x30
 8870 278d 61110000 		.4byte	.LASF273
 8871 2791 D3000000 		.4byte	0xd3
 8872 2795 A9270000 		.4byte	0x27a9
 8873 2799 2D       		.uleb128 0x2d
 8874 279a D3000000 		.4byte	0xd3
 8875 279e 2D       		.uleb128 0x2d
 8876 279f 70060000 		.4byte	0x670
 8877 27a3 2D       		.uleb128 0x2d
ARM GAS  C:\Users\MM1005~1\AppData\Local\Temp\ccukbKgl.s 			page 186


 8878 27a4 CC000000 		.4byte	0xcc
 8879 27a8 00       		.byte	0
 8880 27a9 2C       		.uleb128 0x2c
 8881 27aa 37100000 		.4byte	.LASF274
 8882 27ae 07       		.byte	0x7
 8883 27af 38       		.byte	0x38
 8884 27b0 D5000000 		.4byte	0xd5
 8885 27b4 BE270000 		.4byte	0x27be
 8886 27b8 2D       		.uleb128 0x2d
 8887 27b9 4F000000 		.4byte	0x4f
 8888 27bd 00       		.byte	0
 8889 27be 32       		.uleb128 0x32
 8890 27bf BD0C0000 		.4byte	.LASF275
 8891 27c3 07       		.byte	0x7
 8892 27c4 3E       		.byte	0x3e
 8893 27c5 6B000000 		.4byte	0x6b
 8894 27c9 CF270000 		.4byte	0x27cf
 8895 27cd 33       		.uleb128 0x33
 8896 27ce 00       		.byte	0
 8897 27cf 34       		.uleb128 0x34
 8898 27d0 95110000 		.4byte	.LASF292
 8899 27d4 0F       		.byte	0xf
 8900 27d5 4B01     		.2byte	0x14b
 8901 27d7 8E000000 		.4byte	0x8e
 8902 27db 35       		.uleb128 0x35
 8903 27dc 3B080000 		.4byte	.LASF276
 8904 27e0 06       		.byte	0x6
 8905 27e1 9404     		.2byte	0x494
 8906 27e3 8E000000 		.4byte	0x8e
 8907 27e7 F6270000 		.4byte	0x27f6
 8908 27eb 2D       		.uleb128 0x2d
 8909 27ec 8E000000 		.4byte	0x8e
 8910 27f0 2D       		.uleb128 0x2d
 8911 27f1 8E000000 		.4byte	0x8e
 8912 27f5 00       		.byte	0
 8913 27f6 2C       		.uleb128 0x2c
 8914 27f7 960E0000 		.4byte	.LASF277
 8915 27fb 0D       		.byte	0xd
 8916 27fc 1B       		.byte	0x1b
 8917 27fd D5000000 		.4byte	0xd5
 8918 2801 10280000 		.4byte	0x2810
 8919 2805 2D       		.uleb128 0x2d
 8920 2806 DB000000 		.4byte	0xdb
 8921 280a 2D       		.uleb128 0x2d
 8922 280b 5D000000 		.4byte	0x5d
 8923 280f 00       		.byte	0
 8924 2810 2E       		.uleb128 0x2e
 8925 2811 120F0000 		.4byte	.LASF278
 8926 2815 09       		.byte	0x9
 8927 2816 4B       		.byte	0x4b
 8928 2817 21280000 		.4byte	0x2821
 8929 281b 2D       		.uleb128 0x2d
 8930 281c 76000000 		.4byte	0x76
 8931 2820 00       		.byte	0
 8932 2821 2E       		.uleb128 0x2e
 8933 2822 D7000000 		.4byte	.LASF279
 8934 2826 09       		.byte	0x9
ARM GAS  C:\Users\MM1005~1\AppData\Local\Temp\ccukbKgl.s 			page 187


 8935 2827 4D       		.byte	0x4d
 8936 2828 32280000 		.4byte	0x2832
 8937 282c 2D       		.uleb128 0x2d
 8938 282d 76000000 		.4byte	0x76
 8939 2831 00       		.byte	0
 8940 2832 2E       		.uleb128 0x2e
 8941 2833 70080000 		.4byte	.LASF280
 8942 2837 09       		.byte	0x9
 8943 2838 49       		.byte	0x49
 8944 2839 43280000 		.4byte	0x2843
 8945 283d 2D       		.uleb128 0x2d
 8946 283e 88070000 		.4byte	0x788
 8947 2842 00       		.byte	0
 8948 2843 2E       		.uleb128 0x2e
 8949 2844 790F0000 		.4byte	.LASF281
 8950 2848 08       		.byte	0x8
 8951 2849 3C       		.byte	0x3c
 8952 284a 54280000 		.4byte	0x2854
 8953 284e 2D       		.uleb128 0x2d
 8954 284f 82000000 		.4byte	0x82
 8955 2853 00       		.byte	0
 8956 2854 2C       		.uleb128 0x2c
 8957 2855 68110000 		.4byte	.LASF282
 8958 2859 07       		.byte	0x7
 8959 285a 39       		.byte	0x39
 8960 285b 5D000000 		.4byte	0x5d
 8961 285f 69280000 		.4byte	0x2869
 8962 2863 2D       		.uleb128 0x2d
 8963 2864 D5000000 		.4byte	0xd5
 8964 2868 00       		.byte	0
 8965 2869 2E       		.uleb128 0x2e
 8966 286a F30A0000 		.4byte	.LASF283
 8967 286e 08       		.byte	0x8
 8968 286f 39       		.byte	0x39
 8969 2870 7F280000 		.4byte	0x287f
 8970 2874 2D       		.uleb128 0x2d
 8971 2875 A8000000 		.4byte	0xa8
 8972 2879 2D       		.uleb128 0x2d
 8973 287a 82000000 		.4byte	0x82
 8974 287e 00       		.byte	0
 8975 287f 2E       		.uleb128 0x2e
 8976 2880 9A020000 		.4byte	.LASF284
 8977 2884 08       		.byte	0x8
 8978 2885 3D       		.byte	0x3d
 8979 2886 90280000 		.4byte	0x2890
 8980 288a 2D       		.uleb128 0x2d
 8981 288b EC000000 		.4byte	0xec
 8982 288f 00       		.byte	0
 8983 2890 2E       		.uleb128 0x2e
 8984 2891 1F0D0000 		.4byte	.LASF285
 8985 2895 07       		.byte	0x7
 8986 2896 3B       		.byte	0x3b
 8987 2897 A1280000 		.4byte	0x28a1
 8988 289b 2D       		.uleb128 0x2d
 8989 289c 76000000 		.4byte	0x76
 8990 28a0 00       		.byte	0
 8991 28a1 2E       		.uleb128 0x2e
ARM GAS  C:\Users\MM1005~1\AppData\Local\Temp\ccukbKgl.s 			page 188


 8992 28a2 63010000 		.4byte	.LASF286
 8993 28a6 07       		.byte	0x7
 8994 28a7 3D       		.byte	0x3d
 8995 28a8 B2280000 		.4byte	0x28b2
 8996 28ac 2D       		.uleb128 0x2d
 8997 28ad 82000000 		.4byte	0x82
 8998 28b1 00       		.byte	0
 8999 28b2 36       		.uleb128 0x36
 9000 28b3 740A0000 		.4byte	.LASF293
 9001 28b7 07       		.byte	0x7
 9002 28b8 40       		.byte	0x40
 9003 28b9 DB000000 		.4byte	0xdb
 9004 28bd 33       		.uleb128 0x33
 9005 28be 00       		.byte	0
 9006 28bf 00       		.byte	0
 9007              		.section	.debug_abbrev,"",%progbits
 9008              	.Ldebug_abbrev0:
 9009 0000 01       		.uleb128 0x1
 9010 0001 11       		.uleb128 0x11
 9011 0002 01       		.byte	0x1
 9012 0003 25       		.uleb128 0x25
 9013 0004 0E       		.uleb128 0xe
 9014 0005 13       		.uleb128 0x13
 9015 0006 0B       		.uleb128 0xb
 9016 0007 03       		.uleb128 0x3
 9017 0008 0E       		.uleb128 0xe
 9018 0009 1B       		.uleb128 0x1b
 9019 000a 0E       		.uleb128 0xe
 9020 000b 55       		.uleb128 0x55
 9021 000c 17       		.uleb128 0x17
 9022 000d 11       		.uleb128 0x11
 9023 000e 01       		.uleb128 0x1
 9024 000f 10       		.uleb128 0x10
 9025 0010 17       		.uleb128 0x17
 9026 0011 00       		.byte	0
 9027 0012 00       		.byte	0
 9028 0013 02       		.uleb128 0x2
 9029 0014 24       		.uleb128 0x24
 9030 0015 00       		.byte	0
 9031 0016 0B       		.uleb128 0xb
 9032 0017 0B       		.uleb128 0xb
 9033 0018 3E       		.uleb128 0x3e
 9034 0019 0B       		.uleb128 0xb
 9035 001a 03       		.uleb128 0x3
 9036 001b 0E       		.uleb128 0xe
 9037 001c 00       		.byte	0
 9038 001d 00       		.byte	0
 9039 001e 03       		.uleb128 0x3
 9040 001f 24       		.uleb128 0x24
 9041 0020 00       		.byte	0
 9042 0021 0B       		.uleb128 0xb
 9043 0022 0B       		.uleb128 0xb
 9044 0023 3E       		.uleb128 0x3e
 9045 0024 0B       		.uleb128 0xb
 9046 0025 03       		.uleb128 0x3
 9047 0026 08       		.uleb128 0x8
 9048 0027 00       		.byte	0
ARM GAS  C:\Users\MM1005~1\AppData\Local\Temp\ccukbKgl.s 			page 189


 9049 0028 00       		.byte	0
 9050 0029 04       		.uleb128 0x4
 9051 002a 16       		.uleb128 0x16
 9052 002b 00       		.byte	0
 9053 002c 03       		.uleb128 0x3
 9054 002d 0E       		.uleb128 0xe
 9055 002e 3A       		.uleb128 0x3a
 9056 002f 0B       		.uleb128 0xb
 9057 0030 3B       		.uleb128 0x3b
 9058 0031 0B       		.uleb128 0xb
 9059 0032 49       		.uleb128 0x49
 9060 0033 13       		.uleb128 0x13
 9061 0034 00       		.byte	0
 9062 0035 00       		.byte	0
 9063 0036 05       		.uleb128 0x5
 9064 0037 16       		.uleb128 0x16
 9065 0038 00       		.byte	0
 9066 0039 03       		.uleb128 0x3
 9067 003a 0E       		.uleb128 0xe
 9068 003b 3A       		.uleb128 0x3a
 9069 003c 0B       		.uleb128 0xb
 9070 003d 3B       		.uleb128 0x3b
 9071 003e 05       		.uleb128 0x5
 9072 003f 49       		.uleb128 0x49
 9073 0040 13       		.uleb128 0x13
 9074 0041 00       		.byte	0
 9075 0042 00       		.byte	0
 9076 0043 06       		.uleb128 0x6
 9077 0044 0F       		.uleb128 0xf
 9078 0045 00       		.byte	0
 9079 0046 0B       		.uleb128 0xb
 9080 0047 0B       		.uleb128 0xb
 9081 0048 49       		.uleb128 0x49
 9082 0049 13       		.uleb128 0x13
 9083 004a 00       		.byte	0
 9084 004b 00       		.byte	0
 9085 004c 07       		.uleb128 0x7
 9086 004d 15       		.uleb128 0x15
 9087 004e 00       		.byte	0
 9088 004f 27       		.uleb128 0x27
 9089 0050 19       		.uleb128 0x19
 9090 0051 00       		.byte	0
 9091 0052 00       		.byte	0
 9092 0053 08       		.uleb128 0x8
 9093 0054 0F       		.uleb128 0xf
 9094 0055 00       		.byte	0
 9095 0056 0B       		.uleb128 0xb
 9096 0057 0B       		.uleb128 0xb
 9097 0058 00       		.byte	0
 9098 0059 00       		.byte	0
 9099 005a 09       		.uleb128 0x9
 9100 005b 26       		.uleb128 0x26
 9101 005c 00       		.byte	0
 9102 005d 49       		.uleb128 0x49
 9103 005e 13       		.uleb128 0x13
 9104 005f 00       		.byte	0
 9105 0060 00       		.byte	0
ARM GAS  C:\Users\MM1005~1\AppData\Local\Temp\ccukbKgl.s 			page 190


 9106 0061 0A       		.uleb128 0xa
 9107 0062 13       		.uleb128 0x13
 9108 0063 01       		.byte	0x1
 9109 0064 0B       		.uleb128 0xb
 9110 0065 0B       		.uleb128 0xb
 9111 0066 3A       		.uleb128 0x3a
 9112 0067 0B       		.uleb128 0xb
 9113 0068 3B       		.uleb128 0x3b
 9114 0069 0B       		.uleb128 0xb
 9115 006a 01       		.uleb128 0x1
 9116 006b 13       		.uleb128 0x13
 9117 006c 00       		.byte	0
 9118 006d 00       		.byte	0
 9119 006e 0B       		.uleb128 0xb
 9120 006f 0D       		.uleb128 0xd
 9121 0070 00       		.byte	0
 9122 0071 03       		.uleb128 0x3
 9123 0072 0E       		.uleb128 0xe
 9124 0073 3A       		.uleb128 0x3a
 9125 0074 0B       		.uleb128 0xb
 9126 0075 3B       		.uleb128 0x3b
 9127 0076 0B       		.uleb128 0xb
 9128 0077 49       		.uleb128 0x49
 9129 0078 13       		.uleb128 0x13
 9130 0079 38       		.uleb128 0x38
 9131 007a 0B       		.uleb128 0xb
 9132 007b 00       		.byte	0
 9133 007c 00       		.byte	0
 9134 007d 0C       		.uleb128 0xc
 9135 007e 01       		.uleb128 0x1
 9136 007f 01       		.byte	0x1
 9137 0080 49       		.uleb128 0x49
 9138 0081 13       		.uleb128 0x13
 9139 0082 01       		.uleb128 0x1
 9140 0083 13       		.uleb128 0x13
 9141 0084 00       		.byte	0
 9142 0085 00       		.byte	0
 9143 0086 0D       		.uleb128 0xd
 9144 0087 21       		.uleb128 0x21
 9145 0088 00       		.byte	0
 9146 0089 49       		.uleb128 0x49
 9147 008a 13       		.uleb128 0x13
 9148 008b 2F       		.uleb128 0x2f
 9149 008c 0B       		.uleb128 0xb
 9150 008d 00       		.byte	0
 9151 008e 00       		.byte	0
 9152 008f 0E       		.uleb128 0xe
 9153 0090 0D       		.uleb128 0xd
 9154 0091 00       		.byte	0
 9155 0092 03       		.uleb128 0x3
 9156 0093 0E       		.uleb128 0xe
 9157 0094 3A       		.uleb128 0x3a
 9158 0095 0B       		.uleb128 0xb
 9159 0096 3B       		.uleb128 0x3b
 9160 0097 05       		.uleb128 0x5
 9161 0098 49       		.uleb128 0x49
 9162 0099 13       		.uleb128 0x13
ARM GAS  C:\Users\MM1005~1\AppData\Local\Temp\ccukbKgl.s 			page 191


 9163 009a 38       		.uleb128 0x38
 9164 009b 0B       		.uleb128 0xb
 9165 009c 00       		.byte	0
 9166 009d 00       		.byte	0
 9167 009e 0F       		.uleb128 0xf
 9168 009f 13       		.uleb128 0x13
 9169 00a0 01       		.byte	0x1
 9170 00a1 0B       		.uleb128 0xb
 9171 00a2 0B       		.uleb128 0xb
 9172 00a3 3A       		.uleb128 0x3a
 9173 00a4 0B       		.uleb128 0xb
 9174 00a5 3B       		.uleb128 0x3b
 9175 00a6 05       		.uleb128 0x5
 9176 00a7 01       		.uleb128 0x1
 9177 00a8 13       		.uleb128 0x13
 9178 00a9 00       		.byte	0
 9179 00aa 00       		.byte	0
 9180 00ab 10       		.uleb128 0x10
 9181 00ac 0D       		.uleb128 0xd
 9182 00ad 00       		.byte	0
 9183 00ae 03       		.uleb128 0x3
 9184 00af 08       		.uleb128 0x8
 9185 00b0 3A       		.uleb128 0x3a
 9186 00b1 0B       		.uleb128 0xb
 9187 00b2 3B       		.uleb128 0x3b
 9188 00b3 05       		.uleb128 0x5
 9189 00b4 49       		.uleb128 0x49
 9190 00b5 13       		.uleb128 0x13
 9191 00b6 38       		.uleb128 0x38
 9192 00b7 0B       		.uleb128 0xb
 9193 00b8 00       		.byte	0
 9194 00b9 00       		.byte	0
 9195 00ba 11       		.uleb128 0x11
 9196 00bb 13       		.uleb128 0x13
 9197 00bc 01       		.byte	0x1
 9198 00bd 0B       		.uleb128 0xb
 9199 00be 05       		.uleb128 0x5
 9200 00bf 3A       		.uleb128 0x3a
 9201 00c0 0B       		.uleb128 0xb
 9202 00c1 3B       		.uleb128 0x3b
 9203 00c2 05       		.uleb128 0x5
 9204 00c3 01       		.uleb128 0x1
 9205 00c4 13       		.uleb128 0x13
 9206 00c5 00       		.byte	0
 9207 00c6 00       		.byte	0
 9208 00c7 12       		.uleb128 0x12
 9209 00c8 0D       		.uleb128 0xd
 9210 00c9 00       		.byte	0
 9211 00ca 03       		.uleb128 0x3
 9212 00cb 0E       		.uleb128 0xe
 9213 00cc 3A       		.uleb128 0x3a
 9214 00cd 0B       		.uleb128 0xb
 9215 00ce 3B       		.uleb128 0x3b
 9216 00cf 05       		.uleb128 0x5
 9217 00d0 49       		.uleb128 0x49
 9218 00d1 13       		.uleb128 0x13
 9219 00d2 38       		.uleb128 0x38
ARM GAS  C:\Users\MM1005~1\AppData\Local\Temp\ccukbKgl.s 			page 192


 9220 00d3 05       		.uleb128 0x5
 9221 00d4 00       		.byte	0
 9222 00d5 00       		.byte	0
 9223 00d6 13       		.uleb128 0x13
 9224 00d7 26       		.uleb128 0x26
 9225 00d8 00       		.byte	0
 9226 00d9 00       		.byte	0
 9227 00da 00       		.byte	0
 9228 00db 14       		.uleb128 0x14
 9229 00dc 04       		.uleb128 0x4
 9230 00dd 01       		.byte	0x1
 9231 00de 03       		.uleb128 0x3
 9232 00df 0E       		.uleb128 0xe
 9233 00e0 0B       		.uleb128 0xb
 9234 00e1 0B       		.uleb128 0xb
 9235 00e2 3A       		.uleb128 0x3a
 9236 00e3 0B       		.uleb128 0xb
 9237 00e4 3B       		.uleb128 0x3b
 9238 00e5 0B       		.uleb128 0xb
 9239 00e6 01       		.uleb128 0x1
 9240 00e7 13       		.uleb128 0x13
 9241 00e8 00       		.byte	0
 9242 00e9 00       		.byte	0
 9243 00ea 15       		.uleb128 0x15
 9244 00eb 28       		.uleb128 0x28
 9245 00ec 00       		.byte	0
 9246 00ed 03       		.uleb128 0x3
 9247 00ee 0E       		.uleb128 0xe
 9248 00ef 1C       		.uleb128 0x1c
 9249 00f0 0D       		.uleb128 0xd
 9250 00f1 00       		.byte	0
 9251 00f2 00       		.byte	0
 9252 00f3 16       		.uleb128 0x16
 9253 00f4 13       		.uleb128 0x13
 9254 00f5 01       		.byte	0x1
 9255 00f6 03       		.uleb128 0x3
 9256 00f7 0E       		.uleb128 0xe
 9257 00f8 0B       		.uleb128 0xb
 9258 00f9 0B       		.uleb128 0xb
 9259 00fa 3A       		.uleb128 0x3a
 9260 00fb 0B       		.uleb128 0xb
 9261 00fc 3B       		.uleb128 0x3b
 9262 00fd 0B       		.uleb128 0xb
 9263 00fe 01       		.uleb128 0x1
 9264 00ff 13       		.uleb128 0x13
 9265 0100 00       		.byte	0
 9266 0101 00       		.byte	0
 9267 0102 17       		.uleb128 0x17
 9268 0103 0D       		.uleb128 0xd
 9269 0104 00       		.byte	0
 9270 0105 03       		.uleb128 0x3
 9271 0106 08       		.uleb128 0x8
 9272 0107 3A       		.uleb128 0x3a
 9273 0108 0B       		.uleb128 0xb
 9274 0109 3B       		.uleb128 0x3b
 9275 010a 0B       		.uleb128 0xb
 9276 010b 49       		.uleb128 0x49
ARM GAS  C:\Users\MM1005~1\AppData\Local\Temp\ccukbKgl.s 			page 193


 9277 010c 13       		.uleb128 0x13
 9278 010d 38       		.uleb128 0x38
 9279 010e 0B       		.uleb128 0xb
 9280 010f 00       		.byte	0
 9281 0110 00       		.byte	0
 9282 0111 18       		.uleb128 0x18
 9283 0112 2E       		.uleb128 0x2e
 9284 0113 01       		.byte	0x1
 9285 0114 3F       		.uleb128 0x3f
 9286 0115 19       		.uleb128 0x19
 9287 0116 03       		.uleb128 0x3
 9288 0117 0E       		.uleb128 0xe
 9289 0118 3A       		.uleb128 0x3a
 9290 0119 0B       		.uleb128 0xb
 9291 011a 3B       		.uleb128 0x3b
 9292 011b 0B       		.uleb128 0xb
 9293 011c 27       		.uleb128 0x27
 9294 011d 19       		.uleb128 0x19
 9295 011e 49       		.uleb128 0x49
 9296 011f 13       		.uleb128 0x13
 9297 0120 11       		.uleb128 0x11
 9298 0121 01       		.uleb128 0x1
 9299 0122 12       		.uleb128 0x12
 9300 0123 06       		.uleb128 0x6
 9301 0124 40       		.uleb128 0x40
 9302 0125 18       		.uleb128 0x18
 9303 0126 9742     		.uleb128 0x2117
 9304 0128 19       		.uleb128 0x19
 9305 0129 01       		.uleb128 0x1
 9306 012a 13       		.uleb128 0x13
 9307 012b 00       		.byte	0
 9308 012c 00       		.byte	0
 9309 012d 19       		.uleb128 0x19
 9310 012e 05       		.uleb128 0x5
 9311 012f 00       		.byte	0
 9312 0130 03       		.uleb128 0x3
 9313 0131 0E       		.uleb128 0xe
 9314 0132 3A       		.uleb128 0x3a
 9315 0133 0B       		.uleb128 0xb
 9316 0134 3B       		.uleb128 0x3b
 9317 0135 0B       		.uleb128 0xb
 9318 0136 49       		.uleb128 0x49
 9319 0137 13       		.uleb128 0x13
 9320 0138 02       		.uleb128 0x2
 9321 0139 17       		.uleb128 0x17
 9322 013a 00       		.byte	0
 9323 013b 00       		.byte	0
 9324 013c 1A       		.uleb128 0x1a
 9325 013d 34       		.uleb128 0x34
 9326 013e 00       		.byte	0
 9327 013f 03       		.uleb128 0x3
 9328 0140 08       		.uleb128 0x8
 9329 0141 3A       		.uleb128 0x3a
 9330 0142 0B       		.uleb128 0xb
 9331 0143 3B       		.uleb128 0x3b
 9332 0144 0B       		.uleb128 0xb
 9333 0145 49       		.uleb128 0x49
ARM GAS  C:\Users\MM1005~1\AppData\Local\Temp\ccukbKgl.s 			page 194


 9334 0146 13       		.uleb128 0x13
 9335 0147 02       		.uleb128 0x2
 9336 0148 17       		.uleb128 0x17
 9337 0149 00       		.byte	0
 9338 014a 00       		.byte	0
 9339 014b 1B       		.uleb128 0x1b
 9340 014c 898201   		.uleb128 0x4109
 9341 014f 01       		.byte	0x1
 9342 0150 11       		.uleb128 0x11
 9343 0151 01       		.uleb128 0x1
 9344 0152 31       		.uleb128 0x31
 9345 0153 13       		.uleb128 0x13
 9346 0154 00       		.byte	0
 9347 0155 00       		.byte	0
 9348 0156 1C       		.uleb128 0x1c
 9349 0157 8A8201   		.uleb128 0x410a
 9350 015a 00       		.byte	0
 9351 015b 02       		.uleb128 0x2
 9352 015c 18       		.uleb128 0x18
 9353 015d 9142     		.uleb128 0x2111
 9354 015f 18       		.uleb128 0x18
 9355 0160 00       		.byte	0
 9356 0161 00       		.byte	0
 9357 0162 1D       		.uleb128 0x1d
 9358 0163 34       		.uleb128 0x34
 9359 0164 00       		.byte	0
 9360 0165 03       		.uleb128 0x3
 9361 0166 0E       		.uleb128 0xe
 9362 0167 3A       		.uleb128 0x3a
 9363 0168 0B       		.uleb128 0xb
 9364 0169 3B       		.uleb128 0x3b
 9365 016a 0B       		.uleb128 0xb
 9366 016b 49       		.uleb128 0x49
 9367 016c 13       		.uleb128 0x13
 9368 016d 02       		.uleb128 0x2
 9369 016e 18       		.uleb128 0x18
 9370 016f 00       		.byte	0
 9371 0170 00       		.byte	0
 9372 0171 1E       		.uleb128 0x1e
 9373 0172 898201   		.uleb128 0x4109
 9374 0175 01       		.byte	0x1
 9375 0176 11       		.uleb128 0x11
 9376 0177 01       		.uleb128 0x1
 9377 0178 31       		.uleb128 0x31
 9378 0179 13       		.uleb128 0x13
 9379 017a 01       		.uleb128 0x1
 9380 017b 13       		.uleb128 0x13
 9381 017c 00       		.byte	0
 9382 017d 00       		.byte	0
 9383 017e 1F       		.uleb128 0x1f
 9384 017f 2E       		.uleb128 0x2e
 9385 0180 00       		.byte	0
 9386 0181 3F       		.uleb128 0x3f
 9387 0182 19       		.uleb128 0x19
 9388 0183 03       		.uleb128 0x3
 9389 0184 0E       		.uleb128 0xe
 9390 0185 3A       		.uleb128 0x3a
ARM GAS  C:\Users\MM1005~1\AppData\Local\Temp\ccukbKgl.s 			page 195


 9391 0186 0B       		.uleb128 0xb
 9392 0187 3B       		.uleb128 0x3b
 9393 0188 05       		.uleb128 0x5
 9394 0189 27       		.uleb128 0x27
 9395 018a 19       		.uleb128 0x19
 9396 018b 11       		.uleb128 0x11
 9397 018c 01       		.uleb128 0x1
 9398 018d 12       		.uleb128 0x12
 9399 018e 06       		.uleb128 0x6
 9400 018f 40       		.uleb128 0x40
 9401 0190 18       		.uleb128 0x18
 9402 0191 9742     		.uleb128 0x2117
 9403 0193 19       		.uleb128 0x19
 9404 0194 00       		.byte	0
 9405 0195 00       		.byte	0
 9406 0196 20       		.uleb128 0x20
 9407 0197 2E       		.uleb128 0x2e
 9408 0198 00       		.byte	0
 9409 0199 3F       		.uleb128 0x3f
 9410 019a 19       		.uleb128 0x19
 9411 019b 03       		.uleb128 0x3
 9412 019c 0E       		.uleb128 0xe
 9413 019d 3A       		.uleb128 0x3a
 9414 019e 0B       		.uleb128 0xb
 9415 019f 3B       		.uleb128 0x3b
 9416 01a0 05       		.uleb128 0x5
 9417 01a1 49       		.uleb128 0x49
 9418 01a2 13       		.uleb128 0x13
 9419 01a3 11       		.uleb128 0x11
 9420 01a4 01       		.uleb128 0x1
 9421 01a5 12       		.uleb128 0x12
 9422 01a6 06       		.uleb128 0x6
 9423 01a7 40       		.uleb128 0x40
 9424 01a8 18       		.uleb128 0x18
 9425 01a9 9742     		.uleb128 0x2117
 9426 01ab 19       		.uleb128 0x19
 9427 01ac 00       		.byte	0
 9428 01ad 00       		.byte	0
 9429 01ae 21       		.uleb128 0x21
 9430 01af 2E       		.uleb128 0x2e
 9431 01b0 01       		.byte	0x1
 9432 01b1 3F       		.uleb128 0x3f
 9433 01b2 19       		.uleb128 0x19
 9434 01b3 03       		.uleb128 0x3
 9435 01b4 0E       		.uleb128 0xe
 9436 01b5 3A       		.uleb128 0x3a
 9437 01b6 0B       		.uleb128 0xb
 9438 01b7 3B       		.uleb128 0x3b
 9439 01b8 05       		.uleb128 0x5
 9440 01b9 27       		.uleb128 0x27
 9441 01ba 19       		.uleb128 0x19
 9442 01bb 11       		.uleb128 0x11
 9443 01bc 01       		.uleb128 0x1
 9444 01bd 12       		.uleb128 0x12
 9445 01be 06       		.uleb128 0x6
 9446 01bf 40       		.uleb128 0x40
 9447 01c0 18       		.uleb128 0x18
ARM GAS  C:\Users\MM1005~1\AppData\Local\Temp\ccukbKgl.s 			page 196


 9448 01c1 9742     		.uleb128 0x2117
 9449 01c3 19       		.uleb128 0x19
 9450 01c4 01       		.uleb128 0x1
 9451 01c5 13       		.uleb128 0x13
 9452 01c6 00       		.byte	0
 9453 01c7 00       		.byte	0
 9454 01c8 22       		.uleb128 0x22
 9455 01c9 05       		.uleb128 0x5
 9456 01ca 00       		.byte	0
 9457 01cb 03       		.uleb128 0x3
 9458 01cc 0E       		.uleb128 0xe
 9459 01cd 3A       		.uleb128 0x3a
 9460 01ce 0B       		.uleb128 0xb
 9461 01cf 3B       		.uleb128 0x3b
 9462 01d0 05       		.uleb128 0x5
 9463 01d1 49       		.uleb128 0x49
 9464 01d2 13       		.uleb128 0x13
 9465 01d3 02       		.uleb128 0x2
 9466 01d4 17       		.uleb128 0x17
 9467 01d5 00       		.byte	0
 9468 01d6 00       		.byte	0
 9469 01d7 23       		.uleb128 0x23
 9470 01d8 898201   		.uleb128 0x4109
 9471 01db 00       		.byte	0
 9472 01dc 11       		.uleb128 0x11
 9473 01dd 01       		.uleb128 0x1
 9474 01de 31       		.uleb128 0x31
 9475 01df 13       		.uleb128 0x13
 9476 01e0 00       		.byte	0
 9477 01e1 00       		.byte	0
 9478 01e2 24       		.uleb128 0x24
 9479 01e3 34       		.uleb128 0x34
 9480 01e4 00       		.byte	0
 9481 01e5 03       		.uleb128 0x3
 9482 01e6 0E       		.uleb128 0xe
 9483 01e7 3A       		.uleb128 0x3a
 9484 01e8 0B       		.uleb128 0xb
 9485 01e9 3B       		.uleb128 0x3b
 9486 01ea 05       		.uleb128 0x5
 9487 01eb 49       		.uleb128 0x49
 9488 01ec 13       		.uleb128 0x13
 9489 01ed 02       		.uleb128 0x2
 9490 01ee 18       		.uleb128 0x18
 9491 01ef 00       		.byte	0
 9492 01f0 00       		.byte	0
 9493 01f1 25       		.uleb128 0x25
 9494 01f2 34       		.uleb128 0x34
 9495 01f3 00       		.byte	0
 9496 01f4 03       		.uleb128 0x3
 9497 01f5 08       		.uleb128 0x8
 9498 01f6 3A       		.uleb128 0x3a
 9499 01f7 0B       		.uleb128 0xb
 9500 01f8 3B       		.uleb128 0x3b
 9501 01f9 05       		.uleb128 0x5
 9502 01fa 49       		.uleb128 0x49
 9503 01fb 13       		.uleb128 0x13
 9504 01fc 02       		.uleb128 0x2
ARM GAS  C:\Users\MM1005~1\AppData\Local\Temp\ccukbKgl.s 			page 197


 9505 01fd 17       		.uleb128 0x17
 9506 01fe 00       		.byte	0
 9507 01ff 00       		.byte	0
 9508 0200 26       		.uleb128 0x26
 9509 0201 34       		.uleb128 0x34
 9510 0202 00       		.byte	0
 9511 0203 03       		.uleb128 0x3
 9512 0204 0E       		.uleb128 0xe
 9513 0205 3A       		.uleb128 0x3a
 9514 0206 0B       		.uleb128 0xb
 9515 0207 3B       		.uleb128 0x3b
 9516 0208 05       		.uleb128 0x5
 9517 0209 49       		.uleb128 0x49
 9518 020a 13       		.uleb128 0x13
 9519 020b 02       		.uleb128 0x2
 9520 020c 17       		.uleb128 0x17
 9521 020d 00       		.byte	0
 9522 020e 00       		.byte	0
 9523 020f 27       		.uleb128 0x27
 9524 0210 05       		.uleb128 0x5
 9525 0211 00       		.byte	0
 9526 0212 03       		.uleb128 0x3
 9527 0213 0E       		.uleb128 0xe
 9528 0214 3A       		.uleb128 0x3a
 9529 0215 0B       		.uleb128 0xb
 9530 0216 3B       		.uleb128 0x3b
 9531 0217 05       		.uleb128 0x5
 9532 0218 49       		.uleb128 0x49
 9533 0219 13       		.uleb128 0x13
 9534 021a 02       		.uleb128 0x2
 9535 021b 18       		.uleb128 0x18
 9536 021c 00       		.byte	0
 9537 021d 00       		.byte	0
 9538 021e 28       		.uleb128 0x28
 9539 021f 34       		.uleb128 0x34
 9540 0220 00       		.byte	0
 9541 0221 03       		.uleb128 0x3
 9542 0222 0E       		.uleb128 0xe
 9543 0223 3A       		.uleb128 0x3a
 9544 0224 0B       		.uleb128 0xb
 9545 0225 3B       		.uleb128 0x3b
 9546 0226 05       		.uleb128 0x5
 9547 0227 49       		.uleb128 0x49
 9548 0228 13       		.uleb128 0x13
 9549 0229 00       		.byte	0
 9550 022a 00       		.byte	0
 9551 022b 29       		.uleb128 0x29
 9552 022c 34       		.uleb128 0x34
 9553 022d 00       		.byte	0
 9554 022e 03       		.uleb128 0x3
 9555 022f 0E       		.uleb128 0xe
 9556 0230 3A       		.uleb128 0x3a
 9557 0231 0B       		.uleb128 0xb
 9558 0232 3B       		.uleb128 0x3b
 9559 0233 0B       		.uleb128 0xb
 9560 0234 49       		.uleb128 0x49
 9561 0235 13       		.uleb128 0x13
ARM GAS  C:\Users\MM1005~1\AppData\Local\Temp\ccukbKgl.s 			page 198


 9562 0236 02       		.uleb128 0x2
 9563 0237 17       		.uleb128 0x17
 9564 0238 00       		.byte	0
 9565 0239 00       		.byte	0
 9566 023a 2A       		.uleb128 0x2a
 9567 023b 21       		.uleb128 0x21
 9568 023c 00       		.byte	0
 9569 023d 49       		.uleb128 0x49
 9570 023e 13       		.uleb128 0x13
 9571 023f 2F       		.uleb128 0x2f
 9572 0240 05       		.uleb128 0x5
 9573 0241 00       		.byte	0
 9574 0242 00       		.byte	0
 9575 0243 2B       		.uleb128 0x2b
 9576 0244 34       		.uleb128 0x34
 9577 0245 00       		.byte	0
 9578 0246 03       		.uleb128 0x3
 9579 0247 0E       		.uleb128 0xe
 9580 0248 3A       		.uleb128 0x3a
 9581 0249 0B       		.uleb128 0xb
 9582 024a 3B       		.uleb128 0x3b
 9583 024b 05       		.uleb128 0x5
 9584 024c 49       		.uleb128 0x49
 9585 024d 13       		.uleb128 0x13
 9586 024e 3F       		.uleb128 0x3f
 9587 024f 19       		.uleb128 0x19
 9588 0250 3C       		.uleb128 0x3c
 9589 0251 19       		.uleb128 0x19
 9590 0252 00       		.byte	0
 9591 0253 00       		.byte	0
 9592 0254 2C       		.uleb128 0x2c
 9593 0255 2E       		.uleb128 0x2e
 9594 0256 01       		.byte	0x1
 9595 0257 3F       		.uleb128 0x3f
 9596 0258 19       		.uleb128 0x19
 9597 0259 03       		.uleb128 0x3
 9598 025a 0E       		.uleb128 0xe
 9599 025b 3A       		.uleb128 0x3a
 9600 025c 0B       		.uleb128 0xb
 9601 025d 3B       		.uleb128 0x3b
 9602 025e 0B       		.uleb128 0xb
 9603 025f 27       		.uleb128 0x27
 9604 0260 19       		.uleb128 0x19
 9605 0261 49       		.uleb128 0x49
 9606 0262 13       		.uleb128 0x13
 9607 0263 3C       		.uleb128 0x3c
 9608 0264 19       		.uleb128 0x19
 9609 0265 01       		.uleb128 0x1
 9610 0266 13       		.uleb128 0x13
 9611 0267 00       		.byte	0
 9612 0268 00       		.byte	0
 9613 0269 2D       		.uleb128 0x2d
 9614 026a 05       		.uleb128 0x5
 9615 026b 00       		.byte	0
 9616 026c 49       		.uleb128 0x49
 9617 026d 13       		.uleb128 0x13
 9618 026e 00       		.byte	0
ARM GAS  C:\Users\MM1005~1\AppData\Local\Temp\ccukbKgl.s 			page 199


 9619 026f 00       		.byte	0
 9620 0270 2E       		.uleb128 0x2e
 9621 0271 2E       		.uleb128 0x2e
 9622 0272 01       		.byte	0x1
 9623 0273 3F       		.uleb128 0x3f
 9624 0274 19       		.uleb128 0x19
 9625 0275 03       		.uleb128 0x3
 9626 0276 0E       		.uleb128 0xe
 9627 0277 3A       		.uleb128 0x3a
 9628 0278 0B       		.uleb128 0xb
 9629 0279 3B       		.uleb128 0x3b
 9630 027a 0B       		.uleb128 0xb
 9631 027b 27       		.uleb128 0x27
 9632 027c 19       		.uleb128 0x19
 9633 027d 3C       		.uleb128 0x3c
 9634 027e 19       		.uleb128 0x19
 9635 027f 01       		.uleb128 0x1
 9636 0280 13       		.uleb128 0x13
 9637 0281 00       		.byte	0
 9638 0282 00       		.byte	0
 9639 0283 2F       		.uleb128 0x2f
 9640 0284 2E       		.uleb128 0x2e
 9641 0285 00       		.byte	0
 9642 0286 3F       		.uleb128 0x3f
 9643 0287 19       		.uleb128 0x19
 9644 0288 03       		.uleb128 0x3
 9645 0289 0E       		.uleb128 0xe
 9646 028a 3A       		.uleb128 0x3a
 9647 028b 0B       		.uleb128 0xb
 9648 028c 3B       		.uleb128 0x3b
 9649 028d 0B       		.uleb128 0xb
 9650 028e 27       		.uleb128 0x27
 9651 028f 19       		.uleb128 0x19
 9652 0290 3C       		.uleb128 0x3c
 9653 0291 19       		.uleb128 0x19
 9654 0292 00       		.byte	0
 9655 0293 00       		.byte	0
 9656 0294 30       		.uleb128 0x30
 9657 0295 2E       		.uleb128 0x2e
 9658 0296 01       		.byte	0x1
 9659 0297 3F       		.uleb128 0x3f
 9660 0298 19       		.uleb128 0x19
 9661 0299 03       		.uleb128 0x3
 9662 029a 0E       		.uleb128 0xe
 9663 029b 27       		.uleb128 0x27
 9664 029c 19       		.uleb128 0x19
 9665 029d 49       		.uleb128 0x49
 9666 029e 13       		.uleb128 0x13
 9667 029f 34       		.uleb128 0x34
 9668 02a0 19       		.uleb128 0x19
 9669 02a1 3C       		.uleb128 0x3c
 9670 02a2 19       		.uleb128 0x19
 9671 02a3 01       		.uleb128 0x1
 9672 02a4 13       		.uleb128 0x13
 9673 02a5 00       		.byte	0
 9674 02a6 00       		.byte	0
 9675 02a7 31       		.uleb128 0x31
ARM GAS  C:\Users\MM1005~1\AppData\Local\Temp\ccukbKgl.s 			page 200


 9676 02a8 2E       		.uleb128 0x2e
 9677 02a9 01       		.byte	0x1
 9678 02aa 3F       		.uleb128 0x3f
 9679 02ab 19       		.uleb128 0x19
 9680 02ac 03       		.uleb128 0x3
 9681 02ad 0E       		.uleb128 0xe
 9682 02ae 3A       		.uleb128 0x3a
 9683 02af 0B       		.uleb128 0xb
 9684 02b0 3B       		.uleb128 0x3b
 9685 02b1 0B       		.uleb128 0xb
 9686 02b2 6E       		.uleb128 0x6e
 9687 02b3 0E       		.uleb128 0xe
 9688 02b4 27       		.uleb128 0x27
 9689 02b5 19       		.uleb128 0x19
 9690 02b6 49       		.uleb128 0x49
 9691 02b7 13       		.uleb128 0x13
 9692 02b8 3C       		.uleb128 0x3c
 9693 02b9 19       		.uleb128 0x19
 9694 02ba 01       		.uleb128 0x1
 9695 02bb 13       		.uleb128 0x13
 9696 02bc 00       		.byte	0
 9697 02bd 00       		.byte	0
 9698 02be 32       		.uleb128 0x32
 9699 02bf 2E       		.uleb128 0x2e
 9700 02c0 01       		.byte	0x1
 9701 02c1 3F       		.uleb128 0x3f
 9702 02c2 19       		.uleb128 0x19
 9703 02c3 03       		.uleb128 0x3
 9704 02c4 0E       		.uleb128 0xe
 9705 02c5 3A       		.uleb128 0x3a
 9706 02c6 0B       		.uleb128 0xb
 9707 02c7 3B       		.uleb128 0x3b
 9708 02c8 0B       		.uleb128 0xb
 9709 02c9 49       		.uleb128 0x49
 9710 02ca 13       		.uleb128 0x13
 9711 02cb 3C       		.uleb128 0x3c
 9712 02cc 19       		.uleb128 0x19
 9713 02cd 01       		.uleb128 0x1
 9714 02ce 13       		.uleb128 0x13
 9715 02cf 00       		.byte	0
 9716 02d0 00       		.byte	0
 9717 02d1 33       		.uleb128 0x33
 9718 02d2 18       		.uleb128 0x18
 9719 02d3 00       		.byte	0
 9720 02d4 00       		.byte	0
 9721 02d5 00       		.byte	0
 9722 02d6 34       		.uleb128 0x34
 9723 02d7 2E       		.uleb128 0x2e
 9724 02d8 00       		.byte	0
 9725 02d9 3F       		.uleb128 0x3f
 9726 02da 19       		.uleb128 0x19
 9727 02db 03       		.uleb128 0x3
 9728 02dc 0E       		.uleb128 0xe
 9729 02dd 3A       		.uleb128 0x3a
 9730 02de 0B       		.uleb128 0xb
 9731 02df 3B       		.uleb128 0x3b
 9732 02e0 05       		.uleb128 0x5
ARM GAS  C:\Users\MM1005~1\AppData\Local\Temp\ccukbKgl.s 			page 201


 9733 02e1 27       		.uleb128 0x27
 9734 02e2 19       		.uleb128 0x19
 9735 02e3 49       		.uleb128 0x49
 9736 02e4 13       		.uleb128 0x13
 9737 02e5 3C       		.uleb128 0x3c
 9738 02e6 19       		.uleb128 0x19
 9739 02e7 00       		.byte	0
 9740 02e8 00       		.byte	0
 9741 02e9 35       		.uleb128 0x35
 9742 02ea 2E       		.uleb128 0x2e
 9743 02eb 01       		.byte	0x1
 9744 02ec 3F       		.uleb128 0x3f
 9745 02ed 19       		.uleb128 0x19
 9746 02ee 03       		.uleb128 0x3
 9747 02ef 0E       		.uleb128 0xe
 9748 02f0 3A       		.uleb128 0x3a
 9749 02f1 0B       		.uleb128 0xb
 9750 02f2 3B       		.uleb128 0x3b
 9751 02f3 05       		.uleb128 0x5
 9752 02f4 27       		.uleb128 0x27
 9753 02f5 19       		.uleb128 0x19
 9754 02f6 49       		.uleb128 0x49
 9755 02f7 13       		.uleb128 0x13
 9756 02f8 3C       		.uleb128 0x3c
 9757 02f9 19       		.uleb128 0x19
 9758 02fa 01       		.uleb128 0x1
 9759 02fb 13       		.uleb128 0x13
 9760 02fc 00       		.byte	0
 9761 02fd 00       		.byte	0
 9762 02fe 36       		.uleb128 0x36
 9763 02ff 2E       		.uleb128 0x2e
 9764 0300 01       		.byte	0x1
 9765 0301 3F       		.uleb128 0x3f
 9766 0302 19       		.uleb128 0x19
 9767 0303 03       		.uleb128 0x3
 9768 0304 0E       		.uleb128 0xe
 9769 0305 3A       		.uleb128 0x3a
 9770 0306 0B       		.uleb128 0xb
 9771 0307 3B       		.uleb128 0x3b
 9772 0308 0B       		.uleb128 0xb
 9773 0309 49       		.uleb128 0x49
 9774 030a 13       		.uleb128 0x13
 9775 030b 3C       		.uleb128 0x3c
 9776 030c 19       		.uleb128 0x19
 9777 030d 00       		.byte	0
 9778 030e 00       		.byte	0
 9779 030f 00       		.byte	0
 9780              		.section	.debug_loc,"",%progbits
 9781              	.Ldebug_loc0:
 9782              	.LLST0:
 9783 0000 00000000 		.4byte	.LVL0
 9784 0004 08000000 		.4byte	.LVL2
 9785 0008 0100     		.2byte	0x1
 9786 000a 50       		.byte	0x50
 9787 000b 08000000 		.4byte	.LVL2
 9788 000f 32000000 		.4byte	.LVL8
 9789 0013 0100     		.2byte	0x1
ARM GAS  C:\Users\MM1005~1\AppData\Local\Temp\ccukbKgl.s 			page 202


 9790 0015 54       		.byte	0x54
 9791 0016 32000000 		.4byte	.LVL8
 9792 001a 38000000 		.4byte	.LFE35
 9793 001e 0400     		.2byte	0x4
 9794 0020 F3       		.byte	0xf3
 9795 0021 01       		.uleb128 0x1
 9796 0022 50       		.byte	0x50
 9797 0023 9F       		.byte	0x9f
 9798 0024 00000000 		.4byte	0
 9799 0028 00000000 		.4byte	0
 9800              	.LLST1:
 9801 002c 04000000 		.4byte	.LVL1
 9802 0030 08000000 		.4byte	.LVL2
 9803 0034 0200     		.2byte	0x2
 9804 0036 30       		.byte	0x30
 9805 0037 9F       		.byte	0x9f
 9806 0038 08000000 		.4byte	.LVL2
 9807 003c 22000000 		.4byte	.LVL4
 9808 0040 0100     		.2byte	0x1
 9809 0042 55       		.byte	0x55
 9810 0043 2A000000 		.4byte	.LVL5
 9811 0047 32000000 		.4byte	.LVL7
 9812 004b 0100     		.2byte	0x1
 9813 004d 55       		.byte	0x55
 9814 004e 00000000 		.4byte	0
 9815 0052 00000000 		.4byte	0
 9816              	.LLST2:
 9817 0056 00000000 		.4byte	.LVL9
 9818 005a 08000000 		.4byte	.LVL11
 9819 005e 0100     		.2byte	0x1
 9820 0060 50       		.byte	0x50
 9821 0061 08000000 		.4byte	.LVL11
 9822 0065 36000000 		.4byte	.LVL17
 9823 0069 0100     		.2byte	0x1
 9824 006b 54       		.byte	0x54
 9825 006c 36000000 		.4byte	.LVL17
 9826 0070 3C000000 		.4byte	.LFE36
 9827 0074 0400     		.2byte	0x4
 9828 0076 F3       		.byte	0xf3
 9829 0077 01       		.uleb128 0x1
 9830 0078 50       		.byte	0x50
 9831 0079 9F       		.byte	0x9f
 9832 007a 00000000 		.4byte	0
 9833 007e 00000000 		.4byte	0
 9834              	.LLST3:
 9835 0082 04000000 		.4byte	.LVL10
 9836 0086 08000000 		.4byte	.LVL11
 9837 008a 0200     		.2byte	0x2
 9838 008c 30       		.byte	0x30
 9839 008d 9F       		.byte	0x9f
 9840 008e 08000000 		.4byte	.LVL11
 9841 0092 22000000 		.4byte	.LVL13
 9842 0096 0100     		.2byte	0x1
 9843 0098 55       		.byte	0x55
 9844 0099 2E000000 		.4byte	.LVL14
 9845 009d 36000000 		.4byte	.LVL16
 9846 00a1 0100     		.2byte	0x1
ARM GAS  C:\Users\MM1005~1\AppData\Local\Temp\ccukbKgl.s 			page 203


 9847 00a3 55       		.byte	0x55
 9848 00a4 00000000 		.4byte	0
 9849 00a8 00000000 		.4byte	0
 9850              	.LLST4:
 9851 00ac 00000000 		.4byte	.LVL18
 9852 00b0 08000000 		.4byte	.LVL20
 9853 00b4 0100     		.2byte	0x1
 9854 00b6 50       		.byte	0x50
 9855 00b7 08000000 		.4byte	.LVL20
 9856 00bb 34000000 		.4byte	.LVL26
 9857 00bf 0100     		.2byte	0x1
 9858 00c1 54       		.byte	0x54
 9859 00c2 34000000 		.4byte	.LVL26
 9860 00c6 3C000000 		.4byte	.LFE37
 9861 00ca 0400     		.2byte	0x4
 9862 00cc F3       		.byte	0xf3
 9863 00cd 01       		.uleb128 0x1
 9864 00ce 50       		.byte	0x50
 9865 00cf 9F       		.byte	0x9f
 9866 00d0 00000000 		.4byte	0
 9867 00d4 00000000 		.4byte	0
 9868              	.LLST5:
 9869 00d8 04000000 		.4byte	.LVL19
 9870 00dc 08000000 		.4byte	.LVL20
 9871 00e0 0200     		.2byte	0x2
 9872 00e2 30       		.byte	0x30
 9873 00e3 9F       		.byte	0x9f
 9874 00e4 08000000 		.4byte	.LVL20
 9875 00e8 22000000 		.4byte	.LVL22
 9876 00ec 0100     		.2byte	0x1
 9877 00ee 55       		.byte	0x55
 9878 00ef 2C000000 		.4byte	.LVL23
 9879 00f3 34000000 		.4byte	.LVL25
 9880 00f7 0100     		.2byte	0x1
 9881 00f9 55       		.byte	0x55
 9882 00fa 00000000 		.4byte	0
 9883 00fe 00000000 		.4byte	0
 9884              	.LLST6:
 9885 0102 00000000 		.4byte	.LVL27
 9886 0106 08000000 		.4byte	.LVL29
 9887 010a 0100     		.2byte	0x1
 9888 010c 50       		.byte	0x50
 9889 010d 08000000 		.4byte	.LVL29
 9890 0111 34000000 		.4byte	.LVL35
 9891 0115 0100     		.2byte	0x1
 9892 0117 54       		.byte	0x54
 9893 0118 34000000 		.4byte	.LVL35
 9894 011c 3C000000 		.4byte	.LFE38
 9895 0120 0400     		.2byte	0x4
 9896 0122 F3       		.byte	0xf3
 9897 0123 01       		.uleb128 0x1
 9898 0124 50       		.byte	0x50
 9899 0125 9F       		.byte	0x9f
 9900 0126 00000000 		.4byte	0
 9901 012a 00000000 		.4byte	0
 9902              	.LLST7:
 9903 012e 04000000 		.4byte	.LVL28
ARM GAS  C:\Users\MM1005~1\AppData\Local\Temp\ccukbKgl.s 			page 204


 9904 0132 08000000 		.4byte	.LVL29
 9905 0136 0200     		.2byte	0x2
 9906 0138 30       		.byte	0x30
 9907 0139 9F       		.byte	0x9f
 9908 013a 08000000 		.4byte	.LVL29
 9909 013e 22000000 		.4byte	.LVL31
 9910 0142 0100     		.2byte	0x1
 9911 0144 55       		.byte	0x55
 9912 0145 2C000000 		.4byte	.LVL32
 9913 0149 34000000 		.4byte	.LVL34
 9914 014d 0100     		.2byte	0x1
 9915 014f 55       		.byte	0x55
 9916 0150 00000000 		.4byte	0
 9917 0154 00000000 		.4byte	0
 9918              	.LLST8:
 9919 0158 00000000 		.4byte	.LVL36
 9920 015c 08000000 		.4byte	.LVL38
 9921 0160 0100     		.2byte	0x1
 9922 0162 50       		.byte	0x50
 9923 0163 08000000 		.4byte	.LVL38
 9924 0167 36000000 		.4byte	.LVL44
 9925 016b 0100     		.2byte	0x1
 9926 016d 54       		.byte	0x54
 9927 016e 36000000 		.4byte	.LVL44
 9928 0172 3C000000 		.4byte	.LFE39
 9929 0176 0400     		.2byte	0x4
 9930 0178 F3       		.byte	0xf3
 9931 0179 01       		.uleb128 0x1
 9932 017a 50       		.byte	0x50
 9933 017b 9F       		.byte	0x9f
 9934 017c 00000000 		.4byte	0
 9935 0180 00000000 		.4byte	0
 9936              	.LLST9:
 9937 0184 04000000 		.4byte	.LVL37
 9938 0188 08000000 		.4byte	.LVL38
 9939 018c 0200     		.2byte	0x2
 9940 018e 30       		.byte	0x30
 9941 018f 9F       		.byte	0x9f
 9942 0190 08000000 		.4byte	.LVL38
 9943 0194 22000000 		.4byte	.LVL40
 9944 0198 0100     		.2byte	0x1
 9945 019a 55       		.byte	0x55
 9946 019b 2E000000 		.4byte	.LVL41
 9947 019f 36000000 		.4byte	.LVL43
 9948 01a3 0100     		.2byte	0x1
 9949 01a5 55       		.byte	0x55
 9950 01a6 00000000 		.4byte	0
 9951 01aa 00000000 		.4byte	0
 9952              	.LLST10:
 9953 01ae 00000000 		.4byte	.LVL45
 9954 01b2 0A000000 		.4byte	.LVL47
 9955 01b6 0100     		.2byte	0x1
 9956 01b8 50       		.byte	0x50
 9957 01b9 0A000000 		.4byte	.LVL47
 9958 01bd 2E000000 		.4byte	.LVL52
 9959 01c1 0100     		.2byte	0x1
 9960 01c3 55       		.byte	0x55
ARM GAS  C:\Users\MM1005~1\AppData\Local\Temp\ccukbKgl.s 			page 205


 9961 01c4 2E000000 		.4byte	.LVL52
 9962 01c8 30000000 		.4byte	.LFE40
 9963 01cc 0400     		.2byte	0x4
 9964 01ce F3       		.byte	0xf3
 9965 01cf 01       		.uleb128 0x1
 9966 01d0 50       		.byte	0x50
 9967 01d1 9F       		.byte	0x9f
 9968 01d2 00000000 		.4byte	0
 9969 01d6 00000000 		.4byte	0
 9970              	.LLST11:
 9971 01da 06000000 		.4byte	.LVL46
 9972 01de 0A000000 		.4byte	.LVL47
 9973 01e2 0200     		.2byte	0x2
 9974 01e4 30       		.byte	0x30
 9975 01e5 9F       		.byte	0x9f
 9976 01e6 0A000000 		.4byte	.LVL47
 9977 01ea 2E000000 		.4byte	.LVL51
 9978 01ee 0100     		.2byte	0x1
 9979 01f0 54       		.byte	0x54
 9980 01f1 00000000 		.4byte	0
 9981 01f5 00000000 		.4byte	0
 9982              	.LLST12:
 9983 01f9 00000000 		.4byte	.LVL53
 9984 01fd 08000000 		.4byte	.LVL55
 9985 0201 0100     		.2byte	0x1
 9986 0203 50       		.byte	0x50
 9987 0204 08000000 		.4byte	.LVL55
 9988 0208 36000000 		.4byte	.LVL61
 9989 020c 0100     		.2byte	0x1
 9990 020e 54       		.byte	0x54
 9991 020f 36000000 		.4byte	.LVL61
 9992 0213 3C000000 		.4byte	.LFE41
 9993 0217 0400     		.2byte	0x4
 9994 0219 F3       		.byte	0xf3
 9995 021a 01       		.uleb128 0x1
 9996 021b 50       		.byte	0x50
 9997 021c 9F       		.byte	0x9f
 9998 021d 00000000 		.4byte	0
 9999 0221 00000000 		.4byte	0
 10000              	.LLST13:
 10001 0225 04000000 		.4byte	.LVL54
 10002 0229 08000000 		.4byte	.LVL55
 10003 022d 0200     		.2byte	0x2
 10004 022f 30       		.byte	0x30
 10005 0230 9F       		.byte	0x9f
 10006 0231 08000000 		.4byte	.LVL55
 10007 0235 22000000 		.4byte	.LVL57
 10008 0239 0100     		.2byte	0x1
 10009 023b 55       		.byte	0x55
 10010 023c 2E000000 		.4byte	.LVL58
 10011 0240 36000000 		.4byte	.LVL60
 10012 0244 0100     		.2byte	0x1
 10013 0246 55       		.byte	0x55
 10014 0247 00000000 		.4byte	0
 10015 024b 00000000 		.4byte	0
 10016              	.LLST14:
 10017 024f 00000000 		.4byte	.LVL62
ARM GAS  C:\Users\MM1005~1\AppData\Local\Temp\ccukbKgl.s 			page 206


 10018 0253 08000000 		.4byte	.LVL64
 10019 0257 0100     		.2byte	0x1
 10020 0259 50       		.byte	0x50
 10021 025a 08000000 		.4byte	.LVL64
 10022 025e 34000000 		.4byte	.LVL70
 10023 0262 0100     		.2byte	0x1
 10024 0264 54       		.byte	0x54
 10025 0265 34000000 		.4byte	.LVL70
 10026 0269 3C000000 		.4byte	.LFE42
 10027 026d 0400     		.2byte	0x4
 10028 026f F3       		.byte	0xf3
 10029 0270 01       		.uleb128 0x1
 10030 0271 50       		.byte	0x50
 10031 0272 9F       		.byte	0x9f
 10032 0273 00000000 		.4byte	0
 10033 0277 00000000 		.4byte	0
 10034              	.LLST15:
 10035 027b 04000000 		.4byte	.LVL63
 10036 027f 08000000 		.4byte	.LVL64
 10037 0283 0200     		.2byte	0x2
 10038 0285 30       		.byte	0x30
 10039 0286 9F       		.byte	0x9f
 10040 0287 08000000 		.4byte	.LVL64
 10041 028b 22000000 		.4byte	.LVL66
 10042 028f 0100     		.2byte	0x1
 10043 0291 55       		.byte	0x55
 10044 0292 2C000000 		.4byte	.LVL67
 10045 0296 34000000 		.4byte	.LVL69
 10046 029a 0100     		.2byte	0x1
 10047 029c 55       		.byte	0x55
 10048 029d 00000000 		.4byte	0
 10049 02a1 00000000 		.4byte	0
 10050              	.LLST16:
 10051 02a5 00000000 		.4byte	.LVL71
 10052 02a9 07000000 		.4byte	.LVL72-1
 10053 02ad 0100     		.2byte	0x1
 10054 02af 50       		.byte	0x50
 10055 02b0 07000000 		.4byte	.LVL72-1
 10056 02b4 1A000000 		.4byte	.LVL76
 10057 02b8 0100     		.2byte	0x1
 10058 02ba 54       		.byte	0x54
 10059 02bb 1A000000 		.4byte	.LVL76
 10060 02bf 1C000000 		.4byte	.LFE51
 10061 02c3 0400     		.2byte	0x4
 10062 02c5 F3       		.byte	0xf3
 10063 02c6 01       		.uleb128 0x1
 10064 02c7 50       		.byte	0x50
 10065 02c8 9F       		.byte	0x9f
 10066 02c9 00000000 		.4byte	0
 10067 02cd 00000000 		.4byte	0
 10068              	.LLST17:
 10069 02d1 00000000 		.4byte	.LVL77
 10070 02d5 1A000000 		.4byte	.LVL79
 10071 02d9 0100     		.2byte	0x1
 10072 02db 50       		.byte	0x50
 10073 02dc 1A000000 		.4byte	.LVL79
 10074 02e0 B8000000 		.4byte	.LFE45
ARM GAS  C:\Users\MM1005~1\AppData\Local\Temp\ccukbKgl.s 			page 207


 10075 02e4 0400     		.2byte	0x4
 10076 02e6 F3       		.byte	0xf3
 10077 02e7 01       		.uleb128 0x1
 10078 02e8 50       		.byte	0x50
 10079 02e9 9F       		.byte	0x9f
 10080 02ea 00000000 		.4byte	0
 10081 02ee 00000000 		.4byte	0
 10082              	.LLST18:
 10083 02f2 00000000 		.4byte	.LVL77
 10084 02f6 1A000000 		.4byte	.LVL79
 10085 02fa 0100     		.2byte	0x1
 10086 02fc 51       		.byte	0x51
 10087 02fd 1A000000 		.4byte	.LVL79
 10088 0301 98000000 		.4byte	.LVL91
 10089 0305 0100     		.2byte	0x1
 10090 0307 56       		.byte	0x56
 10091 0308 98000000 		.4byte	.LVL91
 10092 030c B8000000 		.4byte	.LFE45
 10093 0310 0400     		.2byte	0x4
 10094 0312 F3       		.byte	0xf3
 10095 0313 01       		.uleb128 0x1
 10096 0314 51       		.byte	0x51
 10097 0315 9F       		.byte	0x9f
 10098 0316 00000000 		.4byte	0
 10099 031a 00000000 		.4byte	0
 10100              	.LLST19:
 10101 031e 00000000 		.4byte	.LVL77
 10102 0322 12000000 		.4byte	.LVL78
 10103 0326 0100     		.2byte	0x1
 10104 0328 52       		.byte	0x52
 10105 0329 12000000 		.4byte	.LVL78
 10106 032d B8000000 		.4byte	.LFE45
 10107 0331 0200     		.2byte	0x2
 10108 0333 91       		.byte	0x91
 10109 0334 4C       		.sleb128 -52
 10110 0335 00000000 		.4byte	0
 10111 0339 00000000 		.4byte	0
 10112              	.LLST20:
 10113 033d 00000000 		.4byte	.LVL92
 10114 0341 0B000000 		.4byte	.LVL94-1
 10115 0345 0100     		.2byte	0x1
 10116 0347 50       		.byte	0x50
 10117 0348 0B000000 		.4byte	.LVL94-1
 10118 034c 80000000 		.4byte	.LFE46
 10119 0350 0400     		.2byte	0x4
 10120 0352 F3       		.byte	0xf3
 10121 0353 01       		.uleb128 0x1
 10122 0354 50       		.byte	0x50
 10123 0355 9F       		.byte	0x9f
 10124 0356 00000000 		.4byte	0
 10125 035a 00000000 		.4byte	0
 10126              	.LLST21:
 10127 035e 00000000 		.4byte	.LVL92
 10128 0362 08000000 		.4byte	.LVL93
 10129 0366 0100     		.2byte	0x1
 10130 0368 51       		.byte	0x51
 10131 0369 08000000 		.4byte	.LVL93
ARM GAS  C:\Users\MM1005~1\AppData\Local\Temp\ccukbKgl.s 			page 208


 10132 036d 6E000000 		.4byte	.LVL103
 10133 0371 0100     		.2byte	0x1
 10134 0373 55       		.byte	0x55
 10135 0374 6E000000 		.4byte	.LVL103
 10136 0378 80000000 		.4byte	.LFE46
 10137 037c 0400     		.2byte	0x4
 10138 037e F3       		.byte	0xf3
 10139 037f 01       		.uleb128 0x1
 10140 0380 51       		.byte	0x51
 10141 0381 9F       		.byte	0x9f
 10142 0382 00000000 		.4byte	0
 10143 0386 00000000 		.4byte	0
 10144              	.LLST22:
 10145 038a 10000000 		.4byte	.LVL104
 10146 038e 14000000 		.4byte	.LVL105
 10147 0392 0200     		.2byte	0x2
 10148 0394 30       		.byte	0x30
 10149 0395 9F       		.byte	0x9f
 10150 0396 14000000 		.4byte	.LVL105
 10151 039a 3A010000 		.4byte	.LVL136
 10152 039e 0100     		.2byte	0x1
 10153 03a0 56       		.byte	0x56
 10154 03a1 3C010000 		.4byte	.LVL137
 10155 03a5 42010000 		.4byte	.LVL138
 10156 03a9 0100     		.2byte	0x1
 10157 03ab 56       		.byte	0x56
 10158 03ac 00000000 		.4byte	0
 10159 03b0 00000000 		.4byte	0
 10160              	.LLST23:
 10161 03b4 10000000 		.4byte	.LVL104
 10162 03b8 42010000 		.4byte	.LVL139
 10163 03bc 0100     		.2byte	0x1
 10164 03be 58       		.byte	0x58
 10165 03bf 00000000 		.4byte	0
 10166 03c3 00000000 		.4byte	0
 10167              	.LLST24:
 10168 03c7 00000000 		.4byte	.LVL140
 10169 03cb 0E000000 		.4byte	.LVL141
 10170 03cf 0100     		.2byte	0x1
 10171 03d1 50       		.byte	0x50
 10172 03d2 0E000000 		.4byte	.LVL141
 10173 03d6 A8000000 		.4byte	.LFE49
 10174 03da 0400     		.2byte	0x4
 10175 03dc F3       		.byte	0xf3
 10176 03dd 01       		.uleb128 0x1
 10177 03de 50       		.byte	0x50
 10178 03df 9F       		.byte	0x9f
 10179 03e0 00000000 		.4byte	0
 10180 03e4 00000000 		.4byte	0
 10181              	.LLST25:
 10182 03e8 00000000 		.4byte	.LVL140
 10183 03ec 10000000 		.4byte	.LVL142
 10184 03f0 0100     		.2byte	0x1
 10185 03f2 51       		.byte	0x51
 10186 03f3 10000000 		.4byte	.LVL142
 10187 03f7 8A000000 		.4byte	.LVL158
 10188 03fb 0100     		.2byte	0x1
ARM GAS  C:\Users\MM1005~1\AppData\Local\Temp\ccukbKgl.s 			page 209


 10189 03fd 55       		.byte	0x55
 10190 03fe 8A000000 		.4byte	.LVL158
 10191 0402 A8000000 		.4byte	.LFE49
 10192 0406 0400     		.2byte	0x4
 10193 0408 F3       		.byte	0xf3
 10194 0409 01       		.uleb128 0x1
 10195 040a 51       		.byte	0x51
 10196 040b 9F       		.byte	0x9f
 10197 040c 00000000 		.4byte	0
 10198 0410 00000000 		.4byte	0
 10199              	.LLST26:
 10200 0414 00000000 		.4byte	.LVL140
 10201 0418 12000000 		.4byte	.LVL143
 10202 041c 0100     		.2byte	0x1
 10203 041e 52       		.byte	0x52
 10204 041f 12000000 		.4byte	.LVL143
 10205 0423 A8000000 		.4byte	.LFE49
 10206 0427 0400     		.2byte	0x4
 10207 0429 F3       		.byte	0xf3
 10208 042a 01       		.uleb128 0x1
 10209 042b 52       		.byte	0x52
 10210 042c 9F       		.byte	0x9f
 10211 042d 00000000 		.4byte	0
 10212 0431 00000000 		.4byte	0
 10213              	.LLST27:
 10214 0435 00000000 		.4byte	.LVL159
 10215 0439 12000000 		.4byte	.LVL160
 10216 043d 0100     		.2byte	0x1
 10217 043f 50       		.byte	0x50
 10218 0440 12000000 		.4byte	.LVL160
 10219 0444 BE000000 		.4byte	.LVL183
 10220 0448 0100     		.2byte	0x1
 10221 044a 57       		.byte	0x57
 10222 044b BE000000 		.4byte	.LVL183
 10223 044f D8000000 		.4byte	.LFE50
 10224 0453 0400     		.2byte	0x4
 10225 0455 F3       		.byte	0xf3
 10226 0456 01       		.uleb128 0x1
 10227 0457 50       		.byte	0x50
 10228 0458 9F       		.byte	0x9f
 10229 0459 00000000 		.4byte	0
 10230 045d 00000000 		.4byte	0
 10231              	.LLST28:
 10232 0461 00000000 		.4byte	.LVL159
 10233 0465 14000000 		.4byte	.LVL161
 10234 0469 0100     		.2byte	0x1
 10235 046b 51       		.byte	0x51
 10236 046c 14000000 		.4byte	.LVL161
 10237 0470 BE000000 		.4byte	.LVL182
 10238 0474 0100     		.2byte	0x1
 10239 0476 56       		.byte	0x56
 10240 0477 BE000000 		.4byte	.LVL182
 10241 047b D8000000 		.4byte	.LFE50
 10242 047f 0400     		.2byte	0x4
 10243 0481 F3       		.byte	0xf3
 10244 0482 01       		.uleb128 0x1
 10245 0483 51       		.byte	0x51
ARM GAS  C:\Users\MM1005~1\AppData\Local\Temp\ccukbKgl.s 			page 210


 10246 0484 9F       		.byte	0x9f
 10247 0485 00000000 		.4byte	0
 10248 0489 00000000 		.4byte	0
 10249              	.LLST29:
 10250 048d 00000000 		.4byte	.LVL159
 10251 0491 16000000 		.4byte	.LVL162
 10252 0495 0100     		.2byte	0x1
 10253 0497 52       		.byte	0x52
 10254 0498 16000000 		.4byte	.LVL162
 10255 049c BE000000 		.4byte	.LVL181
 10256 04a0 0200     		.2byte	0x2
 10257 04a2 7D       		.byte	0x7d
 10258 04a3 00       		.sleb128 0
 10259 04a4 BE000000 		.4byte	.LVL181
 10260 04a8 D8000000 		.4byte	.LFE50
 10261 04ac 0200     		.2byte	0x2
 10262 04ae 91       		.byte	0x91
 10263 04af 60       		.sleb128 -32
 10264 04b0 00000000 		.4byte	0
 10265 04b4 00000000 		.4byte	0
 10266              	.LLST30:
 10267 04b8 00000000 		.4byte	.LVL159
 10268 04bc 1B000000 		.4byte	.LVL163-1
 10269 04c0 0100     		.2byte	0x1
 10270 04c2 53       		.byte	0x53
 10271 04c3 1B000000 		.4byte	.LVL163-1
 10272 04c7 D8000000 		.4byte	.LFE50
 10273 04cb 0200     		.2byte	0x2
 10274 04cd 91       		.byte	0x91
 10275 04ce 64       		.sleb128 -28
 10276 04cf 00000000 		.4byte	0
 10277 04d3 00000000 		.4byte	0
 10278              	.LLST31:
 10279 04d7 00000000 		.4byte	.LVL185
 10280 04db 0B000000 		.4byte	.LVL187-1
 10281 04df 0100     		.2byte	0x1
 10282 04e1 50       		.byte	0x50
 10283 04e2 0B000000 		.4byte	.LVL187-1
 10284 04e6 BE000000 		.4byte	.LVL208
 10285 04ea 0100     		.2byte	0x1
 10286 04ec 55       		.byte	0x55
 10287 04ed BE000000 		.4byte	.LVL208
 10288 04f1 D4000000 		.4byte	.LFE48
 10289 04f5 0400     		.2byte	0x4
 10290 04f7 F3       		.byte	0xf3
 10291 04f8 01       		.uleb128 0x1
 10292 04f9 50       		.byte	0x50
 10293 04fa 9F       		.byte	0x9f
 10294 04fb 00000000 		.4byte	0
 10295 04ff 00000000 		.4byte	0
 10296              	.LLST32:
 10297 0503 00000000 		.4byte	.LVL185
 10298 0507 0B000000 		.4byte	.LVL187-1
 10299 050b 0100     		.2byte	0x1
 10300 050d 51       		.byte	0x51
 10301 050e 0B000000 		.4byte	.LVL187-1
 10302 0512 BE000000 		.4byte	.LVL209
ARM GAS  C:\Users\MM1005~1\AppData\Local\Temp\ccukbKgl.s 			page 211


 10303 0516 0100     		.2byte	0x1
 10304 0518 56       		.byte	0x56
 10305 0519 BE000000 		.4byte	.LVL209
 10306 051d D4000000 		.4byte	.LFE48
 10307 0521 0400     		.2byte	0x4
 10308 0523 F3       		.byte	0xf3
 10309 0524 01       		.uleb128 0x1
 10310 0525 51       		.byte	0x51
 10311 0526 9F       		.byte	0x9f
 10312 0527 00000000 		.4byte	0
 10313 052b 00000000 		.4byte	0
 10314              	.LLST33:
 10315 052f 00000000 		.4byte	.LVL185
 10316 0533 0B000000 		.4byte	.LVL187-1
 10317 0537 0100     		.2byte	0x1
 10318 0539 52       		.byte	0x52
 10319 053a 0B000000 		.4byte	.LVL187-1
 10320 053e D4000000 		.4byte	.LFE48
 10321 0542 0400     		.2byte	0x4
 10322 0544 F3       		.byte	0xf3
 10323 0545 01       		.uleb128 0x1
 10324 0546 52       		.byte	0x52
 10325 0547 9F       		.byte	0x9f
 10326 0548 00000000 		.4byte	0
 10327 054c 00000000 		.4byte	0
 10328              	.LLST34:
 10329 0550 00000000 		.4byte	.LVL185
 10330 0554 0B000000 		.4byte	.LVL187-1
 10331 0558 0100     		.2byte	0x1
 10332 055a 53       		.byte	0x53
 10333 055b 0B000000 		.4byte	.LVL187-1
 10334 055f D4000000 		.4byte	.LFE48
 10335 0563 0400     		.2byte	0x4
 10336 0565 F3       		.byte	0xf3
 10337 0566 01       		.uleb128 0x1
 10338 0567 53       		.byte	0x53
 10339 0568 9F       		.byte	0x9f
 10340 0569 00000000 		.4byte	0
 10341 056d 00000000 		.4byte	0
 10342              	.LLST35:
 10343 0571 08000000 		.4byte	.LVL186
 10344 0575 3A000000 		.4byte	.LVL192
 10345 0579 0200     		.2byte	0x2
 10346 057b 30       		.byte	0x30
 10347 057c 9F       		.byte	0x9f
 10348 057d 00000000 		.4byte	0
 10349 0581 00000000 		.4byte	0
 10350              	.LLST36:
 10351 0585 10000000 		.4byte	.LVL188
 10352 0589 36000000 		.4byte	.LVL191
 10353 058d 0200     		.2byte	0x2
 10354 058f 30       		.byte	0x30
 10355 0590 9F       		.byte	0x9f
 10356 0591 36000000 		.4byte	.LVL191
 10357 0595 6A000000 		.4byte	.LVL197
 10358 0599 0100     		.2byte	0x1
 10359 059b 57       		.byte	0x57
ARM GAS  C:\Users\MM1005~1\AppData\Local\Temp\ccukbKgl.s 			page 212


 10360 059c 00000000 		.4byte	0
 10361 05a0 00000000 		.4byte	0
 10362              	.LLST37:
 10363 05a4 36000000 		.4byte	.LVL191
 10364 05a8 3A000000 		.4byte	.LVL192
 10365 05ac 0200     		.2byte	0x2
 10366 05ae 30       		.byte	0x30
 10367 05af 9F       		.byte	0x9f
 10368 05b0 3A000000 		.4byte	.LVL192
 10369 05b4 56000000 		.4byte	.LVL194
 10370 05b8 0100     		.2byte	0x1
 10371 05ba 54       		.byte	0x54
 10372 05bb 58000000 		.4byte	.LVL195
 10373 05bf 5E000000 		.4byte	.LVL196
 10374 05c3 0100     		.2byte	0x1
 10375 05c5 54       		.byte	0x54
 10376 05c6 00000000 		.4byte	0
 10377 05ca 00000000 		.4byte	0
 10378              	.LLST38:
 10379 05ce 00000000 		.4byte	.LVL211
 10380 05d2 0B000000 		.4byte	.LVL213-1
 10381 05d6 0100     		.2byte	0x1
 10382 05d8 50       		.byte	0x50
 10383 05d9 0B000000 		.4byte	.LVL213-1
 10384 05dd 40000000 		.4byte	.LVL221
 10385 05e1 0100     		.2byte	0x1
 10386 05e3 54       		.byte	0x54
 10387 05e4 40000000 		.4byte	.LVL221
 10388 05e8 58000000 		.4byte	.LVL224
 10389 05ec 0400     		.2byte	0x4
 10390 05ee F3       		.byte	0xf3
 10391 05ef 01       		.uleb128 0x1
 10392 05f0 50       		.byte	0x50
 10393 05f1 9F       		.byte	0x9f
 10394 05f2 58000000 		.4byte	.LVL224
 10395 05f6 5A000000 		.4byte	.LVL225
 10396 05fa 0100     		.2byte	0x1
 10397 05fc 54       		.byte	0x54
 10398 05fd 5A000000 		.4byte	.LVL225
 10399 0601 7E000000 		.4byte	.LVL231
 10400 0605 0400     		.2byte	0x4
 10401 0607 F3       		.byte	0xf3
 10402 0608 01       		.uleb128 0x1
 10403 0609 50       		.byte	0x50
 10404 060a 9F       		.byte	0x9f
 10405 060b 7E000000 		.4byte	.LVL231
 10406 060f 92020000 		.4byte	.LVL331
 10407 0613 0100     		.2byte	0x1
 10408 0615 54       		.byte	0x54
 10409 0616 92020000 		.4byte	.LVL331
 10410 061a D2020000 		.4byte	.LVL341
 10411 061e 0400     		.2byte	0x4
 10412 0620 F3       		.byte	0xf3
 10413 0621 01       		.uleb128 0x1
 10414 0622 50       		.byte	0x50
 10415 0623 9F       		.byte	0x9f
 10416 0624 D2020000 		.4byte	.LVL341
ARM GAS  C:\Users\MM1005~1\AppData\Local\Temp\ccukbKgl.s 			page 213


 10417 0628 0E070000 		.4byte	.LVL523
 10418 062c 0100     		.2byte	0x1
 10419 062e 54       		.byte	0x54
 10420 062f 0E070000 		.4byte	.LVL523
 10421 0633 1C070000 		.4byte	.LFE43
 10422 0637 0400     		.2byte	0x4
 10423 0639 F3       		.byte	0xf3
 10424 063a 01       		.uleb128 0x1
 10425 063b 50       		.byte	0x50
 10426 063c 9F       		.byte	0x9f
 10427 063d 00000000 		.4byte	0
 10428 0641 00000000 		.4byte	0
 10429              	.LLST39:
 10430 0645 06000000 		.4byte	.LVL212
 10431 0649 24000000 		.4byte	.LVL218
 10432 064d 0200     		.2byte	0x2
 10433 064f 39       		.byte	0x39
 10434 0650 9F       		.byte	0x9f
 10435 0651 24000000 		.4byte	.LVL218
 10436 0655 2C000000 		.4byte	.LVL219
 10437 0659 0100     		.2byte	0x1
 10438 065b 50       		.byte	0x50
 10439 065c 02070000 		.4byte	.LVL520
 10440 0660 04070000 		.4byte	.LVL521
 10441 0664 0100     		.2byte	0x1
 10442 0666 50       		.byte	0x50
 10443 0667 00000000 		.4byte	0
 10444 066b 00000000 		.4byte	0
 10445              	.LLST40:
 10446 066f 06000000 		.4byte	.LVL212
 10447 0673 BA000000 		.4byte	.LVL242
 10448 0677 0200     		.2byte	0x2
 10449 0679 34       		.byte	0x34
 10450 067a 9F       		.byte	0x9f
 10451 067b BA000000 		.4byte	.LVL242
 10452 067f CE000000 		.4byte	.LVL243
 10453 0683 0100     		.2byte	0x1
 10454 0685 50       		.byte	0x50
 10455 0686 D6000000 		.4byte	.LVL245
 10456 068a D8000000 		.4byte	.LVL246
 10457 068e 0100     		.2byte	0x1
 10458 0690 50       		.byte	0x50
 10459 0691 E0000000 		.4byte	.LVL248
 10460 0695 E2000000 		.4byte	.LVL249
 10461 0699 0100     		.2byte	0x1
 10462 069b 50       		.byte	0x50
 10463 069c EA000000 		.4byte	.LVL251
 10464 06a0 EC000000 		.4byte	.LVL252
 10465 06a4 0100     		.2byte	0x1
 10466 06a6 50       		.byte	0x50
 10467 06a7 F4000000 		.4byte	.LVL254
 10468 06ab F6000000 		.4byte	.LVL255
 10469 06af 0100     		.2byte	0x1
 10470 06b1 50       		.byte	0x50
 10471 06b2 14010000 		.4byte	.LVL261
 10472 06b6 0E070000 		.4byte	.LVL523
 10473 06ba 0200     		.2byte	0x2
ARM GAS  C:\Users\MM1005~1\AppData\Local\Temp\ccukbKgl.s 			page 214


 10474 06bc 34       		.byte	0x34
 10475 06bd 9F       		.byte	0x9f
 10476 06be 00000000 		.4byte	0
 10477 06c2 00000000 		.4byte	0
 10478              	.LLST41:
 10479 06c6 06000000 		.4byte	.LVL212
 10480 06ca FA000000 		.4byte	.LVL256
 10481 06ce 0200     		.2byte	0x2
 10482 06d0 3E       		.byte	0x3e
 10483 06d1 9F       		.byte	0x9f
 10484 06d2 FA000000 		.4byte	.LVL256
 10485 06d6 01010000 		.4byte	.LVL257-1
 10486 06da 0100     		.2byte	0x1
 10487 06dc 50       		.byte	0x50
 10488 06dd 06010000 		.4byte	.LVL258
 10489 06e1 08010000 		.4byte	.LVL259
 10490 06e5 0100     		.2byte	0x1
 10491 06e7 50       		.byte	0x50
 10492 06e8 14010000 		.4byte	.LVL261
 10493 06ec 0E070000 		.4byte	.LVL523
 10494 06f0 0200     		.2byte	0x2
 10495 06f2 3E       		.byte	0x3e
 10496 06f3 9F       		.byte	0x9f
 10497 06f4 00000000 		.4byte	0
 10498 06f8 00000000 		.4byte	0
 10499              	.LLST42:
 10500 06fc 06000000 		.4byte	.LVL212
 10501 0700 9C010000 		.4byte	.LVL286
 10502 0704 0200     		.2byte	0x2
 10503 0706 35       		.byte	0x35
 10504 0707 9F       		.byte	0x9f
 10505 0708 9C010000 		.4byte	.LVL286
 10506 070c A4010000 		.4byte	.LVL287
 10507 0710 0100     		.2byte	0x1
 10508 0712 50       		.byte	0x50
 10509 0713 4C050000 		.4byte	.LVL440
 10510 0717 4E050000 		.4byte	.LVL441
 10511 071b 0100     		.2byte	0x1
 10512 071d 50       		.byte	0x50
 10513 071e 5A050000 		.4byte	.LVL443
 10514 0722 0E070000 		.4byte	.LVL523
 10515 0726 0200     		.2byte	0x2
 10516 0728 35       		.byte	0x35
 10517 0729 9F       		.byte	0x9f
 10518 072a 00000000 		.4byte	0
 10519 072e 00000000 		.4byte	0
 10520              	.LLST43:
 10521 0732 06000000 		.4byte	.LVL212
 10522 0736 94050000 		.4byte	.LVL454
 10523 073a 0200     		.2byte	0x2
 10524 073c 32       		.byte	0x32
 10525 073d 9F       		.byte	0x9f
 10526 073e 94050000 		.4byte	.LVL454
 10527 0742 9E050000 		.4byte	.LVL455
 10528 0746 0100     		.2byte	0x1
 10529 0748 50       		.byte	0x50
 10530 0749 A6050000 		.4byte	.LVL457
ARM GAS  C:\Users\MM1005~1\AppData\Local\Temp\ccukbKgl.s 			page 215


 10531 074d A8050000 		.4byte	.LVL458
 10532 0751 0100     		.2byte	0x1
 10533 0753 50       		.byte	0x50
 10534 0754 B0050000 		.4byte	.LVL460
 10535 0758 B2050000 		.4byte	.LVL461
 10536 075c 0100     		.2byte	0x1
 10537 075e 50       		.byte	0x50
 10538 075f BE050000 		.4byte	.LVL463
 10539 0763 0E070000 		.4byte	.LVL523
 10540 0767 0200     		.2byte	0x2
 10541 0769 32       		.byte	0x32
 10542 076a 9F       		.byte	0x9f
 10543 076b 00000000 		.4byte	0
 10544 076f 00000000 		.4byte	0
 10545              	.LLST44:
 10546 0773 06000000 		.4byte	.LVL212
 10547 0777 F8050000 		.4byte	.LVL474
 10548 077b 0200     		.2byte	0x2
 10549 077d 32       		.byte	0x32
 10550 077e 9F       		.byte	0x9f
 10551 077f F8050000 		.4byte	.LVL474
 10552 0783 02060000 		.4byte	.LVL475
 10553 0787 0100     		.2byte	0x1
 10554 0789 50       		.byte	0x50
 10555 078a 0A060000 		.4byte	.LVL477
 10556 078e 0C060000 		.4byte	.LVL478
 10557 0792 0100     		.2byte	0x1
 10558 0794 50       		.byte	0x50
 10559 0795 14060000 		.4byte	.LVL480
 10560 0799 16060000 		.4byte	.LVL481
 10561 079d 0100     		.2byte	0x1
 10562 079f 50       		.byte	0x50
 10563 07a0 22060000 		.4byte	.LVL483
 10564 07a4 0E070000 		.4byte	.LVL523
 10565 07a8 0200     		.2byte	0x2
 10566 07aa 32       		.byte	0x32
 10567 07ab 9F       		.byte	0x9f
 10568 07ac 00000000 		.4byte	0
 10569 07b0 00000000 		.4byte	0
 10570              	.LLST45:
 10571 07b4 06000000 		.4byte	.LVL212
 10572 07b8 5E060000 		.4byte	.LVL494
 10573 07bc 0200     		.2byte	0x2
 10574 07be 33       		.byte	0x33
 10575 07bf 9F       		.byte	0x9f
 10576 07c0 5E060000 		.4byte	.LVL494
 10577 07c4 6E060000 		.4byte	.LVL495
 10578 07c8 0100     		.2byte	0x1
 10579 07ca 50       		.byte	0x50
 10580 07cb 76060000 		.4byte	.LVL497
 10581 07cf 78060000 		.4byte	.LVL498
 10582 07d3 0100     		.2byte	0x1
 10583 07d5 50       		.byte	0x50
 10584 07d6 80060000 		.4byte	.LVL500
 10585 07da 82060000 		.4byte	.LVL501
 10586 07de 0100     		.2byte	0x1
 10587 07e0 50       		.byte	0x50
ARM GAS  C:\Users\MM1005~1\AppData\Local\Temp\ccukbKgl.s 			page 216


 10588 07e1 C4060000 		.4byte	.LVL514
 10589 07e5 C6060000 		.4byte	.LVL515
 10590 07e9 0100     		.2byte	0x1
 10591 07eb 50       		.byte	0x50
 10592 07ec F0060000 		.4byte	.LVL517
 10593 07f0 0E070000 		.4byte	.LVL523
 10594 07f4 0200     		.2byte	0x2
 10595 07f6 33       		.byte	0x33
 10596 07f7 9F       		.byte	0x9f
 10597 07f8 00000000 		.4byte	0
 10598 07fc 00000000 		.4byte	0
 10599              	.LLST46:
 10600 0800 06000000 		.4byte	.LVL212
 10601 0804 4E010000 		.4byte	.LVL272
 10602 0808 0200     		.2byte	0x2
 10603 080a 33       		.byte	0x33
 10604 080b 9F       		.byte	0x9f
 10605 080c 4E010000 		.4byte	.LVL272
 10606 0810 5E010000 		.4byte	.LVL273
 10607 0814 0100     		.2byte	0x1
 10608 0816 50       		.byte	0x50
 10609 0817 6A010000 		.4byte	.LVL275
 10610 081b 6C010000 		.4byte	.LVL276
 10611 081f 0100     		.2byte	0x1
 10612 0821 50       		.byte	0x50
 10613 0822 78010000 		.4byte	.LVL278
 10614 0826 7A010000 		.4byte	.LVL279
 10615 082a 0100     		.2byte	0x1
 10616 082c 50       		.byte	0x50
 10617 082d 86010000 		.4byte	.LVL281
 10618 0831 88010000 		.4byte	.LVL282
 10619 0835 0100     		.2byte	0x1
 10620 0837 50       		.byte	0x50
 10621 0838 94010000 		.4byte	.LVL284
 10622 083c 0E070000 		.4byte	.LVL523
 10623 0840 0200     		.2byte	0x2
 10624 0842 33       		.byte	0x33
 10625 0843 9F       		.byte	0x9f
 10626 0844 00000000 		.4byte	0
 10627 0848 00000000 		.4byte	0
 10628              	.LLST47:
 10629 084c 0C000000 		.4byte	.LVL213
 10630 0850 12000000 		.4byte	.LVL214
 10631 0854 0100     		.2byte	0x1
 10632 0856 50       		.byte	0x50
 10633 0857 12000000 		.4byte	.LVL214
 10634 085b 19000000 		.4byte	.LVL215-1
 10635 085f 0300     		.2byte	0x3
 10636 0861 70       		.byte	0x70
 10637 0862 7E       		.sleb128 -2
 10638 0863 9F       		.byte	0x9f
 10639 0864 1E000000 		.4byte	.LVL216
 10640 0868 20000000 		.4byte	.LVL217
 10641 086c 0100     		.2byte	0x1
 10642 086e 50       		.byte	0x50
 10643 086f 20000000 		.4byte	.LVL217
 10644 0873 86000000 		.4byte	.LVL232
ARM GAS  C:\Users\MM1005~1\AppData\Local\Temp\ccukbKgl.s 			page 217


 10645 0877 0100     		.2byte	0x1
 10646 0879 55       		.byte	0x55
 10647 087a 86000000 		.4byte	.LVL232
 10648 087e 8C000000 		.4byte	.LVL233
 10649 0882 0100     		.2byte	0x1
 10650 0884 50       		.byte	0x50
 10651 0885 8C000000 		.4byte	.LVL233
 10652 0889 93000000 		.4byte	.LVL234-1
 10653 088d 0300     		.2byte	0x3
 10654 088f 70       		.byte	0x70
 10655 0890 7E       		.sleb128 -2
 10656 0891 9F       		.byte	0x9f
 10657 0892 98000000 		.4byte	.LVL235
 10658 0896 9F000000 		.4byte	.LVL237-1
 10659 089a 0100     		.2byte	0x1
 10660 089c 50       		.byte	0x50
 10661 089d A0000000 		.4byte	.LVL237
 10662 08a1 A6000000 		.4byte	.LVL238
 10663 08a5 0100     		.2byte	0x1
 10664 08a7 50       		.byte	0x50
 10665 08a8 A6000000 		.4byte	.LVL238
 10666 08ac AD000000 		.4byte	.LVL239-1
 10667 08b0 0300     		.2byte	0x3
 10668 08b2 70       		.byte	0x70
 10669 08b3 7E       		.sleb128 -2
 10670 08b4 9F       		.byte	0x9f
 10671 08b5 B2000000 		.4byte	.LVL240
 10672 08b9 B4000000 		.4byte	.LVL241
 10673 08bd 0100     		.2byte	0x1
 10674 08bf 50       		.byte	0x50
 10675 08c0 B4000000 		.4byte	.LVL241
 10676 08c4 1C010000 		.4byte	.LVL262
 10677 08c8 0100     		.2byte	0x1
 10678 08ca 55       		.byte	0x55
 10679 08cb 1C010000 		.4byte	.LVL262
 10680 08cf 22010000 		.4byte	.LVL263
 10681 08d3 0100     		.2byte	0x1
 10682 08d5 50       		.byte	0x50
 10683 08d6 22010000 		.4byte	.LVL263
 10684 08da 29010000 		.4byte	.LVL264-1
 10685 08de 0300     		.2byte	0x3
 10686 08e0 70       		.byte	0x70
 10687 08e1 7E       		.sleb128 -2
 10688 08e2 9F       		.byte	0x9f
 10689 08e3 2E010000 		.4byte	.LVL265
 10690 08e7 35010000 		.4byte	.LVL267-1
 10691 08eb 0100     		.2byte	0x1
 10692 08ed 50       		.byte	0x50
 10693 08ee 36010000 		.4byte	.LVL267
 10694 08f2 3C010000 		.4byte	.LVL268
 10695 08f6 0100     		.2byte	0x1
 10696 08f8 50       		.byte	0x50
 10697 08f9 3C010000 		.4byte	.LVL268
 10698 08fd 43010000 		.4byte	.LVL269-1
 10699 0901 0300     		.2byte	0x3
 10700 0903 70       		.byte	0x70
 10701 0904 7E       		.sleb128 -2
ARM GAS  C:\Users\MM1005~1\AppData\Local\Temp\ccukbKgl.s 			page 218


 10702 0905 9F       		.byte	0x9f
 10703 0906 48010000 		.4byte	.LVL270
 10704 090a 4D010000 		.4byte	.LVL272-1
 10705 090e 0100     		.2byte	0x1
 10706 0910 50       		.byte	0x50
 10707 0911 94010000 		.4byte	.LVL284
 10708 0915 BC010000 		.4byte	.LVL289
 10709 0919 0100     		.2byte	0x1
 10710 091b 55       		.byte	0x55
 10711 091c BC010000 		.4byte	.LVL289
 10712 0920 C2010000 		.4byte	.LVL290
 10713 0924 0100     		.2byte	0x1
 10714 0926 50       		.byte	0x50
 10715 0927 C2010000 		.4byte	.LVL290
 10716 092b C9010000 		.4byte	.LVL291-1
 10717 092f 0300     		.2byte	0x3
 10718 0931 70       		.byte	0x70
 10719 0932 7E       		.sleb128 -2
 10720 0933 9F       		.byte	0x9f
 10721 0934 CE010000 		.4byte	.LVL292
 10722 0938 D5010000 		.4byte	.LVL294-1
 10723 093c 0100     		.2byte	0x1
 10724 093e 50       		.byte	0x50
 10725 093f D6010000 		.4byte	.LVL294
 10726 0943 DC010000 		.4byte	.LVL295
 10727 0947 0100     		.2byte	0x1
 10728 0949 50       		.byte	0x50
 10729 094a DC010000 		.4byte	.LVL295
 10730 094e E3010000 		.4byte	.LVL296-1
 10731 0952 0300     		.2byte	0x3
 10732 0954 70       		.byte	0x70
 10733 0955 7E       		.sleb128 -2
 10734 0956 9F       		.byte	0x9f
 10735 0957 E8010000 		.4byte	.LVL297
 10736 095b EF010000 		.4byte	.LVL299-1
 10737 095f 0100     		.2byte	0x1
 10738 0961 50       		.byte	0x50
 10739 0962 F0010000 		.4byte	.LVL299
 10740 0966 F6010000 		.4byte	.LVL300
 10741 096a 0100     		.2byte	0x1
 10742 096c 50       		.byte	0x50
 10743 096d F6010000 		.4byte	.LVL300
 10744 0971 FD010000 		.4byte	.LVL301-1
 10745 0975 0300     		.2byte	0x3
 10746 0977 70       		.byte	0x70
 10747 0978 7E       		.sleb128 -2
 10748 0979 9F       		.byte	0x9f
 10749 097a 02020000 		.4byte	.LVL302
 10750 097e 04020000 		.4byte	.LVL303
 10751 0982 0100     		.2byte	0x1
 10752 0984 50       		.byte	0x50
 10753 0985 04020000 		.4byte	.LVL303
 10754 0989 34020000 		.4byte	.LVL312
 10755 098d 0100     		.2byte	0x1
 10756 098f 55       		.byte	0x55
 10757 0990 34020000 		.4byte	.LVL312
 10758 0994 3A020000 		.4byte	.LVL313
ARM GAS  C:\Users\MM1005~1\AppData\Local\Temp\ccukbKgl.s 			page 219


 10759 0998 0100     		.2byte	0x1
 10760 099a 50       		.byte	0x50
 10761 099b 3A020000 		.4byte	.LVL313
 10762 099f 41020000 		.4byte	.LVL314-1
 10763 09a3 0300     		.2byte	0x3
 10764 09a5 70       		.byte	0x70
 10765 09a6 7E       		.sleb128 -2
 10766 09a7 9F       		.byte	0x9f
 10767 09a8 46020000 		.4byte	.LVL315
 10768 09ac 48020000 		.4byte	.LVL316
 10769 09b0 0100     		.2byte	0x1
 10770 09b2 50       		.byte	0x50
 10771 09b3 48020000 		.4byte	.LVL316
 10772 09b7 70020000 		.4byte	.LVL323
 10773 09bb 0100     		.2byte	0x1
 10774 09bd 57       		.byte	0x57
 10775 09be 78020000 		.4byte	.LVL325
 10776 09c2 7E020000 		.4byte	.LVL326
 10777 09c6 0100     		.2byte	0x1
 10778 09c8 50       		.byte	0x50
 10779 09c9 7E020000 		.4byte	.LVL326
 10780 09cd 85020000 		.4byte	.LVL327-1
 10781 09d1 0300     		.2byte	0x3
 10782 09d3 70       		.byte	0x70
 10783 09d4 7E       		.sleb128 -2
 10784 09d5 9F       		.byte	0x9f
 10785 09d6 8A020000 		.4byte	.LVL328
 10786 09da 8C020000 		.4byte	.LVL329
 10787 09de 0300     		.2byte	0x3
 10788 09e0 70       		.byte	0x70
 10789 09e1 01       		.sleb128 1
 10790 09e2 9F       		.byte	0x9f
 10791 09e3 8C020000 		.4byte	.LVL329
 10792 09e7 8F020000 		.4byte	.LVL330-1
 10793 09eb 0100     		.2byte	0x1
 10794 09ed 50       		.byte	0x50
 10795 09ee D2020000 		.4byte	.LVL341
 10796 09f2 DA020000 		.4byte	.LVL342
 10797 09f6 0100     		.2byte	0x1
 10798 09f8 55       		.byte	0x55
 10799 09f9 DA020000 		.4byte	.LVL342
 10800 09fd E0020000 		.4byte	.LVL343
 10801 0a01 0100     		.2byte	0x1
 10802 0a03 50       		.byte	0x50
 10803 0a04 E0020000 		.4byte	.LVL343
 10804 0a08 E7020000 		.4byte	.LVL344-1
 10805 0a0c 0300     		.2byte	0x3
 10806 0a0e 70       		.byte	0x70
 10807 0a0f 7E       		.sleb128 -2
 10808 0a10 9F       		.byte	0x9f
 10809 0a11 EC020000 		.4byte	.LVL345
 10810 0a15 F3020000 		.4byte	.LVL347-1
 10811 0a19 0100     		.2byte	0x1
 10812 0a1b 50       		.byte	0x50
 10813 0a1c F4020000 		.4byte	.LVL347
 10814 0a20 FA020000 		.4byte	.LVL348
 10815 0a24 0100     		.2byte	0x1
ARM GAS  C:\Users\MM1005~1\AppData\Local\Temp\ccukbKgl.s 			page 220


 10816 0a26 50       		.byte	0x50
 10817 0a27 FA020000 		.4byte	.LVL348
 10818 0a2b 01030000 		.4byte	.LVL349-1
 10819 0a2f 0300     		.2byte	0x3
 10820 0a31 70       		.byte	0x70
 10821 0a32 7E       		.sleb128 -2
 10822 0a33 9F       		.byte	0x9f
 10823 0a34 06030000 		.4byte	.LVL350
 10824 0a38 0D030000 		.4byte	.LVL352-1
 10825 0a3c 0100     		.2byte	0x1
 10826 0a3e 50       		.byte	0x50
 10827 0a3f 0E030000 		.4byte	.LVL352
 10828 0a43 14030000 		.4byte	.LVL353
 10829 0a47 0100     		.2byte	0x1
 10830 0a49 50       		.byte	0x50
 10831 0a4a 14030000 		.4byte	.LVL353
 10832 0a4e 1B030000 		.4byte	.LVL354-1
 10833 0a52 0300     		.2byte	0x3
 10834 0a54 70       		.byte	0x70
 10835 0a55 7E       		.sleb128 -2
 10836 0a56 9F       		.byte	0x9f
 10837 0a57 20030000 		.4byte	.LVL355
 10838 0a5b 22030000 		.4byte	.LVL356
 10839 0a5f 0100     		.2byte	0x1
 10840 0a61 50       		.byte	0x50
 10841 0a62 22030000 		.4byte	.LVL356
 10842 0a66 86030000 		.4byte	.LVL363
 10843 0a6a 0100     		.2byte	0x1
 10844 0a6c 56       		.byte	0x56
 10845 0a6d A0030000 		.4byte	.LVL368
 10846 0a71 A6030000 		.4byte	.LVL369
 10847 0a75 0100     		.2byte	0x1
 10848 0a77 50       		.byte	0x50
 10849 0a78 A6030000 		.4byte	.LVL369
 10850 0a7c AD030000 		.4byte	.LVL370-1
 10851 0a80 0300     		.2byte	0x3
 10852 0a82 70       		.byte	0x70
 10853 0a83 7E       		.sleb128 -2
 10854 0a84 9F       		.byte	0x9f
 10855 0a85 B2030000 		.4byte	.LVL371
 10856 0a89 B4030000 		.4byte	.LVL372
 10857 0a8d 0300     		.2byte	0x3
 10858 0a8f 70       		.byte	0x70
 10859 0a90 01       		.sleb128 1
 10860 0a91 9F       		.byte	0x9f
 10861 0a92 B4030000 		.4byte	.LVL372
 10862 0a96 B7030000 		.4byte	.LVL373-1
 10863 0a9a 0100     		.2byte	0x1
 10864 0a9c 50       		.byte	0x50
 10865 0a9d C6030000 		.4byte	.LVL378
 10866 0aa1 CE030000 		.4byte	.LVL379
 10867 0aa5 0100     		.2byte	0x1
 10868 0aa7 55       		.byte	0x55
 10869 0aa8 CE030000 		.4byte	.LVL379
 10870 0aac D4030000 		.4byte	.LVL380
 10871 0ab0 0100     		.2byte	0x1
 10872 0ab2 50       		.byte	0x50
ARM GAS  C:\Users\MM1005~1\AppData\Local\Temp\ccukbKgl.s 			page 221


 10873 0ab3 D4030000 		.4byte	.LVL380
 10874 0ab7 DB030000 		.4byte	.LVL381-1
 10875 0abb 0300     		.2byte	0x3
 10876 0abd 70       		.byte	0x70
 10877 0abe 7E       		.sleb128 -2
 10878 0abf 9F       		.byte	0x9f
 10879 0ac0 E0030000 		.4byte	.LVL382
 10880 0ac4 E7030000 		.4byte	.LVL384-1
 10881 0ac8 0100     		.2byte	0x1
 10882 0aca 50       		.byte	0x50
 10883 0acb E8030000 		.4byte	.LVL384
 10884 0acf EE030000 		.4byte	.LVL385
 10885 0ad3 0100     		.2byte	0x1
 10886 0ad5 50       		.byte	0x50
 10887 0ad6 EE030000 		.4byte	.LVL385
 10888 0ada F5030000 		.4byte	.LVL386-1
 10889 0ade 0300     		.2byte	0x3
 10890 0ae0 70       		.byte	0x70
 10891 0ae1 7E       		.sleb128 -2
 10892 0ae2 9F       		.byte	0x9f
 10893 0ae3 FA030000 		.4byte	.LVL387
 10894 0ae7 01040000 		.4byte	.LVL389-1
 10895 0aeb 0100     		.2byte	0x1
 10896 0aed 50       		.byte	0x50
 10897 0aee 02040000 		.4byte	.LVL389
 10898 0af2 08040000 		.4byte	.LVL390
 10899 0af6 0100     		.2byte	0x1
 10900 0af8 50       		.byte	0x50
 10901 0af9 08040000 		.4byte	.LVL390
 10902 0afd 0F040000 		.4byte	.LVL391-1
 10903 0b01 0300     		.2byte	0x3
 10904 0b03 70       		.byte	0x70
 10905 0b04 7E       		.sleb128 -2
 10906 0b05 9F       		.byte	0x9f
 10907 0b06 14040000 		.4byte	.LVL392
 10908 0b0a 35040000 		.4byte	.LVL394-1
 10909 0b0e 0100     		.2byte	0x1
 10910 0b10 50       		.byte	0x50
 10911 0b11 36040000 		.4byte	.LVL394
 10912 0b15 3C040000 		.4byte	.LVL395
 10913 0b19 0100     		.2byte	0x1
 10914 0b1b 50       		.byte	0x50
 10915 0b1c 3C040000 		.4byte	.LVL395
 10916 0b20 43040000 		.4byte	.LVL396-1
 10917 0b24 0300     		.2byte	0x3
 10918 0b26 70       		.byte	0x70
 10919 0b27 7E       		.sleb128 -2
 10920 0b28 9F       		.byte	0x9f
 10921 0b29 48040000 		.4byte	.LVL397
 10922 0b2d 4A040000 		.4byte	.LVL398
 10923 0b31 0100     		.2byte	0x1
 10924 0b33 50       		.byte	0x50
 10925 0b34 4A040000 		.4byte	.LVL398
 10926 0b38 5C040000 		.4byte	.LVL400
 10927 0b3c 0100     		.2byte	0x1
 10928 0b3e 55       		.byte	0x55
 10929 0b3f 5C040000 		.4byte	.LVL400
ARM GAS  C:\Users\MM1005~1\AppData\Local\Temp\ccukbKgl.s 			page 222


 10930 0b43 62040000 		.4byte	.LVL401
 10931 0b47 0100     		.2byte	0x1
 10932 0b49 50       		.byte	0x50
 10933 0b4a 62040000 		.4byte	.LVL401
 10934 0b4e 69040000 		.4byte	.LVL402-1
 10935 0b52 0300     		.2byte	0x3
 10936 0b54 70       		.byte	0x70
 10937 0b55 7E       		.sleb128 -2
 10938 0b56 9F       		.byte	0x9f
 10939 0b57 6E040000 		.4byte	.LVL403
 10940 0b5b 70040000 		.4byte	.LVL404
 10941 0b5f 0100     		.2byte	0x1
 10942 0b61 50       		.byte	0x50
 10943 0b62 70040000 		.4byte	.LVL404
 10944 0b66 82040000 		.4byte	.LVL406
 10945 0b6a 0100     		.2byte	0x1
 10946 0b6c 55       		.byte	0x55
 10947 0b6d 82040000 		.4byte	.LVL406
 10948 0b71 88040000 		.4byte	.LVL407
 10949 0b75 0100     		.2byte	0x1
 10950 0b77 50       		.byte	0x50
 10951 0b78 88040000 		.4byte	.LVL407
 10952 0b7c 8F040000 		.4byte	.LVL408-1
 10953 0b80 0300     		.2byte	0x3
 10954 0b82 70       		.byte	0x70
 10955 0b83 7E       		.sleb128 -2
 10956 0b84 9F       		.byte	0x9f
 10957 0b85 94040000 		.4byte	.LVL409
 10958 0b89 96040000 		.4byte	.LVL410
 10959 0b8d 0100     		.2byte	0x1
 10960 0b8f 50       		.byte	0x50
 10961 0b90 96040000 		.4byte	.LVL410
 10962 0b94 AC040000 		.4byte	.LVL414
 10963 0b98 0100     		.2byte	0x1
 10964 0b9a 55       		.byte	0x55
 10965 0b9b AC040000 		.4byte	.LVL414
 10966 0b9f B2040000 		.4byte	.LVL415
 10967 0ba3 0100     		.2byte	0x1
 10968 0ba5 50       		.byte	0x50
 10969 0ba6 B2040000 		.4byte	.LVL415
 10970 0baa B9040000 		.4byte	.LVL416-1
 10971 0bae 0300     		.2byte	0x3
 10972 0bb0 70       		.byte	0x70
 10973 0bb1 7E       		.sleb128 -2
 10974 0bb2 9F       		.byte	0x9f
 10975 0bb3 BE040000 		.4byte	.LVL417
 10976 0bb7 C0040000 		.4byte	.LVL418
 10977 0bbb 0100     		.2byte	0x1
 10978 0bbd 50       		.byte	0x50
 10979 0bbe C0040000 		.4byte	.LVL418
 10980 0bc2 DA040000 		.4byte	.LVL421
 10981 0bc6 0100     		.2byte	0x1
 10982 0bc8 55       		.byte	0x55
 10983 0bc9 DA040000 		.4byte	.LVL421
 10984 0bcd E0040000 		.4byte	.LVL422
 10985 0bd1 0100     		.2byte	0x1
 10986 0bd3 50       		.byte	0x50
ARM GAS  C:\Users\MM1005~1\AppData\Local\Temp\ccukbKgl.s 			page 223


 10987 0bd4 E0040000 		.4byte	.LVL422
 10988 0bd8 E7040000 		.4byte	.LVL423-1
 10989 0bdc 0300     		.2byte	0x3
 10990 0bde 70       		.byte	0x70
 10991 0bdf 7E       		.sleb128 -2
 10992 0be0 9F       		.byte	0x9f
 10993 0be1 EC040000 		.4byte	.LVL424
 10994 0be5 EE040000 		.4byte	.LVL425
 10995 0be9 0100     		.2byte	0x1
 10996 0beb 50       		.byte	0x50
 10997 0bec EE040000 		.4byte	.LVL425
 10998 0bf0 00050000 		.4byte	.LVL427
 10999 0bf4 0100     		.2byte	0x1
 11000 0bf6 55       		.byte	0x55
 11001 0bf7 00050000 		.4byte	.LVL427
 11002 0bfb 06050000 		.4byte	.LVL428
 11003 0bff 0100     		.2byte	0x1
 11004 0c01 50       		.byte	0x50
 11005 0c02 06050000 		.4byte	.LVL428
 11006 0c06 0D050000 		.4byte	.LVL429-1
 11007 0c0a 0300     		.2byte	0x3
 11008 0c0c 70       		.byte	0x70
 11009 0c0d 7E       		.sleb128 -2
 11010 0c0e 9F       		.byte	0x9f
 11011 0c0f 12050000 		.4byte	.LVL430
 11012 0c13 14050000 		.4byte	.LVL431
 11013 0c17 0100     		.2byte	0x1
 11014 0c19 50       		.byte	0x50
 11015 0c1a 14050000 		.4byte	.LVL431
 11016 0c1e 26050000 		.4byte	.LVL433
 11017 0c22 0100     		.2byte	0x1
 11018 0c24 55       		.byte	0x55
 11019 0c25 26050000 		.4byte	.LVL433
 11020 0c29 2C050000 		.4byte	.LVL434
 11021 0c2d 0100     		.2byte	0x1
 11022 0c2f 50       		.byte	0x50
 11023 0c30 2C050000 		.4byte	.LVL434
 11024 0c34 33050000 		.4byte	.LVL435-1
 11025 0c38 0300     		.2byte	0x3
 11026 0c3a 70       		.byte	0x70
 11027 0c3b 7E       		.sleb128 -2
 11028 0c3c 9F       		.byte	0x9f
 11029 0c3d 38050000 		.4byte	.LVL436
 11030 0c41 3D050000 		.4byte	.LVL438-1
 11031 0c45 0100     		.2byte	0x1
 11032 0c47 50       		.byte	0x50
 11033 0c48 4C050000 		.4byte	.LVL440
 11034 0c4c 62050000 		.4byte	.LVL444
 11035 0c50 0100     		.2byte	0x1
 11036 0c52 55       		.byte	0x55
 11037 0c53 62050000 		.4byte	.LVL444
 11038 0c57 68050000 		.4byte	.LVL445
 11039 0c5b 0100     		.2byte	0x1
 11040 0c5d 50       		.byte	0x50
 11041 0c5e 68050000 		.4byte	.LVL445
 11042 0c62 6F050000 		.4byte	.LVL446-1
 11043 0c66 0300     		.2byte	0x3
ARM GAS  C:\Users\MM1005~1\AppData\Local\Temp\ccukbKgl.s 			page 224


 11044 0c68 70       		.byte	0x70
 11045 0c69 7E       		.sleb128 -2
 11046 0c6a 9F       		.byte	0x9f
 11047 0c6b 74050000 		.4byte	.LVL447
 11048 0c6f 7B050000 		.4byte	.LVL449-1
 11049 0c73 0100     		.2byte	0x1
 11050 0c75 50       		.byte	0x50
 11051 0c76 7C050000 		.4byte	.LVL449
 11052 0c7a 82050000 		.4byte	.LVL450
 11053 0c7e 0100     		.2byte	0x1
 11054 0c80 50       		.byte	0x50
 11055 0c81 82050000 		.4byte	.LVL450
 11056 0c85 89050000 		.4byte	.LVL451-1
 11057 0c89 0300     		.2byte	0x3
 11058 0c8b 70       		.byte	0x70
 11059 0c8c 7E       		.sleb128 -2
 11060 0c8d 9F       		.byte	0x9f
 11061 0c8e 8E050000 		.4byte	.LVL452
 11062 0c92 93050000 		.4byte	.LVL454-1
 11063 0c96 0100     		.2byte	0x1
 11064 0c98 50       		.byte	0x50
 11065 0c99 BE050000 		.4byte	.LVL463
 11066 0c9d C6050000 		.4byte	.LVL464
 11067 0ca1 0100     		.2byte	0x1
 11068 0ca3 55       		.byte	0x55
 11069 0ca4 C6050000 		.4byte	.LVL464
 11070 0ca8 CC050000 		.4byte	.LVL465
 11071 0cac 0100     		.2byte	0x1
 11072 0cae 50       		.byte	0x50
 11073 0caf CC050000 		.4byte	.LVL465
 11074 0cb3 D3050000 		.4byte	.LVL466-1
 11075 0cb7 0300     		.2byte	0x3
 11076 0cb9 70       		.byte	0x70
 11077 0cba 7E       		.sleb128 -2
 11078 0cbb 9F       		.byte	0x9f
 11079 0cbc D8050000 		.4byte	.LVL467
 11080 0cc0 DF050000 		.4byte	.LVL469-1
 11081 0cc4 0100     		.2byte	0x1
 11082 0cc6 50       		.byte	0x50
 11083 0cc7 E0050000 		.4byte	.LVL469
 11084 0ccb E6050000 		.4byte	.LVL470
 11085 0ccf 0100     		.2byte	0x1
 11086 0cd1 50       		.byte	0x50
 11087 0cd2 E6050000 		.4byte	.LVL470
 11088 0cd6 ED050000 		.4byte	.LVL471-1
 11089 0cda 0300     		.2byte	0x3
 11090 0cdc 70       		.byte	0x70
 11091 0cdd 7E       		.sleb128 -2
 11092 0cde 9F       		.byte	0x9f
 11093 0cdf F2050000 		.4byte	.LVL472
 11094 0ce3 F7050000 		.4byte	.LVL474-1
 11095 0ce7 0100     		.2byte	0x1
 11096 0ce9 50       		.byte	0x50
 11097 0cea 22060000 		.4byte	.LVL483
 11098 0cee 2A060000 		.4byte	.LVL484
 11099 0cf2 0100     		.2byte	0x1
 11100 0cf4 55       		.byte	0x55
ARM GAS  C:\Users\MM1005~1\AppData\Local\Temp\ccukbKgl.s 			page 225


 11101 0cf5 2A060000 		.4byte	.LVL484
 11102 0cf9 30060000 		.4byte	.LVL485
 11103 0cfd 0100     		.2byte	0x1
 11104 0cff 50       		.byte	0x50
 11105 0d00 30060000 		.4byte	.LVL485
 11106 0d04 37060000 		.4byte	.LVL486-1
 11107 0d08 0300     		.2byte	0x3
 11108 0d0a 70       		.byte	0x70
 11109 0d0b 7E       		.sleb128 -2
 11110 0d0c 9F       		.byte	0x9f
 11111 0d0d 3C060000 		.4byte	.LVL487
 11112 0d11 43060000 		.4byte	.LVL489-1
 11113 0d15 0100     		.2byte	0x1
 11114 0d17 50       		.byte	0x50
 11115 0d18 44060000 		.4byte	.LVL489
 11116 0d1c 4A060000 		.4byte	.LVL490
 11117 0d20 0100     		.2byte	0x1
 11118 0d22 50       		.byte	0x50
 11119 0d23 4A060000 		.4byte	.LVL490
 11120 0d27 51060000 		.4byte	.LVL491-1
 11121 0d2b 0300     		.2byte	0x3
 11122 0d2d 70       		.byte	0x70
 11123 0d2e 7E       		.sleb128 -2
 11124 0d2f 9F       		.byte	0x9f
 11125 0d30 56060000 		.4byte	.LVL492
 11126 0d34 58060000 		.4byte	.LVL493
 11127 0d38 0100     		.2byte	0x1
 11128 0d3a 50       		.byte	0x50
 11129 0d3b 58060000 		.4byte	.LVL493
 11130 0d3f 88060000 		.4byte	.LVL502
 11131 0d43 0100     		.2byte	0x1
 11132 0d45 55       		.byte	0x55
 11133 0d46 88060000 		.4byte	.LVL502
 11134 0d4a 8E060000 		.4byte	.LVL503
 11135 0d4e 0100     		.2byte	0x1
 11136 0d50 50       		.byte	0x50
 11137 0d51 8E060000 		.4byte	.LVL503
 11138 0d55 95060000 		.4byte	.LVL504-1
 11139 0d59 0300     		.2byte	0x3
 11140 0d5b 70       		.byte	0x70
 11141 0d5c 7E       		.sleb128 -2
 11142 0d5d 9F       		.byte	0x9f
 11143 0d5e 9A060000 		.4byte	.LVL505
 11144 0d62 A1060000 		.4byte	.LVL507-1
 11145 0d66 0100     		.2byte	0x1
 11146 0d68 50       		.byte	0x50
 11147 0d69 A2060000 		.4byte	.LVL507
 11148 0d6d A8060000 		.4byte	.LVL508
 11149 0d71 0100     		.2byte	0x1
 11150 0d73 50       		.byte	0x50
 11151 0d74 A8060000 		.4byte	.LVL508
 11152 0d78 AF060000 		.4byte	.LVL509-1
 11153 0d7c 0300     		.2byte	0x3
 11154 0d7e 70       		.byte	0x70
 11155 0d7f 7E       		.sleb128 -2
 11156 0d80 9F       		.byte	0x9f
 11157 0d81 B4060000 		.4byte	.LVL510
ARM GAS  C:\Users\MM1005~1\AppData\Local\Temp\ccukbKgl.s 			page 226


 11158 0d85 B9060000 		.4byte	.LVL512-1
 11159 0d89 0100     		.2byte	0x1
 11160 0d8b 50       		.byte	0x50
 11161 0d8c C4060000 		.4byte	.LVL514
 11162 0d90 0E070000 		.4byte	.LVL523
 11163 0d94 0100     		.2byte	0x1
 11164 0d96 55       		.byte	0x55
 11165 0d97 00000000 		.4byte	0
 11166 0d9b 00000000 		.4byte	0
 11167              	.LLST48:
 11168 0d9f 0C000000 		.4byte	.LVL213
 11169 0da3 0C020000 		.4byte	.LVL304
 11170 0da7 0200     		.2byte	0x2
 11171 0da9 30       		.byte	0x30
 11172 0daa 9F       		.byte	0x9f
 11173 0dab 0C020000 		.4byte	.LVL304
 11174 0daf 12020000 		.4byte	.LVL305
 11175 0db3 0100     		.2byte	0x1
 11176 0db5 50       		.byte	0x50
 11177 0db6 12020000 		.4byte	.LVL305
 11178 0dba 19020000 		.4byte	.LVL306-1
 11179 0dbe 0300     		.2byte	0x3
 11180 0dc0 70       		.byte	0x70
 11181 0dc1 7E       		.sleb128 -2
 11182 0dc2 9F       		.byte	0x9f
 11183 0dc3 1E020000 		.4byte	.LVL307
 11184 0dc7 24020000 		.4byte	.LVL308
 11185 0dcb 0100     		.2byte	0x1
 11186 0dcd 50       		.byte	0x50
 11187 0dce 24020000 		.4byte	.LVL308
 11188 0dd2 48020000 		.4byte	.LVL316
 11189 0dd6 0100     		.2byte	0x1
 11190 0dd8 57       		.byte	0x57
 11191 0dd9 50020000 		.4byte	.LVL317
 11192 0ddd 56020000 		.4byte	.LVL318
 11193 0de1 0100     		.2byte	0x1
 11194 0de3 50       		.byte	0x50
 11195 0de4 56020000 		.4byte	.LVL318
 11196 0de8 5D020000 		.4byte	.LVL319-1
 11197 0dec 0300     		.2byte	0x3
 11198 0dee 70       		.byte	0x70
 11199 0def 7E       		.sleb128 -2
 11200 0df0 9F       		.byte	0x9f
 11201 0df1 62020000 		.4byte	.LVL320
 11202 0df5 68020000 		.4byte	.LVL321
 11203 0df9 0100     		.2byte	0x1
 11204 0dfb 50       		.byte	0x50
 11205 0dfc 68020000 		.4byte	.LVL321
 11206 0e00 D2020000 		.4byte	.LVL341
 11207 0e04 0100     		.2byte	0x1
 11208 0e06 55       		.byte	0x55
 11209 0e07 D2020000 		.4byte	.LVL341
 11210 0e0b 2A030000 		.4byte	.LVL357
 11211 0e0f 0200     		.2byte	0x2
 11212 0e11 30       		.byte	0x30
 11213 0e12 9F       		.byte	0x9f
 11214 0e13 2A030000 		.4byte	.LVL357
ARM GAS  C:\Users\MM1005~1\AppData\Local\Temp\ccukbKgl.s 			page 227


 11215 0e17 30030000 		.4byte	.LVL358
 11216 0e1b 0100     		.2byte	0x1
 11217 0e1d 50       		.byte	0x50
 11218 0e1e 30030000 		.4byte	.LVL358
 11219 0e22 37030000 		.4byte	.LVL359-1
 11220 0e26 0300     		.2byte	0x3
 11221 0e28 70       		.byte	0x70
 11222 0e29 7E       		.sleb128 -2
 11223 0e2a 9F       		.byte	0x9f
 11224 0e2b 78030000 		.4byte	.LVL360
 11225 0e2f 7E030000 		.4byte	.LVL361
 11226 0e33 0100     		.2byte	0x1
 11227 0e35 50       		.byte	0x50
 11228 0e36 7E030000 		.4byte	.LVL361
 11229 0e3a C6030000 		.4byte	.LVL378
 11230 0e3e 0100     		.2byte	0x1
 11231 0e40 55       		.byte	0x55
 11232 0e41 C6030000 		.4byte	.LVL378
 11233 0e45 0E070000 		.4byte	.LVL523
 11234 0e49 0200     		.2byte	0x2
 11235 0e4b 30       		.byte	0x30
 11236 0e4c 9F       		.byte	0x9f
 11237 0e4d 00000000 		.4byte	0
 11238 0e51 00000000 		.4byte	0
 11239              	.LLST49:
 11240 0e55 0C000000 		.4byte	.LVL213
 11241 0e59 2C020000 		.4byte	.LVL310
 11242 0e5d 0200     		.2byte	0x2
 11243 0e5f 30       		.byte	0x30
 11244 0e60 9F       		.byte	0x9f
 11245 0e61 2C020000 		.4byte	.LVL310
 11246 0e65 2E020000 		.4byte	.LVL311
 11247 0e69 0100     		.2byte	0x1
 11248 0e6b 50       		.byte	0x50
 11249 0e6c 2E020000 		.4byte	.LVL311
 11250 0e70 D2020000 		.4byte	.LVL341
 11251 0e74 0300     		.2byte	0x3
 11252 0e76 91       		.byte	0x91
 11253 0e77 A47F     		.sleb128 -92
 11254 0e79 D2020000 		.4byte	.LVL341
 11255 0e7d 0E070000 		.4byte	.LVL523
 11256 0e81 0200     		.2byte	0x2
 11257 0e83 30       		.byte	0x30
 11258 0e84 9F       		.byte	0x9f
 11259 0e85 00000000 		.4byte	0
 11260 0e89 00000000 		.4byte	0
 11261              	.LLST50:
 11262 0e8d 0C000000 		.4byte	.LVL213
 11263 0e91 70020000 		.4byte	.LVL323
 11264 0e95 0200     		.2byte	0x2
 11265 0e97 30       		.byte	0x30
 11266 0e98 9F       		.byte	0x9f
 11267 0e99 70020000 		.4byte	.LVL323
 11268 0e9d 72020000 		.4byte	.LVL324
 11269 0ea1 0100     		.2byte	0x1
 11270 0ea3 50       		.byte	0x50
 11271 0ea4 72020000 		.4byte	.LVL324
ARM GAS  C:\Users\MM1005~1\AppData\Local\Temp\ccukbKgl.s 			page 228


 11272 0ea8 D2020000 		.4byte	.LVL341
 11273 0eac 0100     		.2byte	0x1
 11274 0eae 57       		.byte	0x57
 11275 0eaf D2020000 		.4byte	.LVL341
 11276 0eb3 0E070000 		.4byte	.LVL523
 11277 0eb7 0200     		.2byte	0x2
 11278 0eb9 30       		.byte	0x30
 11279 0eba 9F       		.byte	0x9f
 11280 0ebb 00000000 		.4byte	0
 11281 0ebf 00000000 		.4byte	0
 11282              	.LLST51:
 11283 0ec3 0C000000 		.4byte	.LVL213
 11284 0ec7 92020000 		.4byte	.LVL331
 11285 0ecb 0200     		.2byte	0x2
 11286 0ecd 30       		.byte	0x30
 11287 0ece 9F       		.byte	0x9f
 11288 0ecf 92020000 		.4byte	.LVL331
 11289 0ed3 9C020000 		.4byte	.LVL332
 11290 0ed7 0100     		.2byte	0x1
 11291 0ed9 50       		.byte	0x50
 11292 0eda 9C020000 		.4byte	.LVL332
 11293 0ede B4020000 		.4byte	.LVL336
 11294 0ee2 0100     		.2byte	0x1
 11295 0ee4 54       		.byte	0x54
 11296 0ee5 B4020000 		.4byte	.LVL336
 11297 0ee9 BA020000 		.4byte	.LVL337
 11298 0eed 0100     		.2byte	0x1
 11299 0eef 50       		.byte	0x50
 11300 0ef0 BA020000 		.4byte	.LVL337
 11301 0ef4 D2020000 		.4byte	.LVL341
 11302 0ef8 0100     		.2byte	0x1
 11303 0efa 54       		.byte	0x54
 11304 0efb D2020000 		.4byte	.LVL341
 11305 0eff 0E070000 		.4byte	.LVL523
 11306 0f03 0200     		.2byte	0x2
 11307 0f05 30       		.byte	0x30
 11308 0f06 9F       		.byte	0x9f
 11309 0f07 00000000 		.4byte	0
 11310 0f0b 00000000 		.4byte	0
 11311              	.LLST52:
 11312 0f0f 0C000000 		.4byte	.LVL213
 11313 0f13 86030000 		.4byte	.LVL363
 11314 0f17 0200     		.2byte	0x2
 11315 0f19 30       		.byte	0x30
 11316 0f1a 9F       		.byte	0x9f
 11317 0f1b 86030000 		.4byte	.LVL363
 11318 0f1f 8C030000 		.4byte	.LVL364
 11319 0f23 0100     		.2byte	0x1
 11320 0f25 50       		.byte	0x50
 11321 0f26 8C030000 		.4byte	.LVL364
 11322 0f2a 98030000 		.4byte	.LVL366
 11323 0f2e 0100     		.2byte	0x1
 11324 0f30 56       		.byte	0x56
 11325 0f31 98030000 		.4byte	.LVL366
 11326 0f35 9A030000 		.4byte	.LVL367
 11327 0f39 0100     		.2byte	0x1
 11328 0f3b 50       		.byte	0x50
ARM GAS  C:\Users\MM1005~1\AppData\Local\Temp\ccukbKgl.s 			page 229


 11329 0f3c 9A030000 		.4byte	.LVL367
 11330 0f40 C6030000 		.4byte	.LVL378
 11331 0f44 0100     		.2byte	0x1
 11332 0f46 56       		.byte	0x56
 11333 0f47 C6030000 		.4byte	.LVL378
 11334 0f4b 0E070000 		.4byte	.LVL523
 11335 0f4f 0200     		.2byte	0x2
 11336 0f51 30       		.byte	0x30
 11337 0f52 9F       		.byte	0x9f
 11338 0f53 00000000 		.4byte	0
 11339 0f57 00000000 		.4byte	0
 11340              	.LLST53:
 11341 0f5b 0C000000 		.4byte	.LVL213
 11342 0f5f BA030000 		.4byte	.LVL374
 11343 0f63 0200     		.2byte	0x2
 11344 0f65 30       		.byte	0x30
 11345 0f66 9F       		.byte	0x9f
 11346 0f67 BA030000 		.4byte	.LVL374
 11347 0f6b BC030000 		.4byte	.LVL375
 11348 0f6f 0100     		.2byte	0x1
 11349 0f71 50       		.byte	0x50
 11350 0f72 BC030000 		.4byte	.LVL375
 11351 0f76 BE030000 		.4byte	.LVL376
 11352 0f7a 0100     		.2byte	0x1
 11353 0f7c 51       		.byte	0x51
 11354 0f7d C6030000 		.4byte	.LVL378
 11355 0f81 0E070000 		.4byte	.LVL523
 11356 0f85 0200     		.2byte	0x2
 11357 0f87 30       		.byte	0x30
 11358 0f88 9F       		.byte	0x9f
 11359 0f89 00000000 		.4byte	0
 11360 0f8d 00000000 		.4byte	0
 11361              	.LLST54:
 11362 0f91 40000000 		.4byte	.LVL221
 11363 0f95 58000000 		.4byte	.LVL224
 11364 0f99 0100     		.2byte	0x1
 11365 0f9b 54       		.byte	0x54
 11366 0f9c 5A000000 		.4byte	.LVL225
 11367 0fa0 60000000 		.4byte	.LVL226
 11368 0fa4 0100     		.2byte	0x1
 11369 0fa6 54       		.byte	0x54
 11370 0fa7 62000000 		.4byte	.LVL227
 11371 0fab 7E000000 		.4byte	.LVL231
 11372 0faf 0100     		.2byte	0x1
 11373 0fb1 54       		.byte	0x54
 11374 0fb2 A0040000 		.4byte	.LVL412
 11375 0fb6 A4040000 		.4byte	.LVL413
 11376 0fba 0200     		.2byte	0x2
 11377 0fbc 30       		.byte	0x30
 11378 0fbd 9F       		.byte	0x9f
 11379 0fbe A4040000 		.4byte	.LVL413
 11380 0fc2 4C050000 		.4byte	.LVL440
 11381 0fc6 0100     		.2byte	0x1
 11382 0fc8 56       		.byte	0x56
 11383 0fc9 00000000 		.4byte	0
 11384 0fcd 00000000 		.4byte	0
 11385              		.section	.debug_aranges,"",%progbits
ARM GAS  C:\Users\MM1005~1\AppData\Local\Temp\ccukbKgl.s 			page 230


 11386 0000 BC000000 		.4byte	0xbc
 11387 0004 0200     		.2byte	0x2
 11388 0006 00000000 		.4byte	.Ldebug_info0
 11389 000a 04       		.byte	0x4
 11390 000b 00       		.byte	0
 11391 000c 0000     		.2byte	0
 11392 000e 0000     		.2byte	0
 11393 0010 00000000 		.4byte	.LFB35
 11394 0014 38000000 		.4byte	.LFE35-.LFB35
 11395 0018 00000000 		.4byte	.LFB36
 11396 001c 3C000000 		.4byte	.LFE36-.LFB36
 11397 0020 00000000 		.4byte	.LFB37
 11398 0024 3C000000 		.4byte	.LFE37-.LFB37
 11399 0028 00000000 		.4byte	.LFB38
 11400 002c 3C000000 		.4byte	.LFE38-.LFB38
 11401 0030 00000000 		.4byte	.LFB39
 11402 0034 3C000000 		.4byte	.LFE39-.LFB39
 11403 0038 00000000 		.4byte	.LFB40
 11404 003c 30000000 		.4byte	.LFE40-.LFB40
 11405 0040 00000000 		.4byte	.LFB41
 11406 0044 3C000000 		.4byte	.LFE41-.LFB41
 11407 0048 00000000 		.4byte	.LFB42
 11408 004c 3C000000 		.4byte	.LFE42-.LFB42
 11409 0050 00000000 		.4byte	.LFB44
 11410 0054 02000000 		.4byte	.LFE44-.LFB44
 11411 0058 00000000 		.4byte	.LFB52
 11412 005c 0C000000 		.4byte	.LFE52-.LFB52
 11413 0060 00000000 		.4byte	.LFB51
 11414 0064 1C000000 		.4byte	.LFE51-.LFB51
 11415 0068 00000000 		.4byte	.LFB45
 11416 006c B8000000 		.4byte	.LFE45-.LFB45
 11417 0070 00000000 		.4byte	.LFB46
 11418 0074 80000000 		.4byte	.LFE46-.LFB46
 11419 0078 00000000 		.4byte	.LFB47
 11420 007c 78010000 		.4byte	.LFE47-.LFB47
 11421 0080 00000000 		.4byte	.LFB49
 11422 0084 A8000000 		.4byte	.LFE49-.LFB49
 11423 0088 00000000 		.4byte	.LFB50
 11424 008c D8000000 		.4byte	.LFE50-.LFB50
 11425 0090 00000000 		.4byte	.LFB53
 11426 0094 0C000000 		.4byte	.LFE53-.LFB53
 11427 0098 00000000 		.4byte	.LFB54
 11428 009c 0C000000 		.4byte	.LFE54-.LFB54
 11429 00a0 00000000 		.4byte	.LFB48
 11430 00a4 D4000000 		.4byte	.LFE48-.LFB48
 11431 00a8 00000000 		.4byte	.LFB55
 11432 00ac 0C000000 		.4byte	.LFE55-.LFB55
 11433 00b0 00000000 		.4byte	.LFB43
 11434 00b4 1C070000 		.4byte	.LFE43-.LFB43
 11435 00b8 00000000 		.4byte	0
 11436 00bc 00000000 		.4byte	0
 11437              		.section	.debug_ranges,"",%progbits
 11438              	.Ldebug_ranges0:
 11439 0000 00000000 		.4byte	.LFB35
 11440 0004 38000000 		.4byte	.LFE35
 11441 0008 00000000 		.4byte	.LFB36
 11442 000c 3C000000 		.4byte	.LFE36
ARM GAS  C:\Users\MM1005~1\AppData\Local\Temp\ccukbKgl.s 			page 231


 11443 0010 00000000 		.4byte	.LFB37
 11444 0014 3C000000 		.4byte	.LFE37
 11445 0018 00000000 		.4byte	.LFB38
 11446 001c 3C000000 		.4byte	.LFE38
 11447 0020 00000000 		.4byte	.LFB39
 11448 0024 3C000000 		.4byte	.LFE39
 11449 0028 00000000 		.4byte	.LFB40
 11450 002c 30000000 		.4byte	.LFE40
 11451 0030 00000000 		.4byte	.LFB41
 11452 0034 3C000000 		.4byte	.LFE41
 11453 0038 00000000 		.4byte	.LFB42
 11454 003c 3C000000 		.4byte	.LFE42
 11455 0040 00000000 		.4byte	.LFB44
 11456 0044 02000000 		.4byte	.LFE44
 11457 0048 00000000 		.4byte	.LFB52
 11458 004c 0C000000 		.4byte	.LFE52
 11459 0050 00000000 		.4byte	.LFB51
 11460 0054 1C000000 		.4byte	.LFE51
 11461 0058 00000000 		.4byte	.LFB45
 11462 005c B8000000 		.4byte	.LFE45
 11463 0060 00000000 		.4byte	.LFB46
 11464 0064 80000000 		.4byte	.LFE46
 11465 0068 00000000 		.4byte	.LFB47
 11466 006c 78010000 		.4byte	.LFE47
 11467 0070 00000000 		.4byte	.LFB49
 11468 0074 A8000000 		.4byte	.LFE49
 11469 0078 00000000 		.4byte	.LFB50
 11470 007c D8000000 		.4byte	.LFE50
 11471 0080 00000000 		.4byte	.LFB53
 11472 0084 0C000000 		.4byte	.LFE53
 11473 0088 00000000 		.4byte	.LFB54
 11474 008c 0C000000 		.4byte	.LFE54
 11475 0090 00000000 		.4byte	.LFB48
 11476 0094 D4000000 		.4byte	.LFE48
 11477 0098 00000000 		.4byte	.LFB55
 11478 009c 0C000000 		.4byte	.LFE55
 11479 00a0 00000000 		.4byte	.LFB43
 11480 00a4 1C070000 		.4byte	.LFE43
 11481 00a8 00000000 		.4byte	0
 11482 00ac 00000000 		.4byte	0
 11483              		.section	.debug_line,"",%progbits
 11484              	.Ldebug_line0:
 11485 0000 FF050000 		.section	.debug_str,"MS",%progbits,1
 11485      02008F01 
 11485      00000201 
 11485      FB0E0D00 
 11485      01010101 
 11486              	.LASF193:
 11487 0000 636D645F 		.ascii	"cmd_str\000"
 11487      73747200 
 11488              	.LASF153:
 11489 0008 434D445F 		.ascii	"CMD_ANIM_STOP\000"
 11489      414E494D 
 11489      5F53544F 
 11489      5000
 11490              	.LASF287:
 11491 0016 474E5520 		.ascii	"GNU C 4.9.3 20150303 (release) [ARM/embedded-4_9-br"
ARM GAS  C:\Users\MM1005~1\AppData\Local\Temp\ccukbKgl.s 			page 232


 11491      4320342E 
 11491      392E3320 
 11491      32303135 
 11491      30333033 
 11492 0049 616E6368 		.ascii	"anch revision 221220] -mcpu=cortex-m0plus -mthumb -"
 11492      20726576 
 11492      6973696F 
 11492      6E203232 
 11492      31323230 
 11493 007c 67202D4F 		.ascii	"g -Og -ffunction-sections -ffat-lto-objects\000"
 11493      67202D66 
 11493      66756E63 
 11493      74696F6E 
 11493      2D736563 
 11494              	.LASF195:
 11495 00a8 6765745F 		.ascii	"get_tracker_cmd_id_from_cmd_string\000"
 11495      74726163 
 11495      6B65725F 
 11495      636D645F 
 11495      69645F66 
 11496              	.LASF134:
 11497 00cb 414C4152 		.ascii	"ALARM_ERROR\000"
 11497      4D5F4552 
 11497      524F5200 
 11498              	.LASF279:
 11499 00d7 7365745F 		.ascii	"set_is_anim_on_button_up_enable\000"
 11499      69735F61 
 11499      6E696D5F 
 11499      6F6E5F62 
 11499      7574746F 
 11500              	.LASF122:
 11501 00f7 414E494D 		.ascii	"ANIM_UNKNOWN\000"
 11501      5F554E4B 
 11501      4E4F574E 
 11501      00
 11502              	.LASF129:
 11503 0104 745F7374 		.ascii	"t_struct_animation\000"
 11503      72756374 
 11503      5F616E69 
 11503      6D617469 
 11503      6F6E00
 11504              	.LASF163:
 11505 0117 434D445F 		.ascii	"CMD_TELEMETRY_ENABLE\000"
 11505      54454C45 
 11505      4D455452 
 11505      595F454E 
 11505      41424C45 
 11506              	.LASF105:
 11507 012c 455F4C45 		.ascii	"E_LED_LEFT_GREEN\000"
 11507      445F4C45 
 11507      46545F47 
 11507      5245454E 
 11507      00
 11508              	.LASF291:
 11509 013d 7374726C 		.ascii	"strlen\000"
 11509      656E00
 11510              	.LASF132:
ARM GAS  C:\Users\MM1005~1\AppData\Local\Temp\ccukbKgl.s 			page 233


 11511 0144 414C4152 		.ascii	"ALARM_INFO\000"
 11511      4D5F494E 
 11511      464F00
 11512              	.LASF257:
 11513 014f 7665635F 		.ascii	"vec_sensor_commands\000"
 11513      73656E73 
 11513      6F725F63 
 11513      6F6D6D61 
 11513      6E647300 
 11514              	.LASF286:
 11515 0163 7365745F 		.ascii	"set_number_of_buttons\000"
 11515      6E756D62 
 11515      65725F6F 
 11515      665F6275 
 11515      74746F6E 
 11516              	.LASF268:
 11517 0179 43617053 		.ascii	"CapSense_ISR_Disable\000"
 11517      656E7365 
 11517      5F495352 
 11517      5F446973 
 11517      61626C65 
 11518              	.LASF72:
 11519 018e 736E7254 		.ascii	"snrTestWidgetId\000"
 11519      65737457 
 11519      69646765 
 11519      74496400 
 11520              	.LASF232:
 11521 019e 636C6F63 		.ascii	"clock_time\000"
 11521      6B5F7469 
 11521      6D6500
 11522              	.LASF263:
 11523 01a9 69735F73 		.ascii	"is_sensor_telemetry_enable\000"
 11523      656E736F 
 11523      725F7465 
 11523      6C656D65 
 11523      7472795F 
 11524              	.LASF154:
 11525 01c4 434D445F 		.ascii	"CMD_ANIM_RESUME\000"
 11525      414E494D 
 11525      5F524553 
 11525      554D4500 
 11526              	.LASF140:
 11527 01d4 434D445F 		.ascii	"CMD_BOOTLOADER\000"
 11527      424F4F54 
 11527      4C4F4144 
 11527      455200
 11528              	.LASF214:
 11529 01e3 73656E64 		.ascii	"send_push_button_telemetry\000"
 11529      5F707573 
 11529      685F6275 
 11529      74746F6E 
 11529      5F74656C 
 11530              	.LASF242:
 11531 01fe 616E696D 		.ascii	"anim_id\000"
 11531      5F696400 
 11532              	.LASF8:
 11533 0206 756E7369 		.ascii	"unsigned int\000"
ARM GAS  C:\Users\MM1005~1\AppData\Local\Temp\ccukbKgl.s 			page 234


 11533      676E6564 
 11533      20696E74 
 11533      00
 11534              	.LASF107:
 11535 0213 656E756D 		.ascii	"enum_animation\000"
 11535      5F616E69 
 11535      6D617469 
 11535      6F6E00
 11536              	.LASF62:
 11537 0222 7363616E 		.ascii	"scanCounter\000"
 11537      436F756E 
 11537      74657200 
 11538              	.LASF187:
 11539 022e 73747275 		.ascii	"struct_animation\000"
 11539      63745F61 
 11539      6E696D61 
 11539      74696F6E 
 11539      00
 11540              	.LASF9:
 11541 023f 75696E74 		.ascii	"uint_fast64_t\000"
 11541      5F666173 
 11541      7436345F 
 11541      7400
 11542              	.LASF109:
 11543 024d 414E494D 		.ascii	"ANIM_BUTTON_SMOOTH_FAST\000"
 11543      5F425554 
 11543      544F4E5F 
 11543      534D4F4F 
 11543      54485F46 
 11544              	.LASF223:
 11545 0265 7365745F 		.ascii	"set_is_telemetry_enable\000"
 11545      69735F74 
 11545      656C656D 
 11545      65747279 
 11545      5F656E61 
 11546              	.LASF141:
 11547 027d 434D445F 		.ascii	"CMD_CAPSENSE\000"
 11547      43415053 
 11547      454E5345 
 11547      00
 11548              	.LASF124:
 11549 028a 745F6361 		.ascii	"t_callback_anim\000"
 11549      6C6C6261 
 11549      636B5F61 
 11549      6E696D00 
 11550              	.LASF284:
 11551 029a 7365745F 		.ascii	"set_led_strip\000"
 11551      6C65645F 
 11551      73747269 
 11551      7000
 11552              	.LASF158:
 11553 02a8 434D445F 		.ascii	"CMD_SENSOR_ENABLE\000"
 11553      53454E53 
 11553      4F525F45 
 11553      4E41424C 
 11553      4500
 11554              	.LASF231:
ARM GAS  C:\Users\MM1005~1\AppData\Local\Temp\ccukbKgl.s 			page 235


 11555 02ba 6E625F74 		.ascii	"nb_touched\000"
 11555      6F756368 
 11555      656400
 11556              	.LASF116:
 11557 02c5 414E494D 		.ascii	"ANIM_RED_WHITE_INTENSITY\000"
 11557      5F524544 
 11557      5F574849 
 11557      54455F49 
 11557      4E54454E 
 11558              	.LASF138:
 11559 02de 656E756D 		.ascii	"enum_command\000"
 11559      5F636F6D 
 11559      6D616E64 
 11559      00
 11560              	.LASF198:
 11561 02eb 616E696D 		.ascii	"animation\000"
 11561      6174696F 
 11561      6E00
 11562              	.LASF51:
 11563 02f5 43617053 		.ascii	"CapSense_RAM_WD_LIST_STRUCT\000"
 11563      656E7365 
 11563      5F52414D 
 11563      5F57445F 
 11563      4C495354 
 11564              	.LASF238:
 11565 0311 70617273 		.ascii	"parse_and_execute_command\000"
 11565      655F616E 
 11565      645F6578 
 11565      65637574 
 11565      655F636F 
 11566              	.LASF44:
 11567 032b 62757430 		.ascii	"but0\000"
 11567      00
 11568              	.LASF45:
 11569 0330 62757431 		.ascii	"but1\000"
 11569      00
 11570              	.LASF164:
 11571 0335 434D445F 		.ascii	"CMD_TELEMETRY_DISABLE\000"
 11571      54454C45 
 11571      4D455452 
 11571      595F4449 
 11571      5341424C 
 11572              	.LASF46:
 11573 034b 62757433 		.ascii	"but3\000"
 11573      00
 11574              	.LASF47:
 11575 0350 62757434 		.ascii	"but4\000"
 11575      00
 11576              	.LASF48:
 11577 0355 62757435 		.ascii	"but5\000"
 11577      00
 11578              	.LASF49:
 11579 035a 62757436 		.ascii	"but6\000"
 11579      00
 11580              	.LASF50:
 11581 035f 62757438 		.ascii	"but8\000"
 11581      00
ARM GAS  C:\Users\MM1005~1\AppData\Local\Temp\ccukbKgl.s 			page 236


 11582              	.LASF148:
 11583 0364 434D445F 		.ascii	"CMD_UNKNOWN\000"
 11583      554E4B4E 
 11583      4F574E00 
 11584              	.LASF252:
 11585 0370 6C65645F 		.ascii	"led_index\000"
 11585      696E6465 
 11585      7800
 11586              	.LASF271:
 11587 037a 73747273 		.ascii	"strstr\000"
 11587      747200
 11588              	.LASF180:
 11589 0381 745F656E 		.ascii	"t_enum_led_command\000"
 11589      756D5F6C 
 11589      65645F63 
 11589      6F6D6D61 
 11589      6E6400
 11590              	.LASF272:
 11591 0394 73747263 		.ascii	"strcat\000"
 11591      617400
 11592              	.LASF13:
 11593 039b 666C6F61 		.ascii	"float\000"
 11593      7400
 11594              	.LASF166:
 11595 03a1 745F656E 		.ascii	"t_enum_telemetry_command\000"
 11595      756D5F74 
 11595      656C656D 
 11595      65747279 
 11595      5F636F6D 
 11596              	.LASF199:
 11597 03ba 6765745F 		.ascii	"get_boot_cmd_id_from_cmd_string\000"
 11597      626F6F74 
 11597      5F636D64 
 11597      5F69645F 
 11597      66726F6D 
 11598              	.LASF71:
 11599 03da 736E734C 		.ascii	"snsList\000"
 11599      69737400 
 11600              	.LASF125:
 11601 03e2 68696768 		.ascii	"high_speed\000"
 11601      5F737065 
 11601      656400
 11602              	.LASF7:
 11603 03ed 6C6F6E67 		.ascii	"long long unsigned int\000"
 11603      206C6F6E 
 11603      6720756E 
 11603      7369676E 
 11603      65642069 
 11604              	.LASF171:
 11605 0404 434D445F 		.ascii	"CMD_TRACKER_UNKNOWN\000"
 11605      54524143 
 11605      4B45525F 
 11605      554E4B4E 
 11605      4F574E00 
 11606              	.LASF149:
 11607 0418 745F656E 		.ascii	"t_enum_command\000"
 11607      756D5F63 
ARM GAS  C:\Users\MM1005~1\AppData\Local\Temp\ccukbKgl.s 			page 237


 11607      6F6D6D61 
 11607      6E6400
 11608              	.LASF218:
 11609 0427 73656E64 		.ascii	"send_flash_geometry_telemetry\000"
 11609      5F666C61 
 11609      73685F67 
 11609      656F6D65 
 11609      7472795F 
 11610              	.LASF206:
 11611 0445 616C6172 		.ascii	"alarm_type\000"
 11611      6D5F7479 
 11611      706500
 11612              	.LASF290:
 11613 0450 5F5F6275 		.ascii	"__builtin_strlen\000"
 11613      696C7469 
 11613      6E5F7374 
 11613      726C656E 
 11613      00
 11614              	.LASF73:
 11615 0461 736E7254 		.ascii	"snrTestSensorId\000"
 11615      65737453 
 11615      656E736F 
 11615      72496400 
 11616              	.LASF173:
 11617 0471 656E756D 		.ascii	"enum_led_command\000"
 11617      5F6C6564 
 11617      5F636F6D 
 11617      6D616E64 
 11617      00
 11618              	.LASF90:
 11619 0482 70747232 		.ascii	"ptr2NoiseEnvlp\000"
 11619      4E6F6973 
 11619      65456E76 
 11619      6C7000
 11620              	.LASF84:
 11621 0491 77646774 		.ascii	"wdgtType\000"
 11621      54797065 
 11621      00
 11622              	.LASF264:
 11623 049a 43617053 		.ascii	"CapSense_dsRam\000"
 11623      656E7365 
 11623      5F647352 
 11623      616D00
 11624              	.LASF235:
 11625 04a9 73656E73 		.ascii	"sensors_vec\000"
 11625      6F72735F 
 11625      76656300 
 11626              	.LASF98:
 11627 04b5 745F656E 		.ascii	"t_enum_direction\000"
 11627      756D5F64 
 11627      69726563 
 11627      74696F6E 
 11627      00
 11628              	.LASF102:
 11629 04c6 455F4C45 		.ascii	"E_LED_RIGHT_GREEN\000"
 11629      445F5249 
 11629      4748545F 
ARM GAS  C:\Users\MM1005~1\AppData\Local\Temp\ccukbKgl.s 			page 238


 11629      47524545 
 11629      4E00
 11630              	.LASF106:
 11631 04d8 455F4C45 		.ascii	"E_LED_LEFT_BLUE\000"
 11631      445F4C45 
 11631      46545F42 
 11631      4C554500 
 11632              	.LASF237:
 11633 04e8 7468655F 		.ascii	"the_is_sensor_telemetry_enable\000"
 11633      69735F73 
 11633      656E736F 
 11633      725F7465 
 11633      6C656D65 
 11634              	.LASF104:
 11635 0507 455F4C45 		.ascii	"E_LED_LEFT_RED\000"
 11635      445F4C45 
 11635      46545F52 
 11635      454400
 11636              	.LASF196:
 11637 0516 6765745F 		.ascii	"get_anim_cmd_id_from_cmd_string\000"
 11637      616E696D 
 11637      5F636D64 
 11637      5F69645F 
 11637      66726F6D 
 11638              	.LASF256:
 11639 0536 7665635F 		.ascii	"vec_anim_commands\000"
 11639      616E696D 
 11639      5F636F6D 
 11639      6D616E64 
 11639      7300
 11640              	.LASF135:
 11641 0548 414C4152 		.ascii	"ALARM_FATAL\000"
 11641      4D5F4641 
 11641      54414C00 
 11642              	.LASF68:
 11643 0554 6D6F6443 		.ascii	"modCsdClk\000"
 11643      7364436C 
 11643      6B00
 11644              	.LASF156:
 11645 055e 745F656E 		.ascii	"t_enum_anim_command\000"
 11645      756D5F61 
 11645      6E696D5F 
 11645      636F6D6D 
 11645      616E6400 
 11646              	.LASF204:
 11647 0572 73656E64 		.ascii	"send_telemetry\000"
 11647      5F74656C 
 11647      656D6574 
 11647      727900
 11648              	.LASF57:
 11649 0581 43617053 		.ascii	"CapSense_RAM_SNS_STRUCT\000"
 11649      656E7365 
 11649      5F52414D 
 11649      5F534E53 
 11649      5F535452 
 11650              	.LASF176:
 11651 0599 434D445F 		.ascii	"CMD_LED_SET_COLOR_RIGHT\000"
ARM GAS  C:\Users\MM1005~1\AppData\Local\Temp\ccukbKgl.s 			page 239


 11651      4C45445F 
 11651      5345545F 
 11651      434F4C4F 
 11651      525F5249 
 11652              	.LASF34:
 11653 05b1 62736C6E 		.ascii	"bslnCoeff\000"
 11653      436F6566 
 11653      6600
 11654              	.LASF114:
 11655 05bb 414E494D 		.ascii	"ANIM_GREEN_INTENSITY\000"
 11655      5F475245 
 11655      454E5F49 
 11655      4E54454E 
 11655      53495459 
 11656              	.LASF113:
 11657 05d0 414E494D 		.ascii	"ANIM_RED_INTENSITY\000"
 11657      5F524544 
 11657      5F494E54 
 11657      454E5349 
 11657      545900
 11658              	.LASF289:
 11659 05e3 433A5C77 		.ascii	"C:\\work\\Eddie\\Eddie_DP0_Slider\\Slider.cydsn\000"
 11659      6F726B5C 
 11659      45646469 
 11659      655C4564 
 11659      6469655F 
 11660              	.LASF225:
 11661 060f 6765745F 		.ascii	"get_is_sensor_telemetry_enable\000"
 11661      69735F73 
 11661      656E736F 
 11661      725F7465 
 11661      6C656D65 
 11662              	.LASF259:
 11663 062e 7665635F 		.ascii	"vec_tracker_commands\000"
 11663      74726163 
 11663      6B65725F 
 11663      636F6D6D 
 11663      616E6473 
 11664              	.LASF234:
 11665 0643 6D61785F 		.ascii	"max_sensor\000"
 11665      73656E73 
 11665      6F7200
 11666              	.LASF183:
 11667 064e 434D445F 		.ascii	"CMD_BOOT_EXIT\000"
 11667      424F4F54 
 11667      5F455849 
 11667      5400
 11668              	.LASF159:
 11669 065c 434D445F 		.ascii	"CMD_SENSOR_DISABLE\000"
 11669      53454E53 
 11669      4F525F44 
 11669      49534142 
 11669      4C4500
 11670              	.LASF244:
 11671 066f 73656E73 		.ascii	"sensor_cmd_id\000"
 11671      6F725F63 
 11671      6D645F69 
ARM GAS  C:\Users\MM1005~1\AppData\Local\Temp\ccukbKgl.s 			page 240


 11671      6400
 11672              	.LASF39:
 11673 067d 73696750 		.ascii	"sigPFC\000"
 11673      464300
 11674              	.LASF227:
 11675 0684 62757474 		.ascii	"button\000"
 11675      6F6E00
 11676              	.LASF150:
 11677 068b 656E756D 		.ascii	"enum_anim_command\000"
 11677      5F616E69 
 11677      6D5F636F 
 11677      6D6D616E 
 11677      6400
 11678              	.LASF142:
 11679 069d 434D445F 		.ascii	"CMD_LED\000"
 11679      4C454400 
 11680              	.LASF31:
 11681 06a5 68797374 		.ascii	"hysteresis\000"
 11681      65726573 
 11681      697300
 11682              	.LASF215:
 11683 06b0 63617073 		.ascii	"capsense_id\000"
 11683      656E7365 
 11683      5F696400 
 11684              	.LASF151:
 11685 06bc 434D445F 		.ascii	"CMD_ANIM_AUTO\000"
 11685      414E494D 
 11685      5F415554 
 11685      4F00
 11686              	.LASF115:
 11687 06ca 414E494D 		.ascii	"ANIM_BLUE_INTENSITY\000"
 11687      5F424C55 
 11687      455F494E 
 11687      54454E53 
 11687      49545900 
 11688              	.LASF157:
 11689 06de 656E756D 		.ascii	"enum_sensor_command\000"
 11689      5F73656E 
 11689      736F725F 
 11689      636F6D6D 
 11689      616E6400 
 11690              	.LASF288:
 11691 06f2 636F6D6D 		.ascii	"command_telemetry.c\000"
 11691      616E645F 
 11691      74656C65 
 11691      6D657472 
 11691      792E6300 
 11692              	.LASF92:
 11693 0706 43617053 		.ascii	"CapSense_FLASH_WD_STRUCT\000"
 11693      656E7365 
 11693      5F464C41 
 11693      53485F57 
 11693      445F5354 
 11694              	.LASF212:
 11695 071f 73656E64 		.ascii	"send_telemetry_capsense\000"
 11695      5F74656C 
 11695      656D6574 
ARM GAS  C:\Users\MM1005~1\AppData\Local\Temp\ccukbKgl.s 			page 241


 11695      72795F63 
 11695      61707365 
 11696              	.LASF33:
 11697 0737 6C6F7742 		.ascii	"lowBslnRst\000"
 11697      736C6E52 
 11697      737400
 11698              	.LASF179:
 11699 0742 434D445F 		.ascii	"CMD_LED_UNKNOWN\000"
 11699      4C45445F 
 11699      554E4B4E 
 11699      4F574E00 
 11700              	.LASF170:
 11701 0752 434D445F 		.ascii	"CMD_TRACKER_SET_BUTTON\000"
 11701      54524143 
 11701      4B45525F 
 11701      5345545F 
 11701      42555454 
 11702              	.LASF191:
 11703 0769 6765745F 		.ascii	"get_cmd_id_from_cmd_string\000"
 11703      636D645F 
 11703      69645F66 
 11703      726F6D5F 
 11703      636D645F 
 11704              	.LASF254:
 11705 0784 6C65645F 		.ascii	"led_vec\000"
 11705      76656300 
 11706              	.LASF83:
 11707 078c 746F7461 		.ascii	"totalNumSns\000"
 11707      6C4E756D 
 11707      536E7300 
 11708              	.LASF145:
 11709 0798 434D445F 		.ascii	"CMD_TELEMETRY\000"
 11709      54454C45 
 11709      4D455452 
 11709      5900
 11710              	.LASF26:
 11711 07a6 534D4152 		.ascii	"SMARTSENSE_CSD_NOISE_ENVELOPE_STRUCT\000"
 11711      5453454E 
 11711      53455F43 
 11711      53445F4E 
 11711      4F495345 
 11712              	.LASF185:
 11713 07cb 434D445F 		.ascii	"CMD_BOOT_UNKNOWN\000"
 11713      424F4F54 
 11713      5F554E4B 
 11713      4E4F574E 
 11713      00
 11714              	.LASF190:
 11715 07dc 745F7374 		.ascii	"t_struct_command\000"
 11715      72756374 
 11715      5F636F6D 
 11715      6D616E64 
 11715      00
 11716              	.LASF243:
 11717 07ed 6C65645F 		.ascii	"led_cmd_id\000"
 11717      636D645F 
 11717      696400
ARM GAS  C:\Users\MM1005~1\AppData\Local\Temp\ccukbKgl.s 			page 242


 11718              	.LASF29:
 11719 07f8 6E6F6973 		.ascii	"noiseTh\000"
 11719      65546800 
 11720              	.LASF15:
 11721 0800 63686172 		.ascii	"char\000"
 11721      00
 11722              	.LASF168:
 11723 0805 434D445F 		.ascii	"CMD_TRACKER_ENABLE\000"
 11723      54524143 
 11723      4B45525F 
 11723      454E4142 
 11723      4C4500
 11724              	.LASF247:
 11725 0818 626F6F74 		.ascii	"boot_cmd_id\000"
 11725      5F636D64 
 11725      5F696400 
 11726              	.LASF172:
 11727 0824 745F656E 		.ascii	"t_enum_tracker_command\000"
 11727      756D5F74 
 11727      7261636B 
 11727      65725F63 
 11727      6F6D6D61 
 11728              	.LASF276:
 11729 083b 43617053 		.ascii	"CapSense_IsSensorActive\000"
 11729      656E7365 
 11729      5F497353 
 11729      656E736F 
 11729      72416374 
 11730              	.LASF11:
 11731 0853 75696E74 		.ascii	"uint16\000"
 11731      313600
 11732              	.LASF203:
 11733 085a 74656C65 		.ascii	"telemetry\000"
 11733      6D657472 
 11733      7900
 11734              	.LASF146:
 11735 0864 434D445F 		.ascii	"CMD_TRACKER\000"
 11735      54524143 
 11735      4B455200 
 11736              	.LASF280:
 11737 0870 7365745F 		.ascii	"set_current_callback_anim\000"
 11737      63757272 
 11737      656E745F 
 11737      63616C6C 
 11737      6261636B 
 11738              	.LASF110:
 11739 088a 414E494D 		.ascii	"ANIM_LEFT_RIGHT\000"
 11739      5F4C4546 
 11739      545F5249 
 11739      47485400 
 11740              	.LASF27:
 11741 089a 7265736F 		.ascii	"resolution\000"
 11741      6C757469 
 11741      6F6E00
 11742              	.LASF258:
 11743 08a5 7665635F 		.ascii	"vec_telemetry_commands\000"
 11743      74656C65 
ARM GAS  C:\Users\MM1005~1\AppData\Local\Temp\ccukbKgl.s 			page 243


 11743      6D657472 
 11743      795F636F 
 11743      6D6D616E 
 11744              	.LASF63:
 11745 08bc 73746174 		.ascii	"status\000"
 11745      757300
 11746              	.LASF17:
 11747 08c3 43617053 		.ascii	"CapSense_LOW_BSLN_RST_TYPE\000"
 11747      656E7365 
 11747      5F4C4F57 
 11747      5F42534C 
 11747      4E5F5253 
 11748              	.LASF133:
 11749 08de 414C4152 		.ascii	"ALARM_WARNING\000"
 11749      4D5F5741 
 11749      524E494E 
 11749      4700
 11750              	.LASF161:
 11751 08ec 745F656E 		.ascii	"t_enum_sensor_command\000"
 11751      756D5F73 
 11751      656E736F 
 11751      725F636F 
 11751      6D6D616E 
 11752              	.LASF56:
 11753 0902 69646163 		.ascii	"idacComp\000"
 11753      436F6D70 
 11753      00
 11754              	.LASF220:
 11755 090b 666C6173 		.ascii	"flash_first_row\000"
 11755      685F6669 
 11755      7273745F 
 11755      726F7700 
 11756              	.LASF85:
 11757 091b 73656E73 		.ascii	"senseMethod\000"
 11757      654D6574 
 11757      686F6400 
 11758              	.LASF165:
 11759 0927 434D445F 		.ascii	"CMD_TELEMETRY_UNKNOWN\000"
 11759      54454C45 
 11759      4D455452 
 11759      595F554E 
 11759      4B4E4F57 
 11760              	.LASF6:
 11761 093d 6C6F6E67 		.ascii	"long long int\000"
 11761      206C6F6E 
 11761      6720696E 
 11761      7400
 11762              	.LASF86:
 11763 094b 6E756D43 		.ascii	"numCols\000"
 11763      6F6C7300 
 11764              	.LASF269:
 11765 0953 43617053 		.ascii	"CapSense_ISR_Enable\000"
 11765      656E7365 
 11765      5F495352 
 11765      5F456E61 
 11765      626C6500 
 11766              	.LASF128:
ARM GAS  C:\Users\MM1005~1\AppData\Local\Temp\ccukbKgl.s 			page 244


 11767 0967 64657363 		.ascii	"description\000"
 11767      72697074 
 11767      696F6E00 
 11768              	.LASF32:
 11769 0973 6F6E4465 		.ascii	"onDebounce\000"
 11769      626F756E 
 11769      636500
 11770              	.LASF186:
 11771 097e 745F656E 		.ascii	"t_enum_bootloader_command\000"
 11771      756D5F62 
 11771      6F6F746C 
 11771      6F616465 
 11771      725F636F 
 11772              	.LASF144:
 11773 0998 434D445F 		.ascii	"CMD_SENSOR\000"
 11773      53454E53 
 11773      4F5200
 11774              	.LASF121:
 11775 09a3 414E494D 		.ascii	"ANIM_FIX_WHITE\000"
 11775      5F464958 
 11775      5F574849 
 11775      544500
 11776              	.LASF184:
 11777 09b2 434D445F 		.ascii	"CMD_BOOT_GET_FLASH_GEO\000"
 11777      424F4F54 
 11777      5F474554 
 11777      5F464C41 
 11777      53485F47 
 11778              	.LASF70:
 11779 09c9 77646774 		.ascii	"wdgtList\000"
 11779      4C697374 
 11779      00
 11780              	.LASF216:
 11781 09d2 62757474 		.ascii	"button_name\000"
 11781      6F6E5F6E 
 11781      616D6500 
 11782              	.LASF94:
 11783 09de 43617053 		.ascii	"CapSense_FLASH_STRUCT\000"
 11783      656E7365 
 11783      5F464C41 
 11783      53485F53 
 11783      54525543 
 11784              	.LASF205:
 11785 09f4 73656E64 		.ascii	"send_alarm_telemetry\000"
 11785      5F616C61 
 11785      726D5F74 
 11785      656C656D 
 11785      65747279 
 11786              	.LASF75:
 11787 0a09 736E7254 		.ascii	"snrTestRawCount\000"
 11787      65737452 
 11787      6177436F 
 11787      756E7400 
 11788              	.LASF160:
 11789 0a19 434D445F 		.ascii	"CMD_SENSOR_UNKNOWN\000"
 11789      53454E53 
 11789      4F525F55 
ARM GAS  C:\Users\MM1005~1\AppData\Local\Temp\ccukbKgl.s 			page 245


 11789      4E4B4E4F 
 11789      574E00
 11790              	.LASF177:
 11791 0a2c 434D445F 		.ascii	"CMD_LED_SET_WHITE\000"
 11791      4C45445F 
 11791      5345545F 
 11791      57484954 
 11791      4500
 11792              	.LASF270:
 11793 0a3e 6D656D73 		.ascii	"memset\000"
 11793      657400
 11794              	.LASF99:
 11795 0a45 656E756D 		.ascii	"enum_direction\000"
 11795      5F646972 
 11795      65637469 
 11795      6F6E00
 11796              	.LASF30:
 11797 0a54 6E4E6F69 		.ascii	"nNoiseTh\000"
 11797      73655468 
 11797      00
 11798              	.LASF67:
 11799 0a5d 63736430 		.ascii	"csd0Config\000"
 11799      436F6E66 
 11799      696700
 11800              	.LASF97:
 11801 0a68 44495245 		.ascii	"DIRECT_STOP\000"
 11801      43545F53 
 11801      544F5000 
 11802              	.LASF293:
 11803 0a74 6765745F 		.ascii	"get_software_version\000"
 11803      736F6674 
 11803      77617265 
 11803      5F766572 
 11803      73696F6E 
 11804              	.LASF246:
 11805 0a89 74726163 		.ascii	"tracker_cmd_id\000"
 11805      6B65725F 
 11805      636D645F 
 11805      696400
 11806              	.LASF266:
 11807 0a98 6765745F 		.ascii	"get_animation\000"
 11807      616E696D 
 11807      6174696F 
 11807      6E00
 11808              	.LASF118:
 11809 0aa6 414E494D 		.ascii	"ANIM_BLUE_WHITE_INTENSITY\000"
 11809      5F424C55 
 11809      455F5748 
 11809      4954455F 
 11809      494E5445 
 11810              	.LASF12:
 11811 0ac0 75696E74 		.ascii	"uint32\000"
 11811      333200
 11812              	.LASF127:
 11813 0ac7 63616C6C 		.ascii	"callback\000"
 11813      6261636B 
 11813      00
ARM GAS  C:\Users\MM1005~1\AppData\Local\Temp\ccukbKgl.s 			page 246


 11814              	.LASF80:
 11815 0ad0 70747232 		.ascii	"ptr2FltrHistory\000"
 11815      466C7472 
 11815      48697374 
 11815      6F727900 
 11816              	.LASF100:
 11817 0ae0 656E756D 		.ascii	"enum_color_led_pos\000"
 11817      5F636F6C 
 11817      6F725F6C 
 11817      65645F70 
 11817      6F7300
 11818              	.LASF283:
 11819 0af3 7365745F 		.ascii	"set_led\000"
 11819      6C656400 
 11820              	.LASF241:
 11821 0afb 616E696D 		.ascii	"anim_cmd_id\000"
 11821      5F636D64 
 11821      5F696400 
 11822              	.LASF219:
 11823 0b07 666C6173 		.ascii	"flash_checksum\000"
 11823      685F6368 
 11823      65636B73 
 11823      756D00
 11824              	.LASF126:
 11825 0b16 73746172 		.ascii	"started\000"
 11825      74656400 
 11826              	.LASF131:
 11827 0b1e 414C4152 		.ascii	"ALARM_LOG\000"
 11827      4D5F4C4F 
 11827      4700
 11828              	.LASF169:
 11829 0b28 434D445F 		.ascii	"CMD_TRACKER_DISABLE\000"
 11829      54524143 
 11829      4B45525F 
 11829      44495341 
 11829      424C4500 
 11830              	.LASF233:
 11831 0b3c 7374725F 		.ascii	"str_direction\000"
 11831      64697265 
 11831      6374696F 
 11831      6E00
 11832              	.LASF250:
 11833 0b4a 67726565 		.ascii	"green\000"
 11833      6E00
 11834              	.LASF101:
 11835 0b50 455F4C45 		.ascii	"E_LED_RIGHT_RED\000"
 11835      445F5249 
 11835      4748545F 
 11835      52454400 
 11836              	.LASF209:
 11837 0b60 73656E64 		.ascii	"send_animation_telemetry\000"
 11837      5F616E69 
 11837      6D617469 
 11837      6F6E5F74 
 11837      656C656D 
 11838              	.LASF136:
 11839 0b79 414C4152 		.ascii	"ALARM_UNKNOWN\000"
ARM GAS  C:\Users\MM1005~1\AppData\Local\Temp\ccukbKgl.s 			page 247


 11839      4D5F554E 
 11839      4B4E4F57 
 11839      4E00
 11840              	.LASF74:
 11841 0b87 736E7254 		.ascii	"snrTestScanCounter\000"
 11841      65737453 
 11841      63616E43 
 11841      6F756E74 
 11841      657200
 11842              	.LASF59:
 11843 0b9a 636F6E66 		.ascii	"configId\000"
 11843      69674964 
 11843      00
 11844              	.LASF79:
 11845 0ba3 70747232 		.ascii	"ptr2SnsRam\000"
 11845      536E7352 
 11845      616D00
 11846              	.LASF167:
 11847 0bae 656E756D 		.ascii	"enum_tracker_command\000"
 11847      5F747261 
 11847      636B6572 
 11847      5F636F6D 
 11847      6D616E64 
 11848              	.LASF119:
 11849 0bc3 414E494D 		.ascii	"ANIM_COLORS_INTENSITY\000"
 11849      5F434F4C 
 11849      4F52535F 
 11849      494E5445 
 11849      4E534954 
 11850              	.LASF208:
 11851 0bd9 616C6172 		.ascii	"alarm_string\000"
 11851      6D5F7374 
 11851      72696E67 
 11851      00
 11852              	.LASF66:
 11853 0be6 736E7353 		.ascii	"snsStatus\000"
 11853      74617475 
 11853      7300
 11854              	.LASF37:
 11855 0bf0 736E7343 		.ascii	"snsClkSource\000"
 11855      6C6B536F 
 11855      75726365 
 11855      00
 11856              	.LASF262:
 11857 0bfd 69735F74 		.ascii	"is_telemetry_enable\000"
 11857      656C656D 
 11857      65747279 
 11857      5F656E61 
 11857      626C6500 
 11858              	.LASF249:
 11859 0c11 6E657874 		.ascii	"next_param_str\000"
 11859      5F706172 
 11859      616D5F73 
 11859      747200
 11860              	.LASF202:
 11861 0c20 6765745F 		.ascii	"get_is_telemetry_enable\000"
 11861      69735F74 
ARM GAS  C:\Users\MM1005~1\AppData\Local\Temp\ccukbKgl.s 			page 248


 11861      656C656D 
 11861      65747279 
 11861      5F656E61 
 11862              	.LASF88:
 11863 0c38 78526573 		.ascii	"xResolution\000"
 11863      6F6C7574 
 11863      696F6E00 
 11864              	.LASF188:
 11865 0c44 73747275 		.ascii	"struct_command\000"
 11865      63745F63 
 11865      6F6D6D61 
 11865      6E6400
 11866              	.LASF137:
 11867 0c53 745F656E 		.ascii	"t_enum_alarm_type\000"
 11867      756D5F61 
 11867      6C61726D 
 11867      5F747970 
 11867      6500
 11868              	.LASF2:
 11869 0c65 73686F72 		.ascii	"short int\000"
 11869      7420696E 
 11869      7400
 11870              	.LASF76:
 11871 0c6f 43617053 		.ascii	"CapSense_RAM_STRUCT\000"
 11871      656E7365 
 11871      5F52414D 
 11871      5F535452 
 11871      55435400 
 11872              	.LASF139:
 11873 0c83 434D445F 		.ascii	"CMD_ANIMATION\000"
 11873      414E494D 
 11873      4154494F 
 11873      4E00
 11874              	.LASF4:
 11875 0c91 6C6F6E67 		.ascii	"long int\000"
 11875      20696E74 
 11875      00
 11876              	.LASF181:
 11877 0c9a 656E756D 		.ascii	"enum_bootloader_command\000"
 11877      5F626F6F 
 11877      746C6F61 
 11877      6465725F 
 11877      636F6D6D 
 11878              	.LASF64:
 11879 0cb2 77646774 		.ascii	"wdgtEnable\000"
 11879      456E6162 
 11879      6C6500
 11880              	.LASF275:
 11881 0cbd 6765745F 		.ascii	"get_timer_interrrupt_count\000"
 11881      74696D65 
 11881      725F696E 
 11881      74657272 
 11881      72757074 
 11882              	.LASF54:
 11883 0cd8 64696666 		.ascii	"diff\000"
 11883      00
 11884              	.LASF228:
ARM GAS  C:\Users\MM1005~1\AppData\Local\Temp\ccukbKgl.s 			page 249


 11885 0cdd 66696E67 		.ascii	"finger_direct\000"
 11885      65725F64 
 11885      69726563 
 11885      7400
 11886              	.LASF210:
 11887 0ceb 616E696D 		.ascii	"animation_index\000"
 11887      6174696F 
 11887      6E5F696E 
 11887      64657800 
 11888              	.LASF222:
 11889 0cfb 666C6173 		.ascii	"flash_size\000"
 11889      685F7369 
 11889      7A6500
 11890              	.LASF130:
 11891 0d06 656E756D 		.ascii	"enum_alarm_type\000"
 11891      5F616C61 
 11891      726D5F74 
 11891      79706500 
 11892              	.LASF61:
 11893 0d16 74756E65 		.ascii	"tunerCmd\000"
 11893      72436D64 
 11893      00
 11894              	.LASF285:
 11895 0d1f 7365745F 		.ascii	"set_is_tracker_enable\000"
 11895      69735F74 
 11895      7261636B 
 11895      65725F65 
 11895      6E61626C 
 11896              	.LASF108:
 11897 0d35 414E494D 		.ascii	"ANIM_BUTTON_SMOOTH_SLOW\000"
 11897      5F425554 
 11897      544F4E5F 
 11897      534D4F4F 
 11897      54485F53 
 11898              	.LASF117:
 11899 0d4d 414E494D 		.ascii	"ANIM_GREEN_WHITE_INTENSITY\000"
 11899      5F475245 
 11899      454E5F57 
 11899      48495445 
 11899      5F494E54 
 11900              	.LASF178:
 11901 0d68 434D445F 		.ascii	"CMD_LED_SET_STRIP\000"
 11901      4C45445F 
 11901      5345545F 
 11901      53545249 
 11901      5000
 11902              	.LASF251:
 11903 0d7a 626C7565 		.ascii	"blue\000"
 11903      00
 11904              	.LASF211:
 11905 0d7f 61637469 		.ascii	"action\000"
 11905      6F6E00
 11906              	.LASF152:
 11907 0d86 434D445F 		.ascii	"CMD_ANIM_MANUAL\000"
 11907      414E494D 
 11907      5F4D414E 
 11907      55414C00 
ARM GAS  C:\Users\MM1005~1\AppData\Local\Temp\ccukbKgl.s 			page 250


 11908              	.LASF155:
 11909 0d96 434D445F 		.ascii	"CMD_ANIM_UNKNOWN\000"
 11909      414E494D 
 11909      5F554E4B 
 11909      4E4F574E 
 11909      00
 11910              	.LASF175:
 11911 0da7 434D445F 		.ascii	"CMD_LED_SET_COLOR_LEFT\000"
 11911      4C45445F 
 11911      5345545F 
 11911      434F4C4F 
 11911      525F4C45 
 11912              	.LASF143:
 11913 0dbe 434D445F 		.ascii	"CMD_HELP\000"
 11913      48454C50 
 11913      00
 11914              	.LASF111:
 11915 0dc7 414E494D 		.ascii	"ANIM_INTENSITY\000"
 11915      5F494E54 
 11915      454E5349 
 11915      545900
 11916              	.LASF207:
 11917 0dd6 736F7572 		.ascii	"source\000"
 11917      636500
 11918              	.LASF147:
 11919 0ddd 434D445F 		.ascii	"CMD_VERSION\000"
 11919      56455253 
 11919      494F4E00 
 11920              	.LASF189:
 11921 0de9 6E616D65 		.ascii	"name\000"
 11921      00
 11922              	.LASF265:
 11923 0dee 43617053 		.ascii	"CapSense_dsFlash\000"
 11923      656E7365 
 11923      5F647346 
 11923      6C617368 
 11923      00
 11924              	.LASF38:
 11925 0dff 66696E67 		.ascii	"fingerCap\000"
 11925      65724361 
 11925      7000
 11926              	.LASF65:
 11927 0e09 77646774 		.ascii	"wdgtStatus\000"
 11927      53746174 
 11927      757300
 11928              	.LASF217:
 11929 0e14 69735F62 		.ascii	"is_button_down\000"
 11929      7574746F 
 11929      6E5F646F 
 11929      776E00
 11930              	.LASF41:
 11931 0e23 43617053 		.ascii	"CapSense_RAM_WD_SLIDER_STRUCT\000"
 11931      656E7365 
 11931      5F52414D 
 11931      5F57445F 
 11931      534C4944 
 11932              	.LASF18:
ARM GAS  C:\Users\MM1005~1\AppData\Local\Temp\ccukbKgl.s 			page 251


 11933 0e41 73697A65 		.ascii	"sizetype\000"
 11933      74797065 
 11933      00
 11934              	.LASF5:
 11935 0e4a 6C6F6E67 		.ascii	"long unsigned int\000"
 11935      20756E73 
 11935      69676E65 
 11935      6420696E 
 11935      7400
 11936              	.LASF120:
 11937 0e5c 414E494D 		.ascii	"ANIM_RAINBOW_COLORS\000"
 11937      5F524149 
 11937      4E424F57 
 11937      5F434F4C 
 11937      4F525300 
 11938              	.LASF35:
 11939 0e70 69646163 		.ascii	"idacMod\000"
 11939      4D6F6400 
 11940              	.LASF182:
 11941 0e78 434D445F 		.ascii	"CMD_BOOT_START\000"
 11941      424F4F54 
 11941      5F535441 
 11941      525400
 11942              	.LASF221:
 11943 0e87 666C6173 		.ascii	"flash_last_row\000"
 11943      685F6C61 
 11943      73745F72 
 11943      6F7700
 11944              	.LASF277:
 11945 0e96 73747263 		.ascii	"strchr\000"
 11945      687200
 11946              	.LASF224:
 11947 0e9d 7468655F 		.ascii	"the_is_telemetry_enable\000"
 11947      69735F74 
 11947      656C656D 
 11947      65747279 
 11947      5F656E61 
 11948              	.LASF248:
 11949 0eb5 70617261 		.ascii	"param_str\000"
 11949      6D5F7374 
 11949      7200
 11950              	.LASF81:
 11951 0ebf 70747232 		.ascii	"ptr2DebounceArr\000"
 11951      4465626F 
 11951      756E6365 
 11951      41727200 
 11952              	.LASF236:
 11953 0ecf 7365745F 		.ascii	"set_is_sensor_telemetry_enable\000"
 11953      69735F73 
 11953      656E736F 
 11953      725F7465 
 11953      6C656D65 
 11954              	.LASF240:
 11955 0eee 636D645F 		.ascii	"cmd_id\000"
 11955      696400
 11956              	.LASF89:
 11957 0ef5 7843656E 		.ascii	"xCentroidMultiplier\000"
ARM GAS  C:\Users\MM1005~1\AppData\Local\Temp\ccukbKgl.s 			page 252


 11957      74726F69 
 11957      644D756C 
 11957      7469706C 
 11957      69657200 
 11958              	.LASF28:
 11959 0f09 66696E67 		.ascii	"fingerTh\000"
 11959      65725468 
 11959      00
 11960              	.LASF278:
 11961 0f12 7365745F 		.ascii	"set_is_auto_anim_rotation_enable\000"
 11961      69735F61 
 11961      75746F5F 
 11961      616E696D 
 11961      5F726F74 
 11962              	.LASF123:
 11963 0f33 745F656E 		.ascii	"t_enum_animation\000"
 11963      756D5F61 
 11963      6E696D61 
 11963      74696F6E 
 11963      00
 11964              	.LASF53:
 11965 0f44 62736C6E 		.ascii	"bslnExt\000"
 11965      45787400 
 11966              	.LASF91:
 11967 0f4c 70747232 		.ascii	"ptr2PosHistory\000"
 11967      506F7348 
 11967      6973746F 
 11967      727900
 11968              	.LASF42:
 11969 0f5b 43617053 		.ascii	"CapSense_RAM_WD_BUTTON_STRUCT\000"
 11969      656E7365 
 11969      5F52414D 
 11969      5F57445F 
 11969      42555454 
 11970              	.LASF281:
 11971 0f79 7365745F 		.ascii	"set_all_leds_intensity\000"
 11971      616C6C5F 
 11971      6C656473 
 11971      5F696E74 
 11971      656E7369 
 11972              	.LASF200:
 11973 0f90 6765745F 		.ascii	"get_led_cmd_id_from_cmd_string\000"
 11973      6C65645F 
 11973      636D645F 
 11973      69645F66 
 11973      726F6D5F 
 11974              	.LASF1:
 11975 0faf 756E7369 		.ascii	"unsigned char\000"
 11975      676E6564 
 11975      20636861 
 11975      7200
 11976              	.LASF230:
 11977 0fbd 70726576 		.ascii	"previous_raw_pos\000"
 11977      696F7573 
 11977      5F726177 
 11977      5F706F73 
 11977      00
ARM GAS  C:\Users\MM1005~1\AppData\Local\Temp\ccukbKgl.s 			page 253


 11978              	.LASF213:
 11979 0fce 6E625F73 		.ascii	"nb_sensors\000"
 11979      656E736F 
 11979      727300
 11980              	.LASF82:
 11981 0fd9 73746174 		.ascii	"staticConfig\000"
 11981      6963436F 
 11981      6E666967 
 11981      00
 11982              	.LASF162:
 11983 0fe6 656E756D 		.ascii	"enum_telemetry_command\000"
 11983      5F74656C 
 11983      656D6574 
 11983      72795F63 
 11983      6F6D6D61 
 11984              	.LASF69:
 11985 0ffd 6D6F6443 		.ascii	"modCsxClk\000"
 11985      7378436C 
 11985      6B00
 11986              	.LASF253:
 11987 1007 6C65645F 		.ascii	"led_intensity\000"
 11987      696E7465 
 11987      6E736974 
 11987      7900
 11988              	.LASF192:
 11989 1015 6765745F 		.ascii	"get_sensor_cmd_id_from_cmd_string\000"
 11989      73656E73 
 11989      6F725F63 
 11989      6D645F69 
 11989      645F6672 
 11990              	.LASF274:
 11991 1037 69746F61 		.ascii	"itoa\000"
 11991      00
 11992              	.LASF78:
 11993 103c 70747232 		.ascii	"ptr2WdgtRam\000"
 11993      57646774 
 11993      52616D00 
 11994              	.LASF16:
 11995 1048 43617053 		.ascii	"CapSense_THRESHOLD_TYPE\000"
 11995      656E7365 
 11995      5F544852 
 11995      4553484F 
 11995      4C445F54 
 11996              	.LASF229:
 11997 1060 61637475 		.ascii	"actual_raw_pos\000"
 11997      616C5F72 
 11997      61775F70 
 11997      6F7300
 11998              	.LASF255:
 11999 106f 7665635F 		.ascii	"vec_boot_commands\000"
 11999      626F6F74 
 11999      5F636F6D 
 11999      6D616E64 
 11999      7300
 12000              	.LASF87:
 12001 1081 6E756D52 		.ascii	"numRows\000"
 12001      6F777300 
ARM GAS  C:\Users\MM1005~1\AppData\Local\Temp\ccukbKgl.s 			page 254


 12002              	.LASF260:
 12003 1089 7665635F 		.ascii	"vec_led_commands\000"
 12003      6C65645F 
 12003      636F6D6D 
 12003      616E6473 
 12003      00
 12004              	.LASF103:
 12005 109a 455F4C45 		.ascii	"E_LED_RIGHT_BLUE\000"
 12005      445F5249 
 12005      4748545F 
 12005      424C5545 
 12005      00
 12006              	.LASF43:
 12007 10ab 6C696E65 		.ascii	"linearslider0\000"
 12007      6172736C 
 12007      69646572 
 12007      3000
 12008              	.LASF239:
 12009 10b9 636D645F 		.ascii	"cmd_str_and_param\000"
 12009      7374725F 
 12009      616E645F 
 12009      70617261 
 12009      6D00
 12010              	.LASF226:
 12011 10cb 73656E64 		.ascii	"send_button_telemetry\000"
 12011      5F627574 
 12011      746F6E5F 
 12011      74656C65 
 12011      6D657472 
 12012              	.LASF96:
 12013 10e1 44495245 		.ascii	"DIRECT_RIGHT\000"
 12013      43545F52 
 12013      49474854 
 12013      00
 12014              	.LASF36:
 12015 10ee 736E7343 		.ascii	"snsClk\000"
 12015      6C6B00
 12016              	.LASF174:
 12017 10f5 434D445F 		.ascii	"CMD_LED_CLEAR\000"
 12017      4C45445F 
 12017      434C4541 
 12017      5200
 12018              	.LASF197:
 12019 1103 6765745F 		.ascii	"get_anim_id_from_cmd_string\000"
 12019      616E696D 
 12019      5F69645F 
 12019      66726F6D 
 12019      5F636D64 
 12020              	.LASF245:
 12021 111f 74656C65 		.ascii	"telemetry_cmd_id\000"
 12021      6D657472 
 12021      795F636D 
 12021      645F6964 
 12021      00
 12022              	.LASF0:
 12023 1130 7369676E 		.ascii	"signed char\000"
 12023      65642063 
ARM GAS  C:\Users\MM1005~1\AppData\Local\Temp\ccukbKgl.s 			page 255


 12023      68617200 
 12024              	.LASF52:
 12025 113c 62736C6E 		.ascii	"bsln\000"
 12025      00
 12026              	.LASF3:
 12027 1141 73686F72 		.ascii	"short unsigned int\000"
 12027      7420756E 
 12027      7369676E 
 12027      65642069 
 12027      6E7400
 12028              	.LASF261:
 12029 1154 7665635F 		.ascii	"vec_commands\000"
 12029      636F6D6D 
 12029      616E6473 
 12029      00
 12030              	.LASF273:
 12031 1161 6D656D63 		.ascii	"memcpy\000"
 12031      707900
 12032              	.LASF282:
 12033 1168 61746F69 		.ascii	"atoi\000"
 12033      00
 12034              	.LASF77:
 12035 116d 70747232 		.ascii	"ptr2SnsFlash\000"
 12035      536E7346 
 12035      6C617368 
 12035      00
 12036              	.LASF10:
 12037 117a 75696E74 		.ascii	"uint8\000"
 12037      3800
 12038              	.LASF14:
 12039 1180 646F7562 		.ascii	"double\000"
 12039      6C6500
 12040              	.LASF55:
 12041 1187 6E656742 		.ascii	"negBslnRstCnt\000"
 12041      736C6E52 
 12041      7374436E 
 12041      7400
 12042              	.LASF292:
 12043 1195 54696D65 		.ascii	"Timer_1_ReadCounter\000"
 12043      725F315F 
 12043      52656164 
 12043      436F756E 
 12043      74657200 
 12044              	.LASF19:
 12045 11a9 70617261 		.ascii	"param0\000"
 12045      6D3000
 12046              	.LASF20:
 12047 11b0 70617261 		.ascii	"param1\000"
 12047      6D3100
 12048              	.LASF21:
 12049 11b7 70617261 		.ascii	"param2\000"
 12049      6D3200
 12050              	.LASF22:
 12051 11be 70617261 		.ascii	"param3\000"
 12051      6D3300
 12052              	.LASF23:
 12053 11c5 70617261 		.ascii	"param4\000"
ARM GAS  C:\Users\MM1005~1\AppData\Local\Temp\ccukbKgl.s 			page 256


 12053      6D3400
 12054              	.LASF24:
 12055 11cc 70617261 		.ascii	"param5\000"
 12055      6D3500
 12056              	.LASF25:
 12057 11d3 70617261 		.ascii	"param6\000"
 12057      6D3600
 12058              	.LASF194:
 12059 11da 6765745F 		.ascii	"get_telemetry_cmd_id_from_cmd_string\000"
 12059      74656C65 
 12059      6D657472 
 12059      795F636D 
 12059      645F6964 
 12060              	.LASF112:
 12061 11ff 414E494D 		.ascii	"ANIM_2_LEDS\000"
 12061      5F325F4C 
 12061      45445300 
 12062              	.LASF60:
 12063 120b 64657669 		.ascii	"deviceId\000"
 12063      63654964 
 12063      00
 12064              	.LASF95:
 12065 1214 44495245 		.ascii	"DIRECT_LEFT\000"
 12065      43545F4C 
 12065      45465400 
 12066              	.LASF40:
 12067 1220 706F7369 		.ascii	"position\000"
 12067      74696F6E 
 12067      00
 12068              	.LASF58:
 12069 1229 43617053 		.ascii	"CapSense_RAM_SNS_LIST_STRUCT\000"
 12069      656E7365 
 12069      5F52414D 
 12069      5F534E53 
 12069      5F4C4953 
 12070              	.LASF201:
 12071 1246 73656E64 		.ascii	"send_bootloader_config_telemetry\000"
 12071      5F626F6F 
 12071      746C6F61 
 12071      6465725F 
 12071      636F6E66 
 12072              	.LASF267:
 12073 1267 436F6D6D 		.ascii	"CommsSendData\000"
 12073      7353656E 
 12073      64446174 
 12073      6100
 12074              	.LASF93:
 12075 1275 77646774 		.ascii	"wdgtArray\000"
 12075      41727261 
 12075      7900
 12076              		.ident	"GCC: (GNU Tools for ARM Embedded Processors) 4.9.3 20150303 (release) [ARM/embedded-4_9-br
