ARM GAS  C:\Users\MM1005~1\AppData\Local\Temp\ccRjszCL.s 			page 1


   1              		.cpu cortex-m0plus
   2              		.fpu softvfp
   3              		.eabi_attribute 20, 1
   4              		.eabi_attribute 21, 1
   5              		.eabi_attribute 23, 3
   6              		.eabi_attribute 24, 1
   7              		.eabi_attribute 25, 1
   8              		.eabi_attribute 26, 1
   9              		.eabi_attribute 30, 1
  10              		.eabi_attribute 34, 0
  11              		.eabi_attribute 18, 4
  12              		.code	16
  13              		.file	"comms.c"
  14              		.text
  15              	.Ltext0:
  16              		.cfi_sections	.debug_frame
  17              		.section	.text.CommsInit,"ax",%progbits
  18              		.align	2
  19              		.global	CommsInit
  20              		.code	16
  21              		.thumb_func
  22              		.type	CommsInit, %function
  23              	CommsInit:
  24              	.LFB35:
  25              		.file 1 "comms.c"
   1:comms.c       **** /**
   2:comms.c       ****  * @file comms.c
   3:comms.c       ****  * @author 
   4:comms.c       ****  *
   5:comms.c       ****  * 
   6:comms.c       ****  */
   7:comms.c       **** 
   8:comms.c       **** #include <project.h>
   9:comms.c       **** #include "util.h"
  10:comms.c       **** 
  11:comms.c       **** #define I2C_BUFFER_SIZE 512
  12:comms.c       **** static uint8 i2cRxBuffer[I2C_BUFFER_SIZE];
  13:comms.c       **** static uint8 i2cTxBuffer[I2C_BUFFER_SIZE];
  14:comms.c       **** 
  15:comms.c       **** void CommsInit(void)
  16:comms.c       **** {
  26              		.loc 1 16 0
  27              		.cfi_startproc
  28 0000 10B5     		push	{r4, lr}
  29              		.cfi_def_cfa_offset 8
  30              		.cfi_offset 4, -8
  31              		.cfi_offset 14, -4
  17:comms.c       ****     I2CS_I2CSlaveInitReadBuf (i2cTxBuffer,  I2C_BUFFER_SIZE);
  32              		.loc 1 17 0
  33 0002 8024     		mov	r4, #128
  34 0004 A400     		lsl	r4, r4, #2
  35 0006 0548     		ldr	r0, .L2
  36 0008 211C     		mov	r1, r4
  37 000a FFF7FEFF 		bl	I2CS_I2CSlaveInitReadBuf
  38              	.LVL0:
  18:comms.c       ****     I2CS_I2CSlaveInitWriteBuf(i2cRxBuffer, I2C_BUFFER_SIZE);
  39              		.loc 1 18 0
ARM GAS  C:\Users\MM1005~1\AppData\Local\Temp\ccRjszCL.s 			page 2


  40 000e 0448     		ldr	r0, .L2+4
  41 0010 211C     		mov	r1, r4
  42 0012 FFF7FEFF 		bl	I2CS_I2CSlaveInitWriteBuf
  43              	.LVL1:
  19:comms.c       ****     I2CS_Start();
  44              		.loc 1 19 0
  45 0016 FFF7FEFF 		bl	I2CS_Start
  46              	.LVL2:
  20:comms.c       **** }
  47              		.loc 1 20 0
  48              		@ sp needed
  49 001a 10BD     		pop	{r4, pc}
  50              	.L3:
  51              		.align	2
  52              	.L2:
  53 001c 00000000 		.word	.LANCHOR0
  54 0020 00020000 		.word	.LANCHOR1
  55              		.cfi_endproc
  56              	.LFE35:
  57              		.size	CommsInit, .-CommsInit
  58              		.section	.text.CommsIsInputBufferReady,"ax",%progbits
  59              		.align	2
  60              		.global	CommsIsInputBufferReady
  61              		.code	16
  62              		.thumb_func
  63              		.type	CommsIsInputBufferReady, %function
  64              	CommsIsInputBufferReady:
  65              	.LFB36:
  21:comms.c       **** 
  22:comms.c       **** BOOL CommsIsInputBufferReady(void)
  23:comms.c       **** {
  66              		.loc 1 23 0
  67              		.cfi_startproc
  68 0000 08B5     		push	{r3, lr}
  69              		.cfi_def_cfa_offset 8
  70              		.cfi_offset 3, -8
  71              		.cfi_offset 14, -4
  24:comms.c       ****     return (0u != (I2CS_I2CSlaveStatus() & I2CS_I2C_SSTAT_WR_CMPLT));
  72              		.loc 1 24 0
  73 0002 FFF7FEFF 		bl	I2CS_I2CSlaveStatus
  74              	.LVL3:
  75 0006 C006     		lsl	r0, r0, #27
  76 0008 C00F     		lsr	r0, r0, #31
  25:comms.c       **** }
  77              		.loc 1 25 0
  78              		@ sp needed
  79 000a 08BD     		pop	{r3, pc}
  80              		.cfi_endproc
  81              	.LFE36:
  82              		.size	CommsIsInputBufferReady, .-CommsIsInputBufferReady
  83              		.section	.text.CommsResetInputBuffer,"ax",%progbits
  84              		.align	2
  85              		.global	CommsResetInputBuffer
  86              		.code	16
  87              		.thumb_func
  88              		.type	CommsResetInputBuffer, %function
  89              	CommsResetInputBuffer:
ARM GAS  C:\Users\MM1005~1\AppData\Local\Temp\ccRjszCL.s 			page 3


  90              	.LFB37:
  26:comms.c       **** 
  27:comms.c       **** void CommsResetInputBuffer(void)
  28:comms.c       **** {
  91              		.loc 1 28 0
  92              		.cfi_startproc
  93 0000 08B5     		push	{r3, lr}
  94              		.cfi_def_cfa_offset 8
  95              		.cfi_offset 3, -8
  96              		.cfi_offset 14, -4
  29:comms.c       ****     I2CS_I2CSlaveClearWriteBuf();
  97              		.loc 1 29 0
  98 0002 FFF7FEFF 		bl	I2CS_I2CSlaveClearWriteBuf
  99              	.LVL4:
  30:comms.c       ****     (void) I2CS_I2CSlaveClearWriteStatus();
 100              		.loc 1 30 0
 101 0006 FFF7FEFF 		bl	I2CS_I2CSlaveClearWriteStatus
 102              	.LVL5:
  31:comms.c       **** }
 103              		.loc 1 31 0
 104              		@ sp needed
 105 000a 08BD     		pop	{r3, pc}
 106              		.cfi_endproc
 107              	.LFE37:
 108              		.size	CommsResetInputBuffer, .-CommsResetInputBuffer
 109              		.section	.text.CommsGetInputBuffer,"ax",%progbits
 110              		.align	2
 111              		.global	CommsGetInputBuffer
 112              		.code	16
 113              		.thumb_func
 114              		.type	CommsGetInputBuffer, %function
 115              	CommsGetInputBuffer:
 116              	.LFB38:
  32:comms.c       **** 
  33:comms.c       **** uint8 *CommsGetInputBuffer(void)
  34:comms.c       **** {
 117              		.loc 1 34 0
 118              		.cfi_startproc
  35:comms.c       ****     return(i2cRxBuffer);
  36:comms.c       **** }
 119              		.loc 1 36 0
 120 0000 0048     		ldr	r0, .L7
 121              		@ sp needed
 122 0002 7047     		bx	lr
 123              	.L8:
 124              		.align	2
 125              	.L7:
 126 0004 00020000 		.word	.LANCHOR1
 127              		.cfi_endproc
 128              	.LFE38:
 129              		.size	CommsGetInputBuffer, .-CommsGetInputBuffer
 130              		.section	.text.CommsSendData,"ax",%progbits
 131              		.align	2
 132              		.global	CommsSendData
 133              		.code	16
 134              		.thumb_func
 135              		.type	CommsSendData, %function
ARM GAS  C:\Users\MM1005~1\AppData\Local\Temp\ccRjszCL.s 			page 4


 136              	CommsSendData:
 137              	.LFB39:
  37:comms.c       **** 
  38:comms.c       **** void CommsSendData(const char *buffer)
  39:comms.c       **** {
 138              		.loc 1 39 0
 139              		.cfi_startproc
 140              	.LVL6:
 141 0000 10B5     		push	{r4, lr}
 142              		.cfi_def_cfa_offset 8
 143              		.cfi_offset 4, -8
 144              		.cfi_offset 14, -4
 145 0002 041C     		mov	r4, r0
  40:comms.c       ****     memcpy(i2cTxBuffer, buffer, strlen(buffer));
 146              		.loc 1 40 0
 147 0004 FFF7FEFF 		bl	strlen
 148              	.LVL7:
 149 0008 021C     		mov	r2, r0
 150 000a 0948     		ldr	r0, .L11
 151 000c 211C     		mov	r1, r4
 152 000e FFF7FEFF 		bl	memcpy
 153              	.LVL8:
  41:comms.c       ****     // Interrupt the client to let it know it has to read now
  42:comms.c       ****     CAPINT_Write(1u);
 154              		.loc 1 42 0
 155 0012 0120     		mov	r0, #1
 156 0014 FFF7FEFF 		bl	CAPINT_Write
 157              	.LVL9:
 158              	.L10:
  43:comms.c       ****     // Wait until master is done reading
  44:comms.c       ****     while (0u == (I2CS_I2CSlaveStatus() & I2CS_I2C_SSTAT_RD_CMPLT))
 159              		.loc 1 44 0 discriminator 1
 160 0018 FFF7FEFF 		bl	I2CS_I2CSlaveStatus
 161              	.LVL10:
 162 001c C307     		lsl	r3, r0, #31
 163 001e FBD5     		bpl	.L10
  45:comms.c       ****     {
  46:comms.c       ****         // TODO do a timeout here in case there's a failure
  47:comms.c       ****     }
  48:comms.c       ****     /* Clear slave read buffer and status */
  49:comms.c       ****     I2CS_I2CSlaveClearReadBuf();
 164              		.loc 1 49 0
 165 0020 FFF7FEFF 		bl	I2CS_I2CSlaveClearReadBuf
 166              	.LVL11:
  50:comms.c       ****     (void) I2CS_I2CSlaveClearReadStatus();
 167              		.loc 1 50 0
 168 0024 FFF7FEFF 		bl	I2CS_I2CSlaveClearReadStatus
 169              	.LVL12:
  51:comms.c       ****     // Reset client interrupt
  52:comms.c       ****     CAPINT_Write(0u);
 170              		.loc 1 52 0
 171 0028 0020     		mov	r0, #0
 172 002a FFF7FEFF 		bl	CAPINT_Write
 173              	.LVL13:
  53:comms.c       **** }
 174              		.loc 1 53 0
 175              		@ sp needed
ARM GAS  C:\Users\MM1005~1\AppData\Local\Temp\ccRjszCL.s 			page 5


 176              	.LVL14:
 177 002e 10BD     		pop	{r4, pc}
 178              	.L12:
 179              		.align	2
 180              	.L11:
 181 0030 00000000 		.word	.LANCHOR0
 182              		.cfi_endproc
 183              	.LFE39:
 184              		.size	CommsSendData, .-CommsSendData
 185              		.bss
 186              		.align	2
 187              		.set	.LANCHOR0,. + 0
 188              		.set	.LANCHOR1,. + 512
 189              		.type	i2cTxBuffer, %object
 190              		.size	i2cTxBuffer, 512
 191              	i2cTxBuffer:
 192 0000 00000000 		.space	512
 192      00000000 
 192      00000000 
 192      00000000 
 192      00000000 
 193              		.type	i2cRxBuffer, %object
 194              		.size	i2cRxBuffer, 512
 195              	i2cRxBuffer:
 196 0200 00000000 		.space	512
 196      00000000 
 196      00000000 
 196      00000000 
 196      00000000 
 197              		.text
 198              	.Letext0:
 199              		.file 2 "Generated_Source\\PSoC4/cytypes.h"
 200              		.file 3 "c:\\program files (x86)\\cypress\\psoc creator\\4.0\\psoc creator\\import\\gnu\\arm\\4.9.
 201              		.file 4 "Generated_Source\\PSoC4/I2CS_I2C.h"
 202              		.file 5 "Generated_Source\\PSoC4/I2CS.h"
 203              		.file 6 "Generated_Source\\PSoC4/CAPINT.h"
 204              		.file 7 "c:\\program files (x86)\\cypress\\psoc creator\\4.0\\psoc creator\\import\\gnu\\arm\\4.9.