ARM GAS  C:\Users\TB1014~1\AppData\Local\Temp\ccAVBM7f.s 			page 1


   1              		.cpu cortex-m0plus
   2              		.fpu softvfp
   3              		.eabi_attribute 20, 1
   4              		.eabi_attribute 21, 1
   5              		.eabi_attribute 23, 3
   6              		.eabi_attribute 24, 1
   7              		.eabi_attribute 25, 1
   8              		.eabi_attribute 26, 1
   9              		.eabi_attribute 30, 1
  10              		.eabi_attribute 34, 0
  11              		.eabi_attribute 18, 4
  12              		.code	16
  13              		.file	"UART_1_UART.c"
  14              		.text
  15              	.Ltext0:
  16              		.cfi_sections	.debug_frame
  17              		.section	.text.UART_1_UartInit,"ax",%progbits
  18              		.align	2
  19              		.global	UART_1_UartInit
  20              		.code	16
  21              		.thumb_func
  22              		.type	UART_1_UartInit, %function
  23              	UART_1_UartInit:
  24              	.LFB1:
  25              		.file 1 "Generated_Source\\PSoC4\\UART_1_UART.c"
   1:Generated_Source\PSoC4/UART_1_UART.c **** /***************************************************************************//**
   2:Generated_Source\PSoC4/UART_1_UART.c **** * \file UART_1_UART.c
   3:Generated_Source\PSoC4/UART_1_UART.c **** * \version 3.20
   4:Generated_Source\PSoC4/UART_1_UART.c **** *
   5:Generated_Source\PSoC4/UART_1_UART.c **** * \brief
   6:Generated_Source\PSoC4/UART_1_UART.c **** *  This file provides the source code to the API for the SCB Component in
   7:Generated_Source\PSoC4/UART_1_UART.c **** *  UART mode.
   8:Generated_Source\PSoC4/UART_1_UART.c **** *
   9:Generated_Source\PSoC4/UART_1_UART.c **** * Note:
  10:Generated_Source\PSoC4/UART_1_UART.c **** *
  11:Generated_Source\PSoC4/UART_1_UART.c **** *******************************************************************************
  12:Generated_Source\PSoC4/UART_1_UART.c **** * \copyright
  13:Generated_Source\PSoC4/UART_1_UART.c **** * Copyright 2013-2016, Cypress Semiconductor Corporation.  All rights reserved.
  14:Generated_Source\PSoC4/UART_1_UART.c **** * You may use this file only in accordance with the license, terms, conditions,
  15:Generated_Source\PSoC4/UART_1_UART.c **** * disclaimers, and limitations in the end user license agreement accompanying
  16:Generated_Source\PSoC4/UART_1_UART.c **** * the software package with which this file was provided.
  17:Generated_Source\PSoC4/UART_1_UART.c **** *******************************************************************************/
  18:Generated_Source\PSoC4/UART_1_UART.c **** 
  19:Generated_Source\PSoC4/UART_1_UART.c **** #include "UART_1_PVT.h"
  20:Generated_Source\PSoC4/UART_1_UART.c **** #include "UART_1_SPI_UART_PVT.h"
  21:Generated_Source\PSoC4/UART_1_UART.c **** 
  22:Generated_Source\PSoC4/UART_1_UART.c **** 
  23:Generated_Source\PSoC4/UART_1_UART.c **** #if (UART_1_UART_WAKE_ENABLE_CONST && UART_1_UART_RX_WAKEUP_IRQ)
  24:Generated_Source\PSoC4/UART_1_UART.c ****     /**
  25:Generated_Source\PSoC4/UART_1_UART.c ****     * \addtogroup group_globals
  26:Generated_Source\PSoC4/UART_1_UART.c ****     * \{
  27:Generated_Source\PSoC4/UART_1_UART.c ****     */
  28:Generated_Source\PSoC4/UART_1_UART.c ****     /** This global variable determines whether to enable Skip Start
  29:Generated_Source\PSoC4/UART_1_UART.c ****     * functionality when UART_1_Sleep() function is called:
  30:Generated_Source\PSoC4/UART_1_UART.c ****     * 0 – disable, other values – enable. Default value is 1.
  31:Generated_Source\PSoC4/UART_1_UART.c ****     * It is only available when Enable wakeup from Deep Sleep Mode is enabled.
  32:Generated_Source\PSoC4/UART_1_UART.c ****     */
ARM GAS  C:\Users\TB1014~1\AppData\Local\Temp\ccAVBM7f.s 			page 2


  33:Generated_Source\PSoC4/UART_1_UART.c ****     uint8 UART_1_skipStart = 1u;
  34:Generated_Source\PSoC4/UART_1_UART.c ****     /** \} globals */
  35:Generated_Source\PSoC4/UART_1_UART.c **** #endif /* (UART_1_UART_WAKE_ENABLE_CONST && UART_1_UART_RX_WAKEUP_IRQ) */
  36:Generated_Source\PSoC4/UART_1_UART.c **** 
  37:Generated_Source\PSoC4/UART_1_UART.c **** #if(UART_1_SCB_MODE_UNCONFIG_CONST_CFG)
  38:Generated_Source\PSoC4/UART_1_UART.c **** 
  39:Generated_Source\PSoC4/UART_1_UART.c ****     /***************************************
  40:Generated_Source\PSoC4/UART_1_UART.c ****     *  Configuration Structure Initialization
  41:Generated_Source\PSoC4/UART_1_UART.c ****     ***************************************/
  42:Generated_Source\PSoC4/UART_1_UART.c **** 
  43:Generated_Source\PSoC4/UART_1_UART.c ****     const UART_1_UART_INIT_STRUCT UART_1_configUart =
  44:Generated_Source\PSoC4/UART_1_UART.c ****     {
  45:Generated_Source\PSoC4/UART_1_UART.c ****         UART_1_UART_SUB_MODE,
  46:Generated_Source\PSoC4/UART_1_UART.c ****         UART_1_UART_DIRECTION,
  47:Generated_Source\PSoC4/UART_1_UART.c ****         UART_1_UART_DATA_BITS_NUM,
  48:Generated_Source\PSoC4/UART_1_UART.c ****         UART_1_UART_PARITY_TYPE,
  49:Generated_Source\PSoC4/UART_1_UART.c ****         UART_1_UART_STOP_BITS_NUM,
  50:Generated_Source\PSoC4/UART_1_UART.c ****         UART_1_UART_OVS_FACTOR,
  51:Generated_Source\PSoC4/UART_1_UART.c ****         UART_1_UART_IRDA_LOW_POWER,
  52:Generated_Source\PSoC4/UART_1_UART.c ****         UART_1_UART_MEDIAN_FILTER_ENABLE,
  53:Generated_Source\PSoC4/UART_1_UART.c ****         UART_1_UART_RETRY_ON_NACK,
  54:Generated_Source\PSoC4/UART_1_UART.c ****         UART_1_UART_IRDA_POLARITY,
  55:Generated_Source\PSoC4/UART_1_UART.c ****         UART_1_UART_DROP_ON_PARITY_ERR,
  56:Generated_Source\PSoC4/UART_1_UART.c ****         UART_1_UART_DROP_ON_FRAME_ERR,
  57:Generated_Source\PSoC4/UART_1_UART.c ****         UART_1_UART_WAKE_ENABLE,
  58:Generated_Source\PSoC4/UART_1_UART.c ****         0u,
  59:Generated_Source\PSoC4/UART_1_UART.c ****         NULL,
  60:Generated_Source\PSoC4/UART_1_UART.c ****         0u,
  61:Generated_Source\PSoC4/UART_1_UART.c ****         NULL,
  62:Generated_Source\PSoC4/UART_1_UART.c ****         UART_1_UART_MP_MODE_ENABLE,
  63:Generated_Source\PSoC4/UART_1_UART.c ****         UART_1_UART_MP_ACCEPT_ADDRESS,
  64:Generated_Source\PSoC4/UART_1_UART.c ****         UART_1_UART_MP_RX_ADDRESS,
  65:Generated_Source\PSoC4/UART_1_UART.c ****         UART_1_UART_MP_RX_ADDRESS_MASK,
  66:Generated_Source\PSoC4/UART_1_UART.c ****         (uint32) UART_1_SCB_IRQ_INTERNAL,
  67:Generated_Source\PSoC4/UART_1_UART.c ****         UART_1_UART_INTR_RX_MASK,
  68:Generated_Source\PSoC4/UART_1_UART.c ****         UART_1_UART_RX_TRIGGER_LEVEL,
  69:Generated_Source\PSoC4/UART_1_UART.c ****         UART_1_UART_INTR_TX_MASK,
  70:Generated_Source\PSoC4/UART_1_UART.c ****         UART_1_UART_TX_TRIGGER_LEVEL,
  71:Generated_Source\PSoC4/UART_1_UART.c ****         (uint8) UART_1_UART_BYTE_MODE_ENABLE,
  72:Generated_Source\PSoC4/UART_1_UART.c ****         (uint8) UART_1_UART_CTS_ENABLE,
  73:Generated_Source\PSoC4/UART_1_UART.c ****         (uint8) UART_1_UART_CTS_POLARITY,
  74:Generated_Source\PSoC4/UART_1_UART.c ****         (uint8) UART_1_UART_RTS_POLARITY,
  75:Generated_Source\PSoC4/UART_1_UART.c ****         (uint8) UART_1_UART_RTS_FIFO_LEVEL
  76:Generated_Source\PSoC4/UART_1_UART.c ****     };
  77:Generated_Source\PSoC4/UART_1_UART.c **** 
  78:Generated_Source\PSoC4/UART_1_UART.c **** 
  79:Generated_Source\PSoC4/UART_1_UART.c ****     /*******************************************************************************
  80:Generated_Source\PSoC4/UART_1_UART.c ****     * Function Name: UART_1_UartInit
  81:Generated_Source\PSoC4/UART_1_UART.c ****     ****************************************************************************//**
  82:Generated_Source\PSoC4/UART_1_UART.c ****     *
  83:Generated_Source\PSoC4/UART_1_UART.c ****     *  Configures the UART_1 for UART operation.
  84:Generated_Source\PSoC4/UART_1_UART.c ****     *
  85:Generated_Source\PSoC4/UART_1_UART.c ****     *  This function is intended specifically to be used when the UART_1
  86:Generated_Source\PSoC4/UART_1_UART.c ****     *  configuration is set to “Unconfigured UART_1” in the customizer.
  87:Generated_Source\PSoC4/UART_1_UART.c ****     *  After initializing the UART_1 in UART mode using this function,
  88:Generated_Source\PSoC4/UART_1_UART.c ****     *  the component can be enabled using the UART_1_Start() or
  89:Generated_Source\PSoC4/UART_1_UART.c ****     * UART_1_Enable() function.
ARM GAS  C:\Users\TB1014~1\AppData\Local\Temp\ccAVBM7f.s 			page 3


  90:Generated_Source\PSoC4/UART_1_UART.c ****     *  This function uses a pointer to a structure that provides the configuration
  91:Generated_Source\PSoC4/UART_1_UART.c ****     *  settings. This structure contains the same information that would otherwise
  92:Generated_Source\PSoC4/UART_1_UART.c ****     *  be provided by the customizer settings.
  93:Generated_Source\PSoC4/UART_1_UART.c ****     *
  94:Generated_Source\PSoC4/UART_1_UART.c ****     *  \param config: pointer to a structure that contains the following list of
  95:Generated_Source\PSoC4/UART_1_UART.c ****     *   fields. These fields match the selections available in the customizer.
  96:Generated_Source\PSoC4/UART_1_UART.c ****     *   Refer to the customizer for further description of the settings.
  97:Generated_Source\PSoC4/UART_1_UART.c ****     *
  98:Generated_Source\PSoC4/UART_1_UART.c ****     *******************************************************************************/
  99:Generated_Source\PSoC4/UART_1_UART.c ****     void UART_1_UartInit(const UART_1_UART_INIT_STRUCT *config)
 100:Generated_Source\PSoC4/UART_1_UART.c ****     {
 101:Generated_Source\PSoC4/UART_1_UART.c ****         uint32 pinsConfig;
 102:Generated_Source\PSoC4/UART_1_UART.c **** 
 103:Generated_Source\PSoC4/UART_1_UART.c ****         if (NULL == config)
 104:Generated_Source\PSoC4/UART_1_UART.c ****         {
 105:Generated_Source\PSoC4/UART_1_UART.c ****             CYASSERT(0u != 0u); /* Halt execution due to bad function parameter */
 106:Generated_Source\PSoC4/UART_1_UART.c ****         }
 107:Generated_Source\PSoC4/UART_1_UART.c ****         else
 108:Generated_Source\PSoC4/UART_1_UART.c ****         {
 109:Generated_Source\PSoC4/UART_1_UART.c ****             /* Get direction to configure UART pins: TX, RX or TX+RX */
 110:Generated_Source\PSoC4/UART_1_UART.c ****             pinsConfig  = config->direction;
 111:Generated_Source\PSoC4/UART_1_UART.c **** 
 112:Generated_Source\PSoC4/UART_1_UART.c ****         #if !(UART_1_CY_SCBIP_V0 || UART_1_CY_SCBIP_V1)
 113:Generated_Source\PSoC4/UART_1_UART.c ****             /* Add RTS and CTS pins to configure */
 114:Generated_Source\PSoC4/UART_1_UART.c ****             pinsConfig |= (0u != config->rtsRxFifoLevel) ? (UART_1_UART_RTS_PIN_ENABLE) : (0u);
 115:Generated_Source\PSoC4/UART_1_UART.c ****             pinsConfig |= (0u != config->enableCts)      ? (UART_1_UART_CTS_PIN_ENABLE) : (0u);
 116:Generated_Source\PSoC4/UART_1_UART.c ****         #endif /* !(UART_1_CY_SCBIP_V0 || UART_1_CY_SCBIP_V1) */
 117:Generated_Source\PSoC4/UART_1_UART.c **** 
 118:Generated_Source\PSoC4/UART_1_UART.c ****             /* Configure pins */
 119:Generated_Source\PSoC4/UART_1_UART.c ****             UART_1_SetPins(UART_1_SCB_MODE_UART, config->mode, pinsConfig);
 120:Generated_Source\PSoC4/UART_1_UART.c **** 
 121:Generated_Source\PSoC4/UART_1_UART.c ****             /* Store internal configuration */
 122:Generated_Source\PSoC4/UART_1_UART.c ****             UART_1_scbMode       = (uint8) UART_1_SCB_MODE_UART;
 123:Generated_Source\PSoC4/UART_1_UART.c ****             UART_1_scbEnableWake = (uint8) config->enableWake;
 124:Generated_Source\PSoC4/UART_1_UART.c ****             UART_1_scbEnableIntr = (uint8) config->enableInterrupt;
 125:Generated_Source\PSoC4/UART_1_UART.c **** 
 126:Generated_Source\PSoC4/UART_1_UART.c ****             /* Set RX direction internal variables */
 127:Generated_Source\PSoC4/UART_1_UART.c ****             UART_1_rxBuffer      =         config->rxBuffer;
 128:Generated_Source\PSoC4/UART_1_UART.c ****             UART_1_rxDataBits    = (uint8) config->dataBits;
 129:Generated_Source\PSoC4/UART_1_UART.c ****             UART_1_rxBufferSize  = (uint8) config->rxBufferSize;
 130:Generated_Source\PSoC4/UART_1_UART.c **** 
 131:Generated_Source\PSoC4/UART_1_UART.c ****             /* Set TX direction internal variables */
 132:Generated_Source\PSoC4/UART_1_UART.c ****             UART_1_txBuffer      =         config->txBuffer;
 133:Generated_Source\PSoC4/UART_1_UART.c ****             UART_1_txDataBits    = (uint8) config->dataBits;
 134:Generated_Source\PSoC4/UART_1_UART.c ****             UART_1_txBufferSize  = (uint8) config->txBufferSize;
 135:Generated_Source\PSoC4/UART_1_UART.c **** 
 136:Generated_Source\PSoC4/UART_1_UART.c ****             /* Configure UART interface */
 137:Generated_Source\PSoC4/UART_1_UART.c ****             if(UART_1_UART_MODE_IRDA == config->mode)
 138:Generated_Source\PSoC4/UART_1_UART.c ****             {
 139:Generated_Source\PSoC4/UART_1_UART.c ****                 /* OVS settings: IrDA */
 140:Generated_Source\PSoC4/UART_1_UART.c ****                 UART_1_CTRL_REG  = ((0u != config->enableIrdaLowPower) ?
 141:Generated_Source\PSoC4/UART_1_UART.c ****                                                 (UART_1_UART_GET_CTRL_OVS_IRDA_LP(config->oversampl
 142:Generated_Source\PSoC4/UART_1_UART.c ****                                                 (UART_1_CTRL_OVS_IRDA_OVS16));
 143:Generated_Source\PSoC4/UART_1_UART.c ****             }
 144:Generated_Source\PSoC4/UART_1_UART.c ****             else
 145:Generated_Source\PSoC4/UART_1_UART.c ****             {
 146:Generated_Source\PSoC4/UART_1_UART.c ****                 /* OVS settings: UART and SmartCard */
ARM GAS  C:\Users\TB1014~1\AppData\Local\Temp\ccAVBM7f.s 			page 4


 147:Generated_Source\PSoC4/UART_1_UART.c ****                 UART_1_CTRL_REG  = UART_1_GET_CTRL_OVS(config->oversample);
 148:Generated_Source\PSoC4/UART_1_UART.c ****             }
 149:Generated_Source\PSoC4/UART_1_UART.c **** 
 150:Generated_Source\PSoC4/UART_1_UART.c ****             UART_1_CTRL_REG     |= UART_1_GET_CTRL_BYTE_MODE  (config->enableByteMode)      |
 151:Generated_Source\PSoC4/UART_1_UART.c ****                                              UART_1_GET_CTRL_ADDR_ACCEPT(config->multiprocAcceptAdd
 152:Generated_Source\PSoC4/UART_1_UART.c ****                                              UART_1_CTRL_UART;
 153:Generated_Source\PSoC4/UART_1_UART.c **** 
 154:Generated_Source\PSoC4/UART_1_UART.c ****             /* Configure sub-mode: UART, SmartCard or IrDA */
 155:Generated_Source\PSoC4/UART_1_UART.c ****             UART_1_UART_CTRL_REG = UART_1_GET_UART_CTRL_MODE(config->mode);
 156:Generated_Source\PSoC4/UART_1_UART.c **** 
 157:Generated_Source\PSoC4/UART_1_UART.c ****             /* Configure RX direction */
 158:Generated_Source\PSoC4/UART_1_UART.c ****             UART_1_UART_RX_CTRL_REG = UART_1_GET_UART_RX_CTRL_MODE(config->stopBits)              |
 159:Generated_Source\PSoC4/UART_1_UART.c ****                                         UART_1_GET_UART_RX_CTRL_POLARITY(config->enableInvertedRx) 
 160:Generated_Source\PSoC4/UART_1_UART.c ****                                         UART_1_GET_UART_RX_CTRL_MP_MODE(config->enableMultiproc)   
 161:Generated_Source\PSoC4/UART_1_UART.c ****                                         UART_1_GET_UART_RX_CTRL_DROP_ON_PARITY_ERR(config->dropOnPa
 162:Generated_Source\PSoC4/UART_1_UART.c ****                                         UART_1_GET_UART_RX_CTRL_DROP_ON_FRAME_ERR(config->dropOnFra
 163:Generated_Source\PSoC4/UART_1_UART.c **** 
 164:Generated_Source\PSoC4/UART_1_UART.c ****             if(UART_1_UART_PARITY_NONE != config->parity)
 165:Generated_Source\PSoC4/UART_1_UART.c ****             {
 166:Generated_Source\PSoC4/UART_1_UART.c ****                UART_1_UART_RX_CTRL_REG |= UART_1_GET_UART_RX_CTRL_PARITY(config->parity) |
 167:Generated_Source\PSoC4/UART_1_UART.c ****                                                     UART_1_UART_RX_CTRL_PARITY_ENABLED;
 168:Generated_Source\PSoC4/UART_1_UART.c ****             }
 169:Generated_Source\PSoC4/UART_1_UART.c **** 
 170:Generated_Source\PSoC4/UART_1_UART.c ****             UART_1_RX_CTRL_REG      = UART_1_GET_RX_CTRL_DATA_WIDTH(config->dataBits)       |
 171:Generated_Source\PSoC4/UART_1_UART.c ****                                                 UART_1_GET_RX_CTRL_MEDIAN(config->enableMedianFilte
 172:Generated_Source\PSoC4/UART_1_UART.c ****                                                 UART_1_GET_UART_RX_CTRL_ENABLED(config->direction);
 173:Generated_Source\PSoC4/UART_1_UART.c **** 
 174:Generated_Source\PSoC4/UART_1_UART.c ****             UART_1_RX_FIFO_CTRL_REG = UART_1_GET_RX_FIFO_CTRL_TRIGGER_LEVEL(config->rxTriggerLevel)
 175:Generated_Source\PSoC4/UART_1_UART.c **** 
 176:Generated_Source\PSoC4/UART_1_UART.c ****             /* Configure MP address */
 177:Generated_Source\PSoC4/UART_1_UART.c ****             UART_1_RX_MATCH_REG     = UART_1_GET_RX_MATCH_ADDR(config->multiprocAddr) |
 178:Generated_Source\PSoC4/UART_1_UART.c ****                                                 UART_1_GET_RX_MATCH_MASK(config->multiprocAddrMask)
 179:Generated_Source\PSoC4/UART_1_UART.c **** 
 180:Generated_Source\PSoC4/UART_1_UART.c ****             /* Configure RX direction */
 181:Generated_Source\PSoC4/UART_1_UART.c ****             UART_1_UART_TX_CTRL_REG = UART_1_GET_UART_TX_CTRL_MODE(config->stopBits) |
 182:Generated_Source\PSoC4/UART_1_UART.c ****                                                 UART_1_GET_UART_TX_CTRL_RETRY_NACK(config->enableRe
 183:Generated_Source\PSoC4/UART_1_UART.c **** 
 184:Generated_Source\PSoC4/UART_1_UART.c ****             if(UART_1_UART_PARITY_NONE != config->parity)
 185:Generated_Source\PSoC4/UART_1_UART.c ****             {
 186:Generated_Source\PSoC4/UART_1_UART.c ****                UART_1_UART_TX_CTRL_REG |= UART_1_GET_UART_TX_CTRL_PARITY(config->parity) |
 187:Generated_Source\PSoC4/UART_1_UART.c ****                                                     UART_1_UART_TX_CTRL_PARITY_ENABLED;
 188:Generated_Source\PSoC4/UART_1_UART.c ****             }
 189:Generated_Source\PSoC4/UART_1_UART.c **** 
 190:Generated_Source\PSoC4/UART_1_UART.c ****             UART_1_TX_CTRL_REG      = UART_1_GET_TX_CTRL_DATA_WIDTH(config->dataBits)    |
 191:Generated_Source\PSoC4/UART_1_UART.c ****                                                 UART_1_GET_UART_TX_CTRL_ENABLED(config->direction);
 192:Generated_Source\PSoC4/UART_1_UART.c **** 
 193:Generated_Source\PSoC4/UART_1_UART.c ****             UART_1_TX_FIFO_CTRL_REG = UART_1_GET_TX_FIFO_CTRL_TRIGGER_LEVEL(config->txTriggerLevel)
 194:Generated_Source\PSoC4/UART_1_UART.c **** 
 195:Generated_Source\PSoC4/UART_1_UART.c ****         #if !(UART_1_CY_SCBIP_V0 || UART_1_CY_SCBIP_V1)
 196:Generated_Source\PSoC4/UART_1_UART.c ****             UART_1_UART_FLOW_CTRL_REG = UART_1_GET_UART_FLOW_CTRL_CTS_ENABLE(config->enableCts) | \
 197:Generated_Source\PSoC4/UART_1_UART.c ****                                             UART_1_GET_UART_FLOW_CTRL_CTS_POLARITY (config->ctsPola
 198:Generated_Source\PSoC4/UART_1_UART.c ****                                             UART_1_GET_UART_FLOW_CTRL_RTS_POLARITY (config->rtsPola
 199:Generated_Source\PSoC4/UART_1_UART.c ****                                             UART_1_GET_UART_FLOW_CTRL_TRIGGER_LEVEL(config->rtsRxFi
 200:Generated_Source\PSoC4/UART_1_UART.c ****         #endif /* !(UART_1_CY_SCBIP_V0 || UART_1_CY_SCBIP_V1) */
 201:Generated_Source\PSoC4/UART_1_UART.c **** 
 202:Generated_Source\PSoC4/UART_1_UART.c ****             /* Configure interrupt with UART handler but do not enable it */
 203:Generated_Source\PSoC4/UART_1_UART.c ****             CyIntDisable    (UART_1_ISR_NUMBER);
ARM GAS  C:\Users\TB1014~1\AppData\Local\Temp\ccAVBM7f.s 			page 5


 204:Generated_Source\PSoC4/UART_1_UART.c ****             CyIntSetPriority(UART_1_ISR_NUMBER, UART_1_ISR_PRIORITY);
 205:Generated_Source\PSoC4/UART_1_UART.c ****             (void) CyIntSetVector(UART_1_ISR_NUMBER, &UART_1_SPI_UART_ISR);
 206:Generated_Source\PSoC4/UART_1_UART.c **** 
 207:Generated_Source\PSoC4/UART_1_UART.c ****             /* Configure WAKE interrupt */
 208:Generated_Source\PSoC4/UART_1_UART.c ****         #if(UART_1_UART_RX_WAKEUP_IRQ)
 209:Generated_Source\PSoC4/UART_1_UART.c ****             CyIntDisable    (UART_1_RX_WAKE_ISR_NUMBER);
 210:Generated_Source\PSoC4/UART_1_UART.c ****             CyIntSetPriority(UART_1_RX_WAKE_ISR_NUMBER, UART_1_RX_WAKE_ISR_PRIORITY);
 211:Generated_Source\PSoC4/UART_1_UART.c ****             (void) CyIntSetVector(UART_1_RX_WAKE_ISR_NUMBER, &UART_1_UART_WAKEUP_ISR);
 212:Generated_Source\PSoC4/UART_1_UART.c ****         #endif /* (UART_1_UART_RX_WAKEUP_IRQ) */
 213:Generated_Source\PSoC4/UART_1_UART.c **** 
 214:Generated_Source\PSoC4/UART_1_UART.c ****             /* Configure interrupt sources */
 215:Generated_Source\PSoC4/UART_1_UART.c ****             UART_1_INTR_I2C_EC_MASK_REG = UART_1_NO_INTR_SOURCES;
 216:Generated_Source\PSoC4/UART_1_UART.c ****             UART_1_INTR_SPI_EC_MASK_REG = UART_1_NO_INTR_SOURCES;
 217:Generated_Source\PSoC4/UART_1_UART.c ****             UART_1_INTR_SLAVE_MASK_REG  = UART_1_NO_INTR_SOURCES;
 218:Generated_Source\PSoC4/UART_1_UART.c ****             UART_1_INTR_MASTER_MASK_REG = UART_1_NO_INTR_SOURCES;
 219:Generated_Source\PSoC4/UART_1_UART.c ****             UART_1_INTR_RX_MASK_REG     = config->rxInterruptMask;
 220:Generated_Source\PSoC4/UART_1_UART.c ****             UART_1_INTR_TX_MASK_REG     = config->txInterruptMask;
 221:Generated_Source\PSoC4/UART_1_UART.c ****         
 222:Generated_Source\PSoC4/UART_1_UART.c ****             /* Configure TX interrupt sources to restore. */
 223:Generated_Source\PSoC4/UART_1_UART.c ****             UART_1_IntrTxMask = LO16(UART_1_INTR_TX_MASK_REG);
 224:Generated_Source\PSoC4/UART_1_UART.c **** 
 225:Generated_Source\PSoC4/UART_1_UART.c ****             /* Clear RX buffer indexes */
 226:Generated_Source\PSoC4/UART_1_UART.c ****             UART_1_rxBufferHead     = 0u;
 227:Generated_Source\PSoC4/UART_1_UART.c ****             UART_1_rxBufferTail     = 0u;
 228:Generated_Source\PSoC4/UART_1_UART.c ****             UART_1_rxBufferOverflow = 0u;
 229:Generated_Source\PSoC4/UART_1_UART.c **** 
 230:Generated_Source\PSoC4/UART_1_UART.c ****             /* Clear TX buffer indexes */
 231:Generated_Source\PSoC4/UART_1_UART.c ****             UART_1_txBufferHead = 0u;
 232:Generated_Source\PSoC4/UART_1_UART.c ****             UART_1_txBufferTail = 0u;
 233:Generated_Source\PSoC4/UART_1_UART.c ****         }
 234:Generated_Source\PSoC4/UART_1_UART.c ****     }
 235:Generated_Source\PSoC4/UART_1_UART.c **** 
 236:Generated_Source\PSoC4/UART_1_UART.c **** #else
 237:Generated_Source\PSoC4/UART_1_UART.c **** 
 238:Generated_Source\PSoC4/UART_1_UART.c ****     /*******************************************************************************
 239:Generated_Source\PSoC4/UART_1_UART.c ****     * Function Name: UART_1_UartInit
 240:Generated_Source\PSoC4/UART_1_UART.c ****     ****************************************************************************//**
 241:Generated_Source\PSoC4/UART_1_UART.c ****     *
 242:Generated_Source\PSoC4/UART_1_UART.c ****     *  Configures the SCB for the UART operation.
 243:Generated_Source\PSoC4/UART_1_UART.c ****     *
 244:Generated_Source\PSoC4/UART_1_UART.c ****     *******************************************************************************/
 245:Generated_Source\PSoC4/UART_1_UART.c ****     void UART_1_UartInit(void)
 246:Generated_Source\PSoC4/UART_1_UART.c ****     {
  26              		.loc 1 246 0
  27              		.cfi_startproc
  28 0000 10B5     		push	{r4, lr}
  29              		.cfi_def_cfa_offset 8
  30              		.cfi_offset 4, -8
  31              		.cfi_offset 14, -4
 247:Generated_Source\PSoC4/UART_1_UART.c ****         /* Configure UART interface */
 248:Generated_Source\PSoC4/UART_1_UART.c ****         UART_1_CTRL_REG = UART_1_UART_DEFAULT_CTRL;
  32              		.loc 1 248 0
  33 0002 214A     		ldr	r2, .L2
  34 0004 214B     		ldr	r3, .L2+4
  35 0006 1A60     		str	r2, [r3]
 249:Generated_Source\PSoC4/UART_1_UART.c **** 
 250:Generated_Source\PSoC4/UART_1_UART.c ****         /* Configure sub-mode: UART, SmartCard or IrDA */
ARM GAS  C:\Users\TB1014~1\AppData\Local\Temp\ccAVBM7f.s 			page 6


 251:Generated_Source\PSoC4/UART_1_UART.c ****         UART_1_UART_CTRL_REG = UART_1_UART_DEFAULT_UART_CTRL;
  36              		.loc 1 251 0
  37 0008 0024     		mov	r4, #0
  38 000a 214B     		ldr	r3, .L2+8
  39 000c 1C60     		str	r4, [r3]
 252:Generated_Source\PSoC4/UART_1_UART.c **** 
 253:Generated_Source\PSoC4/UART_1_UART.c ****         /* Configure RX direction */
 254:Generated_Source\PSoC4/UART_1_UART.c ****         UART_1_UART_RX_CTRL_REG = UART_1_UART_DEFAULT_UART_RX_CTRL;
  40              		.loc 1 254 0
  41 000e 214A     		ldr	r2, .L2+12
  42 0010 214B     		ldr	r3, .L2+16
  43 0012 1A60     		str	r2, [r3]
 255:Generated_Source\PSoC4/UART_1_UART.c ****         UART_1_RX_CTRL_REG      = UART_1_UART_DEFAULT_RX_CTRL;
  44              		.loc 1 255 0
  45 0014 214B     		ldr	r3, .L2+20
  46 0016 224A     		ldr	r2, .L2+24
  47 0018 1360     		str	r3, [r2]
 256:Generated_Source\PSoC4/UART_1_UART.c ****         UART_1_RX_FIFO_CTRL_REG = UART_1_UART_DEFAULT_RX_FIFO_CTRL;
  48              		.loc 1 256 0
  49 001a 0721     		mov	r1, #7
  50 001c 214A     		ldr	r2, .L2+28
  51 001e 1160     		str	r1, [r2]
 257:Generated_Source\PSoC4/UART_1_UART.c ****         UART_1_RX_MATCH_REG     = UART_1_UART_DEFAULT_RX_MATCH_REG;
  52              		.loc 1 257 0
  53 0020 214A     		ldr	r2, .L2+32
  54 0022 1460     		str	r4, [r2]
 258:Generated_Source\PSoC4/UART_1_UART.c **** 
 259:Generated_Source\PSoC4/UART_1_UART.c ****         /* Configure TX direction */
 260:Generated_Source\PSoC4/UART_1_UART.c ****         UART_1_UART_TX_CTRL_REG = UART_1_UART_DEFAULT_UART_TX_CTRL;
  55              		.loc 1 260 0
  56 0024 0639     		sub	r1, r1, #6
  57 0026 214A     		ldr	r2, .L2+36
  58 0028 1160     		str	r1, [r2]
 261:Generated_Source\PSoC4/UART_1_UART.c ****         UART_1_TX_CTRL_REG      = UART_1_UART_DEFAULT_TX_CTRL;
  59              		.loc 1 261 0
  60 002a 214A     		ldr	r2, .L2+40
  61 002c 1360     		str	r3, [r2]
 262:Generated_Source\PSoC4/UART_1_UART.c ****         UART_1_TX_FIFO_CTRL_REG = UART_1_UART_DEFAULT_TX_FIFO_CTRL;
  62              		.loc 1 262 0
  63 002e 214B     		ldr	r3, .L2+44
  64 0030 1C60     		str	r4, [r3]
 263:Generated_Source\PSoC4/UART_1_UART.c **** 
 264:Generated_Source\PSoC4/UART_1_UART.c ****     #if !(UART_1_CY_SCBIP_V0 || UART_1_CY_SCBIP_V1)
 265:Generated_Source\PSoC4/UART_1_UART.c ****         UART_1_UART_FLOW_CTRL_REG = UART_1_UART_DEFAULT_FLOW_CTRL;
  65              		.loc 1 265 0
  66 0032 0422     		mov	r2, #4
  67 0034 204B     		ldr	r3, .L2+48
  68 0036 1A60     		str	r2, [r3]
 266:Generated_Source\PSoC4/UART_1_UART.c ****     #endif /* !(UART_1_CY_SCBIP_V0 || UART_1_CY_SCBIP_V1) */
 267:Generated_Source\PSoC4/UART_1_UART.c **** 
 268:Generated_Source\PSoC4/UART_1_UART.c ****         /* Configure interrupt with UART handler but do not enable it */
 269:Generated_Source\PSoC4/UART_1_UART.c ****     #if(UART_1_SCB_IRQ_INTERNAL)
 270:Generated_Source\PSoC4/UART_1_UART.c ****         CyIntDisable    (UART_1_ISR_NUMBER);
  69              		.loc 1 270 0
  70 0038 0720     		mov	r0, #7
  71 003a FFF7FEFF 		bl	CyIntDisable
  72              	.LVL0:
ARM GAS  C:\Users\TB1014~1\AppData\Local\Temp\ccAVBM7f.s 			page 7


 271:Generated_Source\PSoC4/UART_1_UART.c ****         CyIntSetPriority(UART_1_ISR_NUMBER, UART_1_ISR_PRIORITY);
  73              		.loc 1 271 0
  74 003e 0720     		mov	r0, #7
  75 0040 0321     		mov	r1, #3
  76 0042 FFF7FEFF 		bl	CyIntSetPriority
  77              	.LVL1:
 272:Generated_Source\PSoC4/UART_1_UART.c ****         (void) CyIntSetVector(UART_1_ISR_NUMBER, &UART_1_SPI_UART_ISR);
  78              		.loc 1 272 0
  79 0046 0720     		mov	r0, #7
  80 0048 1C49     		ldr	r1, .L2+52
  81 004a FFF7FEFF 		bl	CyIntSetVector
  82              	.LVL2:
 273:Generated_Source\PSoC4/UART_1_UART.c ****     #endif /* (UART_1_SCB_IRQ_INTERNAL) */
 274:Generated_Source\PSoC4/UART_1_UART.c **** 
 275:Generated_Source\PSoC4/UART_1_UART.c ****         /* Configure WAKE interrupt */
 276:Generated_Source\PSoC4/UART_1_UART.c ****     #if(UART_1_UART_RX_WAKEUP_IRQ)
 277:Generated_Source\PSoC4/UART_1_UART.c ****         CyIntDisable    (UART_1_RX_WAKE_ISR_NUMBER);
 278:Generated_Source\PSoC4/UART_1_UART.c ****         CyIntSetPriority(UART_1_RX_WAKE_ISR_NUMBER, UART_1_RX_WAKE_ISR_PRIORITY);
 279:Generated_Source\PSoC4/UART_1_UART.c ****         (void) CyIntSetVector(UART_1_RX_WAKE_ISR_NUMBER, &UART_1_UART_WAKEUP_ISR);
 280:Generated_Source\PSoC4/UART_1_UART.c ****     #endif /* (UART_1_UART_RX_WAKEUP_IRQ) */
 281:Generated_Source\PSoC4/UART_1_UART.c **** 
 282:Generated_Source\PSoC4/UART_1_UART.c ****         /* Configure interrupt sources */
 283:Generated_Source\PSoC4/UART_1_UART.c ****         UART_1_INTR_I2C_EC_MASK_REG = UART_1_UART_DEFAULT_INTR_I2C_EC_MASK;
  83              		.loc 1 283 0
  84 004e 1C4B     		ldr	r3, .L2+56
  85 0050 1C60     		str	r4, [r3]
 284:Generated_Source\PSoC4/UART_1_UART.c ****         UART_1_INTR_SPI_EC_MASK_REG = UART_1_UART_DEFAULT_INTR_SPI_EC_MASK;
  86              		.loc 1 284 0
  87 0052 1C4B     		ldr	r3, .L2+60
  88 0054 1C60     		str	r4, [r3]
 285:Generated_Source\PSoC4/UART_1_UART.c ****         UART_1_INTR_SLAVE_MASK_REG  = UART_1_UART_DEFAULT_INTR_SLAVE_MASK;
  89              		.loc 1 285 0
  90 0056 1C4B     		ldr	r3, .L2+64
  91 0058 1C60     		str	r4, [r3]
 286:Generated_Source\PSoC4/UART_1_UART.c ****         UART_1_INTR_MASTER_MASK_REG = UART_1_UART_DEFAULT_INTR_MASTER_MASK;
  92              		.loc 1 286 0
  93 005a 1C4B     		ldr	r3, .L2+68
  94 005c 1C60     		str	r4, [r3]
 287:Generated_Source\PSoC4/UART_1_UART.c ****         UART_1_INTR_RX_MASK_REG     = UART_1_UART_DEFAULT_INTR_RX_MASK;
  95              		.loc 1 287 0
  96 005e 4422     		mov	r2, #68
  97 0060 1B4B     		ldr	r3, .L2+72
  98 0062 1A60     		str	r2, [r3]
 288:Generated_Source\PSoC4/UART_1_UART.c ****         UART_1_INTR_TX_MASK_REG     = UART_1_UART_DEFAULT_INTR_TX_MASK;
  99              		.loc 1 288 0
 100 0064 1B4B     		ldr	r3, .L2+76
 101 0066 243A     		sub	r2, r2, #36
 102 0068 1A60     		str	r2, [r3]
 289:Generated_Source\PSoC4/UART_1_UART.c ****     
 290:Generated_Source\PSoC4/UART_1_UART.c ****         /* Configure TX interrupt sources to restore. */
 291:Generated_Source\PSoC4/UART_1_UART.c ****         UART_1_IntrTxMask = LO16(UART_1_INTR_TX_MASK_REG);
 103              		.loc 1 291 0
 104 006a 1A68     		ldr	r2, [r3]
 105 006c 1A4B     		ldr	r3, .L2+80
 106 006e 1A80     		strh	r2, [r3]
 292:Generated_Source\PSoC4/UART_1_UART.c **** 
 293:Generated_Source\PSoC4/UART_1_UART.c ****     #if(UART_1_INTERNAL_RX_SW_BUFFER_CONST)
ARM GAS  C:\Users\TB1014~1\AppData\Local\Temp\ccAVBM7f.s 			page 8


 294:Generated_Source\PSoC4/UART_1_UART.c ****         UART_1_rxBufferHead     = 0u;
 107              		.loc 1 294 0
 108 0070 1A4B     		ldr	r3, .L2+84
 109 0072 1C60     		str	r4, [r3]
 295:Generated_Source\PSoC4/UART_1_UART.c ****         UART_1_rxBufferTail     = 0u;
 110              		.loc 1 295 0
 111 0074 1A4B     		ldr	r3, .L2+88
 112 0076 1C60     		str	r4, [r3]
 296:Generated_Source\PSoC4/UART_1_UART.c ****         UART_1_rxBufferOverflow = 0u;
 113              		.loc 1 296 0
 114 0078 1A4B     		ldr	r3, .L2+92
 115 007a 1C70     		strb	r4, [r3]
 297:Generated_Source\PSoC4/UART_1_UART.c ****     #endif /* (UART_1_INTERNAL_RX_SW_BUFFER_CONST) */
 298:Generated_Source\PSoC4/UART_1_UART.c **** 
 299:Generated_Source\PSoC4/UART_1_UART.c ****     #if(UART_1_INTERNAL_TX_SW_BUFFER_CONST)
 300:Generated_Source\PSoC4/UART_1_UART.c ****         UART_1_txBufferHead = 0u;
 116              		.loc 1 300 0
 117 007c 1A4B     		ldr	r3, .L2+96
 118 007e 1C60     		str	r4, [r3]
 301:Generated_Source\PSoC4/UART_1_UART.c ****         UART_1_txBufferTail = 0u;
 119              		.loc 1 301 0
 120 0080 1A4B     		ldr	r3, .L2+100
 121 0082 1C60     		str	r4, [r3]
 302:Generated_Source\PSoC4/UART_1_UART.c ****     #endif /* (UART_1_INTERNAL_TX_SW_BUFFER_CONST) */
 303:Generated_Source\PSoC4/UART_1_UART.c ****     }
 122              		.loc 1 303 0
 123              		@ sp needed
 124 0084 10BD     		pop	{r4, pc}
 125              	.L3:
 126 0086 C046     		.align	2
 127              	.L2:
 128 0088 0F080002 		.word	33556495
 129 008c 00000840 		.word	1074266112
 130 0090 40000840 		.word	1074266176
 131 0094 01020000 		.word	513
 132 0098 48000840 		.word	1074266184
 133 009c 07000080 		.word	-2147483641
 134 00a0 00030840 		.word	1074266880
 135 00a4 04030840 		.word	1074266884
 136 00a8 10030840 		.word	1074266896
 137 00ac 44000840 		.word	1074266180
 138 00b0 00020840 		.word	1074266624
 139 00b4 04020840 		.word	1074266628
 140 00b8 50000840 		.word	1074266192
 141 00bc 00000000 		.word	UART_1_SPI_UART_ISR
 142 00c0 880E0840 		.word	1074269832
 143 00c4 C80E0840 		.word	1074269896
 144 00c8 480F0840 		.word	1074270024
 145 00cc 080F0840 		.word	1074269960
 146 00d0 C80F0840 		.word	1074270152
 147 00d4 880F0840 		.word	1074270088
 148 00d8 00000000 		.word	UART_1_IntrTxMask
 149 00dc 00000000 		.word	UART_1_rxBufferHead
 150 00e0 00000000 		.word	UART_1_rxBufferTail
 151 00e4 00000000 		.word	UART_1_rxBufferOverflow
 152 00e8 00000000 		.word	UART_1_txBufferHead
 153 00ec 00000000 		.word	UART_1_txBufferTail
ARM GAS  C:\Users\TB1014~1\AppData\Local\Temp\ccAVBM7f.s 			page 9


 154              		.cfi_endproc
 155              	.LFE1:
 156              		.size	UART_1_UartInit, .-UART_1_UartInit
 157              		.section	.text.UART_1_UartPostEnable,"ax",%progbits
 158              		.align	2
 159              		.global	UART_1_UartPostEnable
 160              		.code	16
 161              		.thumb_func
 162              		.type	UART_1_UartPostEnable, %function
 163              	UART_1_UartPostEnable:
 164              	.LFB2:
 304:Generated_Source\PSoC4/UART_1_UART.c **** #endif /* (UART_1_SCB_MODE_UNCONFIG_CONST_CFG) */
 305:Generated_Source\PSoC4/UART_1_UART.c **** 
 306:Generated_Source\PSoC4/UART_1_UART.c **** 
 307:Generated_Source\PSoC4/UART_1_UART.c **** /*******************************************************************************
 308:Generated_Source\PSoC4/UART_1_UART.c **** * Function Name: UART_1_UartPostEnable
 309:Generated_Source\PSoC4/UART_1_UART.c **** ****************************************************************************//**
 310:Generated_Source\PSoC4/UART_1_UART.c **** *
 311:Generated_Source\PSoC4/UART_1_UART.c **** *  Restores HSIOM settings for the UART output pins (TX and/or RTS) to be
 312:Generated_Source\PSoC4/UART_1_UART.c **** *  controlled by the SCB UART.
 313:Generated_Source\PSoC4/UART_1_UART.c **** *
 314:Generated_Source\PSoC4/UART_1_UART.c **** *******************************************************************************/
 315:Generated_Source\PSoC4/UART_1_UART.c **** void UART_1_UartPostEnable(void)
 316:Generated_Source\PSoC4/UART_1_UART.c **** {
 165              		.loc 1 316 0
 166              		.cfi_startproc
 317:Generated_Source\PSoC4/UART_1_UART.c **** #if (UART_1_SCB_MODE_UNCONFIG_CONST_CFG)
 318:Generated_Source\PSoC4/UART_1_UART.c ****     #if (UART_1_TX_SDA_MISO_PIN)
 319:Generated_Source\PSoC4/UART_1_UART.c ****         if (UART_1_CHECK_TX_SDA_MISO_PIN_USED)
 320:Generated_Source\PSoC4/UART_1_UART.c ****         {
 321:Generated_Source\PSoC4/UART_1_UART.c ****             /* Set SCB UART to drive the output pin */
 322:Generated_Source\PSoC4/UART_1_UART.c ****             UART_1_SET_HSIOM_SEL(UART_1_TX_SDA_MISO_HSIOM_REG, UART_1_TX_SDA_MISO_HSIOM_MASK,
 323:Generated_Source\PSoC4/UART_1_UART.c ****                                            UART_1_TX_SDA_MISO_HSIOM_POS, UART_1_TX_SDA_MISO_HSIOM_S
 324:Generated_Source\PSoC4/UART_1_UART.c ****         }
 325:Generated_Source\PSoC4/UART_1_UART.c ****     #endif /* (UART_1_TX_SDA_MISO_PIN_PIN) */
 326:Generated_Source\PSoC4/UART_1_UART.c **** 
 327:Generated_Source\PSoC4/UART_1_UART.c ****     #if !(UART_1_CY_SCBIP_V0 || UART_1_CY_SCBIP_V1)
 328:Generated_Source\PSoC4/UART_1_UART.c ****         #if (UART_1_RTS_SS0_PIN)
 329:Generated_Source\PSoC4/UART_1_UART.c ****             if (UART_1_CHECK_RTS_SS0_PIN_USED)
 330:Generated_Source\PSoC4/UART_1_UART.c ****             {
 331:Generated_Source\PSoC4/UART_1_UART.c ****                 /* Set SCB UART to drive the output pin */
 332:Generated_Source\PSoC4/UART_1_UART.c ****                 UART_1_SET_HSIOM_SEL(UART_1_RTS_SS0_HSIOM_REG, UART_1_RTS_SS0_HSIOM_MASK,
 333:Generated_Source\PSoC4/UART_1_UART.c ****                                                UART_1_RTS_SS0_HSIOM_POS, UART_1_RTS_SS0_HSIOM_SEL_U
 334:Generated_Source\PSoC4/UART_1_UART.c ****             }
 335:Generated_Source\PSoC4/UART_1_UART.c ****         #endif /* (UART_1_RTS_SS0_PIN) */
 336:Generated_Source\PSoC4/UART_1_UART.c ****     #endif /* !(UART_1_CY_SCBIP_V0 || UART_1_CY_SCBIP_V1) */
 337:Generated_Source\PSoC4/UART_1_UART.c **** 
 338:Generated_Source\PSoC4/UART_1_UART.c **** #else
 339:Generated_Source\PSoC4/UART_1_UART.c ****     #if (UART_1_UART_TX_PIN)
 340:Generated_Source\PSoC4/UART_1_UART.c ****          /* Set SCB UART to drive the output pin */
 341:Generated_Source\PSoC4/UART_1_UART.c ****         UART_1_SET_HSIOM_SEL(UART_1_TX_HSIOM_REG, UART_1_TX_HSIOM_MASK,
 167              		.loc 1 341 0
 168 0000 0549     		ldr	r1, .L5
 169 0002 0B68     		ldr	r3, [r1]
 170 0004 F022     		mov	r2, #240
 171 0006 9343     		bic	r3, r2
 172 0008 603A     		sub	r2, r2, #96
ARM GAS  C:\Users\TB1014~1\AppData\Local\Temp\ccAVBM7f.s 			page 10


 173 000a 1343     		orr	r3, r2
 174 000c 0B60     		str	r3, [r1]
 342:Generated_Source\PSoC4/UART_1_UART.c ****                                        UART_1_TX_HSIOM_POS, UART_1_TX_HSIOM_SEL_UART);
 343:Generated_Source\PSoC4/UART_1_UART.c ****     #endif /* (UART_1_UART_TX_PIN) */
 344:Generated_Source\PSoC4/UART_1_UART.c **** 
 345:Generated_Source\PSoC4/UART_1_UART.c ****     #if (UART_1_UART_RTS_PIN)
 346:Generated_Source\PSoC4/UART_1_UART.c ****         /* Set SCB UART to drive the output pin */
 347:Generated_Source\PSoC4/UART_1_UART.c ****         UART_1_SET_HSIOM_SEL(UART_1_RTS_HSIOM_REG, UART_1_RTS_HSIOM_MASK,
 348:Generated_Source\PSoC4/UART_1_UART.c ****                                        UART_1_RTS_HSIOM_POS, UART_1_RTS_HSIOM_SEL_UART);
 349:Generated_Source\PSoC4/UART_1_UART.c ****     #endif /* (UART_1_UART_RTS_PIN) */
 350:Generated_Source\PSoC4/UART_1_UART.c **** #endif /* (UART_1_SCB_MODE_UNCONFIG_CONST_CFG) */
 351:Generated_Source\PSoC4/UART_1_UART.c **** 
 352:Generated_Source\PSoC4/UART_1_UART.c ****     /* Restore TX interrupt sources. */
 353:Generated_Source\PSoC4/UART_1_UART.c ****     UART_1_SetTxInterruptMode(UART_1_IntrTxMask);
 175              		.loc 1 353 0
 176 000e 034B     		ldr	r3, .L5+4
 177 0010 1A88     		ldrh	r2, [r3]
 178 0012 034B     		ldr	r3, .L5+8
 179 0014 1A60     		str	r2, [r3]
 354:Generated_Source\PSoC4/UART_1_UART.c **** }
 180              		.loc 1 354 0
 181              		@ sp needed
 182 0016 7047     		bx	lr
 183              	.L6:
 184              		.align	2
 185              	.L5:
 186 0018 00010240 		.word	1073873152
 187 001c 00000000 		.word	UART_1_IntrTxMask
 188 0020 880F0840 		.word	1074270088
 189              		.cfi_endproc
 190              	.LFE2:
 191              		.size	UART_1_UartPostEnable, .-UART_1_UartPostEnable
 192              		.section	.text.UART_1_UartStop,"ax",%progbits
 193              		.align	2
 194              		.global	UART_1_UartStop
 195              		.code	16
 196              		.thumb_func
 197              		.type	UART_1_UartStop, %function
 198              	UART_1_UartStop:
 199              	.LFB3:
 355:Generated_Source\PSoC4/UART_1_UART.c **** 
 356:Generated_Source\PSoC4/UART_1_UART.c **** 
 357:Generated_Source\PSoC4/UART_1_UART.c **** /*******************************************************************************
 358:Generated_Source\PSoC4/UART_1_UART.c **** * Function Name: UART_1_UartStop
 359:Generated_Source\PSoC4/UART_1_UART.c **** ****************************************************************************//**
 360:Generated_Source\PSoC4/UART_1_UART.c **** *
 361:Generated_Source\PSoC4/UART_1_UART.c **** *  Changes the HSIOM settings for the UART output pins (TX and/or RTS) to keep
 362:Generated_Source\PSoC4/UART_1_UART.c **** *  them inactive after the block is disabled. The output pins are controlled by
 363:Generated_Source\PSoC4/UART_1_UART.c **** *  the GPIO data register. Also, the function disables the skip start feature
 364:Generated_Source\PSoC4/UART_1_UART.c **** *  to not cause it to trigger after the component is enabled.
 365:Generated_Source\PSoC4/UART_1_UART.c **** *
 366:Generated_Source\PSoC4/UART_1_UART.c **** *******************************************************************************/
 367:Generated_Source\PSoC4/UART_1_UART.c **** void UART_1_UartStop(void)
 368:Generated_Source\PSoC4/UART_1_UART.c **** {
 200              		.loc 1 368 0
 201              		.cfi_startproc
 369:Generated_Source\PSoC4/UART_1_UART.c **** #if(UART_1_SCB_MODE_UNCONFIG_CONST_CFG)
ARM GAS  C:\Users\TB1014~1\AppData\Local\Temp\ccAVBM7f.s 			page 11


 370:Generated_Source\PSoC4/UART_1_UART.c ****     #if (UART_1_TX_SDA_MISO_PIN)
 371:Generated_Source\PSoC4/UART_1_UART.c ****         if (UART_1_CHECK_TX_SDA_MISO_PIN_USED)
 372:Generated_Source\PSoC4/UART_1_UART.c ****         {
 373:Generated_Source\PSoC4/UART_1_UART.c ****             /* Set GPIO to drive output pin */
 374:Generated_Source\PSoC4/UART_1_UART.c ****             UART_1_SET_HSIOM_SEL(UART_1_TX_SDA_MISO_HSIOM_REG, UART_1_TX_SDA_MISO_HSIOM_MASK,
 375:Generated_Source\PSoC4/UART_1_UART.c ****                                            UART_1_TX_SDA_MISO_HSIOM_POS, UART_1_TX_SDA_MISO_HSIOM_S
 376:Generated_Source\PSoC4/UART_1_UART.c ****         }
 377:Generated_Source\PSoC4/UART_1_UART.c ****     #endif /* (UART_1_TX_SDA_MISO_PIN_PIN) */
 378:Generated_Source\PSoC4/UART_1_UART.c **** 
 379:Generated_Source\PSoC4/UART_1_UART.c ****     #if !(UART_1_CY_SCBIP_V0 || UART_1_CY_SCBIP_V1)
 380:Generated_Source\PSoC4/UART_1_UART.c ****         #if (UART_1_RTS_SS0_PIN)
 381:Generated_Source\PSoC4/UART_1_UART.c ****             if (UART_1_CHECK_RTS_SS0_PIN_USED)
 382:Generated_Source\PSoC4/UART_1_UART.c ****             {
 383:Generated_Source\PSoC4/UART_1_UART.c ****                 /* Set output pin state after block is disabled */
 384:Generated_Source\PSoC4/UART_1_UART.c ****                 UART_1_uart_rts_spi_ss0_Write(UART_1_GET_UART_RTS_INACTIVE);
 385:Generated_Source\PSoC4/UART_1_UART.c **** 
 386:Generated_Source\PSoC4/UART_1_UART.c ****                 /* Set GPIO to drive output pin */
 387:Generated_Source\PSoC4/UART_1_UART.c ****                 UART_1_SET_HSIOM_SEL(UART_1_RTS_SS0_HSIOM_REG, UART_1_RTS_SS0_HSIOM_MASK,
 388:Generated_Source\PSoC4/UART_1_UART.c ****                                                UART_1_RTS_SS0_HSIOM_POS, UART_1_RTS_SS0_HSIOM_SEL_G
 389:Generated_Source\PSoC4/UART_1_UART.c ****             }
 390:Generated_Source\PSoC4/UART_1_UART.c ****         #endif /* (UART_1_RTS_SS0_PIN) */
 391:Generated_Source\PSoC4/UART_1_UART.c ****     #endif /* !(UART_1_CY_SCBIP_V0 || UART_1_CY_SCBIP_V1) */
 392:Generated_Source\PSoC4/UART_1_UART.c **** 
 393:Generated_Source\PSoC4/UART_1_UART.c **** #else
 394:Generated_Source\PSoC4/UART_1_UART.c ****     #if (UART_1_UART_TX_PIN)
 395:Generated_Source\PSoC4/UART_1_UART.c ****         /* Set GPIO to drive output pin */
 396:Generated_Source\PSoC4/UART_1_UART.c ****         UART_1_SET_HSIOM_SEL(UART_1_TX_HSIOM_REG, UART_1_TX_HSIOM_MASK,
 202              		.loc 1 396 0
 203 0000 064A     		ldr	r2, .L8
 204 0002 1368     		ldr	r3, [r2]
 205 0004 F021     		mov	r1, #240
 206 0006 8B43     		bic	r3, r1
 207 0008 1360     		str	r3, [r2]
 397:Generated_Source\PSoC4/UART_1_UART.c ****                                        UART_1_TX_HSIOM_POS, UART_1_TX_HSIOM_SEL_GPIO);
 398:Generated_Source\PSoC4/UART_1_UART.c ****     #endif /* (UART_1_UART_TX_PIN) */
 399:Generated_Source\PSoC4/UART_1_UART.c **** 
 400:Generated_Source\PSoC4/UART_1_UART.c ****     #if (UART_1_UART_RTS_PIN)
 401:Generated_Source\PSoC4/UART_1_UART.c ****         /* Set output pin state after block is disabled */
 402:Generated_Source\PSoC4/UART_1_UART.c ****         UART_1_rts_Write(UART_1_GET_UART_RTS_INACTIVE);
 403:Generated_Source\PSoC4/UART_1_UART.c **** 
 404:Generated_Source\PSoC4/UART_1_UART.c ****         /* Set GPIO to drive output pin */
 405:Generated_Source\PSoC4/UART_1_UART.c ****         UART_1_SET_HSIOM_SEL(UART_1_RTS_HSIOM_REG, UART_1_RTS_HSIOM_MASK,
 406:Generated_Source\PSoC4/UART_1_UART.c ****                                        UART_1_RTS_HSIOM_POS, UART_1_RTS_HSIOM_SEL_GPIO);
 407:Generated_Source\PSoC4/UART_1_UART.c ****     #endif /* (UART_1_UART_RTS_PIN) */
 408:Generated_Source\PSoC4/UART_1_UART.c **** 
 409:Generated_Source\PSoC4/UART_1_UART.c **** #endif /* (UART_1_SCB_MODE_UNCONFIG_CONST_CFG) */
 410:Generated_Source\PSoC4/UART_1_UART.c **** 
 411:Generated_Source\PSoC4/UART_1_UART.c **** #if (UART_1_UART_WAKE_ENABLE_CONST)
 412:Generated_Source\PSoC4/UART_1_UART.c ****     /* Disable skip start feature used for wakeup */
 413:Generated_Source\PSoC4/UART_1_UART.c ****     UART_1_UART_RX_CTRL_REG &= (uint32) ~UART_1_UART_RX_CTRL_SKIP_START;
 414:Generated_Source\PSoC4/UART_1_UART.c **** #endif /* (UART_1_UART_WAKE_ENABLE_CONST) */
 415:Generated_Source\PSoC4/UART_1_UART.c **** 
 416:Generated_Source\PSoC4/UART_1_UART.c ****     /* Store TX interrupt sources (exclude level triggered). */
 417:Generated_Source\PSoC4/UART_1_UART.c ****     UART_1_IntrTxMask = LO16(UART_1_GetTxInterruptMode() & UART_1_INTR_UART_TX_RESTORE);
 208              		.loc 1 417 0
 209 000a 054B     		ldr	r3, .L8+4
 210 000c 1A68     		ldr	r2, [r3]
ARM GAS  C:\Users\TB1014~1\AppData\Local\Temp\ccAVBM7f.s 			page 12


 211 000e E423     		mov	r3, #228
 212 0010 DB00     		lsl	r3, r3, #3
 213 0012 1340     		and	r3, r2
 214 0014 034A     		ldr	r2, .L8+8
 215 0016 1380     		strh	r3, [r2]
 418:Generated_Source\PSoC4/UART_1_UART.c **** }
 216              		.loc 1 418 0
 217              		@ sp needed
 218 0018 7047     		bx	lr
 219              	.L9:
 220 001a C046     		.align	2
 221              	.L8:
 222 001c 00010240 		.word	1073873152
 223 0020 880F0840 		.word	1074270088
 224 0024 00000000 		.word	UART_1_IntrTxMask
 225              		.cfi_endproc
 226              	.LFE3:
 227              		.size	UART_1_UartStop, .-UART_1_UartStop
 228              		.section	.text.UART_1_UartSetRxAddress,"ax",%progbits
 229              		.align	2
 230              		.global	UART_1_UartSetRxAddress
 231              		.code	16
 232              		.thumb_func
 233              		.type	UART_1_UartSetRxAddress, %function
 234              	UART_1_UartSetRxAddress:
 235              	.LFB4:
 419:Generated_Source\PSoC4/UART_1_UART.c **** 
 420:Generated_Source\PSoC4/UART_1_UART.c **** 
 421:Generated_Source\PSoC4/UART_1_UART.c **** /*******************************************************************************
 422:Generated_Source\PSoC4/UART_1_UART.c **** * Function Name: UART_1_UartSetRxAddress
 423:Generated_Source\PSoC4/UART_1_UART.c **** ****************************************************************************//**
 424:Generated_Source\PSoC4/UART_1_UART.c **** *
 425:Generated_Source\PSoC4/UART_1_UART.c **** *  Sets the hardware detectable receiver address for the UART in the
 426:Generated_Source\PSoC4/UART_1_UART.c **** *  Multiprocessor mode.
 427:Generated_Source\PSoC4/UART_1_UART.c **** *
 428:Generated_Source\PSoC4/UART_1_UART.c **** *  \param address: Address for hardware address detection.
 429:Generated_Source\PSoC4/UART_1_UART.c **** *
 430:Generated_Source\PSoC4/UART_1_UART.c **** *******************************************************************************/
 431:Generated_Source\PSoC4/UART_1_UART.c **** void UART_1_UartSetRxAddress(uint32 address)
 432:Generated_Source\PSoC4/UART_1_UART.c **** {
 236              		.loc 1 432 0
 237              		.cfi_startproc
 238              	.LVL3:
 433:Generated_Source\PSoC4/UART_1_UART.c ****      uint32 matchReg;
 434:Generated_Source\PSoC4/UART_1_UART.c **** 
 435:Generated_Source\PSoC4/UART_1_UART.c ****     matchReg = UART_1_RX_MATCH_REG;
 239              		.loc 1 435 0
 240 0000 034A     		ldr	r2, .L11
 241 0002 1368     		ldr	r3, [r2]
 242              	.LVL4:
 436:Generated_Source\PSoC4/UART_1_UART.c **** 
 437:Generated_Source\PSoC4/UART_1_UART.c ****     matchReg &= ((uint32) ~UART_1_RX_MATCH_ADDR_MASK); /* Clear address bits */
 243              		.loc 1 437 0
 244 0004 FF21     		mov	r1, #255
 245 0006 8B43     		bic	r3, r1
 246              	.LVL5:
 438:Generated_Source\PSoC4/UART_1_UART.c ****     matchReg |= ((uint32)  (address & UART_1_RX_MATCH_ADDR_MASK)); /* Set address  */
ARM GAS  C:\Users\TB1014~1\AppData\Local\Temp\ccAVBM7f.s 			page 13


 247              		.loc 1 438 0
 248 0008 0840     		and	r0, r1
 249              	.LVL6:
 250 000a 1843     		orr	r0, r3
 251              	.LVL7:
 439:Generated_Source\PSoC4/UART_1_UART.c **** 
 440:Generated_Source\PSoC4/UART_1_UART.c ****     UART_1_RX_MATCH_REG = matchReg;
 252              		.loc 1 440 0
 253 000c 1060     		str	r0, [r2]
 441:Generated_Source\PSoC4/UART_1_UART.c **** }
 254              		.loc 1 441 0
 255              		@ sp needed
 256 000e 7047     		bx	lr
 257              	.L12:
 258              		.align	2
 259              	.L11:
 260 0010 10030840 		.word	1074266896
 261              		.cfi_endproc
 262              	.LFE4:
 263              		.size	UART_1_UartSetRxAddress, .-UART_1_UartSetRxAddress
 264              		.section	.text.UART_1_UartSetRxAddressMask,"ax",%progbits
 265              		.align	2
 266              		.global	UART_1_UartSetRxAddressMask
 267              		.code	16
 268              		.thumb_func
 269              		.type	UART_1_UartSetRxAddressMask, %function
 270              	UART_1_UartSetRxAddressMask:
 271              	.LFB5:
 442:Generated_Source\PSoC4/UART_1_UART.c **** 
 443:Generated_Source\PSoC4/UART_1_UART.c **** 
 444:Generated_Source\PSoC4/UART_1_UART.c **** /*******************************************************************************
 445:Generated_Source\PSoC4/UART_1_UART.c **** * Function Name: UART_1_UartSetRxAddressMask
 446:Generated_Source\PSoC4/UART_1_UART.c **** ****************************************************************************//**
 447:Generated_Source\PSoC4/UART_1_UART.c **** *
 448:Generated_Source\PSoC4/UART_1_UART.c **** *  Sets the hardware address mask for the UART in the Multiprocessor mode.
 449:Generated_Source\PSoC4/UART_1_UART.c **** *
 450:Generated_Source\PSoC4/UART_1_UART.c **** *  \param addressMask: Address mask.
 451:Generated_Source\PSoC4/UART_1_UART.c **** *   - Bit value 0 – excludes bit from address comparison.
 452:Generated_Source\PSoC4/UART_1_UART.c **** *   - Bit value 1 – the bit needs to match with the corresponding bit
 453:Generated_Source\PSoC4/UART_1_UART.c **** *     of the address.
 454:Generated_Source\PSoC4/UART_1_UART.c **** *
 455:Generated_Source\PSoC4/UART_1_UART.c **** *******************************************************************************/
 456:Generated_Source\PSoC4/UART_1_UART.c **** void UART_1_UartSetRxAddressMask(uint32 addressMask)
 457:Generated_Source\PSoC4/UART_1_UART.c **** {
 272              		.loc 1 457 0
 273              		.cfi_startproc
 274              	.LVL8:
 458:Generated_Source\PSoC4/UART_1_UART.c ****     uint32 matchReg;
 459:Generated_Source\PSoC4/UART_1_UART.c **** 
 460:Generated_Source\PSoC4/UART_1_UART.c ****     matchReg = UART_1_RX_MATCH_REG;
 275              		.loc 1 460 0
 276 0000 034A     		ldr	r2, .L14
 277 0002 1168     		ldr	r1, [r2]
 278              	.LVL9:
 461:Generated_Source\PSoC4/UART_1_UART.c **** 
 462:Generated_Source\PSoC4/UART_1_UART.c ****     matchReg &= ((uint32) ~UART_1_RX_MATCH_MASK_MASK); /* Clear address mask bits */
 279              		.loc 1 462 0
ARM GAS  C:\Users\TB1014~1\AppData\Local\Temp\ccAVBM7f.s 			page 14


 280 0004 034B     		ldr	r3, .L14+4
 281 0006 0B40     		and	r3, r1
 282              	.LVL10:
 463:Generated_Source\PSoC4/UART_1_UART.c ****     matchReg |= ((uint32) (addressMask << UART_1_RX_MATCH_MASK_POS));
 283              		.loc 1 463 0
 284 0008 0004     		lsl	r0, r0, #16
 285              	.LVL11:
 286 000a 1843     		orr	r0, r3
 287              	.LVL12:
 464:Generated_Source\PSoC4/UART_1_UART.c **** 
 465:Generated_Source\PSoC4/UART_1_UART.c ****     UART_1_RX_MATCH_REG = matchReg;
 288              		.loc 1 465 0
 289 000c 1060     		str	r0, [r2]
 466:Generated_Source\PSoC4/UART_1_UART.c **** }
 290              		.loc 1 466 0
 291              		@ sp needed
 292 000e 7047     		bx	lr
 293              	.L15:
 294              		.align	2
 295              	.L14:
 296 0010 10030840 		.word	1074266896
 297 0014 FFFF00FF 		.word	-16711681
 298              		.cfi_endproc
 299              	.LFE5:
 300              		.size	UART_1_UartSetRxAddressMask, .-UART_1_UartSetRxAddressMask
 301              		.section	.text.UART_1_UartGetChar,"ax",%progbits
 302              		.align	2
 303              		.global	UART_1_UartGetChar
 304              		.code	16
 305              		.thumb_func
 306              		.type	UART_1_UartGetChar, %function
 307              	UART_1_UartGetChar:
 308              	.LFB6:
 467:Generated_Source\PSoC4/UART_1_UART.c **** 
 468:Generated_Source\PSoC4/UART_1_UART.c **** 
 469:Generated_Source\PSoC4/UART_1_UART.c **** #if(UART_1_UART_RX_DIRECTION)
 470:Generated_Source\PSoC4/UART_1_UART.c ****     /*******************************************************************************
 471:Generated_Source\PSoC4/UART_1_UART.c ****     * Function Name: UART_1_UartGetChar
 472:Generated_Source\PSoC4/UART_1_UART.c ****     ****************************************************************************//**
 473:Generated_Source\PSoC4/UART_1_UART.c ****     *
 474:Generated_Source\PSoC4/UART_1_UART.c ****     *  Retrieves next data element from receive buffer.
 475:Generated_Source\PSoC4/UART_1_UART.c ****     *  This function is designed for ASCII characters and returns a char where
 476:Generated_Source\PSoC4/UART_1_UART.c ****     *  1 to 255 are valid characters and 0 indicates an error occurred or no data
 477:Generated_Source\PSoC4/UART_1_UART.c ****     *  is present.
 478:Generated_Source\PSoC4/UART_1_UART.c ****     *  - RX software buffer is disabled: Returns data element retrieved from RX
 479:Generated_Source\PSoC4/UART_1_UART.c ****     *    FIFO.
 480:Generated_Source\PSoC4/UART_1_UART.c ****     *  - RX software buffer is enabled: Returns data element from the software
 481:Generated_Source\PSoC4/UART_1_UART.c ****     *    receive buffer.
 482:Generated_Source\PSoC4/UART_1_UART.c ****     *
 483:Generated_Source\PSoC4/UART_1_UART.c ****     *  \return
 484:Generated_Source\PSoC4/UART_1_UART.c ****     *   Next data element from the receive buffer. ASCII character values from
 485:Generated_Source\PSoC4/UART_1_UART.c ****     *   1 to 255 are valid. A returned zero signifies an error condition or no
 486:Generated_Source\PSoC4/UART_1_UART.c ****     *   data available.
 487:Generated_Source\PSoC4/UART_1_UART.c ****     *
 488:Generated_Source\PSoC4/UART_1_UART.c ****     *  \sideeffect
 489:Generated_Source\PSoC4/UART_1_UART.c ****     *   The errors bits may not correspond with reading characters due to
 490:Generated_Source\PSoC4/UART_1_UART.c ****     *   RX FIFO and software buffer usage.
ARM GAS  C:\Users\TB1014~1\AppData\Local\Temp\ccAVBM7f.s 			page 15


 491:Generated_Source\PSoC4/UART_1_UART.c ****     *   RX software buffer is enabled: The internal software buffer overflow
 492:Generated_Source\PSoC4/UART_1_UART.c ****     *   is not treated as an error condition.
 493:Generated_Source\PSoC4/UART_1_UART.c ****     *   Check UART_1_rxBufferOverflow to capture that error condition.
 494:Generated_Source\PSoC4/UART_1_UART.c ****     *
 495:Generated_Source\PSoC4/UART_1_UART.c ****     *******************************************************************************/
 496:Generated_Source\PSoC4/UART_1_UART.c ****     uint32 UART_1_UartGetChar(void)
 497:Generated_Source\PSoC4/UART_1_UART.c ****     {
 309              		.loc 1 497 0
 310              		.cfi_startproc
 311 0000 08B5     		push	{r3, lr}
 312              		.cfi_def_cfa_offset 8
 313              		.cfi_offset 3, -8
 314              		.cfi_offset 14, -4
 315              	.LVL13:
 498:Generated_Source\PSoC4/UART_1_UART.c ****         uint32 rxData = 0u;
 499:Generated_Source\PSoC4/UART_1_UART.c **** 
 500:Generated_Source\PSoC4/UART_1_UART.c ****         /* Reads data only if there is data to read */
 501:Generated_Source\PSoC4/UART_1_UART.c ****         if (0u != UART_1_SpiUartGetRxBufferSize())
 316              		.loc 1 501 0
 317 0002 FFF7FEFF 		bl	UART_1_SpiUartGetRxBufferSize
 318              	.LVL14:
 319 0006 0028     		cmp	r0, #0
 320 0008 02D0     		beq	.L19
 502:Generated_Source\PSoC4/UART_1_UART.c ****         {
 503:Generated_Source\PSoC4/UART_1_UART.c ****             rxData = UART_1_SpiUartReadRxData();
 321              		.loc 1 503 0
 322 000a FFF7FEFF 		bl	UART_1_SpiUartReadRxData
 323              	.LVL15:
 324 000e 00E0     		b	.L17
 325              	.LVL16:
 326              	.L19:
 498:Generated_Source\PSoC4/UART_1_UART.c ****         uint32 rxData = 0u;
 327              		.loc 1 498 0
 328 0010 0020     		mov	r0, #0
 329              	.LVL17:
 330              	.L17:
 504:Generated_Source\PSoC4/UART_1_UART.c ****         }
 505:Generated_Source\PSoC4/UART_1_UART.c **** 
 506:Generated_Source\PSoC4/UART_1_UART.c ****         if (UART_1_CHECK_INTR_RX(UART_1_INTR_RX_ERR))
 331              		.loc 1 506 0
 332 0012 054B     		ldr	r3, .L20
 333 0014 1A68     		ldr	r2, [r3]
 334 0016 D823     		mov	r3, #216
 335 0018 9B00     		lsl	r3, r3, #2
 336 001a 1A42     		tst	r2, r3
 337 001c 03D0     		beq	.L18
 338              	.LVL18:
 507:Generated_Source\PSoC4/UART_1_UART.c ****         {
 508:Generated_Source\PSoC4/UART_1_UART.c ****             rxData = 0u; /* Error occurred: returns zero */
 509:Generated_Source\PSoC4/UART_1_UART.c ****             UART_1_ClearRxInterruptSource(UART_1_INTR_RX_ERR);
 339              		.loc 1 509 0
 340 001e 1A1C     		mov	r2, r3
 341 0020 014B     		ldr	r3, .L20
 342 0022 1A60     		str	r2, [r3]
 508:Generated_Source\PSoC4/UART_1_UART.c ****             UART_1_ClearRxInterruptSource(UART_1_INTR_RX_ERR);
 343              		.loc 1 508 0
 344 0024 0020     		mov	r0, #0
ARM GAS  C:\Users\TB1014~1\AppData\Local\Temp\ccAVBM7f.s 			page 16


 345              	.LVL19:
 346              	.L18:
 510:Generated_Source\PSoC4/UART_1_UART.c ****         }
 511:Generated_Source\PSoC4/UART_1_UART.c **** 
 512:Generated_Source\PSoC4/UART_1_UART.c ****         return (rxData);
 513:Generated_Source\PSoC4/UART_1_UART.c ****     }
 347              		.loc 1 513 0
 348              		@ sp needed
 349 0026 08BD     		pop	{r3, pc}
 350              	.L21:
 351              		.align	2
 352              	.L20:
 353 0028 C00F0840 		.word	1074270144
 354              		.cfi_endproc
 355              	.LFE6:
 356              		.size	UART_1_UartGetChar, .-UART_1_UartGetChar
 357              		.section	.text.UART_1_UartGetByte,"ax",%progbits
 358              		.align	2
 359              		.global	UART_1_UartGetByte
 360              		.code	16
 361              		.thumb_func
 362              		.type	UART_1_UartGetByte, %function
 363              	UART_1_UartGetByte:
 364              	.LFB7:
 514:Generated_Source\PSoC4/UART_1_UART.c **** 
 515:Generated_Source\PSoC4/UART_1_UART.c **** 
 516:Generated_Source\PSoC4/UART_1_UART.c ****     /*******************************************************************************
 517:Generated_Source\PSoC4/UART_1_UART.c ****     * Function Name: UART_1_UartGetByte
 518:Generated_Source\PSoC4/UART_1_UART.c ****     ****************************************************************************//**
 519:Generated_Source\PSoC4/UART_1_UART.c ****     *
 520:Generated_Source\PSoC4/UART_1_UART.c ****     *  Retrieves the next data element from the receive buffer, returns the
 521:Generated_Source\PSoC4/UART_1_UART.c ****     *  received byte and error condition.
 522:Generated_Source\PSoC4/UART_1_UART.c ****     *   - The RX software buffer is disabled: returns the data element retrieved
 523:Generated_Source\PSoC4/UART_1_UART.c ****     *     from the RX FIFO. Undefined data will be returned if the RX FIFO is
 524:Generated_Source\PSoC4/UART_1_UART.c ****     *     empty.
 525:Generated_Source\PSoC4/UART_1_UART.c ****     *   - The RX software buffer is enabled: returns data element from the
 526:Generated_Source\PSoC4/UART_1_UART.c ****     *     software receive buffer.
 527:Generated_Source\PSoC4/UART_1_UART.c ****     *
 528:Generated_Source\PSoC4/UART_1_UART.c ****     *  \return
 529:Generated_Source\PSoC4/UART_1_UART.c ****     *   Bits 7-0 contain the next data element from the receive buffer and
 530:Generated_Source\PSoC4/UART_1_UART.c ****     *   other bits contain the error condition.
 531:Generated_Source\PSoC4/UART_1_UART.c ****     *   - UART_1_UART_RX_OVERFLOW - Attempt to write to a full
 532:Generated_Source\PSoC4/UART_1_UART.c ****     *     receiver FIFO.
 533:Generated_Source\PSoC4/UART_1_UART.c ****     *   - UART_1_UART_RX_UNDERFLOW	Attempt to read from an empty
 534:Generated_Source\PSoC4/UART_1_UART.c ****     *     receiver FIFO.
 535:Generated_Source\PSoC4/UART_1_UART.c ****     *   - UART_1_UART_RX_FRAME_ERROR - UART framing error detected.
 536:Generated_Source\PSoC4/UART_1_UART.c ****     *   - UART_1_UART_RX_PARITY_ERROR - UART parity error detected.
 537:Generated_Source\PSoC4/UART_1_UART.c ****     *
 538:Generated_Source\PSoC4/UART_1_UART.c ****     *  \sideeffect
 539:Generated_Source\PSoC4/UART_1_UART.c ****     *   The errors bits may not correspond with reading characters due to
 540:Generated_Source\PSoC4/UART_1_UART.c ****     *   RX FIFO and software buffer usage.
 541:Generated_Source\PSoC4/UART_1_UART.c ****     *   RX software buffer is enabled: The internal software buffer overflow
 542:Generated_Source\PSoC4/UART_1_UART.c ****     *   is not treated as an error condition.
 543:Generated_Source\PSoC4/UART_1_UART.c ****     *   Check UART_1_rxBufferOverflow to capture that error condition.
 544:Generated_Source\PSoC4/UART_1_UART.c ****     *
 545:Generated_Source\PSoC4/UART_1_UART.c ****     *******************************************************************************/
 546:Generated_Source\PSoC4/UART_1_UART.c ****     uint32 UART_1_UartGetByte(void)
ARM GAS  C:\Users\TB1014~1\AppData\Local\Temp\ccAVBM7f.s 			page 17


 547:Generated_Source\PSoC4/UART_1_UART.c ****     {
 365              		.loc 1 547 0
 366              		.cfi_startproc
 367 0000 10B5     		push	{r4, lr}
 368              		.cfi_def_cfa_offset 8
 369              		.cfi_offset 4, -8
 370              		.cfi_offset 14, -4
 548:Generated_Source\PSoC4/UART_1_UART.c ****         uint32 rxData;
 549:Generated_Source\PSoC4/UART_1_UART.c ****         uint32 tmpStatus;
 550:Generated_Source\PSoC4/UART_1_UART.c **** 
 551:Generated_Source\PSoC4/UART_1_UART.c ****         #if (UART_1_CHECK_RX_SW_BUFFER)
 552:Generated_Source\PSoC4/UART_1_UART.c ****         {
 553:Generated_Source\PSoC4/UART_1_UART.c ****             UART_1_DisableInt();
 371              		.loc 1 553 0
 372 0002 0720     		mov	r0, #7
 373 0004 FFF7FEFF 		bl	CyIntDisable
 374              	.LVL20:
 554:Generated_Source\PSoC4/UART_1_UART.c ****         }
 555:Generated_Source\PSoC4/UART_1_UART.c ****         #endif
 556:Generated_Source\PSoC4/UART_1_UART.c **** 
 557:Generated_Source\PSoC4/UART_1_UART.c ****         if (0u != UART_1_SpiUartGetRxBufferSize())
 375              		.loc 1 557 0
 376 0008 FFF7FEFF 		bl	UART_1_SpiUartGetRxBufferSize
 377              	.LVL21:
 378 000c 0028     		cmp	r0, #0
 379 000e 06D0     		beq	.L23
 558:Generated_Source\PSoC4/UART_1_UART.c ****         {
 559:Generated_Source\PSoC4/UART_1_UART.c ****             /* Enables interrupt to receive more bytes: at least one byte is in
 560:Generated_Source\PSoC4/UART_1_UART.c ****             * buffer.
 561:Generated_Source\PSoC4/UART_1_UART.c ****             */
 562:Generated_Source\PSoC4/UART_1_UART.c ****             #if (UART_1_CHECK_RX_SW_BUFFER)
 563:Generated_Source\PSoC4/UART_1_UART.c ****             {
 564:Generated_Source\PSoC4/UART_1_UART.c ****                 UART_1_EnableInt();
 380              		.loc 1 564 0
 381 0010 0720     		mov	r0, #7
 382 0012 FFF7FEFF 		bl	CyIntEnable
 383              	.LVL22:
 565:Generated_Source\PSoC4/UART_1_UART.c ****             }
 566:Generated_Source\PSoC4/UART_1_UART.c ****             #endif
 567:Generated_Source\PSoC4/UART_1_UART.c **** 
 568:Generated_Source\PSoC4/UART_1_UART.c ****             /* Get received byte */
 569:Generated_Source\PSoC4/UART_1_UART.c ****             rxData = UART_1_SpiUartReadRxData();
 384              		.loc 1 569 0
 385 0016 FFF7FEFF 		bl	UART_1_SpiUartReadRxData
 386              	.LVL23:
 387 001a 041C     		mov	r4, r0
 388              	.LVL24:
 389 001c 07E0     		b	.L24
 390              	.LVL25:
 391              	.L23:
 570:Generated_Source\PSoC4/UART_1_UART.c ****         }
 571:Generated_Source\PSoC4/UART_1_UART.c ****         else
 572:Generated_Source\PSoC4/UART_1_UART.c ****         {
 573:Generated_Source\PSoC4/UART_1_UART.c ****             /* Reads a byte directly from RX FIFO: underflow is raised in the
 574:Generated_Source\PSoC4/UART_1_UART.c ****             * case of empty. Otherwise the first received byte will be read.
 575:Generated_Source\PSoC4/UART_1_UART.c ****             */
 576:Generated_Source\PSoC4/UART_1_UART.c ****             rxData = UART_1_RX_FIFO_RD_REG;
ARM GAS  C:\Users\TB1014~1\AppData\Local\Temp\ccAVBM7f.s 			page 18


 392              		.loc 1 576 0
 393 001e 084B     		ldr	r3, .L25
 394 0020 1C68     		ldr	r4, [r3]
 395              	.LVL26:
 577:Generated_Source\PSoC4/UART_1_UART.c **** 
 578:Generated_Source\PSoC4/UART_1_UART.c **** 
 579:Generated_Source\PSoC4/UART_1_UART.c ****             /* Enables interrupt to receive more bytes. */
 580:Generated_Source\PSoC4/UART_1_UART.c ****             #if (UART_1_CHECK_RX_SW_BUFFER)
 581:Generated_Source\PSoC4/UART_1_UART.c ****             {
 582:Generated_Source\PSoC4/UART_1_UART.c **** 
 583:Generated_Source\PSoC4/UART_1_UART.c ****                 /* The byte has been read from RX FIFO. Clear RX interrupt to
 584:Generated_Source\PSoC4/UART_1_UART.c ****                 * not involve interrupt handler when RX FIFO is empty.
 585:Generated_Source\PSoC4/UART_1_UART.c ****                 */
 586:Generated_Source\PSoC4/UART_1_UART.c ****                 UART_1_ClearRxInterruptSource(UART_1_INTR_RX_NOT_EMPTY);
 396              		.loc 1 586 0
 397 0022 0422     		mov	r2, #4
 398 0024 074B     		ldr	r3, .L25+4
 399 0026 1A60     		str	r2, [r3]
 587:Generated_Source\PSoC4/UART_1_UART.c **** 
 588:Generated_Source\PSoC4/UART_1_UART.c ****                 UART_1_EnableInt();
 400              		.loc 1 588 0
 401 0028 0720     		mov	r0, #7
 402 002a FFF7FEFF 		bl	CyIntEnable
 403              	.LVL27:
 404              	.L24:
 589:Generated_Source\PSoC4/UART_1_UART.c ****             }
 590:Generated_Source\PSoC4/UART_1_UART.c ****             #endif
 591:Generated_Source\PSoC4/UART_1_UART.c ****         }
 592:Generated_Source\PSoC4/UART_1_UART.c **** 
 593:Generated_Source\PSoC4/UART_1_UART.c ****         /* Get and clear RX error mask */
 594:Generated_Source\PSoC4/UART_1_UART.c ****         tmpStatus = (UART_1_GetRxInterruptSource() & UART_1_INTR_RX_ERR);
 405              		.loc 1 594 0
 406 002e 054B     		ldr	r3, .L25+4
 407 0030 1868     		ldr	r0, [r3]
 408 0032 D822     		mov	r2, #216
 409 0034 9200     		lsl	r2, r2, #2
 410 0036 1040     		and	r0, r2
 411              	.LVL28:
 595:Generated_Source\PSoC4/UART_1_UART.c ****         UART_1_ClearRxInterruptSource(UART_1_INTR_RX_ERR);
 412              		.loc 1 595 0
 413 0038 1A60     		str	r2, [r3]
 596:Generated_Source\PSoC4/UART_1_UART.c **** 
 597:Generated_Source\PSoC4/UART_1_UART.c ****         /* Puts together data and error status:
 598:Generated_Source\PSoC4/UART_1_UART.c ****         * MP mode and accept address: 9th bit is set to notify mark.
 599:Generated_Source\PSoC4/UART_1_UART.c ****         */
 600:Generated_Source\PSoC4/UART_1_UART.c ****         rxData |= ((uint32) (tmpStatus << 8u));
 414              		.loc 1 600 0
 415 003a 0002     		lsl	r0, r0, #8
 416              	.LVL29:
 417 003c 2043     		orr	r0, r4
 418              	.LVL30:
 601:Generated_Source\PSoC4/UART_1_UART.c **** 
 602:Generated_Source\PSoC4/UART_1_UART.c ****         return (rxData);
 603:Generated_Source\PSoC4/UART_1_UART.c ****     }
 419              		.loc 1 603 0
 420              		@ sp needed
 421 003e 10BD     		pop	{r4, pc}
ARM GAS  C:\Users\TB1014~1\AppData\Local\Temp\ccAVBM7f.s 			page 19


 422              	.L26:
 423              		.align	2
 424              	.L25:
 425 0040 40030840 		.word	1074266944
 426 0044 C00F0840 		.word	1074270144
 427              		.cfi_endproc
 428              	.LFE7:
 429              		.size	UART_1_UartGetByte, .-UART_1_UartGetByte
 430              		.section	.text.UART_1_UartSetRtsPolarity,"ax",%progbits
 431              		.align	2
 432              		.global	UART_1_UartSetRtsPolarity
 433              		.code	16
 434              		.thumb_func
 435              		.type	UART_1_UartSetRtsPolarity, %function
 436              	UART_1_UartSetRtsPolarity:
 437              	.LFB8:
 604:Generated_Source\PSoC4/UART_1_UART.c **** 
 605:Generated_Source\PSoC4/UART_1_UART.c **** 
 606:Generated_Source\PSoC4/UART_1_UART.c ****     #if !(UART_1_CY_SCBIP_V0 || UART_1_CY_SCBIP_V1)
 607:Generated_Source\PSoC4/UART_1_UART.c ****         /*******************************************************************************
 608:Generated_Source\PSoC4/UART_1_UART.c ****         * Function Name: UART_1_UartSetRtsPolarity
 609:Generated_Source\PSoC4/UART_1_UART.c ****         ****************************************************************************//**
 610:Generated_Source\PSoC4/UART_1_UART.c ****         *
 611:Generated_Source\PSoC4/UART_1_UART.c ****         *  Sets active polarity of RTS output signal.
 612:Generated_Source\PSoC4/UART_1_UART.c ****         *  Only available for PSoC 4100 BLE / PSoC 4200 BLE / PSoC 4100M / PSoC 4200M /
 613:Generated_Source\PSoC4/UART_1_UART.c ****         *  PSoC 4200L / PSoC 4000S / PSoC 4100S / PSoC Analog Coprocessor devices.
 614:Generated_Source\PSoC4/UART_1_UART.c ****         *
 615:Generated_Source\PSoC4/UART_1_UART.c ****         *  \param polarity: Active polarity of RTS output signal.
 616:Generated_Source\PSoC4/UART_1_UART.c ****         *   - UART_1_UART_RTS_ACTIVE_LOW  - RTS signal is active low.
 617:Generated_Source\PSoC4/UART_1_UART.c ****         *   - UART_1_UART_RTS_ACTIVE_HIGH - RTS signal is active high.
 618:Generated_Source\PSoC4/UART_1_UART.c ****         *
 619:Generated_Source\PSoC4/UART_1_UART.c ****         *******************************************************************************/
 620:Generated_Source\PSoC4/UART_1_UART.c ****         void UART_1_UartSetRtsPolarity(uint32 polarity)
 621:Generated_Source\PSoC4/UART_1_UART.c ****         {
 438              		.loc 1 621 0
 439              		.cfi_startproc
 440              	.LVL31:
 622:Generated_Source\PSoC4/UART_1_UART.c ****             if(0u != polarity)
 441              		.loc 1 622 0
 442 0000 0028     		cmp	r0, #0
 443 0002 06D0     		beq	.L28
 623:Generated_Source\PSoC4/UART_1_UART.c ****             {
 624:Generated_Source\PSoC4/UART_1_UART.c ****                 UART_1_UART_FLOW_CTRL_REG |= (uint32)  UART_1_UART_FLOW_CTRL_RTS_POLARITY;
 444              		.loc 1 624 0
 445 0004 064A     		ldr	r2, .L30
 446 0006 1368     		ldr	r3, [r2]
 447 0008 8021     		mov	r1, #128
 448 000a 4902     		lsl	r1, r1, #9
 449 000c 0B43     		orr	r3, r1
 450 000e 1360     		str	r3, [r2]
 451 0010 04E0     		b	.L27
 452              	.L28:
 625:Generated_Source\PSoC4/UART_1_UART.c ****             }
 626:Generated_Source\PSoC4/UART_1_UART.c ****             else
 627:Generated_Source\PSoC4/UART_1_UART.c ****             {
 628:Generated_Source\PSoC4/UART_1_UART.c ****                 UART_1_UART_FLOW_CTRL_REG &= (uint32) ~UART_1_UART_FLOW_CTRL_RTS_POLARITY;
 453              		.loc 1 628 0
ARM GAS  C:\Users\TB1014~1\AppData\Local\Temp\ccAVBM7f.s 			page 20


 454 0012 034A     		ldr	r2, .L30
 455 0014 1168     		ldr	r1, [r2]
 456 0016 034B     		ldr	r3, .L30+4
 457 0018 0B40     		and	r3, r1
 458 001a 1360     		str	r3, [r2]
 459              	.L27:
 629:Generated_Source\PSoC4/UART_1_UART.c ****             }
 630:Generated_Source\PSoC4/UART_1_UART.c ****         }
 460              		.loc 1 630 0
 461              		@ sp needed
 462 001c 7047     		bx	lr
 463              	.L31:
 464 001e C046     		.align	2
 465              	.L30:
 466 0020 50000840 		.word	1074266192
 467 0024 FFFFFEFF 		.word	-65537
 468              		.cfi_endproc
 469              	.LFE8:
 470              		.size	UART_1_UartSetRtsPolarity, .-UART_1_UartSetRtsPolarity
 471              		.section	.text.UART_1_UartSetRtsFifoLevel,"ax",%progbits
 472              		.align	2
 473              		.global	UART_1_UartSetRtsFifoLevel
 474              		.code	16
 475              		.thumb_func
 476              		.type	UART_1_UartSetRtsFifoLevel, %function
 477              	UART_1_UartSetRtsFifoLevel:
 478              	.LFB9:
 631:Generated_Source\PSoC4/UART_1_UART.c **** 
 632:Generated_Source\PSoC4/UART_1_UART.c **** 
 633:Generated_Source\PSoC4/UART_1_UART.c ****         /*******************************************************************************
 634:Generated_Source\PSoC4/UART_1_UART.c ****         * Function Name: UART_1_UartSetRtsFifoLevel
 635:Generated_Source\PSoC4/UART_1_UART.c ****         ****************************************************************************//**
 636:Generated_Source\PSoC4/UART_1_UART.c ****         *
 637:Generated_Source\PSoC4/UART_1_UART.c ****         *  Sets level in the RX FIFO for RTS signal activation.
 638:Generated_Source\PSoC4/UART_1_UART.c ****         *  While the RX FIFO has fewer entries than the RX FIFO level the RTS signal
 639:Generated_Source\PSoC4/UART_1_UART.c ****         *  remains active, otherwise the RTS signal becomes inactive.
 640:Generated_Source\PSoC4/UART_1_UART.c ****         *  Only available for PSoC 4100 BLE / PSoC 4200 BLE / PSoC 4100M / PSoC 4200M /
 641:Generated_Source\PSoC4/UART_1_UART.c ****         *  PSoC 4200L / PSoC 4000S / PSoC 4100S / PSoC Analog Coprocessor devices.
 642:Generated_Source\PSoC4/UART_1_UART.c ****         *
 643:Generated_Source\PSoC4/UART_1_UART.c ****         *  \param level: Level in the RX FIFO for RTS signal activation.
 644:Generated_Source\PSoC4/UART_1_UART.c ****         *   The range of valid level values is between 0 and RX FIFO depth - 1.
 645:Generated_Source\PSoC4/UART_1_UART.c ****         *   Setting level value to 0 disables RTS signal activation.
 646:Generated_Source\PSoC4/UART_1_UART.c ****         *
 647:Generated_Source\PSoC4/UART_1_UART.c ****         *******************************************************************************/
 648:Generated_Source\PSoC4/UART_1_UART.c ****         void UART_1_UartSetRtsFifoLevel(uint32 level)
 649:Generated_Source\PSoC4/UART_1_UART.c ****         {
 479              		.loc 1 649 0
 480              		.cfi_startproc
 481              	.LVL32:
 650:Generated_Source\PSoC4/UART_1_UART.c ****             uint32 uartFlowCtrl;
 651:Generated_Source\PSoC4/UART_1_UART.c **** 
 652:Generated_Source\PSoC4/UART_1_UART.c ****             uartFlowCtrl = UART_1_UART_FLOW_CTRL_REG;
 482              		.loc 1 652 0
 483 0000 034A     		ldr	r2, .L33
 484 0002 1368     		ldr	r3, [r2]
 485              	.LVL33:
 653:Generated_Source\PSoC4/UART_1_UART.c **** 
ARM GAS  C:\Users\TB1014~1\AppData\Local\Temp\ccAVBM7f.s 			page 21


 654:Generated_Source\PSoC4/UART_1_UART.c ****             uartFlowCtrl &= ((uint32) ~UART_1_UART_FLOW_CTRL_TRIGGER_LEVEL_MASK); /* Clear level ma
 486              		.loc 1 654 0
 487 0004 0F21     		mov	r1, #15
 488 0006 8B43     		bic	r3, r1
 489              	.LVL34:
 655:Generated_Source\PSoC4/UART_1_UART.c ****             uartFlowCtrl |= ((uint32) (UART_1_UART_FLOW_CTRL_TRIGGER_LEVEL_MASK & level));
 490              		.loc 1 655 0
 491 0008 0840     		and	r0, r1
 492              	.LVL35:
 493 000a 1843     		orr	r0, r3
 494              	.LVL36:
 656:Generated_Source\PSoC4/UART_1_UART.c **** 
 657:Generated_Source\PSoC4/UART_1_UART.c ****             UART_1_UART_FLOW_CTRL_REG = uartFlowCtrl;
 495              		.loc 1 657 0
 496 000c 1060     		str	r0, [r2]
 658:Generated_Source\PSoC4/UART_1_UART.c ****         }
 497              		.loc 1 658 0
 498              		@ sp needed
 499 000e 7047     		bx	lr
 500              	.L34:
 501              		.align	2
 502              	.L33:
 503 0010 50000840 		.word	1074266192
 504              		.cfi_endproc
 505              	.LFE9:
 506              		.size	UART_1_UartSetRtsFifoLevel, .-UART_1_UartSetRtsFifoLevel
 507              		.section	.text.UART_1_UartPutString,"ax",%progbits
 508              		.align	2
 509              		.global	UART_1_UartPutString
 510              		.code	16
 511              		.thumb_func
 512              		.type	UART_1_UartPutString, %function
 513              	UART_1_UartPutString:
 514              	.LFB10:
 659:Generated_Source\PSoC4/UART_1_UART.c ****     #endif /* !(UART_1_CY_SCBIP_V0 || UART_1_CY_SCBIP_V1) */
 660:Generated_Source\PSoC4/UART_1_UART.c **** 
 661:Generated_Source\PSoC4/UART_1_UART.c **** #endif /* (UART_1_UART_RX_DIRECTION) */
 662:Generated_Source\PSoC4/UART_1_UART.c **** 
 663:Generated_Source\PSoC4/UART_1_UART.c **** 
 664:Generated_Source\PSoC4/UART_1_UART.c **** #if(UART_1_UART_TX_DIRECTION)
 665:Generated_Source\PSoC4/UART_1_UART.c ****     /*******************************************************************************
 666:Generated_Source\PSoC4/UART_1_UART.c ****     * Function Name: UART_1_UartPutString
 667:Generated_Source\PSoC4/UART_1_UART.c ****     ****************************************************************************//**
 668:Generated_Source\PSoC4/UART_1_UART.c ****     *
 669:Generated_Source\PSoC4/UART_1_UART.c ****     *  Places a NULL terminated string in the transmit buffer to be sent at the
 670:Generated_Source\PSoC4/UART_1_UART.c ****     *  next available bus time.
 671:Generated_Source\PSoC4/UART_1_UART.c ****     *  This function is blocking and waits until there is a space available to put
 672:Generated_Source\PSoC4/UART_1_UART.c ****     *  requested data in transmit buffer.
 673:Generated_Source\PSoC4/UART_1_UART.c ****     *
 674:Generated_Source\PSoC4/UART_1_UART.c ****     *  \param string: pointer to the null terminated string array to be placed in the
 675:Generated_Source\PSoC4/UART_1_UART.c ****     *   transmit buffer.
 676:Generated_Source\PSoC4/UART_1_UART.c ****     *
 677:Generated_Source\PSoC4/UART_1_UART.c ****     *******************************************************************************/
 678:Generated_Source\PSoC4/UART_1_UART.c ****     void UART_1_UartPutString(const char8 string[])
 679:Generated_Source\PSoC4/UART_1_UART.c ****     {
 515              		.loc 1 679 0
 516              		.cfi_startproc
ARM GAS  C:\Users\TB1014~1\AppData\Local\Temp\ccAVBM7f.s 			page 22


 517              	.LVL37:
 518 0000 38B5     		push	{r3, r4, r5, lr}
 519              		.cfi_def_cfa_offset 16
 520              		.cfi_offset 3, -16
 521              		.cfi_offset 4, -12
 522              		.cfi_offset 5, -8
 523              		.cfi_offset 14, -4
 524 0002 051C     		mov	r5, r0
 525              	.LVL38:
 680:Generated_Source\PSoC4/UART_1_UART.c ****         uint32 bufIndex;
 681:Generated_Source\PSoC4/UART_1_UART.c **** 
 682:Generated_Source\PSoC4/UART_1_UART.c ****         bufIndex = 0u;
 526              		.loc 1 682 0
 527 0004 0024     		mov	r4, #0
 683:Generated_Source\PSoC4/UART_1_UART.c **** 
 684:Generated_Source\PSoC4/UART_1_UART.c ****         /* Blocks the control flow until all data has been sent */
 685:Generated_Source\PSoC4/UART_1_UART.c ****         while(string[bufIndex] != ((char8) 0))
 528              		.loc 1 685 0
 529 0006 02E0     		b	.L36
 530              	.LVL39:
 531              	.L37:
 686:Generated_Source\PSoC4/UART_1_UART.c ****         {
 687:Generated_Source\PSoC4/UART_1_UART.c ****             UART_1_UartPutChar((uint32) string[bufIndex]);
 532              		.loc 1 687 0
 533 0008 FFF7FEFF 		bl	UART_1_SpiUartWriteTxData
 534              	.LVL40:
 688:Generated_Source\PSoC4/UART_1_UART.c ****             bufIndex++;
 535              		.loc 1 688 0
 536 000c 0134     		add	r4, r4, #1
 537              	.LVL41:
 538              	.L36:
 685:Generated_Source\PSoC4/UART_1_UART.c ****         {
 539              		.loc 1 685 0
 540 000e 285D     		ldrb	r0, [r5, r4]
 541 0010 0028     		cmp	r0, #0
 542 0012 F9D1     		bne	.L37
 689:Generated_Source\PSoC4/UART_1_UART.c ****         }
 690:Generated_Source\PSoC4/UART_1_UART.c ****     }
 543              		.loc 1 690 0
 544              		@ sp needed
 545              	.LVL42:
 546              	.LVL43:
 547 0014 38BD     		pop	{r3, r4, r5, pc}
 548              		.cfi_endproc
 549              	.LFE10:
 550              		.size	UART_1_UartPutString, .-UART_1_UartPutString
 551 0016 C046     		.section	.text.UART_1_UartPutCRLF,"ax",%progbits
 552              		.align	2
 553              		.global	UART_1_UartPutCRLF
 554              		.code	16
 555              		.thumb_func
 556              		.type	UART_1_UartPutCRLF, %function
 557              	UART_1_UartPutCRLF:
 558              	.LFB11:
 691:Generated_Source\PSoC4/UART_1_UART.c **** 
 692:Generated_Source\PSoC4/UART_1_UART.c **** 
 693:Generated_Source\PSoC4/UART_1_UART.c ****     /*******************************************************************************
ARM GAS  C:\Users\TB1014~1\AppData\Local\Temp\ccAVBM7f.s 			page 23


 694:Generated_Source\PSoC4/UART_1_UART.c ****     * Function Name: UART_1_UartPutCRLF
 695:Generated_Source\PSoC4/UART_1_UART.c ****     ****************************************************************************//**
 696:Generated_Source\PSoC4/UART_1_UART.c ****     *
 697:Generated_Source\PSoC4/UART_1_UART.c ****     *  Places byte of data followed by a carriage return (0x0D) and line feed
 698:Generated_Source\PSoC4/UART_1_UART.c ****     *  (0x0A) in the transmit buffer.
 699:Generated_Source\PSoC4/UART_1_UART.c ****     *  This function is blocking and waits until there is a space available to put
 700:Generated_Source\PSoC4/UART_1_UART.c ****     *  all requested data in transmit buffer.
 701:Generated_Source\PSoC4/UART_1_UART.c ****     *
 702:Generated_Source\PSoC4/UART_1_UART.c ****     *  \param txDataByte: the data to be transmitted.
 703:Generated_Source\PSoC4/UART_1_UART.c ****     *
 704:Generated_Source\PSoC4/UART_1_UART.c ****     *******************************************************************************/
 705:Generated_Source\PSoC4/UART_1_UART.c ****     void UART_1_UartPutCRLF(uint32 txDataByte)
 706:Generated_Source\PSoC4/UART_1_UART.c ****     {
 559              		.loc 1 706 0
 560              		.cfi_startproc
 561              	.LVL44:
 562 0000 08B5     		push	{r3, lr}
 563              		.cfi_def_cfa_offset 8
 564              		.cfi_offset 3, -8
 565              		.cfi_offset 14, -4
 707:Generated_Source\PSoC4/UART_1_UART.c ****         UART_1_UartPutChar(txDataByte);  /* Blocks control flow until all data has been sent */
 566              		.loc 1 707 0
 567 0002 FFF7FEFF 		bl	UART_1_SpiUartWriteTxData
 568              	.LVL45:
 708:Generated_Source\PSoC4/UART_1_UART.c ****         UART_1_UartPutChar(0x0Du);       /* Blocks control flow until all data has been sent */
 569              		.loc 1 708 0
 570 0006 0D20     		mov	r0, #13
 571 0008 FFF7FEFF 		bl	UART_1_SpiUartWriteTxData
 572              	.LVL46:
 709:Generated_Source\PSoC4/UART_1_UART.c ****         UART_1_UartPutChar(0x0Au);       /* Blocks control flow until all data has been sent */
 573              		.loc 1 709 0
 574 000c 0A20     		mov	r0, #10
 575 000e FFF7FEFF 		bl	UART_1_SpiUartWriteTxData
 576              	.LVL47:
 710:Generated_Source\PSoC4/UART_1_UART.c ****     }
 577              		.loc 1 710 0
 578              		@ sp needed
 579 0012 08BD     		pop	{r3, pc}
 580              		.cfi_endproc
 581              	.LFE11:
 582              		.size	UART_1_UartPutCRLF, .-UART_1_UartPutCRLF
 583              		.section	.text.UART_1_UartEnableCts,"ax",%progbits
 584              		.align	2
 585              		.global	UART_1_UartEnableCts
 586              		.code	16
 587              		.thumb_func
 588              		.type	UART_1_UartEnableCts, %function
 589              	UART_1_UartEnableCts:
 590              	.LFB12:
 711:Generated_Source\PSoC4/UART_1_UART.c **** 
 712:Generated_Source\PSoC4/UART_1_UART.c **** 
 713:Generated_Source\PSoC4/UART_1_UART.c ****     #if !(UART_1_CY_SCBIP_V0 || UART_1_CY_SCBIP_V1)
 714:Generated_Source\PSoC4/UART_1_UART.c ****         /*******************************************************************************
 715:Generated_Source\PSoC4/UART_1_UART.c ****         * Function Name: UART_1SCB_UartEnableCts
 716:Generated_Source\PSoC4/UART_1_UART.c ****         ****************************************************************************//**
 717:Generated_Source\PSoC4/UART_1_UART.c ****         *
 718:Generated_Source\PSoC4/UART_1_UART.c ****         *  Enables usage of CTS input signal by the UART transmitter.
ARM GAS  C:\Users\TB1014~1\AppData\Local\Temp\ccAVBM7f.s 			page 24


 719:Generated_Source\PSoC4/UART_1_UART.c ****         *  Only available for PSoC 4100 BLE / PSoC 4200 BLE / PSoC 4100M / PSoC 4200M /
 720:Generated_Source\PSoC4/UART_1_UART.c ****         *  PSoC 4200L / PSoC 4000S / PSoC 4100S / PSoC Analog Coprocessor devices.
 721:Generated_Source\PSoC4/UART_1_UART.c ****         *
 722:Generated_Source\PSoC4/UART_1_UART.c ****         *******************************************************************************/
 723:Generated_Source\PSoC4/UART_1_UART.c ****         void UART_1_UartEnableCts(void)
 724:Generated_Source\PSoC4/UART_1_UART.c ****         {
 591              		.loc 1 724 0
 592              		.cfi_startproc
 725:Generated_Source\PSoC4/UART_1_UART.c ****             UART_1_UART_FLOW_CTRL_REG |= (uint32)  UART_1_UART_FLOW_CTRL_CTS_ENABLE;
 593              		.loc 1 725 0
 594 0000 034A     		ldr	r2, .L40
 595 0002 1368     		ldr	r3, [r2]
 596 0004 8021     		mov	r1, #128
 597 0006 8904     		lsl	r1, r1, #18
 598 0008 0B43     		orr	r3, r1
 599 000a 1360     		str	r3, [r2]
 726:Generated_Source\PSoC4/UART_1_UART.c ****         }
 600              		.loc 1 726 0
 601              		@ sp needed
 602 000c 7047     		bx	lr
 603              	.L41:
 604 000e C046     		.align	2
 605              	.L40:
 606 0010 50000840 		.word	1074266192
 607              		.cfi_endproc
 608              	.LFE12:
 609              		.size	UART_1_UartEnableCts, .-UART_1_UartEnableCts
 610              		.section	.text.UART_1_UartDisableCts,"ax",%progbits
 611              		.align	2
 612              		.global	UART_1_UartDisableCts
 613              		.code	16
 614              		.thumb_func
 615              		.type	UART_1_UartDisableCts, %function
 616              	UART_1_UartDisableCts:
 617              	.LFB13:
 727:Generated_Source\PSoC4/UART_1_UART.c **** 
 728:Generated_Source\PSoC4/UART_1_UART.c **** 
 729:Generated_Source\PSoC4/UART_1_UART.c ****         /*******************************************************************************
 730:Generated_Source\PSoC4/UART_1_UART.c ****         * Function Name: UART_1_UartDisableCts
 731:Generated_Source\PSoC4/UART_1_UART.c ****         ****************************************************************************//**
 732:Generated_Source\PSoC4/UART_1_UART.c ****         *
 733:Generated_Source\PSoC4/UART_1_UART.c ****         *  Disables usage of CTS input signal by the UART transmitter.
 734:Generated_Source\PSoC4/UART_1_UART.c ****         *  Only available for PSoC 4100 BLE / PSoC 4200 BLE / PSoC 4100M / PSoC 4200M /
 735:Generated_Source\PSoC4/UART_1_UART.c ****         *  PSoC 4200L / PSoC 4000S / PSoC 4100S / PSoC Analog Coprocessor devices.
 736:Generated_Source\PSoC4/UART_1_UART.c ****         *
 737:Generated_Source\PSoC4/UART_1_UART.c ****         *******************************************************************************/
 738:Generated_Source\PSoC4/UART_1_UART.c ****         void UART_1_UartDisableCts(void)
 739:Generated_Source\PSoC4/UART_1_UART.c ****         {
 618              		.loc 1 739 0
 619              		.cfi_startproc
 740:Generated_Source\PSoC4/UART_1_UART.c ****             UART_1_UART_FLOW_CTRL_REG &= (uint32) ~UART_1_UART_FLOW_CTRL_CTS_ENABLE;
 620              		.loc 1 740 0
 621 0000 024A     		ldr	r2, .L43
 622 0002 1168     		ldr	r1, [r2]
 623 0004 024B     		ldr	r3, .L43+4
 624 0006 0B40     		and	r3, r1
 625 0008 1360     		str	r3, [r2]
ARM GAS  C:\Users\TB1014~1\AppData\Local\Temp\ccAVBM7f.s 			page 25


 741:Generated_Source\PSoC4/UART_1_UART.c ****         }
 626              		.loc 1 741 0
 627              		@ sp needed
 628 000a 7047     		bx	lr
 629              	.L44:
 630              		.align	2
 631              	.L43:
 632 000c 50000840 		.word	1074266192
 633 0010 FFFFFFFD 		.word	-33554433
 634              		.cfi_endproc
 635              	.LFE13:
 636              		.size	UART_1_UartDisableCts, .-UART_1_UartDisableCts
 637              		.section	.text.UART_1_UartSetCtsPolarity,"ax",%progbits
 638              		.align	2
 639              		.global	UART_1_UartSetCtsPolarity
 640              		.code	16
 641              		.thumb_func
 642              		.type	UART_1_UartSetCtsPolarity, %function
 643              	UART_1_UartSetCtsPolarity:
 644              	.LFB14:
 742:Generated_Source\PSoC4/UART_1_UART.c **** 
 743:Generated_Source\PSoC4/UART_1_UART.c **** 
 744:Generated_Source\PSoC4/UART_1_UART.c ****         /*******************************************************************************
 745:Generated_Source\PSoC4/UART_1_UART.c ****         * Function Name: UART_1_UartSetCtsPolarity
 746:Generated_Source\PSoC4/UART_1_UART.c ****         ****************************************************************************//**
 747:Generated_Source\PSoC4/UART_1_UART.c ****         *
 748:Generated_Source\PSoC4/UART_1_UART.c ****         *  Sets active polarity of CTS input signal.
 749:Generated_Source\PSoC4/UART_1_UART.c ****         *  Only available for PSoC 4100 BLE / PSoC 4200 BLE / PSoC 4100M / PSoC 4200M /
 750:Generated_Source\PSoC4/UART_1_UART.c ****         *  PSoC 4200L / PSoC 4000S / PSoC 4100S / PSoC Analog Coprocessor devices.
 751:Generated_Source\PSoC4/UART_1_UART.c ****         *
 752:Generated_Source\PSoC4/UART_1_UART.c ****         *  \param polarity: Active polarity of CTS output signal.
 753:Generated_Source\PSoC4/UART_1_UART.c ****         *   - UART_1_UART_CTS_ACTIVE_LOW  - CTS signal is active low.
 754:Generated_Source\PSoC4/UART_1_UART.c ****         *   - UART_1_UART_CTS_ACTIVE_HIGH - CTS signal is active high.
 755:Generated_Source\PSoC4/UART_1_UART.c ****         *
 756:Generated_Source\PSoC4/UART_1_UART.c ****         *******************************************************************************/
 757:Generated_Source\PSoC4/UART_1_UART.c ****         void UART_1_UartSetCtsPolarity(uint32 polarity)
 758:Generated_Source\PSoC4/UART_1_UART.c ****         {
 645              		.loc 1 758 0
 646              		.cfi_startproc
 647              	.LVL48:
 759:Generated_Source\PSoC4/UART_1_UART.c ****             if (0u != polarity)
 648              		.loc 1 759 0
 649 0000 0028     		cmp	r0, #0
 650 0002 06D0     		beq	.L46
 760:Generated_Source\PSoC4/UART_1_UART.c ****             {
 761:Generated_Source\PSoC4/UART_1_UART.c ****                 UART_1_UART_FLOW_CTRL_REG |= (uint32)  UART_1_UART_FLOW_CTRL_CTS_POLARITY;
 651              		.loc 1 761 0
 652 0004 064A     		ldr	r2, .L48
 653 0006 1368     		ldr	r3, [r2]
 654 0008 8021     		mov	r1, #128
 655 000a 4904     		lsl	r1, r1, #17
 656 000c 0B43     		orr	r3, r1
 657 000e 1360     		str	r3, [r2]
 658 0010 04E0     		b	.L45
 659              	.L46:
 762:Generated_Source\PSoC4/UART_1_UART.c ****             }
 763:Generated_Source\PSoC4/UART_1_UART.c ****             else
ARM GAS  C:\Users\TB1014~1\AppData\Local\Temp\ccAVBM7f.s 			page 26


 764:Generated_Source\PSoC4/UART_1_UART.c ****             {
 765:Generated_Source\PSoC4/UART_1_UART.c ****                 UART_1_UART_FLOW_CTRL_REG &= (uint32) ~UART_1_UART_FLOW_CTRL_CTS_POLARITY;
 660              		.loc 1 765 0
 661 0012 034A     		ldr	r2, .L48
 662 0014 1168     		ldr	r1, [r2]
 663 0016 034B     		ldr	r3, .L48+4
 664 0018 0B40     		and	r3, r1
 665 001a 1360     		str	r3, [r2]
 666              	.L45:
 766:Generated_Source\PSoC4/UART_1_UART.c ****             }
 767:Generated_Source\PSoC4/UART_1_UART.c ****         }
 667              		.loc 1 767 0
 668              		@ sp needed
 669 001c 7047     		bx	lr
 670              	.L49:
 671 001e C046     		.align	2
 672              	.L48:
 673 0020 50000840 		.word	1074266192
 674 0024 FFFFFFFE 		.word	-16777217
 675              		.cfi_endproc
 676              	.LFE14:
 677              		.size	UART_1_UartSetCtsPolarity, .-UART_1_UartSetCtsPolarity
 678              		.text
 679              	.Letext0:
 680              		.file 2 "Generated_Source\\PSoC4/cytypes.h"
 681              		.file 3 "Generated_Source\\PSoC4\\UART_1_PVT.h"
 682              		.file 4 "Generated_Source\\PSoC4\\UART_1_SPI_UART_PVT.h"
 683              		.file 5 "Generated_Source\\PSoC4/CyLib.h"
 684              		.file 6 "Generated_Source\\PSoC4\\UART_1_SPI_UART.h"