ARM GAS  C:\Users\MM1005~1\AppData\Local\Temp\ccpu22T1.s 			page 1


   1              		.cpu cortex-m0plus
   2              		.fpu softvfp
   3              		.eabi_attribute 20, 1
   4              		.eabi_attribute 21, 1
   5              		.eabi_attribute 23, 3
   6              		.eabi_attribute 24, 1
   7              		.eabi_attribute 25, 1
   8              		.eabi_attribute 26, 1
   9              		.eabi_attribute 30, 1
  10              		.eabi_attribute 34, 0
  11              		.eabi_attribute 18, 4
  12              		.code	16
  13              		.file	"main.c"
  14              		.text
  15              	.Ltext0:
  16              		.cfi_sections	.debug_frame
  17              		.section	.text.ExecuteCommand,"ax",%progbits
  18              		.align	2
  19              		.global	ExecuteCommand
  20              		.code	16
  21              		.thumb_func
  22              		.type	ExecuteCommand, %function
  23              	ExecuteCommand:
  24              	.LFB36:
  25              		.file 1 "main.c"
   1:main.c        **** /*******************************************************************************
   2:main.c        **** * File Name: main.c
   3:main.c        **** *
   4:main.c        **** * Version: 1.20
   5:main.c        **** *
   6:main.c        **** * Description:
   7:main.c        **** *  This example project demonstrates the basic operation of the I2C slave
   8:main.c        **** *  (SCB mode) component. The I2C slave accepts a packet with a command from
   9:main.c        **** *  the I2C master to control the RGB LED color. The I2C slave updates its
  10:main.c        **** *  buffer with a status packet in response to the accepted command.
  11:main.c        **** *  For more information refer to the example project datasheet.
  12:main.c        **** *
  13:main.c        **** ********************************************************************************
  14:main.c        **** * Copyright 2014-2015, Cypress Semiconductor Corporation. All rights reserved.
  15:main.c        **** * This software is owned by Cypress Semiconductor Corporation and is protected
  16:main.c        **** * by and subject to worldwide patent and copyright laws and treaties.
  17:main.c        **** * Therefore, you may use this software only as provided in the license agreement
  18:main.c        **** * accompanying the software package from which you obtained this software.
  19:main.c        **** * CYPRESS AND ITS SUPPLIERS MAKE NO WARRANTY OF ANY KIND, EXPRESS OR IMPLIED,
  20:main.c        **** * WITH REGARD TO THIS SOFTWARE, INCLUDING, BUT NOT LIMITED TO, NONINFRINGEMENT,
  21:main.c        **** * IMPLIED WARRANTIES OF MERCHANTABILITY AND FITNESS FOR A PARTICULAR PURPOSE.
  22:main.c        **** *******************************************************************************/
  23:main.c        **** 
  24:main.c        **** #include <main.h>
  25:main.c        **** 
  26:main.c        **** /* I2C slave read and write buffers */
  27:main.c        **** uint8 i2cReadBuffer [BUFFER_SIZE] = {PACKET_SOP, STS_CMD_FAIL, PACKET_EOP};
  28:main.c        **** uint8 i2cWriteBuffer[BUFFER_SIZE];
  29:main.c        **** 
  30:main.c        **** 
  31:main.c        **** /*******************************************************************************
  32:main.c        **** * Function Name: main
ARM GAS  C:\Users\MM1005~1\AppData\Local\Temp\ccpu22T1.s 			page 2


  33:main.c        **** ********************************************************************************
  34:main.c        **** * Summary:
  35:main.c        **** *  Main function performs following actions:
  36:main.c        **** *   1. Turns off status RGB LED
  37:main.c        **** *   2. Sets up I2C slave write and read buffers.
  38:main.c        **** *   3. Starts I2C slave (SCB mode) component.
  39:main.c        **** *   4. Enables global interrupts.
  40:main.c        **** *   5. Waits for command from the I2C master to control the RGB LED.
  41:main.c        **** *
  42:main.c        **** * Parameters:
  43:main.c        **** *  None
  44:main.c        **** *
  45:main.c        **** * Return:
  46:main.c        **** *  None
  47:main.c        **** *
  48:main.c        **** *******************************************************************************/
  49:main.c        **** int main()
  50:main.c        **** {
  51:main.c        ****     uint8 status = STS_CMD_FAIL;
  52:main.c        **** 
  53:main.c        ****     cap_int_Write(0);
  54:main.c        **** 
  55:main.c        ****     /* Start I2C slave (SCB mode) */
  56:main.c        ****     I2CS_I2CSlaveInitReadBuf (i2cReadBuffer,  BUFFER_SIZE);
  57:main.c        ****     I2CS_I2CSlaveInitWriteBuf(i2cWriteBuffer, BUFFER_SIZE);
  58:main.c        ****     I2CS_Start();
  59:main.c        **** 
  60:main.c        ****     CyGlobalIntEnable;
  61:main.c        **** 
  62:main.c        ****     int i = 0;
  63:main.c        ****     /***************************************************************************
  64:main.c        ****     * Main polling loop
  65:main.c        ****     ***************************************************************************/
  66:main.c        ****     for (;;)
  67:main.c        ****     {
  68:main.c        ****         /* Write complete: parse command packet */
  69:main.c        ****         if (0u != (I2CS_I2CSlaveStatus() & I2CS_I2C_SSTAT_WR_CMPLT))
  70:main.c        ****         {
  71:main.c        ****             /* Check packet length */
  72:main.c        ****             if (PACKET_SIZE == I2CS_I2CSlaveGetWriteBufSize())
  73:main.c        ****             {
  74:main.c        ****                 /* Check start and end of packet markers */
  75:main.c        ****                 if ((i2cWriteBuffer[PACKET_SOP_POS] == PACKET_SOP) &&
  76:main.c        ****                     (i2cWriteBuffer[PACKET_EOP_POS] == PACKET_EOP))
  77:main.c        ****                 {
  78:main.c        ****                     status = ExecuteCommand(i2cWriteBuffer[PACKET_CMD_POS]);
  79:main.c        ****                 }
  80:main.c        ****             }
  81:main.c        **** 
  82:main.c        ****             /* Clear slave write buffer and status */
  83:main.c        ****             I2CS_I2CSlaveClearWriteBuf();
  84:main.c        ****             (void) I2CS_I2CSlaveClearWriteStatus();
  85:main.c        **** 
  86:main.c        ****             /* Update read buffer */
  87:main.c        ****             i2cReadBuffer[PACKET_STS_POS] = status;
  88:main.c        ****             status = STS_CMD_FAIL;
  89:main.c        ****         }
ARM GAS  C:\Users\MM1005~1\AppData\Local\Temp\ccpu22T1.s 			page 3


  90:main.c        **** 
  91:main.c        ****         i++;
  92:main.c        **** 
  93:main.c        ****         // Fake that we have data to read (every 100th cycle)
  94:main.c        ****         if (i >= 1000000) {
  95:main.c        ****             i = 0;
  96:main.c        ****             memset(i2cReadBuffer, 0xB0, BUFFER_SIZE);
  97:main.c        ****             i2cReadBuffer[1] = 0x0B;
  98:main.c        ****             cap_int_Write(1u);
  99:main.c        ****             // Wait until read is done
 100:main.c        ****             while (0u == (I2CS_I2CSlaveStatus() & I2CS_I2C_SSTAT_RD_CMPLT))
 101:main.c        ****             {
 102:main.c        ****             }
 103:main.c        ****             /* Clear slave read buffer and status */
 104:main.c        ****             I2CS_I2CSlaveClearReadBuf();
 105:main.c        ****             (void) I2CS_I2CSlaveClearReadStatus();
 106:main.c        ****             cap_int_Write(0u);
 107:main.c        ****         }
 108:main.c        ****     }
 109:main.c        **** }
 110:main.c        **** 
 111:main.c        **** 
 112:main.c        **** /*******************************************************************************
 113:main.c        **** * Function Name: ExecuteCommand
 114:main.c        **** ********************************************************************************
 115:main.c        **** * Summary:
 116:main.c        **** *  Executes received command to control the LED color and returns status.
 117:main.c        **** *  If the command is unknown, the LED color is not changed.
 118:main.c        **** *
 119:main.c        **** * Parameters:
 120:main.c        **** *  cmd: command to execute. Available commands:
 121:main.c        **** *   - CMD_SET_RED:   set red color of the LED.
 122:main.c        **** *   - CMD_SET_GREEN: set green color of the LED.
 123:main.c        **** *   - CMD_SET_BLUE:  set blue color of the LED.
 124:main.c        **** *   - CMD_SET_OFF:   turn off the LED.
 125:main.c        **** *
 126:main.c        **** * Return:
 127:main.c        **** *  Returns status of command execution. There are two statuses
 128:main.c        **** *  - STS_CMD_DONE: command is executed successfully.
 129:main.c        **** *  - STS_CMD_FAIL: unknown command
 130:main.c        **** *
 131:main.c        **** *******************************************************************************/
 132:main.c        **** uint8 ExecuteCommand(uint32 cmd)
 133:main.c        **** {
  26              		.loc 1 133 0
  27              		.cfi_startproc
  28              	.LVL0:
 134:main.c        ****     uint8 status;
 135:main.c        **** 
 136:main.c        ****     status = STS_CMD_DONE;
 137:main.c        **** 
 138:main.c        ****     /* Execute received command */
 139:main.c        ****     /*
 140:main.c        ****     switch (cmd)
 141:main.c        ****     {
 142:main.c        ****         case CMD_SET_RED:
 143:main.c        ****             RGB_LED_ON_RED;
ARM GAS  C:\Users\MM1005~1\AppData\Local\Temp\ccpu22T1.s 			page 4


 144:main.c        ****             break;
 145:main.c        **** 
 146:main.c        ****         case CMD_SET_GREEN:
 147:main.c        ****             RGB_LED_ON_GREEN;
 148:main.c        ****             break;
 149:main.c        **** 
 150:main.c        ****         case CMD_SET_BLUE:
 151:main.c        ****             RGB_LED_ON_BLUE;
 152:main.c        ****             break;
 153:main.c        **** 
 154:main.c        ****         case CMD_SET_OFF:
 155:main.c        ****             RGB_LED_OFF;
 156:main.c        ****             break;
 157:main.c        **** 
 158:main.c        ****         default:
 159:main.c        ****             status = STS_CMD_FAIL;
 160:main.c        ****             break;
 161:main.c        ****     }
 162:main.c        **** */
 163:main.c        ****     return (status);
 164:main.c        **** }
  29              		.loc 1 164 0
  30 0000 0020     		mov	r0, #0
  31              	.LVL1:
  32              		@ sp needed
  33 0002 7047     		bx	lr
  34              		.cfi_endproc
  35              	.LFE36:
  36              		.size	ExecuteCommand, .-ExecuteCommand
  37              		.section	.text.main,"ax",%progbits
  38              		.align	2
  39              		.global	main
  40              		.code	16
  41              		.thumb_func
  42              		.type	main, %function
  43              	main:
  44              	.LFB35:
  50:main.c        ****     uint8 status = STS_CMD_FAIL;
  45              		.loc 1 50 0
  46              		.cfi_startproc
  47 0000 38B5     		push	{r3, r4, r5, lr}
  48              		.cfi_def_cfa_offset 16
  49              		.cfi_offset 3, -16
  50              		.cfi_offset 4, -12
  51              		.cfi_offset 5, -8
  52              		.cfi_offset 14, -4
  53              	.LVL2:
  53:main.c        **** 
  54              		.loc 1 53 0
  55 0002 0020     		mov	r0, #0
  56 0004 FFF7FEFF 		bl	cap_int_Write
  57              	.LVL3:
  56:main.c        ****     I2CS_I2CSlaveInitWriteBuf(i2cWriteBuffer, BUFFER_SIZE);
  58              		.loc 1 56 0
  59 0008 2348     		ldr	r0, .L11
  60 000a 8021     		mov	r1, #128
  61 000c FFF7FEFF 		bl	I2CS_I2CSlaveInitReadBuf
ARM GAS  C:\Users\MM1005~1\AppData\Local\Temp\ccpu22T1.s 			page 5


  62              	.LVL4:
  57:main.c        ****     I2CS_Start();
  63              		.loc 1 57 0
  64 0010 2248     		ldr	r0, .L11+4
  65 0012 8021     		mov	r1, #128
  66 0014 FFF7FEFF 		bl	I2CS_I2CSlaveInitWriteBuf
  67              	.LVL5:
  58:main.c        **** 
  68              		.loc 1 58 0
  69 0018 FFF7FEFF 		bl	I2CS_Start
  70              	.LVL6:
  60:main.c        **** 
  71              		.loc 1 60 0
  72              	@ 60 "main.c" 1
  73 001c 62B6     		CPSIE   i
  74              	@ 0 "" 2
  75              	.LVL7:
  76              		.code	16
  77              	.L7:
  50:main.c        ****     uint8 status = STS_CMD_FAIL;
  78              		.loc 1 50 0
  79 001e 0024     		mov	r4, #0
  80              	.LVL8:
  81              	.L5:
  69:main.c        ****         {
  82              		.loc 1 69 0
  83 0020 FFF7FEFF 		bl	I2CS_I2CSlaveStatus
  84              	.LVL9:
  85 0024 C306     		lsl	r3, r0, #27
  86 0026 1CD5     		bpl	.L3
  72:main.c        ****             {
  87              		.loc 1 72 0
  88 0028 FFF7FEFF 		bl	I2CS_I2CSlaveGetWriteBufSize
  89              	.LVL10:
  90 002c 8028     		cmp	r0, #128
  91 002e 0DD1     		bne	.L8
  75:main.c        ****                     (i2cWriteBuffer[PACKET_EOP_POS] == PACKET_EOP))
  92              		.loc 1 75 0
  93 0030 1A4B     		ldr	r3, .L11+4
  94 0032 1B78     		ldrb	r3, [r3]
  95 0034 012B     		cmp	r3, #1
  96 0036 0BD1     		bne	.L9
  76:main.c        ****                 {
  97              		.loc 1 76 0 discriminator 1
  98 0038 184B     		ldr	r3, .L11+4
  99 003a 9B78     		ldrb	r3, [r3, #2]
  75:main.c        ****                     (i2cWriteBuffer[PACKET_EOP_POS] == PACKET_EOP))
 100              		.loc 1 75 0 discriminator 1
 101 003c 172B     		cmp	r3, #23
 102 003e 09D1     		bne	.L10
  78:main.c        ****                 }
 103              		.loc 1 78 0
 104 0040 164B     		ldr	r3, .L11+4
 105 0042 5878     		ldrb	r0, [r3, #1]
 106 0044 FFF7FEFF 		bl	ExecuteCommand
 107              	.LVL11:
 108 0048 051C     		mov	r5, r0
ARM GAS  C:\Users\MM1005~1\AppData\Local\Temp\ccpu22T1.s 			page 6


 109              	.LVL12:
 110 004a 04E0     		b	.L4
 111              	.LVL13:
 112              	.L8:
 113 004c FF25     		mov	r5, #255
 114 004e 02E0     		b	.L4
 115              	.L9:
 116 0050 FF25     		mov	r5, #255
 117 0052 00E0     		b	.L4
 118              	.L10:
 119 0054 FF25     		mov	r5, #255
 120              	.LVL14:
 121              	.L4:
  83:main.c        ****             (void) I2CS_I2CSlaveClearWriteStatus();
 122              		.loc 1 83 0
 123 0056 FFF7FEFF 		bl	I2CS_I2CSlaveClearWriteBuf
 124              	.LVL15:
  84:main.c        **** 
 125              		.loc 1 84 0
 126 005a FFF7FEFF 		bl	I2CS_I2CSlaveClearWriteStatus
 127              	.LVL16:
  87:main.c        ****             status = STS_CMD_FAIL;
 128              		.loc 1 87 0
 129 005e 0E4B     		ldr	r3, .L11
 130 0060 5D70     		strb	r5, [r3, #1]
 131              	.LVL17:
 132              	.L3:
  91:main.c        **** 
 133              		.loc 1 91 0
 134 0062 0134     		add	r4, r4, #1
 135              	.LVL18:
  94:main.c        ****             i = 0;
 136              		.loc 1 94 0
 137 0064 0E4B     		ldr	r3, .L11+8
 138 0066 9C42     		cmp	r4, r3
 139 0068 DADD     		ble	.L5
 140              	.LVL19:
  96:main.c        ****             i2cReadBuffer[1] = 0x0B;
 141              		.loc 1 96 0
 142 006a 0B4C     		ldr	r4, .L11
 143 006c 201C     		mov	r0, r4
 144 006e B021     		mov	r1, #176
 145 0070 8022     		mov	r2, #128
 146 0072 FFF7FEFF 		bl	memset
 147              	.LVL20:
  97:main.c        ****             cap_int_Write(1u);
 148              		.loc 1 97 0
 149 0076 0B23     		mov	r3, #11
 150 0078 6370     		strb	r3, [r4, #1]
  98:main.c        ****             // Wait until read is done
 151              		.loc 1 98 0
 152 007a 0120     		mov	r0, #1
 153 007c FFF7FEFF 		bl	cap_int_Write
 154              	.LVL21:
 155              	.L6:
 100:main.c        ****             {
 156              		.loc 1 100 0 discriminator 1
ARM GAS  C:\Users\MM1005~1\AppData\Local\Temp\ccpu22T1.s 			page 7


 157 0080 FFF7FEFF 		bl	I2CS_I2CSlaveStatus
 158              	.LVL22:
 159 0084 C307     		lsl	r3, r0, #31
 160 0086 FBD5     		bpl	.L6
 104:main.c        ****             (void) I2CS_I2CSlaveClearReadStatus();
 161              		.loc 1 104 0
 162 0088 FFF7FEFF 		bl	I2CS_I2CSlaveClearReadBuf
 163              	.LVL23:
 105:main.c        ****             cap_int_Write(0u);
 164              		.loc 1 105 0
 165 008c FFF7FEFF 		bl	I2CS_I2CSlaveClearReadStatus
 166              	.LVL24:
 106:main.c        ****         }
 167              		.loc 1 106 0
 168 0090 0020     		mov	r0, #0
 169 0092 FFF7FEFF 		bl	cap_int_Write
 170              	.LVL25:
 171 0096 C2E7     		b	.L7
 172              	.L12:
 173              		.align	2
 174              	.L11:
 175 0098 00000000 		.word	.LANCHOR0
 176 009c 00000000 		.word	i2cWriteBuffer
 177 00a0 3F420F00 		.word	999999
 178              		.cfi_endproc
 179              	.LFE35:
 180              		.size	main, .-main
 181              		.comm	i2cWriteBuffer,128,4
 182              		.global	i2cReadBuffer
 183              		.data
 184              		.align	2
 185              		.set	.LANCHOR0,. + 0
 186              		.type	i2cReadBuffer, %object
 187              		.size	i2cReadBuffer, 128
 188              	i2cReadBuffer:
 189 0000 01       		.byte	1
 190 0001 FF       		.byte	-1
 191 0002 17       		.byte	23
 192 0003 00000000 		.space	125
 192      00000000 
 192      00000000 
 192      00000000 
 192      00000000 
 193              		.text
 194              	.Letext0:
 195              		.file 2 "Generated_Source\\PSoC4/cytypes.h"
 196              		.file 3 "c:\\program files (x86)\\cypress\\psoc creator\\4.0\\psoc creator\\import\\gnu\\arm\\4.9.
 197              		.file 4 "Generated_Source\\PSoC4/cap_int.h"
 198              		.file 5 "Generated_Source\\PSoC4/I2CS_I2C.h"
 199              		.file 6 "Generated_Source\\PSoC4/I2CS.h"
 200              		.file 7 "c:\\program files (x86)\\cypress\\psoc creator\\4.0\\psoc creator\\import\\gnu\\arm\\4.9.