ARM GAS  C:\Users\RD\AppData\Local\Temp\ccQZrPXd.s 			page 1


   1              		.cpu cortex-m0plus
   2              		.fpu softvfp
   3              		.eabi_attribute 20, 1
   4              		.eabi_attribute 21, 1
   5              		.eabi_attribute 23, 3
   6              		.eabi_attribute 24, 1
   7              		.eabi_attribute 25, 1
   8              		.eabi_attribute 26, 1
   9              		.eabi_attribute 30, 1
  10              		.eabi_attribute 34, 0
  11              		.eabi_attribute 18, 4
  12              		.code	16
  13              		.file	"CapSense_Filter.c"
  14              		.text
  15              	.Ltext0:
  16              		.cfi_sections	.debug_frame
  17              		.section	.text.CapSense_FtInitializeBaselineChannel,"ax",%progbits
  18              		.align	2
  19              		.global	CapSense_FtInitializeBaselineChannel
  20              		.code	16
  21              		.thumb_func
  22              		.type	CapSense_FtInitializeBaselineChannel, %function
  23              	CapSense_FtInitializeBaselineChannel:
  24              	.LFB10:
  25              		.file 1 "Generated_Source\\PSoC4\\CapSense_Filter.c"
   1:Generated_Source\PSoC4/CapSense_Filter.c **** /***************************************************************************//**
   2:Generated_Source\PSoC4/CapSense_Filter.c **** * \file     CapSense_Filter.c
   3:Generated_Source\PSoC4/CapSense_Filter.c **** * \version  3.10
   4:Generated_Source\PSoC4/CapSense_Filter.c **** *
   5:Generated_Source\PSoC4/CapSense_Filter.c **** * \brief    This file contains the implementation source code to implement all 
   6:Generated_Source\PSoC4/CapSense_Filter.c **** *           firmware filters.
   7:Generated_Source\PSoC4/CapSense_Filter.c **** *
   8:Generated_Source\PSoC4/CapSense_Filter.c **** * \see      CapSense P4 v3.10 Datasheet
   9:Generated_Source\PSoC4/CapSense_Filter.c **** * 
  10:Generated_Source\PSoC4/CapSense_Filter.c **** *//*****************************************************************************
  11:Generated_Source\PSoC4/CapSense_Filter.c **** * Copyright (2016), Cypress Semiconductor Corporation.
  12:Generated_Source\PSoC4/CapSense_Filter.c **** ********************************************************************************
  13:Generated_Source\PSoC4/CapSense_Filter.c **** * This software is owned by Cypress Semiconductor Corporation (Cypress) and is
  14:Generated_Source\PSoC4/CapSense_Filter.c **** * protected by and subject to worldwide patent protection (United States and
  15:Generated_Source\PSoC4/CapSense_Filter.c **** * foreign), United States copyright laws and international treaty provisions.
  16:Generated_Source\PSoC4/CapSense_Filter.c **** * Cypress hereby grants to licensee a personal, non-exclusive, non-transferable
  17:Generated_Source\PSoC4/CapSense_Filter.c **** * license to copy, use, modify, create derivative works of, and compile the
  18:Generated_Source\PSoC4/CapSense_Filter.c **** * Cypress Source Code and derivative works for the sole purpose of creating
  19:Generated_Source\PSoC4/CapSense_Filter.c **** * custom software in support of licensee product to be used only in conjunction
  20:Generated_Source\PSoC4/CapSense_Filter.c **** * with a Cypress integrated circuit as specified in the applicable agreement.
  21:Generated_Source\PSoC4/CapSense_Filter.c **** * Any reproduction, modification, translation, compilation, or representation of
  22:Generated_Source\PSoC4/CapSense_Filter.c **** * this software except as specified above is prohibited without the express
  23:Generated_Source\PSoC4/CapSense_Filter.c **** * written permission of Cypress.
  24:Generated_Source\PSoC4/CapSense_Filter.c **** *
  25:Generated_Source\PSoC4/CapSense_Filter.c **** * Disclaimer: CYPRESS MAKES NO WARRANTY OF ANY KIND, EXPRESS OR IMPLIED, WITH
  26:Generated_Source\PSoC4/CapSense_Filter.c **** * REGARD TO THIS MATERIAL, INCLUDING, BUT NOT LIMITED TO, THE IMPLIED
  27:Generated_Source\PSoC4/CapSense_Filter.c **** * WARRANTIES OF MERCHANTABILITY AND FITNESS FOR A PARTICULAR PURPOSE.
  28:Generated_Source\PSoC4/CapSense_Filter.c **** * Cypress reserves the right to make changes without further notice to the
  29:Generated_Source\PSoC4/CapSense_Filter.c **** * materials described herein. Cypress does not assume any liability arising out
  30:Generated_Source\PSoC4/CapSense_Filter.c **** * of the application or use of any product or circuit described herein. Cypress
  31:Generated_Source\PSoC4/CapSense_Filter.c **** * does not authorize its products for use as critical components in life-support
  32:Generated_Source\PSoC4/CapSense_Filter.c **** * systems where a malfunction or failure may reasonably be expected to result in
ARM GAS  C:\Users\RD\AppData\Local\Temp\ccQZrPXd.s 			page 2


  33:Generated_Source\PSoC4/CapSense_Filter.c **** * significant injury to the user. The inclusion of Cypress' product in a life-
  34:Generated_Source\PSoC4/CapSense_Filter.c **** * support systems application implies that the manufacturer assumes all risk of
  35:Generated_Source\PSoC4/CapSense_Filter.c **** * such use and in doing so indemnifies Cypress against all charges. Use may be
  36:Generated_Source\PSoC4/CapSense_Filter.c **** * limited by and subject to the applicable Cypress software license agreement.
  37:Generated_Source\PSoC4/CapSense_Filter.c **** *******************************************************************************/
  38:Generated_Source\PSoC4/CapSense_Filter.c **** 
  39:Generated_Source\PSoC4/CapSense_Filter.c **** #include "CapSense_Filter.h"
  40:Generated_Source\PSoC4/CapSense_Filter.c **** #include "CapSense_Configuration.h"
  41:Generated_Source\PSoC4/CapSense_Filter.c **** 
  42:Generated_Source\PSoC4/CapSense_Filter.c **** #if (0 != (CapSense_CSD_AUTOTUNE & CapSense_CSD_SS_TH_EN))
  43:Generated_Source\PSoC4/CapSense_Filter.c ****     #include "CapSense_SmartSense_LL.h"
  44:Generated_Source\PSoC4/CapSense_Filter.c **** #endif /* (0 != (CapSense_CSD_AUTOTUNE & CapSense_CSD_SS_TH_EN)) */
  45:Generated_Source\PSoC4/CapSense_Filter.c **** 
  46:Generated_Source\PSoC4/CapSense_Filter.c **** #if (CapSense_ENABLE == CapSense_SELF_TEST_EN)
  47:Generated_Source\PSoC4/CapSense_Filter.c ****     #include "CapSense_SelfTest.h"
  48:Generated_Source\PSoC4/CapSense_Filter.c **** #endif
  49:Generated_Source\PSoC4/CapSense_Filter.c **** 
  50:Generated_Source\PSoC4/CapSense_Filter.c **** /*******************************************************************************
  51:Generated_Source\PSoC4/CapSense_Filter.c **** * Function Name: CapSense_FtInitialize
  52:Generated_Source\PSoC4/CapSense_Filter.c **** ****************************************************************************//**
  53:Generated_Source\PSoC4/CapSense_Filter.c **** *
  54:Generated_Source\PSoC4/CapSense_Filter.c **** * \brief
  55:Generated_Source\PSoC4/CapSense_Filter.c **** *    Initializes all the firmware filter history, except the baseline filter.
  56:Generated_Source\PSoC4/CapSense_Filter.c **** *
  57:Generated_Source\PSoC4/CapSense_Filter.c **** * \details
  58:Generated_Source\PSoC4/CapSense_Filter.c **** *    Initializes all the firmware filter history, except the baseline filter.
  59:Generated_Source\PSoC4/CapSense_Filter.c **** *
  60:Generated_Source\PSoC4/CapSense_Filter.c **** *******************************************************************************/
  61:Generated_Source\PSoC4/CapSense_Filter.c **** void CapSense_FtInitialize(void)
  62:Generated_Source\PSoC4/CapSense_Filter.c **** {
  63:Generated_Source\PSoC4/CapSense_Filter.c ****     uint32 widgetId;
  64:Generated_Source\PSoC4/CapSense_Filter.c ****     uint32 sensorId;
  65:Generated_Source\PSoC4/CapSense_Filter.c ****     uint32 sensorsNumber;
  66:Generated_Source\PSoC4/CapSense_Filter.c **** 
  67:Generated_Source\PSoC4/CapSense_Filter.c ****     CapSense_FLASH_WD_STRUCT const *ptrWidget;
  68:Generated_Source\PSoC4/CapSense_Filter.c ****     CapSense_RAM_SNS_STRUCT *ptrSensor = NULL;
  69:Generated_Source\PSoC4/CapSense_Filter.c ****     CapSense_PTR_FILTER_VARIANT ptrFilterHistObj;
  70:Generated_Source\PSoC4/CapSense_Filter.c ****     
  71:Generated_Source\PSoC4/CapSense_Filter.c ****     #if CapSense_CSD_AUTOTUNE & CapSense_CSD_SS_TH_EN
  72:Generated_Source\PSoC4/CapSense_Filter.c ****         CapSense_RAM_WD_BASE_STRUCT *ptrWidgetRam;
  73:Generated_Source\PSoC4/CapSense_Filter.c ****         SMARTSENSE_CSD_NOISE_ENVELOPE_STRUCT *ptrNoiseEnvelope = NULL;
  74:Generated_Source\PSoC4/CapSense_Filter.c ****     #endif /* #if CapSense_CSD_AUTOTUNE & CapSense_CSD_SS_TH_EN */
  75:Generated_Source\PSoC4/CapSense_Filter.c ****     
  76:Generated_Source\PSoC4/CapSense_Filter.c ****     for (widgetId = CapSense_TOTAL_WIDGETS; widgetId-- > 0u;)
  77:Generated_Source\PSoC4/CapSense_Filter.c ****     {
  78:Generated_Source\PSoC4/CapSense_Filter.c ****         ptrWidget = &CapSense_dsFlash.wdgtArray[widgetId];
  79:Generated_Source\PSoC4/CapSense_Filter.c ****         
  80:Generated_Source\PSoC4/CapSense_Filter.c ****         #if CapSense_CSD_AUTOTUNE & CapSense_CSD_SS_TH_EN
  81:Generated_Source\PSoC4/CapSense_Filter.c ****             ptrWidgetRam = ptrWidget->ptr2WdgtRam;
  82:Generated_Source\PSoC4/CapSense_Filter.c ****         #endif /* #if CapSense_CSD_AUTOTUNE & CapSense_CSD_SS_TH_EN */
  83:Generated_Source\PSoC4/CapSense_Filter.c **** 
  84:Generated_Source\PSoC4/CapSense_Filter.c ****         /* Find total amount of sensors in specified widget */   
  85:Generated_Source\PSoC4/CapSense_Filter.c ****         sensorsNumber = CapSense_GET_SNS_CNT_BY_PTR(ptrWidget);    
  86:Generated_Source\PSoC4/CapSense_Filter.c ****     
  87:Generated_Source\PSoC4/CapSense_Filter.c ****         for (sensorId = sensorsNumber; sensorId-- > 0u;) 
  88:Generated_Source\PSoC4/CapSense_Filter.c ****         {
  89:Generated_Source\PSoC4/CapSense_Filter.c ****             /* Find pointer to specified sensor object */
ARM GAS  C:\Users\RD\AppData\Local\Temp\ccQZrPXd.s 			page 3


  90:Generated_Source\PSoC4/CapSense_Filter.c ****             ptrSensor = ptrWidget->ptr2SnsRam;
  91:Generated_Source\PSoC4/CapSense_Filter.c ****             ptrSensor = &ptrSensor[sensorId];
  92:Generated_Source\PSoC4/CapSense_Filter.c ****                         
  93:Generated_Source\PSoC4/CapSense_Filter.c ****             /* Find pointer to to specified filter sensor object */
  94:Generated_Source\PSoC4/CapSense_Filter.c ****             ptrFilterHistObj.ptr = ptrWidget->ptr2FltrHistory;
  95:Generated_Source\PSoC4/CapSense_Filter.c **** 
  96:Generated_Source\PSoC4/CapSense_Filter.c ****             #if CapSense_CSD_AUTOTUNE & CapSense_CSD_SS_TH_EN
  97:Generated_Source\PSoC4/CapSense_Filter.c ****                 /* Find pointer to specified noise envelope sensor object */
  98:Generated_Source\PSoC4/CapSense_Filter.c ****                 ptrNoiseEnvelope = ptrWidget->ptr2NoiseEnvlp;
  99:Generated_Source\PSoC4/CapSense_Filter.c ****                 ptrNoiseEnvelope = &ptrNoiseEnvelope[sensorId];    
 100:Generated_Source\PSoC4/CapSense_Filter.c ****             #endif /* #if CapSense_CSD_AUTOTUNE & CapSense_CSD_SS_TH_EN */
 101:Generated_Source\PSoC4/CapSense_Filter.c ****             
 102:Generated_Source\PSoC4/CapSense_Filter.c ****             if ((CapSense_WD_TYPE_ENUM)ptrWidget->wdgtType != CapSense_WD_PROXIMITY_E)
 103:Generated_Source\PSoC4/CapSense_Filter.c ****             {
 104:Generated_Source\PSoC4/CapSense_Filter.c ****                 #if (CapSense_REGULAR_SENSOR_EN)             
 105:Generated_Source\PSoC4/CapSense_Filter.c ****                     ptrFilterHistObj.ptrRegular = &ptrFilterHistObj.ptrRegular[sensorId];
 106:Generated_Source\PSoC4/CapSense_Filter.c ****                 #endif /* (CapSense_REGULAR_SENSOR_EN) */
 107:Generated_Source\PSoC4/CapSense_Filter.c ****             }
 108:Generated_Source\PSoC4/CapSense_Filter.c ****             else
 109:Generated_Source\PSoC4/CapSense_Filter.c ****             {
 110:Generated_Source\PSoC4/CapSense_Filter.c ****                 #if (CapSense_PROXIMITY_SENSOR_EN)             
 111:Generated_Source\PSoC4/CapSense_Filter.c ****                     ptrFilterHistObj.ptrProx = &ptrFilterHistObj.ptrProx[sensorId];
 112:Generated_Source\PSoC4/CapSense_Filter.c ****                 #endif /* (CapSense_PROXIMITY_SENSOR_EN) */
 113:Generated_Source\PSoC4/CapSense_Filter.c ****             }
 114:Generated_Source\PSoC4/CapSense_Filter.c ****             
 115:Generated_Source\PSoC4/CapSense_Filter.c ****             #if (CapSense_REGULAR_RC_IIR_FILTER_EN || CapSense_PROX_RC_IIR_FILTER_EN)
 116:Generated_Source\PSoC4/CapSense_Filter.c ****                 CapSense_InitializeIIRInternal(ptrFilterHistObj, ptrSensor, (uint32)ptrWidget->wdgt
 117:Generated_Source\PSoC4/CapSense_Filter.c ****             #endif /* (CapSense_REGULAR_RC_IIR_FILTER_EN || CapSense_PROX_RC_IIR_FILTER_EN) */     
 118:Generated_Source\PSoC4/CapSense_Filter.c **** 
 119:Generated_Source\PSoC4/CapSense_Filter.c ****             #if (CapSense_REGULAR_RC_MEDIAN_FILTER_EN || CapSense_PROX_RC_MEDIAN_FILTER_EN)
 120:Generated_Source\PSoC4/CapSense_Filter.c ****                 CapSense_InitializeMedianInternal(ptrFilterHistObj, ptrSensor, (uint32)ptrWidget->w
 121:Generated_Source\PSoC4/CapSense_Filter.c ****             #endif /* (CapSense_REGULAR_RC_MEDIAN_FILTER_EN || CapSense_PROX_RC_MEDIAN_FILTER_EN) *
 122:Generated_Source\PSoC4/CapSense_Filter.c **** 
 123:Generated_Source\PSoC4/CapSense_Filter.c ****             #if (CapSense_REGULAR_RC_AVERAGE_FILTER_EN || CapSense_PROX_RC_AVERAGE_FILTER_EN)
 124:Generated_Source\PSoC4/CapSense_Filter.c ****                 CapSense_InitializeAverageInternal(ptrFilterHistObj, ptrSensor, (uint32)ptrWidget->
 125:Generated_Source\PSoC4/CapSense_Filter.c ****             #endif /* (CapSense_REGULAR_RC_AVERAGE_FILTER_EN || CapSense_PROX_RC_AVERAGE_FILTER_EN)
 126:Generated_Source\PSoC4/CapSense_Filter.c ****             
 127:Generated_Source\PSoC4/CapSense_Filter.c ****             #if (CapSense_CSD_AUTOTUNE & CapSense_CSD_SS_TH_EN)
 128:Generated_Source\PSoC4/CapSense_Filter.c ****                 if (CapSense_SENSE_METHOD_CSD_E ==
 129:Generated_Source\PSoC4/CapSense_Filter.c ****                     CapSense_GET_SENSE_METHOD(&CapSense_dsFlash.wdgtArray[widgetId]))
 130:Generated_Source\PSoC4/CapSense_Filter.c ****                 {
 131:Generated_Source\PSoC4/CapSense_Filter.c ****                     SmartSense_InitializeNoiseEnvelope(ptrSensor->raw[0u], ptrWidgetRam->sigPFC, pt
 132:Generated_Source\PSoC4/CapSense_Filter.c ****                 }
 133:Generated_Source\PSoC4/CapSense_Filter.c ****             #endif /* #if CapSense_CSD_AUTOTUNE & CapSense_CSD_SS_TH_EN */
 134:Generated_Source\PSoC4/CapSense_Filter.c ****         }
 135:Generated_Source\PSoC4/CapSense_Filter.c ****     }   
 136:Generated_Source\PSoC4/CapSense_Filter.c **** }
 137:Generated_Source\PSoC4/CapSense_Filter.c **** 
 138:Generated_Source\PSoC4/CapSense_Filter.c **** 
 139:Generated_Source\PSoC4/CapSense_Filter.c **** /*******************************************************************************
 140:Generated_Source\PSoC4/CapSense_Filter.c **** * Function Name: CapSense_UpdateAllBaselines
 141:Generated_Source\PSoC4/CapSense_Filter.c **** ****************************************************************************//**
 142:Generated_Source\PSoC4/CapSense_Filter.c **** *
 143:Generated_Source\PSoC4/CapSense_Filter.c **** * \brief    
 144:Generated_Source\PSoC4/CapSense_Filter.c **** *  Updates the baseline for all sensors in all widgets.
 145:Generated_Source\PSoC4/CapSense_Filter.c **** *
 146:Generated_Source\PSoC4/CapSense_Filter.c **** * \details
ARM GAS  C:\Users\RD\AppData\Local\Temp\ccQZrPXd.s 			page 4


 147:Generated_Source\PSoC4/CapSense_Filter.c **** *  Updates the baseline for all sensors in all widgets. Baseline updating is a 
 148:Generated_Source\PSoC4/CapSense_Filter.c **** *  part of data processing performed by the process functions. So, no need to 
 149:Generated_Source\PSoC4/CapSense_Filter.c **** *  call this function except a specific process flow is implemented.
 150:Generated_Source\PSoC4/CapSense_Filter.c **** *  
 151:Generated_Source\PSoC4/CapSense_Filter.c **** *  This function ignores the value of the wdgtEnable register. Multiple calling 
 152:Generated_Source\PSoC4/CapSense_Filter.c **** *  of this function (or any other function with a baseline updating task) 
 153:Generated_Source\PSoC4/CapSense_Filter.c **** *  without scanning leads to unexpected behavior.
 154:Generated_Source\PSoC4/CapSense_Filter.c **** *
 155:Generated_Source\PSoC4/CapSense_Filter.c **** *  If Self-test library is enabled this function executes baseline duplication
 156:Generated_Source\PSoC4/CapSense_Filter.c **** *  test. Refer to CapSense_CheckBaselineDuplication() for details.
 157:Generated_Source\PSoC4/CapSense_Filter.c **** *
 158:Generated_Source\PSoC4/CapSense_Filter.c **** * \return   
 159:Generated_Source\PSoC4/CapSense_Filter.c **** *  Returns the status of the update baseline operation of all widgets:
 160:Generated_Source\PSoC4/CapSense_Filter.c **** *  - CYRET_SUCCESS if operation was successfully completed
 161:Generated_Source\PSoC4/CapSense_Filter.c **** *  - CYRET_BAD_DATA if baseline processing failed
 162:Generated_Source\PSoC4/CapSense_Filter.c **** *
 163:Generated_Source\PSoC4/CapSense_Filter.c **** *******************************************************************************/
 164:Generated_Source\PSoC4/CapSense_Filter.c **** cystatus CapSense_UpdateAllBaselines(void)
 165:Generated_Source\PSoC4/CapSense_Filter.c **** {
 166:Generated_Source\PSoC4/CapSense_Filter.c ****     uint32 widgetId; 
 167:Generated_Source\PSoC4/CapSense_Filter.c ****     cystatus bslnStatus = CYRET_SUCCESS;
 168:Generated_Source\PSoC4/CapSense_Filter.c ****     
 169:Generated_Source\PSoC4/CapSense_Filter.c ****     for(widgetId = CapSense_TOTAL_WIDGETS; widgetId-- > 0u;)
 170:Generated_Source\PSoC4/CapSense_Filter.c ****     {            
 171:Generated_Source\PSoC4/CapSense_Filter.c ****         bslnStatus |= CapSense_UpdateWidgetBaseline(widgetId);       
 172:Generated_Source\PSoC4/CapSense_Filter.c ****     }      
 173:Generated_Source\PSoC4/CapSense_Filter.c ****     
 174:Generated_Source\PSoC4/CapSense_Filter.c ****     return(bslnStatus);
 175:Generated_Source\PSoC4/CapSense_Filter.c **** }
 176:Generated_Source\PSoC4/CapSense_Filter.c ****   
 177:Generated_Source\PSoC4/CapSense_Filter.c **** 
 178:Generated_Source\PSoC4/CapSense_Filter.c **** /*******************************************************************************
 179:Generated_Source\PSoC4/CapSense_Filter.c **** * Function Name: CapSense_UpdateWidgetBaseline
 180:Generated_Source\PSoC4/CapSense_Filter.c **** ****************************************************************************//**
 181:Generated_Source\PSoC4/CapSense_Filter.c **** *
 182:Generated_Source\PSoC4/CapSense_Filter.c **** * \brief    
 183:Generated_Source\PSoC4/CapSense_Filter.c **** *  Updates the baseline for all sensors in a widget specified by input parameter.
 184:Generated_Source\PSoC4/CapSense_Filter.c **** *
 185:Generated_Source\PSoC4/CapSense_Filter.c **** * \details  
 186:Generated_Source\PSoC4/CapSense_Filter.c **** *  This function performs exactly the same tasks as 
 187:Generated_Source\PSoC4/CapSense_Filter.c **** *  CapSense_UpdateAllBaselines(), but only for a specified widget.
 188:Generated_Source\PSoC4/CapSense_Filter.c **** *  
 189:Generated_Source\PSoC4/CapSense_Filter.c **** *  This function ignores the value of the wdgtEnable register. Multiple calling
 190:Generated_Source\PSoC4/CapSense_Filter.c **** *  of this function (or any other function with a baseline updating task) 
 191:Generated_Source\PSoC4/CapSense_Filter.c **** *  without scanning leads to unexpected behavior.
 192:Generated_Source\PSoC4/CapSense_Filter.c **** *
 193:Generated_Source\PSoC4/CapSense_Filter.c **** *  If Self-test library is enabled this function executes baseline duplication
 194:Generated_Source\PSoC4/CapSense_Filter.c **** *  test. Refer to CapSense_CheckBaselineDuplication() for details.
 195:Generated_Source\PSoC4/CapSense_Filter.c **** *
 196:Generated_Source\PSoC4/CapSense_Filter.c **** * \param widgetId 
 197:Generated_Source\PSoC4/CapSense_Filter.c **** *  Specify the ID number of the widget to update the baseline of all sensors
 198:Generated_Source\PSoC4/CapSense_Filter.c **** *  in the widget.
 199:Generated_Source\PSoC4/CapSense_Filter.c **** *  A macro for the widget ID can be found in the 
 200:Generated_Source\PSoC4/CapSense_Filter.c **** *  CapSense Configuration header file defined as 
 201:Generated_Source\PSoC4/CapSense_Filter.c **** *  CapSense_<WidgetName>_WDGT_ID.
 202:Generated_Source\PSoC4/CapSense_Filter.c **** *
 203:Generated_Source\PSoC4/CapSense_Filter.c **** * \return   
ARM GAS  C:\Users\RD\AppData\Local\Temp\ccQZrPXd.s 			page 5


 204:Generated_Source\PSoC4/CapSense_Filter.c **** *  Returns the status of the specified widget update baseline operation:
 205:Generated_Source\PSoC4/CapSense_Filter.c **** *  - CYRET_SUCCESS if operation was successfully completed
 206:Generated_Source\PSoC4/CapSense_Filter.c **** *  - CYRET_BAD_DATA if baseline processing failed
 207:Generated_Source\PSoC4/CapSense_Filter.c **** *
 208:Generated_Source\PSoC4/CapSense_Filter.c **** *******************************************************************************/
 209:Generated_Source\PSoC4/CapSense_Filter.c **** cystatus CapSense_UpdateWidgetBaseline(uint32 widgetId)
 210:Generated_Source\PSoC4/CapSense_Filter.c **** {
 211:Generated_Source\PSoC4/CapSense_Filter.c ****     uint32 sensorId;       
 212:Generated_Source\PSoC4/CapSense_Filter.c ****     uint32 sensorsNumber;  
 213:Generated_Source\PSoC4/CapSense_Filter.c **** 
 214:Generated_Source\PSoC4/CapSense_Filter.c ****     CapSense_FLASH_WD_STRUCT const *ptrWidget = &CapSense_dsFlash.wdgtArray[widgetId];    
 215:Generated_Source\PSoC4/CapSense_Filter.c ****     cystatus bslnStatus = CYRET_SUCCESS;    
 216:Generated_Source\PSoC4/CapSense_Filter.c ****     
 217:Generated_Source\PSoC4/CapSense_Filter.c ****     /* Find total amount of sensors in specified widget */   
 218:Generated_Source\PSoC4/CapSense_Filter.c ****     sensorsNumber = CapSense_GET_SNS_CNT_BY_PTR(ptrWidget);    
 219:Generated_Source\PSoC4/CapSense_Filter.c ****     
 220:Generated_Source\PSoC4/CapSense_Filter.c ****     for(sensorId = sensorsNumber; sensorId-- > 0u;)
 221:Generated_Source\PSoC4/CapSense_Filter.c ****     {
 222:Generated_Source\PSoC4/CapSense_Filter.c ****         bslnStatus |= CapSense_UpdateSensorBaseline(widgetId, sensorId);    
 223:Generated_Source\PSoC4/CapSense_Filter.c ****     }
 224:Generated_Source\PSoC4/CapSense_Filter.c **** 
 225:Generated_Source\PSoC4/CapSense_Filter.c ****     return(bslnStatus);
 226:Generated_Source\PSoC4/CapSense_Filter.c **** }
 227:Generated_Source\PSoC4/CapSense_Filter.c **** 
 228:Generated_Source\PSoC4/CapSense_Filter.c **** 
 229:Generated_Source\PSoC4/CapSense_Filter.c **** /*******************************************************************************
 230:Generated_Source\PSoC4/CapSense_Filter.c **** * Function Name: CapSense_UpdateSensorBaseline
 231:Generated_Source\PSoC4/CapSense_Filter.c **** ****************************************************************************//**
 232:Generated_Source\PSoC4/CapSense_Filter.c **** *
 233:Generated_Source\PSoC4/CapSense_Filter.c **** * \brief    
 234:Generated_Source\PSoC4/CapSense_Filter.c **** *  Updates the baseline for a sensor in a widget specified by input parameters.
 235:Generated_Source\PSoC4/CapSense_Filter.c **** *
 236:Generated_Source\PSoC4/CapSense_Filter.c **** * \details  
 237:Generated_Source\PSoC4/CapSense_Filter.c **** *  This function performs exactly the same tasks as
 238:Generated_Source\PSoC4/CapSense_Filter.c **** *  CapSense_UpdateAllBaselines() and 
 239:Generated_Source\PSoC4/CapSense_Filter.c **** *  CapSense_UpdateWidgetBaseline() but only for a specified sensor.
 240:Generated_Source\PSoC4/CapSense_Filter.c **** *  
 241:Generated_Source\PSoC4/CapSense_Filter.c **** *  This function ignores the value of the wdgtEnable register. Multiple calling 
 242:Generated_Source\PSoC4/CapSense_Filter.c **** *  of this function (or any other function with a baseline updating task) 
 243:Generated_Source\PSoC4/CapSense_Filter.c **** *  without scanning leads to unexpected behavior.
 244:Generated_Source\PSoC4/CapSense_Filter.c **** *
 245:Generated_Source\PSoC4/CapSense_Filter.c **** *  If Self-test library is enabled this function executes baseline duplication
 246:Generated_Source\PSoC4/CapSense_Filter.c **** *  test. Refer to CapSense_CheckBaselineDuplication() for details.
 247:Generated_Source\PSoC4/CapSense_Filter.c **** *
 248:Generated_Source\PSoC4/CapSense_Filter.c **** * \param   widgetId 
 249:Generated_Source\PSoC4/CapSense_Filter.c **** *  Specify the ID number of the widget to update the baseline of the sensor 
 250:Generated_Source\PSoC4/CapSense_Filter.c **** *  specified by the sensorId argument.
 251:Generated_Source\PSoC4/CapSense_Filter.c **** *  A macro for the widget ID can be found in the CapSense Configuration header 
 252:Generated_Source\PSoC4/CapSense_Filter.c **** *  file defined as CapSense_<WidgetName>_WDGT_ID. 
 253:Generated_Source\PSoC4/CapSense_Filter.c **** *
 254:Generated_Source\PSoC4/CapSense_Filter.c **** * \param   sensorId 
 255:Generated_Source\PSoC4/CapSense_Filter.c **** *  Specify the ID number of the sensor within the widget to update its baseline.
 256:Generated_Source\PSoC4/CapSense_Filter.c **** *  A macro for the sensor ID within a specified widget can be found in the 
 257:Generated_Source\PSoC4/CapSense_Filter.c **** *  CapSense Configuration header file defined as 
 258:Generated_Source\PSoC4/CapSense_Filter.c **** *  CapSense_<WidgetName>_SNS<SensorNumber>_ID
 259:Generated_Source\PSoC4/CapSense_Filter.c **** *
 260:Generated_Source\PSoC4/CapSense_Filter.c **** * \return   
ARM GAS  C:\Users\RD\AppData\Local\Temp\ccQZrPXd.s 			page 6


 261:Generated_Source\PSoC4/CapSense_Filter.c **** *  Returns the status of the specified sensor update baseline operation:
 262:Generated_Source\PSoC4/CapSense_Filter.c **** *  - CYRET_SUCCESS if operation was successfully completed
 263:Generated_Source\PSoC4/CapSense_Filter.c **** *  - CYRET_BAD_DATA if baseline processing failed
 264:Generated_Source\PSoC4/CapSense_Filter.c **** *
 265:Generated_Source\PSoC4/CapSense_Filter.c **** *******************************************************************************/
 266:Generated_Source\PSoC4/CapSense_Filter.c **** cystatus CapSense_UpdateSensorBaseline(uint32 widgetId, uint32 sensorId)
 267:Generated_Source\PSoC4/CapSense_Filter.c **** {    
 268:Generated_Source\PSoC4/CapSense_Filter.c ****     uint32 result = CYRET_SUCCESS;
 269:Generated_Source\PSoC4/CapSense_Filter.c ****     
 270:Generated_Source\PSoC4/CapSense_Filter.c ****     CapSense_RAM_SNS_STRUCT *ptrSensor = NULL;    
 271:Generated_Source\PSoC4/CapSense_Filter.c ****     CapSense_FLASH_WD_STRUCT const *ptrWidget = &CapSense_dsFlash.wdgtArray[widgetId];    
 272:Generated_Source\PSoC4/CapSense_Filter.c ****     CapSense_RAM_WD_BASE_STRUCT *ptrWidgetRam = ptrWidget->ptr2WdgtRam;   
 273:Generated_Source\PSoC4/CapSense_Filter.c **** 
 274:Generated_Source\PSoC4/CapSense_Filter.c ****     /* Find pointer to specified sensor object */     
 275:Generated_Source\PSoC4/CapSense_Filter.c ****     ptrSensor = ptrWidget->ptr2SnsRam;
 276:Generated_Source\PSoC4/CapSense_Filter.c ****     ptrSensor = &ptrSensor[sensorId];
 277:Generated_Source\PSoC4/CapSense_Filter.c ****     result = CapSense_FtUpdateBaseline(ptrWidgetRam, ptrSensor, (uint32)ptrWidget->wdgtType);
 278:Generated_Source\PSoC4/CapSense_Filter.c ****     
 279:Generated_Source\PSoC4/CapSense_Filter.c ****     #if (CapSense_ENABLE == CapSense_TST_BSLN_DUPLICATION_EN)
 280:Generated_Source\PSoC4/CapSense_Filter.c ****         if (CYRET_SUCCESS != result)
 281:Generated_Source\PSoC4/CapSense_Filter.c ****         {
 282:Generated_Source\PSoC4/CapSense_Filter.c ****             result = CYRET_BAD_DATA;
 283:Generated_Source\PSoC4/CapSense_Filter.c ****             CapSense_UpdateTestResultBaselineDuplication(widgetId, sensorId);           
 284:Generated_Source\PSoC4/CapSense_Filter.c ****         }
 285:Generated_Source\PSoC4/CapSense_Filter.c ****     #endif /* (CapSense_ENABLE == CapSense_TST_BSLN_DUPLICATION_EN) */
 286:Generated_Source\PSoC4/CapSense_Filter.c **** 
 287:Generated_Source\PSoC4/CapSense_Filter.c ****     return result;
 288:Generated_Source\PSoC4/CapSense_Filter.c **** }
 289:Generated_Source\PSoC4/CapSense_Filter.c **** 
 290:Generated_Source\PSoC4/CapSense_Filter.c **** /*******************************************************************************
 291:Generated_Source\PSoC4/CapSense_Filter.c **** * Function Name: CapSense_FtUpdateBaseline
 292:Generated_Source\PSoC4/CapSense_Filter.c **** ****************************************************************************//**
 293:Generated_Source\PSoC4/CapSense_Filter.c **** *
 294:Generated_Source\PSoC4/CapSense_Filter.c **** * \brief
 295:Generated_Source\PSoC4/CapSense_Filter.c **** *  Updates the baseline for a sensor specified by an input parameter.
 296:Generated_Source\PSoC4/CapSense_Filter.c **** *
 297:Generated_Source\PSoC4/CapSense_Filter.c **** * \details
 298:Generated_Source\PSoC4/CapSense_Filter.c **** *  Check a matching of present baseline and its inverse duplication. If they 
 299:Generated_Source\PSoC4/CapSense_Filter.c **** *  match then updates the baseline for a sensor specified by an input parameter.  
 300:Generated_Source\PSoC4/CapSense_Filter.c **** *  If don't match the function return CapSense_TST_BSLN_DUPLICATION
 301:Generated_Source\PSoC4/CapSense_Filter.c **** *  result and don't update baseline.
 302:Generated_Source\PSoC4/CapSense_Filter.c **** *
 303:Generated_Source\PSoC4/CapSense_Filter.c **** * \param    ptrWidgetRam
 304:Generated_Source\PSoC4/CapSense_Filter.c **** *  The pointer to the widget RAM structure where all the widget parameters
 305:Generated_Source\PSoC4/CapSense_Filter.c **** *  are stored.
 306:Generated_Source\PSoC4/CapSense_Filter.c **** *
 307:Generated_Source\PSoC4/CapSense_Filter.c **** * \param    ptrSensor
 308:Generated_Source\PSoC4/CapSense_Filter.c **** *  The pointer to the sensor RAM structure where all the sensor parameters
 309:Generated_Source\PSoC4/CapSense_Filter.c **** *  are stored.
 310:Generated_Source\PSoC4/CapSense_Filter.c **** *
 311:Generated_Source\PSoC4/CapSense_Filter.c **** * \param    wdType
 312:Generated_Source\PSoC4/CapSense_Filter.c **** *  Specifies the type of a widget.
 313:Generated_Source\PSoC4/CapSense_Filter.c **** *
 314:Generated_Source\PSoC4/CapSense_Filter.c **** * \return   
 315:Generated_Source\PSoC4/CapSense_Filter.c **** *  Returns a status indicating whether the baseline has been updated:
 316:Generated_Source\PSoC4/CapSense_Filter.c **** *  - CYRET_SUCCESS if baseline updating was successful;
 317:Generated_Source\PSoC4/CapSense_Filter.c **** *  - CapSense_PROCESS_BASELINE_FAILED if present sensor's any channel
ARM GAS  C:\Users\RD\AppData\Local\Temp\ccQZrPXd.s 			page 7


 318:Generated_Source\PSoC4/CapSense_Filter.c **** *    baseline and its inversion doesn't matched
 319:Generated_Source\PSoC4/CapSense_Filter.c **** *
 320:Generated_Source\PSoC4/CapSense_Filter.c **** *******************************************************************************/
 321:Generated_Source\PSoC4/CapSense_Filter.c **** uint32 CapSense_FtUpdateBaseline(
 322:Generated_Source\PSoC4/CapSense_Filter.c ****                                 CapSense_RAM_WD_BASE_STRUCT *ptrWidgetRam,
 323:Generated_Source\PSoC4/CapSense_Filter.c ****                                 CapSense_RAM_SNS_STRUCT *ptrSensor, 
 324:Generated_Source\PSoC4/CapSense_Filter.c ****                                 uint32 wdType)
 325:Generated_Source\PSoC4/CapSense_Filter.c **** {         
 326:Generated_Source\PSoC4/CapSense_Filter.c ****     uint32 sign;
 327:Generated_Source\PSoC4/CapSense_Filter.c ****     uint32 difference;        
 328:Generated_Source\PSoC4/CapSense_Filter.c ****     uint32 channel;
 329:Generated_Source\PSoC4/CapSense_Filter.c ****     uint32 result = CYRET_SUCCESS;
 330:Generated_Source\PSoC4/CapSense_Filter.c ****     
 331:Generated_Source\PSoC4/CapSense_Filter.c ****     #if (CapSense_TOTAL_WIDGETS)  
 332:Generated_Source\PSoC4/CapSense_Filter.c ****         uint32 history;
 333:Generated_Source\PSoC4/CapSense_Filter.c ****     #endif /* (CapSense_TOTAL_WIDGETS) */    
 334:Generated_Source\PSoC4/CapSense_Filter.c ****     
 335:Generated_Source\PSoC4/CapSense_Filter.c ****     /* Apply baseline to every channel in sensor */
 336:Generated_Source\PSoC4/CapSense_Filter.c ****     for(channel = CapSense_NUM_SCAN_FREQS; channel-- > 0u;) 
 337:Generated_Source\PSoC4/CapSense_Filter.c ****     {               
 338:Generated_Source\PSoC4/CapSense_Filter.c ****         #if (CapSense_ENABLE == CapSense_TST_BSLN_DUPLICATION_EN)
 339:Generated_Source\PSoC4/CapSense_Filter.c ****             if (ptrSensor->bslnInv[channel] != ((uint16) ~(ptrSensor->bsln[channel])))
 340:Generated_Source\PSoC4/CapSense_Filter.c ****             {
 341:Generated_Source\PSoC4/CapSense_Filter.c ****                 result = CapSense_PROCESS_BASELINE_FAILED;
 342:Generated_Source\PSoC4/CapSense_Filter.c ****             }
 343:Generated_Source\PSoC4/CapSense_Filter.c ****             else
 344:Generated_Source\PSoC4/CapSense_Filter.c ****             {
 345:Generated_Source\PSoC4/CapSense_Filter.c ****         #endif /* (CapSense_ENABLE == CapSense_TST_BSLN_DUPLICATION_EN) */
 346:Generated_Source\PSoC4/CapSense_Filter.c **** 
 347:Generated_Source\PSoC4/CapSense_Filter.c ****         /* Calculate signal value and its sign */
 348:Generated_Source\PSoC4/CapSense_Filter.c ****         if(ptrSensor->raw[channel] >= ptrSensor->bsln[channel])
 349:Generated_Source\PSoC4/CapSense_Filter.c ****         {
 350:Generated_Source\PSoC4/CapSense_Filter.c ****             difference = (uint32)ptrSensor->raw[channel] - (uint32)ptrSensor->bsln[channel];
 351:Generated_Source\PSoC4/CapSense_Filter.c ****             sign = 1u;
 352:Generated_Source\PSoC4/CapSense_Filter.c ****             ptrSensor->negBslnRstCnt[channel] = 0u;
 353:Generated_Source\PSoC4/CapSense_Filter.c ****         }
 354:Generated_Source\PSoC4/CapSense_Filter.c ****         else
 355:Generated_Source\PSoC4/CapSense_Filter.c ****         {
 356:Generated_Source\PSoC4/CapSense_Filter.c ****             difference = (uint32)ptrSensor->bsln[channel] - (uint32)ptrSensor->raw[channel];
 357:Generated_Source\PSoC4/CapSense_Filter.c ****             sign = 0u;
 358:Generated_Source\PSoC4/CapSense_Filter.c ****         }     
 359:Generated_Source\PSoC4/CapSense_Filter.c ****         
 360:Generated_Source\PSoC4/CapSense_Filter.c ****         /* Reset baseline if condition is met */ 
 361:Generated_Source\PSoC4/CapSense_Filter.c ****         if((sign == 0u) && (difference > (uint32) ptrWidgetRam->nNoiseTh))
 362:Generated_Source\PSoC4/CapSense_Filter.c ****         {
 363:Generated_Source\PSoC4/CapSense_Filter.c ****             if(ptrSensor->negBslnRstCnt[channel] >= ptrWidgetRam->lowBslnRst)
 364:Generated_Source\PSoC4/CapSense_Filter.c ****             {                
 365:Generated_Source\PSoC4/CapSense_Filter.c ****                 CapSense_FtInitializeBaselineChannel(ptrSensor, wdType, channel);             
 366:Generated_Source\PSoC4/CapSense_Filter.c ****             }
 367:Generated_Source\PSoC4/CapSense_Filter.c ****             else
 368:Generated_Source\PSoC4/CapSense_Filter.c ****             {
 369:Generated_Source\PSoC4/CapSense_Filter.c ****                 ptrSensor->negBslnRstCnt[channel]++;
 370:Generated_Source\PSoC4/CapSense_Filter.c ****             }
 371:Generated_Source\PSoC4/CapSense_Filter.c ****         }
 372:Generated_Source\PSoC4/CapSense_Filter.c ****         else
 373:Generated_Source\PSoC4/CapSense_Filter.c ****         {
 374:Generated_Source\PSoC4/CapSense_Filter.c ****             #if (!CapSense_SENSOR_AUTO_RESET_EN)
ARM GAS  C:\Users\RD\AppData\Local\Temp\ccQZrPXd.s 			page 8


 375:Generated_Source\PSoC4/CapSense_Filter.c ****                 /* Update baseline only if signal is in range between noiseThreshold and negativeno
 376:Generated_Source\PSoC4/CapSense_Filter.c ****                 if ((difference <= (uint32)ptrWidgetRam->noiseTh) ||
 377:Generated_Source\PSoC4/CapSense_Filter.c ****                     ((difference < (uint32) ptrWidgetRam->nNoiseTh) && (sign == 0u)))
 378:Generated_Source\PSoC4/CapSense_Filter.c ****                 {
 379:Generated_Source\PSoC4/CapSense_Filter.c ****             #endif /* (CapSense_CSD_AUTO_RESET == CapSense_CSD_AUTO_RESET_DISABLE) */
 380:Generated_Source\PSoC4/CapSense_Filter.c ****             
 381:Generated_Source\PSoC4/CapSense_Filter.c ****             #if (CapSense_BASELINE_TYPE == CapSense_IIR_BASELINE)  
 382:Generated_Source\PSoC4/CapSense_Filter.c ****                 /* Calculate baseline value */
 383:Generated_Source\PSoC4/CapSense_Filter.c ****                 if ((CapSense_WD_TYPE_ENUM)wdType != CapSense_WD_PROXIMITY_E)
 384:Generated_Source\PSoC4/CapSense_Filter.c ****                 {
 385:Generated_Source\PSoC4/CapSense_Filter.c ****                     #if (CapSense_REGULAR_SENSOR_EN) 
 386:Generated_Source\PSoC4/CapSense_Filter.c ****                         #if (CapSense_REGULAR_IIR_BL_TYPE == CapSense_IIR_FILTER_PERFORMANCE)      
 387:Generated_Source\PSoC4/CapSense_Filter.c ****                             history = (uint32) ptrSensor->bsln[channel] << 8u; 
 388:Generated_Source\PSoC4/CapSense_Filter.c ****                             history |= ptrSensor->bslnExt[channel];
 389:Generated_Source\PSoC4/CapSense_Filter.c ****                         #else
 390:Generated_Source\PSoC4/CapSense_Filter.c ****                             history = ptrSensor->bsln[channel];                                    
 391:Generated_Source\PSoC4/CapSense_Filter.c ****                         #endif /* (CapSense_REGULAR_IIR_BL_TYPE == CapSense_IIR_FILTER_PERFORMANCE)
 392:Generated_Source\PSoC4/CapSense_Filter.c ****                     
 393:Generated_Source\PSoC4/CapSense_Filter.c ****                         history =  CapSense_FtIIR1stOrder(
 394:Generated_Source\PSoC4/CapSense_Filter.c ****                                         (uint32)ptrSensor->raw[channel],
 395:Generated_Source\PSoC4/CapSense_Filter.c ****                                         history, 
 396:Generated_Source\PSoC4/CapSense_Filter.c ****                                         CapSense_REGULAR_IIR_BL_N, 
 397:Generated_Source\PSoC4/CapSense_Filter.c ****                                         CapSense_REGULAR_IIR_BL_SHIFT);
 398:Generated_Source\PSoC4/CapSense_Filter.c ****                                                    
 399:Generated_Source\PSoC4/CapSense_Filter.c ****                         #if (CapSense_REGULAR_IIR_BL_TYPE == CapSense_IIR_FILTER_PERFORMANCE)      
 400:Generated_Source\PSoC4/CapSense_Filter.c ****                             ptrSensor->bsln[channel] = LO16(history >> 8u);
 401:Generated_Source\PSoC4/CapSense_Filter.c ****                             ptrSensor->bslnExt[channel] = LO8(history);
 402:Generated_Source\PSoC4/CapSense_Filter.c ****                         #else
 403:Generated_Source\PSoC4/CapSense_Filter.c ****                             ptrSensor->bsln[channel] = LO16(history);
 404:Generated_Source\PSoC4/CapSense_Filter.c ****                         #endif /* (CapSense_REGULAR_IIR_BL_TYPE == CapSense_IIR_FILTER_PERFORMANCE)
 405:Generated_Source\PSoC4/CapSense_Filter.c ****                     #endif /* (CapSense_REGULAR_SENSOR_EN) */
 406:Generated_Source\PSoC4/CapSense_Filter.c ****                 }
 407:Generated_Source\PSoC4/CapSense_Filter.c ****                 else 
 408:Generated_Source\PSoC4/CapSense_Filter.c ****                 {
 409:Generated_Source\PSoC4/CapSense_Filter.c ****                     #if (CapSense_PROXIMITY_SENSOR_EN)     
 410:Generated_Source\PSoC4/CapSense_Filter.c ****                         #if (CapSense_PROX_IIR_BL_TYPE == CapSense_IIR_FILTER_PERFORMANCE)         
 411:Generated_Source\PSoC4/CapSense_Filter.c ****                             history = (uint32) ptrSensor->bsln[channel] << 8u; 
 412:Generated_Source\PSoC4/CapSense_Filter.c ****                             history |= ptrSensor->bslnExt[channel];
 413:Generated_Source\PSoC4/CapSense_Filter.c ****                         #else
 414:Generated_Source\PSoC4/CapSense_Filter.c ****                             history = (uint32) ptrSensor->bsln[channel];                           
 415:Generated_Source\PSoC4/CapSense_Filter.c ****                         #endif /* (CapSense_PROX_IIR_BL_TYPE == CapSense_IIR_FILTER_PERFORMANCE) */
 416:Generated_Source\PSoC4/CapSense_Filter.c ****                         
 417:Generated_Source\PSoC4/CapSense_Filter.c ****                         history = CapSense_FtIIR1stOrder((uint32)ptrSensor->raw[channel], history, 
 418:Generated_Source\PSoC4/CapSense_Filter.c ****                         
 419:Generated_Source\PSoC4/CapSense_Filter.c ****                         #if (CapSense_PROX_IIR_BL_TYPE == CapSense_IIR_FILTER_PERFORMANCE)         
 420:Generated_Source\PSoC4/CapSense_Filter.c ****                             ptrSensor->bsln[channel] = LO16(history >> 8u);
 421:Generated_Source\PSoC4/CapSense_Filter.c ****                             ptrSensor->bslnExt[channel] = LO8(history);
 422:Generated_Source\PSoC4/CapSense_Filter.c ****                         #else
 423:Generated_Source\PSoC4/CapSense_Filter.c ****                             ptrSensor->bsln[channel] = LO16(history);
 424:Generated_Source\PSoC4/CapSense_Filter.c ****                         #endif /* (CapSense_PROX_IIR_BL_TYPE == CapSense_IIR_FILTER_PERFORMANCE) */
 425:Generated_Source\PSoC4/CapSense_Filter.c ****                     #endif /* (CapSense_PROX_SENSOR_EN)   */
 426:Generated_Source\PSoC4/CapSense_Filter.c ****                 }
 427:Generated_Source\PSoC4/CapSense_Filter.c ****             #else /* (CapSense_CSD_BASELINE_TYPE == CapSense_IIR_BASELINE)  */
 428:Generated_Source\PSoC4/CapSense_Filter.c ****                 
 429:Generated_Source\PSoC4/CapSense_Filter.c ****                 /******************************************************************
 430:Generated_Source\PSoC4/CapSense_Filter.c ****                 * This is the place where the bucket algorithm should be implemented.
 431:Generated_Source\PSoC4/CapSense_Filter.c ****                 * The bucket method will be implemented in future component version.
ARM GAS  C:\Users\RD\AppData\Local\Temp\ccQZrPXd.s 			page 9


 432:Generated_Source\PSoC4/CapSense_Filter.c ****                 *******************************************************************/
 433:Generated_Source\PSoC4/CapSense_Filter.c ****                 
 434:Generated_Source\PSoC4/CapSense_Filter.c ****             #endif /* (CapSense_CSD_BASELINE_TYPE == CapSense_IIR_BASELINE)  */
 435:Generated_Source\PSoC4/CapSense_Filter.c ****                     
 436:Generated_Source\PSoC4/CapSense_Filter.c ****             #if (!CapSense_SENSOR_AUTO_RESET_EN)
 437:Generated_Source\PSoC4/CapSense_Filter.c ****                 }
 438:Generated_Source\PSoC4/CapSense_Filter.c ****             #endif /* (!CapSense_SENSOR_AUTO_RESET_EN) */
 439:Generated_Source\PSoC4/CapSense_Filter.c ****         }
 440:Generated_Source\PSoC4/CapSense_Filter.c ****                 
 441:Generated_Source\PSoC4/CapSense_Filter.c ****         #if (CapSense_ENABLE == CapSense_TST_BSLN_DUPLICATION_EN)
 442:Generated_Source\PSoC4/CapSense_Filter.c ****             /* Update baseline inversion of every channel in sensor */    
 443:Generated_Source\PSoC4/CapSense_Filter.c ****             ptrSensor->bslnInv[channel] = ~(ptrSensor->bsln[channel]);
 444:Generated_Source\PSoC4/CapSense_Filter.c ****             }
 445:Generated_Source\PSoC4/CapSense_Filter.c ****         #endif /* (CapSense_ENABLE == CapSense_TST_BSLN_DUPLICATION_EN) */
 446:Generated_Source\PSoC4/CapSense_Filter.c **** 
 447:Generated_Source\PSoC4/CapSense_Filter.c ****     }
 448:Generated_Source\PSoC4/CapSense_Filter.c ****     return result;    
 449:Generated_Source\PSoC4/CapSense_Filter.c **** }
 450:Generated_Source\PSoC4/CapSense_Filter.c **** 
 451:Generated_Source\PSoC4/CapSense_Filter.c **** 
 452:Generated_Source\PSoC4/CapSense_Filter.c **** /*******************************************************************************
 453:Generated_Source\PSoC4/CapSense_Filter.c **** * Function Name: CapSense_InitializeAllBaselines
 454:Generated_Source\PSoC4/CapSense_Filter.c **** ****************************************************************************//**
 455:Generated_Source\PSoC4/CapSense_Filter.c **** *
 456:Generated_Source\PSoC4/CapSense_Filter.c **** * \brief    
 457:Generated_Source\PSoC4/CapSense_Filter.c **** *  Initializes (or re-initialize) the baseline of all sensors of all widgets.
 458:Generated_Source\PSoC4/CapSense_Filter.c **** *
 459:Generated_Source\PSoC4/CapSense_Filter.c **** * \details  
 460:Generated_Source\PSoC4/CapSense_Filter.c **** *  Initializes the baseline for all sensors of all widgets. Also, this function
 461:Generated_Source\PSoC4/CapSense_Filter.c **** *  can be used to re-initialize baselines. CapSense_Start() calls this 
 462:Generated_Source\PSoC4/CapSense_Filter.c **** *  API as part of CapSense operation initialization.
 463:Generated_Source\PSoC4/CapSense_Filter.c **** *
 464:Generated_Source\PSoC4/CapSense_Filter.c **** *******************************************************************************/
 465:Generated_Source\PSoC4/CapSense_Filter.c **** void CapSense_InitializeAllBaselines(void)
 466:Generated_Source\PSoC4/CapSense_Filter.c **** {
 467:Generated_Source\PSoC4/CapSense_Filter.c ****     uint32 widgetId;    
 468:Generated_Source\PSoC4/CapSense_Filter.c ****     
 469:Generated_Source\PSoC4/CapSense_Filter.c ****     for(widgetId = CapSense_TOTAL_WIDGETS; widgetId-- > 0u;)
 470:Generated_Source\PSoC4/CapSense_Filter.c ****     {
 471:Generated_Source\PSoC4/CapSense_Filter.c ****         CapSense_InitializeWidgetBaseline(widgetId); 
 472:Generated_Source\PSoC4/CapSense_Filter.c ****     }
 473:Generated_Source\PSoC4/CapSense_Filter.c **** }
 474:Generated_Source\PSoC4/CapSense_Filter.c **** 
 475:Generated_Source\PSoC4/CapSense_Filter.c **** 
 476:Generated_Source\PSoC4/CapSense_Filter.c **** /*******************************************************************************
 477:Generated_Source\PSoC4/CapSense_Filter.c **** * Function Name: CapSense_InitializeWidgetBaseline
 478:Generated_Source\PSoC4/CapSense_Filter.c **** ****************************************************************************//**
 479:Generated_Source\PSoC4/CapSense_Filter.c **** *
 480:Generated_Source\PSoC4/CapSense_Filter.c **** * \brief    
 481:Generated_Source\PSoC4/CapSense_Filter.c **** *  Initializes (or re-initialize) the baseline of all sensors in a widget 
 482:Generated_Source\PSoC4/CapSense_Filter.c **** *  specified by input parameter. 
 483:Generated_Source\PSoC4/CapSense_Filter.c **** *
 484:Generated_Source\PSoC4/CapSense_Filter.c **** * \details  
 485:Generated_Source\PSoC4/CapSense_Filter.c **** *  Initializes (or re-initializes) the baseline for all sensors of the 
 486:Generated_Source\PSoC4/CapSense_Filter.c **** *  specified widget.
 487:Generated_Source\PSoC4/CapSense_Filter.c **** *
 488:Generated_Source\PSoC4/CapSense_Filter.c **** * \param  widgetId 
ARM GAS  C:\Users\RD\AppData\Local\Temp\ccQZrPXd.s 			page 10


 489:Generated_Source\PSoC4/CapSense_Filter.c **** *  Specify the ID number of a widget to initialize the baseline of all sensors
 490:Generated_Source\PSoC4/CapSense_Filter.c **** *  in the widget. 
 491:Generated_Source\PSoC4/CapSense_Filter.c **** *  A macro for the widget ID can be found in the 
 492:Generated_Source\PSoC4/CapSense_Filter.c **** *  CapSense Configuration header file defined as 
 493:Generated_Source\PSoC4/CapSense_Filter.c **** *  CapSense_<WidgetName>_WDGT_ID.
 494:Generated_Source\PSoC4/CapSense_Filter.c **** *
 495:Generated_Source\PSoC4/CapSense_Filter.c **** *******************************************************************************/
 496:Generated_Source\PSoC4/CapSense_Filter.c **** void CapSense_InitializeWidgetBaseline(uint32 widgetId)
 497:Generated_Source\PSoC4/CapSense_Filter.c **** {   
 498:Generated_Source\PSoC4/CapSense_Filter.c ****     uint32 sensorId;
 499:Generated_Source\PSoC4/CapSense_Filter.c ****     uint32 sensorsNumber;
 500:Generated_Source\PSoC4/CapSense_Filter.c ****   
 501:Generated_Source\PSoC4/CapSense_Filter.c ****     CapSense_FLASH_WD_STRUCT const *ptrWidget = &CapSense_dsFlash.wdgtArray[widgetId];
 502:Generated_Source\PSoC4/CapSense_Filter.c **** 
 503:Generated_Source\PSoC4/CapSense_Filter.c ****     /* Find total amount of sensors in specified widget */   
 504:Generated_Source\PSoC4/CapSense_Filter.c ****     sensorsNumber = CapSense_GET_SNS_CNT_BY_PTR(ptrWidget);    
 505:Generated_Source\PSoC4/CapSense_Filter.c ****     
 506:Generated_Source\PSoC4/CapSense_Filter.c ****     for(sensorId = sensorsNumber; sensorId-- > 0u;)
 507:Generated_Source\PSoC4/CapSense_Filter.c ****     {
 508:Generated_Source\PSoC4/CapSense_Filter.c ****         CapSense_InitializeSensorBaseline(widgetId, sensorId);   
 509:Generated_Source\PSoC4/CapSense_Filter.c ****     }
 510:Generated_Source\PSoC4/CapSense_Filter.c **** }
 511:Generated_Source\PSoC4/CapSense_Filter.c **** 
 512:Generated_Source\PSoC4/CapSense_Filter.c **** 
 513:Generated_Source\PSoC4/CapSense_Filter.c **** /*******************************************************************************
 514:Generated_Source\PSoC4/CapSense_Filter.c **** * Function Name: CapSense_InitializeSensorBaseline
 515:Generated_Source\PSoC4/CapSense_Filter.c **** ****************************************************************************//**
 516:Generated_Source\PSoC4/CapSense_Filter.c **** *
 517:Generated_Source\PSoC4/CapSense_Filter.c **** * \brief
 518:Generated_Source\PSoC4/CapSense_Filter.c **** *  Initializes (or re-initialize) the baseline of a sensor in a widget specified
 519:Generated_Source\PSoC4/CapSense_Filter.c **** *  by input parameters.
 520:Generated_Source\PSoC4/CapSense_Filter.c **** *
 521:Generated_Source\PSoC4/CapSense_Filter.c **** * \details  
 522:Generated_Source\PSoC4/CapSense_Filter.c **** *  Initializes (or re-initializes) the baseline for a specified sensor within
 523:Generated_Source\PSoC4/CapSense_Filter.c **** *  a specified widget.
 524:Generated_Source\PSoC4/CapSense_Filter.c **** *
 525:Generated_Source\PSoC4/CapSense_Filter.c **** * \param    widgetId 
 526:Generated_Source\PSoC4/CapSense_Filter.c **** *  Specify the ID number of a widget to initialize the baseline of all sensors
 527:Generated_Source\PSoC4/CapSense_Filter.c **** *  in the widget.
 528:Generated_Source\PSoC4/CapSense_Filter.c **** *  A macro for the widget ID can be found in the 
 529:Generated_Source\PSoC4/CapSense_Filter.c **** *  CapSense Configuration header file defined as 
 530:Generated_Source\PSoC4/CapSense_Filter.c **** *  CapSense_<WidgetName>_WDGT_ID.
 531:Generated_Source\PSoC4/CapSense_Filter.c **** *  
 532:Generated_Source\PSoC4/CapSense_Filter.c **** * \param    sensorId 
 533:Generated_Source\PSoC4/CapSense_Filter.c **** *  Specify the ID number of the sensor within the widget to initialize its 
 534:Generated_Source\PSoC4/CapSense_Filter.c **** *  baseline.
 535:Generated_Source\PSoC4/CapSense_Filter.c **** *  A macro for the sensor ID within a specified widget can be found in the 
 536:Generated_Source\PSoC4/CapSense_Filter.c **** *  CapSense Configuration header file defined as 
 537:Generated_Source\PSoC4/CapSense_Filter.c **** *  CapSense_<WidgetName>_SNS<SensorNumber>_ID
 538:Generated_Source\PSoC4/CapSense_Filter.c **** *
 539:Generated_Source\PSoC4/CapSense_Filter.c **** *******************************************************************************/
 540:Generated_Source\PSoC4/CapSense_Filter.c **** void CapSense_InitializeSensorBaseline(uint32 widgetId, uint32 sensorId)
 541:Generated_Source\PSoC4/CapSense_Filter.c **** {      
 542:Generated_Source\PSoC4/CapSense_Filter.c ****     CapSense_RAM_SNS_STRUCT *ptrSensor = NULL;    
 543:Generated_Source\PSoC4/CapSense_Filter.c ****     CapSense_FLASH_WD_STRUCT const *ptrWidget = NULL;
 544:Generated_Source\PSoC4/CapSense_Filter.c ****     ptrWidget = &CapSense_dsFlash.wdgtArray[widgetId];
 545:Generated_Source\PSoC4/CapSense_Filter.c **** 
ARM GAS  C:\Users\RD\AppData\Local\Temp\ccQZrPXd.s 			page 11


 546:Generated_Source\PSoC4/CapSense_Filter.c ****     /* Find pointer to specified sensor object */     
 547:Generated_Source\PSoC4/CapSense_Filter.c ****     ptrSensor = ptrWidget->ptr2SnsRam;
 548:Generated_Source\PSoC4/CapSense_Filter.c ****     ptrSensor = &ptrSensor[sensorId];
 549:Generated_Source\PSoC4/CapSense_Filter.c **** 
 550:Generated_Source\PSoC4/CapSense_Filter.c ****     CapSense_FtInitializeBaseline(ptrSensor, (uint32)ptrWidget->wdgtType);
 551:Generated_Source\PSoC4/CapSense_Filter.c **** }
 552:Generated_Source\PSoC4/CapSense_Filter.c **** 
 553:Generated_Source\PSoC4/CapSense_Filter.c **** 
 554:Generated_Source\PSoC4/CapSense_Filter.c **** /*******************************************************************************
 555:Generated_Source\PSoC4/CapSense_Filter.c **** * Function Name: CapSense_FtInitializeBaseline
 556:Generated_Source\PSoC4/CapSense_Filter.c **** ****************************************************************************//**
 557:Generated_Source\PSoC4/CapSense_Filter.c **** *
 558:Generated_Source\PSoC4/CapSense_Filter.c **** * \brief    Initializes the baseline history for a sensor indicated by an input
 559:Generated_Source\PSoC4/CapSense_Filter.c **** *           parameter.
 560:Generated_Source\PSoC4/CapSense_Filter.c **** *
 561:Generated_Source\PSoC4/CapSense_Filter.c **** * \details  Initializes the baseline history for a sensor indicated by an input
 562:Generated_Source\PSoC4/CapSense_Filter.c **** *           parameter.
 563:Generated_Source\PSoC4/CapSense_Filter.c **** *
 564:Generated_Source\PSoC4/CapSense_Filter.c **** * \param    *ptrSensor The pointer to the sensor RAM object.
 565:Generated_Source\PSoC4/CapSense_Filter.c **** * \param    wdType     Specifies the type of a widget.
 566:Generated_Source\PSoC4/CapSense_Filter.c **** *
 567:Generated_Source\PSoC4/CapSense_Filter.c **** *******************************************************************************/
 568:Generated_Source\PSoC4/CapSense_Filter.c **** CY_INLINE void CapSense_FtInitializeBaseline(CapSense_RAM_SNS_STRUCT *ptrSensor, uint32 wdType) 
 569:Generated_Source\PSoC4/CapSense_Filter.c **** {
 570:Generated_Source\PSoC4/CapSense_Filter.c ****     uint32 channel;
 571:Generated_Source\PSoC4/CapSense_Filter.c **** 
 572:Generated_Source\PSoC4/CapSense_Filter.c ****     /* Apply baseline initialization to every channel in sensor */    
 573:Generated_Source\PSoC4/CapSense_Filter.c ****     for(channel = CapSense_NUM_SCAN_FREQS; channel-- > 0u;) 
 574:Generated_Source\PSoC4/CapSense_Filter.c ****     {
 575:Generated_Source\PSoC4/CapSense_Filter.c ****         CapSense_FtInitializeBaselineChannel(ptrSensor, wdType, channel); 
 576:Generated_Source\PSoC4/CapSense_Filter.c ****     }
 577:Generated_Source\PSoC4/CapSense_Filter.c **** }
 578:Generated_Source\PSoC4/CapSense_Filter.c **** 
 579:Generated_Source\PSoC4/CapSense_Filter.c **** 
 580:Generated_Source\PSoC4/CapSense_Filter.c **** /*******************************************************************************
 581:Generated_Source\PSoC4/CapSense_Filter.c **** * Function Name: CapSense_FtInitializeBaselineChannel
 582:Generated_Source\PSoC4/CapSense_Filter.c **** ****************************************************************************//**
 583:Generated_Source\PSoC4/CapSense_Filter.c **** *
 584:Generated_Source\PSoC4/CapSense_Filter.c **** * \brief    Initializes the baseline history for a sensor indicated by an input
 585:Generated_Source\PSoC4/CapSense_Filter.c **** *           parameter.
 586:Generated_Source\PSoC4/CapSense_Filter.c **** *
 587:Generated_Source\PSoC4/CapSense_Filter.c **** * \details  Initializes the baseline history for a sensor indicated by an input
 588:Generated_Source\PSoC4/CapSense_Filter.c **** *           parameter.
 589:Generated_Source\PSoC4/CapSense_Filter.c **** *
 590:Generated_Source\PSoC4/CapSense_Filter.c **** * \param    *ptrSensor The pointer to the sensor RAM object.
 591:Generated_Source\PSoC4/CapSense_Filter.c **** * \param    wdType     Specifies the type of a widget.
 592:Generated_Source\PSoC4/CapSense_Filter.c **** * \param    channel    Specifies the number of the channel to be initialized.
 593:Generated_Source\PSoC4/CapSense_Filter.c **** *
 594:Generated_Source\PSoC4/CapSense_Filter.c **** *******************************************************************************/
 595:Generated_Source\PSoC4/CapSense_Filter.c **** void CapSense_FtInitializeBaselineChannel(CapSense_RAM_SNS_STRUCT *ptrSensor, uint32 wdType, uint32
 596:Generated_Source\PSoC4/CapSense_Filter.c **** {
  26              		.loc 1 596 0
  27              		.cfi_startproc
  28              	.LVL0:
 597:Generated_Source\PSoC4/CapSense_Filter.c ****     #if (CapSense_BASELINE_TYPE == CapSense_IIR_BASELINE)  
 598:Generated_Source\PSoC4/CapSense_Filter.c ****         if ((CapSense_WD_TYPE_ENUM)wdType != CapSense_WD_PROXIMITY_E)
  29              		.loc 1 598 0
ARM GAS  C:\Users\RD\AppData\Local\Temp\ccQZrPXd.s 			page 12


  30 0000 C9B2     		uxtb	r1, r1
  31              	.LVL1:
  32 0002 0629     		cmp	r1, #6
  33 0004 02D0     		beq	.L2
 599:Generated_Source\PSoC4/CapSense_Filter.c ****         {
 600:Generated_Source\PSoC4/CapSense_Filter.c ****             #if (CapSense_REGULAR_SENSOR_EN)
 601:Generated_Source\PSoC4/CapSense_Filter.c ****                 #if (CapSense_REGULAR_IIR_BL_TYPE == CapSense_IIR_FILTER_PERFORMANCE)              
 602:Generated_Source\PSoC4/CapSense_Filter.c ****                     ptrSensor->bslnExt[channel] = 0u;                
  34              		.loc 1 602 0
  35 0006 8318     		add	r3, r0, r2
  36 0008 0021     		mov	r1, #0
  37 000a 1971     		strb	r1, [r3, #4]
  38              	.L2:
 603:Generated_Source\PSoC4/CapSense_Filter.c ****                 #endif /* (CapSense_REGULAR_IIR_BL_TYPE == CapSense_IIR_FILTER_PERFORMANCE) */
 604:Generated_Source\PSoC4/CapSense_Filter.c ****             #endif /* (CapSense_REGULAR_SENSOR_EN) */
 605:Generated_Source\PSoC4/CapSense_Filter.c ****         }
 606:Generated_Source\PSoC4/CapSense_Filter.c ****         else
 607:Generated_Source\PSoC4/CapSense_Filter.c ****         {
 608:Generated_Source\PSoC4/CapSense_Filter.c ****             #if (CapSense_PROXIMITY_SENSOR_EN)     
 609:Generated_Source\PSoC4/CapSense_Filter.c ****                 #if (CapSense_PROX_IIR_BL_TYPE == CapSense_IIR_FILTER_PERFORMANCE)                 
 610:Generated_Source\PSoC4/CapSense_Filter.c ****                     ptrSensor->bslnExt[channel] = 0u;               
 611:Generated_Source\PSoC4/CapSense_Filter.c ****                 #endif /* (CapSense_PROX_IIR_BL_TYPE == CapSense_IIR_FILTER_PERFORMANCE) */
 612:Generated_Source\PSoC4/CapSense_Filter.c ****             #endif /* (CapSense_PROX_SENSOR_EN) */
 613:Generated_Source\PSoC4/CapSense_Filter.c ****         }
 614:Generated_Source\PSoC4/CapSense_Filter.c ****     #else
 615:Generated_Source\PSoC4/CapSense_Filter.c ****         /* CapSense_BASELINE_TYPE == CapSense_BUCKET_BASELINE */        
 616:Generated_Source\PSoC4/CapSense_Filter.c ****         ptrSensor->bslnExt[channel] = 0u;        
 617:Generated_Source\PSoC4/CapSense_Filter.c ****     #endif /* (CapSense_BASELINE_TYPE == CapSense_IIR_BASELINE) */      
 618:Generated_Source\PSoC4/CapSense_Filter.c ****     
 619:Generated_Source\PSoC4/CapSense_Filter.c ****     ptrSensor->bsln[channel] = ptrSensor->raw[channel]; 
  39              		.loc 1 619 0
  40 000c 5300     		lsl	r3, r2, #1
  41 000e 195A     		ldrh	r1, [r3, r0]
  42 0010 C318     		add	r3, r0, r3
  43 0012 5980     		strh	r1, [r3, #2]
 620:Generated_Source\PSoC4/CapSense_Filter.c ****     
 621:Generated_Source\PSoC4/CapSense_Filter.c ****     #if (CapSense_ENABLE == CapSense_TST_BSLN_DUPLICATION_EN)
 622:Generated_Source\PSoC4/CapSense_Filter.c ****     /* Update baseline inversion of the channel in sensor */    
 623:Generated_Source\PSoC4/CapSense_Filter.c ****         ptrSensor->bslnInv[channel] = ~(ptrSensor->bsln[channel]);
 624:Generated_Source\PSoC4/CapSense_Filter.c ****     #endif /* (CapSense_ENABLE == CapSense_TST_BSLN_DUPLICATION_EN) */
 625:Generated_Source\PSoC4/CapSense_Filter.c **** 
 626:Generated_Source\PSoC4/CapSense_Filter.c ****     ptrSensor->negBslnRstCnt[channel] = 0u;
  44              		.loc 1 626 0
  45 0014 8218     		add	r2, r0, r2
  46              	.LVL2:
  47 0016 0023     		mov	r3, #0
  48 0018 1372     		strb	r3, [r2, #8]
 627:Generated_Source\PSoC4/CapSense_Filter.c **** }
  49              		.loc 1 627 0
  50              		@ sp needed
  51 001a 7047     		bx	lr
  52              		.cfi_endproc
  53              	.LFE10:
  54              		.size	CapSense_FtInitializeBaselineChannel, .-CapSense_FtInitializeBaselineChannel
  55              		.section	.text.CapSense_FtInitializeBaseline,"ax",%progbits
  56              		.align	2
  57              		.global	CapSense_FtInitializeBaseline
ARM GAS  C:\Users\RD\AppData\Local\Temp\ccQZrPXd.s 			page 13


  58              		.code	16
  59              		.thumb_func
  60              		.type	CapSense_FtInitializeBaseline, %function
  61              	CapSense_FtInitializeBaseline:
  62              	.LFB9:
 569:Generated_Source\PSoC4/CapSense_Filter.c ****     uint32 channel;
  63              		.loc 1 569 0
  64              		.cfi_startproc
  65              	.LVL3:
  66 0000 70B5     		push	{r4, r5, r6, lr}
  67              		.cfi_def_cfa_offset 16
  68              		.cfi_offset 4, -16
  69              		.cfi_offset 5, -12
  70              		.cfi_offset 6, -8
  71              		.cfi_offset 14, -4
  72 0002 061C     		mov	r6, r0
  73 0004 0D1C     		mov	r5, r1
  74              	.LVL4:
 573:Generated_Source\PSoC4/CapSense_Filter.c ****     {
  75              		.loc 1 573 0
  76 0006 0123     		mov	r3, #1
  77 0008 05E0     		b	.L4
  78              	.LVL5:
  79              	.L5:
 575:Generated_Source\PSoC4/CapSense_Filter.c ****     }
  80              		.loc 1 575 0
  81 000a 301C     		mov	r0, r6
  82 000c 291C     		mov	r1, r5
  83 000e 221C     		mov	r2, r4
  84 0010 FFF7FEFF 		bl	CapSense_FtInitializeBaselineChannel
  85              	.LVL6:
 573:Generated_Source\PSoC4/CapSense_Filter.c ****     {
  86              		.loc 1 573 0
  87 0014 231C     		mov	r3, r4
  88              	.LVL7:
  89              	.L4:
 573:Generated_Source\PSoC4/CapSense_Filter.c ****     {
  90              		.loc 1 573 0 is_stmt 0 discriminator 1
  91 0016 5C1E     		sub	r4, r3, #1
  92              	.LVL8:
  93 0018 002B     		cmp	r3, #0
  94 001a F6D1     		bne	.L5
 577:Generated_Source\PSoC4/CapSense_Filter.c **** 
  95              		.loc 1 577 0 is_stmt 1
  96              		@ sp needed
  97              	.LVL9:
  98              	.LVL10:
  99              	.LVL11:
 100 001c 70BD     		pop	{r4, r5, r6, pc}
 101              		.cfi_endproc
 102              	.LFE9:
 103              		.size	CapSense_FtInitializeBaseline, .-CapSense_FtInitializeBaseline
 104 001e C046     		.section	.text.CapSense_InitializeSensorBaseline,"ax",%progbits
 105              		.align	2
 106              		.global	CapSense_InitializeSensorBaseline
 107              		.code	16
 108              		.thumb_func
ARM GAS  C:\Users\RD\AppData\Local\Temp\ccQZrPXd.s 			page 14


 109              		.type	CapSense_InitializeSensorBaseline, %function
 110              	CapSense_InitializeSensorBaseline:
 111              	.LFB8:
 541:Generated_Source\PSoC4/CapSense_Filter.c ****     CapSense_RAM_SNS_STRUCT *ptrSensor = NULL;    
 112              		.loc 1 541 0
 113              		.cfi_startproc
 114              	.LVL12:
 115 0000 70B5     		push	{r4, r5, r6, lr}
 116              		.cfi_def_cfa_offset 16
 117              		.cfi_offset 4, -16
 118              		.cfi_offset 5, -12
 119              		.cfi_offset 6, -8
 120              		.cfi_offset 14, -4
 121              	.LVL13:
 547:Generated_Source\PSoC4/CapSense_Filter.c ****     ptrSensor = &ptrSensor[sensorId];
 122              		.loc 1 547 0
 123 0002 0D4A     		ldr	r2, .L9
 124 0004 8500     		lsl	r5, r0, #2
 125 0006 2B18     		add	r3, r5, r0
 126 0008 DB00     		lsl	r3, r3, #3
 127 000a D318     		add	r3, r2, r3
 128 000c 9C68     		ldr	r4, [r3, #8]
 129              	.LVL14:
 548:Generated_Source\PSoC4/CapSense_Filter.c **** 
 130              		.loc 1 548 0
 131 000e CB00     		lsl	r3, r1, #3
 132 0010 591A     		sub	r1, r3, r1
 133              	.LVL15:
 134 0012 4900     		lsl	r1, r1, #1
 135 0014 6418     		add	r4, r4, r1
 136              	.LVL16:
 550:Generated_Source\PSoC4/CapSense_Filter.c **** }
 137              		.loc 1 550 0
 138 0016 2818     		add	r0, r5, r0
 139              	.LVL17:
 140 0018 C000     		lsl	r0, r0, #3
 141 001a 1018     		add	r0, r2, r0
 142 001c 067E     		ldrb	r6, [r0, #24]
 143              	.LVL18:
 144              	.LBB4:
 145              	.LBB5:
 573:Generated_Source\PSoC4/CapSense_Filter.c ****     {
 146              		.loc 1 573 0
 147 001e 0123     		mov	r3, #1
 148 0020 05E0     		b	.L7
 149              	.LVL19:
 150              	.L8:
 575:Generated_Source\PSoC4/CapSense_Filter.c ****     }
 151              		.loc 1 575 0
 152 0022 201C     		mov	r0, r4
 153 0024 311C     		mov	r1, r6
 154 0026 2A1C     		mov	r2, r5
 155 0028 FFF7FEFF 		bl	CapSense_FtInitializeBaselineChannel
 156              	.LVL20:
 573:Generated_Source\PSoC4/CapSense_Filter.c ****     {
 157              		.loc 1 573 0
 158 002c 2B1C     		mov	r3, r5
ARM GAS  C:\Users\RD\AppData\Local\Temp\ccQZrPXd.s 			page 15


 159              	.LVL21:
 160              	.L7:
 161 002e 5D1E     		sub	r5, r3, #1
 162              	.LVL22:
 163 0030 002B     		cmp	r3, #0
 164 0032 F6D1     		bne	.L8
 165              	.LBE5:
 166              	.LBE4:
 551:Generated_Source\PSoC4/CapSense_Filter.c **** 
 167              		.loc 1 551 0
 168              		@ sp needed
 169              	.LVL23:
 170              	.LVL24:
 171              	.LVL25:
 172 0034 70BD     		pop	{r4, r5, r6, pc}
 173              	.L10:
 174 0036 C046     		.align	2
 175              	.L9:
 176 0038 00000000 		.word	CapSense_dsFlash
 177              		.cfi_endproc
 178              	.LFE8:
 179              		.size	CapSense_InitializeSensorBaseline, .-CapSense_InitializeSensorBaseline
 180              		.section	.text.CapSense_InitializeWidgetBaseline,"ax",%progbits
 181              		.align	2
 182              		.global	CapSense_InitializeWidgetBaseline
 183              		.code	16
 184              		.thumb_func
 185              		.type	CapSense_InitializeWidgetBaseline, %function
 186              	CapSense_InitializeWidgetBaseline:
 187              	.LFB7:
 497:Generated_Source\PSoC4/CapSense_Filter.c ****     uint32 sensorId;
 188              		.loc 1 497 0
 189              		.cfi_startproc
 190              	.LVL26:
 191 0000 38B5     		push	{r3, r4, r5, lr}
 192              		.cfi_def_cfa_offset 16
 193              		.cfi_offset 3, -16
 194              		.cfi_offset 4, -12
 195              		.cfi_offset 5, -8
 196              		.cfi_offset 14, -4
 197 0002 051C     		mov	r5, r0
 198              	.LVL27:
 504:Generated_Source\PSoC4/CapSense_Filter.c ****     
 199              		.loc 1 504 0
 200 0004 8300     		lsl	r3, r0, #2
 201 0006 1B18     		add	r3, r3, r0
 202 0008 DB00     		lsl	r3, r3, #3
 203 000a 064A     		ldr	r2, .L14
 204 000c D318     		add	r3, r2, r3
 205 000e DB8A     		ldrh	r3, [r3, #22]
 206              	.LVL28:
 506:Generated_Source\PSoC4/CapSense_Filter.c ****     {
 207              		.loc 1 506 0
 208 0010 04E0     		b	.L12
 209              	.LVL29:
 210              	.L13:
 508:Generated_Source\PSoC4/CapSense_Filter.c ****     }
ARM GAS  C:\Users\RD\AppData\Local\Temp\ccQZrPXd.s 			page 16


 211              		.loc 1 508 0
 212 0012 281C     		mov	r0, r5
 213 0014 211C     		mov	r1, r4
 214 0016 FFF7FEFF 		bl	CapSense_InitializeSensorBaseline
 215              	.LVL30:
 506:Generated_Source\PSoC4/CapSense_Filter.c ****     {
 216              		.loc 1 506 0
 217 001a 231C     		mov	r3, r4
 218              	.LVL31:
 219              	.L12:
 506:Generated_Source\PSoC4/CapSense_Filter.c ****     {
 220              		.loc 1 506 0 is_stmt 0 discriminator 1
 221 001c 5C1E     		sub	r4, r3, #1
 222              	.LVL32:
 223 001e 002B     		cmp	r3, #0
 224 0020 F7D1     		bne	.L13
 510:Generated_Source\PSoC4/CapSense_Filter.c **** 
 225              		.loc 1 510 0 is_stmt 1
 226              		@ sp needed
 227              	.LVL33:
 228              	.LVL34:
 229 0022 38BD     		pop	{r3, r4, r5, pc}
 230              	.L15:
 231              		.align	2
 232              	.L14:
 233 0024 00000000 		.word	CapSense_dsFlash
 234              		.cfi_endproc
 235              	.LFE7:
 236              		.size	CapSense_InitializeWidgetBaseline, .-CapSense_InitializeWidgetBaseline
 237              		.section	.text.CapSense_InitializeAllBaselines,"ax",%progbits
 238              		.align	2
 239              		.global	CapSense_InitializeAllBaselines
 240              		.code	16
 241              		.thumb_func
 242              		.type	CapSense_InitializeAllBaselines, %function
 243              	CapSense_InitializeAllBaselines:
 244              	.LFB6:
 466:Generated_Source\PSoC4/CapSense_Filter.c ****     uint32 widgetId;    
 245              		.loc 1 466 0
 246              		.cfi_startproc
 247 0000 10B5     		push	{r4, lr}
 248              		.cfi_def_cfa_offset 8
 249              		.cfi_offset 4, -8
 250              		.cfi_offset 14, -4
 251              	.LVL35:
 469:Generated_Source\PSoC4/CapSense_Filter.c ****     {
 252              		.loc 1 469 0
 253 0002 0123     		mov	r3, #1
 254 0004 03E0     		b	.L17
 255              	.LVL36:
 256              	.L18:
 471:Generated_Source\PSoC4/CapSense_Filter.c ****     }
 257              		.loc 1 471 0
 258 0006 201C     		mov	r0, r4
 259 0008 FFF7FEFF 		bl	CapSense_InitializeWidgetBaseline
 260              	.LVL37:
 469:Generated_Source\PSoC4/CapSense_Filter.c ****     {
ARM GAS  C:\Users\RD\AppData\Local\Temp\ccQZrPXd.s 			page 17


 261              		.loc 1 469 0
 262 000c 231C     		mov	r3, r4
 263              	.LVL38:
 264              	.L17:
 469:Generated_Source\PSoC4/CapSense_Filter.c ****     {
 265              		.loc 1 469 0 is_stmt 0 discriminator 1
 266 000e 5C1E     		sub	r4, r3, #1
 267              	.LVL39:
 268 0010 002B     		cmp	r3, #0
 269 0012 F8D1     		bne	.L18
 473:Generated_Source\PSoC4/CapSense_Filter.c **** 
 270              		.loc 1 473 0 is_stmt 1
 271              		@ sp needed
 272              	.LVL40:
 273 0014 10BD     		pop	{r4, pc}
 274              		.cfi_endproc
 275              	.LFE6:
 276              		.size	CapSense_InitializeAllBaselines, .-CapSense_InitializeAllBaselines
 277 0016 C046     		.section	.text.CapSense_InitializeIIRInternal,"ax",%progbits
 278              		.align	2
 279              		.global	CapSense_InitializeIIRInternal
 280              		.code	16
 281              		.thumb_func
 282              		.type	CapSense_InitializeIIRInternal, %function
 283              	CapSense_InitializeIIRInternal:
 284              	.LFB13:
 628:Generated_Source\PSoC4/CapSense_Filter.c **** 
 629:Generated_Source\PSoC4/CapSense_Filter.c **** 
 630:Generated_Source\PSoC4/CapSense_Filter.c **** #if (CapSense_REGULAR_RC_IIR_FILTER_EN || CapSense_PROX_RC_IIR_FILTER_EN)
 631:Generated_Source\PSoC4/CapSense_Filter.c **** 
 632:Generated_Source\PSoC4/CapSense_Filter.c **** /*******************************************************************************
 633:Generated_Source\PSoC4/CapSense_Filter.c **** * Function Name: CapSense_InitializeIIR
 634:Generated_Source\PSoC4/CapSense_Filter.c **** ****************************************************************************//**
 635:Generated_Source\PSoC4/CapSense_Filter.c **** *
 636:Generated_Source\PSoC4/CapSense_Filter.c **** * \brief    Initialize the IIR filter history.
 637:Generated_Source\PSoC4/CapSense_Filter.c **** *
 638:Generated_Source\PSoC4/CapSense_Filter.c **** * \details  Initialize the IIR filter history.
 639:Generated_Source\PSoC4/CapSense_Filter.c **** *
 640:Generated_Source\PSoC4/CapSense_Filter.c **** * \param    widgetId Specifies the ID number of the widget.
 641:Generated_Source\PSoC4/CapSense_Filter.c **** * \param    sensorId Specifies the ID number of the sensor in the widget.
 642:Generated_Source\PSoC4/CapSense_Filter.c **** *
 643:Generated_Source\PSoC4/CapSense_Filter.c **** *******************************************************************************/
 644:Generated_Source\PSoC4/CapSense_Filter.c **** void CapSense_InitializeIIR(uint32 widgetId, uint32 sensorId)
 645:Generated_Source\PSoC4/CapSense_Filter.c **** {   
 646:Generated_Source\PSoC4/CapSense_Filter.c ****     CapSense_FLASH_WD_STRUCT const *ptrWidget = &CapSense_dsFlash.wdgtArray[widgetId];      
 647:Generated_Source\PSoC4/CapSense_Filter.c ****     CapSense_RAM_SNS_STRUCT *ptrSensor = NULL;    
 648:Generated_Source\PSoC4/CapSense_Filter.c ****     CapSense_PTR_FILTER_VARIANT ptrFilterHistObj; 
 649:Generated_Source\PSoC4/CapSense_Filter.c ****               
 650:Generated_Source\PSoC4/CapSense_Filter.c ****     /* Find pointer to specified sensor object */     
 651:Generated_Source\PSoC4/CapSense_Filter.c ****     ptrSensor = ptrWidget->ptr2SnsRam;
 652:Generated_Source\PSoC4/CapSense_Filter.c ****     ptrSensor = &ptrSensor[sensorId];
 653:Generated_Source\PSoC4/CapSense_Filter.c ****         
 654:Generated_Source\PSoC4/CapSense_Filter.c ****     /* Find pointer to specified filter sensor object */     
 655:Generated_Source\PSoC4/CapSense_Filter.c ****     ptrFilterHistObj.ptr = ptrWidget->ptr2FltrHistory;
 656:Generated_Source\PSoC4/CapSense_Filter.c ****     
 657:Generated_Source\PSoC4/CapSense_Filter.c ****     if ((CapSense_WD_TYPE_ENUM)ptrWidget->wdgtType != CapSense_WD_PROXIMITY_E)
 658:Generated_Source\PSoC4/CapSense_Filter.c ****     {
ARM GAS  C:\Users\RD\AppData\Local\Temp\ccQZrPXd.s 			page 18


 659:Generated_Source\PSoC4/CapSense_Filter.c ****         #if (CapSense_REGULAR_SENSOR_EN)
 660:Generated_Source\PSoC4/CapSense_Filter.c ****             ptrFilterHistObj.ptrRegular = &ptrFilterHistObj.ptrRegular[sensorId];
 661:Generated_Source\PSoC4/CapSense_Filter.c ****         #endif /* (CapSense_REGULAR_SENSOR_EN) */
 662:Generated_Source\PSoC4/CapSense_Filter.c ****     }
 663:Generated_Source\PSoC4/CapSense_Filter.c ****     else
 664:Generated_Source\PSoC4/CapSense_Filter.c ****     {
 665:Generated_Source\PSoC4/CapSense_Filter.c ****         #if (CapSense_PROXIMITY_SENSOR_EN)
 666:Generated_Source\PSoC4/CapSense_Filter.c ****             ptrFilterHistObj.ptrProx = &ptrFilterHistObj.ptrProx[sensorId];
 667:Generated_Source\PSoC4/CapSense_Filter.c ****         #endif /* (CapSense_PROXIMITY_SENSOR_EN) */
 668:Generated_Source\PSoC4/CapSense_Filter.c ****     }    
 669:Generated_Source\PSoC4/CapSense_Filter.c ****     
 670:Generated_Source\PSoC4/CapSense_Filter.c ****     CapSense_InitializeIIRInternal(ptrFilterHistObj, ptrSensor, (uint32)ptrWidget->wdgtType);
 671:Generated_Source\PSoC4/CapSense_Filter.c **** }
 672:Generated_Source\PSoC4/CapSense_Filter.c **** 
 673:Generated_Source\PSoC4/CapSense_Filter.c **** 
 674:Generated_Source\PSoC4/CapSense_Filter.c **** /*******************************************************************************
 675:Generated_Source\PSoC4/CapSense_Filter.c **** * Function Name: CapSense_RunIIR
 676:Generated_Source\PSoC4/CapSense_Filter.c **** ****************************************************************************//**
 677:Generated_Source\PSoC4/CapSense_Filter.c **** *
 678:Generated_Source\PSoC4/CapSense_Filter.c **** * \brief    Executes the IIR filter algorithm on a sensor indicated by an input
 679:Generated_Source\PSoC4/CapSense_Filter.c **** *           parameter. 
 680:Generated_Source\PSoC4/CapSense_Filter.c **** *
 681:Generated_Source\PSoC4/CapSense_Filter.c **** * \details  Executes the IIR filter algorithm on a sensor indicated by an input
 682:Generated_Source\PSoC4/CapSense_Filter.c **** *           parameter. 
 683:Generated_Source\PSoC4/CapSense_Filter.c **** *
 684:Generated_Source\PSoC4/CapSense_Filter.c **** * \param    widgetId Specifies the ID number of the widget.
 685:Generated_Source\PSoC4/CapSense_Filter.c **** * \param    sensorId Specifies the ID number of the sensor in the widget.
 686:Generated_Source\PSoC4/CapSense_Filter.c **** *
 687:Generated_Source\PSoC4/CapSense_Filter.c **** *******************************************************************************/
 688:Generated_Source\PSoC4/CapSense_Filter.c **** void CapSense_RunIIR(uint32 widgetId, uint32 sensorId)
 689:Generated_Source\PSoC4/CapSense_Filter.c **** {
 690:Generated_Source\PSoC4/CapSense_Filter.c ****     CapSense_FLASH_WD_STRUCT const *ptrWidget = &CapSense_dsFlash.wdgtArray[widgetId];      
 691:Generated_Source\PSoC4/CapSense_Filter.c ****     CapSense_RAM_SNS_STRUCT *ptrSensor = NULL;    
 692:Generated_Source\PSoC4/CapSense_Filter.c ****     CapSense_PTR_FILTER_VARIANT ptrFilterHistObj; 
 693:Generated_Source\PSoC4/CapSense_Filter.c ****               
 694:Generated_Source\PSoC4/CapSense_Filter.c ****     /* Find pointer to specified sensor object */     
 695:Generated_Source\PSoC4/CapSense_Filter.c ****     ptrSensor = ptrWidget->ptr2SnsRam;
 696:Generated_Source\PSoC4/CapSense_Filter.c ****     ptrSensor = &ptrSensor[sensorId];
 697:Generated_Source\PSoC4/CapSense_Filter.c ****         
 698:Generated_Source\PSoC4/CapSense_Filter.c ****     /* Find pointer to specified filter sensor object */     
 699:Generated_Source\PSoC4/CapSense_Filter.c ****     ptrFilterHistObj.ptr = ptrWidget->ptr2FltrHistory;
 700:Generated_Source\PSoC4/CapSense_Filter.c ****     
 701:Generated_Source\PSoC4/CapSense_Filter.c ****     if ((CapSense_WD_TYPE_ENUM)ptrWidget->wdgtType != CapSense_WD_PROXIMITY_E)
 702:Generated_Source\PSoC4/CapSense_Filter.c ****     {
 703:Generated_Source\PSoC4/CapSense_Filter.c ****         #if (CapSense_REGULAR_SENSOR_EN)
 704:Generated_Source\PSoC4/CapSense_Filter.c ****             ptrFilterHistObj.ptrRegular = &ptrFilterHistObj.ptrRegular[sensorId];
 705:Generated_Source\PSoC4/CapSense_Filter.c ****         #endif /* (CapSense_REGULAR_SENSOR_EN) */
 706:Generated_Source\PSoC4/CapSense_Filter.c ****     }
 707:Generated_Source\PSoC4/CapSense_Filter.c ****     else
 708:Generated_Source\PSoC4/CapSense_Filter.c ****     {
 709:Generated_Source\PSoC4/CapSense_Filter.c ****         #if (CapSense_PROXIMITY_SENSOR_EN)
 710:Generated_Source\PSoC4/CapSense_Filter.c ****             ptrFilterHistObj.ptrProx = &ptrFilterHistObj.ptrProx[sensorId];
 711:Generated_Source\PSoC4/CapSense_Filter.c ****         #endif /* (CapSense_PROXIMITY_SENSOR_EN) */
 712:Generated_Source\PSoC4/CapSense_Filter.c ****     }    
 713:Generated_Source\PSoC4/CapSense_Filter.c ****     
 714:Generated_Source\PSoC4/CapSense_Filter.c ****     CapSense_RunIIRInternal(ptrFilterHistObj, ptrSensor, (uint32)ptrWidget->wdgtType);
 715:Generated_Source\PSoC4/CapSense_Filter.c **** }
ARM GAS  C:\Users\RD\AppData\Local\Temp\ccQZrPXd.s 			page 19


 716:Generated_Source\PSoC4/CapSense_Filter.c ****     
 717:Generated_Source\PSoC4/CapSense_Filter.c **** /*******************************************************************************
 718:Generated_Source\PSoC4/CapSense_Filter.c **** * Function Name: CapSense_InitializeIIRInternal
 719:Generated_Source\PSoC4/CapSense_Filter.c **** ****************************************************************************//**
 720:Generated_Source\PSoC4/CapSense_Filter.c **** *
 721:Generated_Source\PSoC4/CapSense_Filter.c **** * \brief    Initializes the IIR filter history.
 722:Generated_Source\PSoC4/CapSense_Filter.c **** *
 723:Generated_Source\PSoC4/CapSense_Filter.c **** * \details  Initializes the IIR filter history.
 724:Generated_Source\PSoC4/CapSense_Filter.c **** *
 725:Generated_Source\PSoC4/CapSense_Filter.c **** * \param    ptrFilterHistObj The pointer to the filter RAM object of the sensor.
 726:Generated_Source\PSoC4/CapSense_Filter.c **** * \param    ptrSensorObj     The pointer to the sensor RAM object of the sensor.
 727:Generated_Source\PSoC4/CapSense_Filter.c **** * \param    wdType           Specifies the type of a widget.                                  
 728:Generated_Source\PSoC4/CapSense_Filter.c **** *
 729:Generated_Source\PSoC4/CapSense_Filter.c **** *******************************************************************************/
 730:Generated_Source\PSoC4/CapSense_Filter.c **** void CapSense_InitializeIIRInternal(CapSense_PTR_FILTER_VARIANT ptrFilterHistObj,
 731:Generated_Source\PSoC4/CapSense_Filter.c ****                                             CapSense_RAM_SNS_STRUCT *ptrSensorObj, uint32 wdType)
 732:Generated_Source\PSoC4/CapSense_Filter.c **** {
 285              		.loc 1 732 0
 286              		.cfi_startproc
 287              	.LVL41:
 288 0000 30B5     		push	{r4, r5, lr}
 289              		.cfi_def_cfa_offset 12
 290              		.cfi_offset 4, -12
 291              		.cfi_offset 5, -8
 292              		.cfi_offset 14, -4
 293              	.LVL42:
 733:Generated_Source\PSoC4/CapSense_Filter.c ****     uint32 channel;
 734:Generated_Source\PSoC4/CapSense_Filter.c **** 
 735:Generated_Source\PSoC4/CapSense_Filter.c ****     for(channel = CapSense_NUM_SCAN_FREQS; channel-- > 0u;)
 294              		.loc 1 735 0
 295 0002 0123     		mov	r3, #1
 296 0004 06E0     		b	.L20
 297              	.LVL43:
 298              	.L22:
 736:Generated_Source\PSoC4/CapSense_Filter.c ****     {
 737:Generated_Source\PSoC4/CapSense_Filter.c ****         if ((CapSense_WD_TYPE_ENUM)wdType != CapSense_WD_PROXIMITY_E)
 299              		.loc 1 737 0
 300 0006 D3B2     		uxtb	r3, r2
 301 0008 062B     		cmp	r3, #6
 302 000a 02D0     		beq	.L21
 738:Generated_Source\PSoC4/CapSense_Filter.c ****         {
 739:Generated_Source\PSoC4/CapSense_Filter.c ****             #if (CapSense_REGULAR_SENSOR_EN && CapSense_REGULAR_RC_IIR_FILTER_EN)
 740:Generated_Source\PSoC4/CapSense_Filter.c ****                 #if (CapSense_REGULAR_IIR_RC_TYPE == CapSense_IIR_FILTER_PERFORMANCE)
 741:Generated_Source\PSoC4/CapSense_Filter.c ****                     ptrFilterHistObj.ptrRegular->regularChannel[channel].iirHistory = ptrSensorObj-
 742:Generated_Source\PSoC4/CapSense_Filter.c ****                     ptrFilterHistObj.ptrRegular->regularChannel[channel].iirHistoryLow = 0u;
 743:Generated_Source\PSoC4/CapSense_Filter.c ****                 #else
 744:Generated_Source\PSoC4/CapSense_Filter.c ****                     ptrFilterHistObj.ptrRegular->regularChannel[channel].iirHistory = ptrSensorObj-
 303              		.loc 1 744 0
 304 000c 6300     		lsl	r3, r4, #1
 305 000e 5D5A     		ldrh	r5, [r3, r1]
 306 0010 1D52     		strh	r5, [r3, r0]
 307              	.L21:
 732:Generated_Source\PSoC4/CapSense_Filter.c ****     uint32 channel;
 308              		.loc 1 732 0 discriminator 1
 309 0012 231C     		mov	r3, r4
 310              	.LVL44:
 311              	.L20:
ARM GAS  C:\Users\RD\AppData\Local\Temp\ccQZrPXd.s 			page 20


 735:Generated_Source\PSoC4/CapSense_Filter.c ****     {
 312              		.loc 1 735 0 discriminator 1
 313 0014 5C1E     		sub	r4, r3, #1
 314              	.LVL45:
 315 0016 002B     		cmp	r3, #0
 316 0018 F5D1     		bne	.L22
 745:Generated_Source\PSoC4/CapSense_Filter.c ****                 #endif /* (CapSense_REGULAR_IIR_RC_TYPE == CapSense_IIR_FILTER_PERFORMANCE) */
 746:Generated_Source\PSoC4/CapSense_Filter.c ****             #endif /* (CapSense_REGULAR_SENSOR_EN) */    
 747:Generated_Source\PSoC4/CapSense_Filter.c ****         }
 748:Generated_Source\PSoC4/CapSense_Filter.c ****         else
 749:Generated_Source\PSoC4/CapSense_Filter.c ****         {
 750:Generated_Source\PSoC4/CapSense_Filter.c ****             #if (CapSense_PROXIMITY_SENSOR_EN && CapSense_PROX_RC_IIR_FILTER_EN)
 751:Generated_Source\PSoC4/CapSense_Filter.c ****                 #if (CapSense_PROX_IIR_RC_TYPE == CapSense_IIR_FILTER_PERFORMANCE)
 752:Generated_Source\PSoC4/CapSense_Filter.c ****                     ptrFilterHistObj.ptrProx->proxChannel[channel].iirHistory = ptrSensorObj->raw[c
 753:Generated_Source\PSoC4/CapSense_Filter.c ****                     ptrFilterHistObj.ptrProx->proxChannel[channel].iirHistoryLow = 0u;    
 754:Generated_Source\PSoC4/CapSense_Filter.c ****                 #else
 755:Generated_Source\PSoC4/CapSense_Filter.c ****                     ptrFilterHistObj.ptrProx->proxChannel[channel].iirHistory = ptrSensorObj->raw[c
 756:Generated_Source\PSoC4/CapSense_Filter.c ****                 #endif /* (CapSense_PROX_IIR_RC_TYPE == CapSense_IIR_FILTER_PERFORMANCE) */
 757:Generated_Source\PSoC4/CapSense_Filter.c ****             #endif /* (CapSense_PROX_SENSOR_EN) */
 758:Generated_Source\PSoC4/CapSense_Filter.c ****         }    
 759:Generated_Source\PSoC4/CapSense_Filter.c ****     }    
 760:Generated_Source\PSoC4/CapSense_Filter.c **** }
 317              		.loc 1 760 0
 318              		@ sp needed
 319              	.LVL46:
 320 001a 30BD     		pop	{r4, r5, pc}
 321              		.cfi_endproc
 322              	.LFE13:
 323              		.size	CapSense_InitializeIIRInternal, .-CapSense_InitializeIIRInternal
 324              		.section	.text.CapSense_FtInitialize,"ax",%progbits
 325              		.align	2
 326              		.global	CapSense_FtInitialize
 327              		.code	16
 328              		.thumb_func
 329              		.type	CapSense_FtInitialize, %function
 330              	CapSense_FtInitialize:
 331              	.LFB1:
  62:Generated_Source\PSoC4/CapSense_Filter.c ****     uint32 widgetId;
 332              		.loc 1 62 0
 333              		.cfi_startproc
 334 0000 F0B5     		push	{r4, r5, r6, r7, lr}
 335              		.cfi_def_cfa_offset 20
 336              		.cfi_offset 4, -20
 337              		.cfi_offset 5, -16
 338              		.cfi_offset 6, -12
 339              		.cfi_offset 7, -8
 340              		.cfi_offset 14, -4
 341 0002 4746     		mov	r7, r8
 342 0004 80B4     		push	{r7}
 343              		.cfi_def_cfa_offset 24
 344              		.cfi_offset 8, -24
 345              	.LVL47:
  76:Generated_Source\PSoC4/CapSense_Filter.c ****     {
 346              		.loc 1 76 0
 347 0006 0123     		mov	r3, #1
 348 0008 2CE0     		b	.L24
 349              	.LVL48:
ARM GAS  C:\Users\RD\AppData\Local\Temp\ccQZrPXd.s 			page 21


 350              	.L28:
  81:Generated_Source\PSoC4/CapSense_Filter.c ****         #endif /* #if CapSense_CSD_AUTOTUNE & CapSense_CSD_SS_TH_EN */
 351              		.loc 1 81 0
 352 000a B300     		lsl	r3, r6, #2
 353 000c 9B19     		add	r3, r3, r6
 354 000e DB00     		lsl	r3, r3, #3
 355 0010 174A     		ldr	r2, .L29
 356 0012 D318     		add	r3, r2, r3
 357 0014 5A68     		ldr	r2, [r3, #4]
 358 0016 9046     		mov	r8, r2
 359              	.LVL49:
  85:Generated_Source\PSoC4/CapSense_Filter.c ****     
 360              		.loc 1 85 0
 361 0018 DB8A     		ldrh	r3, [r3, #22]
 362              	.LVL50:
  87:Generated_Source\PSoC4/CapSense_Filter.c ****         {
 363              		.loc 1 87 0
 364 001a 1FE0     		b	.L25
 365              	.LVL51:
 366              	.L27:
  90:Generated_Source\PSoC4/CapSense_Filter.c ****             ptrSensor = &ptrSensor[sensorId];
 367              		.loc 1 90 0
 368 001c B300     		lsl	r3, r6, #2
 369 001e 9B19     		add	r3, r3, r6
 370 0020 DB00     		lsl	r3, r3, #3
 371 0022 134A     		ldr	r2, .L29
 372 0024 D318     		add	r3, r2, r3
 373              	.LVL52:
  91:Generated_Source\PSoC4/CapSense_Filter.c ****                         
 374              		.loc 1 91 0
 375 0026 E900     		lsl	r1, r5, #3
 376 0028 491B     		sub	r1, r1, r5
 377 002a 4900     		lsl	r1, r1, #1
 378 002c 9A68     		ldr	r2, [r3, #8]
 379 002e 5718     		add	r7, r2, r1
 380              	.LVL53:
  94:Generated_Source\PSoC4/CapSense_Filter.c **** 
 381              		.loc 1 94 0
 382 0030 D968     		ldr	r1, [r3, #12]
 383 0032 081C     		mov	r0, r1
 384              	.LVL54:
  99:Generated_Source\PSoC4/CapSense_Filter.c ****             #endif /* #if CapSense_CSD_AUTOTUNE & CapSense_CSD_SS_TH_EN */
 385              		.loc 1 99 0
 386 0034 6A00     		lsl	r2, r5, #1
 387 0036 5219     		add	r2, r2, r5
 388 0038 9200     		lsl	r2, r2, #2
 389 003a 1C6A     		ldr	r4, [r3, #32]
 390 003c A418     		add	r4, r4, r2
 391              	.LVL55:
 102:Generated_Source\PSoC4/CapSense_Filter.c ****             {
 392              		.loc 1 102 0
 393 003e 1A7E     		ldrb	r2, [r3, #24]
 394 0040 062A     		cmp	r2, #6
 395 0042 01D0     		beq	.L26
 105:Generated_Source\PSoC4/CapSense_Filter.c ****                 #endif /* (CapSense_REGULAR_SENSOR_EN) */
 396              		.loc 1 105 0
 397 0044 6800     		lsl	r0, r5, #1
ARM GAS  C:\Users\RD\AppData\Local\Temp\ccQZrPXd.s 			page 22


 398 0046 0818     		add	r0, r1, r0
 399              	.L26:
 116:Generated_Source\PSoC4/CapSense_Filter.c ****             #endif /* (CapSense_REGULAR_RC_IIR_FILTER_EN || CapSense_PROX_RC_IIR_FILTER_EN) */     
 400              		.loc 1 116 0
 401 0048 391C     		mov	r1, r7
 402 004a FFF7FEFF 		bl	CapSense_InitializeIIRInternal
 403              	.LVL56:
 131:Generated_Source\PSoC4/CapSense_Filter.c ****                 }
 404              		.loc 1 131 0
 405 004e 3888     		ldrh	r0, [r7]
 406 0050 4346     		mov	r3, r8
 407 0052 198A     		ldrh	r1, [r3, #16]
 408 0054 221C     		mov	r2, r4
 409 0056 FFF7FEFF 		bl	SmartSense_InitializeNoiseEnvelope
 410              	.LVL57:
  87:Generated_Source\PSoC4/CapSense_Filter.c ****         {
 411              		.loc 1 87 0
 412 005a 2B1C     		mov	r3, r5
 413              	.LVL58:
 414              	.L25:
  87:Generated_Source\PSoC4/CapSense_Filter.c ****         {
 415              		.loc 1 87 0 is_stmt 0 discriminator 1
 416 005c 5D1E     		sub	r5, r3, #1
 417              	.LVL59:
 418 005e 002B     		cmp	r3, #0
 419 0060 DCD1     		bne	.L27
  76:Generated_Source\PSoC4/CapSense_Filter.c ****     {
 420              		.loc 1 76 0 is_stmt 1
 421 0062 331C     		mov	r3, r6
 422              	.LVL60:
 423              	.L24:
  76:Generated_Source\PSoC4/CapSense_Filter.c ****     {
 424              		.loc 1 76 0 is_stmt 0 discriminator 1
 425 0064 5E1E     		sub	r6, r3, #1
 426              	.LVL61:
 427 0066 002B     		cmp	r3, #0
 428 0068 CFD1     		bne	.L28
 136:Generated_Source\PSoC4/CapSense_Filter.c **** 
 429              		.loc 1 136 0 is_stmt 1
 430              		@ sp needed
 431              	.LVL62:
 432 006a 04BC     		pop	{r2}
 433 006c 9046     		mov	r8, r2
 434 006e F0BD     		pop	{r4, r5, r6, r7, pc}
 435              	.L30:
 436              		.align	2
 437              	.L29:
 438 0070 00000000 		.word	CapSense_dsFlash
 439              		.cfi_endproc
 440              	.LFE1:
 441              		.size	CapSense_FtInitialize, .-CapSense_FtInitialize
 442              		.section	.text.CapSense_InitializeIIR,"ax",%progbits
 443              		.align	2
 444              		.global	CapSense_InitializeIIR
 445              		.code	16
 446              		.thumb_func
 447              		.type	CapSense_InitializeIIR, %function
ARM GAS  C:\Users\RD\AppData\Local\Temp\ccQZrPXd.s 			page 23


 448              	CapSense_InitializeIIR:
 449              	.LFB11:
 645:Generated_Source\PSoC4/CapSense_Filter.c ****     CapSense_FLASH_WD_STRUCT const *ptrWidget = &CapSense_dsFlash.wdgtArray[widgetId];      
 450              		.loc 1 645 0
 451              		.cfi_startproc
 452              	.LVL63:
 453 0000 F8B5     		push	{r3, r4, r5, r6, r7, lr}
 454              		.cfi_def_cfa_offset 24
 455              		.cfi_offset 3, -24
 456              		.cfi_offset 4, -20
 457              		.cfi_offset 5, -16
 458              		.cfi_offset 6, -12
 459              		.cfi_offset 7, -8
 460              		.cfi_offset 14, -4
 461              	.LVL64:
 651:Generated_Source\PSoC4/CapSense_Filter.c ****     ptrSensor = &ptrSensor[sensorId];
 462              		.loc 1 651 0
 463 0002 0C4E     		ldr	r6, .L33
 464 0004 8300     		lsl	r3, r0, #2
 465 0006 1A18     		add	r2, r3, r0
 466 0008 D200     		lsl	r2, r2, #3
 467 000a B518     		add	r5, r6, r2
 468              	.LVL65:
 652:Generated_Source\PSoC4/CapSense_Filter.c ****         
 469              		.loc 1 652 0
 470 000c CA00     		lsl	r2, r1, #3
 471 000e 521A     		sub	r2, r2, r1
 472 0010 5200     		lsl	r2, r2, #1
 473 0012 AC68     		ldr	r4, [r5, #8]
 474 0014 A418     		add	r4, r4, r2
 475              	.LVL66:
 655:Generated_Source\PSoC4/CapSense_Filter.c ****     
 476              		.loc 1 655 0
 477 0016 EF68     		ldr	r7, [r5, #12]
 478 0018 3D1C     		mov	r5, r7
 479              	.LVL67:
 657:Generated_Source\PSoC4/CapSense_Filter.c ****     {
 480              		.loc 1 657 0
 481 001a 1B18     		add	r3, r3, r0
 482 001c DB00     		lsl	r3, r3, #3
 483 001e F318     		add	r3, r6, r3
 484 0020 1A7E     		ldrb	r2, [r3, #24]
 485 0022 062A     		cmp	r2, #6
 486 0024 01D0     		beq	.L32
 660:Generated_Source\PSoC4/CapSense_Filter.c ****         #endif /* (CapSense_REGULAR_SENSOR_EN) */
 487              		.loc 1 660 0
 488 0026 4900     		lsl	r1, r1, #1
 489              	.LVL68:
 490 0028 7D18     		add	r5, r7, r1
 491              	.L32:
 492              	.LVL69:
 670:Generated_Source\PSoC4/CapSense_Filter.c **** }
 493              		.loc 1 670 0
 494 002a 281C     		mov	r0, r5
 495              	.LVL70:
 496 002c 211C     		mov	r1, r4
 497 002e FFF7FEFF 		bl	CapSense_InitializeIIRInternal
ARM GAS  C:\Users\RD\AppData\Local\Temp\ccQZrPXd.s 			page 24


 498              	.LVL71:
 671:Generated_Source\PSoC4/CapSense_Filter.c **** 
 499              		.loc 1 671 0
 500              		@ sp needed
 501              	.LVL72:
 502              	.LVL73:
 503              	.LVL74:
 504 0032 F8BD     		pop	{r3, r4, r5, r6, r7, pc}
 505              	.L34:
 506              		.align	2
 507              	.L33:
 508 0034 00000000 		.word	CapSense_dsFlash
 509              		.cfi_endproc
 510              	.LFE11:
 511              		.size	CapSense_InitializeIIR, .-CapSense_InitializeIIR
 512              		.section	.text.CapSense_RunNoiseEnvelope,"ax",%progbits
 513              		.align	2
 514              		.global	CapSense_RunNoiseEnvelope
 515              		.code	16
 516              		.thumb_func
 517              		.type	CapSense_RunNoiseEnvelope, %function
 518              	CapSense_RunNoiseEnvelope:
 519              	.LFB17:
 761:Generated_Source\PSoC4/CapSense_Filter.c ****  
 762:Generated_Source\PSoC4/CapSense_Filter.c **** 
 763:Generated_Source\PSoC4/CapSense_Filter.c **** /*******************************************************************************
 764:Generated_Source\PSoC4/CapSense_Filter.c **** * Function Name: CapSense_RunIIRInternal
 765:Generated_Source\PSoC4/CapSense_Filter.c **** ****************************************************************************//**
 766:Generated_Source\PSoC4/CapSense_Filter.c **** *
 767:Generated_Source\PSoC4/CapSense_Filter.c **** * \brief    Run the IIR filter.
 768:Generated_Source\PSoC4/CapSense_Filter.c **** *
 769:Generated_Source\PSoC4/CapSense_Filter.c **** * \details  Run the IIR filter.
 770:Generated_Source\PSoC4/CapSense_Filter.c **** *
 771:Generated_Source\PSoC4/CapSense_Filter.c **** * \param    ptrFilterHistObj The pointer to the filter RAM object of the sensor.
 772:Generated_Source\PSoC4/CapSense_Filter.c **** * \param    ptrSensorObj     The pointer to the sensor RAM object of the sensor.
 773:Generated_Source\PSoC4/CapSense_Filter.c **** * \param    wdType           Specifies the type of a widget.
 774:Generated_Source\PSoC4/CapSense_Filter.c **** *
 775:Generated_Source\PSoC4/CapSense_Filter.c **** *******************************************************************************/    
 776:Generated_Source\PSoC4/CapSense_Filter.c **** void CapSense_RunIIRInternal(CapSense_PTR_FILTER_VARIANT ptrFilterHistObj, 
 777:Generated_Source\PSoC4/CapSense_Filter.c ****                                      CapSense_RAM_SNS_STRUCT *ptrSensorObj, uint32 wdType)
 778:Generated_Source\PSoC4/CapSense_Filter.c **** {        
 779:Generated_Source\PSoC4/CapSense_Filter.c ****     uint32 channel;
 780:Generated_Source\PSoC4/CapSense_Filter.c ****     uint32 temp;
 781:Generated_Source\PSoC4/CapSense_Filter.c **** 
 782:Generated_Source\PSoC4/CapSense_Filter.c ****     for(channel = CapSense_NUM_SCAN_FREQS; channel-- > 0u;)
 783:Generated_Source\PSoC4/CapSense_Filter.c ****     {
 784:Generated_Source\PSoC4/CapSense_Filter.c ****         if ((CapSense_WD_TYPE_ENUM)wdType != CapSense_WD_PROXIMITY_E)
 785:Generated_Source\PSoC4/CapSense_Filter.c ****         {
 786:Generated_Source\PSoC4/CapSense_Filter.c ****             #if (CapSense_REGULAR_SENSOR_EN && CapSense_REGULAR_RC_IIR_FILTER_EN)
 787:Generated_Source\PSoC4/CapSense_Filter.c ****                 #if (CapSense_REGULAR_IIR_RC_TYPE == CapSense_IIR_FILTER_PERFORMANCE)
 788:Generated_Source\PSoC4/CapSense_Filter.c ****                     temp = ((uint32)ptrFilterHistObj.ptrRegular->regularChannel[channel].iirHistory
 789:Generated_Source\PSoC4/CapSense_Filter.c ****                     temp |= ptrFilterHistObj.ptrRegular->regularChannel[channel].iirHistoryLow;
 790:Generated_Source\PSoC4/CapSense_Filter.c ****                     temp = CapSense_FtIIR1stOrder((uint32)ptrSensorObj->raw[channel],
 791:Generated_Source\PSoC4/CapSense_Filter.c ****                                                         temp,
 792:Generated_Source\PSoC4/CapSense_Filter.c ****                                                         CapSense_REGULAR_IIR_RC_N,
 793:Generated_Source\PSoC4/CapSense_Filter.c ****                                                         CapSense_REGULAR_IIR_RC_SHIFT);
 794:Generated_Source\PSoC4/CapSense_Filter.c ****                     ptrFilterHistObj.ptrRegular->regularChannel[channel].iirHistory = LO16(temp >>C
ARM GAS  C:\Users\RD\AppData\Local\Temp\ccQZrPXd.s 			page 25


 795:Generated_Source\PSoC4/CapSense_Filter.c ****                     ptrFilterHistObj.ptrRegular->regularChannel[channel].iirHistoryLow = LO8(temp);
 796:Generated_Source\PSoC4/CapSense_Filter.c ****                     ptrSensorObj->raw[channel] = LO16(temp >>CapSense_REGULAR_IIR_RC_SHIFT);
 797:Generated_Source\PSoC4/CapSense_Filter.c ****                 #else
 798:Generated_Source\PSoC4/CapSense_Filter.c ****                     temp =CapSense_FtIIR1stOrder((uint32)ptrSensorObj->raw[channel],
 799:Generated_Source\PSoC4/CapSense_Filter.c ****                                                         (uint32)ptrFilterHistObj.ptrRegular->regula
 800:Generated_Source\PSoC4/CapSense_Filter.c ****                                                         CapSense_REGULAR_IIR_RC_N,
 801:Generated_Source\PSoC4/CapSense_Filter.c ****                                                         CapSense_REGULAR_IIR_RC_SHIFT);
 802:Generated_Source\PSoC4/CapSense_Filter.c ****                     ptrFilterHistObj.ptrRegular->regularChannel[channel].iirHistory = LO16(temp);
 803:Generated_Source\PSoC4/CapSense_Filter.c ****                     ptrSensorObj->raw[channel] = LO16(temp >>CapSense_REGULAR_IIR_RC_SHIFT);
 804:Generated_Source\PSoC4/CapSense_Filter.c ****                 #endif /* (CapSense_REGULAR_IIR_RC_TYPE == CapSense_IIR_FILTER_PERFORMANCE) */
 805:Generated_Source\PSoC4/CapSense_Filter.c ****             #endif /* (CapSense_REGULAR_SENSOR_EN) */    
 806:Generated_Source\PSoC4/CapSense_Filter.c ****         }
 807:Generated_Source\PSoC4/CapSense_Filter.c ****         else
 808:Generated_Source\PSoC4/CapSense_Filter.c ****         {
 809:Generated_Source\PSoC4/CapSense_Filter.c ****             #if (CapSense_PROXIMITY_SENSOR_EN && CapSense_PROX_RC_IIR_FILTER_EN)
 810:Generated_Source\PSoC4/CapSense_Filter.c ****                 #if (CapSense_PROX_IIR_RC_TYPE == CapSense_IIR_FILTER_PERFORMANCE)
 811:Generated_Source\PSoC4/CapSense_Filter.c ****                     temp =  ptrFilterHistObj.ptrProx->proxChannel[channel].iirHistory << CapSense_P
 812:Generated_Source\PSoC4/CapSense_Filter.c ****                     temp |= ptrFilterHistObj.ptrProx->proxChannel[channel].iirHistoryLow;
 813:Generated_Source\PSoC4/CapSense_Filter.c ****                     temp =CapSense_FtIIR1stOrder((uint32)ptrSensorObj->raw[channel],
 814:Generated_Source\PSoC4/CapSense_Filter.c ****                                                         temp,
 815:Generated_Source\PSoC4/CapSense_Filter.c ****                                                         CapSense_PROX_IIR_RC_N,
 816:Generated_Source\PSoC4/CapSense_Filter.c ****                                                         CapSense_PROX_IIR_RC_SHIFT);
 817:Generated_Source\PSoC4/CapSense_Filter.c ****                     ptrFilterHistObj.ptrProx->proxChannel[channel].iirHistory = LO16(temp >>CapSens
 818:Generated_Source\PSoC4/CapSense_Filter.c ****                     ptrFilterHistObj.ptrProx->proxChannel[channel].iirHistoryLow = LO8(temp);
 819:Generated_Source\PSoC4/CapSense_Filter.c ****                     ptrSensorObj->raw[channel] = LO16(temp >>CapSense_PROX_IIR_RC_SHIFT);
 820:Generated_Source\PSoC4/CapSense_Filter.c ****                 #else
 821:Generated_Source\PSoC4/CapSense_Filter.c ****                     temp =CapSense_FtIIR1stOrder((uint32)ptrSensorObj->raw[channel],
 822:Generated_Source\PSoC4/CapSense_Filter.c ****                                                         (uint32)ptrFilterHistObj.ptrProx->proxChann
 823:Generated_Source\PSoC4/CapSense_Filter.c ****                                                         CapSense_PROX_IIR_RC_N,
 824:Generated_Source\PSoC4/CapSense_Filter.c ****                                                         CapSense_PROX_IIR_RC_SHIFT);
 825:Generated_Source\PSoC4/CapSense_Filter.c ****                     ptrFilterHistObj.ptrProx->proxChannel[channel].iirHistory = LO16(temp);
 826:Generated_Source\PSoC4/CapSense_Filter.c ****                     ptrSensorObj->raw[channel] = LO16(temp >>CapSense_PROX_IIR_RC_SHIFT);
 827:Generated_Source\PSoC4/CapSense_Filter.c ****                 #endif /* (CapSense_PROX_IIR_RC_TYPE == CapSense_IIR_FILTER_PERFORMANCE) */
 828:Generated_Source\PSoC4/CapSense_Filter.c ****             #endif /* (CapSense_PROX_SENSOR_EN) */
 829:Generated_Source\PSoC4/CapSense_Filter.c ****         }    
 830:Generated_Source\PSoC4/CapSense_Filter.c ****     }        
 831:Generated_Source\PSoC4/CapSense_Filter.c **** }    
 832:Generated_Source\PSoC4/CapSense_Filter.c **** #endif /* #if (CapSense_REGULAR_RC_IIR_FILTER_EN || CapSense_PROX_RC_IIR_FILTER_EN) */
 833:Generated_Source\PSoC4/CapSense_Filter.c **** 
 834:Generated_Source\PSoC4/CapSense_Filter.c **** 
 835:Generated_Source\PSoC4/CapSense_Filter.c **** #if (CapSense_REGULAR_RC_MEDIAN_FILTER_EN || CapSense_PROX_RC_MEDIAN_FILTER_EN)
 836:Generated_Source\PSoC4/CapSense_Filter.c **** 
 837:Generated_Source\PSoC4/CapSense_Filter.c **** /*******************************************************************************
 838:Generated_Source\PSoC4/CapSense_Filter.c **** * Function Name: CapSense_InitializeMedian
 839:Generated_Source\PSoC4/CapSense_Filter.c **** ****************************************************************************//**
 840:Generated_Source\PSoC4/CapSense_Filter.c **** *
 841:Generated_Source\PSoC4/CapSense_Filter.c **** * \brief    Initializes the Median filter history.
 842:Generated_Source\PSoC4/CapSense_Filter.c **** *
 843:Generated_Source\PSoC4/CapSense_Filter.c **** * \details  Initializes the Median filter history.
 844:Generated_Source\PSoC4/CapSense_Filter.c **** *
 845:Generated_Source\PSoC4/CapSense_Filter.c **** * \param    widgetId Specifies the ID number of the widget.
 846:Generated_Source\PSoC4/CapSense_Filter.c **** * \param    sensorId Specifies the ID number of the sensor in the widget.
 847:Generated_Source\PSoC4/CapSense_Filter.c **** *
 848:Generated_Source\PSoC4/CapSense_Filter.c **** *******************************************************************************/
 849:Generated_Source\PSoC4/CapSense_Filter.c **** void CapSense_InitializeMedian(uint32 widgetId, uint32 sensorId)
 850:Generated_Source\PSoC4/CapSense_Filter.c **** {
 851:Generated_Source\PSoC4/CapSense_Filter.c ****     CapSense_FLASH_WD_STRUCT const *ptrWidget = &CapSense_dsFlash.wdgtArray[widgetId];      
ARM GAS  C:\Users\RD\AppData\Local\Temp\ccQZrPXd.s 			page 26


 852:Generated_Source\PSoC4/CapSense_Filter.c ****     CapSense_RAM_SNS_STRUCT *ptrSensor = NULL;    
 853:Generated_Source\PSoC4/CapSense_Filter.c ****     CapSense_PTR_FILTER_VARIANT ptrFilterHistObj; 
 854:Generated_Source\PSoC4/CapSense_Filter.c ****               
 855:Generated_Source\PSoC4/CapSense_Filter.c ****     /* Find pointer to specified sensor object */     
 856:Generated_Source\PSoC4/CapSense_Filter.c ****     ptrSensor = ptrWidget->ptr2SnsRam;
 857:Generated_Source\PSoC4/CapSense_Filter.c ****     ptrSensor = &ptrSensor[sensorId];
 858:Generated_Source\PSoC4/CapSense_Filter.c ****     
 859:Generated_Source\PSoC4/CapSense_Filter.c ****     /* Find pointer to specified filter sensor object */     
 860:Generated_Source\PSoC4/CapSense_Filter.c ****     ptrFilterHistObj.ptr = ptrWidget->ptr2FltrHistory;
 861:Generated_Source\PSoC4/CapSense_Filter.c ****     
 862:Generated_Source\PSoC4/CapSense_Filter.c ****     if ((CapSense_WD_TYPE_ENUM)ptrWidget->wdgtType != CapSense_WD_PROXIMITY_E)
 863:Generated_Source\PSoC4/CapSense_Filter.c ****     {
 864:Generated_Source\PSoC4/CapSense_Filter.c ****         #if (CapSense_REGULAR_SENSOR_EN)
 865:Generated_Source\PSoC4/CapSense_Filter.c ****             ptrFilterHistObj.ptrRegular = &ptrFilterHistObj.ptrRegular[sensorId];
 866:Generated_Source\PSoC4/CapSense_Filter.c ****         #endif /* (CapSense_REGULAR_SENSOR_EN) */
 867:Generated_Source\PSoC4/CapSense_Filter.c ****     }
 868:Generated_Source\PSoC4/CapSense_Filter.c ****     else
 869:Generated_Source\PSoC4/CapSense_Filter.c ****     {
 870:Generated_Source\PSoC4/CapSense_Filter.c ****         #if (CapSense_PROXIMITY_SENSOR_EN)
 871:Generated_Source\PSoC4/CapSense_Filter.c ****             ptrFilterHistObj.ptrProx = &ptrFilterHistObj.ptrProx[sensorId];
 872:Generated_Source\PSoC4/CapSense_Filter.c ****         #endif /* (CapSense_PROXIMITY_SENSOR_EN) */
 873:Generated_Source\PSoC4/CapSense_Filter.c ****     }
 874:Generated_Source\PSoC4/CapSense_Filter.c ****     
 875:Generated_Source\PSoC4/CapSense_Filter.c ****     CapSense_InitializeMedianInternal(ptrFilterHistObj, ptrSensor, (uint32)ptrWidget->wdgtType);
 876:Generated_Source\PSoC4/CapSense_Filter.c **** }     
 877:Generated_Source\PSoC4/CapSense_Filter.c **** 
 878:Generated_Source\PSoC4/CapSense_Filter.c **** 
 879:Generated_Source\PSoC4/CapSense_Filter.c **** /*******************************************************************************
 880:Generated_Source\PSoC4/CapSense_Filter.c **** * Function Name: CapSense_RunMedian
 881:Generated_Source\PSoC4/CapSense_Filter.c **** ****************************************************************************//**
 882:Generated_Source\PSoC4/CapSense_Filter.c **** *
 883:Generated_Source\PSoC4/CapSense_Filter.c **** * \brief    Executes the Median filter algorithm on a sensor indicated by an input 
 884:Generated_Source\PSoC4/CapSense_Filter.c **** *           parameter. 
 885:Generated_Source\PSoC4/CapSense_Filter.c **** *
 886:Generated_Source\PSoC4/CapSense_Filter.c **** * \details  Executes the Median filter algorithm on a sensor indicated by an input 
 887:Generated_Source\PSoC4/CapSense_Filter.c **** *           parameter. 
 888:Generated_Source\PSoC4/CapSense_Filter.c **** *
 889:Generated_Source\PSoC4/CapSense_Filter.c **** * \param    widgetId Specifies the ID number of the widget.
 890:Generated_Source\PSoC4/CapSense_Filter.c **** * \param    sensorId Specifies the ID number of the sensor in the widget.
 891:Generated_Source\PSoC4/CapSense_Filter.c **** *
 892:Generated_Source\PSoC4/CapSense_Filter.c **** *******************************************************************************/
 893:Generated_Source\PSoC4/CapSense_Filter.c **** void CapSense_RunMedian(uint32 widgetId, uint32 sensorId)
 894:Generated_Source\PSoC4/CapSense_Filter.c **** {
 895:Generated_Source\PSoC4/CapSense_Filter.c ****     CapSense_FLASH_WD_STRUCT const *ptrWidget = &CapSense_dsFlash.wdgtArray[widgetId];      
 896:Generated_Source\PSoC4/CapSense_Filter.c ****     CapSense_RAM_SNS_STRUCT *ptrSensor = NULL;    
 897:Generated_Source\PSoC4/CapSense_Filter.c ****     CapSense_PTR_FILTER_VARIANT ptrFilterHistObj; 
 898:Generated_Source\PSoC4/CapSense_Filter.c ****               
 899:Generated_Source\PSoC4/CapSense_Filter.c ****     /* Find pointer to specified sensor object */     
 900:Generated_Source\PSoC4/CapSense_Filter.c ****     ptrSensor = ptrWidget->ptr2SnsRam;
 901:Generated_Source\PSoC4/CapSense_Filter.c ****     ptrSensor = &ptrSensor[sensorId];
 902:Generated_Source\PSoC4/CapSense_Filter.c ****     
 903:Generated_Source\PSoC4/CapSense_Filter.c ****     /* Find pointer to specified filter sensor object */     
 904:Generated_Source\PSoC4/CapSense_Filter.c ****     ptrFilterHistObj.ptr = ptrWidget->ptr2FltrHistory;
 905:Generated_Source\PSoC4/CapSense_Filter.c ****     
 906:Generated_Source\PSoC4/CapSense_Filter.c ****     if ((CapSense_WD_TYPE_ENUM)ptrWidget->wdgtType != CapSense_WD_PROXIMITY_E)
 907:Generated_Source\PSoC4/CapSense_Filter.c ****     {
 908:Generated_Source\PSoC4/CapSense_Filter.c ****         #if (CapSense_REGULAR_SENSOR_EN)
ARM GAS  C:\Users\RD\AppData\Local\Temp\ccQZrPXd.s 			page 27


 909:Generated_Source\PSoC4/CapSense_Filter.c ****             ptrFilterHistObj.ptrRegular = &ptrFilterHistObj.ptrRegular[sensorId];
 910:Generated_Source\PSoC4/CapSense_Filter.c ****         #endif /* (CapSense_REGULAR_SENSOR_EN) */
 911:Generated_Source\PSoC4/CapSense_Filter.c ****     }
 912:Generated_Source\PSoC4/CapSense_Filter.c ****     else
 913:Generated_Source\PSoC4/CapSense_Filter.c ****     {
 914:Generated_Source\PSoC4/CapSense_Filter.c ****         #if (CapSense_PROXIMITY_SENSOR_EN)
 915:Generated_Source\PSoC4/CapSense_Filter.c ****             ptrFilterHistObj.ptrProx = &ptrFilterHistObj.ptrProx[sensorId];
 916:Generated_Source\PSoC4/CapSense_Filter.c ****         #endif /* (CapSense_PROXIMITY_SENSOR_EN) */
 917:Generated_Source\PSoC4/CapSense_Filter.c ****     }
 918:Generated_Source\PSoC4/CapSense_Filter.c ****     
 919:Generated_Source\PSoC4/CapSense_Filter.c ****     CapSense_RunMedianInternal(ptrFilterHistObj, ptrSensor, (uint32)ptrWidget->wdgtType);
 920:Generated_Source\PSoC4/CapSense_Filter.c **** }
 921:Generated_Source\PSoC4/CapSense_Filter.c ****    
 922:Generated_Source\PSoC4/CapSense_Filter.c **** 
 923:Generated_Source\PSoC4/CapSense_Filter.c **** /*******************************************************************************
 924:Generated_Source\PSoC4/CapSense_Filter.c **** * Function Name: CapSense_InitializeMedianInternal
 925:Generated_Source\PSoC4/CapSense_Filter.c **** ****************************************************************************//**
 926:Generated_Source\PSoC4/CapSense_Filter.c **** *
 927:Generated_Source\PSoC4/CapSense_Filter.c **** * \brief    Initializes the Median filter.
 928:Generated_Source\PSoC4/CapSense_Filter.c **** *
 929:Generated_Source\PSoC4/CapSense_Filter.c **** * \details  Initializes the Median filter.
 930:Generated_Source\PSoC4/CapSense_Filter.c **** *
 931:Generated_Source\PSoC4/CapSense_Filter.c **** * \param    ptrFilterHistObj The pointer to the filter RAM object of the sensor.
 932:Generated_Source\PSoC4/CapSense_Filter.c **** * \param    ptrSensorObj     The pointer to the sensor RAM object of the sensor.
 933:Generated_Source\PSoC4/CapSense_Filter.c **** * \param    wdType           Specifies the type of a widget.
 934:Generated_Source\PSoC4/CapSense_Filter.c **** *
 935:Generated_Source\PSoC4/CapSense_Filter.c **** *******************************************************************************/
 936:Generated_Source\PSoC4/CapSense_Filter.c **** void CapSense_InitializeMedianInternal(CapSense_PTR_FILTER_VARIANT ptrFilterHistObj,
 937:Generated_Source\PSoC4/CapSense_Filter.c ****                                                CapSense_RAM_SNS_STRUCT *ptrSensorObj, uint32 wdType
 938:Generated_Source\PSoC4/CapSense_Filter.c **** {
 939:Generated_Source\PSoC4/CapSense_Filter.c ****     uint32 channel;
 940:Generated_Source\PSoC4/CapSense_Filter.c **** 
 941:Generated_Source\PSoC4/CapSense_Filter.c ****     for(channel = CapSense_NUM_SCAN_FREQS; channel-- > 0u;)
 942:Generated_Source\PSoC4/CapSense_Filter.c ****     {
 943:Generated_Source\PSoC4/CapSense_Filter.c ****         if ((CapSense_WD_TYPE_ENUM)wdType != CapSense_WD_PROXIMITY_E)
 944:Generated_Source\PSoC4/CapSense_Filter.c ****         {
 945:Generated_Source\PSoC4/CapSense_Filter.c ****             #if (CapSense_REGULAR_SENSOR_EN && CapSense_REGULAR_RC_MEDIAN_FILTER_EN)
 946:Generated_Source\PSoC4/CapSense_Filter.c ****                 ptrFilterHistObj.ptrRegular->regularChannel[channel].medHistory[0u] = ptrSensorObj-
 947:Generated_Source\PSoC4/CapSense_Filter.c ****                 ptrFilterHistObj.ptrRegular->regularChannel[channel].medHistory[1u] = ptrSensorObj-
 948:Generated_Source\PSoC4/CapSense_Filter.c ****             #endif /* (CapSense_REGULAR_SENSOR_EN) */
 949:Generated_Source\PSoC4/CapSense_Filter.c ****         }
 950:Generated_Source\PSoC4/CapSense_Filter.c ****         else
 951:Generated_Source\PSoC4/CapSense_Filter.c ****         {
 952:Generated_Source\PSoC4/CapSense_Filter.c ****             #if (CapSense_PROXIMITY_SENSOR_EN && CapSense_PROX_RC_MEDIAN_FILTER_EN)
 953:Generated_Source\PSoC4/CapSense_Filter.c ****                 ptrFilterHistObj.ptrProx->proxChannel[channel].medHistory[0u] = ptrSensorObj->raw[c
 954:Generated_Source\PSoC4/CapSense_Filter.c ****                 ptrFilterHistObj.ptrProx->proxChannel[channel].medHistory[1u] = ptrSensorObj->raw[c
 955:Generated_Source\PSoC4/CapSense_Filter.c ****             #endif /* (CapSense_PROXIMITY_SENSOR_EN) */               
 956:Generated_Source\PSoC4/CapSense_Filter.c ****         }
 957:Generated_Source\PSoC4/CapSense_Filter.c ****     }
 958:Generated_Source\PSoC4/CapSense_Filter.c **** }
 959:Generated_Source\PSoC4/CapSense_Filter.c **** 
 960:Generated_Source\PSoC4/CapSense_Filter.c **** 
 961:Generated_Source\PSoC4/CapSense_Filter.c **** /*******************************************************************************
 962:Generated_Source\PSoC4/CapSense_Filter.c **** * Function Name: CapSense_RunMedianInternal
 963:Generated_Source\PSoC4/CapSense_Filter.c **** ****************************************************************************//**
 964:Generated_Source\PSoC4/CapSense_Filter.c **** *
 965:Generated_Source\PSoC4/CapSense_Filter.c **** * \brief    Runs the Median filter.
ARM GAS  C:\Users\RD\AppData\Local\Temp\ccQZrPXd.s 			page 28


 966:Generated_Source\PSoC4/CapSense_Filter.c **** *
 967:Generated_Source\PSoC4/CapSense_Filter.c **** * \details  Runs the Median filter.
 968:Generated_Source\PSoC4/CapSense_Filter.c **** *
 969:Generated_Source\PSoC4/CapSense_Filter.c **** * \param    ptrFilterHistObj The pointer to the filter RAM object of the sensor.
 970:Generated_Source\PSoC4/CapSense_Filter.c **** * \param    ptrSensorObj     The pointer to the sensor RAM object of the sensor.
 971:Generated_Source\PSoC4/CapSense_Filter.c **** * \param    wdType           Specifies the type of a widget.
 972:Generated_Source\PSoC4/CapSense_Filter.c **** *
 973:Generated_Source\PSoC4/CapSense_Filter.c **** *******************************************************************************/
 974:Generated_Source\PSoC4/CapSense_Filter.c **** void CapSense_RunMedianInternal(CapSense_PTR_FILTER_VARIANT ptrFilterHistObj,
 975:Generated_Source\PSoC4/CapSense_Filter.c ****                                         CapSense_RAM_SNS_STRUCT *ptrSensorObj, uint32 wdType)
 976:Generated_Source\PSoC4/CapSense_Filter.c **** {
 977:Generated_Source\PSoC4/CapSense_Filter.c ****     uint32 channel;
 978:Generated_Source\PSoC4/CapSense_Filter.c ****     
 979:Generated_Source\PSoC4/CapSense_Filter.c ****     #if ((CapSense_REGULAR_SENSOR_EN && CapSense_REGULAR_RC_MEDIAN_FILTER_EN) || \
 980:Generated_Source\PSoC4/CapSense_Filter.c ****          (CapSense_PROXIMITY_SENSOR_EN && CapSense_PROX_RC_MEDIAN_FILTER_EN))
 981:Generated_Source\PSoC4/CapSense_Filter.c ****         uint32 temp;
 982:Generated_Source\PSoC4/CapSense_Filter.c ****     #endif
 983:Generated_Source\PSoC4/CapSense_Filter.c ****     
 984:Generated_Source\PSoC4/CapSense_Filter.c ****     for(channel = CapSense_NUM_SCAN_FREQS; channel-- > 0u;)
 985:Generated_Source\PSoC4/CapSense_Filter.c ****     {    
 986:Generated_Source\PSoC4/CapSense_Filter.c ****         if ((CapSense_WD_TYPE_ENUM)wdType != CapSense_WD_PROXIMITY_E)
 987:Generated_Source\PSoC4/CapSense_Filter.c ****         {                                             
 988:Generated_Source\PSoC4/CapSense_Filter.c ****             #if (CapSense_REGULAR_SENSOR_EN && CapSense_REGULAR_RC_MEDIAN_FILTER_EN)
 989:Generated_Source\PSoC4/CapSense_Filter.c ****                 temp = CapSense_FtMedian((uint32)ptrSensorObj->raw[channel],\
 990:Generated_Source\PSoC4/CapSense_Filter.c ****                                                  (uint32)ptrFilterHistObj.ptrRegular->regularChanne
 991:Generated_Source\PSoC4/CapSense_Filter.c ****                                                  (uint32)ptrFilterHistObj.ptrRegular->regularChanne
 992:Generated_Source\PSoC4/CapSense_Filter.c ****                 ptrFilterHistObj.ptrRegular->regularChannel[channel].medHistory[1u] = \
 993:Generated_Source\PSoC4/CapSense_Filter.c ****                 ptrFilterHistObj.ptrRegular->regularChannel[channel].medHistory[0u];
 994:Generated_Source\PSoC4/CapSense_Filter.c ****                 ptrFilterHistObj.ptrRegular->regularChannel[channel].medHistory[0u] = ptrSensorObj-
 995:Generated_Source\PSoC4/CapSense_Filter.c ****                 ptrSensorObj->raw[channel] = LO16(temp);
 996:Generated_Source\PSoC4/CapSense_Filter.c ****             #endif /* (CapSense_REGULAR_SENSOR_EN) */     
 997:Generated_Source\PSoC4/CapSense_Filter.c ****         }
 998:Generated_Source\PSoC4/CapSense_Filter.c ****         else 
 999:Generated_Source\PSoC4/CapSense_Filter.c ****         {                   
1000:Generated_Source\PSoC4/CapSense_Filter.c ****             #if (CapSense_PROXIMITY_SENSOR_EN && CapSense_PROX_RC_MEDIAN_FILTER_EN)
1001:Generated_Source\PSoC4/CapSense_Filter.c ****                 temp = CapSense_FtMedian((uint32)ptrSensorObj->raw[channel],\
1002:Generated_Source\PSoC4/CapSense_Filter.c ****                                                  (uint32)ptrFilterHistObj.ptrProx->proxChannel[chan
1003:Generated_Source\PSoC4/CapSense_Filter.c ****                                                  (uint32)ptrFilterHistObj.ptrProx->proxChannel[chan
1004:Generated_Source\PSoC4/CapSense_Filter.c ****                 ptrFilterHistObj.ptrProx->proxChannel[channel].medHistory[1u] = \
1005:Generated_Source\PSoC4/CapSense_Filter.c ****                 ptrFilterHistObj.ptrProx->proxChannel[channel].medHistory[0u];
1006:Generated_Source\PSoC4/CapSense_Filter.c ****                 ptrFilterHistObj.ptrProx->proxChannel[channel].medHistory[0u] = ptrSensorObj->raw[c
1007:Generated_Source\PSoC4/CapSense_Filter.c ****                 ptrSensorObj->raw[channel] = LO16(temp);
1008:Generated_Source\PSoC4/CapSense_Filter.c ****             #endif /* (CapSense_PROXIMITY_SENSOR_EN) */               
1009:Generated_Source\PSoC4/CapSense_Filter.c ****         }
1010:Generated_Source\PSoC4/CapSense_Filter.c ****     }
1011:Generated_Source\PSoC4/CapSense_Filter.c **** }
1012:Generated_Source\PSoC4/CapSense_Filter.c **** #endif /* (CapSense_REGULAR_RC_MEDIAN_FILTER_EN || CapSense_PROX_RC_MEDIAN_FILTER_EN) */
1013:Generated_Source\PSoC4/CapSense_Filter.c **** 
1014:Generated_Source\PSoC4/CapSense_Filter.c **** 
1015:Generated_Source\PSoC4/CapSense_Filter.c **** #if (CapSense_REGULAR_RC_AVERAGE_FILTER_EN || CapSense_PROX_RC_AVERAGE_FILTER_EN)
1016:Generated_Source\PSoC4/CapSense_Filter.c **** 
1017:Generated_Source\PSoC4/CapSense_Filter.c **** /*******************************************************************************
1018:Generated_Source\PSoC4/CapSense_Filter.c **** * Function Name: CapSense_InitializeAverage
1019:Generated_Source\PSoC4/CapSense_Filter.c **** ****************************************************************************//**
1020:Generated_Source\PSoC4/CapSense_Filter.c **** *
1021:Generated_Source\PSoC4/CapSense_Filter.c **** * \brief    Initializes the average filter history.
1022:Generated_Source\PSoC4/CapSense_Filter.c **** *
ARM GAS  C:\Users\RD\AppData\Local\Temp\ccQZrPXd.s 			page 29


1023:Generated_Source\PSoC4/CapSense_Filter.c **** * \details  Initializes the average filter history.
1024:Generated_Source\PSoC4/CapSense_Filter.c **** *
1025:Generated_Source\PSoC4/CapSense_Filter.c **** * \param    widgetId Specifies the ID number of the widget.
1026:Generated_Source\PSoC4/CapSense_Filter.c **** * \param    sensorId Specifies the ID number of the sensor in the widget.
1027:Generated_Source\PSoC4/CapSense_Filter.c **** *
1028:Generated_Source\PSoC4/CapSense_Filter.c **** *******************************************************************************/
1029:Generated_Source\PSoC4/CapSense_Filter.c **** void CapSense_InitializeAverage(uint32 widgetId, uint32 sensorId)
1030:Generated_Source\PSoC4/CapSense_Filter.c **** {
1031:Generated_Source\PSoC4/CapSense_Filter.c ****     CapSense_FLASH_WD_STRUCT const *ptrWidget = &CapSense_dsFlash.wdgtArray[widgetId];      
1032:Generated_Source\PSoC4/CapSense_Filter.c ****     CapSense_RAM_SNS_STRUCT *ptrSensor = NULL;
1033:Generated_Source\PSoC4/CapSense_Filter.c ****     CapSense_PTR_FILTER_VARIANT ptrFilterHistObj;
1034:Generated_Source\PSoC4/CapSense_Filter.c **** 
1035:Generated_Source\PSoC4/CapSense_Filter.c ****     /* Find pointer to specified sensor object */
1036:Generated_Source\PSoC4/CapSense_Filter.c ****     ptrSensor = ptrWidget->ptr2SnsRam;
1037:Generated_Source\PSoC4/CapSense_Filter.c ****     ptrSensor = &ptrSensor[sensorId];
1038:Generated_Source\PSoC4/CapSense_Filter.c ****     
1039:Generated_Source\PSoC4/CapSense_Filter.c ****     /* Find pointer to specified filter sensor object */
1040:Generated_Source\PSoC4/CapSense_Filter.c ****     ptrFilterHistObj.ptr = ptrWidget->ptr2FltrHistory;
1041:Generated_Source\PSoC4/CapSense_Filter.c **** 
1042:Generated_Source\PSoC4/CapSense_Filter.c ****     if ((CapSense_WD_TYPE_ENUM)ptrWidget->wdgtType != CapSense_WD_PROXIMITY_E)
1043:Generated_Source\PSoC4/CapSense_Filter.c ****     {
1044:Generated_Source\PSoC4/CapSense_Filter.c ****         #if (CapSense_REGULAR_SENSOR_EN)
1045:Generated_Source\PSoC4/CapSense_Filter.c ****             ptrFilterHistObj.ptrRegular = &ptrFilterHistObj.ptrRegular[sensorId];
1046:Generated_Source\PSoC4/CapSense_Filter.c ****         #endif /* (CapSense_REGULAR_SENSOR_EN) */
1047:Generated_Source\PSoC4/CapSense_Filter.c ****     }
1048:Generated_Source\PSoC4/CapSense_Filter.c ****     else
1049:Generated_Source\PSoC4/CapSense_Filter.c ****     {
1050:Generated_Source\PSoC4/CapSense_Filter.c ****         #if (CapSense_PROXIMITY_SENSOR_EN)
1051:Generated_Source\PSoC4/CapSense_Filter.c ****             ptrFilterHistObj.ptrProx = &ptrFilterHistObj.ptrProx[sensorId];
1052:Generated_Source\PSoC4/CapSense_Filter.c ****         #endif /* (CapSense_PROXIMITY_SENSOR_EN) */
1053:Generated_Source\PSoC4/CapSense_Filter.c ****     }
1054:Generated_Source\PSoC4/CapSense_Filter.c **** 
1055:Generated_Source\PSoC4/CapSense_Filter.c ****     CapSense_InitializeAverageInternal(ptrFilterHistObj, ptrSensor, (uint32)ptrWidget->wdgtType);
1056:Generated_Source\PSoC4/CapSense_Filter.c **** }
1057:Generated_Source\PSoC4/CapSense_Filter.c **** 
1058:Generated_Source\PSoC4/CapSense_Filter.c **** 
1059:Generated_Source\PSoC4/CapSense_Filter.c **** /*******************************************************************************
1060:Generated_Source\PSoC4/CapSense_Filter.c **** * Function Name: CapSense_RunAverage
1061:Generated_Source\PSoC4/CapSense_Filter.c **** ****************************************************************************//**
1062:Generated_Source\PSoC4/CapSense_Filter.c **** *
1063:Generated_Source\PSoC4/CapSense_Filter.c **** * \brief    Executes the average filter algorithm on a sensor indicated by an input 
1064:Generated_Source\PSoC4/CapSense_Filter.c **** *           parameter. 
1065:Generated_Source\PSoC4/CapSense_Filter.c **** *
1066:Generated_Source\PSoC4/CapSense_Filter.c **** * \details  Executes the average filter algorithm on a sensor indicated by an input 
1067:Generated_Source\PSoC4/CapSense_Filter.c **** *           parameter. 
1068:Generated_Source\PSoC4/CapSense_Filter.c **** *
1069:Generated_Source\PSoC4/CapSense_Filter.c **** * \param    widgetId Specifies the ID number of the widget.
1070:Generated_Source\PSoC4/CapSense_Filter.c **** * \param    sensorId Specifies the ID number of the sensor in the widget.
1071:Generated_Source\PSoC4/CapSense_Filter.c **** *
1072:Generated_Source\PSoC4/CapSense_Filter.c **** *******************************************************************************/
1073:Generated_Source\PSoC4/CapSense_Filter.c **** void CapSense_RunAverage(uint32 widgetId, uint32 sensorId)
1074:Generated_Source\PSoC4/CapSense_Filter.c **** {
1075:Generated_Source\PSoC4/CapSense_Filter.c ****     CapSense_FLASH_WD_STRUCT const *ptrWidget = &CapSense_dsFlash.wdgtArray[widgetId];      
1076:Generated_Source\PSoC4/CapSense_Filter.c ****     CapSense_RAM_SNS_STRUCT *ptrSensor = NULL;    
1077:Generated_Source\PSoC4/CapSense_Filter.c ****     CapSense_PTR_FILTER_VARIANT ptrFilterHistObj; 
1078:Generated_Source\PSoC4/CapSense_Filter.c ****               
1079:Generated_Source\PSoC4/CapSense_Filter.c ****     /* Find pointer to specified sensor object */     
ARM GAS  C:\Users\RD\AppData\Local\Temp\ccQZrPXd.s 			page 30


1080:Generated_Source\PSoC4/CapSense_Filter.c ****     ptrSensor = ptrWidget->ptr2SnsRam;
1081:Generated_Source\PSoC4/CapSense_Filter.c ****     ptrSensor = &ptrSensor[sensorId];
1082:Generated_Source\PSoC4/CapSense_Filter.c ****     
1083:Generated_Source\PSoC4/CapSense_Filter.c ****     /* Find pointer to specified filter sensor object */     
1084:Generated_Source\PSoC4/CapSense_Filter.c ****     ptrFilterHistObj.ptr = ptrWidget->ptr2FltrHistory;
1085:Generated_Source\PSoC4/CapSense_Filter.c ****     
1086:Generated_Source\PSoC4/CapSense_Filter.c ****     if ((CapSense_WD_TYPE_ENUM)ptrWidget->wdgtType != CapSense_WD_PROXIMITY_E)
1087:Generated_Source\PSoC4/CapSense_Filter.c ****     {
1088:Generated_Source\PSoC4/CapSense_Filter.c ****         #if (CapSense_REGULAR_SENSOR_EN)
1089:Generated_Source\PSoC4/CapSense_Filter.c ****             ptrFilterHistObj.ptrRegular = &ptrFilterHistObj.ptrRegular[sensorId];
1090:Generated_Source\PSoC4/CapSense_Filter.c ****         #endif /* (CapSense_REGULAR_SENSOR_EN) */
1091:Generated_Source\PSoC4/CapSense_Filter.c ****     }
1092:Generated_Source\PSoC4/CapSense_Filter.c ****     else
1093:Generated_Source\PSoC4/CapSense_Filter.c ****     {
1094:Generated_Source\PSoC4/CapSense_Filter.c ****         #if (CapSense_PROXIMITY_SENSOR_EN)
1095:Generated_Source\PSoC4/CapSense_Filter.c ****             ptrFilterHistObj.ptrProx = &ptrFilterHistObj.ptrProx[sensorId];
1096:Generated_Source\PSoC4/CapSense_Filter.c ****         #endif /* (CapSense_PROXIMITY_SENSOR_EN) */
1097:Generated_Source\PSoC4/CapSense_Filter.c ****     }
1098:Generated_Source\PSoC4/CapSense_Filter.c ****     
1099:Generated_Source\PSoC4/CapSense_Filter.c ****     CapSense_RunAverageInternal(ptrFilterHistObj, ptrSensor, (uint32)ptrWidget->wdgtType);
1100:Generated_Source\PSoC4/CapSense_Filter.c **** }
1101:Generated_Source\PSoC4/CapSense_Filter.c **** 
1102:Generated_Source\PSoC4/CapSense_Filter.c **** 
1103:Generated_Source\PSoC4/CapSense_Filter.c **** /*******************************************************************************
1104:Generated_Source\PSoC4/CapSense_Filter.c **** * Function Name: CapSense_InitializeAverageInternal
1105:Generated_Source\PSoC4/CapSense_Filter.c **** ****************************************************************************//**
1106:Generated_Source\PSoC4/CapSense_Filter.c **** *
1107:Generated_Source\PSoC4/CapSense_Filter.c **** * \brief    Initializes the average filter.
1108:Generated_Source\PSoC4/CapSense_Filter.c **** *
1109:Generated_Source\PSoC4/CapSense_Filter.c **** * \details  Initializes the average filter.
1110:Generated_Source\PSoC4/CapSense_Filter.c **** *
1111:Generated_Source\PSoC4/CapSense_Filter.c **** * \param    ptrFilterHistObj The pointer to the filter RAM object of the sensor.
1112:Generated_Source\PSoC4/CapSense_Filter.c **** * \param    ptrSensorObj     The pointer to the sensor RAM object of the sensor.
1113:Generated_Source\PSoC4/CapSense_Filter.c **** * \param    wdType           Specifies the type of a widget.
1114:Generated_Source\PSoC4/CapSense_Filter.c **** *
1115:Generated_Source\PSoC4/CapSense_Filter.c **** *******************************************************************************/
1116:Generated_Source\PSoC4/CapSense_Filter.c **** void CapSense_InitializeAverageInternal(CapSense_PTR_FILTER_VARIANT ptrFilterHistObj,\
1117:Generated_Source\PSoC4/CapSense_Filter.c ****                                                   CapSense_RAM_SNS_STRUCT *ptrSensorObj, uint32 wdT
1118:Generated_Source\PSoC4/CapSense_Filter.c **** {
1119:Generated_Source\PSoC4/CapSense_Filter.c ****     uint32 channel;
1120:Generated_Source\PSoC4/CapSense_Filter.c **** 
1121:Generated_Source\PSoC4/CapSense_Filter.c ****     for(channel = CapSense_NUM_SCAN_FREQS; channel-- > 0u;)
1122:Generated_Source\PSoC4/CapSense_Filter.c ****     {
1123:Generated_Source\PSoC4/CapSense_Filter.c ****         if ((CapSense_WD_TYPE_ENUM)wdType != CapSense_WD_PROXIMITY_E)
1124:Generated_Source\PSoC4/CapSense_Filter.c ****         {
1125:Generated_Source\PSoC4/CapSense_Filter.c ****             #if (CapSense_REGULAR_SENSOR_EN && CapSense_REGULAR_RC_AVERAGE_FILTER_EN)
1126:Generated_Source\PSoC4/CapSense_Filter.c ****                 ptrFilterHistObj.ptrRegular->regularChannel[channel].avgHistory[0] = ptrSensorObj->
1127:Generated_Source\PSoC4/CapSense_Filter.c ****                 #if (CapSense_REGULAR_AVERAGE_LEN == CapSense_AVERAGE_FILTER_LEN_4)
1128:Generated_Source\PSoC4/CapSense_Filter.c ****                     ptrFilterHistObj.ptrRegular->regularChannel[channel].avgHistory[1u] = ptrSensor
1129:Generated_Source\PSoC4/CapSense_Filter.c ****                     ptrFilterHistObj.ptrRegular->regularChannel[channel].avgHistory[2u] = ptrSensor
1130:Generated_Source\PSoC4/CapSense_Filter.c ****                 #endif /* CapSense_REGULAR_AVERAGE_LEN == CapSense_AVERAGE_FILTER_LEN_4 */
1131:Generated_Source\PSoC4/CapSense_Filter.c ****             #endif /* (CapSense_REGULAR_SENSOR_EN) */      
1132:Generated_Source\PSoC4/CapSense_Filter.c ****         }
1133:Generated_Source\PSoC4/CapSense_Filter.c ****         else
1134:Generated_Source\PSoC4/CapSense_Filter.c ****         {
1135:Generated_Source\PSoC4/CapSense_Filter.c ****             #if (CapSense_PROXIMITY_SENSOR_EN && CapSense_PROX_RC_AVERAGE_FILTER_EN)
1136:Generated_Source\PSoC4/CapSense_Filter.c ****                 ptrFilterHistObj.ptrProx->proxChannel[channel].avgHistory[0] = ptrSensorObj->raw[ch
ARM GAS  C:\Users\RD\AppData\Local\Temp\ccQZrPXd.s 			page 31


1137:Generated_Source\PSoC4/CapSense_Filter.c ****                     #if (CapSense_PROX_AVERAGE_LEN == CapSense_AVERAGE_FILTER_LEN_4)
1138:Generated_Source\PSoC4/CapSense_Filter.c ****                         ptrFilterHistObj.ptrProx->proxChannel[channel].avgHistory[1u] = ptrSensorOb
1139:Generated_Source\PSoC4/CapSense_Filter.c ****                         ptrFilterHistObj.ptrProx->proxChannel[channel].avgHistory[2u] = ptrSensorOb
1140:Generated_Source\PSoC4/CapSense_Filter.c ****                     #endif /* CapSense_REGULAR_AVERAGE_LEN == CapSense_AVERAGE_FILTER_LEN_4 */
1141:Generated_Source\PSoC4/CapSense_Filter.c ****             #endif /* (CapSense_PROXIMITY_SENSOR_EN) */
1142:Generated_Source\PSoC4/CapSense_Filter.c ****         }
1143:Generated_Source\PSoC4/CapSense_Filter.c ****     }
1144:Generated_Source\PSoC4/CapSense_Filter.c **** }
1145:Generated_Source\PSoC4/CapSense_Filter.c **** 
1146:Generated_Source\PSoC4/CapSense_Filter.c **** 
1147:Generated_Source\PSoC4/CapSense_Filter.c **** /*******************************************************************************
1148:Generated_Source\PSoC4/CapSense_Filter.c **** * Function Name: CapSense_RunAverageInternal
1149:Generated_Source\PSoC4/CapSense_Filter.c **** ****************************************************************************//**
1150:Generated_Source\PSoC4/CapSense_Filter.c **** *
1151:Generated_Source\PSoC4/CapSense_Filter.c **** * \brief    Runs the average filter.
1152:Generated_Source\PSoC4/CapSense_Filter.c **** *
1153:Generated_Source\PSoC4/CapSense_Filter.c **** * \details  Runs the average filter.
1154:Generated_Source\PSoC4/CapSense_Filter.c **** *
1155:Generated_Source\PSoC4/CapSense_Filter.c **** * \param    ptrFilterHistObj The pointer to the filter RAM object of the sensor.
1156:Generated_Source\PSoC4/CapSense_Filter.c **** * \param    ptrSensorObj     The pointer to the sensor RAM object of the sensor.
1157:Generated_Source\PSoC4/CapSense_Filter.c **** * \param    wdType           Specifies the type of a widget.
1158:Generated_Source\PSoC4/CapSense_Filter.c **** *
1159:Generated_Source\PSoC4/CapSense_Filter.c **** *******************************************************************************/
1160:Generated_Source\PSoC4/CapSense_Filter.c **** void CapSense_RunAverageInternal(CapSense_PTR_FILTER_VARIANT ptrFilterHistObj,\
1161:Generated_Source\PSoC4/CapSense_Filter.c ****                                            CapSense_RAM_SNS_STRUCT *ptrSensorObj, uint32 wdType)
1162:Generated_Source\PSoC4/CapSense_Filter.c **** {
1163:Generated_Source\PSoC4/CapSense_Filter.c ****     uint32 channel;
1164:Generated_Source\PSoC4/CapSense_Filter.c ****     uint32 temp;
1165:Generated_Source\PSoC4/CapSense_Filter.c **** 
1166:Generated_Source\PSoC4/CapSense_Filter.c ****     for(channel = CapSense_NUM_SCAN_FREQS; channel-- > 0u;)
1167:Generated_Source\PSoC4/CapSense_Filter.c ****     {
1168:Generated_Source\PSoC4/CapSense_Filter.c ****         if ((CapSense_WD_TYPE_ENUM)wdType != CapSense_WD_PROXIMITY_E)
1169:Generated_Source\PSoC4/CapSense_Filter.c ****         {
1170:Generated_Source\PSoC4/CapSense_Filter.c ****             #if (CapSense_REGULAR_SENSOR_EN && CapSense_REGULAR_RC_AVERAGE_FILTER_EN)
1171:Generated_Source\PSoC4/CapSense_Filter.c ****                 #if (CapSense_REGULAR_AVERAGE_LEN == CapSense_AVERAGE_FILTER_LEN_2)
1172:Generated_Source\PSoC4/CapSense_Filter.c ****                     temp = ((uint32)ptrSensorObj->raw[channel] + 
1173:Generated_Source\PSoC4/CapSense_Filter.c ****                             (uint32)ptrFilterHistObj.ptrRegular->regularChannel[channel].avgHistory
1174:Generated_Source\PSoC4/CapSense_Filter.c ****                     ptrFilterHistObj.ptrRegular->regularChannel[channel].avgHistory[0] = ptrSensorO
1175:Generated_Source\PSoC4/CapSense_Filter.c ****                     ptrSensorObj->raw[channel] = LO16(temp);
1176:Generated_Source\PSoC4/CapSense_Filter.c ****                 #else
1177:Generated_Source\PSoC4/CapSense_Filter.c ****                     temp = ((uint32)ptrSensorObj->raw[channel] + 
1178:Generated_Source\PSoC4/CapSense_Filter.c ****                             (uint32)ptrFilterHistObj.ptrRegular->regularChannel[channel].avgHistory
1179:Generated_Source\PSoC4/CapSense_Filter.c ****                             (uint32)ptrFilterHistObj.ptrRegular->regularChannel[channel].avgHistory
1180:Generated_Source\PSoC4/CapSense_Filter.c ****                             (uint32)ptrFilterHistObj.ptrRegular->regularChannel[channel].avgHistory
1181:Generated_Source\PSoC4/CapSense_Filter.c **** 
1182:Generated_Source\PSoC4/CapSense_Filter.c ****                     ptrFilterHistObj.ptrRegular->regularChannel[channel].avgHistory[2u] =
1183:Generated_Source\PSoC4/CapSense_Filter.c ****                     ptrFilterHistObj.ptrRegular->regularChannel[channel].avgHistory[1u];
1184:Generated_Source\PSoC4/CapSense_Filter.c ****                     ptrFilterHistObj.ptrRegular->regularChannel[channel].avgHistory[1u] =
1185:Generated_Source\PSoC4/CapSense_Filter.c ****                     ptrFilterHistObj.ptrRegular->regularChannel[channel].avgHistory[0];
1186:Generated_Source\PSoC4/CapSense_Filter.c ****                     ptrFilterHistObj.ptrRegular->regularChannel[channel].avgHistory[0] = ptrSensorO
1187:Generated_Source\PSoC4/CapSense_Filter.c ****                     ptrSensorObj->raw[channel] = LO16(temp);
1188:Generated_Source\PSoC4/CapSense_Filter.c ****                 #endif /* CapSense_REGULAR_AVERAGE_LEN == CapSense_AVERAGE_FILTER_LEN_4 */
1189:Generated_Source\PSoC4/CapSense_Filter.c ****             #endif /* (CapSense_REGULAR_SENSOR_EN) */
1190:Generated_Source\PSoC4/CapSense_Filter.c ****         }
1191:Generated_Source\PSoC4/CapSense_Filter.c ****         else 
1192:Generated_Source\PSoC4/CapSense_Filter.c ****         {
1193:Generated_Source\PSoC4/CapSense_Filter.c ****             #if (CapSense_PROXIMITY_SENSOR_EN && CapSense_PROX_RC_AVERAGE_FILTER_EN)
ARM GAS  C:\Users\RD\AppData\Local\Temp\ccQZrPXd.s 			page 32


1194:Generated_Source\PSoC4/CapSense_Filter.c ****                 #if (CapSense_PROX_AVERAGE_LEN == CapSense_AVERAGE_FILTER_LEN_2)     
1195:Generated_Source\PSoC4/CapSense_Filter.c ****                     temp = ((uint32)ptrSensorObj->raw[channel] + 
1196:Generated_Source\PSoC4/CapSense_Filter.c ****                             (uint32)ptrFilterHistObj.ptrProx->proxChannel[channel].avgHistory[0]) >
1197:Generated_Source\PSoC4/CapSense_Filter.c ****                     ptrFilterHistObj.ptrProx->proxChannel[channel].avgHistory[0] = ptrSensorObj->ra
1198:Generated_Source\PSoC4/CapSense_Filter.c ****                     ptrSensorObj->raw[channel] = LO16(temp);
1199:Generated_Source\PSoC4/CapSense_Filter.c ****                 #else
1200:Generated_Source\PSoC4/CapSense_Filter.c ****                     temp = ((uint32)ptrSensorObj->raw[channel] + 
1201:Generated_Source\PSoC4/CapSense_Filter.c ****                             (uint32)ptrFilterHistObj.ptrProx->proxChannel[channel].avgHistory[0] +
1202:Generated_Source\PSoC4/CapSense_Filter.c ****                             (uint32)ptrFilterHistObj.ptrProx->proxChannel[channel].avgHistory[1u] +
1203:Generated_Source\PSoC4/CapSense_Filter.c ****                             (uint32)ptrFilterHistObj.ptrProx->proxChannel[channel].avgHistory[2u]) 
1204:Generated_Source\PSoC4/CapSense_Filter.c ****                     
1205:Generated_Source\PSoC4/CapSense_Filter.c ****                     ptrFilterHistObj.ptrProx->proxChannel[channel].avgHistory[2u] =
1206:Generated_Source\PSoC4/CapSense_Filter.c ****                     ptrFilterHistObj.ptrProx->proxChannel[channel].avgHistory[1u];
1207:Generated_Source\PSoC4/CapSense_Filter.c ****                     ptrFilterHistObj.ptrProx->proxChannel[channel].avgHistory[1u] =
1208:Generated_Source\PSoC4/CapSense_Filter.c ****                     ptrFilterHistObj.ptrProx->proxChannel[channel].avgHistory[0];
1209:Generated_Source\PSoC4/CapSense_Filter.c ****                     ptrFilterHistObj.ptrProx->proxChannel[channel].avgHistory[0] = ptrSensorObj->ra
1210:Generated_Source\PSoC4/CapSense_Filter.c ****                     ptrSensorObj->raw[channel] = LO16(temp);
1211:Generated_Source\PSoC4/CapSense_Filter.c ****                 #endif /* CapSense_PROX_AVERAGE_LEN == CapSense_AVERAGE_FILTER_LEN_4 */
1212:Generated_Source\PSoC4/CapSense_Filter.c ****             #endif /* (CapSense_PROXIMITY_SENSOR_EN) */
1213:Generated_Source\PSoC4/CapSense_Filter.c ****         }
1214:Generated_Source\PSoC4/CapSense_Filter.c ****     }
1215:Generated_Source\PSoC4/CapSense_Filter.c **** }
1216:Generated_Source\PSoC4/CapSense_Filter.c **** #endif /* (CapSense_REGULAR_RC_AVERAGE_FILTER_EN || CapSense_PROX_RC_AVERAGE_FILTER_EN) */
1217:Generated_Source\PSoC4/CapSense_Filter.c **** 
1218:Generated_Source\PSoC4/CapSense_Filter.c **** 
1219:Generated_Source\PSoC4/CapSense_Filter.c **** #if ((CapSense_REGULAR_RC_FILTER_EN || CapSense_PROX_RC_FILTER_EN))
1220:Generated_Source\PSoC4/CapSense_Filter.c **** /*******************************************************************************
1221:Generated_Source\PSoC4/CapSense_Filter.c **** * Function Name: CapSense_FtRunEnabledFilters
1222:Generated_Source\PSoC4/CapSense_Filter.c **** ****************************************************************************//**
1223:Generated_Source\PSoC4/CapSense_Filter.c **** *
1224:Generated_Source\PSoC4/CapSense_Filter.c **** * \brief    Runs all enabled filters.
1225:Generated_Source\PSoC4/CapSense_Filter.c **** *
1226:Generated_Source\PSoC4/CapSense_Filter.c **** * \details  Runs all enabled filters.
1227:Generated_Source\PSoC4/CapSense_Filter.c **** *
1228:Generated_Source\PSoC4/CapSense_Filter.c **** * \param    widgetId Specifies the ID number of a widget to update the IIR filter history.*
1229:Generated_Source\PSoC4/CapSense_Filter.c **** * \param    sensorId Specifies the ID number of a sensor in the widget to update the IIR 
1230:Generated_Source\PSoC4/CapSense_Filter.c **** *           filter history.
1231:Generated_Source\PSoC4/CapSense_Filter.c **** *
1232:Generated_Source\PSoC4/CapSense_Filter.c **** *******************************************************************************/
1233:Generated_Source\PSoC4/CapSense_Filter.c **** void CapSense_FtRunEnabledFilters(uint32 widgetId, uint32 sensorId)
1234:Generated_Source\PSoC4/CapSense_Filter.c **** {
1235:Generated_Source\PSoC4/CapSense_Filter.c ****     CapSense_FLASH_WD_STRUCT const *ptrWidget = &CapSense_dsFlash.wdgtArray[widgetId];      
1236:Generated_Source\PSoC4/CapSense_Filter.c ****     CapSense_RAM_SNS_STRUCT *ptrSensor = NULL;    
1237:Generated_Source\PSoC4/CapSense_Filter.c ****     CapSense_PTR_FILTER_VARIANT ptrFilterHistObj; 
1238:Generated_Source\PSoC4/CapSense_Filter.c ****               
1239:Generated_Source\PSoC4/CapSense_Filter.c ****     /* Find pointer to specified sensor object */     
1240:Generated_Source\PSoC4/CapSense_Filter.c ****     ptrSensor = ptrWidget->ptr2SnsRam;
1241:Generated_Source\PSoC4/CapSense_Filter.c ****     ptrSensor = &ptrSensor[sensorId];
1242:Generated_Source\PSoC4/CapSense_Filter.c ****     
1243:Generated_Source\PSoC4/CapSense_Filter.c ****     /* Find pointer to specified filter sensor object */     
1244:Generated_Source\PSoC4/CapSense_Filter.c ****     ptrFilterHistObj.ptr = ptrWidget->ptr2FltrHistory;
1245:Generated_Source\PSoC4/CapSense_Filter.c ****     
1246:Generated_Source\PSoC4/CapSense_Filter.c ****     if ((CapSense_WD_TYPE_ENUM)ptrWidget->wdgtType != CapSense_WD_PROXIMITY_E)
1247:Generated_Source\PSoC4/CapSense_Filter.c ****     {
1248:Generated_Source\PSoC4/CapSense_Filter.c ****         #if (CapSense_REGULAR_SENSOR_EN)
1249:Generated_Source\PSoC4/CapSense_Filter.c ****             ptrFilterHistObj.ptrRegular = &ptrFilterHistObj.ptrRegular[sensorId];
1250:Generated_Source\PSoC4/CapSense_Filter.c ****         #endif /* (CapSense_REGULAR_SENSOR_EN) */
ARM GAS  C:\Users\RD\AppData\Local\Temp\ccQZrPXd.s 			page 33


1251:Generated_Source\PSoC4/CapSense_Filter.c ****     }
1252:Generated_Source\PSoC4/CapSense_Filter.c ****     else
1253:Generated_Source\PSoC4/CapSense_Filter.c ****     {
1254:Generated_Source\PSoC4/CapSense_Filter.c ****         #if (CapSense_PROXIMITY_SENSOR_EN)
1255:Generated_Source\PSoC4/CapSense_Filter.c ****             ptrFilterHistObj.ptrProx = &ptrFilterHistObj.ptrProx[sensorId];
1256:Generated_Source\PSoC4/CapSense_Filter.c ****         #endif /* (CapSense_PROXIMITY_SENSOR_EN) */
1257:Generated_Source\PSoC4/CapSense_Filter.c ****     }
1258:Generated_Source\PSoC4/CapSense_Filter.c ****     
1259:Generated_Source\PSoC4/CapSense_Filter.c ****     CapSense_FtRunEnabledFiltersInternal(ptrFilterHistObj, ptrSensor, (uint32)ptrWidget->wdgtType);
1260:Generated_Source\PSoC4/CapSense_Filter.c **** }
1261:Generated_Source\PSoC4/CapSense_Filter.c **** 
1262:Generated_Source\PSoC4/CapSense_Filter.c **** 
1263:Generated_Source\PSoC4/CapSense_Filter.c **** /*******************************************************************************
1264:Generated_Source\PSoC4/CapSense_Filter.c **** * Function Name: CapSense_FtRunEnabledFiltersInternal
1265:Generated_Source\PSoC4/CapSense_Filter.c **** ****************************************************************************//**
1266:Generated_Source\PSoC4/CapSense_Filter.c **** *
1267:Generated_Source\PSoC4/CapSense_Filter.c **** * \brief    Runs all enabled filters.
1268:Generated_Source\PSoC4/CapSense_Filter.c **** *
1269:Generated_Source\PSoC4/CapSense_Filter.c **** * \details  Runs all enabled filters.
1270:Generated_Source\PSoC4/CapSense_Filter.c **** *
1271:Generated_Source\PSoC4/CapSense_Filter.c **** * \param    ptrFilterHistObj The pointer to the filter RAM object of the sensor.
1272:Generated_Source\PSoC4/CapSense_Filter.c **** * \param    ptrSensorObj     The pointer to the sensor RAM object of the sensor.
1273:Generated_Source\PSoC4/CapSense_Filter.c **** * \param    wdType           Specifies the type of a widget.
1274:Generated_Source\PSoC4/CapSense_Filter.c **** *
1275:Generated_Source\PSoC4/CapSense_Filter.c **** *******************************************************************************/
1276:Generated_Source\PSoC4/CapSense_Filter.c **** void CapSense_FtRunEnabledFiltersInternal(CapSense_PTR_FILTER_VARIANT ptrFilterHistObj, 
1277:Generated_Source\PSoC4/CapSense_Filter.c ****                                                   CapSense_RAM_SNS_STRUCT *ptrSensorObj, uint32 wdT
1278:Generated_Source\PSoC4/CapSense_Filter.c **** {
1279:Generated_Source\PSoC4/CapSense_Filter.c ****     #if (CapSense_REGULAR_RC_MEDIAN_FILTER_EN || CapSense_PROX_RC_MEDIAN_FILTER_EN)
1280:Generated_Source\PSoC4/CapSense_Filter.c ****         CapSense_RunMedianInternal(ptrFilterHistObj, ptrSensorObj, wdType);
1281:Generated_Source\PSoC4/CapSense_Filter.c ****     #endif /* (CapSense_REGULAR_RC_MEDIAN_FILTER_EN || CapSense_PROX_RC_MEDIAN_FILTER_EN) */
1282:Generated_Source\PSoC4/CapSense_Filter.c ****     
1283:Generated_Source\PSoC4/CapSense_Filter.c ****     #if (CapSense_REGULAR_RC_IIR_FILTER_EN || CapSense_PROX_RC_IIR_FILTER_EN)    
1284:Generated_Source\PSoC4/CapSense_Filter.c ****         CapSense_RunIIRInternal(ptrFilterHistObj, ptrSensorObj, wdType);
1285:Generated_Source\PSoC4/CapSense_Filter.c ****     #endif /* (CapSense_REGULAR_RC_IIR_FILTER_EN || CapSense_PROX_RC_IIR_FILTER_EN) */ 
1286:Generated_Source\PSoC4/CapSense_Filter.c **** 
1287:Generated_Source\PSoC4/CapSense_Filter.c ****     #if (CapSense_REGULAR_RC_AVERAGE_FILTER_EN || CapSense_PROX_RC_AVERAGE_FILTER_EN)
1288:Generated_Source\PSoC4/CapSense_Filter.c ****         CapSense_RunAverageInternal(ptrFilterHistObj, ptrSensorObj, wdType);
1289:Generated_Source\PSoC4/CapSense_Filter.c ****     #endif /* (CapSense_REGULAR_RC_AVERAGE_FILTER_EN || CapSense_PROX_RC_AVERAGE_FILTER_EN) */     
1290:Generated_Source\PSoC4/CapSense_Filter.c **** }
1291:Generated_Source\PSoC4/CapSense_Filter.c **** #endif /* (CapSense_REGULAR_RC_FILTER_EN || CapSense_PROX_RC_FILTER_EN) */
1292:Generated_Source\PSoC4/CapSense_Filter.c **** 
1293:Generated_Source\PSoC4/CapSense_Filter.c **** 
1294:Generated_Source\PSoC4/CapSense_Filter.c **** #if (CapSense_CSD_AUTOTUNE & CapSense_CSD_SS_TH_EN)
1295:Generated_Source\PSoC4/CapSense_Filter.c **** /*******************************************************************************
1296:Generated_Source\PSoC4/CapSense_Filter.c **** * Function Name: CapSense_RunNoiseEnvelope
1297:Generated_Source\PSoC4/CapSense_Filter.c **** ****************************************************************************//**
1298:Generated_Source\PSoC4/CapSense_Filter.c **** *
1299:Generated_Source\PSoC4/CapSense_Filter.c **** * \brief    Executes the noise envelope  filter algorithm on a sensor indicated by 
1300:Generated_Source\PSoC4/CapSense_Filter.c **** *           an input parameter to measure the pk-to-pk noise in the sensor raw count.
1301:Generated_Source\PSoC4/CapSense_Filter.c **** *
1302:Generated_Source\PSoC4/CapSense_Filter.c **** * \details  Executes the noise envelope  filter algorithm on a sensor indicated by 
1303:Generated_Source\PSoC4/CapSense_Filter.c **** *           an input parameter to measure the pk-to-pk noise in the sensor raw count.
1304:Generated_Source\PSoC4/CapSense_Filter.c **** *
1305:Generated_Source\PSoC4/CapSense_Filter.c **** * \param    widgetId Specifies the ID number of the widget.
1306:Generated_Source\PSoC4/CapSense_Filter.c **** * \param    sensorId Specifies the ID number of the sensor in the widget.
1307:Generated_Source\PSoC4/CapSense_Filter.c **** *
ARM GAS  C:\Users\RD\AppData\Local\Temp\ccQZrPXd.s 			page 34


1308:Generated_Source\PSoC4/CapSense_Filter.c **** *******************************************************************************/
1309:Generated_Source\PSoC4/CapSense_Filter.c **** void CapSense_RunNoiseEnvelope(uint32 widgetId, uint32 sensorId)
1310:Generated_Source\PSoC4/CapSense_Filter.c **** {
 520              		.loc 1 1310 0
 521              		.cfi_startproc
 522              	.LVL75:
 523 0000 70B5     		push	{r4, r5, r6, lr}
 524              		.cfi_def_cfa_offset 16
 525              		.cfi_offset 4, -16
 526              		.cfi_offset 5, -12
 527              		.cfi_offset 6, -8
 528              		.cfi_offset 14, -4
 529              	.LVL76:
1311:Generated_Source\PSoC4/CapSense_Filter.c ****     CapSense_FLASH_WD_STRUCT const *ptrWidget = &CapSense_dsFlash.wdgtArray[widgetId];
1312:Generated_Source\PSoC4/CapSense_Filter.c ****     CapSense_RAM_WD_BASE_STRUCT *ptrWidgetRam = ptrWidget->ptr2WdgtRam;
 530              		.loc 1 1312 0
 531 0002 0B4A     		ldr	r2, .L36
 532 0004 8400     		lsl	r4, r0, #2
 533 0006 2318     		add	r3, r4, r0
 534 0008 DB00     		lsl	r3, r3, #3
 535 000a D318     		add	r3, r2, r3
 536 000c 5D68     		ldr	r5, [r3, #4]
 537              	.LVL77:
1313:Generated_Source\PSoC4/CapSense_Filter.c ****     CapSense_RAM_SNS_STRUCT *ptrSensor = NULL;    
1314:Generated_Source\PSoC4/CapSense_Filter.c ****     SMARTSENSE_CSD_NOISE_ENVELOPE_STRUCT *ptrNoiseEnvelope = NULL;
1315:Generated_Source\PSoC4/CapSense_Filter.c **** 
1316:Generated_Source\PSoC4/CapSense_Filter.c ****     /* Find pointer to specified sensor object */
1317:Generated_Source\PSoC4/CapSense_Filter.c ****     ptrSensor = ptrWidget->ptr2SnsRam;
 538              		.loc 1 1317 0
 539 000e 9E68     		ldr	r6, [r3, #8]
 540              	.LVL78:
1318:Generated_Source\PSoC4/CapSense_Filter.c ****     ptrSensor = &ptrSensor[sensorId];
 541              		.loc 1 1318 0
 542 0010 CB00     		lsl	r3, r1, #3
 543 0012 5B1A     		sub	r3, r3, r1
 544 0014 5B00     		lsl	r3, r3, #1
 545              	.LVL79:
1319:Generated_Source\PSoC4/CapSense_Filter.c ****     
1320:Generated_Source\PSoC4/CapSense_Filter.c ****     /* Find pointer to specified filter sensor object */
1321:Generated_Source\PSoC4/CapSense_Filter.c ****     ptrNoiseEnvelope = ptrWidget->ptr2NoiseEnvlp;
 546              		.loc 1 1321 0
 547 0016 2018     		add	r0, r4, r0
 548              	.LVL80:
 549 0018 C000     		lsl	r0, r0, #3
 550 001a 1018     		add	r0, r2, r0
 551 001c 026A     		ldr	r2, [r0, #32]
 552              	.LVL81:
1322:Generated_Source\PSoC4/CapSense_Filter.c ****     ptrNoiseEnvelope = &ptrNoiseEnvelope[sensorId];    
 553              		.loc 1 1322 0
 554 001e 4800     		lsl	r0, r1, #1
 555 0020 4118     		add	r1, r0, r1
 556              	.LVL82:
 557 0022 8900     		lsl	r1, r1, #2
 558 0024 5218     		add	r2, r2, r1
 559              	.LVL83:
1323:Generated_Source\PSoC4/CapSense_Filter.c **** 
1324:Generated_Source\PSoC4/CapSense_Filter.c ****     SmartSense_RunNoiseEnvelope(ptrSensor->raw[0u], ptrWidgetRam->sigPFC, ptrNoiseEnvelope);
ARM GAS  C:\Users\RD\AppData\Local\Temp\ccQZrPXd.s 			page 35


 560              		.loc 1 1324 0
 561 0026 F05A     		ldrh	r0, [r6, r3]
 562 0028 298A     		ldrh	r1, [r5, #16]
 563 002a FFF7FEFF 		bl	SmartSense_RunNoiseEnvelope
 564              	.LVL84:
1325:Generated_Source\PSoC4/CapSense_Filter.c **** }
 565              		.loc 1 1325 0
 566              		@ sp needed
 567              	.LVL85:
 568              	.LVL86:
 569              	.LVL87:
 570 002e 70BD     		pop	{r4, r5, r6, pc}
 571              	.L37:
 572              		.align	2
 573              	.L36:
 574 0030 00000000 		.word	CapSense_dsFlash
 575              		.cfi_endproc
 576              	.LFE17:
 577              		.size	CapSense_RunNoiseEnvelope, .-CapSense_RunNoiseEnvelope
 578              		.section	.text.CapSense_InitializeNoiseEnvelope,"ax",%progbits
 579              		.align	2
 580              		.global	CapSense_InitializeNoiseEnvelope
 581              		.code	16
 582              		.thumb_func
 583              		.type	CapSense_InitializeNoiseEnvelope, %function
 584              	CapSense_InitializeNoiseEnvelope:
 585              	.LFB18:
1326:Generated_Source\PSoC4/CapSense_Filter.c **** 
1327:Generated_Source\PSoC4/CapSense_Filter.c **** 
1328:Generated_Source\PSoC4/CapSense_Filter.c **** /*******************************************************************************
1329:Generated_Source\PSoC4/CapSense_Filter.c **** * Function Name: CapSense_InitializeNoiseEnvelope
1330:Generated_Source\PSoC4/CapSense_Filter.c **** ****************************************************************************//**
1331:Generated_Source\PSoC4/CapSense_Filter.c **** *
1332:Generated_Source\PSoC4/CapSense_Filter.c **** * \brief    Initializes the noise-envelope filter
1333:Generated_Source\PSoC4/CapSense_Filter.c **** *
1334:Generated_Source\PSoC4/CapSense_Filter.c **** * \details  Initializes the noise-envelope filter
1335:Generated_Source\PSoC4/CapSense_Filter.c **** *
1336:Generated_Source\PSoC4/CapSense_Filter.c **** * \param    widgetId Specifies the ID number of the widget.
1337:Generated_Source\PSoC4/CapSense_Filter.c **** * \param    sensorId Specifies the ID number of the sensor in the widget.
1338:Generated_Source\PSoC4/CapSense_Filter.c **** *
1339:Generated_Source\PSoC4/CapSense_Filter.c **** *******************************************************************************/
1340:Generated_Source\PSoC4/CapSense_Filter.c **** void CapSense_InitializeNoiseEnvelope(uint32 widgetId, uint32 sensorId)
1341:Generated_Source\PSoC4/CapSense_Filter.c **** {
 586              		.loc 1 1341 0
 587              		.cfi_startproc
 588              	.LVL88:
 589 0000 70B5     		push	{r4, r5, r6, lr}
 590              		.cfi_def_cfa_offset 16
 591              		.cfi_offset 4, -16
 592              		.cfi_offset 5, -12
 593              		.cfi_offset 6, -8
 594              		.cfi_offset 14, -4
 595              	.LVL89:
1342:Generated_Source\PSoC4/CapSense_Filter.c ****     CapSense_FLASH_WD_STRUCT const *ptrWidget = &CapSense_dsFlash.wdgtArray[widgetId];
1343:Generated_Source\PSoC4/CapSense_Filter.c ****     CapSense_RAM_WD_BASE_STRUCT *ptrWidgetRam = ptrWidget->ptr2WdgtRam;
 596              		.loc 1 1343 0
 597 0002 0B4A     		ldr	r2, .L39
ARM GAS  C:\Users\RD\AppData\Local\Temp\ccQZrPXd.s 			page 36


 598 0004 8400     		lsl	r4, r0, #2
 599 0006 2318     		add	r3, r4, r0
 600 0008 DB00     		lsl	r3, r3, #3
 601 000a D318     		add	r3, r2, r3
 602 000c 5D68     		ldr	r5, [r3, #4]
 603              	.LVL90:
1344:Generated_Source\PSoC4/CapSense_Filter.c ****     CapSense_RAM_SNS_STRUCT *ptrSensor = NULL;    
1345:Generated_Source\PSoC4/CapSense_Filter.c ****     SMARTSENSE_CSD_NOISE_ENVELOPE_STRUCT *ptrNoiseEnvelope = NULL;
1346:Generated_Source\PSoC4/CapSense_Filter.c **** 
1347:Generated_Source\PSoC4/CapSense_Filter.c ****     /* Find pointer to specified sensor object */
1348:Generated_Source\PSoC4/CapSense_Filter.c ****     ptrSensor = ptrWidget->ptr2SnsRam;
 604              		.loc 1 1348 0
 605 000e 9E68     		ldr	r6, [r3, #8]
 606              	.LVL91:
1349:Generated_Source\PSoC4/CapSense_Filter.c ****     ptrSensor = &ptrSensor[sensorId];
 607              		.loc 1 1349 0
 608 0010 CB00     		lsl	r3, r1, #3
 609 0012 5B1A     		sub	r3, r3, r1
 610 0014 5B00     		lsl	r3, r3, #1
 611              	.LVL92:
1350:Generated_Source\PSoC4/CapSense_Filter.c ****     
1351:Generated_Source\PSoC4/CapSense_Filter.c ****     /* Find pointer to specified filter sensor object */
1352:Generated_Source\PSoC4/CapSense_Filter.c ****     ptrNoiseEnvelope = ptrWidget->ptr2NoiseEnvlp;
 612              		.loc 1 1352 0
 613 0016 2018     		add	r0, r4, r0
 614              	.LVL93:
 615 0018 C000     		lsl	r0, r0, #3
 616 001a 1018     		add	r0, r2, r0
 617 001c 026A     		ldr	r2, [r0, #32]
 618              	.LVL94:
1353:Generated_Source\PSoC4/CapSense_Filter.c ****     ptrNoiseEnvelope = &ptrNoiseEnvelope[sensorId];    
 619              		.loc 1 1353 0
 620 001e 4800     		lsl	r0, r1, #1
 621 0020 4118     		add	r1, r0, r1
 622              	.LVL95:
 623 0022 8900     		lsl	r1, r1, #2
 624 0024 5218     		add	r2, r2, r1
 625              	.LVL96:
1354:Generated_Source\PSoC4/CapSense_Filter.c **** 
1355:Generated_Source\PSoC4/CapSense_Filter.c ****     SmartSense_InitializeNoiseEnvelope(ptrSensor->raw[0u], ptrWidgetRam->sigPFC, ptrNoiseEnvelope);
 626              		.loc 1 1355 0
 627 0026 F05A     		ldrh	r0, [r6, r3]
 628 0028 298A     		ldrh	r1, [r5, #16]
 629 002a FFF7FEFF 		bl	SmartSense_InitializeNoiseEnvelope
 630              	.LVL97:
1356:Generated_Source\PSoC4/CapSense_Filter.c **** }
 631              		.loc 1 1356 0
 632              		@ sp needed
 633              	.LVL98:
 634              	.LVL99:
 635              	.LVL100:
 636 002e 70BD     		pop	{r4, r5, r6, pc}
 637              	.L40:
 638              		.align	2
 639              	.L39:
 640 0030 00000000 		.word	CapSense_dsFlash
 641              		.cfi_endproc
ARM GAS  C:\Users\RD\AppData\Local\Temp\ccQZrPXd.s 			page 37


 642              	.LFE18:
 643              		.size	CapSense_InitializeNoiseEnvelope, .-CapSense_InitializeNoiseEnvelope
 644              		.section	.text.CapSense_FtIIR1stOrder,"ax",%progbits
 645              		.align	2
 646              		.global	CapSense_FtIIR1stOrder
 647              		.code	16
 648              		.thumb_func
 649              		.type	CapSense_FtIIR1stOrder, %function
 650              	CapSense_FtIIR1stOrder:
 651              	.LFB19:
1357:Generated_Source\PSoC4/CapSense_Filter.c **** #endif /* #if CapSense_CSD_AUTOTUNE & CapSense_CSD_SS_TH_EN */
1358:Generated_Source\PSoC4/CapSense_Filter.c **** 
1359:Generated_Source\PSoC4/CapSense_Filter.c **** 
1360:Generated_Source\PSoC4/CapSense_Filter.c **** #if (CapSense_POS_MEDIAN_FILTER_EN || CapSense_REGULAR_RC_MEDIAN_FILTER_EN || CapSense_PROX_RC_MEDI
1361:Generated_Source\PSoC4/CapSense_Filter.c **** /*******************************************************************************
1362:Generated_Source\PSoC4/CapSense_Filter.c **** * Function Name: CapSense_FtMedian
1363:Generated_Source\PSoC4/CapSense_Filter.c **** ****************************************************************************//**
1364:Generated_Source\PSoC4/CapSense_Filter.c **** *
1365:Generated_Source\PSoC4/CapSense_Filter.c **** * \brief    Return the median value from the three passed arguments.
1366:Generated_Source\PSoC4/CapSense_Filter.c **** *
1367:Generated_Source\PSoC4/CapSense_Filter.c **** * \details  Return the median value from the three passed arguments.
1368:Generated_Source\PSoC4/CapSense_Filter.c **** *
1369:Generated_Source\PSoC4/CapSense_Filter.c **** * \param    x1 The first value to be compared.
1370:Generated_Source\PSoC4/CapSense_Filter.c **** * \param    x2 The second value to be compared.
1371:Generated_Source\PSoC4/CapSense_Filter.c **** * \param    x3 The third value to be compared.
1372:Generated_Source\PSoC4/CapSense_Filter.c **** *
1373:Generated_Source\PSoC4/CapSense_Filter.c **** * \return   Returns the median value of input arguments.
1374:Generated_Source\PSoC4/CapSense_Filter.c **** *
1375:Generated_Source\PSoC4/CapSense_Filter.c **** *******************************************************************************/
1376:Generated_Source\PSoC4/CapSense_Filter.c **** uint32 CapSense_FtMedian(uint32 x1, uint32 x2, uint32 x3)
1377:Generated_Source\PSoC4/CapSense_Filter.c **** {
1378:Generated_Source\PSoC4/CapSense_Filter.c ****     uint32 tmp;
1379:Generated_Source\PSoC4/CapSense_Filter.c **** 
1380:Generated_Source\PSoC4/CapSense_Filter.c ****     if (x1 > x2)
1381:Generated_Source\PSoC4/CapSense_Filter.c ****     {
1382:Generated_Source\PSoC4/CapSense_Filter.c ****         tmp = x2;
1383:Generated_Source\PSoC4/CapSense_Filter.c ****         x2 = x1;
1384:Generated_Source\PSoC4/CapSense_Filter.c ****         x1 = tmp;
1385:Generated_Source\PSoC4/CapSense_Filter.c ****     }
1386:Generated_Source\PSoC4/CapSense_Filter.c **** 
1387:Generated_Source\PSoC4/CapSense_Filter.c ****     if (x2 > x3)
1388:Generated_Source\PSoC4/CapSense_Filter.c ****     {
1389:Generated_Source\PSoC4/CapSense_Filter.c ****         x2 = x3;
1390:Generated_Source\PSoC4/CapSense_Filter.c ****     }
1391:Generated_Source\PSoC4/CapSense_Filter.c **** 
1392:Generated_Source\PSoC4/CapSense_Filter.c ****     return ((x1 > x2) ? x1 : x2);
1393:Generated_Source\PSoC4/CapSense_Filter.c **** }
1394:Generated_Source\PSoC4/CapSense_Filter.c **** #endif /*CapSense_POS_MEDIAN_FILTER_EN || CapSense_REGULAR_RC_MEDIAN_FILTER_EN || CapSense_PROX_RC_
1395:Generated_Source\PSoC4/CapSense_Filter.c **** 
1396:Generated_Source\PSoC4/CapSense_Filter.c **** 
1397:Generated_Source\PSoC4/CapSense_Filter.c **** /*******************************************************************************
1398:Generated_Source\PSoC4/CapSense_Filter.c **** * Function Name: CapSense_FtIIR1stOrder
1399:Generated_Source\PSoC4/CapSense_Filter.c **** ****************************************************************************//**
1400:Generated_Source\PSoC4/CapSense_Filter.c **** *
1401:Generated_Source\PSoC4/CapSense_Filter.c **** * \brief    Return the filtered data by the IIR 1-st order algorithm
1402:Generated_Source\PSoC4/CapSense_Filter.c **** *
1403:Generated_Source\PSoC4/CapSense_Filter.c **** * \details  Return the filtered data by the IIR 1-st order algorithm
ARM GAS  C:\Users\RD\AppData\Local\Temp\ccQZrPXd.s 			page 38


1404:Generated_Source\PSoC4/CapSense_Filter.c **** *
1405:Generated_Source\PSoC4/CapSense_Filter.c **** * \param    input      The data to be filtered.
1406:Generated_Source\PSoC4/CapSense_Filter.c **** * \param    prevOutput The previous filtered data.
1407:Generated_Source\PSoC4/CapSense_Filter.c **** * \param    n          The IIR filter coefficient (n/256).
1408:Generated_Source\PSoC4/CapSense_Filter.c **** * \param    shift      The parameter is used to shift input data to have free LSB 
1409:Generated_Source\PSoC4/CapSense_Filter.c **** *                       bits for a fraction storage of the filter output calculation.
1410:Generated_Source\PSoC4/CapSense_Filter.c **** *
1411:Generated_Source\PSoC4/CapSense_Filter.c **** * \return   Returns the filtered data.
1412:Generated_Source\PSoC4/CapSense_Filter.c **** *
1413:Generated_Source\PSoC4/CapSense_Filter.c **** *******************************************************************************/
1414:Generated_Source\PSoC4/CapSense_Filter.c **** uint32 CapSense_FtIIR1stOrder(uint32 input, uint32 prevOutput, uint32 n, uint32 shift)
1415:Generated_Source\PSoC4/CapSense_Filter.c **** {   
 652              		.loc 1 1415 0
 653              		.cfi_startproc
 654              	.LVL101:
1416:Generated_Source\PSoC4/CapSense_Filter.c ****     uint32 output;
1417:Generated_Source\PSoC4/CapSense_Filter.c ****    
1418:Generated_Source\PSoC4/CapSense_Filter.c ****     /*
1419:Generated_Source\PSoC4/CapSense_Filter.c ****     * n - IIR filter coefficient (n/256)
1420:Generated_Source\PSoC4/CapSense_Filter.c ****     * shift - Used to shift input data to have free LSB bits
1421:Generated_Source\PSoC4/CapSense_Filter.c ****     * for fraction storage of filter output calculation
1422:Generated_Source\PSoC4/CapSense_Filter.c ****     */
1423:Generated_Source\PSoC4/CapSense_Filter.c ****     output = ((n * (input << shift)) + ((CapSense_IIR_COEFFICIENT_K - n) * prevOutput)) >> 8u;
 655              		.loc 1 1423 0
 656 0000 9840     		lsl	r0, r0, r3
 657              	.LVL102:
 658 0002 031C     		mov	r3, r0
 659              	.LVL103:
 660 0004 5343     		mul	r3, r2
 661 0006 8020     		mov	r0, #128
 662 0008 4000     		lsl	r0, r0, #1
 663 000a 801A     		sub	r0, r0, r2
 664 000c 4143     		mul	r1, r0
 665              	.LVL104:
 666 000e 5818     		add	r0, r3, r1
 667 0010 000A     		lsr	r0, r0, #8
 668              	.LVL105:
1424:Generated_Source\PSoC4/CapSense_Filter.c ****     
1425:Generated_Source\PSoC4/CapSense_Filter.c ****     /* Shift operation of output will be done in upper level API if needed */
1426:Generated_Source\PSoC4/CapSense_Filter.c ****     return output;
1427:Generated_Source\PSoC4/CapSense_Filter.c **** }
 669              		.loc 1 1427 0
 670              		@ sp needed
 671 0012 7047     		bx	lr
 672              		.cfi_endproc
 673              	.LFE19:
 674              		.size	CapSense_FtIIR1stOrder, .-CapSense_FtIIR1stOrder
 675              		.section	.text.CapSense_FtUpdateBaseline,"ax",%progbits
 676              		.align	2
 677              		.global	CapSense_FtUpdateBaseline
 678              		.code	16
 679              		.thumb_func
 680              		.type	CapSense_FtUpdateBaseline, %function
 681              	CapSense_FtUpdateBaseline:
 682              	.LFB5:
 325:Generated_Source\PSoC4/CapSense_Filter.c ****     uint32 sign;
 683              		.loc 1 325 0
ARM GAS  C:\Users\RD\AppData\Local\Temp\ccQZrPXd.s 			page 39


 684              		.cfi_startproc
 685              	.LVL106:
 686 0000 F0B5     		push	{r4, r5, r6, r7, lr}
 687              		.cfi_def_cfa_offset 20
 688              		.cfi_offset 4, -20
 689              		.cfi_offset 5, -16
 690              		.cfi_offset 6, -12
 691              		.cfi_offset 7, -8
 692              		.cfi_offset 14, -4
 693 0002 83B0     		sub	sp, sp, #12
 694              		.cfi_def_cfa_offset 32
 695 0004 071C     		mov	r7, r0
 696 0006 0E1C     		mov	r6, r1
 697 0008 0192     		str	r2, [sp, #4]
 698              	.LVL107:
 336:Generated_Source\PSoC4/CapSense_Filter.c ****     {               
 699              		.loc 1 336 0
 700 000a 0123     		mov	r3, #1
 701 000c 33E0     		b	.L43
 702              	.LVL108:
 703              	.L49:
 348:Generated_Source\PSoC4/CapSense_Filter.c ****         {
 704              		.loc 1 348 0
 705 000e 6300     		lsl	r3, r4, #1
 706 0010 985B     		ldrh	r0, [r3, r6]
 707 0012 F318     		add	r3, r6, r3
 708 0014 5988     		ldrh	r1, [r3, #2]
 709 0016 8842     		cmp	r0, r1
 710 0018 05D3     		bcc	.L44
 350:Generated_Source\PSoC4/CapSense_Filter.c ****             sign = 1u;
 711              		.loc 1 350 0
 712 001a 421A     		sub	r2, r0, r1
 713              	.LVL109:
 352:Generated_Source\PSoC4/CapSense_Filter.c ****         }
 714              		.loc 1 352 0
 715 001c 3319     		add	r3, r6, r4
 716 001e 0025     		mov	r5, #0
 717 0020 1D72     		strb	r5, [r3, #8]
 351:Generated_Source\PSoC4/CapSense_Filter.c ****             ptrSensor->negBslnRstCnt[channel] = 0u;
 718              		.loc 1 351 0
 719 0022 0123     		mov	r3, #1
 720 0024 01E0     		b	.L45
 721              	.LVL110:
 722              	.L44:
 356:Generated_Source\PSoC4/CapSense_Filter.c ****             sign = 0u;
 723              		.loc 1 356 0
 724 0026 0A1A     		sub	r2, r1, r0
 725              	.LVL111:
 357:Generated_Source\PSoC4/CapSense_Filter.c ****         }     
 726              		.loc 1 357 0
 727 0028 0023     		mov	r3, #0
 728              	.LVL112:
 729              	.L45:
 361:Generated_Source\PSoC4/CapSense_Filter.c ****         {
 730              		.loc 1 361 0
 731 002a 002B     		cmp	r3, #0
 732 002c 11D1     		bne	.L46
ARM GAS  C:\Users\RD\AppData\Local\Temp\ccQZrPXd.s 			page 40


 361:Generated_Source\PSoC4/CapSense_Filter.c ****         {
 733              		.loc 1 361 0 is_stmt 0 discriminator 1
 734 002e 7B79     		ldrb	r3, [r7, #5]
 735              	.LVL113:
 736 0030 9342     		cmp	r3, r2
 737 0032 0ED2     		bcs	.L46
 363:Generated_Source\PSoC4/CapSense_Filter.c ****             {                
 738              		.loc 1 363 0 is_stmt 1
 739 0034 3319     		add	r3, r6, r4
 740 0036 1B7A     		ldrb	r3, [r3, #8]
 741 0038 3A7A     		ldrb	r2, [r7, #8]
 742              	.LVL114:
 743 003a 9342     		cmp	r3, r2
 744 003c 05D3     		bcc	.L47
 365:Generated_Source\PSoC4/CapSense_Filter.c ****             }
 745              		.loc 1 365 0
 746 003e 301C     		mov	r0, r6
 747 0040 0199     		ldr	r1, [sp, #4]
 748 0042 221C     		mov	r2, r4
 749 0044 FFF7FEFF 		bl	CapSense_FtInitializeBaselineChannel
 750              	.LVL115:
 751 0048 14E0     		b	.L48
 752              	.L47:
 369:Generated_Source\PSoC4/CapSense_Filter.c ****             }
 753              		.loc 1 369 0
 754 004a 3219     		add	r2, r6, r4
 755 004c 0133     		add	r3, r3, #1
 756 004e 1372     		strb	r3, [r2, #8]
 757 0050 10E0     		b	.L48
 758              	.LVL116:
 759              	.L46:
 383:Generated_Source\PSoC4/CapSense_Filter.c ****                 {
 760              		.loc 1 383 0
 761 0052 6B46     		mov	r3, sp
 762 0054 1B79     		ldrb	r3, [r3, #4]
 763 0056 062B     		cmp	r3, #6
 764 0058 0CD0     		beq	.L48
 387:Generated_Source\PSoC4/CapSense_Filter.c ****                             history |= ptrSensor->bslnExt[channel];
 765              		.loc 1 387 0
 766 005a 0902     		lsl	r1, r1, #8
 767              	.LVL117:
 388:Generated_Source\PSoC4/CapSense_Filter.c ****                         #else
 768              		.loc 1 388 0
 769 005c 3519     		add	r5, r6, r4
 770 005e 2B79     		ldrb	r3, [r5, #4]
 771 0060 1943     		orr	r1, r3
 772              	.LVL118:
 393:Generated_Source\PSoC4/CapSense_Filter.c ****                                         (uint32)ptrSensor->raw[channel],
 773              		.loc 1 393 0
 774 0062 0122     		mov	r2, #1
 775              	.LVL119:
 776 0064 0823     		mov	r3, #8
 777 0066 FFF7FEFF 		bl	CapSense_FtIIR1stOrder
 778              	.LVL120:
 400:Generated_Source\PSoC4/CapSense_Filter.c ****                             ptrSensor->bslnExt[channel] = LO8(history);
 779              		.loc 1 400 0
 780 006a 020A     		lsr	r2, r0, #8
ARM GAS  C:\Users\RD\AppData\Local\Temp\ccQZrPXd.s 			page 41


 781 006c 6300     		lsl	r3, r4, #1
 782 006e F318     		add	r3, r6, r3
 783 0070 5A80     		strh	r2, [r3, #2]
 401:Generated_Source\PSoC4/CapSense_Filter.c ****                         #else
 784              		.loc 1 401 0
 785 0072 2871     		strb	r0, [r5, #4]
 786              	.LVL121:
 787              	.L48:
 788 0074 231C     		mov	r3, r4
 789              	.LVL122:
 790              	.L43:
 336:Generated_Source\PSoC4/CapSense_Filter.c ****     {               
 791              		.loc 1 336 0 discriminator 1
 792 0076 5C1E     		sub	r4, r3, #1
 793              	.LVL123:
 794 0078 002B     		cmp	r3, #0
 795 007a C8D1     		bne	.L49
 449:Generated_Source\PSoC4/CapSense_Filter.c **** 
 796              		.loc 1 449 0
 797 007c 0020     		mov	r0, #0
 798 007e 03B0     		add	sp, sp, #12
 799              		@ sp needed
 800              	.LVL124:
 801              	.LVL125:
 802              	.LVL126:
 803 0080 F0BD     		pop	{r4, r5, r6, r7, pc}
 804              		.cfi_endproc
 805              	.LFE5:
 806              		.size	CapSense_FtUpdateBaseline, .-CapSense_FtUpdateBaseline
 807 0082 C046     		.section	.text.CapSense_UpdateSensorBaseline,"ax",%progbits
 808              		.align	2
 809              		.global	CapSense_UpdateSensorBaseline
 810              		.code	16
 811              		.thumb_func
 812              		.type	CapSense_UpdateSensorBaseline, %function
 813              	CapSense_UpdateSensorBaseline:
 814              	.LFB4:
 267:Generated_Source\PSoC4/CapSense_Filter.c ****     uint32 result = CYRET_SUCCESS;
 815              		.loc 1 267 0
 816              		.cfi_startproc
 817              	.LVL127:
 818 0000 70B5     		push	{r4, r5, r6, lr}
 819              		.cfi_def_cfa_offset 16
 820              		.cfi_offset 4, -16
 821              		.cfi_offset 5, -12
 822              		.cfi_offset 6, -8
 823              		.cfi_offset 14, -4
 824 0002 031C     		mov	r3, r0
 825              	.LVL128:
 272:Generated_Source\PSoC4/CapSense_Filter.c **** 
 826              		.loc 1 272 0
 827 0004 084C     		ldr	r4, .L51
 828 0006 8500     		lsl	r5, r0, #2
 829 0008 2A18     		add	r2, r5, r0
 830 000a D200     		lsl	r2, r2, #3
 831 000c A218     		add	r2, r4, r2
 832 000e 5068     		ldr	r0, [r2, #4]
ARM GAS  C:\Users\RD\AppData\Local\Temp\ccQZrPXd.s 			page 42


 833              	.LVL129:
 275:Generated_Source\PSoC4/CapSense_Filter.c ****     ptrSensor = &ptrSensor[sensorId];
 834              		.loc 1 275 0
 835 0010 9668     		ldr	r6, [r2, #8]
 836              	.LVL130:
 276:Generated_Source\PSoC4/CapSense_Filter.c ****     result = CapSense_FtUpdateBaseline(ptrWidgetRam, ptrSensor, (uint32)ptrWidget->wdgtType);
 837              		.loc 1 276 0
 838 0012 CA00     		lsl	r2, r1, #3
 839 0014 511A     		sub	r1, r2, r1
 840              	.LVL131:
 841 0016 4900     		lsl	r1, r1, #1
 842 0018 7118     		add	r1, r6, r1
 843              	.LVL132:
 277:Generated_Source\PSoC4/CapSense_Filter.c ****     
 844              		.loc 1 277 0
 845 001a EB18     		add	r3, r5, r3
 846              	.LVL133:
 847 001c DB00     		lsl	r3, r3, #3
 848 001e E318     		add	r3, r4, r3
 849 0020 1A7E     		ldrb	r2, [r3, #24]
 850 0022 FFF7FEFF 		bl	CapSense_FtUpdateBaseline
 851              	.LVL134:
 288:Generated_Source\PSoC4/CapSense_Filter.c **** 
 852              		.loc 1 288 0
 853              		@ sp needed
 854              	.LVL135:
 855              	.LVL136:
 856              	.LVL137:
 857 0026 70BD     		pop	{r4, r5, r6, pc}
 858              	.L52:
 859              		.align	2
 860              	.L51:
 861 0028 00000000 		.word	CapSense_dsFlash
 862              		.cfi_endproc
 863              	.LFE4:
 864              		.size	CapSense_UpdateSensorBaseline, .-CapSense_UpdateSensorBaseline
 865              		.section	.text.CapSense_UpdateWidgetBaseline,"ax",%progbits
 866              		.align	2
 867              		.global	CapSense_UpdateWidgetBaseline
 868              		.code	16
 869              		.thumb_func
 870              		.type	CapSense_UpdateWidgetBaseline, %function
 871              	CapSense_UpdateWidgetBaseline:
 872              	.LFB3:
 210:Generated_Source\PSoC4/CapSense_Filter.c ****     uint32 sensorId;       
 873              		.loc 1 210 0
 874              		.cfi_startproc
 875              	.LVL138:
 876 0000 70B5     		push	{r4, r5, r6, lr}
 877              		.cfi_def_cfa_offset 16
 878              		.cfi_offset 4, -16
 879              		.cfi_offset 5, -12
 880              		.cfi_offset 6, -8
 881              		.cfi_offset 14, -4
 882 0002 061C     		mov	r6, r0
 883              	.LVL139:
 218:Generated_Source\PSoC4/CapSense_Filter.c ****     
ARM GAS  C:\Users\RD\AppData\Local\Temp\ccQZrPXd.s 			page 43


 884              		.loc 1 218 0
 885 0004 8300     		lsl	r3, r0, #2
 886 0006 1B18     		add	r3, r3, r0
 887 0008 DB00     		lsl	r3, r3, #3
 888 000a 084A     		ldr	r2, .L56
 889 000c D318     		add	r3, r2, r3
 890 000e DB8A     		ldrh	r3, [r3, #22]
 891              	.LVL140:
 215:Generated_Source\PSoC4/CapSense_Filter.c ****     
 892              		.loc 1 215 0
 893 0010 0025     		mov	r5, #0
 220:Generated_Source\PSoC4/CapSense_Filter.c ****     {
 894              		.loc 1 220 0
 895 0012 05E0     		b	.L54
 896              	.LVL141:
 897              	.L55:
 222:Generated_Source\PSoC4/CapSense_Filter.c ****     }
 898              		.loc 1 222 0
 899 0014 301C     		mov	r0, r6
 900 0016 211C     		mov	r1, r4
 901 0018 FFF7FEFF 		bl	CapSense_UpdateSensorBaseline
 902              	.LVL142:
 903 001c 0543     		orr	r5, r0
 904              	.LVL143:
 220:Generated_Source\PSoC4/CapSense_Filter.c ****     {
 905              		.loc 1 220 0
 906 001e 231C     		mov	r3, r4
 907              	.LVL144:
 908              	.L54:
 220:Generated_Source\PSoC4/CapSense_Filter.c ****     {
 909              		.loc 1 220 0 is_stmt 0 discriminator 1
 910 0020 5C1E     		sub	r4, r3, #1
 911              	.LVL145:
 912 0022 002B     		cmp	r3, #0
 913 0024 F6D1     		bne	.L55
 226:Generated_Source\PSoC4/CapSense_Filter.c **** 
 914              		.loc 1 226 0 is_stmt 1
 915 0026 281C     		mov	r0, r5
 916              		@ sp needed
 917              	.LVL146:
 918              	.LVL147:
 919              	.LVL148:
 920 0028 70BD     		pop	{r4, r5, r6, pc}
 921              	.L57:
 922 002a C046     		.align	2
 923              	.L56:
 924 002c 00000000 		.word	CapSense_dsFlash
 925              		.cfi_endproc
 926              	.LFE3:
 927              		.size	CapSense_UpdateWidgetBaseline, .-CapSense_UpdateWidgetBaseline
 928              		.section	.text.CapSense_UpdateAllBaselines,"ax",%progbits
 929              		.align	2
 930              		.global	CapSense_UpdateAllBaselines
 931              		.code	16
 932              		.thumb_func
 933              		.type	CapSense_UpdateAllBaselines, %function
 934              	CapSense_UpdateAllBaselines:
ARM GAS  C:\Users\RD\AppData\Local\Temp\ccQZrPXd.s 			page 44


 935              	.LFB2:
 165:Generated_Source\PSoC4/CapSense_Filter.c ****     uint32 widgetId; 
 936              		.loc 1 165 0
 937              		.cfi_startproc
 938 0000 38B5     		push	{r3, r4, r5, lr}
 939              		.cfi_def_cfa_offset 16
 940              		.cfi_offset 3, -16
 941              		.cfi_offset 4, -12
 942              		.cfi_offset 5, -8
 943              		.cfi_offset 14, -4
 944              	.LVL149:
 167:Generated_Source\PSoC4/CapSense_Filter.c ****     
 945              		.loc 1 167 0
 946 0002 0024     		mov	r4, #0
 169:Generated_Source\PSoC4/CapSense_Filter.c ****     {            
 947              		.loc 1 169 0
 948 0004 0123     		mov	r3, #1
 949 0006 04E0     		b	.L59
 950              	.LVL150:
 951              	.L60:
 171:Generated_Source\PSoC4/CapSense_Filter.c ****     }      
 952              		.loc 1 171 0
 953 0008 281C     		mov	r0, r5
 954 000a FFF7FEFF 		bl	CapSense_UpdateWidgetBaseline
 955              	.LVL151:
 956 000e 0443     		orr	r4, r0
 957              	.LVL152:
 169:Generated_Source\PSoC4/CapSense_Filter.c ****     {            
 958              		.loc 1 169 0
 959 0010 2B1C     		mov	r3, r5
 960              	.LVL153:
 961              	.L59:
 169:Generated_Source\PSoC4/CapSense_Filter.c ****     {            
 962              		.loc 1 169 0 is_stmt 0 discriminator 1
 963 0012 5D1E     		sub	r5, r3, #1
 964              	.LVL154:
 965 0014 002B     		cmp	r3, #0
 966 0016 F7D1     		bne	.L60
 175:Generated_Source\PSoC4/CapSense_Filter.c ****   
 967              		.loc 1 175 0 is_stmt 1
 968 0018 201C     		mov	r0, r4
 969              		@ sp needed
 970              	.LVL155:
 971              	.LVL156:
 972 001a 38BD     		pop	{r3, r4, r5, pc}
 973              		.cfi_endproc
 974              	.LFE2:
 975              		.size	CapSense_UpdateAllBaselines, .-CapSense_UpdateAllBaselines
 976              		.section	.text.CapSense_RunIIRInternal,"ax",%progbits
 977              		.align	2
 978              		.global	CapSense_RunIIRInternal
 979              		.code	16
 980              		.thumb_func
 981              		.type	CapSense_RunIIRInternal, %function
 982              	CapSense_RunIIRInternal:
 983              	.LFB14:
 778:Generated_Source\PSoC4/CapSense_Filter.c ****     uint32 channel;
ARM GAS  C:\Users\RD\AppData\Local\Temp\ccQZrPXd.s 			page 45


 984              		.loc 1 778 0
 985              		.cfi_startproc
 986              	.LVL157:
 987 0000 F0B5     		push	{r4, r5, r6, r7, lr}
 988              		.cfi_def_cfa_offset 20
 989              		.cfi_offset 4, -20
 990              		.cfi_offset 5, -16
 991              		.cfi_offset 6, -12
 992              		.cfi_offset 7, -8
 993              		.cfi_offset 14, -4
 994 0002 83B0     		sub	sp, sp, #12
 995              		.cfi_def_cfa_offset 32
 996 0004 061C     		mov	r6, r0
 997 0006 0F1C     		mov	r7, r1
 998 0008 0192     		str	r2, [sp, #4]
 999              	.LVL158:
 782:Generated_Source\PSoC4/CapSense_Filter.c ****     {
 1000              		.loc 1 782 0
 1001 000a 0123     		mov	r3, #1
 1002 000c 0EE0     		b	.L62
 1003              	.LVL159:
 1004              	.L64:
 784:Generated_Source\PSoC4/CapSense_Filter.c ****         {
 1005              		.loc 1 784 0
 1006 000e 6B46     		mov	r3, sp
 1007 0010 1B79     		ldrb	r3, [r3, #4]
 1008 0012 062B     		cmp	r3, #6
 1009 0014 09D0     		beq	.L63
 798:Generated_Source\PSoC4/CapSense_Filter.c ****                                                         (uint32)ptrFilterHistObj.ptrRegular->regula
 1010              		.loc 1 798 0
 1011 0016 6500     		lsl	r5, r4, #1
 1012 0018 E85B     		ldrh	r0, [r5, r7]
 1013              	.LVL160:
 799:Generated_Source\PSoC4/CapSense_Filter.c ****                                                         CapSense_REGULAR_IIR_RC_N,
 1014              		.loc 1 799 0
 1015 001a A95B     		ldrh	r1, [r5, r6]
 798:Generated_Source\PSoC4/CapSense_Filter.c ****                                                         (uint32)ptrFilterHistObj.ptrRegular->regula
 1016              		.loc 1 798 0
 1017 001c 8022     		mov	r2, #128
 1018 001e 0023     		mov	r3, #0
 1019 0020 FFF7FEFF 		bl	CapSense_FtIIR1stOrder
 1020              	.LVL161:
 802:Generated_Source\PSoC4/CapSense_Filter.c ****                     ptrSensorObj->raw[channel] = LO16(temp >>CapSense_REGULAR_IIR_RC_SHIFT);
 1021              		.loc 1 802 0
 1022 0024 80B2     		uxth	r0, r0
 1023              	.LVL162:
 1024 0026 A853     		strh	r0, [r5, r6]
 803:Generated_Source\PSoC4/CapSense_Filter.c ****                 #endif /* (CapSense_REGULAR_IIR_RC_TYPE == CapSense_IIR_FILTER_PERFORMANCE) */
 1025              		.loc 1 803 0
 1026 0028 E853     		strh	r0, [r5, r7]
 1027              	.L63:
 778:Generated_Source\PSoC4/CapSense_Filter.c ****     uint32 channel;
 1028              		.loc 1 778 0 discriminator 1
 1029 002a 231C     		mov	r3, r4
 1030              	.LVL163:
 1031              	.L62:
 782:Generated_Source\PSoC4/CapSense_Filter.c ****     {
ARM GAS  C:\Users\RD\AppData\Local\Temp\ccQZrPXd.s 			page 46


 1032              		.loc 1 782 0 discriminator 1
 1033 002c 5C1E     		sub	r4, r3, #1
 1034              	.LVL164:
 1035 002e 002B     		cmp	r3, #0
 1036 0030 EDD1     		bne	.L64
 831:Generated_Source\PSoC4/CapSense_Filter.c **** #endif /* #if (CapSense_REGULAR_RC_IIR_FILTER_EN || CapSense_PROX_RC_IIR_FILTER_EN) */
 1037              		.loc 1 831 0
 1038 0032 03B0     		add	sp, sp, #12
 1039              		@ sp needed
 1040              	.LVL165:
 1041              	.LVL166:
 1042 0034 F0BD     		pop	{r4, r5, r6, r7, pc}
 1043              		.cfi_endproc
 1044              	.LFE14:
 1045              		.size	CapSense_RunIIRInternal, .-CapSense_RunIIRInternal
 1046 0036 C046     		.section	.text.CapSense_RunIIR,"ax",%progbits
 1047              		.align	2
 1048              		.global	CapSense_RunIIR
 1049              		.code	16
 1050              		.thumb_func
 1051              		.type	CapSense_RunIIR, %function
 1052              	CapSense_RunIIR:
 1053              	.LFB12:
 689:Generated_Source\PSoC4/CapSense_Filter.c ****     CapSense_FLASH_WD_STRUCT const *ptrWidget = &CapSense_dsFlash.wdgtArray[widgetId];      
 1054              		.loc 1 689 0
 1055              		.cfi_startproc
 1056              	.LVL167:
 1057 0000 F8B5     		push	{r3, r4, r5, r6, r7, lr}
 1058              		.cfi_def_cfa_offset 24
 1059              		.cfi_offset 3, -24
 1060              		.cfi_offset 4, -20
 1061              		.cfi_offset 5, -16
 1062              		.cfi_offset 6, -12
 1063              		.cfi_offset 7, -8
 1064              		.cfi_offset 14, -4
 1065              	.LVL168:
 695:Generated_Source\PSoC4/CapSense_Filter.c ****     ptrSensor = &ptrSensor[sensorId];
 1066              		.loc 1 695 0
 1067 0002 0C4E     		ldr	r6, .L67
 1068 0004 8300     		lsl	r3, r0, #2
 1069 0006 1A18     		add	r2, r3, r0
 1070 0008 D200     		lsl	r2, r2, #3
 1071 000a B518     		add	r5, r6, r2
 1072              	.LVL169:
 696:Generated_Source\PSoC4/CapSense_Filter.c ****         
 1073              		.loc 1 696 0
 1074 000c CA00     		lsl	r2, r1, #3
 1075 000e 521A     		sub	r2, r2, r1
 1076 0010 5200     		lsl	r2, r2, #1
 1077 0012 AC68     		ldr	r4, [r5, #8]
 1078 0014 A418     		add	r4, r4, r2
 1079              	.LVL170:
 699:Generated_Source\PSoC4/CapSense_Filter.c ****     
 1080              		.loc 1 699 0
 1081 0016 EF68     		ldr	r7, [r5, #12]
 1082 0018 3D1C     		mov	r5, r7
 1083              	.LVL171:
ARM GAS  C:\Users\RD\AppData\Local\Temp\ccQZrPXd.s 			page 47


 701:Generated_Source\PSoC4/CapSense_Filter.c ****     {
 1084              		.loc 1 701 0
 1085 001a 1B18     		add	r3, r3, r0
 1086 001c DB00     		lsl	r3, r3, #3
 1087 001e F318     		add	r3, r6, r3
 1088 0020 1A7E     		ldrb	r2, [r3, #24]
 1089 0022 062A     		cmp	r2, #6
 1090 0024 01D0     		beq	.L66
 704:Generated_Source\PSoC4/CapSense_Filter.c ****         #endif /* (CapSense_REGULAR_SENSOR_EN) */
 1091              		.loc 1 704 0
 1092 0026 4900     		lsl	r1, r1, #1
 1093              	.LVL172:
 1094 0028 7D18     		add	r5, r7, r1
 1095              	.L66:
 1096              	.LVL173:
 714:Generated_Source\PSoC4/CapSense_Filter.c **** }
 1097              		.loc 1 714 0
 1098 002a 281C     		mov	r0, r5
 1099              	.LVL174:
 1100 002c 211C     		mov	r1, r4
 1101 002e FFF7FEFF 		bl	CapSense_RunIIRInternal
 1102              	.LVL175:
 715:Generated_Source\PSoC4/CapSense_Filter.c ****     
 1103              		.loc 1 715 0
 1104              		@ sp needed
 1105              	.LVL176:
 1106              	.LVL177:
 1107              	.LVL178:
 1108 0032 F8BD     		pop	{r3, r4, r5, r6, r7, pc}
 1109              	.L68:
 1110              		.align	2
 1111              	.L67:
 1112 0034 00000000 		.word	CapSense_dsFlash
 1113              		.cfi_endproc
 1114              	.LFE12:
 1115              		.size	CapSense_RunIIR, .-CapSense_RunIIR
 1116              		.section	.text.CapSense_FtRunEnabledFiltersInternal,"ax",%progbits
 1117              		.align	2
 1118              		.global	CapSense_FtRunEnabledFiltersInternal
 1119              		.code	16
 1120              		.thumb_func
 1121              		.type	CapSense_FtRunEnabledFiltersInternal, %function
 1122              	CapSense_FtRunEnabledFiltersInternal:
 1123              	.LFB16:
1278:Generated_Source\PSoC4/CapSense_Filter.c ****     #if (CapSense_REGULAR_RC_MEDIAN_FILTER_EN || CapSense_PROX_RC_MEDIAN_FILTER_EN)
 1124              		.loc 1 1278 0
 1125              		.cfi_startproc
 1126              	.LVL179:
 1127 0000 08B5     		push	{r3, lr}
 1128              		.cfi_def_cfa_offset 8
 1129              		.cfi_offset 3, -8
 1130              		.cfi_offset 14, -4
1284:Generated_Source\PSoC4/CapSense_Filter.c ****     #endif /* (CapSense_REGULAR_RC_IIR_FILTER_EN || CapSense_PROX_RC_IIR_FILTER_EN) */ 
 1131              		.loc 1 1284 0
 1132 0002 FFF7FEFF 		bl	CapSense_RunIIRInternal
 1133              	.LVL180:
1290:Generated_Source\PSoC4/CapSense_Filter.c **** #endif /* (CapSense_REGULAR_RC_FILTER_EN || CapSense_PROX_RC_FILTER_EN) */
ARM GAS  C:\Users\RD\AppData\Local\Temp\ccQZrPXd.s 			page 48


 1134              		.loc 1 1290 0
 1135              		@ sp needed
 1136 0006 08BD     		pop	{r3, pc}
 1137              		.cfi_endproc
 1138              	.LFE16:
 1139              		.size	CapSense_FtRunEnabledFiltersInternal, .-CapSense_FtRunEnabledFiltersInternal
 1140              		.section	.text.CapSense_FtRunEnabledFilters,"ax",%progbits
 1141              		.align	2
 1142              		.global	CapSense_FtRunEnabledFilters
 1143              		.code	16
 1144              		.thumb_func
 1145              		.type	CapSense_FtRunEnabledFilters, %function
 1146              	CapSense_FtRunEnabledFilters:
 1147              	.LFB15:
1234:Generated_Source\PSoC4/CapSense_Filter.c ****     CapSense_FLASH_WD_STRUCT const *ptrWidget = &CapSense_dsFlash.wdgtArray[widgetId];      
 1148              		.loc 1 1234 0
 1149              		.cfi_startproc
 1150              	.LVL181:
 1151 0000 F8B5     		push	{r3, r4, r5, r6, r7, lr}
 1152              		.cfi_def_cfa_offset 24
 1153              		.cfi_offset 3, -24
 1154              		.cfi_offset 4, -20
 1155              		.cfi_offset 5, -16
 1156              		.cfi_offset 6, -12
 1157              		.cfi_offset 7, -8
 1158              		.cfi_offset 14, -4
 1159              	.LVL182:
1240:Generated_Source\PSoC4/CapSense_Filter.c ****     ptrSensor = &ptrSensor[sensorId];
 1160              		.loc 1 1240 0
 1161 0002 0C4E     		ldr	r6, .L72
 1162 0004 8300     		lsl	r3, r0, #2
 1163 0006 1A18     		add	r2, r3, r0
 1164 0008 D200     		lsl	r2, r2, #3
 1165 000a B518     		add	r5, r6, r2
 1166              	.LVL183:
1241:Generated_Source\PSoC4/CapSense_Filter.c ****     
 1167              		.loc 1 1241 0
 1168 000c CA00     		lsl	r2, r1, #3
 1169 000e 521A     		sub	r2, r2, r1
 1170 0010 5200     		lsl	r2, r2, #1
 1171 0012 AC68     		ldr	r4, [r5, #8]
 1172 0014 A418     		add	r4, r4, r2
 1173              	.LVL184:
1244:Generated_Source\PSoC4/CapSense_Filter.c ****     
 1174              		.loc 1 1244 0
 1175 0016 EF68     		ldr	r7, [r5, #12]
 1176 0018 3D1C     		mov	r5, r7
 1177              	.LVL185:
1246:Generated_Source\PSoC4/CapSense_Filter.c ****     {
 1178              		.loc 1 1246 0
 1179 001a 1B18     		add	r3, r3, r0
 1180 001c DB00     		lsl	r3, r3, #3
 1181 001e F318     		add	r3, r6, r3
 1182 0020 1A7E     		ldrb	r2, [r3, #24]
 1183 0022 062A     		cmp	r2, #6
 1184 0024 01D0     		beq	.L71
1249:Generated_Source\PSoC4/CapSense_Filter.c ****         #endif /* (CapSense_REGULAR_SENSOR_EN) */
ARM GAS  C:\Users\RD\AppData\Local\Temp\ccQZrPXd.s 			page 49


 1185              		.loc 1 1249 0
 1186 0026 4900     		lsl	r1, r1, #1
 1187              	.LVL186:
 1188 0028 7D18     		add	r5, r7, r1
 1189              	.L71:
 1190              	.LVL187:
1259:Generated_Source\PSoC4/CapSense_Filter.c **** }
 1191              		.loc 1 1259 0
 1192 002a 281C     		mov	r0, r5
 1193              	.LVL188:
 1194 002c 211C     		mov	r1, r4
 1195 002e FFF7FEFF 		bl	CapSense_FtRunEnabledFiltersInternal
 1196              	.LVL189:
1260:Generated_Source\PSoC4/CapSense_Filter.c **** 
 1197              		.loc 1 1260 0
 1198              		@ sp needed
 1199              	.LVL190:
 1200              	.LVL191:
 1201              	.LVL192:
 1202 0032 F8BD     		pop	{r3, r4, r5, r6, r7, pc}
 1203              	.L73:
 1204              		.align	2
 1205              	.L72:
 1206 0034 00000000 		.word	CapSense_dsFlash
 1207              		.cfi_endproc
 1208              	.LFE15:
 1209              		.size	CapSense_FtRunEnabledFilters, .-CapSense_FtRunEnabledFilters
 1210              		.text
 1211              	.Letext0:
 1212              		.file 2 "Generated_Source\\PSoC4\\cytypes.h"
 1213              		.file 3 "Generated_Source\\PSoC4\\CapSense_Configuration.h"
 1214              		.file 4 "Generated_Source\\PSoC4\\CapSense_SmartSense_LL.h"
 1215              		.file 5 "Generated_Source\\PSoC4\\CapSense_Structure.h"
 1216              		.section	.debug_info,"",%progbits
 1217              	.Ldebug_info0:
 1218 0000 B30D0000 		.4byte	0xdb3
 1219 0004 0400     		.2byte	0x4
 1220 0006 00000000 		.4byte	.Ldebug_abbrev0
 1221 000a 04       		.byte	0x4
 1222 000b 01       		.uleb128 0x1
 1223 000c 29000000 		.4byte	.LASF122
 1224 0010 01       		.byte	0x1
 1225 0011 CE080000 		.4byte	.LASF123
 1226 0015 48080000 		.4byte	.LASF124
 1227 0019 00000000 		.4byte	.Ldebug_ranges0+0
 1228 001d 00000000 		.4byte	0
 1229 0021 00000000 		.4byte	.Ldebug_line0
 1230 0025 02       		.uleb128 0x2
 1231 0026 01       		.byte	0x1
 1232 0027 06       		.byte	0x6
 1233 0028 98070000 		.4byte	.LASF0
 1234 002c 02       		.uleb128 0x2
 1235 002d 01       		.byte	0x1
 1236 002e 08       		.byte	0x8
 1237 002f 1F070000 		.4byte	.LASF1
 1238 0033 02       		.uleb128 0x2
 1239 0034 02       		.byte	0x2
ARM GAS  C:\Users\RD\AppData\Local\Temp\ccQZrPXd.s 			page 50


 1240 0035 05       		.byte	0x5
 1241 0036 84050000 		.4byte	.LASF2
 1242 003a 02       		.uleb128 0x2
 1243 003b 02       		.byte	0x2
 1244 003c 07       		.byte	0x7
 1245 003d CB070000 		.4byte	.LASF3
 1246 0041 02       		.uleb128 0x2
 1247 0042 04       		.byte	0x4
 1248 0043 05       		.byte	0x5
 1249 0044 AB050000 		.4byte	.LASF4
 1250 0048 02       		.uleb128 0x2
 1251 0049 04       		.byte	0x4
 1252 004a 07       		.byte	0x7
 1253 004b 87060000 		.4byte	.LASF5
 1254 004f 02       		.uleb128 0x2
 1255 0050 08       		.byte	0x8
 1256 0051 05       		.byte	0x5
 1257 0052 42040000 		.4byte	.LASF6
 1258 0056 02       		.uleb128 0x2
 1259 0057 08       		.byte	0x8
 1260 0058 07       		.byte	0x7
 1261 0059 0C020000 		.4byte	.LASF7
 1262 005d 03       		.uleb128 0x3
 1263 005e 04       		.byte	0x4
 1264 005f 05       		.byte	0x5
 1265 0060 696E7400 		.ascii	"int\000"
 1266 0064 02       		.uleb128 0x2
 1267 0065 04       		.byte	0x4
 1268 0066 07       		.byte	0x7
 1269 0067 E6000000 		.4byte	.LASF8
 1270 006b 04       		.uleb128 0x4
 1271 006c EB070000 		.4byte	.LASF9
 1272 0070 02       		.byte	0x2
 1273 0071 B901     		.2byte	0x1b9
 1274 0073 2C000000 		.4byte	0x2c
 1275 0077 04       		.uleb128 0x4
 1276 0078 0C040000 		.4byte	.LASF10
 1277 007c 02       		.byte	0x2
 1278 007d BA01     		.2byte	0x1ba
 1279 007f 3A000000 		.4byte	0x3a
 1280 0083 04       		.uleb128 0x4
 1281 0084 F0040000 		.4byte	.LASF11
 1282 0088 02       		.byte	0x2
 1283 0089 BB01     		.2byte	0x1bb
 1284 008b 48000000 		.4byte	0x48
 1285 008f 02       		.uleb128 0x2
 1286 0090 04       		.byte	0x4
 1287 0091 04       		.byte	0x4
 1288 0092 E1010000 		.4byte	.LASF12
 1289 0096 02       		.uleb128 0x2
 1290 0097 08       		.byte	0x8
 1291 0098 04       		.byte	0x4
 1292 0099 F1070000 		.4byte	.LASF13
 1293 009d 02       		.uleb128 0x2
 1294 009e 01       		.byte	0x1
 1295 009f 08       		.byte	0x8
 1296 00a0 E1030000 		.4byte	.LASF14
ARM GAS  C:\Users\RD\AppData\Local\Temp\ccQZrPXd.s 			page 51


 1297 00a4 04       		.uleb128 0x4
 1298 00a5 FC060000 		.4byte	.LASF15
 1299 00a9 02       		.byte	0x2
 1300 00aa 5B02     		.2byte	0x25b
 1301 00ac 48000000 		.4byte	0x48
 1302 00b0 02       		.uleb128 0x2
 1303 00b1 04       		.byte	0x4
 1304 00b2 07       		.byte	0x7
 1305 00b3 7E060000 		.4byte	.LASF16
 1306 00b7 05       		.uleb128 0x5
 1307 00b8 04       		.byte	0x4
 1308 00b9 06       		.uleb128 0x6
 1309 00ba 46070000 		.4byte	.LASF17
 1310 00be 03       		.byte	0x3
 1311 00bf E0       		.byte	0xe0
 1312 00c0 77000000 		.4byte	0x77
 1313 00c4 06       		.uleb128 0x6
 1314 00c5 1E040000 		.4byte	.LASF18
 1315 00c9 03       		.byte	0x3
 1316 00ca E4       		.byte	0xe4
 1317 00cb 6B000000 		.4byte	0x6b
 1318 00cf 07       		.uleb128 0x7
 1319 00d0 04       		.byte	0x4
 1320 00d1 6B000000 		.4byte	0x6b
 1321 00d5 08       		.uleb128 0x8
 1322 00d6 0C       		.byte	0xc
 1323 00d7 04       		.byte	0x4
 1324 00d8 6C       		.byte	0x6c
 1325 00d9 32010000 		.4byte	0x132
 1326 00dd 09       		.uleb128 0x9
 1327 00de 06080000 		.4byte	.LASF19
 1328 00e2 04       		.byte	0x4
 1329 00e3 6E       		.byte	0x6e
 1330 00e4 77000000 		.4byte	0x77
 1331 00e8 00       		.byte	0
 1332 00e9 09       		.uleb128 0x9
 1333 00ea 0D080000 		.4byte	.LASF20
 1334 00ee 04       		.byte	0x4
 1335 00ef 6F       		.byte	0x6f
 1336 00f0 77000000 		.4byte	0x77
 1337 00f4 02       		.byte	0x2
 1338 00f5 09       		.uleb128 0x9
 1339 00f6 14080000 		.4byte	.LASF21
 1340 00fa 04       		.byte	0x4
 1341 00fb 70       		.byte	0x70
 1342 00fc 77000000 		.4byte	0x77
 1343 0100 04       		.byte	0x4
 1344 0101 09       		.uleb128 0x9
 1345 0102 1B080000 		.4byte	.LASF22
 1346 0106 04       		.byte	0x4
 1347 0107 71       		.byte	0x71
 1348 0108 77000000 		.4byte	0x77
 1349 010c 06       		.byte	0x6
 1350 010d 09       		.uleb128 0x9
 1351 010e 22080000 		.4byte	.LASF23
 1352 0112 04       		.byte	0x4
 1353 0113 72       		.byte	0x72
ARM GAS  C:\Users\RD\AppData\Local\Temp\ccQZrPXd.s 			page 52


 1354 0114 77000000 		.4byte	0x77
 1355 0118 08       		.byte	0x8
 1356 0119 09       		.uleb128 0x9
 1357 011a 29080000 		.4byte	.LASF24
 1358 011e 04       		.byte	0x4
 1359 011f 73       		.byte	0x73
 1360 0120 6B000000 		.4byte	0x6b
 1361 0124 0A       		.byte	0xa
 1362 0125 09       		.uleb128 0x9
 1363 0126 30080000 		.4byte	.LASF25
 1364 012a 04       		.byte	0x4
 1365 012b 74       		.byte	0x74
 1366 012c 6B000000 		.4byte	0x6b
 1367 0130 0B       		.byte	0xb
 1368 0131 00       		.byte	0
 1369 0132 06       		.uleb128 0x6
 1370 0133 97030000 		.4byte	.LASF26
 1371 0137 04       		.byte	0x4
 1372 0138 75       		.byte	0x75
 1373 0139 D5000000 		.4byte	0xd5
 1374 013d 0A       		.uleb128 0xa
 1375 013e 01       		.byte	0x1
 1376 013f 05       		.byte	0x5
 1377 0140 4F       		.byte	0x4f
 1378 0141 6A010000 		.4byte	0x16a
 1379 0145 0B       		.uleb128 0xb
 1380 0146 00060000 		.4byte	.LASF27
 1381 014a 01       		.sleb128 1
 1382 014b 0B       		.uleb128 0xb
 1383 014c 12050000 		.4byte	.LASF28
 1384 0150 02       		.sleb128 2
 1385 0151 0B       		.uleb128 0xb
 1386 0152 4B030000 		.4byte	.LASF29
 1387 0156 03       		.sleb128 3
 1388 0157 0B       		.uleb128 0xb
 1389 0158 23020000 		.4byte	.LASF30
 1390 015c 04       		.sleb128 4
 1391 015d 0B       		.uleb128 0xb
 1392 015e 67010000 		.4byte	.LASF31
 1393 0162 05       		.sleb128 5
 1394 0163 0B       		.uleb128 0xb
 1395 0164 11000000 		.4byte	.LASF32
 1396 0168 06       		.sleb128 6
 1397 0169 00       		.byte	0
 1398 016a 06       		.uleb128 0x6
 1399 016b DA040000 		.4byte	.LASF33
 1400 016f 05       		.byte	0x5
 1401 0170 56       		.byte	0x56
 1402 0171 3D010000 		.4byte	0x13d
 1403 0175 0A       		.uleb128 0xa
 1404 0176 01       		.byte	0x1
 1405 0177 05       		.byte	0x5
 1406 0178 5D       		.byte	0x5d
 1407 0179 96010000 		.4byte	0x196
 1408 017d 0B       		.uleb128 0xb
 1409 017e D1000000 		.4byte	.LASF34
 1410 0182 00       		.sleb128 0
ARM GAS  C:\Users\RD\AppData\Local\Temp\ccQZrPXd.s 			page 53


 1411 0183 0B       		.uleb128 0xb
 1412 0184 62060000 		.4byte	.LASF35
 1413 0188 01       		.sleb128 1
 1414 0189 0B       		.uleb128 0xb
 1415 018a DA050000 		.4byte	.LASF36
 1416 018e 02       		.sleb128 2
 1417 018f 0B       		.uleb128 0xb
 1418 0190 69070000 		.4byte	.LASF37
 1419 0194 03       		.sleb128 3
 1420 0195 00       		.byte	0
 1421 0196 08       		.uleb128 0x8
 1422 0197 12       		.byte	0x12
 1423 0198 05       		.byte	0x5
 1424 0199 7C       		.byte	0x7c
 1425 019a 3B020000 		.4byte	0x23b
 1426 019e 09       		.uleb128 0x9
 1427 019f 13040000 		.4byte	.LASF38
 1428 01a3 05       		.byte	0x5
 1429 01a4 82       		.byte	0x82
 1430 01a5 77000000 		.4byte	0x77
 1431 01a9 00       		.byte	0
 1432 01aa 09       		.uleb128 0x9
 1433 01ab DC060000 		.4byte	.LASF39
 1434 01af 05       		.byte	0x5
 1435 01b0 87       		.byte	0x87
 1436 01b1 B9000000 		.4byte	0xb9
 1437 01b5 02       		.byte	0x2
 1438 01b6 09       		.uleb128 0x9
 1439 01b7 D9030000 		.4byte	.LASF40
 1440 01bb 05       		.byte	0x5
 1441 01bc 8C       		.byte	0x8c
 1442 01bd 6B000000 		.4byte	0x6b
 1443 01c1 04       		.byte	0x4
 1444 01c2 09       		.uleb128 0x9
 1445 01c3 AD040000 		.4byte	.LASF41
 1446 01c7 05       		.byte	0x5
 1447 01c8 91       		.byte	0x91
 1448 01c9 6B000000 		.4byte	0x6b
 1449 01cd 05       		.byte	0x5
 1450 01ce 09       		.uleb128 0x9
 1451 01cf 40030000 		.4byte	.LASF42
 1452 01d3 05       		.byte	0x5
 1453 01d4 96       		.byte	0x96
 1454 01d5 6B000000 		.4byte	0x6b
 1455 01d9 06       		.byte	0x6
 1456 01da 09       		.uleb128 0x9
 1457 01db 58040000 		.4byte	.LASF43
 1458 01df 05       		.byte	0x5
 1459 01e0 9B       		.byte	0x9b
 1460 01e1 6B000000 		.4byte	0x6b
 1461 01e5 07       		.byte	0x7
 1462 01e6 09       		.uleb128 0x9
 1463 01e7 80030000 		.4byte	.LASF44
 1464 01eb 05       		.byte	0x5
 1465 01ec A1       		.byte	0xa1
 1466 01ed C4000000 		.4byte	0xc4
 1467 01f1 08       		.byte	0x8
ARM GAS  C:\Users\RD\AppData\Local\Temp\ccQZrPXd.s 			page 54


 1468 01f2 09       		.uleb128 0x9
 1469 01f3 03030000 		.4byte	.LASF45
 1470 01f7 05       		.byte	0x5
 1471 01f8 A6       		.byte	0xa6
 1472 01f9 6B000000 		.4byte	0x6b
 1473 01fd 09       		.byte	0x9
 1474 01fe 09       		.uleb128 0x9
 1475 01ff B0060000 		.4byte	.LASF46
 1476 0203 05       		.byte	0x5
 1477 0204 AD       		.byte	0xad
 1478 0205 3B020000 		.4byte	0x23b
 1479 0209 0A       		.byte	0xa
 1480 020a 09       		.uleb128 0x9
 1481 020b 91070000 		.4byte	.LASF47
 1482 020f 05       		.byte	0x5
 1483 0210 B4       		.byte	0xb4
 1484 0211 6B000000 		.4byte	0x6b
 1485 0215 0B       		.byte	0xb
 1486 0216 09       		.uleb128 0x9
 1487 0217 6B050000 		.4byte	.LASF48
 1488 021b 05       		.byte	0x5
 1489 021c B9       		.byte	0xb9
 1490 021d 6B000000 		.4byte	0x6b
 1491 0221 0C       		.byte	0xc
 1492 0222 09       		.uleb128 0x9
 1493 0223 58060000 		.4byte	.LASF49
 1494 0227 05       		.byte	0x5
 1495 0228 BF       		.byte	0xbf
 1496 0229 77000000 		.4byte	0x77
 1497 022d 0E       		.byte	0xe
 1498 022e 09       		.uleb128 0x9
 1499 022f 39030000 		.4byte	.LASF50
 1500 0233 05       		.byte	0x5
 1501 0234 C4       		.byte	0xc4
 1502 0235 77000000 		.4byte	0x77
 1503 0239 10       		.byte	0x10
 1504 023a 00       		.byte	0
 1505 023b 0C       		.uleb128 0xc
 1506 023c 6B000000 		.4byte	0x6b
 1507 0240 4B020000 		.4byte	0x24b
 1508 0244 0D       		.uleb128 0xd
 1509 0245 B0000000 		.4byte	0xb0
 1510 0249 00       		.byte	0
 1511 024a 00       		.byte	0
 1512 024b 06       		.uleb128 0x6
 1513 024c BE040000 		.4byte	.LASF51
 1514 0250 05       		.byte	0x5
 1515 0251 C5       		.byte	0xc5
 1516 0252 96010000 		.4byte	0x196
 1517 0256 0C       		.uleb128 0xc
 1518 0257 77000000 		.4byte	0x77
 1519 025b 66020000 		.4byte	0x266
 1520 025f 0D       		.uleb128 0xd
 1521 0260 B0000000 		.4byte	0xb0
 1522 0264 00       		.byte	0
 1523 0265 00       		.byte	0
 1524 0266 0E       		.uleb128 0xe
ARM GAS  C:\Users\RD\AppData\Local\Temp\ccQZrPXd.s 			page 55


 1525 0267 0E       		.byte	0xe
 1526 0268 05       		.byte	0x5
 1527 0269 2A01     		.2byte	0x12a
 1528 026b CB020000 		.4byte	0x2cb
 1529 026f 0F       		.uleb128 0xf
 1530 0270 72617700 		.ascii	"raw\000"
 1531 0274 05       		.byte	0x5
 1532 0275 2F01     		.2byte	0x12f
 1533 0277 56020000 		.4byte	0x256
 1534 027b 00       		.byte	0
 1535 027c 10       		.uleb128 0x10
 1536 027d A4070000 		.4byte	.LASF52
 1537 0281 05       		.byte	0x5
 1538 0282 3401     		.2byte	0x134
 1539 0284 56020000 		.4byte	0x256
 1540 0288 02       		.byte	0x2
 1541 0289 10       		.uleb128 0x10
 1542 028a E5060000 		.4byte	.LASF53
 1543 028e 05       		.byte	0x5
 1544 028f 3A01     		.2byte	0x13a
 1545 0291 3B020000 		.4byte	0x23b
 1546 0295 04       		.byte	0x4
 1547 0296 10       		.uleb128 0x10
 1548 0297 B4050000 		.4byte	.LASF54
 1549 029b 05       		.byte	0x5
 1550 029c 3F01     		.2byte	0x13f
 1551 029e B9000000 		.4byte	0xb9
 1552 02a2 06       		.byte	0x6
 1553 02a3 10       		.uleb128 0x10
 1554 02a4 F8070000 		.4byte	.LASF55
 1555 02a8 05       		.byte	0x5
 1556 02a9 4401     		.2byte	0x144
 1557 02ab CB020000 		.4byte	0x2cb
 1558 02af 08       		.byte	0x8
 1559 02b0 10       		.uleb128 0x10
 1560 02b1 B2020000 		.4byte	.LASF56
 1561 02b5 05       		.byte	0x5
 1562 02b6 4901     		.2byte	0x149
 1563 02b8 56020000 		.4byte	0x256
 1564 02bc 0A       		.byte	0xa
 1565 02bd 10       		.uleb128 0x10
 1566 02be 39040000 		.4byte	.LASF57
 1567 02c2 05       		.byte	0x5
 1568 02c3 4F01     		.2byte	0x14f
 1569 02c5 3B020000 		.4byte	0x23b
 1570 02c9 0C       		.byte	0xc
 1571 02ca 00       		.byte	0
 1572 02cb 0C       		.uleb128 0xc
 1573 02cc C4000000 		.4byte	0xc4
 1574 02d0 DB020000 		.4byte	0x2db
 1575 02d4 0D       		.uleb128 0xd
 1576 02d5 B0000000 		.4byte	0xb0
 1577 02d9 00       		.byte	0
 1578 02da 00       		.byte	0
 1579 02db 04       		.uleb128 0x4
 1580 02dc EB020000 		.4byte	.LASF58
 1581 02e0 05       		.byte	0x5
ARM GAS  C:\Users\RD\AppData\Local\Temp\ccQZrPXd.s 			page 56


 1582 02e1 5001     		.2byte	0x150
 1583 02e3 66020000 		.4byte	0x266
 1584 02e7 0E       		.uleb128 0xe
 1585 02e8 28       		.byte	0x28
 1586 02e9 05       		.byte	0x5
 1587 02ea 1E02     		.2byte	0x21e
 1588 02ec 9A030000 		.4byte	0x39a
 1589 02f0 10       		.uleb128 0x10
 1590 02f1 DE070000 		.4byte	.LASF59
 1591 02f5 05       		.byte	0x5
 1592 02f6 2702     		.2byte	0x227
 1593 02f8 9A030000 		.4byte	0x39a
 1594 02fc 00       		.byte	0
 1595 02fd 10       		.uleb128 0x10
 1596 02fe 3A070000 		.4byte	.LASF60
 1597 0302 05       		.byte	0x5
 1598 0303 2D02     		.2byte	0x22d
 1599 0305 B7000000 		.4byte	0xb7
 1600 0309 04       		.byte	0x4
 1601 030a 10       		.uleb128 0x10
 1602 030b 58050000 		.4byte	.LASF61
 1603 030f 05       		.byte	0x5
 1604 0310 3302     		.2byte	0x233
 1605 0312 A1030000 		.4byte	0x3a1
 1606 0316 08       		.byte	0x8
 1607 0317 10       		.uleb128 0x10
 1608 0318 02050000 		.4byte	.LASF62
 1609 031c 05       		.byte	0x5
 1610 031d 3802     		.2byte	0x238
 1611 031f B7000000 		.4byte	0xb7
 1612 0323 0C       		.byte	0xc
 1613 0324 10       		.uleb128 0x10
 1614 0325 B8060000 		.4byte	.LASF63
 1615 0329 05       		.byte	0x5
 1616 032a 3F02     		.2byte	0x23f
 1617 032c CF000000 		.4byte	0xcf
 1618 0330 10       		.byte	0x10
 1619 0331 10       		.uleb128 0x10
 1620 0332 2D070000 		.4byte	.LASF64
 1621 0336 05       		.byte	0x5
 1622 0337 4402     		.2byte	0x244
 1623 0339 77000000 		.4byte	0x77
 1624 033d 14       		.byte	0x14
 1625 033e 10       		.uleb128 0x10
 1626 033f 8B030000 		.4byte	.LASF65
 1627 0343 05       		.byte	0x5
 1628 0344 4B02     		.2byte	0x24b
 1629 0346 77000000 		.4byte	0x77
 1630 034a 16       		.byte	0x16
 1631 034b 10       		.uleb128 0x10
 1632 034c 77020000 		.4byte	.LASF66
 1633 0350 05       		.byte	0x5
 1634 0351 5602     		.2byte	0x256
 1635 0353 6B000000 		.4byte	0x6b
 1636 0357 18       		.byte	0x18
 1637 0358 10       		.uleb128 0x10
 1638 0359 50040000 		.4byte	.LASF67
ARM GAS  C:\Users\RD\AppData\Local\Temp\ccQZrPXd.s 			page 57


 1639 035d 05       		.byte	0x5
 1640 035e 5E02     		.2byte	0x25e
 1641 0360 6B000000 		.4byte	0x6b
 1642 0364 19       		.byte	0x19
 1643 0365 10       		.uleb128 0x10
 1644 0366 78050000 		.4byte	.LASF68
 1645 036a 05       		.byte	0x5
 1646 036b 6402     		.2byte	0x264
 1647 036d 77000000 		.4byte	0x77
 1648 0371 1A       		.byte	0x1a
 1649 0372 10       		.uleb128 0x10
 1650 0373 C8060000 		.4byte	.LASF69
 1651 0377 05       		.byte	0x5
 1652 0378 6D02     		.2byte	0x26d
 1653 037a 83000000 		.4byte	0x83
 1654 037e 1C       		.byte	0x1c
 1655 037f 10       		.uleb128 0x10
 1656 0380 68020000 		.4byte	.LASF70
 1657 0384 05       		.byte	0x5
 1658 0385 7502     		.2byte	0x275
 1659 0387 A7030000 		.4byte	0x3a7
 1660 038b 20       		.byte	0x20
 1661 038c 10       		.uleb128 0x10
 1662 038d ED060000 		.4byte	.LASF71
 1663 0391 05       		.byte	0x5
 1664 0392 7A02     		.2byte	0x27a
 1665 0394 B7000000 		.4byte	0xb7
 1666 0398 24       		.byte	0x24
 1667 0399 00       		.byte	0
 1668 039a 07       		.uleb128 0x7
 1669 039b 04       		.byte	0x4
 1670 039c A0030000 		.4byte	0x3a0
 1671 03a0 11       		.uleb128 0x11
 1672 03a1 07       		.uleb128 0x7
 1673 03a2 04       		.byte	0x4
 1674 03a3 DB020000 		.4byte	0x2db
 1675 03a7 07       		.uleb128 0x7
 1676 03a8 04       		.byte	0x4
 1677 03a9 32010000 		.4byte	0x132
 1678 03ad 04       		.uleb128 0x4
 1679 03ae 67030000 		.4byte	.LASF72
 1680 03b2 05       		.byte	0x5
 1681 03b3 7B02     		.2byte	0x27b
 1682 03b5 E7020000 		.4byte	0x2e7
 1683 03b9 0E       		.uleb128 0xe
 1684 03ba 28       		.byte	0x28
 1685 03bb 05       		.byte	0x5
 1686 03bc 8102     		.2byte	0x281
 1687 03be D0030000 		.4byte	0x3d0
 1688 03c2 10       		.uleb128 0x10
 1689 03c3 F7080000 		.4byte	.LASF73
 1690 03c7 05       		.byte	0x5
 1691 03c8 8602     		.2byte	0x286
 1692 03ca D0030000 		.4byte	0x3d0
 1693 03ce 00       		.byte	0
 1694 03cf 00       		.byte	0
 1695 03d0 0C       		.uleb128 0xc
ARM GAS  C:\Users\RD\AppData\Local\Temp\ccQZrPXd.s 			page 58


 1696 03d1 AD030000 		.4byte	0x3ad
 1697 03d5 E0030000 		.4byte	0x3e0
 1698 03d9 0D       		.uleb128 0xd
 1699 03da B0000000 		.4byte	0xb0
 1700 03de 00       		.byte	0
 1701 03df 00       		.byte	0
 1702 03e0 04       		.uleb128 0x4
 1703 03e1 63040000 		.4byte	.LASF74
 1704 03e5 05       		.byte	0x5
 1705 03e6 8702     		.2byte	0x287
 1706 03e8 B9030000 		.4byte	0x3b9
 1707 03ec 0E       		.uleb128 0xe
 1708 03ed 02       		.byte	0x2
 1709 03ee 05       		.byte	0x5
 1710 03ef BC02     		.2byte	0x2bc
 1711 03f1 03040000 		.4byte	0x403
 1712 03f5 10       		.uleb128 0x10
 1713 03f6 5E070000 		.4byte	.LASF75
 1714 03fa 05       		.byte	0x5
 1715 03fb C102     		.2byte	0x2c1
 1716 03fd 77000000 		.4byte	0x77
 1717 0401 00       		.byte	0
 1718 0402 00       		.byte	0
 1719 0403 04       		.uleb128 0x4
 1720 0404 15060000 		.4byte	.LASF76
 1721 0408 05       		.byte	0x5
 1722 0409 C202     		.2byte	0x2c2
 1723 040b EC030000 		.4byte	0x3ec
 1724 040f 0E       		.uleb128 0xe
 1725 0410 02       		.byte	0x2
 1726 0411 05       		.byte	0x5
 1727 0412 C702     		.2byte	0x2c7
 1728 0414 26040000 		.4byte	0x426
 1729 0418 10       		.uleb128 0x10
 1730 0419 DC020000 		.4byte	.LASF77
 1731 041d 05       		.byte	0x5
 1732 041e CC02     		.2byte	0x2cc
 1733 0420 26040000 		.4byte	0x426
 1734 0424 00       		.byte	0
 1735 0425 00       		.byte	0
 1736 0426 0C       		.uleb128 0xc
 1737 0427 03040000 		.4byte	0x403
 1738 042b 36040000 		.4byte	0x436
 1739 042f 0D       		.uleb128 0xd
 1740 0430 B0000000 		.4byte	0xb0
 1741 0434 00       		.byte	0
 1742 0435 00       		.byte	0
 1743 0436 04       		.uleb128 0x4
 1744 0437 8E050000 		.4byte	.LASF78
 1745 043b 05       		.byte	0x5
 1746 043c CD02     		.2byte	0x2cd
 1747 043e 0F040000 		.4byte	0x40f
 1748 0442 12       		.uleb128 0x12
 1749 0443 04       		.byte	0x4
 1750 0444 05       		.byte	0x5
 1751 0445 D202     		.2byte	0x2d2
 1752 0447 64040000 		.4byte	0x464
ARM GAS  C:\Users\RD\AppData\Local\Temp\ccQZrPXd.s 			page 59


 1753 044b 13       		.uleb128 0x13
 1754 044c 70747200 		.ascii	"ptr\000"
 1755 0450 05       		.byte	0x5
 1756 0451 D702     		.2byte	0x2d7
 1757 0453 B7000000 		.4byte	0xb7
 1758 0457 14       		.uleb128 0x14
 1759 0458 3F020000 		.4byte	.LASF79
 1760 045c 05       		.byte	0x5
 1761 045d DC02     		.2byte	0x2dc
 1762 045f 64040000 		.4byte	0x464
 1763 0463 00       		.byte	0
 1764 0464 07       		.uleb128 0x7
 1765 0465 04       		.byte	0x4
 1766 0466 36040000 		.4byte	0x436
 1767 046a 04       		.uleb128 0x4
 1768 046b C0020000 		.4byte	.LASF80
 1769 046f 05       		.byte	0x5
 1770 0470 DD02     		.2byte	0x2dd
 1771 0472 42040000 		.4byte	0x442
 1772 0476 15       		.uleb128 0x15
 1773 0477 4A020000 		.4byte	.LASF120
 1774 047b 01       		.byte	0x1
 1775 047c 3802     		.2byte	0x238
 1776 047e 03       		.byte	0x3
 1777 047f A8040000 		.4byte	0x4a8
 1778 0483 16       		.uleb128 0x16
 1779 0484 E6030000 		.4byte	.LASF81
 1780 0488 01       		.byte	0x1
 1781 0489 3802     		.2byte	0x238
 1782 048b A1030000 		.4byte	0x3a1
 1783 048f 16       		.uleb128 0x16
 1784 0490 51050000 		.4byte	.LASF82
 1785 0494 01       		.byte	0x1
 1786 0495 3802     		.2byte	0x238
 1787 0497 83000000 		.4byte	0x83
 1788 049b 17       		.uleb128 0x17
 1789 049c 63050000 		.4byte	.LASF83
 1790 04a0 01       		.byte	0x1
 1791 04a1 3A02     		.2byte	0x23a
 1792 04a3 83000000 		.4byte	0x83
 1793 04a7 00       		.byte	0
 1794 04a8 18       		.uleb128 0x18
 1795 04a9 01010000 		.4byte	.LASF84
 1796 04ad 01       		.byte	0x1
 1797 04ae 5302     		.2byte	0x253
 1798 04b0 00000000 		.4byte	.LFB10
 1799 04b4 1C000000 		.4byte	.LFE10-.LFB10
 1800 04b8 01       		.uleb128 0x1
 1801 04b9 9C       		.byte	0x9c
 1802 04ba ED040000 		.4byte	0x4ed
 1803 04be 19       		.uleb128 0x19
 1804 04bf E6030000 		.4byte	.LASF81
 1805 04c3 01       		.byte	0x1
 1806 04c4 5302     		.2byte	0x253
 1807 04c6 A1030000 		.4byte	0x3a1
 1808 04ca 01       		.uleb128 0x1
 1809 04cb 50       		.byte	0x50
ARM GAS  C:\Users\RD\AppData\Local\Temp\ccQZrPXd.s 			page 60


 1810 04cc 1A       		.uleb128 0x1a
 1811 04cd 51050000 		.4byte	.LASF82
 1812 04d1 01       		.byte	0x1
 1813 04d2 5302     		.2byte	0x253
 1814 04d4 83000000 		.4byte	0x83
 1815 04d8 00000000 		.4byte	.LLST0
 1816 04dc 1A       		.uleb128 0x1a
 1817 04dd 63050000 		.4byte	.LASF83
 1818 04e1 01       		.byte	0x1
 1819 04e2 5302     		.2byte	0x253
 1820 04e4 83000000 		.4byte	0x83
 1821 04e8 21000000 		.4byte	.LLST1
 1822 04ec 00       		.byte	0
 1823 04ed 1B       		.uleb128 0x1b
 1824 04ee 76040000 		.4byte	0x476
 1825 04f2 00000000 		.4byte	.LFB9
 1826 04f6 1E000000 		.4byte	.LFE9-.LFB9
 1827 04fa 01       		.uleb128 0x1
 1828 04fb 9C       		.byte	0x9c
 1829 04fc 38050000 		.4byte	0x538
 1830 0500 1C       		.uleb128 0x1c
 1831 0501 83040000 		.4byte	0x483
 1832 0505 42000000 		.4byte	.LLST2
 1833 0509 1C       		.uleb128 0x1c
 1834 050a 8F040000 		.4byte	0x48f
 1835 050e 6E000000 		.4byte	.LLST3
 1836 0512 1D       		.uleb128 0x1d
 1837 0513 9B040000 		.4byte	0x49b
 1838 0517 9A000000 		.4byte	.LLST4
 1839 051b 1E       		.uleb128 0x1e
 1840 051c 14000000 		.4byte	.LVL6
 1841 0520 A8040000 		.4byte	0x4a8
 1842 0524 1F       		.uleb128 0x1f
 1843 0525 01       		.uleb128 0x1
 1844 0526 52       		.byte	0x52
 1845 0527 02       		.uleb128 0x2
 1846 0528 74       		.byte	0x74
 1847 0529 00       		.sleb128 0
 1848 052a 1F       		.uleb128 0x1f
 1849 052b 01       		.uleb128 0x1
 1850 052c 51       		.byte	0x51
 1851 052d 02       		.uleb128 0x2
 1852 052e 75       		.byte	0x75
 1853 052f 00       		.sleb128 0
 1854 0530 1F       		.uleb128 0x1f
 1855 0531 01       		.uleb128 0x1
 1856 0532 50       		.byte	0x50
 1857 0533 02       		.uleb128 0x2
 1858 0534 76       		.byte	0x76
 1859 0535 00       		.sleb128 0
 1860 0536 00       		.byte	0
 1861 0537 00       		.byte	0
 1862 0538 18       		.uleb128 0x18
 1863 0539 26010000 		.4byte	.LASF85
 1864 053d 01       		.byte	0x1
 1865 053e 1C02     		.2byte	0x21c
 1866 0540 00000000 		.4byte	.LFB8
ARM GAS  C:\Users\RD\AppData\Local\Temp\ccQZrPXd.s 			page 61


 1867 0544 3C000000 		.4byte	.LFE8-.LFB8
 1868 0548 01       		.uleb128 0x1
 1869 0549 9C       		.byte	0x9c
 1870 054a DD050000 		.4byte	0x5dd
 1871 054e 1A       		.uleb128 0x1a
 1872 054f C5080000 		.4byte	.LASF86
 1873 0553 01       		.byte	0x1
 1874 0554 1C02     		.2byte	0x21c
 1875 0556 83000000 		.4byte	0x83
 1876 055a DC000000 		.4byte	.LLST5
 1877 055e 1A       		.uleb128 0x1a
 1878 055f 95010000 		.4byte	.LASF87
 1879 0563 01       		.byte	0x1
 1880 0564 1C02     		.2byte	0x21c
 1881 0566 83000000 		.4byte	0x83
 1882 056a FD000000 		.4byte	.LLST6
 1883 056e 20       		.uleb128 0x20
 1884 056f E6030000 		.4byte	.LASF81
 1885 0573 01       		.byte	0x1
 1886 0574 1E02     		.2byte	0x21e
 1887 0576 A1030000 		.4byte	0x3a1
 1888 057a 1E010000 		.4byte	.LLST7
 1889 057e 17       		.uleb128 0x17
 1890 057f F6050000 		.4byte	.LASF88
 1891 0583 01       		.byte	0x1
 1892 0584 1F02     		.2byte	0x21f
 1893 0586 DD050000 		.4byte	0x5dd
 1894 058a 21       		.uleb128 0x21
 1895 058b 76040000 		.4byte	0x476
 1896 058f 1E000000 		.4byte	.LBB4
 1897 0593 16000000 		.4byte	.LBE4-.LBB4
 1898 0597 01       		.byte	0x1
 1899 0598 2602     		.2byte	0x226
 1900 059a 1C       		.uleb128 0x1c
 1901 059b 8F040000 		.4byte	0x48f
 1902 059f 3D010000 		.4byte	.LLST8
 1903 05a3 1C       		.uleb128 0x1c
 1904 05a4 83040000 		.4byte	0x483
 1905 05a8 50010000 		.4byte	.LLST9
 1906 05ac 22       		.uleb128 0x22
 1907 05ad 1E000000 		.4byte	.LBB5
 1908 05b1 16000000 		.4byte	.LBE5-.LBB5
 1909 05b5 1D       		.uleb128 0x1d
 1910 05b6 9B040000 		.4byte	0x49b
 1911 05ba 63010000 		.4byte	.LLST10
 1912 05be 1E       		.uleb128 0x1e
 1913 05bf 2C000000 		.4byte	.LVL20
 1914 05c3 A8040000 		.4byte	0x4a8
 1915 05c7 1F       		.uleb128 0x1f
 1916 05c8 01       		.uleb128 0x1
 1917 05c9 52       		.byte	0x52
 1918 05ca 02       		.uleb128 0x2
 1919 05cb 75       		.byte	0x75
 1920 05cc 00       		.sleb128 0
 1921 05cd 1F       		.uleb128 0x1f
 1922 05ce 01       		.uleb128 0x1
 1923 05cf 51       		.byte	0x51
ARM GAS  C:\Users\RD\AppData\Local\Temp\ccQZrPXd.s 			page 62


 1924 05d0 02       		.uleb128 0x2
 1925 05d1 76       		.byte	0x76
 1926 05d2 00       		.sleb128 0
 1927 05d3 1F       		.uleb128 0x1f
 1928 05d4 01       		.uleb128 0x1
 1929 05d5 50       		.byte	0x50
 1930 05d6 02       		.uleb128 0x2
 1931 05d7 74       		.byte	0x74
 1932 05d8 00       		.sleb128 0
 1933 05d9 00       		.byte	0
 1934 05da 00       		.byte	0
 1935 05db 00       		.byte	0
 1936 05dc 00       		.byte	0
 1937 05dd 07       		.uleb128 0x7
 1938 05de 04       		.byte	0x4
 1939 05df E3050000 		.4byte	0x5e3
 1940 05e3 23       		.uleb128 0x23
 1941 05e4 AD030000 		.4byte	0x3ad
 1942 05e8 18       		.uleb128 0x18
 1943 05e9 A9070000 		.4byte	.LASF89
 1944 05ed 01       		.byte	0x1
 1945 05ee F001     		.2byte	0x1f0
 1946 05f0 00000000 		.4byte	.LFB7
 1947 05f4 28000000 		.4byte	.LFE7-.LFB7
 1948 05f8 01       		.uleb128 0x1
 1949 05f9 9C       		.byte	0x9c
 1950 05fa 51060000 		.4byte	0x651
 1951 05fe 1A       		.uleb128 0x1a
 1952 05ff C5080000 		.4byte	.LASF86
 1953 0603 01       		.byte	0x1
 1954 0604 F001     		.2byte	0x1f0
 1955 0606 83000000 		.4byte	0x83
 1956 060a A5010000 		.4byte	.LLST11
 1957 060e 20       		.uleb128 0x20
 1958 060f 95010000 		.4byte	.LASF87
 1959 0613 01       		.byte	0x1
 1960 0614 F201     		.2byte	0x1f2
 1961 0616 83000000 		.4byte	0x83
 1962 061a D1010000 		.4byte	.LLST12
 1963 061e 20       		.uleb128 0x20
 1964 061f F3000000 		.4byte	.LASF90
 1965 0623 01       		.byte	0x1
 1966 0624 F301     		.2byte	0x1f3
 1967 0626 83000000 		.4byte	0x83
 1968 062a 12020000 		.4byte	.LLST13
 1969 062e 17       		.uleb128 0x17
 1970 062f F6050000 		.4byte	.LASF88
 1971 0633 01       		.byte	0x1
 1972 0634 F501     		.2byte	0x1f5
 1973 0636 DD050000 		.4byte	0x5dd
 1974 063a 1E       		.uleb128 0x1e
 1975 063b 1A000000 		.4byte	.LVL30
 1976 063f 38050000 		.4byte	0x538
 1977 0643 1F       		.uleb128 0x1f
 1978 0644 01       		.uleb128 0x1
 1979 0645 51       		.byte	0x51
 1980 0646 02       		.uleb128 0x2
ARM GAS  C:\Users\RD\AppData\Local\Temp\ccQZrPXd.s 			page 63


 1981 0647 74       		.byte	0x74
 1982 0648 00       		.sleb128 0
 1983 0649 1F       		.uleb128 0x1f
 1984 064a 01       		.uleb128 0x1
 1985 064b 50       		.byte	0x50
 1986 064c 02       		.uleb128 0x2
 1987 064d 75       		.byte	0x75
 1988 064e 00       		.sleb128 0
 1989 064f 00       		.byte	0
 1990 0650 00       		.byte	0
 1991 0651 18       		.uleb128 0x18
 1992 0652 12030000 		.4byte	.LASF91
 1993 0656 01       		.byte	0x1
 1994 0657 D101     		.2byte	0x1d1
 1995 0659 00000000 		.4byte	.LFB6
 1996 065d 16000000 		.4byte	.LFE6-.LFB6
 1997 0661 01       		.uleb128 0x1
 1998 0662 9C       		.byte	0x9c
 1999 0663 88060000 		.4byte	0x688
 2000 0667 20       		.uleb128 0x20
 2001 0668 C5080000 		.4byte	.LASF86
 2002 066c 01       		.byte	0x1
 2003 066d D301     		.2byte	0x1d3
 2004 066f 83000000 		.4byte	0x83
 2005 0673 25020000 		.4byte	.LLST14
 2006 0677 1E       		.uleb128 0x1e
 2007 0678 0C000000 		.4byte	.LVL37
 2008 067c E8050000 		.4byte	0x5e8
 2009 0680 1F       		.uleb128 0x1f
 2010 0681 01       		.uleb128 0x1
 2011 0682 50       		.byte	0x50
 2012 0683 02       		.uleb128 0x2
 2013 0684 74       		.byte	0x74
 2014 0685 00       		.sleb128 0
 2015 0686 00       		.byte	0
 2016 0687 00       		.byte	0
 2017 0688 18       		.uleb128 0x18
 2018 0689 48010000 		.4byte	.LASF92
 2019 068d 01       		.byte	0x1
 2020 068e DA02     		.2byte	0x2da
 2021 0690 00000000 		.4byte	.LFB13
 2022 0694 1C000000 		.4byte	.LFE13-.LFB13
 2023 0698 01       		.uleb128 0x1
 2024 0699 9C       		.byte	0x9c
 2025 069a D9060000 		.4byte	0x6d9
 2026 069e 19       		.uleb128 0x19
 2027 069f 37080000 		.4byte	.LASF93
 2028 06a3 01       		.byte	0x1
 2029 06a4 DA02     		.2byte	0x2da
 2030 06a6 6A040000 		.4byte	0x46a
 2031 06aa 01       		.uleb128 0x1
 2032 06ab 50       		.byte	0x50
 2033 06ac 19       		.uleb128 0x19
 2034 06ad 3A060000 		.4byte	.LASF94
 2035 06b1 01       		.byte	0x1
 2036 06b2 DB02     		.2byte	0x2db
 2037 06b4 A1030000 		.4byte	0x3a1
ARM GAS  C:\Users\RD\AppData\Local\Temp\ccQZrPXd.s 			page 64


 2038 06b8 01       		.uleb128 0x1
 2039 06b9 51       		.byte	0x51
 2040 06ba 19       		.uleb128 0x19
 2041 06bb 51050000 		.4byte	.LASF82
 2042 06bf 01       		.byte	0x1
 2043 06c0 DB02     		.2byte	0x2db
 2044 06c2 83000000 		.4byte	0x83
 2045 06c6 01       		.uleb128 0x1
 2046 06c7 52       		.byte	0x52
 2047 06c8 20       		.uleb128 0x20
 2048 06c9 63050000 		.4byte	.LASF83
 2049 06cd 01       		.byte	0x1
 2050 06ce DD02     		.2byte	0x2dd
 2051 06d0 83000000 		.4byte	0x83
 2052 06d4 67020000 		.4byte	.LLST15
 2053 06d8 00       		.byte	0
 2054 06d9 24       		.uleb128 0x24
 2055 06da 97040000 		.4byte	.LASF95
 2056 06de 01       		.byte	0x1
 2057 06df 3D       		.byte	0x3d
 2058 06e0 00000000 		.4byte	.LFB1
 2059 06e4 74000000 		.4byte	.LFE1-.LFB1
 2060 06e8 01       		.uleb128 0x1
 2061 06e9 9C       		.byte	0x9c
 2062 06ea 83070000 		.4byte	0x783
 2063 06ee 25       		.uleb128 0x25
 2064 06ef C5080000 		.4byte	.LASF86
 2065 06f3 01       		.byte	0x1
 2066 06f4 3F       		.byte	0x3f
 2067 06f5 83000000 		.4byte	0x83
 2068 06f9 A9020000 		.4byte	.LLST16
 2069 06fd 25       		.uleb128 0x25
 2070 06fe 95010000 		.4byte	.LASF87
 2071 0702 01       		.byte	0x1
 2072 0703 40       		.byte	0x40
 2073 0704 83000000 		.4byte	0x83
 2074 0708 EB020000 		.4byte	.LLST17
 2075 070c 25       		.uleb128 0x25
 2076 070d F3000000 		.4byte	.LASF90
 2077 0711 01       		.byte	0x1
 2078 0712 41       		.byte	0x41
 2079 0713 83000000 		.4byte	0x83
 2080 0717 1F030000 		.4byte	.LLST18
 2081 071b 26       		.uleb128 0x26
 2082 071c F6050000 		.4byte	.LASF88
 2083 0720 01       		.byte	0x1
 2084 0721 43       		.byte	0x43
 2085 0722 DD050000 		.4byte	0x5dd
 2086 0726 25       		.uleb128 0x25
 2087 0727 E6030000 		.4byte	.LASF81
 2088 072b 01       		.byte	0x1
 2089 072c 44       		.byte	0x44
 2090 072d A1030000 		.4byte	0x3a1
 2091 0731 32030000 		.4byte	.LLST19
 2092 0735 26       		.uleb128 0x26
 2093 0736 37080000 		.4byte	.LASF93
 2094 073a 01       		.byte	0x1
ARM GAS  C:\Users\RD\AppData\Local\Temp\ccQZrPXd.s 			page 65


 2095 073b 45       		.byte	0x45
 2096 073c 6A040000 		.4byte	0x46a
 2097 0740 25       		.uleb128 0x25
 2098 0741 80020000 		.4byte	.LASF96
 2099 0745 01       		.byte	0x1
 2100 0746 48       		.byte	0x48
 2101 0747 83070000 		.4byte	0x783
 2102 074b 5D030000 		.4byte	.LLST20
 2103 074f 25       		.uleb128 0x25
 2104 0750 00000000 		.4byte	.LASF97
 2105 0754 01       		.byte	0x1
 2106 0755 49       		.byte	0x49
 2107 0756 A7030000 		.4byte	0x3a7
 2108 075a 7B030000 		.4byte	.LLST21
 2109 075e 27       		.uleb128 0x27
 2110 075f 4E000000 		.4byte	.LVL56
 2111 0763 88060000 		.4byte	0x688
 2112 0767 72070000 		.4byte	0x772
 2113 076b 1F       		.uleb128 0x1f
 2114 076c 01       		.uleb128 0x1
 2115 076d 51       		.byte	0x51
 2116 076e 02       		.uleb128 0x2
 2117 076f 77       		.byte	0x77
 2118 0770 00       		.sleb128 0
 2119 0771 00       		.byte	0
 2120 0772 1E       		.uleb128 0x1e
 2121 0773 5A000000 		.4byte	.LVL57
 2122 0777 840D0000 		.4byte	0xd84
 2123 077b 1F       		.uleb128 0x1f
 2124 077c 01       		.uleb128 0x1
 2125 077d 52       		.byte	0x52
 2126 077e 02       		.uleb128 0x2
 2127 077f 74       		.byte	0x74
 2128 0780 00       		.sleb128 0
 2129 0781 00       		.byte	0
 2130 0782 00       		.byte	0
 2131 0783 07       		.uleb128 0x7
 2132 0784 04       		.byte	0x4
 2133 0785 4B020000 		.4byte	0x24b
 2134 0789 18       		.uleb128 0x18
 2135 078a 7E010000 		.4byte	.LASF98
 2136 078e 01       		.byte	0x1
 2137 078f 8402     		.2byte	0x284
 2138 0791 00000000 		.4byte	.LFB11
 2139 0795 38000000 		.4byte	.LFE11-.LFB11
 2140 0799 01       		.uleb128 0x1
 2141 079a 9C       		.byte	0x9c
 2142 079b 02080000 		.4byte	0x802
 2143 079f 1A       		.uleb128 0x1a
 2144 07a0 C5080000 		.4byte	.LASF86
 2145 07a4 01       		.byte	0x1
 2146 07a5 8402     		.2byte	0x284
 2147 07a7 83000000 		.4byte	0x83
 2148 07ab A6030000 		.4byte	.LLST22
 2149 07af 1A       		.uleb128 0x1a
 2150 07b0 95010000 		.4byte	.LASF87
 2151 07b4 01       		.byte	0x1
ARM GAS  C:\Users\RD\AppData\Local\Temp\ccQZrPXd.s 			page 66


 2152 07b5 8402     		.2byte	0x284
 2153 07b7 83000000 		.4byte	0x83
 2154 07bb C7030000 		.4byte	.LLST23
 2155 07bf 17       		.uleb128 0x17
 2156 07c0 F6050000 		.4byte	.LASF88
 2157 07c4 01       		.byte	0x1
 2158 07c5 8602     		.2byte	0x286
 2159 07c7 DD050000 		.4byte	0x5dd
 2160 07cb 20       		.uleb128 0x20
 2161 07cc E6030000 		.4byte	.LASF81
 2162 07d0 01       		.byte	0x1
 2163 07d1 8702     		.2byte	0x287
 2164 07d3 A1030000 		.4byte	0x3a1
 2165 07d7 E8030000 		.4byte	.LLST24
 2166 07db 20       		.uleb128 0x20
 2167 07dc 37080000 		.4byte	.LASF93
 2168 07e0 01       		.byte	0x1
 2169 07e1 8802     		.2byte	0x288
 2170 07e3 6A040000 		.4byte	0x46a
 2171 07e7 3B040000 		.4byte	.LLST25
 2172 07eb 1E       		.uleb128 0x1e
 2173 07ec 32000000 		.4byte	.LVL71
 2174 07f0 88060000 		.4byte	0x688
 2175 07f4 1F       		.uleb128 0x1f
 2176 07f5 01       		.uleb128 0x1
 2177 07f6 51       		.byte	0x51
 2178 07f7 02       		.uleb128 0x2
 2179 07f8 74       		.byte	0x74
 2180 07f9 00       		.sleb128 0
 2181 07fa 1F       		.uleb128 0x1f
 2182 07fb 01       		.uleb128 0x1
 2183 07fc 50       		.byte	0x50
 2184 07fd 02       		.uleb128 0x2
 2185 07fe 75       		.byte	0x75
 2186 07ff 00       		.sleb128 0
 2187 0800 00       		.byte	0
 2188 0801 00       		.byte	0
 2189 0802 18       		.uleb128 0x18
 2190 0803 05070000 		.4byte	.LASF99
 2191 0807 01       		.byte	0x1
 2192 0808 1D05     		.2byte	0x51d
 2193 080a 00000000 		.4byte	.LFB17
 2194 080e 34000000 		.4byte	.LFE17-.LFB17
 2195 0812 01       		.uleb128 0x1
 2196 0813 9C       		.byte	0x9c
 2197 0814 7E080000 		.4byte	0x87e
 2198 0818 1A       		.uleb128 0x1a
 2199 0819 C5080000 		.4byte	.LASF86
 2200 081d 01       		.byte	0x1
 2201 081e 1D05     		.2byte	0x51d
 2202 0820 83000000 		.4byte	0x83
 2203 0824 4E040000 		.4byte	.LLST26
 2204 0828 1A       		.uleb128 0x1a
 2205 0829 95010000 		.4byte	.LASF87
 2206 082d 01       		.byte	0x1
 2207 082e 1D05     		.2byte	0x51d
 2208 0830 83000000 		.4byte	0x83
ARM GAS  C:\Users\RD\AppData\Local\Temp\ccQZrPXd.s 			page 67


 2209 0834 6F040000 		.4byte	.LLST27
 2210 0838 17       		.uleb128 0x17
 2211 0839 F6050000 		.4byte	.LASF88
 2212 083d 01       		.byte	0x1
 2213 083e 1F05     		.2byte	0x51f
 2214 0840 DD050000 		.4byte	0x5dd
 2215 0844 20       		.uleb128 0x20
 2216 0845 80020000 		.4byte	.LASF96
 2217 0849 01       		.byte	0x1
 2218 084a 2005     		.2byte	0x520
 2219 084c 83070000 		.4byte	0x783
 2220 0850 90040000 		.4byte	.LLST28
 2221 0854 20       		.uleb128 0x20
 2222 0855 E6030000 		.4byte	.LASF81
 2223 0859 01       		.byte	0x1
 2224 085a 2105     		.2byte	0x521
 2225 085c A1030000 		.4byte	0x3a1
 2226 0860 A3040000 		.4byte	.LLST29
 2227 0864 20       		.uleb128 0x20
 2228 0865 00000000 		.4byte	.LASF97
 2229 0869 01       		.byte	0x1
 2230 086a 2205     		.2byte	0x522
 2231 086c A7030000 		.4byte	0x3a7
 2232 0870 EB040000 		.4byte	.LLST30
 2233 0874 28       		.uleb128 0x28
 2234 0875 2E000000 		.4byte	.LVL84
 2235 0879 9F0D0000 		.4byte	0xd9f
 2236 087d 00       		.byte	0
 2237 087e 18       		.uleb128 0x18
 2238 087f A4080000 		.4byte	.LASF100
 2239 0883 01       		.byte	0x1
 2240 0884 3C05     		.2byte	0x53c
 2241 0886 00000000 		.4byte	.LFB18
 2242 088a 34000000 		.4byte	.LFE18-.LFB18
 2243 088e 01       		.uleb128 0x1
 2244 088f 9C       		.byte	0x9c
 2245 0890 FA080000 		.4byte	0x8fa
 2246 0894 1A       		.uleb128 0x1a
 2247 0895 C5080000 		.4byte	.LASF86
 2248 0899 01       		.byte	0x1
 2249 089a 3C05     		.2byte	0x53c
 2250 089c 83000000 		.4byte	0x83
 2251 08a0 0A050000 		.4byte	.LLST31
 2252 08a4 1A       		.uleb128 0x1a
 2253 08a5 95010000 		.4byte	.LASF87
 2254 08a9 01       		.byte	0x1
 2255 08aa 3C05     		.2byte	0x53c
 2256 08ac 83000000 		.4byte	0x83
 2257 08b0 2B050000 		.4byte	.LLST32
 2258 08b4 17       		.uleb128 0x17
 2259 08b5 F6050000 		.4byte	.LASF88
 2260 08b9 01       		.byte	0x1
 2261 08ba 3E05     		.2byte	0x53e
 2262 08bc DD050000 		.4byte	0x5dd
 2263 08c0 20       		.uleb128 0x20
 2264 08c1 80020000 		.4byte	.LASF96
 2265 08c5 01       		.byte	0x1
ARM GAS  C:\Users\RD\AppData\Local\Temp\ccQZrPXd.s 			page 68


 2266 08c6 3F05     		.2byte	0x53f
 2267 08c8 83070000 		.4byte	0x783
 2268 08cc 4C050000 		.4byte	.LLST33
 2269 08d0 20       		.uleb128 0x20
 2270 08d1 E6030000 		.4byte	.LASF81
 2271 08d5 01       		.byte	0x1
 2272 08d6 4005     		.2byte	0x540
 2273 08d8 A1030000 		.4byte	0x3a1
 2274 08dc 5F050000 		.4byte	.LLST34
 2275 08e0 20       		.uleb128 0x20
 2276 08e1 00000000 		.4byte	.LASF97
 2277 08e5 01       		.byte	0x1
 2278 08e6 4105     		.2byte	0x541
 2279 08e8 A7030000 		.4byte	0x3a7
 2280 08ec A7050000 		.4byte	.LLST35
 2281 08f0 28       		.uleb128 0x28
 2282 08f1 2E000000 		.4byte	.LVL97
 2283 08f5 840D0000 		.4byte	0xd84
 2284 08f9 00       		.byte	0
 2285 08fa 29       		.uleb128 0x29
 2286 08fb 99060000 		.4byte	.LASF105
 2287 08ff 01       		.byte	0x1
 2288 0900 8605     		.2byte	0x586
 2289 0902 83000000 		.4byte	0x83
 2290 0906 00000000 		.4byte	.LFB19
 2291 090a 14000000 		.4byte	.LFE19-.LFB19
 2292 090e 01       		.uleb128 0x1
 2293 090f 9C       		.byte	0x9c
 2294 0910 5F090000 		.4byte	0x95f
 2295 0914 1A       		.uleb128 0x1a
 2296 0915 CB000000 		.4byte	.LASF101
 2297 0919 01       		.byte	0x1
 2298 091a 8605     		.2byte	0x586
 2299 091c 83000000 		.4byte	0x83
 2300 0920 C6050000 		.4byte	.LLST36
 2301 0924 1A       		.uleb128 0x1a
 2302 0925 9E010000 		.4byte	.LASF102
 2303 0929 01       		.byte	0x1
 2304 092a 8605     		.2byte	0x586
 2305 092c 83000000 		.4byte	0x83
 2306 0930 E7050000 		.4byte	.LLST37
 2307 0934 2A       		.uleb128 0x2a
 2308 0935 6E00     		.ascii	"n\000"
 2309 0937 01       		.byte	0x1
 2310 0938 8605     		.2byte	0x586
 2311 093a 83000000 		.4byte	0x83
 2312 093e 01       		.uleb128 0x1
 2313 093f 52       		.byte	0x52
 2314 0940 1A       		.uleb128 0x1a
 2315 0941 E7010000 		.4byte	.LASF103
 2316 0945 01       		.byte	0x1
 2317 0946 8605     		.2byte	0x586
 2318 0948 83000000 		.4byte	0x83
 2319 094c 08060000 		.4byte	.LLST38
 2320 0950 2B       		.uleb128 0x2b
 2321 0951 32030000 		.4byte	.LASF104
 2322 0955 01       		.byte	0x1
ARM GAS  C:\Users\RD\AppData\Local\Temp\ccQZrPXd.s 			page 69


 2323 0956 8805     		.2byte	0x588
 2324 0958 83000000 		.4byte	0x83
 2325 095c 01       		.uleb128 0x1
 2326 095d 50       		.byte	0x50
 2327 095e 00       		.byte	0
 2328 095f 29       		.uleb128 0x29
 2329 0960 A9010000 		.4byte	.LASF106
 2330 0964 01       		.byte	0x1
 2331 0965 4101     		.2byte	0x141
 2332 0967 83000000 		.4byte	0x83
 2333 096b 00000000 		.4byte	.LFB5
 2334 096f 82000000 		.4byte	.LFE5-.LFB5
 2335 0973 01       		.uleb128 0x1
 2336 0974 9C       		.byte	0x9c
 2337 0975 2C0A0000 		.4byte	0xa2c
 2338 0979 1A       		.uleb128 0x1a
 2339 097a 80020000 		.4byte	.LASF96
 2340 097e 01       		.byte	0x1
 2341 097f 4201     		.2byte	0x142
 2342 0981 83070000 		.4byte	0x783
 2343 0985 29060000 		.4byte	.LLST39
 2344 0989 1A       		.uleb128 0x1a
 2345 098a E6030000 		.4byte	.LASF81
 2346 098e 01       		.byte	0x1
 2347 098f 4301     		.2byte	0x143
 2348 0991 A1030000 		.4byte	0x3a1
 2349 0995 55060000 		.4byte	.LLST40
 2350 0999 1A       		.uleb128 0x1a
 2351 099a 51050000 		.4byte	.LASF82
 2352 099e 01       		.byte	0x1
 2353 099f 4401     		.2byte	0x144
 2354 09a1 83000000 		.4byte	0x83
 2355 09a5 81060000 		.4byte	.LLST41
 2356 09a9 20       		.uleb128 0x20
 2357 09aa 0D030000 		.4byte	.LASF107
 2358 09ae 01       		.byte	0x1
 2359 09af 4601     		.2byte	0x146
 2360 09b1 83000000 		.4byte	0x83
 2361 09b5 A2060000 		.4byte	.LLST42
 2362 09b9 20       		.uleb128 0x20
 2363 09ba 86070000 		.4byte	.LASF108
 2364 09be 01       		.byte	0x1
 2365 09bf 4701     		.2byte	0x147
 2366 09c1 83000000 		.4byte	0x83
 2367 09c5 CD060000 		.4byte	.LLST43
 2368 09c9 20       		.uleb128 0x20
 2369 09ca 63050000 		.4byte	.LASF83
 2370 09ce 01       		.byte	0x1
 2371 09cf 4801     		.2byte	0x148
 2372 09d1 83000000 		.4byte	0x83
 2373 09d5 F6060000 		.4byte	.LLST44
 2374 09d9 2C       		.uleb128 0x2c
 2375 09da 05020000 		.4byte	.LASF109
 2376 09de 01       		.byte	0x1
 2377 09df 4901     		.2byte	0x149
 2378 09e1 83000000 		.4byte	0x83
 2379 09e5 00       		.byte	0
ARM GAS  C:\Users\RD\AppData\Local\Temp\ccQZrPXd.s 			page 70


 2380 09e6 20       		.uleb128 0x20
 2381 09e7 B6040000 		.4byte	.LASF110
 2382 09eb 01       		.byte	0x1
 2383 09ec 4C01     		.2byte	0x14c
 2384 09ee 83000000 		.4byte	0x83
 2385 09f2 38070000 		.4byte	.LLST45
 2386 09f6 27       		.uleb128 0x27
 2387 09f7 48000000 		.4byte	.LVL115
 2388 09fb A8040000 		.4byte	0x4a8
 2389 09ff 170A0000 		.4byte	0xa17
 2390 0a03 1F       		.uleb128 0x1f
 2391 0a04 01       		.uleb128 0x1
 2392 0a05 52       		.byte	0x52
 2393 0a06 02       		.uleb128 0x2
 2394 0a07 74       		.byte	0x74
 2395 0a08 00       		.sleb128 0
 2396 0a09 1F       		.uleb128 0x1f
 2397 0a0a 01       		.uleb128 0x1
 2398 0a0b 51       		.byte	0x51
 2399 0a0c 03       		.uleb128 0x3
 2400 0a0d 91       		.byte	0x91
 2401 0a0e 64       		.sleb128 -28
 2402 0a0f 06       		.byte	0x6
 2403 0a10 1F       		.uleb128 0x1f
 2404 0a11 01       		.uleb128 0x1
 2405 0a12 50       		.byte	0x50
 2406 0a13 02       		.uleb128 0x2
 2407 0a14 76       		.byte	0x76
 2408 0a15 00       		.sleb128 0
 2409 0a16 00       		.byte	0
 2410 0a17 1E       		.uleb128 0x1e
 2411 0a18 6A000000 		.4byte	.LVL120
 2412 0a1c FA080000 		.4byte	0x8fa
 2413 0a20 1F       		.uleb128 0x1f
 2414 0a21 01       		.uleb128 0x1
 2415 0a22 53       		.byte	0x53
 2416 0a23 01       		.uleb128 0x1
 2417 0a24 38       		.byte	0x38
 2418 0a25 1F       		.uleb128 0x1f
 2419 0a26 01       		.uleb128 0x1
 2420 0a27 52       		.byte	0x52
 2421 0a28 01       		.uleb128 0x1
 2422 0a29 31       		.byte	0x31
 2423 0a2a 00       		.byte	0
 2424 0a2b 00       		.byte	0
 2425 0a2c 29       		.uleb128 0x29
 2426 0a2d 79040000 		.4byte	.LASF111
 2427 0a31 01       		.byte	0x1
 2428 0a32 0A01     		.2byte	0x10a
 2429 0a34 A4000000 		.4byte	0xa4
 2430 0a38 00000000 		.4byte	.LFB4
 2431 0a3c 2C000000 		.4byte	.LFE4-.LFB4
 2432 0a40 01       		.uleb128 0x1
 2433 0a41 9C       		.byte	0x9c
 2434 0a42 E70A0000 		.4byte	0xae7
 2435 0a46 1A       		.uleb128 0x1a
 2436 0a47 C5080000 		.4byte	.LASF86
ARM GAS  C:\Users\RD\AppData\Local\Temp\ccQZrPXd.s 			page 71


 2437 0a4b 01       		.byte	0x1
 2438 0a4c 0A01     		.2byte	0x10a
 2439 0a4e 83000000 		.4byte	0x83
 2440 0a52 56070000 		.4byte	.LLST46
 2441 0a56 1A       		.uleb128 0x1a
 2442 0a57 95010000 		.4byte	.LASF87
 2443 0a5b 01       		.byte	0x1
 2444 0a5c 0A01     		.2byte	0x10a
 2445 0a5e 83000000 		.4byte	0x83
 2446 0a62 82070000 		.4byte	.LLST47
 2447 0a66 20       		.uleb128 0x20
 2448 0a67 05020000 		.4byte	.LASF109
 2449 0a6b 01       		.byte	0x1
 2450 0a6c 0C01     		.2byte	0x10c
 2451 0a6e 83000000 		.4byte	0x83
 2452 0a72 A3070000 		.4byte	.LLST48
 2453 0a76 20       		.uleb128 0x20
 2454 0a77 E6030000 		.4byte	.LASF81
 2455 0a7b 01       		.byte	0x1
 2456 0a7c 0E01     		.2byte	0x10e
 2457 0a7e A1030000 		.4byte	0x3a1
 2458 0a82 C2070000 		.4byte	.LLST49
 2459 0a86 17       		.uleb128 0x17
 2460 0a87 F6050000 		.4byte	.LASF88
 2461 0a8b 01       		.byte	0x1
 2462 0a8c 0F01     		.2byte	0x10f
 2463 0a8e DD050000 		.4byte	0x5dd
 2464 0a92 20       		.uleb128 0x20
 2465 0a93 80020000 		.4byte	.LASF96
 2466 0a97 01       		.byte	0x1
 2467 0a98 1001     		.2byte	0x110
 2468 0a9a 83070000 		.4byte	0x783
 2469 0a9e 05080000 		.4byte	.LLST50
 2470 0aa2 1E       		.uleb128 0x1e
 2471 0aa3 26000000 		.4byte	.LVL134
 2472 0aa7 5F090000 		.4byte	0x95f
 2473 0aab 1F       		.uleb128 0x1f
 2474 0aac 01       		.uleb128 0x1
 2475 0aad 52       		.byte	0x52
 2476 0aae 12       		.uleb128 0x12
 2477 0aaf 75       		.byte	0x75
 2478 0ab0 00       		.sleb128 0
 2479 0ab1 F3       		.byte	0xf3
 2480 0ab2 01       		.uleb128 0x1
 2481 0ab3 50       		.byte	0x50
 2482 0ab4 22       		.byte	0x22
 2483 0ab5 33       		.byte	0x33
 2484 0ab6 24       		.byte	0x24
 2485 0ab7 74       		.byte	0x74
 2486 0ab8 00       		.sleb128 0
 2487 0ab9 22       		.byte	0x22
 2488 0aba 23       		.byte	0x23
 2489 0abb 18       		.uleb128 0x18
 2490 0abc 94       		.byte	0x94
 2491 0abd 01       		.byte	0x1
 2492 0abe 08       		.byte	0x8
 2493 0abf FF       		.byte	0xff
ARM GAS  C:\Users\RD\AppData\Local\Temp\ccQZrPXd.s 			page 72


 2494 0ac0 1A       		.byte	0x1a
 2495 0ac1 1F       		.uleb128 0x1f
 2496 0ac2 01       		.uleb128 0x1
 2497 0ac3 51       		.byte	0x51
 2498 0ac4 0E       		.uleb128 0xe
 2499 0ac5 F3       		.byte	0xf3
 2500 0ac6 01       		.uleb128 0x1
 2501 0ac7 51       		.byte	0x51
 2502 0ac8 33       		.byte	0x33
 2503 0ac9 24       		.byte	0x24
 2504 0aca F3       		.byte	0xf3
 2505 0acb 01       		.uleb128 0x1
 2506 0acc 51       		.byte	0x51
 2507 0acd 1C       		.byte	0x1c
 2508 0ace 31       		.byte	0x31
 2509 0acf 24       		.byte	0x24
 2510 0ad0 76       		.byte	0x76
 2511 0ad1 00       		.sleb128 0
 2512 0ad2 22       		.byte	0x22
 2513 0ad3 1F       		.uleb128 0x1f
 2514 0ad4 01       		.uleb128 0x1
 2515 0ad5 50       		.byte	0x50
 2516 0ad6 0E       		.uleb128 0xe
 2517 0ad7 75       		.byte	0x75
 2518 0ad8 00       		.sleb128 0
 2519 0ad9 F3       		.byte	0xf3
 2520 0ada 01       		.uleb128 0x1
 2521 0adb 50       		.byte	0x50
 2522 0adc 22       		.byte	0x22
 2523 0add 33       		.byte	0x33
 2524 0ade 24       		.byte	0x24
 2525 0adf 74       		.byte	0x74
 2526 0ae0 00       		.sleb128 0
 2527 0ae1 22       		.byte	0x22
 2528 0ae2 23       		.byte	0x23
 2529 0ae3 04       		.uleb128 0x4
 2530 0ae4 06       		.byte	0x6
 2531 0ae5 00       		.byte	0
 2532 0ae6 00       		.byte	0
 2533 0ae7 2D       		.uleb128 0x2d
 2534 0ae8 C3010000 		.4byte	.LASF112
 2535 0aec 01       		.byte	0x1
 2536 0aed D1       		.byte	0xd1
 2537 0aee A4000000 		.4byte	0xa4
 2538 0af2 00000000 		.4byte	.LFB3
 2539 0af6 30000000 		.4byte	.LFE3-.LFB3
 2540 0afa 01       		.uleb128 0x1
 2541 0afb 9C       		.byte	0x9c
 2542 0afc 5E0B0000 		.4byte	0xb5e
 2543 0b00 2E       		.uleb128 0x2e
 2544 0b01 C5080000 		.4byte	.LASF86
 2545 0b05 01       		.byte	0x1
 2546 0b06 D1       		.byte	0xd1
 2547 0b07 83000000 		.4byte	0x83
 2548 0b0b 2F080000 		.4byte	.LLST51
 2549 0b0f 25       		.uleb128 0x25
 2550 0b10 95010000 		.4byte	.LASF87
ARM GAS  C:\Users\RD\AppData\Local\Temp\ccQZrPXd.s 			page 73


 2551 0b14 01       		.byte	0x1
 2552 0b15 D3       		.byte	0xd3
 2553 0b16 83000000 		.4byte	0x83
 2554 0b1a 5B080000 		.4byte	.LLST52
 2555 0b1e 25       		.uleb128 0x25
 2556 0b1f F3000000 		.4byte	.LASF90
 2557 0b23 01       		.byte	0x1
 2558 0b24 D4       		.byte	0xd4
 2559 0b25 83000000 		.4byte	0x83
 2560 0b29 9C080000 		.4byte	.LLST53
 2561 0b2d 26       		.uleb128 0x26
 2562 0b2e F6050000 		.4byte	.LASF88
 2563 0b32 01       		.byte	0x1
 2564 0b33 D6       		.byte	0xd6
 2565 0b34 DD050000 		.4byte	0x5dd
 2566 0b38 25       		.uleb128 0x25
 2567 0b39 F7040000 		.4byte	.LASF113
 2568 0b3d 01       		.byte	0x1
 2569 0b3e D7       		.byte	0xd7
 2570 0b3f A4000000 		.4byte	0xa4
 2571 0b43 AF080000 		.4byte	.LLST54
 2572 0b47 1E       		.uleb128 0x1e
 2573 0b48 1C000000 		.4byte	.LVL142
 2574 0b4c 2C0A0000 		.4byte	0xa2c
 2575 0b50 1F       		.uleb128 0x1f
 2576 0b51 01       		.uleb128 0x1
 2577 0b52 51       		.byte	0x51
 2578 0b53 02       		.uleb128 0x2
 2579 0b54 74       		.byte	0x74
 2580 0b55 00       		.sleb128 0
 2581 0b56 1F       		.uleb128 0x1f
 2582 0b57 01       		.uleb128 0x1
 2583 0b58 50       		.byte	0x50
 2584 0b59 02       		.uleb128 0x2
 2585 0b5a 76       		.byte	0x76
 2586 0b5b 00       		.sleb128 0
 2587 0b5c 00       		.byte	0
 2588 0b5d 00       		.byte	0
 2589 0b5e 2D       		.uleb128 0x2d
 2590 0b5f B9050000 		.4byte	.LASF114
 2591 0b63 01       		.byte	0x1
 2592 0b64 A4       		.byte	0xa4
 2593 0b65 A4000000 		.4byte	0xa4
 2594 0b69 00000000 		.4byte	.LFB2
 2595 0b6d 1C000000 		.4byte	.LFE2-.LFB2
 2596 0b71 01       		.uleb128 0x1
 2597 0b72 9C       		.byte	0x9c
 2598 0b73 A60B0000 		.4byte	0xba6
 2599 0b77 25       		.uleb128 0x25
 2600 0b78 C5080000 		.4byte	.LASF86
 2601 0b7c 01       		.byte	0x1
 2602 0b7d A6       		.byte	0xa6
 2603 0b7e 83000000 		.4byte	0x83
 2604 0b82 D9080000 		.4byte	.LLST55
 2605 0b86 25       		.uleb128 0x25
 2606 0b87 F7040000 		.4byte	.LASF113
 2607 0b8b 01       		.byte	0x1
ARM GAS  C:\Users\RD\AppData\Local\Temp\ccQZrPXd.s 			page 74


 2608 0b8c A7       		.byte	0xa7
 2609 0b8d A4000000 		.4byte	0xa4
 2610 0b91 1B090000 		.4byte	.LLST56
 2611 0b95 1E       		.uleb128 0x1e
 2612 0b96 0E000000 		.4byte	.LVL151
 2613 0b9a E70A0000 		.4byte	0xae7
 2614 0b9e 1F       		.uleb128 0x1f
 2615 0b9f 01       		.uleb128 0x1
 2616 0ba0 50       		.byte	0x50
 2617 0ba1 02       		.uleb128 0x2
 2618 0ba2 75       		.byte	0x75
 2619 0ba3 00       		.sleb128 0
 2620 0ba4 00       		.byte	0
 2621 0ba5 00       		.byte	0
 2622 0ba6 18       		.uleb128 0x18
 2623 0ba7 ED010000 		.4byte	.LASF115
 2624 0bab 01       		.byte	0x1
 2625 0bac 0803     		.2byte	0x308
 2626 0bae 00000000 		.4byte	.LFB14
 2627 0bb2 36000000 		.4byte	.LFE14-.LFB14
 2628 0bb6 01       		.uleb128 0x1
 2629 0bb7 9C       		.byte	0x9c
 2630 0bb8 220C0000 		.4byte	0xc22
 2631 0bbc 1A       		.uleb128 0x1a
 2632 0bbd 37080000 		.4byte	.LASF93
 2633 0bc1 01       		.byte	0x1
 2634 0bc2 0803     		.2byte	0x308
 2635 0bc4 6A040000 		.4byte	0x46a
 2636 0bc8 45090000 		.4byte	.LLST57
 2637 0bcc 1A       		.uleb128 0x1a
 2638 0bcd 3A060000 		.4byte	.LASF94
 2639 0bd1 01       		.byte	0x1
 2640 0bd2 0903     		.2byte	0x309
 2641 0bd4 A1030000 		.4byte	0x3a1
 2642 0bd8 63090000 		.4byte	.LLST58
 2643 0bdc 1A       		.uleb128 0x1a
 2644 0bdd 51050000 		.4byte	.LASF82
 2645 0be1 01       		.byte	0x1
 2646 0be2 0903     		.2byte	0x309
 2647 0be4 83000000 		.4byte	0x83
 2648 0be8 8F090000 		.4byte	.LLST59
 2649 0bec 20       		.uleb128 0x20
 2650 0bed 63050000 		.4byte	.LASF83
 2651 0bf1 01       		.byte	0x1
 2652 0bf2 0B03     		.2byte	0x30b
 2653 0bf4 83000000 		.4byte	0x83
 2654 0bf8 AE090000 		.4byte	.LLST60
 2655 0bfc 20       		.uleb128 0x20
 2656 0bfd D5050000 		.4byte	.LASF116
 2657 0c01 01       		.byte	0x1
 2658 0c02 0C03     		.2byte	0x30c
 2659 0c04 83000000 		.4byte	0x83
 2660 0c08 F0090000 		.4byte	.LLST61
 2661 0c0c 1E       		.uleb128 0x1e
 2662 0c0d 24000000 		.4byte	.LVL161
 2663 0c11 FA080000 		.4byte	0x8fa
 2664 0c15 1F       		.uleb128 0x1f
ARM GAS  C:\Users\RD\AppData\Local\Temp\ccQZrPXd.s 			page 75


 2665 0c16 01       		.uleb128 0x1
 2666 0c17 53       		.byte	0x53
 2667 0c18 01       		.uleb128 0x1
 2668 0c19 30       		.byte	0x30
 2669 0c1a 1F       		.uleb128 0x1f
 2670 0c1b 01       		.uleb128 0x1
 2671 0c1c 52       		.byte	0x52
 2672 0c1d 02       		.uleb128 0x2
 2673 0c1e 08       		.byte	0x8
 2674 0c1f 80       		.byte	0x80
 2675 0c20 00       		.byte	0
 2676 0c21 00       		.byte	0
 2677 0c22 18       		.uleb128 0x18
 2678 0c23 BB000000 		.4byte	.LASF117
 2679 0c27 01       		.byte	0x1
 2680 0c28 B002     		.2byte	0x2b0
 2681 0c2a 00000000 		.4byte	.LFB12
 2682 0c2e 38000000 		.4byte	.LFE12-.LFB12
 2683 0c32 01       		.uleb128 0x1
 2684 0c33 9C       		.byte	0x9c
 2685 0c34 9B0C0000 		.4byte	0xc9b
 2686 0c38 1A       		.uleb128 0x1a
 2687 0c39 C5080000 		.4byte	.LASF86
 2688 0c3d 01       		.byte	0x1
 2689 0c3e B002     		.2byte	0x2b0
 2690 0c40 83000000 		.4byte	0x83
 2691 0c44 030A0000 		.4byte	.LLST62
 2692 0c48 1A       		.uleb128 0x1a
 2693 0c49 95010000 		.4byte	.LASF87
 2694 0c4d 01       		.byte	0x1
 2695 0c4e B002     		.2byte	0x2b0
 2696 0c50 83000000 		.4byte	0x83
 2697 0c54 240A0000 		.4byte	.LLST63
 2698 0c58 17       		.uleb128 0x17
 2699 0c59 F6050000 		.4byte	.LASF88
 2700 0c5d 01       		.byte	0x1
 2701 0c5e B202     		.2byte	0x2b2
 2702 0c60 DD050000 		.4byte	0x5dd
 2703 0c64 20       		.uleb128 0x20
 2704 0c65 E6030000 		.4byte	.LASF81
 2705 0c69 01       		.byte	0x1
 2706 0c6a B302     		.2byte	0x2b3
 2707 0c6c A1030000 		.4byte	0x3a1
 2708 0c70 450A0000 		.4byte	.LLST64
 2709 0c74 20       		.uleb128 0x20
 2710 0c75 37080000 		.4byte	.LASF93
 2711 0c79 01       		.byte	0x1
 2712 0c7a B402     		.2byte	0x2b4
 2713 0c7c 6A040000 		.4byte	0x46a
 2714 0c80 980A0000 		.4byte	.LLST65
 2715 0c84 1E       		.uleb128 0x1e
 2716 0c85 32000000 		.4byte	.LVL175
 2717 0c89 A60B0000 		.4byte	0xba6
 2718 0c8d 1F       		.uleb128 0x1f
 2719 0c8e 01       		.uleb128 0x1
 2720 0c8f 51       		.byte	0x51
 2721 0c90 02       		.uleb128 0x2
ARM GAS  C:\Users\RD\AppData\Local\Temp\ccQZrPXd.s 			page 76


 2722 0c91 74       		.byte	0x74
 2723 0c92 00       		.sleb128 0
 2724 0c93 1F       		.uleb128 0x1f
 2725 0c94 01       		.uleb128 0x1
 2726 0c95 50       		.byte	0x50
 2727 0c96 02       		.uleb128 0x2
 2728 0c97 75       		.byte	0x75
 2729 0c98 00       		.sleb128 0
 2730 0c99 00       		.byte	0
 2731 0c9a 00       		.byte	0
 2732 0c9b 18       		.uleb128 0x18
 2733 0c9c 8D020000 		.4byte	.LASF118
 2734 0ca0 01       		.byte	0x1
 2735 0ca1 FC04     		.2byte	0x4fc
 2736 0ca3 00000000 		.4byte	.LFB16
 2737 0ca7 08000000 		.4byte	.LFE16-.LFB16
 2738 0cab 01       		.uleb128 0x1
 2739 0cac 9C       		.byte	0x9c
 2740 0cad FA0C0000 		.4byte	0xcfa
 2741 0cb1 1A       		.uleb128 0x1a
 2742 0cb2 37080000 		.4byte	.LASF93
 2743 0cb6 01       		.byte	0x1
 2744 0cb7 FC04     		.2byte	0x4fc
 2745 0cb9 6A040000 		.4byte	0x46a
 2746 0cbd AB0A0000 		.4byte	.LLST66
 2747 0cc1 1A       		.uleb128 0x1a
 2748 0cc2 3A060000 		.4byte	.LASF94
 2749 0cc6 01       		.byte	0x1
 2750 0cc7 FD04     		.2byte	0x4fd
 2751 0cc9 A1030000 		.4byte	0x3a1
 2752 0ccd BE0A0000 		.4byte	.LLST67
 2753 0cd1 1A       		.uleb128 0x1a
 2754 0cd2 51050000 		.4byte	.LASF82
 2755 0cd6 01       		.byte	0x1
 2756 0cd7 FD04     		.2byte	0x4fd
 2757 0cd9 83000000 		.4byte	0x83
 2758 0cdd DF0A0000 		.4byte	.LLST68
 2759 0ce1 1E       		.uleb128 0x1e
 2760 0ce2 06000000 		.4byte	.LVL180
 2761 0ce6 A60B0000 		.4byte	0xba6
 2762 0cea 1F       		.uleb128 0x1f
 2763 0ceb 01       		.uleb128 0x1
 2764 0cec 52       		.byte	0x52
 2765 0ced 03       		.uleb128 0x3
 2766 0cee F3       		.byte	0xf3
 2767 0cef 01       		.uleb128 0x1
 2768 0cf0 52       		.byte	0x52
 2769 0cf1 1F       		.uleb128 0x1f
 2770 0cf2 01       		.uleb128 0x1
 2771 0cf3 51       		.byte	0x51
 2772 0cf4 03       		.uleb128 0x3
 2773 0cf5 F3       		.byte	0xf3
 2774 0cf6 01       		.uleb128 0x1
 2775 0cf7 51       		.byte	0x51
 2776 0cf8 00       		.byte	0
 2777 0cf9 00       		.byte	0
 2778 0cfa 18       		.uleb128 0x18
ARM GAS  C:\Users\RD\AppData\Local\Temp\ccQZrPXd.s 			page 77


 2779 0cfb BC030000 		.4byte	.LASF119
 2780 0cff 01       		.byte	0x1
 2781 0d00 D104     		.2byte	0x4d1
 2782 0d02 00000000 		.4byte	.LFB15
 2783 0d06 38000000 		.4byte	.LFE15-.LFB15
 2784 0d0a 01       		.uleb128 0x1
 2785 0d0b 9C       		.byte	0x9c
 2786 0d0c 730D0000 		.4byte	0xd73
 2787 0d10 1A       		.uleb128 0x1a
 2788 0d11 C5080000 		.4byte	.LASF86
 2789 0d15 01       		.byte	0x1
 2790 0d16 D104     		.2byte	0x4d1
 2791 0d18 83000000 		.4byte	0x83
 2792 0d1c 000B0000 		.4byte	.LLST69
 2793 0d20 1A       		.uleb128 0x1a
 2794 0d21 95010000 		.4byte	.LASF87
 2795 0d25 01       		.byte	0x1
 2796 0d26 D104     		.2byte	0x4d1
 2797 0d28 83000000 		.4byte	0x83
 2798 0d2c 210B0000 		.4byte	.LLST70
 2799 0d30 17       		.uleb128 0x17
 2800 0d31 F6050000 		.4byte	.LASF88
 2801 0d35 01       		.byte	0x1
 2802 0d36 D304     		.2byte	0x4d3
 2803 0d38 DD050000 		.4byte	0x5dd
 2804 0d3c 20       		.uleb128 0x20
 2805 0d3d E6030000 		.4byte	.LASF81
 2806 0d41 01       		.byte	0x1
 2807 0d42 D404     		.2byte	0x4d4
 2808 0d44 A1030000 		.4byte	0x3a1
 2809 0d48 420B0000 		.4byte	.LLST71
 2810 0d4c 20       		.uleb128 0x20
 2811 0d4d 37080000 		.4byte	.LASF93
 2812 0d51 01       		.byte	0x1
 2813 0d52 D504     		.2byte	0x4d5
 2814 0d54 6A040000 		.4byte	0x46a
 2815 0d58 950B0000 		.4byte	.LLST72
 2816 0d5c 1E       		.uleb128 0x1e
 2817 0d5d 32000000 		.4byte	.LVL189
 2818 0d61 9B0C0000 		.4byte	0xc9b
 2819 0d65 1F       		.uleb128 0x1f
 2820 0d66 01       		.uleb128 0x1
 2821 0d67 51       		.byte	0x51
 2822 0d68 02       		.uleb128 0x2
 2823 0d69 74       		.byte	0x74
 2824 0d6a 00       		.sleb128 0
 2825 0d6b 1F       		.uleb128 0x1f
 2826 0d6c 01       		.uleb128 0x1
 2827 0d6d 50       		.byte	0x50
 2828 0d6e 02       		.uleb128 0x2
 2829 0d6f 75       		.byte	0x75
 2830 0d70 00       		.sleb128 0
 2831 0d71 00       		.byte	0
 2832 0d72 00       		.byte	0
 2833 0d73 2F       		.uleb128 0x2f
 2834 0d74 47060000 		.4byte	.LASF125
 2835 0d78 05       		.byte	0x5
ARM GAS  C:\Users\RD\AppData\Local\Temp\ccQZrPXd.s 			page 78


 2836 0d79 DF03     		.2byte	0x3df
 2837 0d7b 7F0D0000 		.4byte	0xd7f
 2838 0d7f 23       		.uleb128 0x23
 2839 0d80 E0030000 		.4byte	0x3e0
 2840 0d84 30       		.uleb128 0x30
 2841 0d85 2E050000 		.4byte	.LASF121
 2842 0d89 04       		.byte	0x4
 2843 0d8a 9E       		.byte	0x9e
 2844 0d8b 9F0D0000 		.4byte	0xd9f
 2845 0d8f 31       		.uleb128 0x31
 2846 0d90 77000000 		.4byte	0x77
 2847 0d94 31       		.uleb128 0x31
 2848 0d95 77000000 		.4byte	0x77
 2849 0d99 31       		.uleb128 0x31
 2850 0d9a A7030000 		.4byte	0x3a7
 2851 0d9e 00       		.byte	0
 2852 0d9f 32       		.uleb128 0x32
 2853 0da0 F0030000 		.4byte	.LASF126
 2854 0da4 04       		.byte	0x4
 2855 0da5 A2       		.byte	0xa2
 2856 0da6 31       		.uleb128 0x31
 2857 0da7 77000000 		.4byte	0x77
 2858 0dab 31       		.uleb128 0x31
 2859 0dac 77000000 		.4byte	0x77
 2860 0db0 31       		.uleb128 0x31
 2861 0db1 A7030000 		.4byte	0x3a7
 2862 0db5 00       		.byte	0
 2863 0db6 00       		.byte	0
 2864              		.section	.debug_abbrev,"",%progbits
 2865              	.Ldebug_abbrev0:
 2866 0000 01       		.uleb128 0x1
 2867 0001 11       		.uleb128 0x11
 2868 0002 01       		.byte	0x1
 2869 0003 25       		.uleb128 0x25
 2870 0004 0E       		.uleb128 0xe
 2871 0005 13       		.uleb128 0x13
 2872 0006 0B       		.uleb128 0xb
 2873 0007 03       		.uleb128 0x3
 2874 0008 0E       		.uleb128 0xe
 2875 0009 1B       		.uleb128 0x1b
 2876 000a 0E       		.uleb128 0xe
 2877 000b 55       		.uleb128 0x55
 2878 000c 17       		.uleb128 0x17
 2879 000d 11       		.uleb128 0x11
 2880 000e 01       		.uleb128 0x1
 2881 000f 10       		.uleb128 0x10
 2882 0010 17       		.uleb128 0x17
 2883 0011 00       		.byte	0
 2884 0012 00       		.byte	0
 2885 0013 02       		.uleb128 0x2
 2886 0014 24       		.uleb128 0x24
 2887 0015 00       		.byte	0
 2888 0016 0B       		.uleb128 0xb
 2889 0017 0B       		.uleb128 0xb
 2890 0018 3E       		.uleb128 0x3e
 2891 0019 0B       		.uleb128 0xb
 2892 001a 03       		.uleb128 0x3
ARM GAS  C:\Users\RD\AppData\Local\Temp\ccQZrPXd.s 			page 79


 2893 001b 0E       		.uleb128 0xe
 2894 001c 00       		.byte	0
 2895 001d 00       		.byte	0
 2896 001e 03       		.uleb128 0x3
 2897 001f 24       		.uleb128 0x24
 2898 0020 00       		.byte	0
 2899 0021 0B       		.uleb128 0xb
 2900 0022 0B       		.uleb128 0xb
 2901 0023 3E       		.uleb128 0x3e
 2902 0024 0B       		.uleb128 0xb
 2903 0025 03       		.uleb128 0x3
 2904 0026 08       		.uleb128 0x8
 2905 0027 00       		.byte	0
 2906 0028 00       		.byte	0
 2907 0029 04       		.uleb128 0x4
 2908 002a 16       		.uleb128 0x16
 2909 002b 00       		.byte	0
 2910 002c 03       		.uleb128 0x3
 2911 002d 0E       		.uleb128 0xe
 2912 002e 3A       		.uleb128 0x3a
 2913 002f 0B       		.uleb128 0xb
 2914 0030 3B       		.uleb128 0x3b
 2915 0031 05       		.uleb128 0x5
 2916 0032 49       		.uleb128 0x49
 2917 0033 13       		.uleb128 0x13
 2918 0034 00       		.byte	0
 2919 0035 00       		.byte	0
 2920 0036 05       		.uleb128 0x5
 2921 0037 0F       		.uleb128 0xf
 2922 0038 00       		.byte	0
 2923 0039 0B       		.uleb128 0xb
 2924 003a 0B       		.uleb128 0xb
 2925 003b 00       		.byte	0
 2926 003c 00       		.byte	0
 2927 003d 06       		.uleb128 0x6
 2928 003e 16       		.uleb128 0x16
 2929 003f 00       		.byte	0
 2930 0040 03       		.uleb128 0x3
 2931 0041 0E       		.uleb128 0xe
 2932 0042 3A       		.uleb128 0x3a
 2933 0043 0B       		.uleb128 0xb
 2934 0044 3B       		.uleb128 0x3b
 2935 0045 0B       		.uleb128 0xb
 2936 0046 49       		.uleb128 0x49
 2937 0047 13       		.uleb128 0x13
 2938 0048 00       		.byte	0
 2939 0049 00       		.byte	0
 2940 004a 07       		.uleb128 0x7
 2941 004b 0F       		.uleb128 0xf
 2942 004c 00       		.byte	0
 2943 004d 0B       		.uleb128 0xb
 2944 004e 0B       		.uleb128 0xb
 2945 004f 49       		.uleb128 0x49
 2946 0050 13       		.uleb128 0x13
 2947 0051 00       		.byte	0
 2948 0052 00       		.byte	0
 2949 0053 08       		.uleb128 0x8
ARM GAS  C:\Users\RD\AppData\Local\Temp\ccQZrPXd.s 			page 80


 2950 0054 13       		.uleb128 0x13
 2951 0055 01       		.byte	0x1
 2952 0056 0B       		.uleb128 0xb
 2953 0057 0B       		.uleb128 0xb
 2954 0058 3A       		.uleb128 0x3a
 2955 0059 0B       		.uleb128 0xb
 2956 005a 3B       		.uleb128 0x3b
 2957 005b 0B       		.uleb128 0xb
 2958 005c 01       		.uleb128 0x1
 2959 005d 13       		.uleb128 0x13
 2960 005e 00       		.byte	0
 2961 005f 00       		.byte	0
 2962 0060 09       		.uleb128 0x9
 2963 0061 0D       		.uleb128 0xd
 2964 0062 00       		.byte	0
 2965 0063 03       		.uleb128 0x3
 2966 0064 0E       		.uleb128 0xe
 2967 0065 3A       		.uleb128 0x3a
 2968 0066 0B       		.uleb128 0xb
 2969 0067 3B       		.uleb128 0x3b
 2970 0068 0B       		.uleb128 0xb
 2971 0069 49       		.uleb128 0x49
 2972 006a 13       		.uleb128 0x13
 2973 006b 38       		.uleb128 0x38
 2974 006c 0B       		.uleb128 0xb
 2975 006d 00       		.byte	0
 2976 006e 00       		.byte	0
 2977 006f 0A       		.uleb128 0xa
 2978 0070 04       		.uleb128 0x4
 2979 0071 01       		.byte	0x1
 2980 0072 0B       		.uleb128 0xb
 2981 0073 0B       		.uleb128 0xb
 2982 0074 3A       		.uleb128 0x3a
 2983 0075 0B       		.uleb128 0xb
 2984 0076 3B       		.uleb128 0x3b
 2985 0077 0B       		.uleb128 0xb
 2986 0078 01       		.uleb128 0x1
 2987 0079 13       		.uleb128 0x13
 2988 007a 00       		.byte	0
 2989 007b 00       		.byte	0
 2990 007c 0B       		.uleb128 0xb
 2991 007d 28       		.uleb128 0x28
 2992 007e 00       		.byte	0
 2993 007f 03       		.uleb128 0x3
 2994 0080 0E       		.uleb128 0xe
 2995 0081 1C       		.uleb128 0x1c
 2996 0082 0D       		.uleb128 0xd
 2997 0083 00       		.byte	0
 2998 0084 00       		.byte	0
 2999 0085 0C       		.uleb128 0xc
 3000 0086 01       		.uleb128 0x1
 3001 0087 01       		.byte	0x1
 3002 0088 49       		.uleb128 0x49
 3003 0089 13       		.uleb128 0x13
 3004 008a 01       		.uleb128 0x1
 3005 008b 13       		.uleb128 0x13
 3006 008c 00       		.byte	0
ARM GAS  C:\Users\RD\AppData\Local\Temp\ccQZrPXd.s 			page 81


 3007 008d 00       		.byte	0
 3008 008e 0D       		.uleb128 0xd
 3009 008f 21       		.uleb128 0x21
 3010 0090 00       		.byte	0
 3011 0091 49       		.uleb128 0x49
 3012 0092 13       		.uleb128 0x13
 3013 0093 2F       		.uleb128 0x2f
 3014 0094 0B       		.uleb128 0xb
 3015 0095 00       		.byte	0
 3016 0096 00       		.byte	0
 3017 0097 0E       		.uleb128 0xe
 3018 0098 13       		.uleb128 0x13
 3019 0099 01       		.byte	0x1
 3020 009a 0B       		.uleb128 0xb
 3021 009b 0B       		.uleb128 0xb
 3022 009c 3A       		.uleb128 0x3a
 3023 009d 0B       		.uleb128 0xb
 3024 009e 3B       		.uleb128 0x3b
 3025 009f 05       		.uleb128 0x5
 3026 00a0 01       		.uleb128 0x1
 3027 00a1 13       		.uleb128 0x13
 3028 00a2 00       		.byte	0
 3029 00a3 00       		.byte	0
 3030 00a4 0F       		.uleb128 0xf
 3031 00a5 0D       		.uleb128 0xd
 3032 00a6 00       		.byte	0
 3033 00a7 03       		.uleb128 0x3
 3034 00a8 08       		.uleb128 0x8
 3035 00a9 3A       		.uleb128 0x3a
 3036 00aa 0B       		.uleb128 0xb
 3037 00ab 3B       		.uleb128 0x3b
 3038 00ac 05       		.uleb128 0x5
 3039 00ad 49       		.uleb128 0x49
 3040 00ae 13       		.uleb128 0x13
 3041 00af 38       		.uleb128 0x38
 3042 00b0 0B       		.uleb128 0xb
 3043 00b1 00       		.byte	0
 3044 00b2 00       		.byte	0
 3045 00b3 10       		.uleb128 0x10
 3046 00b4 0D       		.uleb128 0xd
 3047 00b5 00       		.byte	0
 3048 00b6 03       		.uleb128 0x3
 3049 00b7 0E       		.uleb128 0xe
 3050 00b8 3A       		.uleb128 0x3a
 3051 00b9 0B       		.uleb128 0xb
 3052 00ba 3B       		.uleb128 0x3b
 3053 00bb 05       		.uleb128 0x5
 3054 00bc 49       		.uleb128 0x49
 3055 00bd 13       		.uleb128 0x13
 3056 00be 38       		.uleb128 0x38
 3057 00bf 0B       		.uleb128 0xb
 3058 00c0 00       		.byte	0
 3059 00c1 00       		.byte	0
 3060 00c2 11       		.uleb128 0x11
 3061 00c3 26       		.uleb128 0x26
 3062 00c4 00       		.byte	0
 3063 00c5 00       		.byte	0
ARM GAS  C:\Users\RD\AppData\Local\Temp\ccQZrPXd.s 			page 82


 3064 00c6 00       		.byte	0
 3065 00c7 12       		.uleb128 0x12
 3066 00c8 17       		.uleb128 0x17
 3067 00c9 01       		.byte	0x1
 3068 00ca 0B       		.uleb128 0xb
 3069 00cb 0B       		.uleb128 0xb
 3070 00cc 3A       		.uleb128 0x3a
 3071 00cd 0B       		.uleb128 0xb
 3072 00ce 3B       		.uleb128 0x3b
 3073 00cf 05       		.uleb128 0x5
 3074 00d0 01       		.uleb128 0x1
 3075 00d1 13       		.uleb128 0x13
 3076 00d2 00       		.byte	0
 3077 00d3 00       		.byte	0
 3078 00d4 13       		.uleb128 0x13
 3079 00d5 0D       		.uleb128 0xd
 3080 00d6 00       		.byte	0
 3081 00d7 03       		.uleb128 0x3
 3082 00d8 08       		.uleb128 0x8
 3083 00d9 3A       		.uleb128 0x3a
 3084 00da 0B       		.uleb128 0xb
 3085 00db 3B       		.uleb128 0x3b
 3086 00dc 05       		.uleb128 0x5
 3087 00dd 49       		.uleb128 0x49
 3088 00de 13       		.uleb128 0x13
 3089 00df 00       		.byte	0
 3090 00e0 00       		.byte	0
 3091 00e1 14       		.uleb128 0x14
 3092 00e2 0D       		.uleb128 0xd
 3093 00e3 00       		.byte	0
 3094 00e4 03       		.uleb128 0x3
 3095 00e5 0E       		.uleb128 0xe
 3096 00e6 3A       		.uleb128 0x3a
 3097 00e7 0B       		.uleb128 0xb
 3098 00e8 3B       		.uleb128 0x3b
 3099 00e9 05       		.uleb128 0x5
 3100 00ea 49       		.uleb128 0x49
 3101 00eb 13       		.uleb128 0x13
 3102 00ec 00       		.byte	0
 3103 00ed 00       		.byte	0
 3104 00ee 15       		.uleb128 0x15
 3105 00ef 2E       		.uleb128 0x2e
 3106 00f0 01       		.byte	0x1
 3107 00f1 3F       		.uleb128 0x3f
 3108 00f2 19       		.uleb128 0x19
 3109 00f3 03       		.uleb128 0x3
 3110 00f4 0E       		.uleb128 0xe
 3111 00f5 3A       		.uleb128 0x3a
 3112 00f6 0B       		.uleb128 0xb
 3113 00f7 3B       		.uleb128 0x3b
 3114 00f8 05       		.uleb128 0x5
 3115 00f9 27       		.uleb128 0x27
 3116 00fa 19       		.uleb128 0x19
 3117 00fb 20       		.uleb128 0x20
 3118 00fc 0B       		.uleb128 0xb
 3119 00fd 01       		.uleb128 0x1
 3120 00fe 13       		.uleb128 0x13
ARM GAS  C:\Users\RD\AppData\Local\Temp\ccQZrPXd.s 			page 83


 3121 00ff 00       		.byte	0
 3122 0100 00       		.byte	0
 3123 0101 16       		.uleb128 0x16
 3124 0102 05       		.uleb128 0x5
 3125 0103 00       		.byte	0
 3126 0104 03       		.uleb128 0x3
 3127 0105 0E       		.uleb128 0xe
 3128 0106 3A       		.uleb128 0x3a
 3129 0107 0B       		.uleb128 0xb
 3130 0108 3B       		.uleb128 0x3b
 3131 0109 05       		.uleb128 0x5
 3132 010a 49       		.uleb128 0x49
 3133 010b 13       		.uleb128 0x13
 3134 010c 00       		.byte	0
 3135 010d 00       		.byte	0
 3136 010e 17       		.uleb128 0x17
 3137 010f 34       		.uleb128 0x34
 3138 0110 00       		.byte	0
 3139 0111 03       		.uleb128 0x3
 3140 0112 0E       		.uleb128 0xe
 3141 0113 3A       		.uleb128 0x3a
 3142 0114 0B       		.uleb128 0xb
 3143 0115 3B       		.uleb128 0x3b
 3144 0116 05       		.uleb128 0x5
 3145 0117 49       		.uleb128 0x49
 3146 0118 13       		.uleb128 0x13
 3147 0119 00       		.byte	0
 3148 011a 00       		.byte	0
 3149 011b 18       		.uleb128 0x18
 3150 011c 2E       		.uleb128 0x2e
 3151 011d 01       		.byte	0x1
 3152 011e 3F       		.uleb128 0x3f
 3153 011f 19       		.uleb128 0x19
 3154 0120 03       		.uleb128 0x3
 3155 0121 0E       		.uleb128 0xe
 3156 0122 3A       		.uleb128 0x3a
 3157 0123 0B       		.uleb128 0xb
 3158 0124 3B       		.uleb128 0x3b
 3159 0125 05       		.uleb128 0x5
 3160 0126 27       		.uleb128 0x27
 3161 0127 19       		.uleb128 0x19
 3162 0128 11       		.uleb128 0x11
 3163 0129 01       		.uleb128 0x1
 3164 012a 12       		.uleb128 0x12
 3165 012b 06       		.uleb128 0x6
 3166 012c 40       		.uleb128 0x40
 3167 012d 18       		.uleb128 0x18
 3168 012e 9742     		.uleb128 0x2117
 3169 0130 19       		.uleb128 0x19
 3170 0131 01       		.uleb128 0x1
 3171 0132 13       		.uleb128 0x13
 3172 0133 00       		.byte	0
 3173 0134 00       		.byte	0
 3174 0135 19       		.uleb128 0x19
 3175 0136 05       		.uleb128 0x5
 3176 0137 00       		.byte	0
 3177 0138 03       		.uleb128 0x3
ARM GAS  C:\Users\RD\AppData\Local\Temp\ccQZrPXd.s 			page 84


 3178 0139 0E       		.uleb128 0xe
 3179 013a 3A       		.uleb128 0x3a
 3180 013b 0B       		.uleb128 0xb
 3181 013c 3B       		.uleb128 0x3b
 3182 013d 05       		.uleb128 0x5
 3183 013e 49       		.uleb128 0x49
 3184 013f 13       		.uleb128 0x13
 3185 0140 02       		.uleb128 0x2
 3186 0141 18       		.uleb128 0x18
 3187 0142 00       		.byte	0
 3188 0143 00       		.byte	0
 3189 0144 1A       		.uleb128 0x1a
 3190 0145 05       		.uleb128 0x5
 3191 0146 00       		.byte	0
 3192 0147 03       		.uleb128 0x3
 3193 0148 0E       		.uleb128 0xe
 3194 0149 3A       		.uleb128 0x3a
 3195 014a 0B       		.uleb128 0xb
 3196 014b 3B       		.uleb128 0x3b
 3197 014c 05       		.uleb128 0x5
 3198 014d 49       		.uleb128 0x49
 3199 014e 13       		.uleb128 0x13
 3200 014f 02       		.uleb128 0x2
 3201 0150 17       		.uleb128 0x17
 3202 0151 00       		.byte	0
 3203 0152 00       		.byte	0
 3204 0153 1B       		.uleb128 0x1b
 3205 0154 2E       		.uleb128 0x2e
 3206 0155 01       		.byte	0x1
 3207 0156 31       		.uleb128 0x31
 3208 0157 13       		.uleb128 0x13
 3209 0158 11       		.uleb128 0x11
 3210 0159 01       		.uleb128 0x1
 3211 015a 12       		.uleb128 0x12
 3212 015b 06       		.uleb128 0x6
 3213 015c 40       		.uleb128 0x40
 3214 015d 18       		.uleb128 0x18
 3215 015e 9742     		.uleb128 0x2117
 3216 0160 19       		.uleb128 0x19
 3217 0161 01       		.uleb128 0x1
 3218 0162 13       		.uleb128 0x13
 3219 0163 00       		.byte	0
 3220 0164 00       		.byte	0
 3221 0165 1C       		.uleb128 0x1c
 3222 0166 05       		.uleb128 0x5
 3223 0167 00       		.byte	0
 3224 0168 31       		.uleb128 0x31
 3225 0169 13       		.uleb128 0x13
 3226 016a 02       		.uleb128 0x2
 3227 016b 17       		.uleb128 0x17
 3228 016c 00       		.byte	0
 3229 016d 00       		.byte	0
 3230 016e 1D       		.uleb128 0x1d
 3231 016f 34       		.uleb128 0x34
 3232 0170 00       		.byte	0
 3233 0171 31       		.uleb128 0x31
 3234 0172 13       		.uleb128 0x13
ARM GAS  C:\Users\RD\AppData\Local\Temp\ccQZrPXd.s 			page 85


 3235 0173 02       		.uleb128 0x2
 3236 0174 17       		.uleb128 0x17
 3237 0175 00       		.byte	0
 3238 0176 00       		.byte	0
 3239 0177 1E       		.uleb128 0x1e
 3240 0178 898201   		.uleb128 0x4109
 3241 017b 01       		.byte	0x1
 3242 017c 11       		.uleb128 0x11
 3243 017d 01       		.uleb128 0x1
 3244 017e 31       		.uleb128 0x31
 3245 017f 13       		.uleb128 0x13
 3246 0180 00       		.byte	0
 3247 0181 00       		.byte	0
 3248 0182 1F       		.uleb128 0x1f
 3249 0183 8A8201   		.uleb128 0x410a
 3250 0186 00       		.byte	0
 3251 0187 02       		.uleb128 0x2
 3252 0188 18       		.uleb128 0x18
 3253 0189 9142     		.uleb128 0x2111
 3254 018b 18       		.uleb128 0x18
 3255 018c 00       		.byte	0
 3256 018d 00       		.byte	0
 3257 018e 20       		.uleb128 0x20
 3258 018f 34       		.uleb128 0x34
 3259 0190 00       		.byte	0
 3260 0191 03       		.uleb128 0x3
 3261 0192 0E       		.uleb128 0xe
 3262 0193 3A       		.uleb128 0x3a
 3263 0194 0B       		.uleb128 0xb
 3264 0195 3B       		.uleb128 0x3b
 3265 0196 05       		.uleb128 0x5
 3266 0197 49       		.uleb128 0x49
 3267 0198 13       		.uleb128 0x13
 3268 0199 02       		.uleb128 0x2
 3269 019a 17       		.uleb128 0x17
 3270 019b 00       		.byte	0
 3271 019c 00       		.byte	0
 3272 019d 21       		.uleb128 0x21
 3273 019e 1D       		.uleb128 0x1d
 3274 019f 01       		.byte	0x1
 3275 01a0 31       		.uleb128 0x31
 3276 01a1 13       		.uleb128 0x13
 3277 01a2 11       		.uleb128 0x11
 3278 01a3 01       		.uleb128 0x1
 3279 01a4 12       		.uleb128 0x12
 3280 01a5 06       		.uleb128 0x6
 3281 01a6 58       		.uleb128 0x58
 3282 01a7 0B       		.uleb128 0xb
 3283 01a8 59       		.uleb128 0x59
 3284 01a9 05       		.uleb128 0x5
 3285 01aa 00       		.byte	0
 3286 01ab 00       		.byte	0
 3287 01ac 22       		.uleb128 0x22
 3288 01ad 0B       		.uleb128 0xb
 3289 01ae 01       		.byte	0x1
 3290 01af 11       		.uleb128 0x11
 3291 01b0 01       		.uleb128 0x1
ARM GAS  C:\Users\RD\AppData\Local\Temp\ccQZrPXd.s 			page 86


 3292 01b1 12       		.uleb128 0x12
 3293 01b2 06       		.uleb128 0x6
 3294 01b3 00       		.byte	0
 3295 01b4 00       		.byte	0
 3296 01b5 23       		.uleb128 0x23
 3297 01b6 26       		.uleb128 0x26
 3298 01b7 00       		.byte	0
 3299 01b8 49       		.uleb128 0x49
 3300 01b9 13       		.uleb128 0x13
 3301 01ba 00       		.byte	0
 3302 01bb 00       		.byte	0
 3303 01bc 24       		.uleb128 0x24
 3304 01bd 2E       		.uleb128 0x2e
 3305 01be 01       		.byte	0x1
 3306 01bf 3F       		.uleb128 0x3f
 3307 01c0 19       		.uleb128 0x19
 3308 01c1 03       		.uleb128 0x3
 3309 01c2 0E       		.uleb128 0xe
 3310 01c3 3A       		.uleb128 0x3a
 3311 01c4 0B       		.uleb128 0xb
 3312 01c5 3B       		.uleb128 0x3b
 3313 01c6 0B       		.uleb128 0xb
 3314 01c7 27       		.uleb128 0x27
 3315 01c8 19       		.uleb128 0x19
 3316 01c9 11       		.uleb128 0x11
 3317 01ca 01       		.uleb128 0x1
 3318 01cb 12       		.uleb128 0x12
 3319 01cc 06       		.uleb128 0x6
 3320 01cd 40       		.uleb128 0x40
 3321 01ce 18       		.uleb128 0x18
 3322 01cf 9742     		.uleb128 0x2117
 3323 01d1 19       		.uleb128 0x19
 3324 01d2 01       		.uleb128 0x1
 3325 01d3 13       		.uleb128 0x13
 3326 01d4 00       		.byte	0
 3327 01d5 00       		.byte	0
 3328 01d6 25       		.uleb128 0x25
 3329 01d7 34       		.uleb128 0x34
 3330 01d8 00       		.byte	0
 3331 01d9 03       		.uleb128 0x3
 3332 01da 0E       		.uleb128 0xe
 3333 01db 3A       		.uleb128 0x3a
 3334 01dc 0B       		.uleb128 0xb
 3335 01dd 3B       		.uleb128 0x3b
 3336 01de 0B       		.uleb128 0xb
 3337 01df 49       		.uleb128 0x49
 3338 01e0 13       		.uleb128 0x13
 3339 01e1 02       		.uleb128 0x2
 3340 01e2 17       		.uleb128 0x17
 3341 01e3 00       		.byte	0
 3342 01e4 00       		.byte	0
 3343 01e5 26       		.uleb128 0x26
 3344 01e6 34       		.uleb128 0x34
 3345 01e7 00       		.byte	0
 3346 01e8 03       		.uleb128 0x3
 3347 01e9 0E       		.uleb128 0xe
 3348 01ea 3A       		.uleb128 0x3a
ARM GAS  C:\Users\RD\AppData\Local\Temp\ccQZrPXd.s 			page 87


 3349 01eb 0B       		.uleb128 0xb
 3350 01ec 3B       		.uleb128 0x3b
 3351 01ed 0B       		.uleb128 0xb
 3352 01ee 49       		.uleb128 0x49
 3353 01ef 13       		.uleb128 0x13
 3354 01f0 00       		.byte	0
 3355 01f1 00       		.byte	0
 3356 01f2 27       		.uleb128 0x27
 3357 01f3 898201   		.uleb128 0x4109
 3358 01f6 01       		.byte	0x1
 3359 01f7 11       		.uleb128 0x11
 3360 01f8 01       		.uleb128 0x1
 3361 01f9 31       		.uleb128 0x31
 3362 01fa 13       		.uleb128 0x13
 3363 01fb 01       		.uleb128 0x1
 3364 01fc 13       		.uleb128 0x13
 3365 01fd 00       		.byte	0
 3366 01fe 00       		.byte	0
 3367 01ff 28       		.uleb128 0x28
 3368 0200 898201   		.uleb128 0x4109
 3369 0203 00       		.byte	0
 3370 0204 11       		.uleb128 0x11
 3371 0205 01       		.uleb128 0x1
 3372 0206 31       		.uleb128 0x31
 3373 0207 13       		.uleb128 0x13
 3374 0208 00       		.byte	0
 3375 0209 00       		.byte	0
 3376 020a 29       		.uleb128 0x29
 3377 020b 2E       		.uleb128 0x2e
 3378 020c 01       		.byte	0x1
 3379 020d 3F       		.uleb128 0x3f
 3380 020e 19       		.uleb128 0x19
 3381 020f 03       		.uleb128 0x3
 3382 0210 0E       		.uleb128 0xe
 3383 0211 3A       		.uleb128 0x3a
 3384 0212 0B       		.uleb128 0xb
 3385 0213 3B       		.uleb128 0x3b
 3386 0214 05       		.uleb128 0x5
 3387 0215 27       		.uleb128 0x27
 3388 0216 19       		.uleb128 0x19
 3389 0217 49       		.uleb128 0x49
 3390 0218 13       		.uleb128 0x13
 3391 0219 11       		.uleb128 0x11
 3392 021a 01       		.uleb128 0x1
 3393 021b 12       		.uleb128 0x12
 3394 021c 06       		.uleb128 0x6
 3395 021d 40       		.uleb128 0x40
 3396 021e 18       		.uleb128 0x18
 3397 021f 9742     		.uleb128 0x2117
 3398 0221 19       		.uleb128 0x19
 3399 0222 01       		.uleb128 0x1
 3400 0223 13       		.uleb128 0x13
 3401 0224 00       		.byte	0
 3402 0225 00       		.byte	0
 3403 0226 2A       		.uleb128 0x2a
 3404 0227 05       		.uleb128 0x5
 3405 0228 00       		.byte	0
ARM GAS  C:\Users\RD\AppData\Local\Temp\ccQZrPXd.s 			page 88


 3406 0229 03       		.uleb128 0x3
 3407 022a 08       		.uleb128 0x8
 3408 022b 3A       		.uleb128 0x3a
 3409 022c 0B       		.uleb128 0xb
 3410 022d 3B       		.uleb128 0x3b
 3411 022e 05       		.uleb128 0x5
 3412 022f 49       		.uleb128 0x49
 3413 0230 13       		.uleb128 0x13
 3414 0231 02       		.uleb128 0x2
 3415 0232 18       		.uleb128 0x18
 3416 0233 00       		.byte	0
 3417 0234 00       		.byte	0
 3418 0235 2B       		.uleb128 0x2b
 3419 0236 34       		.uleb128 0x34
 3420 0237 00       		.byte	0
 3421 0238 03       		.uleb128 0x3
 3422 0239 0E       		.uleb128 0xe
 3423 023a 3A       		.uleb128 0x3a
 3424 023b 0B       		.uleb128 0xb
 3425 023c 3B       		.uleb128 0x3b
 3426 023d 05       		.uleb128 0x5
 3427 023e 49       		.uleb128 0x49
 3428 023f 13       		.uleb128 0x13
 3429 0240 02       		.uleb128 0x2
 3430 0241 18       		.uleb128 0x18
 3431 0242 00       		.byte	0
 3432 0243 00       		.byte	0
 3433 0244 2C       		.uleb128 0x2c
 3434 0245 34       		.uleb128 0x34
 3435 0246 00       		.byte	0
 3436 0247 03       		.uleb128 0x3
 3437 0248 0E       		.uleb128 0xe
 3438 0249 3A       		.uleb128 0x3a
 3439 024a 0B       		.uleb128 0xb
 3440 024b 3B       		.uleb128 0x3b
 3441 024c 05       		.uleb128 0x5
 3442 024d 49       		.uleb128 0x49
 3443 024e 13       		.uleb128 0x13
 3444 024f 1C       		.uleb128 0x1c
 3445 0250 0B       		.uleb128 0xb
 3446 0251 00       		.byte	0
 3447 0252 00       		.byte	0
 3448 0253 2D       		.uleb128 0x2d
 3449 0254 2E       		.uleb128 0x2e
 3450 0255 01       		.byte	0x1
 3451 0256 3F       		.uleb128 0x3f
 3452 0257 19       		.uleb128 0x19
 3453 0258 03       		.uleb128 0x3
 3454 0259 0E       		.uleb128 0xe
 3455 025a 3A       		.uleb128 0x3a
 3456 025b 0B       		.uleb128 0xb
 3457 025c 3B       		.uleb128 0x3b
 3458 025d 0B       		.uleb128 0xb
 3459 025e 27       		.uleb128 0x27
 3460 025f 19       		.uleb128 0x19
 3461 0260 49       		.uleb128 0x49
 3462 0261 13       		.uleb128 0x13
ARM GAS  C:\Users\RD\AppData\Local\Temp\ccQZrPXd.s 			page 89


 3463 0262 11       		.uleb128 0x11
 3464 0263 01       		.uleb128 0x1
 3465 0264 12       		.uleb128 0x12
 3466 0265 06       		.uleb128 0x6
 3467 0266 40       		.uleb128 0x40
 3468 0267 18       		.uleb128 0x18
 3469 0268 9742     		.uleb128 0x2117
 3470 026a 19       		.uleb128 0x19
 3471 026b 01       		.uleb128 0x1
 3472 026c 13       		.uleb128 0x13
 3473 026d 00       		.byte	0
 3474 026e 00       		.byte	0
 3475 026f 2E       		.uleb128 0x2e
 3476 0270 05       		.uleb128 0x5
 3477 0271 00       		.byte	0
 3478 0272 03       		.uleb128 0x3
 3479 0273 0E       		.uleb128 0xe
 3480 0274 3A       		.uleb128 0x3a
 3481 0275 0B       		.uleb128 0xb
 3482 0276 3B       		.uleb128 0x3b
 3483 0277 0B       		.uleb128 0xb
 3484 0278 49       		.uleb128 0x49
 3485 0279 13       		.uleb128 0x13
 3486 027a 02       		.uleb128 0x2
 3487 027b 17       		.uleb128 0x17
 3488 027c 00       		.byte	0
 3489 027d 00       		.byte	0
 3490 027e 2F       		.uleb128 0x2f
 3491 027f 34       		.uleb128 0x34
 3492 0280 00       		.byte	0
 3493 0281 03       		.uleb128 0x3
 3494 0282 0E       		.uleb128 0xe
 3495 0283 3A       		.uleb128 0x3a
 3496 0284 0B       		.uleb128 0xb
 3497 0285 3B       		.uleb128 0x3b
 3498 0286 05       		.uleb128 0x5
 3499 0287 49       		.uleb128 0x49
 3500 0288 13       		.uleb128 0x13
 3501 0289 3F       		.uleb128 0x3f
 3502 028a 19       		.uleb128 0x19
 3503 028b 3C       		.uleb128 0x3c
 3504 028c 19       		.uleb128 0x19
 3505 028d 00       		.byte	0
 3506 028e 00       		.byte	0
 3507 028f 30       		.uleb128 0x30
 3508 0290 2E       		.uleb128 0x2e
 3509 0291 01       		.byte	0x1
 3510 0292 3F       		.uleb128 0x3f
 3511 0293 19       		.uleb128 0x19
 3512 0294 03       		.uleb128 0x3
 3513 0295 0E       		.uleb128 0xe
 3514 0296 3A       		.uleb128 0x3a
 3515 0297 0B       		.uleb128 0xb
 3516 0298 3B       		.uleb128 0x3b
 3517 0299 0B       		.uleb128 0xb
 3518 029a 27       		.uleb128 0x27
 3519 029b 19       		.uleb128 0x19
ARM GAS  C:\Users\RD\AppData\Local\Temp\ccQZrPXd.s 			page 90


 3520 029c 3C       		.uleb128 0x3c
 3521 029d 19       		.uleb128 0x19
 3522 029e 01       		.uleb128 0x1
 3523 029f 13       		.uleb128 0x13
 3524 02a0 00       		.byte	0
 3525 02a1 00       		.byte	0
 3526 02a2 31       		.uleb128 0x31
 3527 02a3 05       		.uleb128 0x5
 3528 02a4 00       		.byte	0
 3529 02a5 49       		.uleb128 0x49
 3530 02a6 13       		.uleb128 0x13
 3531 02a7 00       		.byte	0
 3532 02a8 00       		.byte	0
 3533 02a9 32       		.uleb128 0x32
 3534 02aa 2E       		.uleb128 0x2e
 3535 02ab 01       		.byte	0x1
 3536 02ac 3F       		.uleb128 0x3f
 3537 02ad 19       		.uleb128 0x19
 3538 02ae 03       		.uleb128 0x3
 3539 02af 0E       		.uleb128 0xe
 3540 02b0 3A       		.uleb128 0x3a
 3541 02b1 0B       		.uleb128 0xb
 3542 02b2 3B       		.uleb128 0x3b
 3543 02b3 0B       		.uleb128 0xb
 3544 02b4 27       		.uleb128 0x27
 3545 02b5 19       		.uleb128 0x19
 3546 02b6 3C       		.uleb128 0x3c
 3547 02b7 19       		.uleb128 0x19
 3548 02b8 00       		.byte	0
 3549 02b9 00       		.byte	0
 3550 02ba 00       		.byte	0
 3551              		.section	.debug_loc,"",%progbits
 3552              	.Ldebug_loc0:
 3553              	.LLST0:
 3554 0000 00000000 		.4byte	.LVL0
 3555 0004 02000000 		.4byte	.LVL1
 3556 0008 0100     		.2byte	0x1
 3557 000a 51       		.byte	0x51
 3558 000b 02000000 		.4byte	.LVL1
 3559 000f 1C000000 		.4byte	.LFE10
 3560 0013 0400     		.2byte	0x4
 3561 0015 F3       		.byte	0xf3
 3562 0016 01       		.uleb128 0x1
 3563 0017 51       		.byte	0x51
 3564 0018 9F       		.byte	0x9f
 3565 0019 00000000 		.4byte	0
 3566 001d 00000000 		.4byte	0
 3567              	.LLST1:
 3568 0021 00000000 		.4byte	.LVL0
 3569 0025 16000000 		.4byte	.LVL2
 3570 0029 0100     		.2byte	0x1
 3571 002b 52       		.byte	0x52
 3572 002c 16000000 		.4byte	.LVL2
 3573 0030 1C000000 		.4byte	.LFE10
 3574 0034 0400     		.2byte	0x4
 3575 0036 F3       		.byte	0xf3
 3576 0037 01       		.uleb128 0x1
ARM GAS  C:\Users\RD\AppData\Local\Temp\ccQZrPXd.s 			page 91


 3577 0038 52       		.byte	0x52
 3578 0039 9F       		.byte	0x9f
 3579 003a 00000000 		.4byte	0
 3580 003e 00000000 		.4byte	0
 3581              	.LLST2:
 3582 0042 00000000 		.4byte	.LVL3
 3583 0046 0A000000 		.4byte	.LVL5
 3584 004a 0100     		.2byte	0x1
 3585 004c 50       		.byte	0x50
 3586 004d 0A000000 		.4byte	.LVL5
 3587 0051 1C000000 		.4byte	.LVL11
 3588 0055 0100     		.2byte	0x1
 3589 0057 56       		.byte	0x56
 3590 0058 1C000000 		.4byte	.LVL11
 3591 005c 1E000000 		.4byte	.LFE9
 3592 0060 0400     		.2byte	0x4
 3593 0062 F3       		.byte	0xf3
 3594 0063 01       		.uleb128 0x1
 3595 0064 50       		.byte	0x50
 3596 0065 9F       		.byte	0x9f
 3597 0066 00000000 		.4byte	0
 3598 006a 00000000 		.4byte	0
 3599              	.LLST3:
 3600 006e 00000000 		.4byte	.LVL3
 3601 0072 0A000000 		.4byte	.LVL5
 3602 0076 0100     		.2byte	0x1
 3603 0078 51       		.byte	0x51
 3604 0079 0A000000 		.4byte	.LVL5
 3605 007d 1C000000 		.4byte	.LVL10
 3606 0081 0100     		.2byte	0x1
 3607 0083 55       		.byte	0x55
 3608 0084 1C000000 		.4byte	.LVL10
 3609 0088 1E000000 		.4byte	.LFE9
 3610 008c 0400     		.2byte	0x4
 3611 008e F3       		.byte	0xf3
 3612 008f 01       		.uleb128 0x1
 3613 0090 51       		.byte	0x51
 3614 0091 9F       		.byte	0x9f
 3615 0092 00000000 		.4byte	0
 3616 0096 00000000 		.4byte	0
 3617              	.LLST4:
 3618 009a 06000000 		.4byte	.LVL4
 3619 009e 0A000000 		.4byte	.LVL5
 3620 00a2 0200     		.2byte	0x2
 3621 00a4 31       		.byte	0x31
 3622 00a5 9F       		.byte	0x9f
 3623 00a6 0A000000 		.4byte	.LVL5
 3624 00aa 16000000 		.4byte	.LVL7
 3625 00ae 0100     		.2byte	0x1
 3626 00b0 54       		.byte	0x54
 3627 00b1 16000000 		.4byte	.LVL7
 3628 00b5 18000000 		.4byte	.LVL8
 3629 00b9 0100     		.2byte	0x1
 3630 00bb 53       		.byte	0x53
 3631 00bc 18000000 		.4byte	.LVL8
 3632 00c0 1C000000 		.4byte	.LVL9
 3633 00c4 0100     		.2byte	0x1
ARM GAS  C:\Users\RD\AppData\Local\Temp\ccQZrPXd.s 			page 92


 3634 00c6 54       		.byte	0x54
 3635 00c7 1C000000 		.4byte	.LVL9
 3636 00cb 1E000000 		.4byte	.LFE9
 3637 00cf 0300     		.2byte	0x3
 3638 00d1 73       		.byte	0x73
 3639 00d2 7F       		.sleb128 -1
 3640 00d3 9F       		.byte	0x9f
 3641 00d4 00000000 		.4byte	0
 3642 00d8 00000000 		.4byte	0
 3643              	.LLST5:
 3644 00dc 00000000 		.4byte	.LVL12
 3645 00e0 18000000 		.4byte	.LVL17
 3646 00e4 0100     		.2byte	0x1
 3647 00e6 50       		.byte	0x50
 3648 00e7 18000000 		.4byte	.LVL17
 3649 00eb 3C000000 		.4byte	.LFE8
 3650 00ef 0400     		.2byte	0x4
 3651 00f1 F3       		.byte	0xf3
 3652 00f2 01       		.uleb128 0x1
 3653 00f3 50       		.byte	0x50
 3654 00f4 9F       		.byte	0x9f
 3655 00f5 00000000 		.4byte	0
 3656 00f9 00000000 		.4byte	0
 3657              	.LLST6:
 3658 00fd 00000000 		.4byte	.LVL12
 3659 0101 12000000 		.4byte	.LVL15
 3660 0105 0100     		.2byte	0x1
 3661 0107 51       		.byte	0x51
 3662 0108 12000000 		.4byte	.LVL15
 3663 010c 3C000000 		.4byte	.LFE8
 3664 0110 0400     		.2byte	0x4
 3665 0112 F3       		.byte	0xf3
 3666 0113 01       		.uleb128 0x1
 3667 0114 51       		.byte	0x51
 3668 0115 9F       		.byte	0x9f
 3669 0116 00000000 		.4byte	0
 3670 011a 00000000 		.4byte	0
 3671              	.LLST7:
 3672 011e 02000000 		.4byte	.LVL13
 3673 0122 0E000000 		.4byte	.LVL14
 3674 0126 0200     		.2byte	0x2
 3675 0128 30       		.byte	0x30
 3676 0129 9F       		.byte	0x9f
 3677 012a 0E000000 		.4byte	.LVL14
 3678 012e 34000000 		.4byte	.LVL23
 3679 0132 0100     		.2byte	0x1
 3680 0134 54       		.byte	0x54
 3681 0135 00000000 		.4byte	0
 3682 0139 00000000 		.4byte	0
 3683              	.LLST8:
 3684 013d 1E000000 		.4byte	.LVL18
 3685 0141 34000000 		.4byte	.LVL25
 3686 0145 0100     		.2byte	0x1
 3687 0147 56       		.byte	0x56
 3688 0148 00000000 		.4byte	0
 3689 014c 00000000 		.4byte	0
 3690              	.LLST9:
ARM GAS  C:\Users\RD\AppData\Local\Temp\ccQZrPXd.s 			page 93


 3691 0150 1E000000 		.4byte	.LVL18
 3692 0154 34000000 		.4byte	.LVL23
 3693 0158 0100     		.2byte	0x1
 3694 015a 54       		.byte	0x54
 3695 015b 00000000 		.4byte	0
 3696 015f 00000000 		.4byte	0
 3697              	.LLST10:
 3698 0163 1E000000 		.4byte	.LVL18
 3699 0167 22000000 		.4byte	.LVL19
 3700 016b 0200     		.2byte	0x2
 3701 016d 31       		.byte	0x31
 3702 016e 9F       		.byte	0x9f
 3703 016f 22000000 		.4byte	.LVL19
 3704 0173 2E000000 		.4byte	.LVL21
 3705 0177 0100     		.2byte	0x1
 3706 0179 55       		.byte	0x55
 3707 017a 2E000000 		.4byte	.LVL21
 3708 017e 30000000 		.4byte	.LVL22
 3709 0182 0100     		.2byte	0x1
 3710 0184 53       		.byte	0x53
 3711 0185 30000000 		.4byte	.LVL22
 3712 0189 34000000 		.4byte	.LVL24
 3713 018d 0100     		.2byte	0x1
 3714 018f 55       		.byte	0x55
 3715 0190 34000000 		.4byte	.LVL24
 3716 0194 3C000000 		.4byte	.LFE8
 3717 0198 0300     		.2byte	0x3
 3718 019a 73       		.byte	0x73
 3719 019b 7F       		.sleb128 -1
 3720 019c 9F       		.byte	0x9f
 3721 019d 00000000 		.4byte	0
 3722 01a1 00000000 		.4byte	0
 3723              	.LLST11:
 3724 01a5 00000000 		.4byte	.LVL26
 3725 01a9 12000000 		.4byte	.LVL29
 3726 01ad 0100     		.2byte	0x1
 3727 01af 50       		.byte	0x50
 3728 01b0 12000000 		.4byte	.LVL29
 3729 01b4 22000000 		.4byte	.LVL34
 3730 01b8 0100     		.2byte	0x1
 3731 01ba 55       		.byte	0x55
 3732 01bb 22000000 		.4byte	.LVL34
 3733 01bf 28000000 		.4byte	.LFE7
 3734 01c3 0400     		.2byte	0x4
 3735 01c5 F3       		.byte	0xf3
 3736 01c6 01       		.uleb128 0x1
 3737 01c7 50       		.byte	0x50
 3738 01c8 9F       		.byte	0x9f
 3739 01c9 00000000 		.4byte	0
 3740 01cd 00000000 		.4byte	0
 3741              	.LLST12:
 3742 01d1 10000000 		.4byte	.LVL28
 3743 01d5 12000000 		.4byte	.LVL29
 3744 01d9 0100     		.2byte	0x1
 3745 01db 53       		.byte	0x53
 3746 01dc 12000000 		.4byte	.LVL29
 3747 01e0 1C000000 		.4byte	.LVL31
ARM GAS  C:\Users\RD\AppData\Local\Temp\ccQZrPXd.s 			page 94


 3748 01e4 0100     		.2byte	0x1
 3749 01e6 54       		.byte	0x54
 3750 01e7 1C000000 		.4byte	.LVL31
 3751 01eb 1E000000 		.4byte	.LVL32
 3752 01ef 0100     		.2byte	0x1
 3753 01f1 53       		.byte	0x53
 3754 01f2 1E000000 		.4byte	.LVL32
 3755 01f6 22000000 		.4byte	.LVL33
 3756 01fa 0100     		.2byte	0x1
 3757 01fc 54       		.byte	0x54
 3758 01fd 22000000 		.4byte	.LVL33
 3759 0201 28000000 		.4byte	.LFE7
 3760 0205 0300     		.2byte	0x3
 3761 0207 73       		.byte	0x73
 3762 0208 7F       		.sleb128 -1
 3763 0209 9F       		.byte	0x9f
 3764 020a 00000000 		.4byte	0
 3765 020e 00000000 		.4byte	0
 3766              	.LLST13:
 3767 0212 10000000 		.4byte	.LVL28
 3768 0216 12000000 		.4byte	.LVL29
 3769 021a 0100     		.2byte	0x1
 3770 021c 53       		.byte	0x53
 3771 021d 00000000 		.4byte	0
 3772 0221 00000000 		.4byte	0
 3773              	.LLST14:
 3774 0225 02000000 		.4byte	.LVL35
 3775 0229 06000000 		.4byte	.LVL36
 3776 022d 0200     		.2byte	0x2
 3777 022f 31       		.byte	0x31
 3778 0230 9F       		.byte	0x9f
 3779 0231 06000000 		.4byte	.LVL36
 3780 0235 0E000000 		.4byte	.LVL38
 3781 0239 0100     		.2byte	0x1
 3782 023b 54       		.byte	0x54
 3783 023c 0E000000 		.4byte	.LVL38
 3784 0240 10000000 		.4byte	.LVL39
 3785 0244 0100     		.2byte	0x1
 3786 0246 53       		.byte	0x53
 3787 0247 10000000 		.4byte	.LVL39
 3788 024b 14000000 		.4byte	.LVL40
 3789 024f 0100     		.2byte	0x1
 3790 0251 54       		.byte	0x54
 3791 0252 14000000 		.4byte	.LVL40
 3792 0256 16000000 		.4byte	.LFE6
 3793 025a 0300     		.2byte	0x3
 3794 025c 73       		.byte	0x73
 3795 025d 7F       		.sleb128 -1
 3796 025e 9F       		.byte	0x9f
 3797 025f 00000000 		.4byte	0
 3798 0263 00000000 		.4byte	0
 3799              	.LLST15:
 3800 0267 02000000 		.4byte	.LVL42
 3801 026b 06000000 		.4byte	.LVL43
 3802 026f 0200     		.2byte	0x2
 3803 0271 31       		.byte	0x31
 3804 0272 9F       		.byte	0x9f
ARM GAS  C:\Users\RD\AppData\Local\Temp\ccQZrPXd.s 			page 95


 3805 0273 06000000 		.4byte	.LVL43
 3806 0277 14000000 		.4byte	.LVL44
 3807 027b 0100     		.2byte	0x1
 3808 027d 54       		.byte	0x54
 3809 027e 14000000 		.4byte	.LVL44
 3810 0282 16000000 		.4byte	.LVL45
 3811 0286 0100     		.2byte	0x1
 3812 0288 53       		.byte	0x53
 3813 0289 16000000 		.4byte	.LVL45
 3814 028d 1A000000 		.4byte	.LVL46
 3815 0291 0100     		.2byte	0x1
 3816 0293 54       		.byte	0x54
 3817 0294 1A000000 		.4byte	.LVL46
 3818 0298 1C000000 		.4byte	.LFE13
 3819 029c 0300     		.2byte	0x3
 3820 029e 73       		.byte	0x73
 3821 029f 7F       		.sleb128 -1
 3822 02a0 9F       		.byte	0x9f
 3823 02a1 00000000 		.4byte	0
 3824 02a5 00000000 		.4byte	0
 3825              	.LLST16:
 3826 02a9 06000000 		.4byte	.LVL47
 3827 02ad 0A000000 		.4byte	.LVL48
 3828 02b1 0200     		.2byte	0x2
 3829 02b3 31       		.byte	0x31
 3830 02b4 9F       		.byte	0x9f
 3831 02b5 0A000000 		.4byte	.LVL48
 3832 02b9 64000000 		.4byte	.LVL60
 3833 02bd 0100     		.2byte	0x1
 3834 02bf 56       		.byte	0x56
 3835 02c0 64000000 		.4byte	.LVL60
 3836 02c4 66000000 		.4byte	.LVL61
 3837 02c8 0100     		.2byte	0x1
 3838 02ca 53       		.byte	0x53
 3839 02cb 66000000 		.4byte	.LVL61
 3840 02cf 6A000000 		.4byte	.LVL62
 3841 02d3 0100     		.2byte	0x1
 3842 02d5 56       		.byte	0x56
 3843 02d6 6A000000 		.4byte	.LVL62
 3844 02da 74000000 		.4byte	.LFE1
 3845 02de 0300     		.2byte	0x3
 3846 02e0 73       		.byte	0x73
 3847 02e1 7F       		.sleb128 -1
 3848 02e2 9F       		.byte	0x9f
 3849 02e3 00000000 		.4byte	0
 3850 02e7 00000000 		.4byte	0
 3851              	.LLST17:
 3852 02eb 1A000000 		.4byte	.LVL50
 3853 02ef 1C000000 		.4byte	.LVL51
 3854 02f3 0100     		.2byte	0x1
 3855 02f5 53       		.byte	0x53
 3856 02f6 1C000000 		.4byte	.LVL51
 3857 02fa 5C000000 		.4byte	.LVL58
 3858 02fe 0100     		.2byte	0x1
 3859 0300 55       		.byte	0x55
 3860 0301 5C000000 		.4byte	.LVL58
 3861 0305 5E000000 		.4byte	.LVL59
ARM GAS  C:\Users\RD\AppData\Local\Temp\ccQZrPXd.s 			page 96


 3862 0309 0100     		.2byte	0x1
 3863 030b 53       		.byte	0x53
 3864 030c 5E000000 		.4byte	.LVL59
 3865 0310 64000000 		.4byte	.LVL60
 3866 0314 0100     		.2byte	0x1
 3867 0316 55       		.byte	0x55
 3868 0317 00000000 		.4byte	0
 3869 031b 00000000 		.4byte	0
 3870              	.LLST18:
 3871 031f 1A000000 		.4byte	.LVL50
 3872 0323 1C000000 		.4byte	.LVL51
 3873 0327 0100     		.2byte	0x1
 3874 0329 53       		.byte	0x53
 3875 032a 00000000 		.4byte	0
 3876 032e 00000000 		.4byte	0
 3877              	.LLST19:
 3878 0332 06000000 		.4byte	.LVL47
 3879 0336 0A000000 		.4byte	.LVL48
 3880 033a 0200     		.2byte	0x2
 3881 033c 30       		.byte	0x30
 3882 033d 9F       		.byte	0x9f
 3883 033e 26000000 		.4byte	.LVL52
 3884 0342 30000000 		.4byte	.LVL53
 3885 0346 0200     		.2byte	0x2
 3886 0348 73       		.byte	0x73
 3887 0349 08       		.sleb128 8
 3888 034a 30000000 		.4byte	.LVL53
 3889 034e 5C000000 		.4byte	.LVL58
 3890 0352 0100     		.2byte	0x1
 3891 0354 57       		.byte	0x57
 3892 0355 00000000 		.4byte	0
 3893 0359 00000000 		.4byte	0
 3894              	.LLST20:
 3895 035d 18000000 		.4byte	.LVL49
 3896 0361 1C000000 		.4byte	.LVL51
 3897 0365 0100     		.2byte	0x1
 3898 0367 52       		.byte	0x52
 3899 0368 1C000000 		.4byte	.LVL51
 3900 036c 64000000 		.4byte	.LVL60
 3901 0370 0100     		.2byte	0x1
 3902 0372 58       		.byte	0x58
 3903 0373 00000000 		.4byte	0
 3904 0377 00000000 		.4byte	0
 3905              	.LLST21:
 3906 037b 06000000 		.4byte	.LVL47
 3907 037f 0A000000 		.4byte	.LVL48
 3908 0383 0200     		.2byte	0x2
 3909 0385 30       		.byte	0x30
 3910 0386 9F       		.byte	0x9f
 3911 0387 34000000 		.4byte	.LVL54
 3912 038b 3E000000 		.4byte	.LVL55
 3913 038f 0200     		.2byte	0x2
 3914 0391 73       		.byte	0x73
 3915 0392 20       		.sleb128 32
 3916 0393 3E000000 		.4byte	.LVL55
 3917 0397 5C000000 		.4byte	.LVL58
 3918 039b 0100     		.2byte	0x1
ARM GAS  C:\Users\RD\AppData\Local\Temp\ccQZrPXd.s 			page 97


 3919 039d 54       		.byte	0x54
 3920 039e 00000000 		.4byte	0
 3921 03a2 00000000 		.4byte	0
 3922              	.LLST22:
 3923 03a6 00000000 		.4byte	.LVL63
 3924 03aa 2C000000 		.4byte	.LVL70
 3925 03ae 0100     		.2byte	0x1
 3926 03b0 50       		.byte	0x50
 3927 03b1 2C000000 		.4byte	.LVL70
 3928 03b5 38000000 		.4byte	.LFE11
 3929 03b9 0400     		.2byte	0x4
 3930 03bb F3       		.byte	0xf3
 3931 03bc 01       		.uleb128 0x1
 3932 03bd 50       		.byte	0x50
 3933 03be 9F       		.byte	0x9f
 3934 03bf 00000000 		.4byte	0
 3935 03c3 00000000 		.4byte	0
 3936              	.LLST23:
 3937 03c7 00000000 		.4byte	.LVL63
 3938 03cb 28000000 		.4byte	.LVL68
 3939 03cf 0100     		.2byte	0x1
 3940 03d1 51       		.byte	0x51
 3941 03d2 28000000 		.4byte	.LVL68
 3942 03d6 38000000 		.4byte	.LFE11
 3943 03da 0400     		.2byte	0x4
 3944 03dc F3       		.byte	0xf3
 3945 03dd 01       		.uleb128 0x1
 3946 03de 51       		.byte	0x51
 3947 03df 9F       		.byte	0x9f
 3948 03e0 00000000 		.4byte	0
 3949 03e4 00000000 		.4byte	0
 3950              	.LLST24:
 3951 03e8 02000000 		.4byte	.LVL64
 3952 03ec 0C000000 		.4byte	.LVL65
 3953 03f0 0200     		.2byte	0x2
 3954 03f2 30       		.byte	0x30
 3955 03f3 9F       		.byte	0x9f
 3956 03f4 0C000000 		.4byte	.LVL65
 3957 03f8 16000000 		.4byte	.LVL66
 3958 03fc 0200     		.2byte	0x2
 3959 03fe 75       		.byte	0x75
 3960 03ff 08       		.sleb128 8
 3961 0400 16000000 		.4byte	.LVL66
 3962 0404 32000000 		.4byte	.LVL72
 3963 0408 0100     		.2byte	0x1
 3964 040a 54       		.byte	0x54
 3965 040b 32000000 		.4byte	.LVL72
 3966 040f 32000000 		.4byte	.LVL74
 3967 0413 1E00     		.2byte	0x1e
 3968 0415 F3       		.byte	0xf3
 3969 0416 01       		.uleb128 0x1
 3970 0417 51       		.byte	0x51
 3971 0418 33       		.byte	0x33
 3972 0419 24       		.byte	0x24
 3973 041a F3       		.byte	0xf3
 3974 041b 01       		.uleb128 0x1
 3975 041c 51       		.byte	0x51
ARM GAS  C:\Users\RD\AppData\Local\Temp\ccQZrPXd.s 			page 98


 3976 041d 1C       		.byte	0x1c
 3977 041e 31       		.byte	0x31
 3978 041f 24       		.byte	0x24
 3979 0420 F3       		.byte	0xf3
 3980 0421 01       		.uleb128 0x1
 3981 0422 50       		.byte	0x50
 3982 0423 32       		.byte	0x32
 3983 0424 24       		.byte	0x24
 3984 0425 F3       		.byte	0xf3
 3985 0426 01       		.uleb128 0x1
 3986 0427 50       		.byte	0x50
 3987 0428 22       		.byte	0x22
 3988 0429 33       		.byte	0x33
 3989 042a 24       		.byte	0x24
 3990 042b 76       		.byte	0x76
 3991 042c 00       		.sleb128 0
 3992 042d 22       		.byte	0x22
 3993 042e 23       		.byte	0x23
 3994 042f 08       		.uleb128 0x8
 3995 0430 06       		.byte	0x6
 3996 0431 22       		.byte	0x22
 3997 0432 9F       		.byte	0x9f
 3998 0433 00000000 		.4byte	0
 3999 0437 00000000 		.4byte	0
 4000              	.LLST25:
 4001 043b 2A000000 		.4byte	.LVL69
 4002 043f 32000000 		.4byte	.LVL73
 4003 0443 0100     		.2byte	0x1
 4004 0445 55       		.byte	0x55
 4005 0446 00000000 		.4byte	0
 4006 044a 00000000 		.4byte	0
 4007              	.LLST26:
 4008 044e 00000000 		.4byte	.LVL75
 4009 0452 18000000 		.4byte	.LVL80
 4010 0456 0100     		.2byte	0x1
 4011 0458 50       		.byte	0x50
 4012 0459 18000000 		.4byte	.LVL80
 4013 045d 34000000 		.4byte	.LFE17
 4014 0461 0400     		.2byte	0x4
 4015 0463 F3       		.byte	0xf3
 4016 0464 01       		.uleb128 0x1
 4017 0465 50       		.byte	0x50
 4018 0466 9F       		.byte	0x9f
 4019 0467 00000000 		.4byte	0
 4020 046b 00000000 		.4byte	0
 4021              	.LLST27:
 4022 046f 00000000 		.4byte	.LVL75
 4023 0473 22000000 		.4byte	.LVL82
 4024 0477 0100     		.2byte	0x1
 4025 0479 51       		.byte	0x51
 4026 047a 22000000 		.4byte	.LVL82
 4027 047e 34000000 		.4byte	.LFE17
 4028 0482 0400     		.2byte	0x4
 4029 0484 F3       		.byte	0xf3
 4030 0485 01       		.uleb128 0x1
 4031 0486 51       		.byte	0x51
 4032 0487 9F       		.byte	0x9f
ARM GAS  C:\Users\RD\AppData\Local\Temp\ccQZrPXd.s 			page 99


 4033 0488 00000000 		.4byte	0
 4034 048c 00000000 		.4byte	0
 4035              	.LLST28:
 4036 0490 0E000000 		.4byte	.LVL77
 4037 0494 2E000000 		.4byte	.LVL86
 4038 0498 0100     		.2byte	0x1
 4039 049a 55       		.byte	0x55
 4040 049b 00000000 		.4byte	0
 4041 049f 00000000 		.4byte	0
 4042              	.LLST29:
 4043 04a3 0E000000 		.4byte	.LVL77
 4044 04a7 10000000 		.4byte	.LVL78
 4045 04ab 0200     		.2byte	0x2
 4046 04ad 30       		.byte	0x30
 4047 04ae 9F       		.byte	0x9f
 4048 04af 10000000 		.4byte	.LVL78
 4049 04b3 16000000 		.4byte	.LVL79
 4050 04b7 0100     		.2byte	0x1
 4051 04b9 56       		.byte	0x56
 4052 04ba 16000000 		.4byte	.LVL79
 4053 04be 2D000000 		.4byte	.LVL84-1
 4054 04c2 0600     		.2byte	0x6
 4055 04c4 76       		.byte	0x76
 4056 04c5 00       		.sleb128 0
 4057 04c6 73       		.byte	0x73
 4058 04c7 00       		.sleb128 0
 4059 04c8 22       		.byte	0x22
 4060 04c9 9F       		.byte	0x9f
 4061 04ca 2D000000 		.4byte	.LVL84-1
 4062 04ce 2E000000 		.4byte	.LVL87
 4063 04d2 0F00     		.2byte	0xf
 4064 04d4 F3       		.byte	0xf3
 4065 04d5 01       		.uleb128 0x1
 4066 04d6 51       		.byte	0x51
 4067 04d7 33       		.byte	0x33
 4068 04d8 24       		.byte	0x24
 4069 04d9 F3       		.byte	0xf3
 4070 04da 01       		.uleb128 0x1
 4071 04db 51       		.byte	0x51
 4072 04dc 1C       		.byte	0x1c
 4073 04dd 31       		.byte	0x31
 4074 04de 24       		.byte	0x24
 4075 04df 76       		.byte	0x76
 4076 04e0 00       		.sleb128 0
 4077 04e1 22       		.byte	0x22
 4078 04e2 9F       		.byte	0x9f
 4079 04e3 00000000 		.4byte	0
 4080 04e7 00000000 		.4byte	0
 4081              	.LLST30:
 4082 04eb 0E000000 		.4byte	.LVL77
 4083 04ef 1E000000 		.4byte	.LVL81
 4084 04f3 0200     		.2byte	0x2
 4085 04f5 30       		.byte	0x30
 4086 04f6 9F       		.byte	0x9f
 4087 04f7 1E000000 		.4byte	.LVL81
 4088 04fb 2D000000 		.4byte	.LVL84-1
 4089 04ff 0100     		.2byte	0x1
ARM GAS  C:\Users\RD\AppData\Local\Temp\ccQZrPXd.s 			page 100


 4090 0501 52       		.byte	0x52
 4091 0502 00000000 		.4byte	0
 4092 0506 00000000 		.4byte	0
 4093              	.LLST31:
 4094 050a 00000000 		.4byte	.LVL88
 4095 050e 18000000 		.4byte	.LVL93
 4096 0512 0100     		.2byte	0x1
 4097 0514 50       		.byte	0x50
 4098 0515 18000000 		.4byte	.LVL93
 4099 0519 34000000 		.4byte	.LFE18
 4100 051d 0400     		.2byte	0x4
 4101 051f F3       		.byte	0xf3
 4102 0520 01       		.uleb128 0x1
 4103 0521 50       		.byte	0x50
 4104 0522 9F       		.byte	0x9f
 4105 0523 00000000 		.4byte	0
 4106 0527 00000000 		.4byte	0
 4107              	.LLST32:
 4108 052b 00000000 		.4byte	.LVL88
 4109 052f 22000000 		.4byte	.LVL95
 4110 0533 0100     		.2byte	0x1
 4111 0535 51       		.byte	0x51
 4112 0536 22000000 		.4byte	.LVL95
 4113 053a 34000000 		.4byte	.LFE18
 4114 053e 0400     		.2byte	0x4
 4115 0540 F3       		.byte	0xf3
 4116 0541 01       		.uleb128 0x1
 4117 0542 51       		.byte	0x51
 4118 0543 9F       		.byte	0x9f
 4119 0544 00000000 		.4byte	0
 4120 0548 00000000 		.4byte	0
 4121              	.LLST33:
 4122 054c 0E000000 		.4byte	.LVL90
 4123 0550 2E000000 		.4byte	.LVL99
 4124 0554 0100     		.2byte	0x1
 4125 0556 55       		.byte	0x55
 4126 0557 00000000 		.4byte	0
 4127 055b 00000000 		.4byte	0
 4128              	.LLST34:
 4129 055f 0E000000 		.4byte	.LVL90
 4130 0563 10000000 		.4byte	.LVL91
 4131 0567 0200     		.2byte	0x2
 4132 0569 30       		.byte	0x30
 4133 056a 9F       		.byte	0x9f
 4134 056b 10000000 		.4byte	.LVL91
 4135 056f 16000000 		.4byte	.LVL92
 4136 0573 0100     		.2byte	0x1
 4137 0575 56       		.byte	0x56
 4138 0576 16000000 		.4byte	.LVL92
 4139 057a 2D000000 		.4byte	.LVL97-1
 4140 057e 0600     		.2byte	0x6
 4141 0580 76       		.byte	0x76
 4142 0581 00       		.sleb128 0
 4143 0582 73       		.byte	0x73
 4144 0583 00       		.sleb128 0
 4145 0584 22       		.byte	0x22
 4146 0585 9F       		.byte	0x9f
ARM GAS  C:\Users\RD\AppData\Local\Temp\ccQZrPXd.s 			page 101


 4147 0586 2D000000 		.4byte	.LVL97-1
 4148 058a 2E000000 		.4byte	.LVL100
 4149 058e 0F00     		.2byte	0xf
 4150 0590 F3       		.byte	0xf3
 4151 0591 01       		.uleb128 0x1
 4152 0592 51       		.byte	0x51
 4153 0593 33       		.byte	0x33
 4154 0594 24       		.byte	0x24
 4155 0595 F3       		.byte	0xf3
 4156 0596 01       		.uleb128 0x1
 4157 0597 51       		.byte	0x51
 4158 0598 1C       		.byte	0x1c
 4159 0599 31       		.byte	0x31
 4160 059a 24       		.byte	0x24
 4161 059b 76       		.byte	0x76
 4162 059c 00       		.sleb128 0
 4163 059d 22       		.byte	0x22
 4164 059e 9F       		.byte	0x9f
 4165 059f 00000000 		.4byte	0
 4166 05a3 00000000 		.4byte	0
 4167              	.LLST35:
 4168 05a7 0E000000 		.4byte	.LVL90
 4169 05ab 1E000000 		.4byte	.LVL94
 4170 05af 0200     		.2byte	0x2
 4171 05b1 30       		.byte	0x30
 4172 05b2 9F       		.byte	0x9f
 4173 05b3 1E000000 		.4byte	.LVL94
 4174 05b7 2D000000 		.4byte	.LVL97-1
 4175 05bb 0100     		.2byte	0x1
 4176 05bd 52       		.byte	0x52
 4177 05be 00000000 		.4byte	0
 4178 05c2 00000000 		.4byte	0
 4179              	.LLST36:
 4180 05c6 00000000 		.4byte	.LVL101
 4181 05ca 02000000 		.4byte	.LVL102
 4182 05ce 0100     		.2byte	0x1
 4183 05d0 50       		.byte	0x50
 4184 05d1 02000000 		.4byte	.LVL102
 4185 05d5 14000000 		.4byte	.LFE19
 4186 05d9 0400     		.2byte	0x4
 4187 05db F3       		.byte	0xf3
 4188 05dc 01       		.uleb128 0x1
 4189 05dd 50       		.byte	0x50
 4190 05de 9F       		.byte	0x9f
 4191 05df 00000000 		.4byte	0
 4192 05e3 00000000 		.4byte	0
 4193              	.LLST37:
 4194 05e7 00000000 		.4byte	.LVL101
 4195 05eb 0E000000 		.4byte	.LVL104
 4196 05ef 0100     		.2byte	0x1
 4197 05f1 51       		.byte	0x51
 4198 05f2 0E000000 		.4byte	.LVL104
 4199 05f6 14000000 		.4byte	.LFE19
 4200 05fa 0400     		.2byte	0x4
 4201 05fc F3       		.byte	0xf3
 4202 05fd 01       		.uleb128 0x1
 4203 05fe 51       		.byte	0x51
ARM GAS  C:\Users\RD\AppData\Local\Temp\ccQZrPXd.s 			page 102


 4204 05ff 9F       		.byte	0x9f
 4205 0600 00000000 		.4byte	0
 4206 0604 00000000 		.4byte	0
 4207              	.LLST38:
 4208 0608 00000000 		.4byte	.LVL101
 4209 060c 04000000 		.4byte	.LVL103
 4210 0610 0100     		.2byte	0x1
 4211 0612 53       		.byte	0x53
 4212 0613 04000000 		.4byte	.LVL103
 4213 0617 14000000 		.4byte	.LFE19
 4214 061b 0400     		.2byte	0x4
 4215 061d F3       		.byte	0xf3
 4216 061e 01       		.uleb128 0x1
 4217 061f 53       		.byte	0x53
 4218 0620 9F       		.byte	0x9f
 4219 0621 00000000 		.4byte	0
 4220 0625 00000000 		.4byte	0
 4221              	.LLST39:
 4222 0629 00000000 		.4byte	.LVL106
 4223 062d 0E000000 		.4byte	.LVL108
 4224 0631 0100     		.2byte	0x1
 4225 0633 50       		.byte	0x50
 4226 0634 0E000000 		.4byte	.LVL108
 4227 0638 80000000 		.4byte	.LVL126
 4228 063c 0100     		.2byte	0x1
 4229 063e 57       		.byte	0x57
 4230 063f 80000000 		.4byte	.LVL126
 4231 0643 82000000 		.4byte	.LFE5
 4232 0647 0400     		.2byte	0x4
 4233 0649 F3       		.byte	0xf3
 4234 064a 01       		.uleb128 0x1
 4235 064b 50       		.byte	0x50
 4236 064c 9F       		.byte	0x9f
 4237 064d 00000000 		.4byte	0
 4238 0651 00000000 		.4byte	0
 4239              	.LLST40:
 4240 0655 00000000 		.4byte	.LVL106
 4241 0659 0E000000 		.4byte	.LVL108
 4242 065d 0100     		.2byte	0x1
 4243 065f 51       		.byte	0x51
 4244 0660 0E000000 		.4byte	.LVL108
 4245 0664 80000000 		.4byte	.LVL125
 4246 0668 0100     		.2byte	0x1
 4247 066a 56       		.byte	0x56
 4248 066b 80000000 		.4byte	.LVL125
 4249 066f 82000000 		.4byte	.LFE5
 4250 0673 0400     		.2byte	0x4
 4251 0675 F3       		.byte	0xf3
 4252 0676 01       		.uleb128 0x1
 4253 0677 51       		.byte	0x51
 4254 0678 9F       		.byte	0x9f
 4255 0679 00000000 		.4byte	0
 4256 067d 00000000 		.4byte	0
 4257              	.LLST41:
 4258 0681 00000000 		.4byte	.LVL106
 4259 0685 0E000000 		.4byte	.LVL108
 4260 0689 0100     		.2byte	0x1
ARM GAS  C:\Users\RD\AppData\Local\Temp\ccQZrPXd.s 			page 103


 4261 068b 52       		.byte	0x52
 4262 068c 0E000000 		.4byte	.LVL108
 4263 0690 82000000 		.4byte	.LFE5
 4264 0694 0400     		.2byte	0x4
 4265 0696 F3       		.byte	0xf3
 4266 0697 01       		.uleb128 0x1
 4267 0698 52       		.byte	0x52
 4268 0699 9F       		.byte	0x9f
 4269 069a 00000000 		.4byte	0
 4270 069e 00000000 		.4byte	0
 4271              	.LLST42:
 4272 06a2 1C000000 		.4byte	.LVL109
 4273 06a6 26000000 		.4byte	.LVL110
 4274 06aa 0200     		.2byte	0x2
 4275 06ac 31       		.byte	0x31
 4276 06ad 9F       		.byte	0x9f
 4277 06ae 28000000 		.4byte	.LVL111
 4278 06b2 2A000000 		.4byte	.LVL112
 4279 06b6 0200     		.2byte	0x2
 4280 06b8 30       		.byte	0x30
 4281 06b9 9F       		.byte	0x9f
 4282 06ba 2A000000 		.4byte	.LVL112
 4283 06be 30000000 		.4byte	.LVL113
 4284 06c2 0100     		.2byte	0x1
 4285 06c4 53       		.byte	0x53
 4286 06c5 00000000 		.4byte	0
 4287 06c9 00000000 		.4byte	0
 4288              	.LLST43:
 4289 06cd 1C000000 		.4byte	.LVL109
 4290 06d1 26000000 		.4byte	.LVL110
 4291 06d5 0100     		.2byte	0x1
 4292 06d7 52       		.byte	0x52
 4293 06d8 28000000 		.4byte	.LVL111
 4294 06dc 3A000000 		.4byte	.LVL114
 4295 06e0 0100     		.2byte	0x1
 4296 06e2 52       		.byte	0x52
 4297 06e3 52000000 		.4byte	.LVL116
 4298 06e7 64000000 		.4byte	.LVL119
 4299 06eb 0100     		.2byte	0x1
 4300 06ed 52       		.byte	0x52
 4301 06ee 00000000 		.4byte	0
 4302 06f2 00000000 		.4byte	0
 4303              	.LLST44:
 4304 06f6 0A000000 		.4byte	.LVL107
 4305 06fa 0E000000 		.4byte	.LVL108
 4306 06fe 0200     		.2byte	0x2
 4307 0700 31       		.byte	0x31
 4308 0701 9F       		.byte	0x9f
 4309 0702 0E000000 		.4byte	.LVL108
 4310 0706 76000000 		.4byte	.LVL122
 4311 070a 0100     		.2byte	0x1
 4312 070c 54       		.byte	0x54
 4313 070d 76000000 		.4byte	.LVL122
 4314 0711 78000000 		.4byte	.LVL123
 4315 0715 0100     		.2byte	0x1
 4316 0717 53       		.byte	0x53
 4317 0718 78000000 		.4byte	.LVL123
ARM GAS  C:\Users\RD\AppData\Local\Temp\ccQZrPXd.s 			page 104


 4318 071c 80000000 		.4byte	.LVL124
 4319 0720 0100     		.2byte	0x1
 4320 0722 54       		.byte	0x54
 4321 0723 80000000 		.4byte	.LVL124
 4322 0727 82000000 		.4byte	.LFE5
 4323 072b 0300     		.2byte	0x3
 4324 072d 73       		.byte	0x73
 4325 072e 7F       		.sleb128 -1
 4326 072f 9F       		.byte	0x9f
 4327 0730 00000000 		.4byte	0
 4328 0734 00000000 		.4byte	0
 4329              	.LLST45:
 4330 0738 5C000000 		.4byte	.LVL117
 4331 073c 69000000 		.4byte	.LVL120-1
 4332 0740 0100     		.2byte	0x1
 4333 0742 51       		.byte	0x51
 4334 0743 6A000000 		.4byte	.LVL120
 4335 0747 74000000 		.4byte	.LVL121
 4336 074b 0100     		.2byte	0x1
 4337 074d 50       		.byte	0x50
 4338 074e 00000000 		.4byte	0
 4339 0752 00000000 		.4byte	0
 4340              	.LLST46:
 4341 0756 00000000 		.4byte	.LVL127
 4342 075a 10000000 		.4byte	.LVL129
 4343 075e 0100     		.2byte	0x1
 4344 0760 50       		.byte	0x50
 4345 0761 10000000 		.4byte	.LVL129
 4346 0765 1C000000 		.4byte	.LVL133
 4347 0769 0100     		.2byte	0x1
 4348 076b 53       		.byte	0x53
 4349 076c 1C000000 		.4byte	.LVL133
 4350 0770 2C000000 		.4byte	.LFE4
 4351 0774 0400     		.2byte	0x4
 4352 0776 F3       		.byte	0xf3
 4353 0777 01       		.uleb128 0x1
 4354 0778 50       		.byte	0x50
 4355 0779 9F       		.byte	0x9f
 4356 077a 00000000 		.4byte	0
 4357 077e 00000000 		.4byte	0
 4358              	.LLST47:
 4359 0782 00000000 		.4byte	.LVL127
 4360 0786 16000000 		.4byte	.LVL131
 4361 078a 0100     		.2byte	0x1
 4362 078c 51       		.byte	0x51
 4363 078d 16000000 		.4byte	.LVL131
 4364 0791 2C000000 		.4byte	.LFE4
 4365 0795 0400     		.2byte	0x4
 4366 0797 F3       		.byte	0xf3
 4367 0798 01       		.uleb128 0x1
 4368 0799 51       		.byte	0x51
 4369 079a 9F       		.byte	0x9f
 4370 079b 00000000 		.4byte	0
 4371 079f 00000000 		.4byte	0
 4372              	.LLST48:
 4373 07a3 04000000 		.4byte	.LVL128
 4374 07a7 26000000 		.4byte	.LVL134
ARM GAS  C:\Users\RD\AppData\Local\Temp\ccQZrPXd.s 			page 105


 4375 07ab 0200     		.2byte	0x2
 4376 07ad 30       		.byte	0x30
 4377 07ae 9F       		.byte	0x9f
 4378 07af 26000000 		.4byte	.LVL134
 4379 07b3 2C000000 		.4byte	.LFE4
 4380 07b7 0100     		.2byte	0x1
 4381 07b9 50       		.byte	0x50
 4382 07ba 00000000 		.4byte	0
 4383 07be 00000000 		.4byte	0
 4384              	.LLST49:
 4385 07c2 04000000 		.4byte	.LVL128
 4386 07c6 12000000 		.4byte	.LVL130
 4387 07ca 0200     		.2byte	0x2
 4388 07cc 30       		.byte	0x30
 4389 07cd 9F       		.byte	0x9f
 4390 07ce 12000000 		.4byte	.LVL130
 4391 07d2 1A000000 		.4byte	.LVL132
 4392 07d6 0100     		.2byte	0x1
 4393 07d8 56       		.byte	0x56
 4394 07d9 1A000000 		.4byte	.LVL132
 4395 07dd 25000000 		.4byte	.LVL134-1
 4396 07e1 0100     		.2byte	0x1
 4397 07e3 51       		.byte	0x51
 4398 07e4 25000000 		.4byte	.LVL134-1
 4399 07e8 26000000 		.4byte	.LVL137
 4400 07ec 0F00     		.2byte	0xf
 4401 07ee F3       		.byte	0xf3
 4402 07ef 01       		.uleb128 0x1
 4403 07f0 51       		.byte	0x51
 4404 07f1 33       		.byte	0x33
 4405 07f2 24       		.byte	0x24
 4406 07f3 F3       		.byte	0xf3
 4407 07f4 01       		.uleb128 0x1
 4408 07f5 51       		.byte	0x51
 4409 07f6 1C       		.byte	0x1c
 4410 07f7 31       		.byte	0x31
 4411 07f8 24       		.byte	0x24
 4412 07f9 76       		.byte	0x76
 4413 07fa 00       		.sleb128 0
 4414 07fb 22       		.byte	0x22
 4415 07fc 9F       		.byte	0x9f
 4416 07fd 00000000 		.4byte	0
 4417 0801 00000000 		.4byte	0
 4418              	.LLST50:
 4419 0805 10000000 		.4byte	.LVL129
 4420 0809 25000000 		.4byte	.LVL134-1
 4421 080d 0100     		.2byte	0x1
 4422 080f 50       		.byte	0x50
 4423 0810 25000000 		.4byte	.LVL134-1
 4424 0814 26000000 		.4byte	.LVL135
 4425 0818 0D00     		.2byte	0xd
 4426 081a 75       		.byte	0x75
 4427 081b 00       		.sleb128 0
 4428 081c F3       		.byte	0xf3
 4429 081d 01       		.uleb128 0x1
 4430 081e 50       		.byte	0x50
 4431 081f 22       		.byte	0x22
ARM GAS  C:\Users\RD\AppData\Local\Temp\ccQZrPXd.s 			page 106


 4432 0820 33       		.byte	0x33
 4433 0821 24       		.byte	0x24
 4434 0822 74       		.byte	0x74
 4435 0823 00       		.sleb128 0
 4436 0824 22       		.byte	0x22
 4437 0825 23       		.byte	0x23
 4438 0826 04       		.uleb128 0x4
 4439 0827 00000000 		.4byte	0
 4440 082b 00000000 		.4byte	0
 4441              	.LLST51:
 4442 082f 00000000 		.4byte	.LVL138
 4443 0833 14000000 		.4byte	.LVL141
 4444 0837 0100     		.2byte	0x1
 4445 0839 50       		.byte	0x50
 4446 083a 14000000 		.4byte	.LVL141
 4447 083e 28000000 		.4byte	.LVL148
 4448 0842 0100     		.2byte	0x1
 4449 0844 56       		.byte	0x56
 4450 0845 28000000 		.4byte	.LVL148
 4451 0849 30000000 		.4byte	.LFE3
 4452 084d 0400     		.2byte	0x4
 4453 084f F3       		.byte	0xf3
 4454 0850 01       		.uleb128 0x1
 4455 0851 50       		.byte	0x50
 4456 0852 9F       		.byte	0x9f
 4457 0853 00000000 		.4byte	0
 4458 0857 00000000 		.4byte	0
 4459              	.LLST52:
 4460 085b 10000000 		.4byte	.LVL140
 4461 085f 14000000 		.4byte	.LVL141
 4462 0863 0100     		.2byte	0x1
 4463 0865 53       		.byte	0x53
 4464 0866 14000000 		.4byte	.LVL141
 4465 086a 20000000 		.4byte	.LVL144
 4466 086e 0100     		.2byte	0x1
 4467 0870 54       		.byte	0x54
 4468 0871 20000000 		.4byte	.LVL144
 4469 0875 22000000 		.4byte	.LVL145
 4470 0879 0100     		.2byte	0x1
 4471 087b 53       		.byte	0x53
 4472 087c 22000000 		.4byte	.LVL145
 4473 0880 28000000 		.4byte	.LVL146
 4474 0884 0100     		.2byte	0x1
 4475 0886 54       		.byte	0x54
 4476 0887 28000000 		.4byte	.LVL146
 4477 088b 30000000 		.4byte	.LFE3
 4478 088f 0300     		.2byte	0x3
 4479 0891 73       		.byte	0x73
 4480 0892 7F       		.sleb128 -1
 4481 0893 9F       		.byte	0x9f
 4482 0894 00000000 		.4byte	0
 4483 0898 00000000 		.4byte	0
 4484              	.LLST53:
 4485 089c 10000000 		.4byte	.LVL140
 4486 08a0 14000000 		.4byte	.LVL141
 4487 08a4 0100     		.2byte	0x1
 4488 08a6 53       		.byte	0x53
ARM GAS  C:\Users\RD\AppData\Local\Temp\ccQZrPXd.s 			page 107


 4489 08a7 00000000 		.4byte	0
 4490 08ab 00000000 		.4byte	0
 4491              	.LLST54:
 4492 08af 04000000 		.4byte	.LVL139
 4493 08b3 14000000 		.4byte	.LVL141
 4494 08b7 0200     		.2byte	0x2
 4495 08b9 30       		.byte	0x30
 4496 08ba 9F       		.byte	0x9f
 4497 08bb 14000000 		.4byte	.LVL141
 4498 08bf 28000000 		.4byte	.LVL147
 4499 08c3 0100     		.2byte	0x1
 4500 08c5 55       		.byte	0x55
 4501 08c6 28000000 		.4byte	.LVL147
 4502 08ca 30000000 		.4byte	.LFE3
 4503 08ce 0100     		.2byte	0x1
 4504 08d0 50       		.byte	0x50
 4505 08d1 00000000 		.4byte	0
 4506 08d5 00000000 		.4byte	0
 4507              	.LLST55:
 4508 08d9 02000000 		.4byte	.LVL149
 4509 08dd 08000000 		.4byte	.LVL150
 4510 08e1 0200     		.2byte	0x2
 4511 08e3 31       		.byte	0x31
 4512 08e4 9F       		.byte	0x9f
 4513 08e5 08000000 		.4byte	.LVL150
 4514 08e9 12000000 		.4byte	.LVL153
 4515 08ed 0100     		.2byte	0x1
 4516 08ef 55       		.byte	0x55
 4517 08f0 12000000 		.4byte	.LVL153
 4518 08f4 14000000 		.4byte	.LVL154
 4519 08f8 0100     		.2byte	0x1
 4520 08fa 53       		.byte	0x53
 4521 08fb 14000000 		.4byte	.LVL154
 4522 08ff 1A000000 		.4byte	.LVL156
 4523 0903 0100     		.2byte	0x1
 4524 0905 55       		.byte	0x55
 4525 0906 1A000000 		.4byte	.LVL156
 4526 090a 1C000000 		.4byte	.LFE2
 4527 090e 0300     		.2byte	0x3
 4528 0910 73       		.byte	0x73
 4529 0911 7F       		.sleb128 -1
 4530 0912 9F       		.byte	0x9f
 4531 0913 00000000 		.4byte	0
 4532 0917 00000000 		.4byte	0
 4533              	.LLST56:
 4534 091b 02000000 		.4byte	.LVL149
 4535 091f 08000000 		.4byte	.LVL150
 4536 0923 0200     		.2byte	0x2
 4537 0925 30       		.byte	0x30
 4538 0926 9F       		.byte	0x9f
 4539 0927 08000000 		.4byte	.LVL150
 4540 092b 1A000000 		.4byte	.LVL155
 4541 092f 0100     		.2byte	0x1
 4542 0931 54       		.byte	0x54
 4543 0932 1A000000 		.4byte	.LVL155
 4544 0936 1C000000 		.4byte	.LFE2
 4545 093a 0100     		.2byte	0x1
ARM GAS  C:\Users\RD\AppData\Local\Temp\ccQZrPXd.s 			page 108


 4546 093c 50       		.byte	0x50
 4547 093d 00000000 		.4byte	0
 4548 0941 00000000 		.4byte	0
 4549              	.LLST57:
 4550 0945 00000000 		.4byte	.LVL157
 4551 0949 1A000000 		.4byte	.LVL160
 4552 094d 0100     		.2byte	0x1
 4553 094f 50       		.byte	0x50
 4554 0950 1A000000 		.4byte	.LVL160
 4555 0954 36000000 		.4byte	.LFE14
 4556 0958 0100     		.2byte	0x1
 4557 095a 56       		.byte	0x56
 4558 095b 00000000 		.4byte	0
 4559 095f 00000000 		.4byte	0
 4560              	.LLST58:
 4561 0963 00000000 		.4byte	.LVL157
 4562 0967 0E000000 		.4byte	.LVL159
 4563 096b 0100     		.2byte	0x1
 4564 096d 51       		.byte	0x51
 4565 096e 0E000000 		.4byte	.LVL159
 4566 0972 34000000 		.4byte	.LVL166
 4567 0976 0100     		.2byte	0x1
 4568 0978 57       		.byte	0x57
 4569 0979 34000000 		.4byte	.LVL166
 4570 097d 36000000 		.4byte	.LFE14
 4571 0981 0400     		.2byte	0x4
 4572 0983 F3       		.byte	0xf3
 4573 0984 01       		.uleb128 0x1
 4574 0985 51       		.byte	0x51
 4575 0986 9F       		.byte	0x9f
 4576 0987 00000000 		.4byte	0
 4577 098b 00000000 		.4byte	0
 4578              	.LLST59:
 4579 098f 00000000 		.4byte	.LVL157
 4580 0993 0E000000 		.4byte	.LVL159
 4581 0997 0100     		.2byte	0x1
 4582 0999 52       		.byte	0x52
 4583 099a 0E000000 		.4byte	.LVL159
 4584 099e 36000000 		.4byte	.LFE14
 4585 09a2 0200     		.2byte	0x2
 4586 09a4 91       		.byte	0x91
 4587 09a5 64       		.sleb128 -28
 4588 09a6 00000000 		.4byte	0
 4589 09aa 00000000 		.4byte	0
 4590              	.LLST60:
 4591 09ae 0A000000 		.4byte	.LVL158
 4592 09b2 0E000000 		.4byte	.LVL159
 4593 09b6 0200     		.2byte	0x2
 4594 09b8 31       		.byte	0x31
 4595 09b9 9F       		.byte	0x9f
 4596 09ba 0E000000 		.4byte	.LVL159
 4597 09be 2C000000 		.4byte	.LVL163
 4598 09c2 0100     		.2byte	0x1
 4599 09c4 54       		.byte	0x54
 4600 09c5 2C000000 		.4byte	.LVL163
 4601 09c9 2E000000 		.4byte	.LVL164
 4602 09cd 0100     		.2byte	0x1
ARM GAS  C:\Users\RD\AppData\Local\Temp\ccQZrPXd.s 			page 109


 4603 09cf 53       		.byte	0x53
 4604 09d0 2E000000 		.4byte	.LVL164
 4605 09d4 34000000 		.4byte	.LVL165
 4606 09d8 0100     		.2byte	0x1
 4607 09da 54       		.byte	0x54
 4608 09db 34000000 		.4byte	.LVL165
 4609 09df 36000000 		.4byte	.LFE14
 4610 09e3 0300     		.2byte	0x3
 4611 09e5 73       		.byte	0x73
 4612 09e6 7F       		.sleb128 -1
 4613 09e7 9F       		.byte	0x9f
 4614 09e8 00000000 		.4byte	0
 4615 09ec 00000000 		.4byte	0
 4616              	.LLST61:
 4617 09f0 24000000 		.4byte	.LVL161
 4618 09f4 26000000 		.4byte	.LVL162
 4619 09f8 0100     		.2byte	0x1
 4620 09fa 50       		.byte	0x50
 4621 09fb 00000000 		.4byte	0
 4622 09ff 00000000 		.4byte	0
 4623              	.LLST62:
 4624 0a03 00000000 		.4byte	.LVL167
 4625 0a07 2C000000 		.4byte	.LVL174
 4626 0a0b 0100     		.2byte	0x1
 4627 0a0d 50       		.byte	0x50
 4628 0a0e 2C000000 		.4byte	.LVL174
 4629 0a12 38000000 		.4byte	.LFE12
 4630 0a16 0400     		.2byte	0x4
 4631 0a18 F3       		.byte	0xf3
 4632 0a19 01       		.uleb128 0x1
 4633 0a1a 50       		.byte	0x50
 4634 0a1b 9F       		.byte	0x9f
 4635 0a1c 00000000 		.4byte	0
 4636 0a20 00000000 		.4byte	0
 4637              	.LLST63:
 4638 0a24 00000000 		.4byte	.LVL167
 4639 0a28 28000000 		.4byte	.LVL172
 4640 0a2c 0100     		.2byte	0x1
 4641 0a2e 51       		.byte	0x51
 4642 0a2f 28000000 		.4byte	.LVL172
 4643 0a33 38000000 		.4byte	.LFE12
 4644 0a37 0400     		.2byte	0x4
 4645 0a39 F3       		.byte	0xf3
 4646 0a3a 01       		.uleb128 0x1
 4647 0a3b 51       		.byte	0x51
 4648 0a3c 9F       		.byte	0x9f
 4649 0a3d 00000000 		.4byte	0
 4650 0a41 00000000 		.4byte	0
 4651              	.LLST64:
 4652 0a45 02000000 		.4byte	.LVL168
 4653 0a49 0C000000 		.4byte	.LVL169
 4654 0a4d 0200     		.2byte	0x2
 4655 0a4f 30       		.byte	0x30
 4656 0a50 9F       		.byte	0x9f
 4657 0a51 0C000000 		.4byte	.LVL169
 4658 0a55 16000000 		.4byte	.LVL170
 4659 0a59 0200     		.2byte	0x2
ARM GAS  C:\Users\RD\AppData\Local\Temp\ccQZrPXd.s 			page 110


 4660 0a5b 75       		.byte	0x75
 4661 0a5c 08       		.sleb128 8
 4662 0a5d 16000000 		.4byte	.LVL170
 4663 0a61 32000000 		.4byte	.LVL176
 4664 0a65 0100     		.2byte	0x1
 4665 0a67 54       		.byte	0x54
 4666 0a68 32000000 		.4byte	.LVL176
 4667 0a6c 32000000 		.4byte	.LVL178
 4668 0a70 1E00     		.2byte	0x1e
 4669 0a72 F3       		.byte	0xf3
 4670 0a73 01       		.uleb128 0x1
 4671 0a74 51       		.byte	0x51
 4672 0a75 33       		.byte	0x33
 4673 0a76 24       		.byte	0x24
 4674 0a77 F3       		.byte	0xf3
 4675 0a78 01       		.uleb128 0x1
 4676 0a79 51       		.byte	0x51
 4677 0a7a 1C       		.byte	0x1c
 4678 0a7b 31       		.byte	0x31
 4679 0a7c 24       		.byte	0x24
 4680 0a7d F3       		.byte	0xf3
 4681 0a7e 01       		.uleb128 0x1
 4682 0a7f 50       		.byte	0x50
 4683 0a80 32       		.byte	0x32
 4684 0a81 24       		.byte	0x24
 4685 0a82 F3       		.byte	0xf3
 4686 0a83 01       		.uleb128 0x1
 4687 0a84 50       		.byte	0x50
 4688 0a85 22       		.byte	0x22
 4689 0a86 33       		.byte	0x33
 4690 0a87 24       		.byte	0x24
 4691 0a88 76       		.byte	0x76
 4692 0a89 00       		.sleb128 0
 4693 0a8a 22       		.byte	0x22
 4694 0a8b 23       		.byte	0x23
 4695 0a8c 08       		.uleb128 0x8
 4696 0a8d 06       		.byte	0x6
 4697 0a8e 22       		.byte	0x22
 4698 0a8f 9F       		.byte	0x9f
 4699 0a90 00000000 		.4byte	0
 4700 0a94 00000000 		.4byte	0
 4701              	.LLST65:
 4702 0a98 2A000000 		.4byte	.LVL173
 4703 0a9c 32000000 		.4byte	.LVL177
 4704 0aa0 0100     		.2byte	0x1
 4705 0aa2 55       		.byte	0x55
 4706 0aa3 00000000 		.4byte	0
 4707 0aa7 00000000 		.4byte	0
 4708              	.LLST66:
 4709 0aab 00000000 		.4byte	.LVL179
 4710 0aaf 05000000 		.4byte	.LVL180-1
 4711 0ab3 0100     		.2byte	0x1
 4712 0ab5 50       		.byte	0x50
 4713 0ab6 00000000 		.4byte	0
 4714 0aba 00000000 		.4byte	0
 4715              	.LLST67:
 4716 0abe 00000000 		.4byte	.LVL179
ARM GAS  C:\Users\RD\AppData\Local\Temp\ccQZrPXd.s 			page 111


 4717 0ac2 05000000 		.4byte	.LVL180-1
 4718 0ac6 0100     		.2byte	0x1
 4719 0ac8 51       		.byte	0x51
 4720 0ac9 05000000 		.4byte	.LVL180-1
 4721 0acd 08000000 		.4byte	.LFE16
 4722 0ad1 0400     		.2byte	0x4
 4723 0ad3 F3       		.byte	0xf3
 4724 0ad4 01       		.uleb128 0x1
 4725 0ad5 51       		.byte	0x51
 4726 0ad6 9F       		.byte	0x9f
 4727 0ad7 00000000 		.4byte	0
 4728 0adb 00000000 		.4byte	0
 4729              	.LLST68:
 4730 0adf 00000000 		.4byte	.LVL179
 4731 0ae3 05000000 		.4byte	.LVL180-1
 4732 0ae7 0100     		.2byte	0x1
 4733 0ae9 52       		.byte	0x52
 4734 0aea 05000000 		.4byte	.LVL180-1
 4735 0aee 08000000 		.4byte	.LFE16
 4736 0af2 0400     		.2byte	0x4
 4737 0af4 F3       		.byte	0xf3
 4738 0af5 01       		.uleb128 0x1
 4739 0af6 52       		.byte	0x52
 4740 0af7 9F       		.byte	0x9f
 4741 0af8 00000000 		.4byte	0
 4742 0afc 00000000 		.4byte	0
 4743              	.LLST69:
 4744 0b00 00000000 		.4byte	.LVL181
 4745 0b04 2C000000 		.4byte	.LVL188
 4746 0b08 0100     		.2byte	0x1
 4747 0b0a 50       		.byte	0x50
 4748 0b0b 2C000000 		.4byte	.LVL188
 4749 0b0f 38000000 		.4byte	.LFE15
 4750 0b13 0400     		.2byte	0x4
 4751 0b15 F3       		.byte	0xf3
 4752 0b16 01       		.uleb128 0x1
 4753 0b17 50       		.byte	0x50
 4754 0b18 9F       		.byte	0x9f
 4755 0b19 00000000 		.4byte	0
 4756 0b1d 00000000 		.4byte	0
 4757              	.LLST70:
 4758 0b21 00000000 		.4byte	.LVL181
 4759 0b25 28000000 		.4byte	.LVL186
 4760 0b29 0100     		.2byte	0x1
 4761 0b2b 51       		.byte	0x51
 4762 0b2c 28000000 		.4byte	.LVL186
 4763 0b30 38000000 		.4byte	.LFE15
 4764 0b34 0400     		.2byte	0x4
 4765 0b36 F3       		.byte	0xf3
 4766 0b37 01       		.uleb128 0x1
 4767 0b38 51       		.byte	0x51
 4768 0b39 9F       		.byte	0x9f
 4769 0b3a 00000000 		.4byte	0
 4770 0b3e 00000000 		.4byte	0
 4771              	.LLST71:
 4772 0b42 02000000 		.4byte	.LVL182
 4773 0b46 0C000000 		.4byte	.LVL183
ARM GAS  C:\Users\RD\AppData\Local\Temp\ccQZrPXd.s 			page 112


 4774 0b4a 0200     		.2byte	0x2
 4775 0b4c 30       		.byte	0x30
 4776 0b4d 9F       		.byte	0x9f
 4777 0b4e 0C000000 		.4byte	.LVL183
 4778 0b52 16000000 		.4byte	.LVL184
 4779 0b56 0200     		.2byte	0x2
 4780 0b58 75       		.byte	0x75
 4781 0b59 08       		.sleb128 8
 4782 0b5a 16000000 		.4byte	.LVL184
 4783 0b5e 32000000 		.4byte	.LVL190
 4784 0b62 0100     		.2byte	0x1
 4785 0b64 54       		.byte	0x54
 4786 0b65 32000000 		.4byte	.LVL190
 4787 0b69 32000000 		.4byte	.LVL192
 4788 0b6d 1E00     		.2byte	0x1e
 4789 0b6f F3       		.byte	0xf3
 4790 0b70 01       		.uleb128 0x1
 4791 0b71 51       		.byte	0x51
 4792 0b72 33       		.byte	0x33
 4793 0b73 24       		.byte	0x24
 4794 0b74 F3       		.byte	0xf3
 4795 0b75 01       		.uleb128 0x1
 4796 0b76 51       		.byte	0x51
 4797 0b77 1C       		.byte	0x1c
 4798 0b78 31       		.byte	0x31
 4799 0b79 24       		.byte	0x24
 4800 0b7a F3       		.byte	0xf3
 4801 0b7b 01       		.uleb128 0x1
 4802 0b7c 50       		.byte	0x50
 4803 0b7d 32       		.byte	0x32
 4804 0b7e 24       		.byte	0x24
 4805 0b7f F3       		.byte	0xf3
 4806 0b80 01       		.uleb128 0x1
 4807 0b81 50       		.byte	0x50
 4808 0b82 22       		.byte	0x22
 4809 0b83 33       		.byte	0x33
 4810 0b84 24       		.byte	0x24
 4811 0b85 76       		.byte	0x76
 4812 0b86 00       		.sleb128 0
 4813 0b87 22       		.byte	0x22
 4814 0b88 23       		.byte	0x23
 4815 0b89 08       		.uleb128 0x8
 4816 0b8a 06       		.byte	0x6
 4817 0b8b 22       		.byte	0x22
 4818 0b8c 9F       		.byte	0x9f
 4819 0b8d 00000000 		.4byte	0
 4820 0b91 00000000 		.4byte	0
 4821              	.LLST72:
 4822 0b95 2A000000 		.4byte	.LVL187
 4823 0b99 32000000 		.4byte	.LVL191
 4824 0b9d 0100     		.2byte	0x1
 4825 0b9f 55       		.byte	0x55
 4826 0ba0 00000000 		.4byte	0
 4827 0ba4 00000000 		.4byte	0
 4828              		.section	.debug_aranges,"",%progbits
 4829 0000 AC000000 		.4byte	0xac
 4830 0004 0200     		.2byte	0x2
ARM GAS  C:\Users\RD\AppData\Local\Temp\ccQZrPXd.s 			page 113


 4831 0006 00000000 		.4byte	.Ldebug_info0
 4832 000a 04       		.byte	0x4
 4833 000b 00       		.byte	0
 4834 000c 0000     		.2byte	0
 4835 000e 0000     		.2byte	0
 4836 0010 00000000 		.4byte	.LFB10
 4837 0014 1C000000 		.4byte	.LFE10-.LFB10
 4838 0018 00000000 		.4byte	.LFB9
 4839 001c 1E000000 		.4byte	.LFE9-.LFB9
 4840 0020 00000000 		.4byte	.LFB8
 4841 0024 3C000000 		.4byte	.LFE8-.LFB8
 4842 0028 00000000 		.4byte	.LFB7
 4843 002c 28000000 		.4byte	.LFE7-.LFB7
 4844 0030 00000000 		.4byte	.LFB6
 4845 0034 16000000 		.4byte	.LFE6-.LFB6
 4846 0038 00000000 		.4byte	.LFB13
 4847 003c 1C000000 		.4byte	.LFE13-.LFB13
 4848 0040 00000000 		.4byte	.LFB1
 4849 0044 74000000 		.4byte	.LFE1-.LFB1
 4850 0048 00000000 		.4byte	.LFB11
 4851 004c 38000000 		.4byte	.LFE11-.LFB11
 4852 0050 00000000 		.4byte	.LFB17
 4853 0054 34000000 		.4byte	.LFE17-.LFB17
 4854 0058 00000000 		.4byte	.LFB18
 4855 005c 34000000 		.4byte	.LFE18-.LFB18
 4856 0060 00000000 		.4byte	.LFB19
 4857 0064 14000000 		.4byte	.LFE19-.LFB19
 4858 0068 00000000 		.4byte	.LFB5
 4859 006c 82000000 		.4byte	.LFE5-.LFB5
 4860 0070 00000000 		.4byte	.LFB4
 4861 0074 2C000000 		.4byte	.LFE4-.LFB4
 4862 0078 00000000 		.4byte	.LFB3
 4863 007c 30000000 		.4byte	.LFE3-.LFB3
 4864 0080 00000000 		.4byte	.LFB2
 4865 0084 1C000000 		.4byte	.LFE2-.LFB2
 4866 0088 00000000 		.4byte	.LFB14
 4867 008c 36000000 		.4byte	.LFE14-.LFB14
 4868 0090 00000000 		.4byte	.LFB12
 4869 0094 38000000 		.4byte	.LFE12-.LFB12
 4870 0098 00000000 		.4byte	.LFB16
 4871 009c 08000000 		.4byte	.LFE16-.LFB16
 4872 00a0 00000000 		.4byte	.LFB15
 4873 00a4 38000000 		.4byte	.LFE15-.LFB15
 4874 00a8 00000000 		.4byte	0
 4875 00ac 00000000 		.4byte	0
 4876              		.section	.debug_ranges,"",%progbits
 4877              	.Ldebug_ranges0:
 4878 0000 00000000 		.4byte	.LFB10
 4879 0004 1C000000 		.4byte	.LFE10
 4880 0008 00000000 		.4byte	.LFB9
 4881 000c 1E000000 		.4byte	.LFE9
 4882 0010 00000000 		.4byte	.LFB8
 4883 0014 3C000000 		.4byte	.LFE8
 4884 0018 00000000 		.4byte	.LFB7
 4885 001c 28000000 		.4byte	.LFE7
 4886 0020 00000000 		.4byte	.LFB6
 4887 0024 16000000 		.4byte	.LFE6
ARM GAS  C:\Users\RD\AppData\Local\Temp\ccQZrPXd.s 			page 114


 4888 0028 00000000 		.4byte	.LFB13
 4889 002c 1C000000 		.4byte	.LFE13
 4890 0030 00000000 		.4byte	.LFB1
 4891 0034 74000000 		.4byte	.LFE1
 4892 0038 00000000 		.4byte	.LFB11
 4893 003c 38000000 		.4byte	.LFE11
 4894 0040 00000000 		.4byte	.LFB17
 4895 0044 34000000 		.4byte	.LFE17
 4896 0048 00000000 		.4byte	.LFB18
 4897 004c 34000000 		.4byte	.LFE18
 4898 0050 00000000 		.4byte	.LFB19
 4899 0054 14000000 		.4byte	.LFE19
 4900 0058 00000000 		.4byte	.LFB5
 4901 005c 82000000 		.4byte	.LFE5
 4902 0060 00000000 		.4byte	.LFB4
 4903 0064 2C000000 		.4byte	.LFE4
 4904 0068 00000000 		.4byte	.LFB3
 4905 006c 30000000 		.4byte	.LFE3
 4906 0070 00000000 		.4byte	.LFB2
 4907 0074 1C000000 		.4byte	.LFE2
 4908 0078 00000000 		.4byte	.LFB14
 4909 007c 36000000 		.4byte	.LFE14
 4910 0080 00000000 		.4byte	.LFB12
 4911 0084 38000000 		.4byte	.LFE12
 4912 0088 00000000 		.4byte	.LFB16
 4913 008c 08000000 		.4byte	.LFE16
 4914 0090 00000000 		.4byte	.LFB15
 4915 0094 38000000 		.4byte	.LFE15
 4916 0098 00000000 		.4byte	0
 4917 009c 00000000 		.4byte	0
 4918              		.section	.debug_line,"",%progbits
 4919              	.Ldebug_line0:
 4920 0000 CF020000 		.section	.debug_str,"MS",%progbits,1
 4920      02009C00 
 4920      00000201 
 4920      FB0E0D00 
 4920      01010101 
 4921              	.LASF97:
 4922 0000 7074724E 		.ascii	"ptrNoiseEnvelope\000"
 4922      6F697365 
 4922      456E7665 
 4922      6C6F7065 
 4922      00
 4923              	.LASF32:
 4924 0011 43617053 		.ascii	"CapSense_WD_PROXIMITY_E\000"
 4924      656E7365 
 4924      5F57445F 
 4924      50524F58 
 4924      494D4954 
 4925              	.LASF122:
 4926 0029 474E5520 		.ascii	"GNU C 4.9.3 20150303 (release) [ARM/embedded-4_9-br"
 4926      4320342E 
 4926      392E3320 
 4926      32303135 
 4926      30333033 
 4927 005c 616E6368 		.ascii	"anch revision 221220] -mcpu=cortex-m0plus -mthumb -"
 4927      20726576 
ARM GAS  C:\Users\RD\AppData\Local\Temp\ccQZrPXd.s 			page 115


 4927      6973696F 
 4927      6E203232 
 4927      31323230 
 4928 008f 67202D4F 		.ascii	"g -Og -ffunction-sections -ffat-lto-objects\000"
 4928      67202D66 
 4928      66756E63 
 4928      74696F6E 
 4928      2D736563 
 4929              	.LASF117:
 4930 00bb 43617053 		.ascii	"CapSense_RunIIR\000"
 4930      656E7365 
 4930      5F52756E 
 4930      49495200 
 4931              	.LASF101:
 4932 00cb 696E7075 		.ascii	"input\000"
 4932      7400
 4933              	.LASF34:
 4934 00d1 43617053 		.ascii	"CapSense_UNDEFINED_E\000"
 4934      656E7365 
 4934      5F554E44 
 4934      4546494E 
 4934      45445F45 
 4935              	.LASF8:
 4936 00e6 756E7369 		.ascii	"unsigned int\000"
 4936      676E6564 
 4936      20696E74 
 4936      00
 4937              	.LASF90:
 4938 00f3 73656E73 		.ascii	"sensorsNumber\000"
 4938      6F72734E 
 4938      756D6265 
 4938      7200
 4939              	.LASF84:
 4940 0101 43617053 		.ascii	"CapSense_FtInitializeBaselineChannel\000"
 4940      656E7365 
 4940      5F467449 
 4940      6E697469 
 4940      616C697A 
 4941              	.LASF85:
 4942 0126 43617053 		.ascii	"CapSense_InitializeSensorBaseline\000"
 4942      656E7365 
 4942      5F496E69 
 4942      7469616C 
 4942      697A6553 
 4943              	.LASF92:
 4944 0148 43617053 		.ascii	"CapSense_InitializeIIRInternal\000"
 4944      656E7365 
 4944      5F496E69 
 4944      7469616C 
 4944      697A6549 
 4945              	.LASF31:
 4946 0167 43617053 		.ascii	"CapSense_WD_TOUCHPAD_E\000"
 4946      656E7365 
 4946      5F57445F 
 4946      544F5543 
 4946      48504144 
 4947              	.LASF98:
ARM GAS  C:\Users\RD\AppData\Local\Temp\ccQZrPXd.s 			page 116


 4948 017e 43617053 		.ascii	"CapSense_InitializeIIR\000"
 4948      656E7365 
 4948      5F496E69 
 4948      7469616C 
 4948      697A6549 
 4949              	.LASF87:
 4950 0195 73656E73 		.ascii	"sensorId\000"
 4950      6F724964 
 4950      00
 4951              	.LASF102:
 4952 019e 70726576 		.ascii	"prevOutput\000"
 4952      4F757470 
 4952      757400
 4953              	.LASF106:
 4954 01a9 43617053 		.ascii	"CapSense_FtUpdateBaseline\000"
 4954      656E7365 
 4954      5F467455 
 4954      70646174 
 4954      65426173 
 4955              	.LASF112:
 4956 01c3 43617053 		.ascii	"CapSense_UpdateWidgetBaseline\000"
 4956      656E7365 
 4956      5F557064 
 4956      61746557 
 4956      69646765 
 4957              	.LASF12:
 4958 01e1 666C6F61 		.ascii	"float\000"
 4958      7400
 4959              	.LASF103:
 4960 01e7 73686966 		.ascii	"shift\000"
 4960      7400
 4961              	.LASF115:
 4962 01ed 43617053 		.ascii	"CapSense_RunIIRInternal\000"
 4962      656E7365 
 4962      5F52756E 
 4962      49495249 
 4962      6E746572 
 4963              	.LASF109:
 4964 0205 72657375 		.ascii	"result\000"
 4964      6C7400
 4965              	.LASF7:
 4966 020c 6C6F6E67 		.ascii	"long long unsigned int\000"
 4966      206C6F6E 
 4966      6720756E 
 4966      7369676E 
 4966      65642069 
 4967              	.LASF30:
 4968 0223 43617053 		.ascii	"CapSense_WD_MATRIX_BUTTON_E\000"
 4968      656E7365 
 4968      5F57445F 
 4968      4D415452 
 4968      49585F42 
 4969              	.LASF79:
 4970 023f 70747252 		.ascii	"ptrRegular\000"
 4970      6567756C 
 4970      617200
 4971              	.LASF120:
ARM GAS  C:\Users\RD\AppData\Local\Temp\ccQZrPXd.s 			page 117


 4972 024a 43617053 		.ascii	"CapSense_FtInitializeBaseline\000"
 4972      656E7365 
 4972      5F467449 
 4972      6E697469 
 4972      616C697A 
 4973              	.LASF70:
 4974 0268 70747232 		.ascii	"ptr2NoiseEnvlp\000"
 4974      4E6F6973 
 4974      65456E76 
 4974      6C7000
 4975              	.LASF66:
 4976 0277 77646774 		.ascii	"wdgtType\000"
 4976      54797065 
 4976      00
 4977              	.LASF96:
 4978 0280 70747257 		.ascii	"ptrWidgetRam\000"
 4978      69646765 
 4978      7452616D 
 4978      00
 4979              	.LASF118:
 4980 028d 43617053 		.ascii	"CapSense_FtRunEnabledFiltersInternal\000"
 4980      656E7365 
 4980      5F467452 
 4980      756E456E 
 4980      61626C65 
 4981              	.LASF56:
 4982 02b2 706F7342 		.ascii	"posBslnRstCnt\000"
 4982      736C6E52 
 4982      7374436E 
 4982      7400
 4983              	.LASF80:
 4984 02c0 43617053 		.ascii	"CapSense_PTR_FILTER_VARIANT\000"
 4984      656E7365 
 4984      5F505452 
 4984      5F46494C 
 4984      5445525F 
 4985              	.LASF77:
 4986 02dc 72656775 		.ascii	"regularChannel\000"
 4986      6C617243 
 4986      68616E6E 
 4986      656C00
 4987              	.LASF58:
 4988 02eb 43617053 		.ascii	"CapSense_RAM_SNS_STRUCT\000"
 4988      656E7365 
 4988      5F52414D 
 4988      5F534E53 
 4988      5F535452 
 4989              	.LASF45:
 4990 0303 62736C6E 		.ascii	"bslnCoeff\000"
 4990      436F6566 
 4990      6600
 4991              	.LASF107:
 4992 030d 7369676E 		.ascii	"sign\000"
 4992      00
 4993              	.LASF91:
 4994 0312 43617053 		.ascii	"CapSense_InitializeAllBaselines\000"
 4994      656E7365 
ARM GAS  C:\Users\RD\AppData\Local\Temp\ccQZrPXd.s 			page 118


 4994      5F496E69 
 4994      7469616C 
 4994      697A6541 
 4995              	.LASF104:
 4996 0332 6F757470 		.ascii	"output\000"
 4996      757400
 4997              	.LASF50:
 4998 0339 73696750 		.ascii	"sigPFC\000"
 4998      464300
 4999              	.LASF42:
 5000 0340 68797374 		.ascii	"hysteresis\000"
 5000      65726573 
 5000      697300
 5001              	.LASF29:
 5002 034b 43617053 		.ascii	"CapSense_WD_RADIAL_SLIDER_E\000"
 5002      656E7365 
 5002      5F57445F 
 5002      52414449 
 5002      414C5F53 
 5003              	.LASF72:
 5004 0367 43617053 		.ascii	"CapSense_FLASH_WD_STRUCT\000"
 5004      656E7365 
 5004      5F464C41 
 5004      53485F57 
 5004      445F5354 
 5005              	.LASF44:
 5006 0380 6C6F7742 		.ascii	"lowBslnRst\000"
 5006      736C6E52 
 5006      737400
 5007              	.LASF65:
 5008 038b 746F7461 		.ascii	"totalNumSns\000"
 5008      6C4E756D 
 5008      536E7300 
 5009              	.LASF26:
 5010 0397 534D4152 		.ascii	"SMARTSENSE_CSD_NOISE_ENVELOPE_STRUCT\000"
 5010      5453454E 
 5010      53455F43 
 5010      53445F4E 
 5010      4F495345 
 5011              	.LASF119:
 5012 03bc 43617053 		.ascii	"CapSense_FtRunEnabledFilters\000"
 5012      656E7365 
 5012      5F467452 
 5012      756E456E 
 5012      61626C65 
 5013              	.LASF40:
 5014 03d9 6E6F6973 		.ascii	"noiseTh\000"
 5014      65546800 
 5015              	.LASF14:
 5016 03e1 63686172 		.ascii	"char\000"
 5016      00
 5017              	.LASF81:
 5018 03e6 70747253 		.ascii	"ptrSensor\000"
 5018      656E736F 
 5018      7200
 5019              	.LASF126:
 5020 03f0 536D6172 		.ascii	"SmartSense_RunNoiseEnvelope\000"
ARM GAS  C:\Users\RD\AppData\Local\Temp\ccQZrPXd.s 			page 119


 5020      7453656E 
 5020      73655F52 
 5020      756E4E6F 
 5020      69736545 
 5021              	.LASF10:
 5022 040c 75696E74 		.ascii	"uint16\000"
 5022      313600
 5023              	.LASF38:
 5024 0413 7265736F 		.ascii	"resolution\000"
 5024      6C757469 
 5024      6F6E00
 5025              	.LASF18:
 5026 041e 43617053 		.ascii	"CapSense_LOW_BSLN_RST_TYPE\000"
 5026      656E7365 
 5026      5F4C4F57 
 5026      5F42534C 
 5026      4E5F5253 
 5027              	.LASF57:
 5028 0439 69646163 		.ascii	"idacComp\000"
 5028      436F6D70 
 5028      00
 5029              	.LASF6:
 5030 0442 6C6F6E67 		.ascii	"long long int\000"
 5030      206C6F6E 
 5030      6720696E 
 5030      7400
 5031              	.LASF67:
 5032 0450 6E756D43 		.ascii	"numCols\000"
 5032      6F6C7300 
 5033              	.LASF43:
 5034 0458 6F6E4465 		.ascii	"onDebounce\000"
 5034      626F756E 
 5034      636500
 5035              	.LASF74:
 5036 0463 43617053 		.ascii	"CapSense_FLASH_STRUCT\000"
 5036      656E7365 
 5036      5F464C41 
 5036      53485F53 
 5036      54525543 
 5037              	.LASF111:
 5038 0479 43617053 		.ascii	"CapSense_UpdateSensorBaseline\000"
 5038      656E7365 
 5038      5F557064 
 5038      61746553 
 5038      656E736F 
 5039              	.LASF95:
 5040 0497 43617053 		.ascii	"CapSense_FtInitialize\000"
 5040      656E7365 
 5040      5F467449 
 5040      6E697469 
 5040      616C697A 
 5041              	.LASF41:
 5042 04ad 6E4E6F69 		.ascii	"nNoiseTh\000"
 5042      73655468 
 5042      00
 5043              	.LASF110:
 5044 04b6 68697374 		.ascii	"history\000"
ARM GAS  C:\Users\RD\AppData\Local\Temp\ccQZrPXd.s 			page 120


 5044      6F727900 
 5045              	.LASF51:
 5046 04be 43617053 		.ascii	"CapSense_RAM_WD_BASE_STRUCT\000"
 5046      656E7365 
 5046      5F52414D 
 5046      5F57445F 
 5046      42415345 
 5047              	.LASF33:
 5048 04da 43617053 		.ascii	"CapSense_WD_TYPE_ENUM\000"
 5048      656E7365 
 5048      5F57445F 
 5048      54595045 
 5048      5F454E55 
 5049              	.LASF11:
 5050 04f0 75696E74 		.ascii	"uint32\000"
 5050      333200
 5051              	.LASF113:
 5052 04f7 62736C6E 		.ascii	"bslnStatus\000"
 5052      53746174 
 5052      757300
 5053              	.LASF62:
 5054 0502 70747232 		.ascii	"ptr2FltrHistory\000"
 5054      466C7472 
 5054      48697374 
 5054      6F727900 
 5055              	.LASF28:
 5056 0512 43617053 		.ascii	"CapSense_WD_LINEAR_SLIDER_E\000"
 5056      656E7365 
 5056      5F57445F 
 5056      4C494E45 
 5056      41525F53 
 5057              	.LASF121:
 5058 052e 536D6172 		.ascii	"SmartSense_InitializeNoiseEnvelope\000"
 5058      7453656E 
 5058      73655F49 
 5058      6E697469 
 5058      616C697A 
 5059              	.LASF82:
 5060 0551 77645479 		.ascii	"wdType\000"
 5060      706500
 5061              	.LASF61:
 5062 0558 70747232 		.ascii	"ptr2SnsRam\000"
 5062      536E7352 
 5062      616D00
 5063              	.LASF83:
 5064 0563 6368616E 		.ascii	"channel\000"
 5064      6E656C00 
 5065              	.LASF48:
 5066 056b 736E7343 		.ascii	"snsClkSource\000"
 5066      6C6B536F 
 5066      75726365 
 5066      00
 5067              	.LASF68:
 5068 0578 78526573 		.ascii	"xResolution\000"
 5068      6F6C7574 
 5068      696F6E00 
 5069              	.LASF2:
ARM GAS  C:\Users\RD\AppData\Local\Temp\ccQZrPXd.s 			page 121


 5070 0584 73686F72 		.ascii	"short int\000"
 5070      7420696E 
 5070      7400
 5071              	.LASF78:
 5072 058e 43617053 		.ascii	"CapSense_REGULAR_FLTR_STRUCT\000"
 5072      656E7365 
 5072      5F524547 
 5072      554C4152 
 5072      5F464C54 
 5073              	.LASF4:
 5074 05ab 6C6F6E67 		.ascii	"long int\000"
 5074      20696E74 
 5074      00
 5075              	.LASF54:
 5076 05b4 64696666 		.ascii	"diff\000"
 5076      00
 5077              	.LASF114:
 5078 05b9 43617053 		.ascii	"CapSense_UpdateAllBaselines\000"
 5078      656E7365 
 5078      5F557064 
 5078      61746541 
 5078      6C6C4261 
 5079              	.LASF116:
 5080 05d5 74656D70 		.ascii	"temp\000"
 5080      00
 5081              	.LASF36:
 5082 05da 43617053 		.ascii	"CapSense_SENSE_METHOD_CSX_E\000"
 5082      656E7365 
 5082      5F53454E 
 5082      53455F4D 
 5082      4554484F 
 5083              	.LASF88:
 5084 05f6 70747257 		.ascii	"ptrWidget\000"
 5084      69646765 
 5084      7400
 5085              	.LASF27:
 5086 0600 43617053 		.ascii	"CapSense_WD_BUTTON_E\000"
 5086      656E7365 
 5086      5F57445F 
 5086      42555454 
 5086      4F4E5F45 
 5087              	.LASF76:
 5088 0615 43617053 		.ascii	"CapSense_REGULAR_FLTR_CHANNEL_STRUCT\000"
 5088      656E7365 
 5088      5F524547 
 5088      554C4152 
 5088      5F464C54 
 5089              	.LASF94:
 5090 063a 70747253 		.ascii	"ptrSensorObj\000"
 5090      656E736F 
 5090      724F626A 
 5090      00
 5091              	.LASF125:
 5092 0647 43617053 		.ascii	"CapSense_dsFlash\000"
 5092      656E7365 
 5092      5F647346 
 5092      6C617368 
ARM GAS  C:\Users\RD\AppData\Local\Temp\ccQZrPXd.s 			page 122


 5092      00
 5093              	.LASF49:
 5094 0658 66696E67 		.ascii	"fingerCap\000"
 5094      65724361 
 5094      7000
 5095              	.LASF35:
 5096 0662 43617053 		.ascii	"CapSense_SENSE_METHOD_CSD_E\000"
 5096      656E7365 
 5096      5F53454E 
 5096      53455F4D 
 5096      4554484F 
 5097              	.LASF16:
 5098 067e 73697A65 		.ascii	"sizetype\000"
 5098      74797065 
 5098      00
 5099              	.LASF5:
 5100 0687 6C6F6E67 		.ascii	"long unsigned int\000"
 5100      20756E73 
 5100      69676E65 
 5100      6420696E 
 5100      7400
 5101              	.LASF105:
 5102 0699 43617053 		.ascii	"CapSense_FtIIR1stOrder\000"
 5102      656E7365 
 5102      5F467449 
 5102      49523173 
 5102      744F7264 
 5103              	.LASF46:
 5104 06b0 69646163 		.ascii	"idacMod\000"
 5104      4D6F6400 
 5105              	.LASF63:
 5106 06b8 70747232 		.ascii	"ptr2DebounceArr\000"
 5106      4465626F 
 5106      756E6365 
 5106      41727200 
 5107              	.LASF69:
 5108 06c8 7843656E 		.ascii	"xCentroidMultiplier\000"
 5108      74726F69 
 5108      644D756C 
 5108      7469706C 
 5108      69657200 
 5109              	.LASF39:
 5110 06dc 66696E67 		.ascii	"fingerTh\000"
 5110      65725468 
 5110      00
 5111              	.LASF53:
 5112 06e5 62736C6E 		.ascii	"bslnExt\000"
 5112      45787400 
 5113              	.LASF71:
 5114 06ed 70747232 		.ascii	"ptr2PosHistory\000"
 5114      506F7348 
 5114      6973746F 
 5114      727900
 5115              	.LASF15:
 5116 06fc 63797374 		.ascii	"cystatus\000"
 5116      61747573 
 5116      00
ARM GAS  C:\Users\RD\AppData\Local\Temp\ccQZrPXd.s 			page 123


 5117              	.LASF99:
 5118 0705 43617053 		.ascii	"CapSense_RunNoiseEnvelope\000"
 5118      656E7365 
 5118      5F52756E 
 5118      4E6F6973 
 5118      65456E76 
 5119              	.LASF1:
 5120 071f 756E7369 		.ascii	"unsigned char\000"
 5120      676E6564 
 5120      20636861 
 5120      7200
 5121              	.LASF64:
 5122 072d 73746174 		.ascii	"staticConfig\000"
 5122      6963436F 
 5122      6E666967 
 5122      00
 5123              	.LASF60:
 5124 073a 70747232 		.ascii	"ptr2WdgtRam\000"
 5124      57646774 
 5124      52616D00 
 5125              	.LASF17:
 5126 0746 43617053 		.ascii	"CapSense_THRESHOLD_TYPE\000"
 5126      656E7365 
 5126      5F544852 
 5126      4553484F 
 5126      4C445F54 
 5127              	.LASF75:
 5128 075e 69697248 		.ascii	"iirHistory\000"
 5128      6973746F 
 5128      727900
 5129              	.LASF37:
 5130 0769 43617053 		.ascii	"CapSense_SENSE_METHOD_BIST_E\000"
 5130      656E7365 
 5130      5F53454E 
 5130      53455F4D 
 5130      4554484F 
 5131              	.LASF108:
 5132 0786 64696666 		.ascii	"difference\000"
 5132      6572656E 
 5132      636500
 5133              	.LASF47:
 5134 0791 736E7343 		.ascii	"snsClk\000"
 5134      6C6B00
 5135              	.LASF0:
 5136 0798 7369676E 		.ascii	"signed char\000"
 5136      65642063 
 5136      68617200 
 5137              	.LASF52:
 5138 07a4 62736C6E 		.ascii	"bsln\000"
 5138      00
 5139              	.LASF89:
 5140 07a9 43617053 		.ascii	"CapSense_InitializeWidgetBaseline\000"
 5140      656E7365 
 5140      5F496E69 
 5140      7469616C 
 5140      697A6557 
 5141              	.LASF3:
ARM GAS  C:\Users\RD\AppData\Local\Temp\ccQZrPXd.s 			page 124


 5142 07cb 73686F72 		.ascii	"short unsigned int\000"
 5142      7420756E 
 5142      7369676E 
 5142      65642069 
 5142      6E7400
 5143              	.LASF59:
 5144 07de 70747232 		.ascii	"ptr2SnsFlash\000"
 5144      536E7346 
 5144      6C617368 
 5144      00
 5145              	.LASF9:
 5146 07eb 75696E74 		.ascii	"uint8\000"
 5146      3800
 5147              	.LASF13:
 5148 07f1 646F7562 		.ascii	"double\000"
 5148      6C6500
 5149              	.LASF55:
 5150 07f8 6E656742 		.ascii	"negBslnRstCnt\000"
 5150      736C6E52 
 5150      7374436E 
 5150      7400
 5151              	.LASF19:
 5152 0806 70617261 		.ascii	"param0\000"
 5152      6D3000
 5153              	.LASF20:
 5154 080d 70617261 		.ascii	"param1\000"
 5154      6D3100
 5155              	.LASF21:
 5156 0814 70617261 		.ascii	"param2\000"
 5156      6D3200
 5157              	.LASF22:
 5158 081b 70617261 		.ascii	"param3\000"
 5158      6D3300
 5159              	.LASF23:
 5160 0822 70617261 		.ascii	"param4\000"
 5160      6D3400
 5161              	.LASF24:
 5162 0829 70617261 		.ascii	"param5\000"
 5162      6D3500
 5163              	.LASF25:
 5164 0830 70617261 		.ascii	"param6\000"
 5164      6D3600
 5165              	.LASF93:
 5166 0837 70747246 		.ascii	"ptrFilterHistObj\000"
 5166      696C7465 
 5166      72486973 
 5166      744F626A 
 5166      00
 5167              	.LASF124:
 5168 0848 433A5C55 		.ascii	"C:\\Users\\RD\\Documents\\Data_RD\\FAE Content\\D2\\"
 5168      73657273 
 5168      5C52445C 
 5168      446F6375 
 5168      6D656E74 
 5169 0875 426F7365 		.ascii	"Bose\\Capsene Board 12 2016\\Slider\\Slider.cydsn\000"
 5169      5C436170 
 5169      73656E65 
ARM GAS  C:\Users\RD\AppData\Local\Temp\ccQZrPXd.s 			page 125


 5169      20426F61 
 5169      72642031 
 5170              	.LASF100:
 5171 08a4 43617053 		.ascii	"CapSense_InitializeNoiseEnvelope\000"
 5171      656E7365 
 5171      5F496E69 
 5171      7469616C 
 5171      697A654E 
 5172              	.LASF86:
 5173 08c5 77696467 		.ascii	"widgetId\000"
 5173      65744964 
 5173      00
 5174              	.LASF123:
 5175 08ce 47656E65 		.ascii	"Generated_Source\\PSoC4\\CapSense_Filter.c\000"
 5175      72617465 
 5175      645F536F 
 5175      75726365 
 5175      5C50536F 
 5176              	.LASF73:
 5177 08f7 77646774 		.ascii	"wdgtArray\000"
 5177      41727261 
 5177      7900
 5178              		.ident	"GCC: (GNU Tools for ARM Embedded Processors) 4.9.3 20150303 (release) [ARM/embedded-4_9-br
