ARM GAS  C:\Users\RD\AppData\Local\Temp\ccQZrPXd.s 			page 1


   1              		.cpu cortex-m0plus
   2              		.fpu softvfp
   3              		.eabi_attribute 20, 1
   4              		.eabi_attribute 21, 1
   5              		.eabi_attribute 23, 3
   6              		.eabi_attribute 24, 1
   7              		.eabi_attribute 25, 1
   8              		.eabi_attribute 26, 1
   9              		.eabi_attribute 30, 1
  10              		.eabi_attribute 34, 0
  11              		.eabi_attribute 18, 4
  12              		.code	16
  13              		.file	"CapSense_Filter.c"
  14              		.text
  15              	.Ltext0:
  16              		.cfi_sections	.debug_frame
  17              		.section	.text.CapSense_FtInitializeBaselineChannel,"ax",%progbits
  18              		.align	2
  19              		.global	CapSense_FtInitializeBaselineChannel
  20              		.code	16
  21              		.thumb_func
  22              		.type	CapSense_FtInitializeBaselineChannel, %function
  23              	CapSense_FtInitializeBaselineChannel:
  24              	.LFB10:
  25              		.file 1 "Generated_Source\\PSoC4\\CapSense_Filter.c"
   1:Generated_Source\PSoC4/CapSense_Filter.c **** /***************************************************************************//**
   2:Generated_Source\PSoC4/CapSense_Filter.c **** * \file     CapSense_Filter.c
   3:Generated_Source\PSoC4/CapSense_Filter.c **** * \version  3.10
   4:Generated_Source\PSoC4/CapSense_Filter.c **** *
   5:Generated_Source\PSoC4/CapSense_Filter.c **** * \brief    This file contains the implementation source code to implement all 
   6:Generated_Source\PSoC4/CapSense_Filter.c **** *           firmware filters.
   7:Generated_Source\PSoC4/CapSense_Filter.c **** *
   8:Generated_Source\PSoC4/CapSense_Filter.c **** * \see      CapSense P4 v3.10 Datasheet
   9:Generated_Source\PSoC4/CapSense_Filter.c **** * 
  10:Generated_Source\PSoC4/CapSense_Filter.c **** *//*****************************************************************************
  11:Generated_Source\PSoC4/CapSense_Filter.c **** * Copyright (2016), Cypress Semiconductor Corporation.
  12:Generated_Source\PSoC4/CapSense_Filter.c **** ********************************************************************************
  13:Generated_Source\PSoC4/CapSense_Filter.c **** * This software is owned by Cypress Semiconductor Corporation (Cypress) and is
  14:Generated_Source\PSoC4/CapSense_Filter.c **** * protected by and subject to worldwide patent protection (United States and
  15:Generated_Source\PSoC4/CapSense_Filter.c **** * foreign), United States copyright laws and international treaty provisions.
  16:Generated_Source\PSoC4/CapSense_Filter.c **** * Cypress hereby grants to licensee a personal, non-exclusive, non-transferable
  17:Generated_Source\PSoC4/CapSense_Filter.c **** * license to copy, use, modify, create derivative works of, and compile the
  18:Generated_Source\PSoC4/CapSense_Filter.c **** * Cypress Source Code and derivative works for the sole purpose of creating
  19:Generated_Source\PSoC4/CapSense_Filter.c **** * custom software in support of licensee product to be used only in conjunction
  20:Generated_Source\PSoC4/CapSense_Filter.c **** * with a Cypress integrated circuit as specified in the applicable agreement.
  21:Generated_Source\PSoC4/CapSense_Filter.c **** * Any reproduction, modification, translation, compilation, or representation of
  22:Generated_Source\PSoC4/CapSense_Filter.c **** * this software except as specified above is prohibited without the express
  23:Generated_Source\PSoC4/CapSense_Filter.c **** * written permission of Cypress.
  24:Generated_Source\PSoC4/CapSense_Filter.c **** *
  25:Generated_Source\PSoC4/CapSense_Filter.c **** * Disclaimer: CYPRESS MAKES NO WARRANTY OF ANY KIND, EXPRESS OR IMPLIED, WITH
  26:Generated_Source\PSoC4/CapSense_Filter.c **** * REGARD TO THIS MATERIAL, INCLUDING, BUT NOT LIMITED TO, THE IMPLIED
  27:Generated_Source\PSoC4/CapSense_Filter.c **** * WARRANTIES OF MERCHANTABILITY AND FITNESS FOR A PARTICULAR PURPOSE.
  28:Generated_Source\PSoC4/CapSense_Filter.c **** * Cypress reserves the right to make changes without further notice to the
  29:Generated_Source\PSoC4/CapSense_Filter.c **** * materials described herein. Cypress does not assume any liability arising out
  30:Generated_Source\PSoC4/CapSense_Filter.c **** * of the application or use of any product or circuit described herein. Cypress
  31:Generated_Source\PSoC4/CapSense_Filter.c **** * does not authorize its products for use as critical components in life-support
  32:Generated_Source\PSoC4/CapSense_Filter.c **** * systems where a malfunction or failure may reasonably be expected to result in
ARM GAS  C:\Users\RD\AppData\Local\Temp\ccQZrPXd.s 			page 2


  33:Generated_Source\PSoC4/CapSense_Filter.c **** * significant injury to the user. The inclusion of Cypress' product in a life-
  34:Generated_Source\PSoC4/CapSense_Filter.c **** * support systems application implies that the manufacturer assumes all risk of
  35:Generated_Source\PSoC4/CapSense_Filter.c **** * such use and in doing so indemnifies Cypress against all charges. Use may be
  36:Generated_Source\PSoC4/CapSense_Filter.c **** * limited by and subject to the applicable Cypress software license agreement.
  37:Generated_Source\PSoC4/CapSense_Filter.c **** *******************************************************************************/
  38:Generated_Source\PSoC4/CapSense_Filter.c **** 
  39:Generated_Source\PSoC4/CapSense_Filter.c **** #include "CapSense_Filter.h"
  40:Generated_Source\PSoC4/CapSense_Filter.c **** #include "CapSense_Configuration.h"
  41:Generated_Source\PSoC4/CapSense_Filter.c **** 
  42:Generated_Source\PSoC4/CapSense_Filter.c **** #if (0 != (CapSense_CSD_AUTOTUNE & CapSense_CSD_SS_TH_EN))
  43:Generated_Source\PSoC4/CapSense_Filter.c ****     #include "CapSense_SmartSense_LL.h"
  44:Generated_Source\PSoC4/CapSense_Filter.c **** #endif /* (0 != (CapSense_CSD_AUTOTUNE & CapSense_CSD_SS_TH_EN)) */
  45:Generated_Source\PSoC4/CapSense_Filter.c **** 
  46:Generated_Source\PSoC4/CapSense_Filter.c **** #if (CapSense_ENABLE == CapSense_SELF_TEST_EN)
  47:Generated_Source\PSoC4/CapSense_Filter.c ****     #include "CapSense_SelfTest.h"
  48:Generated_Source\PSoC4/CapSense_Filter.c **** #endif
  49:Generated_Source\PSoC4/CapSense_Filter.c **** 
  50:Generated_Source\PSoC4/CapSense_Filter.c **** /*******************************************************************************
  51:Generated_Source\PSoC4/CapSense_Filter.c **** * Function Name: CapSense_FtInitialize
  52:Generated_Source\PSoC4/CapSense_Filter.c **** ****************************************************************************//**
  53:Generated_Source\PSoC4/CapSense_Filter.c **** *
  54:Generated_Source\PSoC4/CapSense_Filter.c **** * \brief
  55:Generated_Source\PSoC4/CapSense_Filter.c **** *    Initializes all the firmware filter history, except the baseline filter.
  56:Generated_Source\PSoC4/CapSense_Filter.c **** *
  57:Generated_Source\PSoC4/CapSense_Filter.c **** * \details
  58:Generated_Source\PSoC4/CapSense_Filter.c **** *    Initializes all the firmware filter history, except the baseline filter.
  59:Generated_Source\PSoC4/CapSense_Filter.c **** *
  60:Generated_Source\PSoC4/CapSense_Filter.c **** *******************************************************************************/
  61:Generated_Source\PSoC4/CapSense_Filter.c **** void CapSense_FtInitialize(void)
  62:Generated_Source\PSoC4/CapSense_Filter.c **** {
  63:Generated_Source\PSoC4/CapSense_Filter.c ****     uint32 widgetId;
  64:Generated_Source\PSoC4/CapSense_Filter.c ****     uint32 sensorId;
  65:Generated_Source\PSoC4/CapSense_Filter.c ****     uint32 sensorsNumber;
  66:Generated_Source\PSoC4/CapSense_Filter.c **** 
  67:Generated_Source\PSoC4/CapSense_Filter.c ****     CapSense_FLASH_WD_STRUCT const *ptrWidget;
  68:Generated_Source\PSoC4/CapSense_Filter.c ****     CapSense_RAM_SNS_STRUCT *ptrSensor = NULL;
  69:Generated_Source\PSoC4/CapSense_Filter.c ****     CapSense_PTR_FILTER_VARIANT ptrFilterHistObj;
  70:Generated_Source\PSoC4/CapSense_Filter.c ****     
  71:Generated_Source\PSoC4/CapSense_Filter.c ****     #if CapSense_CSD_AUTOTUNE & CapSense_CSD_SS_TH_EN
  72:Generated_Source\PSoC4/CapSense_Filter.c ****         CapSense_RAM_WD_BASE_STRUCT *ptrWidgetRam;
  73:Generated_Source\PSoC4/CapSense_Filter.c ****         SMARTSENSE_CSD_NOISE_ENVELOPE_STRUCT *ptrNoiseEnvelope = NULL;
  74:Generated_Source\PSoC4/CapSense_Filter.c ****     #endif /* #if CapSense_CSD_AUTOTUNE & CapSense_CSD_SS_TH_EN */
  75:Generated_Source\PSoC4/CapSense_Filter.c ****     
  76:Generated_Source\PSoC4/CapSense_Filter.c ****     for (widgetId = CapSense_TOTAL_WIDGETS; widgetId-- > 0u;)
  77:Generated_Source\PSoC4/CapSense_Filter.c ****     {
  78:Generated_Source\PSoC4/CapSense_Filter.c ****         ptrWidget = &CapSense_dsFlash.wdgtArray[widgetId];
  79:Generated_Source\PSoC4/CapSense_Filter.c ****         
  80:Generated_Source\PSoC4/CapSense_Filter.c ****         #if CapSense_CSD_AUTOTUNE & CapSense_CSD_SS_TH_EN
  81:Generated_Source\PSoC4/CapSense_Filter.c ****             ptrWidgetRam = ptrWidget->ptr2WdgtRam;
  82:Generated_Source\PSoC4/CapSense_Filter.c ****         #endif /* #if CapSense_CSD_AUTOTUNE & CapSense_CSD_SS_TH_EN */
  83:Generated_Source\PSoC4/CapSense_Filter.c **** 
  84:Generated_Source\PSoC4/CapSense_Filter.c ****         /* Find total amount of sensors in specified widget */   
  85:Generated_Source\PSoC4/CapSense_Filter.c ****         sensorsNumber = CapSense_GET_SNS_CNT_BY_PTR(ptrWidget);    
  86:Generated_Source\PSoC4/CapSense_Filter.c ****     
  87:Generated_Source\PSoC4/CapSense_Filter.c ****         for (sensorId = sensorsNumber; sensorId-- > 0u;) 
  88:Generated_Source\PSoC4/CapSense_Filter.c ****         {
  89:Generated_Source\PSoC4/CapSense_Filter.c ****             /* Find pointer to specified sensor object */
ARM GAS  C:\Users\RD\AppData\Local\Temp\ccQZrPXd.s 			page 3


  90:Generated_Source\PSoC4/CapSense_Filter.c ****             ptrSensor = ptrWidget->ptr2SnsRam;
  91:Generated_Source\PSoC4/CapSense_Filter.c ****             ptrSensor = &ptrSensor[sensorId];
  92:Generated_Source\PSoC4/CapSense_Filter.c ****                         
  93:Generated_Source\PSoC4/CapSense_Filter.c ****             /* Find pointer to to specified filter sensor object */
  94:Generated_Source\PSoC4/CapSense_Filter.c ****             ptrFilterHistObj.ptr = ptrWidget->ptr2FltrHistory;
  95:Generated_Source\PSoC4/CapSense_Filter.c **** 
  96:Generated_Source\PSoC4/CapSense_Filter.c ****             #if CapSense_CSD_AUTOTUNE & CapSense_CSD_SS_TH_EN
  97:Generated_Source\PSoC4/CapSense_Filter.c ****                 /* Find pointer to specified noise envelope sensor object */
  98:Generated_Source\PSoC4/CapSense_Filter.c ****                 ptrNoiseEnvelope = ptrWidget->ptr2NoiseEnvlp;
  99:Generated_Source\PSoC4/CapSense_Filter.c ****                 ptrNoiseEnvelope = &ptrNoiseEnvelope[sensorId];    
 100:Generated_Source\PSoC4/CapSense_Filter.c ****             #endif /* #if CapSense_CSD_AUTOTUNE & CapSense_CSD_SS_TH_EN */
 101:Generated_Source\PSoC4/CapSense_Filter.c ****             
 102:Generated_Source\PSoC4/CapSense_Filter.c ****             if ((CapSense_WD_TYPE_ENUM)ptrWidget->wdgtType != CapSense_WD_PROXIMITY_E)
 103:Generated_Source\PSoC4/CapSense_Filter.c ****             {
 104:Generated_Source\PSoC4/CapSense_Filter.c ****                 #if (CapSense_REGULAR_SENSOR_EN)             
 105:Generated_Source\PSoC4/CapSense_Filter.c ****                     ptrFilterHistObj.ptrRegular = &ptrFilterHistObj.ptrRegular[sensorId];
 106:Generated_Source\PSoC4/CapSense_Filter.c ****                 #endif /* (CapSense_REGULAR_SENSOR_EN) */
 107:Generated_Source\PSoC4/CapSense_Filter.c ****             }
 108:Generated_Source\PSoC4/CapSense_Filter.c ****             else
 109:Generated_Source\PSoC4/CapSense_Filter.c ****             {
 110:Generated_Source\PSoC4/CapSense_Filter.c ****                 #if (CapSense_PROXIMITY_SENSOR_EN)             
 111:Generated_Source\PSoC4/CapSense_Filter.c ****                     ptrFilterHistObj.ptrProx = &ptrFilterHistObj.ptrProx[sensorId];
 112:Generated_Source\PSoC4/CapSense_Filter.c ****                 #endif /* (CapSense_PROXIMITY_SENSOR_EN) */
 113:Generated_Source\PSoC4/CapSense_Filter.c ****             }
 114:Generated_Source\PSoC4/CapSense_Filter.c ****             
 115:Generated_Source\PSoC4/CapSense_Filter.c ****             #if (CapSense_REGULAR_RC_IIR_FILTER_EN || CapSense_PROX_RC_IIR_FILTER_EN)
 116:Generated_Source\PSoC4/CapSense_Filter.c ****                 CapSense_InitializeIIRInternal(ptrFilterHistObj, ptrSensor, (uint32)ptrWidget->wdgt
 117:Generated_Source\PSoC4/CapSense_Filter.c ****             #endif /* (CapSense_REGULAR_RC_IIR_FILTER_EN || CapSense_PROX_RC_IIR_FILTER_EN) */     
 118:Generated_Source\PSoC4/CapSense_Filter.c **** 
 119:Generated_Source\PSoC4/CapSense_Filter.c ****             #if (CapSense_REGULAR_RC_MEDIAN_FILTER_EN || CapSense_PROX_RC_MEDIAN_FILTER_EN)
 120:Generated_Source\PSoC4/CapSense_Filter.c ****                 CapSense_InitializeMedianInternal(ptrFilterHistObj, ptrSensor, (uint32)ptrWidget->w
 121:Generated_Source\PSoC4/CapSense_Filter.c ****             #endif /* (CapSense_REGULAR_RC_MEDIAN_FILTER_EN || CapSense_PROX_RC_MEDIAN_FILTER_EN) *
 122:Generated_Source\PSoC4/CapSense_Filter.c **** 
 123:Generated_Source\PSoC4/CapSense_Filter.c ****             #if (CapSense_REGULAR_RC_AVERAGE_FILTER_EN || CapSense_PROX_RC_AVERAGE_FILTER_EN)
 124:Generated_Source\PSoC4/CapSense_Filter.c ****                 CapSense_InitializeAverageInternal(ptrFilterHistObj, ptrSensor, (uint32)ptrWidget->
 125:Generated_Source\PSoC4/CapSense_Filter.c ****             #endif /* (CapSense_REGULAR_RC_AVERAGE_FILTER_EN || CapSense_PROX_RC_AVERAGE_FILTER_EN)
 126:Generated_Source\PSoC4/CapSense_Filter.c ****             
 127:Generated_Source\PSoC4/CapSense_Filter.c ****             #if (CapSense_CSD_AUTOTUNE & CapSense_CSD_SS_TH_EN)
 128:Generated_Source\PSoC4/CapSense_Filter.c ****                 if (CapSense_SENSE_METHOD_CSD_E ==
 129:Generated_Source\PSoC4/CapSense_Filter.c ****                     CapSense_GET_SENSE_METHOD(&CapSense_dsFlash.wdgtArray[widgetId]))
 130:Generated_Source\PSoC4/CapSense_Filter.c ****                 {
 131:Generated_Source\PSoC4/CapSense_Filter.c ****                     SmartSense_InitializeNoiseEnvelope(ptrSensor->raw[0u], ptrWidgetRam->sigPFC, pt
 132:Generated_Source\PSoC4/CapSense_Filter.c ****                 }
 133:Generated_Source\PSoC4/CapSense_Filter.c ****             #endif /* #if CapSense_CSD_AUTOTUNE & CapSense_CSD_SS_TH_EN */
 134:Generated_Source\PSoC4/CapSense_Filter.c ****         }
 135:Generated_Source\PSoC4/CapSense_Filter.c ****     }   
 136:Generated_Source\PSoC4/CapSense_Filter.c **** }
 137:Generated_Source\PSoC4/CapSense_Filter.c **** 
 138:Generated_Source\PSoC4/CapSense_Filter.c **** 
 139:Generated_Source\PSoC4/CapSense_Filter.c **** /*******************************************************************************
 140:Generated_Source\PSoC4/CapSense_Filter.c **** * Function Name: CapSense_UpdateAllBaselines
 141:Generated_Source\PSoC4/CapSense_Filter.c **** ****************************************************************************//**
 142:Generated_Source\PSoC4/CapSense_Filter.c **** *
 143:Generated_Source\PSoC4/CapSense_Filter.c **** * \brief    
 144:Generated_Source\PSoC4/CapSense_Filter.c **** *  Updates the baseline for all sensors in all widgets.
 145:Generated_Source\PSoC4/CapSense_Filter.c **** *
 146:Generated_Source\PSoC4/CapSense_Filter.c **** * \details
ARM GAS  C:\Users\RD\AppData\Local\Temp\ccQZrPXd.s 			page 4


 147:Generated_Source\PSoC4/CapSense_Filter.c **** *  Updates the baseline for all sensors in all widgets. Baseline updating is a 
 148:Generated_Source\PSoC4/CapSense_Filter.c **** *  part of data processing performed by the process functions. So, no need to 
 149:Generated_Source\PSoC4/CapSense_Filter.c **** *  call this function except a specific process flow is implemented.
 150:Generated_Source\PSoC4/CapSense_Filter.c **** *  
 151:Generated_Source\PSoC4/CapSense_Filter.c **** *  This function ignores the value of the wdgtEnable register. Multiple calling 
 152:Generated_Source\PSoC4/CapSense_Filter.c **** *  of this function (or any other function with a baseline updating task) 
 153:Generated_Source\PSoC4/CapSense_Filter.c **** *  without scanning leads to unexpected behavior.
 154:Generated_Source\PSoC4/CapSense_Filter.c **** *
 155:Generated_Source\PSoC4/CapSense_Filter.c **** *  If Self-test library is enabled this function executes baseline duplication
 156:Generated_Source\PSoC4/CapSense_Filter.c **** *  test. Refer to CapSense_CheckBaselineDuplication() for details.
 157:Generated_Source\PSoC4/CapSense_Filter.c **** *
 158:Generated_Source\PSoC4/CapSense_Filter.c **** * \return   
 159:Generated_Source\PSoC4/CapSense_Filter.c **** *  Returns the status of the update baseline operation of all widgets:
 160:Generated_Source\PSoC4/CapSense_Filter.c **** *  - CYRET_SUCCESS if operation was successfully completed
 161:Generated_Source\PSoC4/CapSense_Filter.c **** *  - CYRET_BAD_DATA if baseline processing failed
 162:Generated_Source\PSoC4/CapSense_Filter.c **** *
 163:Generated_Source\PSoC4/CapSense_Filter.c **** *******************************************************************************/
 164:Generated_Source\PSoC4/CapSense_Filter.c **** cystatus CapSense_UpdateAllBaselines(void)
 165:Generated_Source\PSoC4/CapSense_Filter.c **** {
 166:Generated_Source\PSoC4/CapSense_Filter.c ****     uint32 widgetId; 
 167:Generated_Source\PSoC4/CapSense_Filter.c ****     cystatus bslnStatus = CYRET_SUCCESS;
 168:Generated_Source\PSoC4/CapSense_Filter.c ****     
 169:Generated_Source\PSoC4/CapSense_Filter.c ****     for(widgetId = CapSense_TOTAL_WIDGETS; widgetId-- > 0u;)
 170:Generated_Source\PSoC4/CapSense_Filter.c ****     {            
 171:Generated_Source\PSoC4/CapSense_Filter.c ****         bslnStatus |= CapSense_UpdateWidgetBaseline(widgetId);       
 172:Generated_Source\PSoC4/CapSense_Filter.c ****     }      
 173:Generated_Source\PSoC4/CapSense_Filter.c ****     
 174:Generated_Source\PSoC4/CapSense_Filter.c ****     return(bslnStatus);
 175:Generated_Source\PSoC4/CapSense_Filter.c **** }
 176:Generated_Source\PSoC4/CapSense_Filter.c ****   
 177:Generated_Source\PSoC4/CapSense_Filter.c **** 
 178:Generated_Source\PSoC4/CapSense_Filter.c **** /*******************************************************************************
 179:Generated_Source\PSoC4/CapSense_Filter.c **** * Function Name: CapSense_UpdateWidgetBaseline
 180:Generated_Source\PSoC4/CapSense_Filter.c **** ****************************************************************************//**
 181:Generated_Source\PSoC4/CapSense_Filter.c **** *
 182:Generated_Source\PSoC4/CapSense_Filter.c **** * \brief    
 183:Generated_Source\PSoC4/CapSense_Filter.c **** *  Updates the baseline for all sensors in a widget specified by input parameter.
 184:Generated_Source\PSoC4/CapSense_Filter.c **** *
 185:Generated_Source\PSoC4/CapSense_Filter.c **** * \details  
 186:Generated_Source\PSoC4/CapSense_Filter.c **** *  This function performs exactly the same tasks as 
 187:Generated_Source\PSoC4/CapSense_Filter.c **** *  CapSense_UpdateAllBaselines(), but only for a specified widget.
 188:Generated_Source\PSoC4/CapSense_Filter.c **** *  
 189:Generated_Source\PSoC4/CapSense_Filter.c **** *  This function ignores the value of the wdgtEnable register. Multiple calling
 190:Generated_Source\PSoC4/CapSense_Filter.c **** *  of this function (or any other function with a baseline updating task) 
 191:Generated_Source\PSoC4/CapSense_Filter.c **** *  without scanning leads to unexpected behavior.
 192:Generated_Source\PSoC4/CapSense_Filter.c **** *
 193:Generated_Source\PSoC4/CapSense_Filter.c **** *  If Self-test library is enabled this function executes baseline duplication
 194:Generated_Source\PSoC4/CapSense_Filter.c **** *  test. Refer to CapSense_CheckBaselineDuplication() for details.
 195:Generated_Source\PSoC4/CapSense_Filter.c **** *
 196:Generated_Source\PSoC4/CapSense_Filter.c **** * \param widgetId 
 197:Generated_Source\PSoC4/CapSense_Filter.c **** *  Specify the ID number of the widget to update the baseline of all sensors
 198:Generated_Source\PSoC4/CapSense_Filter.c **** *  in the widget.
 199:Generated_Source\PSoC4/CapSense_Filter.c **** *  A macro for the widget ID can be found in the 
 200:Generated_Source\PSoC4/CapSense_Filter.c **** *  CapSense Configuration header file defined as 
 201:Generated_Source\PSoC4/CapSense_Filter.c **** *  CapSense_<WidgetName>_WDGT_ID.
 202:Generated_Source\PSoC4/CapSense_Filter.c **** *
 203:Generated_Source\PSoC4/CapSense_Filter.c **** * \return   
ARM GAS  C:\Users\RD\AppData\Local\Temp\ccQZrPXd.s 			page 5


 204:Generated_Source\PSoC4/CapSense_Filter.c **** *  Returns the status of the specified widget update baseline operation:
 205:Generated_Source\PSoC4/CapSense_Filter.c **** *  - CYRET_SUCCESS if operation was successfully completed
 206:Generated_Source\PSoC4/CapSense_Filter.c **** *  - CYRET_BAD_DATA if baseline processing failed
 207:Generated_Source\PSoC4/CapSense_Filter.c **** *
 208:Generated_Source\PSoC4/CapSense_Filter.c **** *******************************************************************************/
 209:Generated_Source\PSoC4/CapSense_Filter.c **** cystatus CapSense_UpdateWidgetBaseline(uint32 widgetId)
 210:Generated_Source\PSoC4/CapSense_Filter.c **** {
 211:Generated_Source\PSoC4/CapSense_Filter.c ****     uint32 sensorId;       
 212:Generated_Source\PSoC4/CapSense_Filter.c ****     uint32 sensorsNumber;  
 213:Generated_Source\PSoC4/CapSense_Filter.c **** 
 214:Generated_Source\PSoC4/CapSense_Filter.c ****     CapSense_FLASH_WD_STRUCT const *ptrWidget = &CapSense_dsFlash.wdgtArray[widgetId];    
 215:Generated_Source\PSoC4/CapSense_Filter.c ****     cystatus bslnStatus = CYRET_SUCCESS;    
 216:Generated_Source\PSoC4/CapSense_Filter.c ****     
 217:Generated_Source\PSoC4/CapSense_Filter.c ****     /* Find total amount of sensors in specified widget */   
 218:Generated_Source\PSoC4/CapSense_Filter.c ****     sensorsNumber = CapSense_GET_SNS_CNT_BY_PTR(ptrWidget);    
 219:Generated_Source\PSoC4/CapSense_Filter.c ****     
 220:Generated_Source\PSoC4/CapSense_Filter.c ****     for(sensorId = sensorsNumber; sensorId-- > 0u;)
 221:Generated_Source\PSoC4/CapSense_Filter.c ****     {
 222:Generated_Source\PSoC4/CapSense_Filter.c ****         bslnStatus |= CapSense_UpdateSensorBaseline(widgetId, sensorId);    
 223:Generated_Source\PSoC4/CapSense_Filter.c ****     }
 224:Generated_Source\PSoC4/CapSense_Filter.c **** 
 225:Generated_Source\PSoC4/CapSense_Filter.c ****     return(bslnStatus);
 226:Generated_Source\PSoC4/CapSense_Filter.c **** }
 227:Generated_Source\PSoC4/CapSense_Filter.c **** 
 228:Generated_Source\PSoC4/CapSense_Filter.c **** 
 229:Generated_Source\PSoC4/CapSense_Filter.c **** /*******************************************************************************
 230:Generated_Source\PSoC4/CapSense_Filter.c **** * Function Name: CapSense_UpdateSensorBaseline
 231:Generated_Source\PSoC4/CapSense_Filter.c **** ****************************************************************************//**
 232:Generated_Source\PSoC4/CapSense_Filter.c **** *
 233:Generated_Source\PSoC4/CapSense_Filter.c **** * \brief    
 234:Generated_Source\PSoC4/CapSense_Filter.c **** *  Updates the baseline for a sensor in a widget specified by input parameters.
 235:Generated_Source\PSoC4/CapSense_Filter.c **** *
 236:Generated_Source\PSoC4/CapSense_Filter.c **** * \details  
 237:Generated_Source\PSoC4/CapSense_Filter.c **** *  This function performs exactly the same tasks as
 238:Generated_Source\PSoC4/CapSense_Filter.c **** *  CapSense_UpdateAllBaselines() and 
 239:Generated_Source\PSoC4/CapSense_Filter.c **** *  CapSense_UpdateWidgetBaseline() but only for a specified sensor.
 240:Generated_Source\PSoC4/CapSense_Filter.c **** *  
 241:Generated_Source\PSoC4/CapSense_Filter.c **** *  This function ignores the value of the wdgtEnable register. Multiple calling 
 242:Generated_Source\PSoC4/CapSense_Filter.c **** *  of this function (or any other function with a baseline updating task) 
 243:Generated_Source\PSoC4/CapSense_Filter.c **** *  without scanning leads to unexpected behavior.
 244:Generated_Source\PSoC4/CapSense_Filter.c **** *
 245:Generated_Source\PSoC4/CapSense_Filter.c **** *  If Self-test library is enabled this function executes baseline duplication
 246:Generated_Source\PSoC4/CapSense_Filter.c **** *  test. Refer to CapSense_CheckBaselineDuplication() for details.
 247:Generated_Source\PSoC4/CapSense_Filter.c **** *
 248:Generated_Source\PSoC4/CapSense_Filter.c **** * \param   widgetId 
 249:Generated_Source\PSoC4/CapSense_Filter.c **** *  Specify the ID number of the widget to update the baseline of the sensor 
 250:Generated_Source\PSoC4/CapSense_Filter.c **** *  specified by the sensorId argument.
 251:Generated_Source\PSoC4/CapSense_Filter.c **** *  A macro for the widget ID can be found in the CapSense Configuration header 
 252:Generated_Source\PSoC4/CapSense_Filter.c **** *  file defined as CapSense_<WidgetName>_WDGT_ID. 
 253:Generated_Source\PSoC4/CapSense_Filter.c **** *
 254:Generated_Source\PSoC4/CapSense_Filter.c **** * \param   sensorId 
 255:Generated_Source\PSoC4/CapSense_Filter.c **** *  Specify the ID number of the sensor within the widget to update its baseline.
 256:Generated_Source\PSoC4/CapSense_Filter.c **** *  A macro for the sensor ID within a specified widget can be found in the 
 257:Generated_Source\PSoC4/CapSense_Filter.c **** *  CapSense Configuration header file defined as 
 258:Generated_Source\PSoC4/CapSense_Filter.c **** *  CapSense_<WidgetName>_SNS<SensorNumber>_ID
 259:Generated_Source\PSoC4/CapSense_Filter.c **** *
 260:Generated_Source\PSoC4/CapSense_Filter.c **** * \return   
ARM GAS  C:\Users\RD\AppData\Local\Temp\ccQZrPXd.s 			page 6


 261:Generated_Source\PSoC4/CapSense_Filter.c **** *  Returns the status of the specified sensor update baseline operation:
 262:Generated_Source\PSoC4/CapSense_Filter.c **** *  - CYRET_SUCCESS if operation was successfully completed
 263:Generated_Source\PSoC4/CapSense_Filter.c **** *  - CYRET_BAD_DATA if baseline processing failed
 264:Generated_Source\PSoC4/CapSense_Filter.c **** *
 265:Generated_Source\PSoC4/CapSense_Filter.c **** *******************************************************************************/
 266:Generated_Source\PSoC4/CapSense_Filter.c **** cystatus CapSense_UpdateSensorBaseline(uint32 widgetId, uint32 sensorId)
 267:Generated_Source\PSoC4/CapSense_Filter.c **** {    
 268:Generated_Source\PSoC4/CapSense_Filter.c ****     uint32 result = CYRET_SUCCESS;
 269:Generated_Source\PSoC4/CapSense_Filter.c ****     
 270:Generated_Source\PSoC4/CapSense_Filter.c ****     CapSense_RAM_SNS_STRUCT *ptrSensor = NULL;    
 271:Generated_Source\PSoC4/CapSense_Filter.c ****     CapSense_FLASH_WD_STRUCT const *ptrWidget = &CapSense_dsFlash.wdgtArray[widgetId];    
 272:Generated_Source\PSoC4/CapSense_Filter.c ****     CapSense_RAM_WD_BASE_STRUCT *ptrWidgetRam = ptrWidget->ptr2WdgtRam;   
 273:Generated_Source\PSoC4/CapSense_Filter.c **** 
 274:Generated_Source\PSoC4/CapSense_Filter.c ****     /* Find pointer to specified sensor object */     
 275:Generated_Source\PSoC4/CapSense_Filter.c ****     ptrSensor = ptrWidget->ptr2SnsRam;
 276:Generated_Source\PSoC4/CapSense_Filter.c ****     ptrSensor = &ptrSensor[sensorId];
 277:Generated_Source\PSoC4/CapSense_Filter.c ****     result = CapSense_FtUpdateBaseline(ptrWidgetRam, ptrSensor, (uint32)ptrWidget->wdgtType);
 278:Generated_Source\PSoC4/CapSense_Filter.c ****     
 279:Generated_Source\PSoC4/CapSense_Filter.c ****     #if (CapSense_ENABLE == CapSense_TST_BSLN_DUPLICATION_EN)
 280:Generated_Source\PSoC4/CapSense_Filter.c ****         if (CYRET_SUCCESS != result)
 281:Generated_Source\PSoC4/CapSense_Filter.c ****         {
 282:Generated_Source\PSoC4/CapSense_Filter.c ****             result = CYRET_BAD_DATA;
 283:Generated_Source\PSoC4/CapSense_Filter.c ****             CapSense_UpdateTestResultBaselineDuplication(widgetId, sensorId);           
 284:Generated_Source\PSoC4/CapSense_Filter.c ****         }
 285:Generated_Source\PSoC4/CapSense_Filter.c ****     #endif /* (CapSense_ENABLE == CapSense_TST_BSLN_DUPLICATION_EN) */
 286:Generated_Source\PSoC4/CapSense_Filter.c **** 
 287:Generated_Source\PSoC4/CapSense_Filter.c ****     return result;
 288:Generated_Source\PSoC4/CapSense_Filter.c **** }
 289:Generated_Source\PSoC4/CapSense_Filter.c **** 
 290:Generated_Source\PSoC4/CapSense_Filter.c **** /*******************************************************************************
 291:Generated_Source\PSoC4/CapSense_Filter.c **** * Function Name: CapSense_FtUpdateBaseline
 292:Generated_Source\PSoC4/CapSense_Filter.c **** ****************************************************************************//**
 293:Generated_Source\PSoC4/CapSense_Filter.c **** *
 294:Generated_Source\PSoC4/CapSense_Filter.c **** * \brief
 295:Generated_Source\PSoC4/CapSense_Filter.c **** *  Updates the baseline for a sensor specified by an input parameter.
 296:Generated_Source\PSoC4/CapSense_Filter.c **** *
 297:Generated_Source\PSoC4/CapSense_Filter.c **** * \details
 298:Generated_Source\PSoC4/CapSense_Filter.c **** *  Check a matching of present baseline and its inverse duplication. If they 
 299:Generated_Source\PSoC4/CapSense_Filter.c **** *  match then updates the baseline for a sensor specified by an input parameter.  
 300:Generated_Source\PSoC4/CapSense_Filter.c **** *  If don't match the function return CapSense_TST_BSLN_DUPLICATION
 301:Generated_Source\PSoC4/CapSense_Filter.c **** *  result and don't update baseline.
 302:Generated_Source\PSoC4/CapSense_Filter.c **** *
 303:Generated_Source\PSoC4/CapSense_Filter.c **** * \param    ptrWidgetRam
 304:Generated_Source\PSoC4/CapSense_Filter.c **** *  The pointer to the widget RAM structure where all the widget parameters
 305:Generated_Source\PSoC4/CapSense_Filter.c **** *  are stored.
 306:Generated_Source\PSoC4/CapSense_Filter.c **** *
 307:Generated_Source\PSoC4/CapSense_Filter.c **** * \param    ptrSensor
 308:Generated_Source\PSoC4/CapSense_Filter.c **** *  The pointer to the sensor RAM structure where all the sensor parameters
 309:Generated_Source\PSoC4/CapSense_Filter.c **** *  are stored.
 310:Generated_Source\PSoC4/CapSense_Filter.c **** *
 311:Generated_Source\PSoC4/CapSense_Filter.c **** * \param    wdType
 312:Generated_Source\PSoC4/CapSense_Filter.c **** *  Specifies the type of a widget.
 313:Generated_Source\PSoC4/CapSense_Filter.c **** *
 314:Generated_Source\PSoC4/CapSense_Filter.c **** * \return   
 315:Generated_Source\PSoC4/CapSense_Filter.c **** *  Returns a status indicating whether the baseline has been updated:
 316:Generated_Source\PSoC4/CapSense_Filter.c **** *  - CYRET_SUCCESS if baseline updating was successful;
 317:Generated_Source\PSoC4/CapSense_Filter.c **** *  - CapSense_PROCESS_BASELINE_FAILED if present sensor's any channel
ARM GAS  C:\Users\RD\AppData\Local\Temp\ccQZrPXd.s 			page 7


 318:Generated_Source\PSoC4/CapSense_Filter.c **** *    baseline and its inversion doesn't matched
 319:Generated_Source\PSoC4/CapSense_Filter.c **** *
 320:Generated_Source\PSoC4/CapSense_Filter.c **** *******************************************************************************/
 321:Generated_Source\PSoC4/CapSense_Filter.c **** uint32 CapSense_FtUpdateBaseline(
 322:Generated_Source\PSoC4/CapSense_Filter.c ****                                 CapSense_RAM_WD_BASE_STRUCT *ptrWidgetRam,
 323:Generated_Source\PSoC4/CapSense_Filter.c ****                                 CapSense_RAM_SNS_STRUCT *ptrSensor, 
 324:Generated_Source\PSoC4/CapSense_Filter.c ****                                 uint32 wdType)
 325:Generated_Source\PSoC4/CapSense_Filter.c **** {         
 326:Generated_Source\PSoC4/CapSense_Filter.c ****     uint32 sign;
 327:Generated_Source\PSoC4/CapSense_Filter.c ****     uint32 difference;        
 328:Generated_Source\PSoC4/CapSense_Filter.c ****     uint32 channel;
 329:Generated_Source\PSoC4/CapSense_Filter.c ****     uint32 result = CYRET_SUCCESS;
 330:Generated_Source\PSoC4/CapSense_Filter.c ****     
 331:Generated_Source\PSoC4/CapSense_Filter.c ****     #if (CapSense_TOTAL_WIDGETS)  
 332:Generated_Source\PSoC4/CapSense_Filter.c ****         uint32 history;
 333:Generated_Source\PSoC4/CapSense_Filter.c ****     #endif /* (CapSense_TOTAL_WIDGETS) */    
 334:Generated_Source\PSoC4/CapSense_Filter.c ****     
 335:Generated_Source\PSoC4/CapSense_Filter.c ****     /* Apply baseline to every channel in sensor */
 336:Generated_Source\PSoC4/CapSense_Filter.c ****     for(channel = CapSense_NUM_SCAN_FREQS; channel-- > 0u;) 
 337:Generated_Source\PSoC4/CapSense_Filter.c ****     {               
 338:Generated_Source\PSoC4/CapSense_Filter.c ****         #if (CapSense_ENABLE == CapSense_TST_BSLN_DUPLICATION_EN)
 339:Generated_Source\PSoC4/CapSense_Filter.c ****             if (ptrSensor->bslnInv[channel] != ((uint16) ~(ptrSensor->bsln[channel])))
 340:Generated_Source\PSoC4/CapSense_Filter.c ****             {
 341:Generated_Source\PSoC4/CapSense_Filter.c ****                 result = CapSense_PROCESS_BASELINE_FAILED;
 342:Generated_Source\PSoC4/CapSense_Filter.c ****             }
 343:Generated_Source\PSoC4/CapSense_Filter.c ****             else
 344:Generated_Source\PSoC4/CapSense_Filter.c ****             {
 345:Generated_Source\PSoC4/CapSense_Filter.c ****         #endif /* (CapSense_ENABLE == CapSense_TST_BSLN_DUPLICATION_EN) */
 346:Generated_Source\PSoC4/CapSense_Filter.c **** 
 347:Generated_Source\PSoC4/CapSense_Filter.c ****         /* Calculate signal value and its sign */
 348:Generated_Source\PSoC4/CapSense_Filter.c ****         if(ptrSensor->raw[channel] >= ptrSensor->bsln[channel])
 349:Generated_Source\PSoC4/CapSense_Filter.c ****         {
 350:Generated_Source\PSoC4/CapSense_Filter.c ****             difference = (uint32)ptrSensor->raw[channel] - (uint32)ptrSensor->bsln[channel];
 351:Generated_Source\PSoC4/CapSense_Filter.c ****             sign = 1u;
 352:Generated_Source\PSoC4/CapSense_Filter.c ****             ptrSensor->negBslnRstCnt[channel] = 0u;
 353:Generated_Source\PSoC4/CapSense_Filter.c ****         }
 354:Generated_Source\PSoC4/CapSense_Filter.c ****         else
 355:Generated_Source\PSoC4/CapSense_Filter.c ****         {
 356:Generated_Source\PSoC4/CapSense_Filter.c ****             difference = (uint32)ptrSensor->bsln[channel] - (uint32)ptrSensor->raw[channel];
 357:Generated_Source\PSoC4/CapSense_Filter.c ****             sign = 0u;
 358:Generated_Source\PSoC4/CapSense_Filter.c ****         }     
 359:Generated_Source\PSoC4/CapSense_Filter.c ****         
 360:Generated_Source\PSoC4/CapSense_Filter.c ****         /* Reset baseline if condition is met */ 
 361:Generated_Source\PSoC4/CapSense_Filter.c ****         if((sign == 0u) && (difference > (uint32) ptrWidgetRam->nNoiseTh))
 362:Generated_Source\PSoC4/CapSense_Filter.c ****         {
 363:Generated_Source\PSoC4/CapSense_Filter.c ****             if(ptrSensor->negBslnRstCnt[channel] >= ptrWidgetRam->lowBslnRst)
 364:Generated_Source\PSoC4/CapSense_Filter.c ****             {                
 365:Generated_Source\PSoC4/CapSense_Filter.c ****                 CapSense_FtInitializeBaselineChannel(ptrSensor, wdType, channel);             
 366:Generated_Source\PSoC4/CapSense_Filter.c ****             }
 367:Generated_Source\PSoC4/CapSense_Filter.c ****             else
 368:Generated_Source\PSoC4/CapSense_Filter.c ****             {
 369:Generated_Source\PSoC4/CapSense_Filter.c ****                 ptrSensor->negBslnRstCnt[channel]++;
 370:Generated_Source\PSoC4/CapSense_Filter.c ****             }
 371:Generated_Source\PSoC4/CapSense_Filter.c ****         }
 372:Generated_Source\PSoC4/CapSense_Filter.c ****         else
 373:Generated_Source\PSoC4/CapSense_Filter.c ****         {
 374:Generated_Source\PSoC4/CapSense_Filter.c ****             #if (!CapSense_SENSOR_AUTO_RESET_EN)
ARM GAS  C:\Users\RD\AppData\Local\Temp\ccQZrPXd.s 			page 8


 375:Generated_Source\PSoC4/CapSense_Filter.c ****                 /* Update baseline only if signal is in range between noiseThreshold and negativeno
 376:Generated_Source\PSoC4/CapSense_Filter.c ****                 if ((difference <= (uint32)ptrWidgetRam->noiseTh) ||
 377:Generated_Source\PSoC4/CapSense_Filter.c ****                     ((difference < (uint32) ptrWidgetRam->nNoiseTh) && (sign == 0u)))
 378:Generated_Source\PSoC4/CapSense_Filter.c ****                 {
 379:Generated_Source\PSoC4/CapSense_Filter.c ****             #endif /* (CapSense_CSD_AUTO_RESET == CapSense_CSD_AUTO_RESET_DISABLE) */
 380:Generated_Source\PSoC4/CapSense_Filter.c ****             
 381:Generated_Source\PSoC4/CapSense_Filter.c ****             #if (CapSense_BASELINE_TYPE == CapSense_IIR_BASELINE)  
 382:Generated_Source\PSoC4/CapSense_Filter.c ****                 /* Calculate baseline value */
 383:Generated_Source\PSoC4/CapSense_Filter.c ****                 if ((CapSense_WD_TYPE_ENUM)wdType != CapSense_WD_PROXIMITY_E)
 384:Generated_Source\PSoC4/CapSense_Filter.c ****                 {
 385:Generated_Source\PSoC4/CapSense_Filter.c ****                     #if (CapSense_REGULAR_SENSOR_EN) 
 386:Generated_Source\PSoC4/CapSense_Filter.c ****                         #if (CapSense_REGULAR_IIR_BL_TYPE == CapSense_IIR_FILTER_PERFORMANCE)      
 387:Generated_Source\PSoC4/CapSense_Filter.c ****                             history = (uint32) ptrSensor->bsln[channel] << 8u; 
 388:Generated_Source\PSoC4/CapSense_Filter.c ****                             history |= ptrSensor->bslnExt[channel];
 389:Generated_Source\PSoC4/CapSense_Filter.c ****                         #else
 390:Generated_Source\PSoC4/CapSense_Filter.c ****                             history = ptrSensor->bsln[channel];                                    
 391:Generated_Source\PSoC4/CapSense_Filter.c ****                         #endif /* (CapSense_REGULAR_IIR_BL_TYPE == CapSense_IIR_FILTER_PERFORMANCE)
 392:Generated_Source\PSoC4/CapSense_Filter.c ****                     
 393:Generated_Source\PSoC4/CapSense_Filter.c ****                         history =  CapSense_FtIIR1stOrder(
 394:Generated_Source\PSoC4/CapSense_Filter.c ****                                         (uint32)ptrSensor->raw[channel],
 395:Generated_Source\PSoC4/CapSense_Filter.c ****                                         history, 
 396:Generated_Source\PSoC4/CapSense_Filter.c ****                                         CapSense_REGULAR_IIR_BL_N, 
 397:Generated_Source\PSoC4/CapSense_Filter.c ****                                         CapSense_REGULAR_IIR_BL_SHIFT);
 398:Generated_Source\PSoC4/CapSense_Filter.c ****                                                    
 399:Generated_Source\PSoC4/CapSense_Filter.c ****                         #if (CapSense_REGULAR_IIR_BL_TYPE == CapSense_IIR_FILTER_PERFORMANCE)      
 400:Generated_Source\PSoC4/CapSense_Filter.c ****                             ptrSensor->bsln[channel] = LO16(history >> 8u);
 401:Generated_Source\PSoC4/CapSense_Filter.c ****                             ptrSensor->bslnExt[channel] = LO8(history);
 402:Generated_Source\PSoC4/CapSense_Filter.c ****                         #else
 403:Generated_Source\PSoC4/CapSense_Filter.c ****                             ptrSensor->bsln[channel] = LO16(history);
 404:Generated_Source\PSoC4/CapSense_Filter.c ****                         #endif /* (CapSense_REGULAR_IIR_BL_TYPE == CapSense_IIR_FILTER_PERFORMANCE)
 405:Generated_Source\PSoC4/CapSense_Filter.c ****                     #endif /* (CapSense_REGULAR_SENSOR_EN) */
 406:Generated_Source\PSoC4/CapSense_Filter.c ****                 }
 407:Generated_Source\PSoC4/CapSense_Filter.c ****                 else 
 408:Generated_Source\PSoC4/CapSense_Filter.c ****                 {
 409:Generated_Source\PSoC4/CapSense_Filter.c ****                     #if (CapSense_PROXIMITY_SENSOR_EN)     
 410:Generated_Source\PSoC4/CapSense_Filter.c ****                         #if (CapSense_PROX_IIR_BL_TYPE == CapSense_IIR_FILTER_PERFORMANCE)         
 411:Generated_Source\PSoC4/CapSense_Filter.c ****                             history = (uint32) ptrSensor->bsln[channel] << 8u; 
 412:Generated_Source\PSoC4/CapSense_Filter.c ****                             history |= ptrSensor->bslnExt[channel];
 413:Generated_Source\PSoC4/CapSense_Filter.c ****                         #else
 414:Generated_Source\PSoC4/CapSense_Filter.c ****                             history = (uint32) ptrSensor->bsln[channel];                           
 415:Generated_Source\PSoC4/CapSense_Filter.c ****                         #endif /* (CapSense_PROX_IIR_BL_TYPE == CapSense_IIR_FILTER_PERFORMANCE) */
 416:Generated_Source\PSoC4/CapSense_Filter.c ****                         
 417:Generated_Source\PSoC4/CapSense_Filter.c ****                         history = CapSense_FtIIR1stOrder((uint32)ptrSensor->raw[channel], history, 
 418:Generated_Source\PSoC4/CapSense_Filter.c ****                         
 419:Generated_Source\PSoC4/CapSense_Filter.c ****                         #if (CapSense_PROX_IIR_BL_TYPE == CapSense_IIR_FILTER_PERFORMANCE)         
 420:Generated_Source\PSoC4/CapSense_Filter.c ****                             ptrSensor->bsln[channel] = LO16(history >> 8u);
 421:Generated_Source\PSoC4/CapSense_Filter.c ****                             ptrSensor->bslnExt[channel] = LO8(history);
 422:Generated_Source\PSoC4/CapSense_Filter.c ****                         #else
 423:Generated_Source\PSoC4/CapSense_Filter.c ****                             ptrSensor->bsln[channel] = LO16(history);
 424:Generated_Source\PSoC4/CapSense_Filter.c ****                         #endif /* (CapSense_PROX_IIR_BL_TYPE == CapSense_IIR_FILTER_PERFORMANCE) */
 425:Generated_Source\PSoC4/CapSense_Filter.c ****                     #endif /* (CapSense_PROX_SENSOR_EN)   */
 426:Generated_Source\PSoC4/CapSense_Filter.c ****                 }
 427:Generated_Source\PSoC4/CapSense_Filter.c ****             #else /* (CapSense_CSD_BASELINE_TYPE == CapSense_IIR_BASELINE)  */
 428:Generated_Source\PSoC4/CapSense_Filter.c ****                 
 429:Generated_Source\PSoC4/CapSense_Filter.c ****                 /******************************************************************
 430:Generated_Source\PSoC4/CapSense_Filter.c ****                 * This is the place where the bucket algorithm should be implemented.
 431:Generated_Source\PSoC4/CapSense_Filter.c ****                 * The bucket method will be implemented in future component version.
ARM GAS  C:\Users\RD\AppData\Local\Temp\ccQZrPXd.s 			page 9


 432:Generated_Source\PSoC4/CapSense_Filter.c ****                 *******************************************************************/
 433:Generated_Source\PSoC4/CapSense_Filter.c ****                 
 434:Generated_Source\PSoC4/CapSense_Filter.c ****             #endif /* (CapSense_CSD_BASELINE_TYPE == CapSense_IIR_BASELINE)  */
 435:Generated_Source\PSoC4/CapSense_Filter.c ****                     
 436:Generated_Source\PSoC4/CapSense_Filter.c ****             #if (!CapSense_SENSOR_AUTO_RESET_EN)
 437:Generated_Source\PSoC4/CapSense_Filter.c ****                 }
 438:Generated_Source\PSoC4/CapSense_Filter.c ****             #endif /* (!CapSense_SENSOR_AUTO_RESET_EN) */
 439:Generated_Source\PSoC4/CapSense_Filter.c ****         }
 440:Generated_Source\PSoC4/CapSense_Filter.c ****                 
 441:Generated_Source\PSoC4/CapSense_Filter.c ****         #if (CapSense_ENABLE == CapSense_TST_BSLN_DUPLICATION_EN)
 442:Generated_Source\PSoC4/CapSense_Filter.c ****             /* Update baseline inversion of every channel in sensor */    
 443:Generated_Source\PSoC4/CapSense_Filter.c ****             ptrSensor->bslnInv[channel] = ~(ptrSensor->bsln[channel]);
 444:Generated_Source\PSoC4/CapSense_Filter.c ****             }
 445:Generated_Source\PSoC4/CapSense_Filter.c ****         #endif /* (CapSense_ENABLE == CapSense_TST_BSLN_DUPLICATION_EN) */
 446:Generated_Source\PSoC4/CapSense_Filter.c **** 
 447:Generated_Source\PSoC4/CapSense_Filter.c ****     }
 448:Generated_Source\PSoC4/CapSense_Filter.c ****     return result;    
 449:Generated_Source\PSoC4/CapSense_Filter.c **** }
 450:Generated_Source\PSoC4/CapSense_Filter.c **** 
 451:Generated_Source\PSoC4/CapSense_Filter.c **** 
 452:Generated_Source\PSoC4/CapSense_Filter.c **** /*******************************************************************************
 453:Generated_Source\PSoC4/CapSense_Filter.c **** * Function Name: CapSense_InitializeAllBaselines
 454:Generated_Source\PSoC4/CapSense_Filter.c **** ****************************************************************************//**
 455:Generated_Source\PSoC4/CapSense_Filter.c **** *
 456:Generated_Source\PSoC4/CapSense_Filter.c **** * \brief    
 457:Generated_Source\PSoC4/CapSense_Filter.c **** *  Initializes (or re-initialize) the baseline of all sensors of all widgets.
 458:Generated_Source\PSoC4/CapSense_Filter.c **** *
 459:Generated_Source\PSoC4/CapSense_Filter.c **** * \details  
 460:Generated_Source\PSoC4/CapSense_Filter.c **** *  Initializes the baseline for all sensors of all widgets. Also, this function
 461:Generated_Source\PSoC4/CapSense_Filter.c **** *  can be used to re-initialize baselines. CapSense_Start() calls this 
 462:Generated_Source\PSoC4/CapSense_Filter.c **** *  API as part of CapSense operation initialization.
 463:Generated_Source\PSoC4/CapSense_Filter.c **** *
 464:Generated_Source\PSoC4/CapSense_Filter.c **** *******************************************************************************/
 465:Generated_Source\PSoC4/CapSense_Filter.c **** void CapSense_InitializeAllBaselines(void)
 466:Generated_Source\PSoC4/CapSense_Filter.c **** {
 467:Generated_Source\PSoC4/CapSense_Filter.c ****     uint32 widgetId;    
 468:Generated_Source\PSoC4/CapSense_Filter.c ****     
 469:Generated_Source\PSoC4/CapSense_Filter.c ****     for(widgetId = CapSense_TOTAL_WIDGETS; widgetId-- > 0u;)
 470:Generated_Source\PSoC4/CapSense_Filter.c ****     {
 471:Generated_Source\PSoC4/CapSense_Filter.c ****         CapSense_InitializeWidgetBaseline(widgetId); 
 472:Generated_Source\PSoC4/CapSense_Filter.c ****     }
 473:Generated_Source\PSoC4/CapSense_Filter.c **** }
 474:Generated_Source\PSoC4/CapSense_Filter.c **** 
 475:Generated_Source\PSoC4/CapSense_Filter.c **** 
 476:Generated_Source\PSoC4/CapSense_Filter.c **** /*******************************************************************************
 477:Generated_Source\PSoC4/CapSense_Filter.c **** * Function Name: CapSense_InitializeWidgetBaseline
 478:Generated_Source\PSoC4/CapSense_Filter.c **** ****************************************************************************//**
 479:Generated_Source\PSoC4/CapSense_Filter.c **** *
 480:Generated_Source\PSoC4/CapSense_Filter.c **** * \brief    
 481:Generated_Source\PSoC4/CapSense_Filter.c **** *  Initializes (or re-initialize) the baseline of all sensors in a widget 
 482:Generated_Source\PSoC4/CapSense_Filter.c **** *  specified by input parameter. 
 483:Generated_Source\PSoC4/CapSense_Filter.c **** *
 484:Generated_Source\PSoC4/CapSense_Filter.c **** * \details  
 485:Generated_Source\PSoC4/CapSense_Filter.c **** *  Initializes (or re-initializes) the baseline for all sensors of the 
 486:Generated_Source\PSoC4/CapSense_Filter.c **** *  specified widget.
 487:Generated_Source\PSoC4/CapSense_Filter.c **** *
 488:Generated_Source\PSoC4/CapSense_Filter.c **** * \param  widgetId 
ARM GAS  C:\Users\RD\AppData\Local\Temp\ccQZrPXd.s 			page 10


 489:Generated_Source\PSoC4/CapSense_Filter.c **** *  Specify the ID number of a widget to initialize the baseline of all sensors
 490:Generated_Source\PSoC4/CapSense_Filter.c **** *  in the widget. 
 491:Generated_Source\PSoC4/CapSense_Filter.c **** *  A macro for the widget ID can be found in the 
 492:Generated_Source\PSoC4/CapSense_Filter.c **** *  CapSense Configuration header file defined as 
 493:Generated_Source\PSoC4/CapSense_Filter.c **** *  CapSense_<WidgetName>_WDGT_ID.
 494:Generated_Source\PSoC4/CapSense_Filter.c **** *
 495:Generated_Source\PSoC4/CapSense_Filter.c **** *******************************************************************************/
 496:Generated_Source\PSoC4/CapSense_Filter.c **** void CapSense_InitializeWidgetBaseline(uint32 widgetId)
 497:Generated_Source\PSoC4/CapSense_Filter.c **** {   
 498:Generated_Source\PSoC4/CapSense_Filter.c ****     uint32 sensorId;
 499:Generated_Source\PSoC4/CapSense_Filter.c ****     uint32 sensorsNumber;
 500:Generated_Source\PSoC4/CapSense_Filter.c ****   
 501:Generated_Source\PSoC4/CapSense_Filter.c ****     CapSense_FLASH_WD_STRUCT const *ptrWidget = &CapSense_dsFlash.wdgtArray[widgetId];
 502:Generated_Source\PSoC4/CapSense_Filter.c **** 
 503:Generated_Source\PSoC4/CapSense_Filter.c ****     /* Find total amount of sensors in specified widget */   
 504:Generated_Source\PSoC4/CapSense_Filter.c ****     sensorsNumber = CapSense_GET_SNS_CNT_BY_PTR(ptrWidget);    
 505:Generated_Source\PSoC4/CapSense_Filter.c ****     
 506:Generated_Source\PSoC4/CapSense_Filter.c ****     for(sensorId = sensorsNumber; sensorId-- > 0u;)
 507:Generated_Source\PSoC4/CapSense_Filter.c ****     {
 508:Generated_Source\PSoC4/CapSense_Filter.c ****         CapSense_InitializeSensorBaseline(widgetId, sensorId);   
 509:Generated_Source\PSoC4/CapSense_Filter.c ****     }
 510:Generated_Source\PSoC4/CapSense_Filter.c **** }
 511:Generated_Source\PSoC4/CapSense_Filter.c **** 
 512:Generated_Source\PSoC4/CapSense_Filter.c **** 
 513:Generated_Source\PSoC4/CapSense_Filter.c **** /*******************************************************************************
 514:Generated_Source\PSoC4/CapSense_Filter.c **** * Function Name: CapSense_InitializeSensorBaseline
 515:Generated_Source\PSoC4/CapSense_Filter.c **** ****************************************************************************//**
 516:Generated_Source\PSoC4/CapSense_Filter.c **** *
 517:Generated_Source\PSoC4/CapSense_Filter.c **** * \brief
 518:Generated_Source\PSoC4/CapSense_Filter.c **** *  Initializes (or re-initialize) the baseline of a sensor in a widget specified
 519:Generated_Source\PSoC4/CapSense_Filter.c **** *  by input parameters.
 520:Generated_Source\PSoC4/CapSense_Filter.c **** *
 521:Generated_Source\PSoC4/CapSense_Filter.c **** * \details  
 522:Generated_Source\PSoC4/CapSense_Filter.c **** *  Initializes (or re-initializes) the baseline for a specified sensor within
 523:Generated_Source\PSoC4/CapSense_Filter.c **** *  a specified widget.
 524:Generated_Source\PSoC4/CapSense_Filter.c **** *
 525:Generated_Source\PSoC4/CapSense_Filter.c **** * \param    widgetId 
 526:Generated_Source\PSoC4/CapSense_Filter.c **** *  Specify the ID number of a widget to initialize the baseline of all sensors
 527:Generated_Source\PSoC4/CapSense_Filter.c **** *  in the widget.
 528:Generated_Source\PSoC4/CapSense_Filter.c **** *  A macro for the widget ID can be found in the 
 529:Generated_Source\PSoC4/CapSense_Filter.c **** *  CapSense Configuration header file defined as 
 530:Generated_Source\PSoC4/CapSense_Filter.c **** *  CapSense_<WidgetName>_WDGT_ID.
 531:Generated_Source\PSoC4/CapSense_Filter.c **** *  
 532:Generated_Source\PSoC4/CapSense_Filter.c **** * \param    sensorId 
 533:Generated_Source\PSoC4/CapSense_Filter.c **** *  Specify the ID number of the sensor within the widget to initialize its 
 534:Generated_Source\PSoC4/CapSense_Filter.c **** *  baseline.
 535:Generated_Source\PSoC4/CapSense_Filter.c **** *  A macro for the sensor ID within a specified widget can be found in the 
 536:Generated_Source\PSoC4/CapSense_Filter.c **** *  CapSense Configuration header file defined as 
 537:Generated_Source\PSoC4/CapSense_Filter.c **** *  CapSense_<WidgetName>_SNS<SensorNumber>_ID
 538:Generated_Source\PSoC4/CapSense_Filter.c **** *
 539:Generated_Source\PSoC4/CapSense_Filter.c **** *******************************************************************************/
 540:Generated_Source\PSoC4/CapSense_Filter.c **** void CapSense_InitializeSensorBaseline(uint32 widgetId, uint32 sensorId)
 541:Generated_Source\PSoC4/CapSense_Filter.c **** {      
 542:Generated_Source\PSoC4/CapSense_Filter.c ****     CapSense_RAM_SNS_STRUCT *ptrSensor = NULL;    
 543:Generated_Source\PSoC4/CapSense_Filter.c ****     CapSense_FLASH_WD_STRUCT const *ptrWidget = NULL;
 544:Generated_Source\PSoC4/CapSense_Filter.c ****     ptrWidget = &CapSense_dsFlash.wdgtArray[widgetId];
 545:Generated_Source\PSoC4/CapSense_Filter.c **** 
ARM GAS  C:\Users\RD\AppData\Local\Temp\ccQZrPXd.s 			page 11


 546:Generated_Source\PSoC4/CapSense_Filter.c ****     /* Find pointer to specified sensor object */     
 547:Generated_Source\PSoC4/CapSense_Filter.c ****     ptrSensor = ptrWidget->ptr2SnsRam;
 548:Generated_Source\PSoC4/CapSense_Filter.c ****     ptrSensor = &ptrSensor[sensorId];
 549:Generated_Source\PSoC4/CapSense_Filter.c **** 
 550:Generated_Source\PSoC4/CapSense_Filter.c ****     CapSense_FtInitializeBaseline(ptrSensor, (uint32)ptrWidget->wdgtType);
 551:Generated_Source\PSoC4/CapSense_Filter.c **** }
 552:Generated_Source\PSoC4/CapSense_Filter.c **** 
 553:Generated_Source\PSoC4/CapSense_Filter.c **** 
 554:Generated_Source\PSoC4/CapSense_Filter.c **** /*******************************************************************************
 555:Generated_Source\PSoC4/CapSense_Filter.c **** * Function Name: CapSense_FtInitializeBaseline
 556:Generated_Source\PSoC4/CapSense_Filter.c **** ****************************************************************************//**
 557:Generated_Source\PSoC4/CapSense_Filter.c **** *
 558:Generated_Source\PSoC4/CapSense_Filter.c **** * \brief    Initializes the baseline history for a sensor indicated by an input
 559:Generated_Source\PSoC4/CapSense_Filter.c **** *           parameter.
 560:Generated_Source\PSoC4/CapSense_Filter.c **** *
 561:Generated_Source\PSoC4/CapSense_Filter.c **** * \details  Initializes the baseline history for a sensor indicated by an input
 562:Generated_Source\PSoC4/CapSense_Filter.c **** *           parameter.
 563:Generated_Source\PSoC4/CapSense_Filter.c **** *
 564:Generated_Source\PSoC4/CapSense_Filter.c **** * \param    *ptrSensor The pointer to the sensor RAM object.
 565:Generated_Source\PSoC4/CapSense_Filter.c **** * \param    wdType     Specifies the type of a widget.
 566:Generated_Source\PSoC4/CapSense_Filter.c **** *
 567:Generated_Source\PSoC4/CapSense_Filter.c **** *******************************************************************************/
 568:Generated_Source\PSoC4/CapSense_Filter.c **** CY_INLINE void CapSense_FtInitializeBaseline(CapSense_RAM_SNS_STRUCT *ptrSensor, uint32 wdType) 
 569:Generated_Source\PSoC4/CapSense_Filter.c **** {
 570:Generated_Source\PSoC4/CapSense_Filter.c ****     uint32 channel;
 571:Generated_Source\PSoC4/CapSense_Filter.c **** 
 572:Generated_Source\PSoC4/CapSense_Filter.c ****     /* Apply baseline initialization to every channel in sensor */    
 573:Generated_Source\PSoC4/CapSense_Filter.c ****     for(channel = CapSense_NUM_SCAN_FREQS; channel-- > 0u;) 
 574:Generated_Source\PSoC4/CapSense_Filter.c ****     {
 575:Generated_Source\PSoC4/CapSense_Filter.c ****         CapSense_FtInitializeBaselineChannel(ptrSensor, wdType, channel); 
 576:Generated_Source\PSoC4/CapSense_Filter.c ****     }
 577:Generated_Source\PSoC4/CapSense_Filter.c **** }
 578:Generated_Source\PSoC4/CapSense_Filter.c **** 
 579:Generated_Source\PSoC4/CapSense_Filter.c **** 
 580:Generated_Source\PSoC4/CapSense_Filter.c **** /*******************************************************************************
 581:Generated_Source\PSoC4/CapSense_Filter.c **** * Function Name: CapSense_FtInitializeBaselineChannel
 582:Generated_Source\PSoC4/CapSense_Filter.c **** ****************************************************************************//**
 583:Generated_Source\PSoC4/CapSense_Filter.c **** *
 584:Generated_Source\PSoC4/CapSense_Filter.c **** * \brief    Initializes the baseline history for a sensor indicated by an input
 585:Generated_Source\PSoC4/CapSense_Filter.c **** *           parameter.
 586:Generated_Source\PSoC4/CapSense_Filter.c **** *
 587:Generated_Source\PSoC4/CapSense_Filter.c **** * \details  Initializes the baseline history for a sensor indicated by an input
 588:Generated_Source\PSoC4/CapSense_Filter.c **** *           parameter.
 589:Generated_Source\PSoC4/CapSense_Filter.c **** *
 590:Generated_Source\PSoC4/CapSense_Filter.c **** * \param    *ptrSensor The pointer to the sensor RAM object.
 591:Generated_Source\PSoC4/CapSense_Filter.c **** * \param    wdType     Specifies the type of a widget.
 592:Generated_Source\PSoC4/CapSense_Filter.c **** * \param    channel    Specifies the number of the channel to be initialized.
 593:Generated_Source\PSoC4/CapSense_Filter.c **** *
 594:Generated_Source\PSoC4/CapSense_Filter.c **** *******************************************************************************/
 595:Generated_Source\PSoC4/CapSense_Filter.c **** void CapSense_FtInitializeBaselineChannel(CapSense_RAM_SNS_STRUCT *ptrSensor, uint32 wdType, uint32
 596:Generated_Source\PSoC4/CapSense_Filter.c **** {
  26              		.loc 1 596 0
  27              		.cfi_startproc
  28              	.LVL0:
 597:Generated_Source\PSoC4/CapSense_Filter.c ****     #if (CapSense_BASELINE_TYPE == CapSense_IIR_BASELINE)  
 598:Generated_Source\PSoC4/CapSense_Filter.c ****         if ((CapSense_WD_TYPE_ENUM)wdType != CapSense_WD_PROXIMITY_E)
  29              		.loc 1 598 0
ARM GAS  C:\Users\RD\AppData\Local\Temp\ccQZrPXd.s 			page 12


  30 0000 C9B2     		uxtb	r1, r1
  31              	.LVL1:
  32 0002 0629     		cmp	r1, #6
  33 0004 02D0     		beq	.L2
 599:Generated_Source\PSoC4/CapSense_Filter.c ****         {
 600:Generated_Source\PSoC4/CapSense_Filter.c ****             #if (CapSense_REGULAR_SENSOR_EN)
 601:Generated_Source\PSoC4/CapSense_Filter.c ****                 #if (CapSense_REGULAR_IIR_BL_TYPE == CapSense_IIR_FILTER_PERFORMANCE)              
 602:Generated_Source\PSoC4/CapSense_Filter.c ****                     ptrSensor->bslnExt[channel] = 0u;                
  34              		.loc 1 602 0
  35 0006 8318     		add	r3, r0, r2
  36 0008 0021     		mov	r1, #0
  37 000a 1971     		strb	r1, [r3, #4]
  38              	.L2:
 603:Generated_Source\PSoC4/CapSense_Filter.c ****                 #endif /* (CapSense_REGULAR_IIR_BL_TYPE == CapSense_IIR_FILTER_PERFORMANCE) */
 604:Generated_Source\PSoC4/CapSense_Filter.c ****             #endif /* (CapSense_REGULAR_SENSOR_EN) */
 605:Generated_Source\PSoC4/CapSense_Filter.c ****         }
 606:Generated_Source\PSoC4/CapSense_Filter.c ****         else
 607:Generated_Source\PSoC4/CapSense_Filter.c ****         {
 608:Generated_Source\PSoC4/CapSense_Filter.c ****             #if (CapSense_PROXIMITY_SENSOR_EN)     
 609:Generated_Source\PSoC4/CapSense_Filter.c ****                 #if (CapSense_PROX_IIR_BL_TYPE == CapSense_IIR_FILTER_PERFORMANCE)                 
 610:Generated_Source\PSoC4/CapSense_Filter.c ****                     ptrSensor->bslnExt[channel] = 0u;               
 611:Generated_Source\PSoC4/CapSense_Filter.c ****                 #endif /* (CapSense_PROX_IIR_BL_TYPE == CapSense_IIR_FILTER_PERFORMANCE) */
 612:Generated_Source\PSoC4/CapSense_Filter.c ****             #endif /* (CapSense_PROX_SENSOR_EN) */
 613:Generated_Source\PSoC4/CapSense_Filter.c ****         }
 614:Generated_Source\PSoC4/CapSense_Filter.c ****     #else
 615:Generated_Source\PSoC4/CapSense_Filter.c ****         /* CapSense_BASELINE_TYPE == CapSense_BUCKET_BASELINE */        
 616:Generated_Source\PSoC4/CapSense_Filter.c ****         ptrSensor->bslnExt[channel] = 0u;        
 617:Generated_Source\PSoC4/CapSense_Filter.c ****     #endif /* (CapSense_BASELINE_TYPE == CapSense_IIR_BASELINE) */      
 618:Generated_Source\PSoC4/CapSense_Filter.c ****     
 619:Generated_Source\PSoC4/CapSense_Filter.c ****     ptrSensor->bsln[channel] = ptrSensor->raw[channel]; 
  39              		.loc 1 619 0
  40 000c 5300     		lsl	r3, r2, #1
  41 000e 195A     		ldrh	r1, [r3, r0]
  42 0010 C318     		add	r3, r0, r3
  43 0012 5980     		strh	r1, [r3, #2]
 620:Generated_Source\PSoC4/CapSense_Filter.c ****     
 621:Generated_Source\PSoC4/CapSense_Filter.c ****     #if (CapSense_ENABLE == CapSense_TST_BSLN_DUPLICATION_EN)
 622:Generated_Source\PSoC4/CapSense_Filter.c ****     /* Update baseline inversion of the channel in sensor */    
 623:Generated_Source\PSoC4/CapSense_Filter.c ****         ptrSensor->bslnInv[channel] = ~(ptrSensor->bsln[channel]);
 624:Generated_Source\PSoC4/CapSense_Filter.c ****     #endif /* (CapSense_ENABLE == CapSense_TST_BSLN_DUPLICATION_EN) */
 625:Generated_Source\PSoC4/CapSense_Filter.c **** 
 626:Generated_Source\PSoC4/CapSense_Filter.c ****     ptrSensor->negBslnRstCnt[channel] = 0u;
  44              		.loc 1 626 0
  45 0014 8218     		add	r2, r0, r2
  46              	.LVL2:
  47 0016 0023     		mov	r3, #0
  48 0018 1372     		strb	r3, [r2, #8]
 627:Generated_Source\PSoC4/CapSense_Filter.c **** }
  49              		.loc 1 627 0
  50              		@ sp needed
  51 001a 7047     		bx	lr
  52              		.cfi_endproc
  53              	.LFE10:
  54              		.size	CapSense_FtInitializeBaselineChannel, .-CapSense_FtInitializeBaselineChannel
  55              		.section	.text.CapSense_FtInitializeBaseline,"ax",%progbits
  56              		.align	2
  57              		.global	CapSense_FtInitializeBaseline
ARM GAS  C:\Users\RD\AppData\Local\Temp\ccQZrPXd.s 			page 13


  58              		.code	16
  59              		.thumb_func
  60              		.type	CapSense_FtInitializeBaseline, %function
  61              	CapSense_FtInitializeBaseline:
  62              	.LFB9:
 569:Generated_Source\PSoC4/CapSense_Filter.c ****     uint32 channel;
  63              		.loc 1 569 0
  64              		.cfi_startproc
  65              	.LVL3:
  66 0000 70B5     		push	{r4, r5, r6, lr}
  67              		.cfi_def_cfa_offset 16
  68              		.cfi_offset 4, -16
  69              		.cfi_offset 5, -12
  70              		.cfi_offset 6, -8
  71              		.cfi_offset 14, -4
  72 0002 061C     		mov	r6, r0
  73 0004 0D1C     		mov	r5, r1
  74              	.LVL4:
 573:Generated_Source\PSoC4/CapSense_Filter.c ****     {
  75              		.loc 1 573 0
  76 0006 0123     		mov	r3, #1
  77 0008 05E0     		b	.L4
  78              	.LVL5:
  79              	.L5:
 575:Generated_Source\PSoC4/CapSense_Filter.c ****     }
  80              		.loc 1 575 0
  81 000a 301C     		mov	r0, r6
  82 000c 291C     		mov	r1, r5
  83 000e 221C     		mov	r2, r4
  84 0010 FFF7FEFF 		bl	CapSense_FtInitializeBaselineChannel
  85              	.LVL6:
 573:Generated_Source\PSoC4/CapSense_Filter.c ****     {
  86              		.loc 1 573 0
  87 0014 231C     		mov	r3, r4
  88              	.LVL7:
  89              	.L4:
 573:Generated_Source\PSoC4/CapSense_Filter.c ****     {
  90              		.loc 1 573 0 is_stmt 0 discriminator 1
  91 0016 5C1E     		sub	r4, r3, #1
  92              	.LVL8:
  93 0018 002B     		cmp	r3, #0
  94 001a F6D1     		bne	.L5
 577:Generated_Source\PSoC4/CapSense_Filter.c **** 
  95              		.loc 1 577 0 is_stmt 1
  96              		@ sp needed
  97              	.LVL9:
  98              	.LVL10:
  99              	.LVL11:
 100 001c 70BD     		pop	{r4, r5, r6, pc}
 101              		.cfi_endproc
 102              	.LFE9:
 103              		.size	CapSense_FtInitializeBaseline, .-CapSense_FtInitializeBaseline
 104 001e C046     		.section	.text.CapSense_InitializeSensorBaseline,"ax",%progbits
 105              		.align	2
 106              		.global	CapSense_InitializeSensorBaseline
 107              		.code	16
 108              		.thumb_func
ARM GAS  C:\Users\RD\AppData\Local\Temp\ccQZrPXd.s 			page 14


 109              		.type	CapSense_InitializeSensorBaseline, %function
 110              	CapSense_InitializeSensorBaseline:
 111              	.LFB8:
 541:Generated_Source\PSoC4/CapSense_Filter.c ****     CapSense_RAM_SNS_STRUCT *ptrSensor = NULL;    
 112              		.loc 1 541 0
 113              		.cfi_startproc
 114              	.LVL12:
 115 0000 70B5     		push	{r4, r5, r6, lr}
 116              		.cfi_def_cfa_offset 16
 117              		.cfi_offset 4, -16
 118              		.cfi_offset 5, -12
 119              		.cfi_offset 6, -8
 120              		.cfi_offset 14, -4
 121              	.LVL13:
 547:Generated_Source\PSoC4/CapSense_Filter.c ****     ptrSensor = &ptrSensor[sensorId];
 122              		.loc 1 547 0
 123 0002 0D4A     		ldr	r2, .L9
 124 0004 8500     		lsl	r5, r0, #2
 125 0006 2B18     		add	r3, r5, r0
 126 0008 DB00     		lsl	r3, r3, #3
 127 000a D318     		add	r3, r2, r3
 128 000c 9C68     		ldr	r4, [r3, #8]
 129              	.LVL14:
 548:Generated_Source\PSoC4/CapSense_Filter.c **** 
 130              		.loc 1 548 0
 131 000e CB00     		lsl	r3, r1, #3
 132 0010 591A     		sub	r1, r3, r1
 133              	.LVL15:
 134 0012 4900     		lsl	r1, r1, #1
 135 0014 6418     		add	r4, r4, r1
 136              	.LVL16:
 550:Generated_Source\PSoC4/CapSense_Filter.c **** }
 137              		.loc 1 550 0
 138 0016 2818     		add	r0, r5, r0
 139              	.LVL17:
 140 0018 C000     		lsl	r0, r0, #3
 141 001a 1018     		add	r0, r2, r0
 142 001c 067E     		ldrb	r6, [r0, #24]
 143              	.LVL18:
 144              	.LBB4:
 145              	.LBB5:
 573:Generated_Source\PSoC4/CapSense_Filter.c ****     {
 146              		.loc 1 573 0
 147 001e 0123     		mov	r3, #1
 148 0020 05E0     		b	.L7
 149              	.LVL19:
 150              	.L8:
 575:Generated_Source\PSoC4/CapSense_Filter.c ****     }
 151              		.loc 1 575 0
 152 0022 201C     		mov	r0, r4
 153 0024 311C     		mov	r1, r6
 154 0026 2A1C     		mov	r2, r5
 155 0028 FFF7FEFF 		bl	CapSense_FtInitializeBaselineChannel
 156              	.LVL20:
 573:Generated_Source\PSoC4/CapSense_Filter.c ****     {
 157              		.loc 1 573 0
 158 002c 2B1C     		mov	r3, r5
ARM GAS  C:\Users\RD\AppData\Local\Temp\ccQZrPXd.s 			page 15


 159              	.LVL21:
 160              	.L7:
 161 002e 5D1E     		sub	r5, r3, #1
 162              	.LVL22:
 163 0030 002B     		cmp	r3, #0
 164 0032 F6D1     		bne	.L8
 165              	.LBE5:
 166              	.LBE4:
 551:Generated_Source\PSoC4/CapSense_Filter.c **** 
 167              		.loc 1 551 0
 168              		@ sp needed
 169              	.LVL23:
 170              	.LVL24:
 171              	.LVL25:
 172 0034 70BD     		pop	{r4, r5, r6, pc}
 173              	.L10:
 174 0036 C046     		.align	2
 175              	.L9:
 176 0038 00000000 		.word	CapSense_dsFlash
 177              		.cfi_endproc
 178              	.LFE8:
 179              		.size	CapSense_InitializeSensorBaseline, .-CapSense_InitializeSensorBaseline
 180              		.section	.text.CapSense_InitializeWidgetBaseline,"ax",%progbits
 181              		.align	2
 182              		.global	CapSense_InitializeWidgetBaseline
 183              		.code	16
 184              		.thumb_func
 185              		.type	CapSense_InitializeWidgetBaseline, %function
 186              	CapSense_InitializeWidgetBaseline:
 187              	.LFB7:
 497:Generated_Source\PSoC4/CapSense_Filter.c ****     uint32 sensorId;
 188              		.loc 1 497 0
 189              		.cfi_startproc
 190              	.LVL26:
 191 0000 38B5     		push	{r3, r4, r5, lr}
 192              		.cfi_def_cfa_offset 16
 193              		.cfi_offset 3, -16
 194              		.cfi_offset 4, -12
 195              		.cfi_offset 5, -8
 196              		.cfi_offset 14, -4
 197 0002 051C     		mov	r5, r0
 198              	.LVL27:
 504:Generated_Source\PSoC4/CapSense_Filter.c ****     
 199              		.loc 1 504 0
 200 0004 8300     		lsl	r3, r0, #2
 201 0006 1B18     		add	r3, r3, r0
 202 0008 DB00     		lsl	r3, r3, #3
 203 000a 064A     		ldr	r2, .L14
 204 000c D318     		add	r3, r2, r3
 205 000e DB8A     		ldrh	r3, [r3, #22]
 206              	.LVL28:
 506:Generated_Source\PSoC4/CapSense_Filter.c ****     {
 207              		.loc 1 506 0
 208 0010 04E0     		b	.L12
 209              	.LVL29:
 210              	.L13:
 508:Generated_Source\PSoC4/CapSense_Filter.c ****     }
ARM GAS  C:\Users\RD\AppData\Local\Temp\ccQZrPXd.s 			page 16


 211              		.loc 1 508 0
 212 0012 281C     		mov	r0, r5
 213 0014 211C     		mov	r1, r4
 214 0016 FFF7FEFF 		bl	CapSense_InitializeSensorBaseline
 215              	.LVL30:
 506:Generated_Source\PSoC4/CapSense_Filter.c ****     {
 216              		.loc 1 506 0
 217 001a 231C     		mov	r3, r4
 218              	.LVL31:
 219              	.L12:
 506:Generated_Source\PSoC4/CapSense_Filter.c ****     {
 220              		.loc 1 506 0 is_stmt 0 discriminator 1
 221 001c 5C1E     		sub	r4, r3, #1
 222              	.LVL32:
 223 001e 002B     		cmp	r3, #0
 224 0020 F7D1     		bne	.L13
 510:Generated_Source\PSoC4/CapSense_Filter.c **** 
 225              		.loc 1 510 0 is_stmt 1
 226              		@ sp needed
 227              	.LVL33:
 228              	.LVL34:
 229 0022 38BD     		pop	{r3, r4, r5, pc}
 230              	.L15:
 231              		.align	2
 232              	.L14:
 233 0024 00000000 		.word	CapSense_dsFlash
 234              		.cfi_endproc
 235              	.LFE7:
 236              		.size	CapSense_InitializeWidgetBaseline, .-CapSense_InitializeWidgetBaseline
 237              		.section	.text.CapSense_InitializeAllBaselines,"ax",%progbits
 238              		.align	2
 239              		.global	CapSense_InitializeAllBaselines
 240              		.code	16
 241              		.thumb_func
 242              		.type	CapSense_InitializeAllBaselines, %function
 243              	CapSense_InitializeAllBaselines:
 244              	.LFB6:
 466:Generated_Source\PSoC4/CapSense_Filter.c ****     uint32 widgetId;    
 245              		.loc 1 466 0
 246              		.cfi_startproc
 247 0000 10B5     		push	{r4, lr}
 248              		.cfi_def_cfa_offset 8
 249              		.cfi_offset 4, -8
 250              		.cfi_offset 14, -4
 251              	.LVL35:
 469:Generated_Source\PSoC4/CapSense_Filter.c ****     {
 252              		.loc 1 469 0
 253 0002 0123     		mov	r3, #1
 254 0004 03E0     		b	.L17
 255              	.LVL36:
 256              	.L18:
 471:Generated_Source\PSoC4/CapSense_Filter.c ****     }
 257              		.loc 1 471 0
 258 0006 201C     		mov	r0, r4
 259 0008 FFF7FEFF 		bl	CapSense_InitializeWidgetBaseline
 260              	.LVL37:
 469:Generated_Source\PSoC4/CapSense_Filter.c ****     {
ARM GAS  C:\Users\RD\AppData\Local\Temp\ccQZrPXd.s 			page 17


 261              		.loc 1 469 0
 262 000c 231C     		mov	r3, r4
 263              	.LVL38:
 264              	.L17:
 469:Generated_Source\PSoC4/CapSense_Filter.c ****     {
 265              		.loc 1 469 0 is_stmt 0 discriminator 1
 266 000e 5C1E     		sub	r4, r3, #1
 267              	.LVL39:
 268 0010 002B     		cmp	r3, #0
 269 0012 F8D1     		bne	.L18
 473:Generated_Source\PSoC4/CapSense_Filter.c **** 
 270              		.loc 1 473 0 is_stmt 1
 271              		@ sp needed
 272              	.LVL40:
 273 0014 10BD     		pop	{r4, pc}
 274              		.cfi_endproc
 275              	.LFE6:
 276              		.size	CapSense_InitializeAllBaselines, .-CapSense_InitializeAllBaselines
 277 0016 C046     		.section	.text.CapSense_InitializeIIRInternal,"ax",%progbits
 278              		.align	2
 279              		.global	CapSense_InitializeIIRInternal
 280              		.code	16
 281              		.thumb_func
 282              		.type	CapSense_InitializeIIRInternal, %function
 283              	CapSense_InitializeIIRInternal:
 284              	.LFB13:
 628:Generated_Source\PSoC4/CapSense_Filter.c **** 
 629:Generated_Source\PSoC4/CapSense_Filter.c **** 
 630:Generated_Source\PSoC4/CapSense_Filter.c **** #if (CapSense_REGULAR_RC_IIR_FILTER_EN || CapSense_PROX_RC_IIR_FILTER_EN)
 631:Generated_Source\PSoC4/CapSense_Filter.c **** 
 632:Generated_Source\PSoC4/CapSense_Filter.c **** /*******************************************************************************
 633:Generated_Source\PSoC4/CapSense_Filter.c **** * Function Name: CapSense_InitializeIIR
 634:Generated_Source\PSoC4/CapSense_Filter.c **** ****************************************************************************//**
 635:Generated_Source\PSoC4/CapSense_Filter.c **** *
 636:Generated_Source\PSoC4/CapSense_Filter.c **** * \brief    Initialize the IIR filter history.
 637:Generated_Source\PSoC4/CapSense_Filter.c **** *
 638:Generated_Source\PSoC4/CapSense_Filter.c **** * \details  Initialize the IIR filter history.
 639:Generated_Source\PSoC4/CapSense_Filter.c **** *
 640:Generated_Source\PSoC4/CapSense_Filter.c **** * \param    widgetId Specifies the ID number of the widget.
 641:Generated_Source\PSoC4/CapSense_Filter.c **** * \param    sensorId Specifies the ID number of the sensor in the widget.
 642:Generated_Source\PSoC4/CapSense_Filter.c **** *
 643:Generated_Source\PSoC4/CapSense_Filter.c **** *******************************************************************************/
 644:Generated_Source\PSoC4/CapSense_Filter.c **** void CapSense_InitializeIIR(uint32 widgetId, uint32 sensorId)
 645:Generated_Source\PSoC4/CapSense_Filter.c **** {   
 646:Generated_Source\PSoC4/CapSense_Filter.c ****     CapSense_FLASH_WD_STRUCT const *ptrWidget = &CapSense_dsFlash.wdgtArray[widgetId];      
 647:Generated_Source\PSoC4/CapSense_Filter.c ****     CapSense_RAM_SNS_STRUCT *ptrSensor = NULL;    
 648:Generated_Source\PSoC4/CapSense_Filter.c ****     CapSense_PTR_FILTER_VARIANT ptrFilterHistObj; 
 649:Generated_Source\PSoC4/CapSense_Filter.c ****               
 650:Generated_Source\PSoC4/CapSense_Filter.c ****     /* Find pointer to specified sensor object */     
 651:Generated_Source\PSoC4/CapSense_Filter.c ****     ptrSensor = ptrWidget->ptr2SnsRam;
 652:Generated_Source\PSoC4/CapSense_Filter.c ****     ptrSensor = &ptrSensor[sensorId];
 653:Generated_Source\PSoC4/CapSense_Filter.c ****         
 654:Generated_Source\PSoC4/CapSense_Filter.c ****     /* Find pointer to specified filter sensor object */     
 655:Generated_Source\PSoC4/CapSense_Filter.c ****     ptrFilterHistObj.ptr = ptrWidget->ptr2FltrHistory;
 656:Generated_Source\PSoC4/CapSense_Filter.c ****     
 657:Generated_Source\PSoC4/CapSense_Filter.c ****     if ((CapSense_WD_TYPE_ENUM)ptrWidget->wdgtType != CapSense_WD_PROXIMITY_E)
 658:Generated_Source\PSoC4/CapSense_Filter.c ****     {
ARM GAS  C:\Users\RD\AppData\Local\Temp\ccQZrPXd.s 			page 18


 659:Generated_Source\PSoC4/CapSense_Filter.c ****         #if (CapSense_REGULAR_SENSOR_EN)
 660:Generated_Source\PSoC4/CapSense_Filter.c ****             ptrFilterHistObj.ptrRegular = &ptrFilterHistObj.ptrRegular[sensorId];
 661:Generated_Source\PSoC4/CapSense_Filter.c ****         #endif /* (CapSense_REGULAR_SENSOR_EN) */
 662:Generated_Source\PSoC4/CapSense_Filter.c ****     }
 663:Generated_Source\PSoC4/CapSense_Filter.c ****     else
 664:Generated_Source\PSoC4/CapSense_Filter.c ****     {
 665:Generated_Source\PSoC4/CapSense_Filter.c ****         #if (CapSense_PROXIMITY_SENSOR_EN)
 666:Generated_Source\PSoC4/CapSense_Filter.c ****             ptrFilterHistObj.ptrProx = &ptrFilterHistObj.ptrProx[sensorId];
 667:Generated_Source\PSoC4/CapSense_Filter.c ****         #endif /* (CapSense_PROXIMITY_SENSOR_EN) */
 668:Generated_Source\PSoC4/CapSense_Filter.c ****     }    
 669:Generated_Source\PSoC4/CapSense_Filter.c ****     
 670:Generated_Source\PSoC4/CapSense_Filter.c ****     CapSense_InitializeIIRInternal(ptrFilterHistObj, ptrSensor, (uint32)ptrWidget->wdgtType);
 671:Generated_Source\PSoC4/CapSense_Filter.c **** }
 672:Generated_Source\PSoC4/CapSense_Filter.c **** 
 673:Generated_Source\PSoC4/CapSense_Filter.c **** 
 674:Generated_Source\PSoC4/CapSense_Filter.c **** /*******************************************************************************
 675:Generated_Source\PSoC4/CapSense_Filter.c **** * Function Name: CapSense_RunIIR
 676:Generated_Source\PSoC4/CapSense_Filter.c **** ****************************************************************************//**
 677:Generated_Source\PSoC4/CapSense_Filter.c **** *
 678:Generated_Source\PSoC4/CapSense_Filter.c **** * \brief    Executes the IIR filter algorithm on a sensor indicated by an input
 679:Generated_Source\PSoC4/CapSense_Filter.c **** *           parameter. 
 680:Generated_Source\PSoC4/CapSense_Filter.c **** *
 681:Generated_Source\PSoC4/CapSense_Filter.c **** * \details  Executes the IIR filter algorithm on a sensor indicated by an input
 682:Generated_Source\PSoC4/CapSense_Filter.c **** *           parameter. 
 683:Generated_Source\PSoC4/CapSense_Filter.c **** *
 684:Generated_Source\PSoC4/CapSense_Filter.c **** * \param    widgetId Specifies the ID number of the widget.
 685:Generated_Source\PSoC4/CapSense_Filter.c **** * \param    sensorId Specifies the ID number of the sensor in the widget.
 686:Generated_Source\PSoC4/CapSense_Filter.c **** *
 687:Generated_Source\PSoC4/CapSense_Filter.c **** *******************************************************************************/
 688:Generated_Source\PSoC4/CapSense_Filter.c **** void CapSense_RunIIR(uint32 widgetId, uint32 sensorId)
 689:Generated_Source\PSoC4/CapSense_Filter.c **** {
 690:Generated_Source\PSoC4/CapSense_Filter.c ****     CapSense_FLASH_WD_STRUCT const *ptrWidget = &CapSense_dsFlash.wdgtArray[widgetId];      
 691:Generated_Source\PSoC4/CapSense_Filter.c ****     CapSense_RAM_SNS_STRUCT *ptrSensor = NULL;    
 692:Generated_Source\PSoC4/CapSense_Filter.c ****     CapSense_PTR_FILTER_VARIANT ptrFilterHistObj; 
 693:Generated_Source\PSoC4/CapSense_Filter.c ****               
 694:Generated_Source\PSoC4/CapSense_Filter.c ****     /* Find pointer to specified sensor object */     
 695:Generated_Source\PSoC4/CapSense_Filter.c ****     ptrSensor = ptrWidget->ptr2SnsRam;
 696:Generated_Source\PSoC4/CapSense_Filter.c ****     ptrSensor = &ptrSensor[sensorId];
 697:Generated_Source\PSoC4/CapSense_Filter.c ****         
 698:Generated_Source\PSoC4/CapSense_Filter.c ****     /* Find pointer to specified filter sensor object */     
 699:Generated_Source\PSoC4/CapSense_Filter.c ****     ptrFilterHistObj.ptr = ptrWidget->ptr2FltrHistory;
 700:Generated_Source\PSoC4/CapSense_Filter.c ****     
 701:Generated_Source\PSoC4/CapSense_Filter.c ****     if ((CapSense_WD_TYPE_ENUM)ptrWidget->wdgtType != CapSense_WD_PROXIMITY_E)
 702:Generated_Source\PSoC4/CapSense_Filter.c ****     {
 703:Generated_Source\PSoC4/CapSense_Filter.c ****         #if (CapSense_REGULAR_SENSOR_EN)
 704:Generated_Source\PSoC4/CapSense_Filter.c ****             ptrFilterHistObj.ptrRegular = &ptrFilterHistObj.ptrRegular[sensorId];
 705:Generated_Source\PSoC4/CapSense_Filter.c ****         #endif /* (CapSense_REGULAR_SENSOR_EN) */
 706:Generated_Source\PSoC4/CapSense_Filter.c ****     }
 707:Generated_Source\PSoC4/CapSense_Filter.c ****     else
 708:Generated_Source\PSoC4/CapSense_Filter.c ****     {
 709:Generated_Source\PSoC4/CapSense_Filter.c ****         #if (CapSense_PROXIMITY_SENSOR_EN)
 710:Generated_Source\PSoC4/CapSense_Filter.c ****             ptrFilterHistObj.ptrProx = &ptrFilterHistObj.ptrProx[sensorId];
 711:Generated_Source\PSoC4/CapSense_Filter.c ****         #endif /* (CapSense_PROXIMITY_SENSOR_EN) */
 712:Generated_Source\PSoC4/CapSense_Filter.c ****     }    
 713:Generated_Source\PSoC4/CapSense_Filter.c ****     
 714:Generated_Source\PSoC4/CapSense_Filter.c ****     CapSense_RunIIRInternal(ptrFilterHistObj, ptrSensor, (uint32)ptrWidget->wdgtType);
 715:Generated_Source\PSoC4/CapSense_Filter.c **** }
ARM GAS  C:\Users\RD\AppData\Local\Temp\ccQZrPXd.s 			page 19


 716:Generated_Source\PSoC4/CapSense_Filter.c ****     
 717:Generated_Source\PSoC4/CapSense_Filter.c **** /*******************************************************************************
 718:Generated_Source\PSoC4/CapSense_Filter.c **** * Function Name: CapSense_InitializeIIRInternal
 719:Generated_Source\PSoC4/CapSense_Filter.c **** ****************************************************************************//**
 720:Generated_Source\PSoC4/CapSense_Filter.c **** *
 721:Generated_Source\PSoC4/CapSense_Filter.c **** * \brief    Initializes the IIR filter history.
 722:Generated_Source\PSoC4/CapSense_Filter.c **** *
 723:Generated_Source\PSoC4/CapSense_Filter.c **** * \details  Initializes the IIR filter history.
 724:Generated_Source\PSoC4/CapSense_Filter.c **** *
 725:Generated_Source\PSoC4/CapSense_Filter.c **** * \param    ptrFilterHistObj The pointer to the filter RAM object of the sensor.
 726:Generated_Source\PSoC4/CapSense_Filter.c **** * \param    ptrSensorObj     The pointer to the sensor RAM object of the sensor.
 727:Generated_Source\PSoC4/CapSense_Filter.c **** * \param    wdType           Specifies the type of a widget.                                  
 728:Generated_Source\PSoC4/CapSense_Filter.c **** *
 729:Generated_Source\PSoC4/CapSense_Filter.c **** *******************************************************************************/
 730:Generated_Source\PSoC4/CapSense_Filter.c **** void CapSense_InitializeIIRInternal(CapSense_PTR_FILTER_VARIANT ptrFilterHistObj,
 731:Generated_Source\PSoC4/CapSense_Filter.c ****                                             CapSense_RAM_SNS_STRUCT *ptrSensorObj, uint32 wdType)
 732:Generated_Source\PSoC4/CapSense_Filter.c **** {
 285              		.loc 1 732 0
 286              		.cfi_startproc
 287              	.LVL41:
 288 0000 30B5     		push	{r4, r5, lr}
 289              		.cfi_def_cfa_offset 12
 290              		.cfi_offset 4, -12
 291              		.cfi_offset 5, -8
 292              		.cfi_offset 14, -4
 293              	.LVL42:
 733:Generated_Source\PSoC4/CapSense_Filter.c ****     uint32 channel;
 734:Generated_Source\PSoC4/CapSense_Filter.c **** 
 735:Generated_Source\PSoC4/CapSense_Filter.c ****     for(channel = CapSense_NUM_SCAN_FREQS; channel-- > 0u;)
 294              		.loc 1 735 0
 295 0002 0123     		mov	r3, #1
 296 0004 06E0     		b	.L20
 297              	.LVL43:
 298              	.L22:
 736:Generated_Source\PSoC4/CapSense_Filter.c ****     {
 737:Generated_Source\PSoC4/CapSense_Filter.c ****         if ((CapSense_WD_TYPE_ENUM)wdType != CapSense_WD_PROXIMITY_E)
 299              		.loc 1 737 0
 300 0006 D3B2     		uxtb	r3, r2
 301 0008 062B     		cmp	r3, #6
 302 000a 02D0     		beq	.L21
 738:Generated_Source\PSoC4/CapSense_Filter.c ****         {
 739:Generated_Source\PSoC4/CapSense_Filter.c ****             #if (CapSense_REGULAR_SENSOR_EN && CapSense_REGULAR_RC_IIR_FILTER_EN)
 740:Generated_Source\PSoC4/CapSense_Filter.c ****                 #if (CapSense_REGULAR_IIR_RC_TYPE == CapSense_IIR_FILTER_PERFORMANCE)
 741:Generated_Source\PSoC4/CapSense_Filter.c ****                     ptrFilterHistObj.ptrRegular->regularChannel[channel].iirHistory = ptrSensorObj-
 742:Generated_Source\PSoC4/CapSense_Filter.c ****                     ptrFilterHistObj.ptrRegular->regularChannel[channel].iirHistoryLow = 0u;
 743:Generated_Source\PSoC4/CapSense_Filter.c ****                 #else
 744:Generated_Source\PSoC4/CapSense_Filter.c ****                     ptrFilterHistObj.ptrRegular->regularChannel[channel].iirHistory = ptrSensorObj-
 303              		.loc 1 744 0
 304 000c 6300     		lsl	r3, r4, #1
 305 000e 5D5A     		ldrh	r5, [r3, r1]
 306 0010 1D52     		strh	r5, [r3, r0]
 307              	.L21:
 732:Generated_Source\PSoC4/CapSense_Filter.c ****     uint32 channel;
 308              		.loc 1 732 0 discriminator 1
 309 0012 231C     		mov	r3, r4
 310              	.LVL44:
 311              	.L20:
ARM GAS  C:\Users\RD\AppData\Local\Temp\ccQZrPXd.s 			page 20


 735:Generated_Source\PSoC4/CapSense_Filter.c ****     {
 312              		.loc 1 735 0 discriminator 1
 313 0014 5C1E     		sub	r4, r3, #1
 314              	.LVL45:
 315 0016 002B     		cmp	r3, #0
 316 0018 F5D1     		bne	.L22
 745:Generated_Source\PSoC4/CapSense_Filter.c ****                 #endif /* (CapSense_REGULAR_IIR_RC_TYPE == CapSense_IIR_FILTER_PERFORMANCE) */
 746:Generated_Source\PSoC4/CapSense_Filter.c ****             #endif /* (CapSense_REGULAR_SENSOR_EN) */    
 747:Generated_Source\PSoC4/CapSense_Filter.c ****         }
 748:Generated_Source\PSoC4/CapSense_Filter.c ****         else
 749:Generated_Source\PSoC4/CapSense_Filter.c ****         {
 750:Generated_Source\PSoC4/CapSense_Filter.c ****             #if (CapSense_PROXIMITY_SENSOR_EN && CapSense_PROX_RC_IIR_FILTER_EN)
 751:Generated_Source\PSoC4/CapSense_Filter.c ****                 #if (CapSense_PROX_IIR_RC_TYPE == CapSense_IIR_FILTER_PERFORMANCE)
 752:Generated_Source\PSoC4/CapSense_Filter.c ****                     ptrFilterHistObj.ptrProx->proxChannel[channel].iirHistory = ptrSensorObj->raw[c
 753:Generated_Source\PSoC4/CapSense_Filter.c ****                     ptrFilterHistObj.ptrProx->proxChannel[channel].iirHistoryLow = 0u;    
 754:Generated_Source\PSoC4/CapSense_Filter.c ****                 #else
 755:Generated_Source\PSoC4/CapSense_Filter.c ****                     ptrFilterHistObj.ptrProx->proxChannel[channel].iirHistory = ptrSensorObj->raw[c
 756:Generated_Source\PSoC4/CapSense_Filter.c ****                 #endif /* (CapSense_PROX_IIR_RC_TYPE == CapSense_IIR_FILTER_PERFORMANCE) */
 757:Generated_Source\PSoC4/CapSense_Filter.c ****             #endif /* (CapSense_PROX_SENSOR_EN) */
 758:Generated_Source\PSoC4/CapSense_Filter.c ****         }    
 759:Generated_Source\PSoC4/CapSense_Filter.c ****     }    
 760:Generated_Source\PSoC4/CapSense_Filter.c **** }
 317              		.loc 1 760 0
 318              		@ sp needed
 319              	.LVL46:
 320 001a 30BD     		pop	{r4, r5, pc}
 321              		.cfi_endproc
 322              	.LFE13:
 323              		.size	CapSense_InitializeIIRInternal, .-CapSense_InitializeIIRInternal
 324              		.section	.text.CapSense_FtInitialize,"ax",%progbits
 325              		.align	2
 326              		.global	CapSense_FtInitialize
 327              		.code	16
 328              		.thumb_func
 329              		.type	CapSense_FtInitialize, %function
 330              	CapSense_FtInitialize:
 331              	.LFB1:
  62:Generated_Source\PSoC4/CapSense_Filter.c ****     uint32 widgetId;
 332              		.loc 1 62 0
 333              		.cfi_startproc
 334 0000 F0B5     		push	{r4, r5, r6, r7, lr}
 335              		.cfi_def_cfa_offset 20
 336              		.cfi_offset 4, -20
 337              		.cfi_offset 5, -16
 338              		.cfi_offset 6, -12
 339              		.cfi_offset 7, -8
 340              		.cfi_offset 14, -4
 341 0002 4746     		mov	r7, r8
 342 0004 80B4     		push	{r7}
 343              		.cfi_def_cfa_offset 24
 344              		.cfi_offset 8, -24
 345              	.LVL47:
  76:Generated_Source\PSoC4/CapSense_Filter.c ****     {
 346              		.loc 1 76 0
 347 0006 0123     		mov	r3, #1
 348 0008 2CE0     		b	.L24
 349              	.LVL48:
ARM GAS  C:\Users\RD\AppData\Local\Temp\ccQZrPXd.s 			page 21


 350              	.L28:
  81:Generated_Source\PSoC4/CapSense_Filter.c ****         #endif /* #if CapSense_CSD_AUTOTUNE & CapSense_CSD_SS_TH_EN */
 351              		.loc 1 81 0
 352 000a B300     		lsl	r3, r6, #2
 353 000c 9B19     		add	r3, r3, r6
 354 000e DB00     		lsl	r3, r3, #3
 355 0010 174A     		ldr	r2, .L29
 356 0012 D318     		add	r3, r2, r3
 357 0014 5A68     		ldr	r2, [r3, #4]
 358 0016 9046     		mov	r8, r2
 359              	.LVL49:
  85:Generated_Source\PSoC4/CapSense_Filter.c ****     
 360              		.loc 1 85 0
 361 0018 DB8A     		ldrh	r3, [r3, #22]
 362              	.LVL50:
  87:Generated_Source\PSoC4/CapSense_Filter.c ****         {
 363              		.loc 1 87 0
 364 001a 1FE0     		b	.L25
 365              	.LVL51:
 366              	.L27:
  90:Generated_Source\PSoC4/CapSense_Filter.c ****             ptrSensor = &ptrSensor[sensorId];
 367              		.loc 1 90 0
 368 001c B300     		lsl	r3, r6, #2
 369 001e 9B19     		add	r3, r3, r6
 370 0020 DB00     		lsl	r3, r3, #3
 371 0022 134A     		ldr	r2, .L29
 372 0024 D318     		add	r3, r2, r3
 373              	.LVL52:
  91:Generated_Source\PSoC4/CapSense_Filter.c ****                         
 374              		.loc 1 91 0
 375 0026 E900     		lsl	r1, r5, #3
 376 0028 491B     		sub	r1, r1, r5
 377 002a 4900     		lsl	r1, r1, #1
 378 002c 9A68     		ldr	r2, [r3, #8]
 379 002e 5718     		add	r7, r2, r1
 380              	.LVL53:
  94:Generated_Source\PSoC4/CapSense_Filter.c **** 
 381              		.loc 1 94 0
 382 0030 D968     		ldr	r1, [r3, #12]
 383 0032 081C     		mov	r0, r1
 384              	.LVL54:
  99:Generated_Source\PSoC4/CapSense_Filter.c ****             #endif /* #if CapSense_CSD_AUTOTUNE & CapSense_CSD_SS_TH_EN */
 385              		.loc 1 99 0
 386 0034 6A00     		lsl	r2, r5, #1
 387 0036 5219     		add	r2, r2, r5
 388 0038 9200     		lsl	r2, r2, #2
 389 003a 1C6A     		ldr	r4, [r3, #32]
 390 003c A418     		add	r4, r4, r2
 391              	.LVL55:
 102:Generated_Source\PSoC4/CapSense_Filter.c ****             {
 392              		.loc 1 102 0
 393 003e 1A7E     		ldrb	r2, [r3, #24]
 394 0040 062A     		cmp	r2, #6
 395 0042 01D0     		beq	.L26
 105:Generated_Source\PSoC4/CapSense_Filter.c ****                 #endif /* (CapSense_REGULAR_SENSOR_EN) */
 396              		.loc 1 105 0
 397 0044 6800     		lsl	r0, r5, #1
ARM GAS  C:\Users\RD\AppData\Local\Temp\ccQZrPXd.s 			page 22


 398 0046 0818     		add	r0, r1, r0
 399              	.L26:
 116:Generated_Source\PSoC4/CapSense_Filter.c ****             #endif /* (CapSense_REGULAR_RC_IIR_FILTER_EN || CapSense_PROX_RC_IIR_FILTER_EN) */     
 400              		.loc 1 116 0
 401 0048 391C     		mov	r1, r7
 402 004a FFF7FEFF 		bl	CapSense_InitializeIIRInternal
 403              	.LVL56:
 131:Generated_Source\PSoC4/CapSense_Filter.c ****                 }
 404              		.loc 1 131 0
 405 004e 3888     		ldrh	r0, [r7]
 406 0050 4346     		mov	r3, r8
 407 0052 198A     		ldrh	r1, [r3, #16]
 408 0054 221C     		mov	r2, r4
 409 0056 FFF7FEFF 		bl	SmartSense_InitializeNoiseEnvelope
 410              	.LVL57:
  87:Generated_Source\PSoC4/CapSense_Filter.c ****         {
 411              		.loc 1 87 0
 412 005a 2B1C     		mov	r3, r5
 413              	.LVL58:
 414              	.L25:
  87:Generated_Source\PSoC4/CapSense_Filter.c ****         {
 415              		.loc 1 87 0 is_stmt 0 discriminator 1
 416 005c 5D1E     		sub	r5, r3, #1
 417              	.LVL59:
 418 005e 002B     		cmp	r3, #0
 419 0060 DCD1     		bne	.L27
  76:Generated_Source\PSoC4/CapSense_Filter.c ****     {
 420              		.loc 1 76 0 is_stmt 1
 421 0062 331C     		mov	r3, r6
 422              	.LVL60:
 423              	.L24:
  76:Generated_Source\PSoC4/CapSense_Filter.c ****     {
 424              		.loc 1 76 0 is_stmt 0 discriminator 1
 425 0064 5E1E     		sub	r6, r3, #1
 426              	.LVL61:
 427 0066 002B     		cmp	r3, #0
 428 0068 CFD1     		bne	.L28
 136:Generated_Source\PSoC4/CapSense_Filter.c **** 
 429              		.loc 1 136 0 is_stmt 1
 430              		@ sp needed
 431              	.LVL62:
 432 006a 04BC     		pop	{r2}
 433 006c 9046     		mov	r8, r2
 434 006e F0BD     		pop	{r4, r5, r6, r7, pc}
 435              	.L30:
 436              		.align	2
 437              	.L29:
 438 0070 00000000 		.word	CapSense_dsFlash
 439              		.cfi_endproc
 440              	.LFE1:
 441              		.size	CapSense_FtInitialize, .-CapSense_FtInitialize
 442              		.section	.text.CapSense_InitializeIIR,"ax",%progbits
 443              		.align	2
 444              		.global	CapSense_InitializeIIR
 445              		.code	16
 446              		.thumb_func
 447              		.type	CapSense_InitializeIIR, %function
ARM GAS  C:\Users\RD\AppData\Local\Temp\ccQZrPXd.s 			page 23


 448              	CapSense_InitializeIIR:
 449              	.LFB11:
 645:Generated_Source\PSoC4/CapSense_Filter.c ****     CapSense_FLASH_WD_STRUCT const *ptrWidget = &CapSense_dsFlash.wdgtArray[widgetId];      
 450              		.loc 1 645 0
 451              		.cfi_startproc
 452              	.LVL63:
 453 0000 F8B5     		push	{r3, r4, r5, r6, r7, lr}
 454              		.cfi_def_cfa_offset 24
 455              		.cfi_offset 3, -24
 456              		.cfi_offset 4, -20
 457              		.cfi_offset 5, -16
 458              		.cfi_offset 6, -12
 459              		.cfi_offset 7, -8
 460              		.cfi_offset 14, -4
 461              	.LVL64:
 651:Generated_Source\PSoC4/CapSense_Filter.c ****     ptrSensor = &ptrSensor[sensorId];
 462              		.loc 1 651 0
 463 0002 0C4E     		ldr	r6, .L33
 464 0004 8300     		lsl	r3, r0, #2
 465 0006 1A18     		add	r2, r3, r0
 466 0008 D200     		lsl	r2, r2, #3
 467 000a B518     		add	r5, r6, r2
 468              	.LVL65:
 652:Generated_Source\PSoC4/CapSense_Filter.c ****         
 469              		.loc 1 652 0
 470 000c CA00     		lsl	r2, r1, #3
 471 000e 521A     		sub	r2, r2, r1
 472 0010 5200     		lsl	r2, r2, #1
 473 0012 AC68     		ldr	r4, [r5, #8]
 474 0014 A418     		add	r4, r4, r2
 475              	.LVL66:
 655:Generated_Source\PSoC4/CapSense_Filter.c ****     
 476              		.loc 1 655 0
 477 0016 EF68     		ldr	r7, [r5, #12]
 478 0018 3D1C     		mov	r5, r7
 479              	.LVL67:
 657:Generated_Source\PSoC4/CapSense_Filter.c ****     {
 480              		.loc 1 657 0
 481 001a 1B18     		add	r3, r3, r0
 482 001c DB00     		lsl	r3, r3, #3
 483 001e F318     		add	r3, r6, r3
 484 0020 1A7E     		ldrb	r2, [r3, #24]
 485 0022 062A     		cmp	r2, #6
 486 0024 01D0     		beq	.L32
 660:Generated_Source\PSoC4/CapSense_Filter.c ****         #endif /* (CapSense_REGULAR_SENSOR_EN) */
 487              		.loc 1 660 0
 488 0026 4900     		lsl	r1, r1, #1
 489              	.LVL68:
 490 0028 7D18     		add	r5, r7, r1
 491              	.L32:
 492              	.LVL69:
 670:Generated_Source\PSoC4/CapSense_Filter.c **** }
 493              		.loc 1 670 0
 494 002a 281C     		mov	r0, r5
 495              	.LVL70:
 496 002c 211C     		mov	r1, r4
 497 002e FFF7FEFF 		bl	CapSense_InitializeIIRInternal
ARM GAS  C:\Users\RD\AppData\Local\Temp\ccQZrPXd.s 			page 24


 498              	.LVL71:
 671:Generated_Source\PSoC4/CapSense_Filter.c **** 
 499              		.loc 1 671 0
 500              		@ sp needed
 501              	.LVL72:
 502              	.LVL73:
 503              	.LVL74:
 504 0032 F8BD     		pop	{r3, r4, r5, r6, r7, pc}
 505              	.L34:
 506              		.align	2
 507              	.L33:
 508 0034 00000000 		.word	CapSense_dsFlash
 509              		.cfi_endproc
 510              	.LFE11:
 511              		.size	CapSense_InitializeIIR, .-CapSense_InitializeIIR
 512              		.section	.text.CapSense_RunNoiseEnvelope,"ax",%progbits
 513              		.align	2
 514              		.global	CapSense_RunNoiseEnvelope
 515              		.code	16
 516              		.thumb_func
 517              		.type	CapSense_RunNoiseEnvelope, %function
 518              	CapSense_RunNoiseEnvelope:
 519              	.LFB17:
 761:Generated_Source\PSoC4/CapSense_Filter.c ****  
 762:Generated_Source\PSoC4/CapSense_Filter.c **** 
 763:Generated_Source\PSoC4/CapSense_Filter.c **** /*******************************************************************************
 764:Generated_Source\PSoC4/CapSense_Filter.c **** * Function Name: CapSense_RunIIRInternal
 765:Generated_Source\PSoC4/CapSense_Filter.c **** ****************************************************************************//**
 766:Generated_Source\PSoC4/CapSense_Filter.c **** *
 767:Generated_Source\PSoC4/CapSense_Filter.c **** * \brief    Run the IIR filter.
 768:Generated_Source\PSoC4/CapSense_Filter.c **** *
 769:Generated_Source\PSoC4/CapSense_Filter.c **** * \details  Run the IIR filter.
 770:Generated_Source\PSoC4/CapSense_Filter.c **** *
 771:Generated_Source\PSoC4/CapSense_Filter.c **** * \param    ptrFilterHistObj The pointer to the filter RAM object of the sensor.
 772:Generated_Source\PSoC4/CapSense_Filter.c **** * \param    ptrSensorObj     The pointer to the sensor RAM object of the sensor.
 773:Generated_Source\PSoC4/CapSense_Filter.c **** * \param    wdType           Specifies the type of a widget.
 774:Generated_Source\PSoC4/CapSense_Filter.c **** *
 775:Generated_Source\PSoC4/CapSense_Filter.c **** *******************************************************************************/    
 776:Generated_Source\PSoC4/CapSense_Filter.c **** void CapSense_RunIIRInternal(CapSense_PTR_FILTER_VARIANT ptrFilterHistObj, 
 777:Generated_Source\PSoC4/CapSense_Filter.c ****                                      CapSense_RAM_SNS_STRUCT *ptrSensorObj, uint32 wdType)
 778:Generated_Source\PSoC4/CapSense_Filter.c **** {        
 779:Generated_Source\PSoC4/CapSense_Filter.c ****     uint32 channel;
 780:Generated_Source\PSoC4/CapSense_Filter.c ****     uint32 temp;
 781:Generated_Source\PSoC4/CapSense_Filter.c **** 
 782:Generated_Source\PSoC4/CapSense_Filter.c ****     for(channel = CapSense_NUM_SCAN_FREQS; channel-- > 0u;)
 783:Generated_Source\PSoC4/CapSense_Filter.c ****     {
 784:Generated_Source\PSoC4/CapSense_Filter.c ****         if ((CapSense_WD_TYPE_ENUM)wdType != CapSense_WD_PROXIMITY_E)
 785:Generated_Source\PSoC4/CapSense_Filter.c ****         {
 786:Generated_Source\PSoC4/CapSense_Filter.c ****             #if (CapSense_REGULAR_SENSOR_EN && CapSense_REGULAR_RC_IIR_FILTER_EN)
 787:Generated_Source\PSoC4/CapSense_Filter.c ****                 #if (CapSense_REGULAR_IIR_RC_TYPE == CapSense_IIR_FILTER_PERFORMANCE)
 788:Generated_Source\PSoC4/CapSense_Filter.c ****                     temp = ((uint32)ptrFilterHistObj.ptrRegular->regularChannel[channel].iirHistory
 789:Generated_Source\PSoC4/CapSense_Filter.c ****                     temp |= ptrFilterHistObj.ptrRegular->regularChannel[channel].iirHistoryLow;
 790:Generated_Source\PSoC4/CapSense_Filter.c ****                     temp = CapSense_FtIIR1stOrder((uint32)ptrSensorObj->raw[channel],
 791:Generated_Source\PSoC4/CapSense_Filter.c ****                                                         temp,
 792:Generated_Source\PSoC4/CapSense_Filter.c ****                                                         CapSense_REGULAR_IIR_RC_N,
 793:Generated_Source\PSoC4/CapSense_Filter.c ****                                                         CapSense_REGULAR_IIR_RC_SHIFT);
 794:Generated_Source\PSoC4/CapSense_Filter.c ****                     ptrFilterHistObj.ptrRegular->regularChannel[channel].iirHistory = LO16(temp >>C
ARM GAS  C:\Users\RD\AppData\Local\Temp\ccQZrPXd.s 			page 25


 795:Generated_Source\PSoC4/CapSense_Filter.c ****                     ptrFilterHistObj.ptrRegular->regularChannel[channel].iirHistoryLow = LO8(temp);
 796:Generated_Source\PSoC4/CapSense_Filter.c ****                     ptrSensorObj->raw[channel] = LO16(temp >>CapSense_REGULAR_IIR_RC_SHIFT);
 797:Generated_Source\PSoC4/CapSense_Filter.c ****                 #else
 798:Generated_Source\PSoC4/CapSense_Filter.c ****                     temp =CapSense_FtIIR1stOrder((uint32)ptrSensorObj->raw[channel],
 799:Generated_Source\PSoC4/CapSense_Filter.c ****                                                         (uint32)ptrFilterHistObj.ptrRegular->regula
 800:Generated_Source\PSoC4/CapSense_Filter.c ****                                                         CapSense_REGULAR_IIR_RC_N,
 801:Generated_Source\PSoC4/CapSense_Filter.c ****                                                         CapSense_REGULAR_IIR_RC_SHIFT);
 802:Generated_Source\PSoC4/CapSense_Filter.c ****                     ptrFilterHistObj.ptrRegular->regularChannel[channel].iirHistory = LO16(temp);
 803:Generated_Source\PSoC4/CapSense_Filter.c ****                     ptrSensorObj->raw[channel] = LO16(temp >>CapSense_REGULAR_IIR_RC_SHIFT);
 804:Generated_Source\PSoC4/CapSense_Filter.c ****                 #endif /* (CapSense_REGULAR_IIR_RC_TYPE == CapSense_IIR_FILTER_PERFORMANCE) */
 805:Generated_Source\PSoC4/CapSense_Filter.c ****             #endif /* (CapSense_REGULAR_SENSOR_EN) */    
 806:Generated_Source\PSoC4/CapSense_Filter.c ****         }
 807:Generated_Source\PSoC4/CapSense_Filter.c ****         else
 808:Generated_Source\PSoC4/CapSense_Filter.c ****         {
 809:Generated_Source\PSoC4/CapSense_Filter.c ****             #if (CapSense_PROXIMITY_SENSOR_EN && CapSense_PROX_RC_IIR_FILTER_EN)
 810:Generated_Source\PSoC4/CapSense_Filter.c ****                 #if (CapSense_PROX_IIR_RC_TYPE == CapSense_IIR_FILTER_PERFORMANCE)
 811:Generated_Source\PSoC4/CapSense_Filter.c ****                     temp =  ptrFilterHistObj.ptrProx->proxChannel[channel].iirHistory << CapSense_P
 812:Generated_Source\PSoC4/CapSense_Filter.c ****                     temp |= ptrFilterHistObj.ptrProx->proxChannel[channel].iirHistoryLow;
 813:Generated_Source\PSoC4/CapSense_Filter.c ****                     temp =CapSense_FtIIR1stOrder((uint32)ptrSensorObj->raw[channel],
 814:Generated_Source\PSoC4/CapSense_Filter.c ****                                                         temp,
 815:Generated_Source\PSoC4/CapSense_Filter.c ****                                                         CapSense_PROX_IIR_RC_N,
 816:Generated_Source\PSoC4/CapSense_Filter.c ****                                                         CapSense_PROX_IIR_RC_SHIFT);
 817:Generated_Source\PSoC4/CapSense_Filter.c ****                     ptrFilterHistObj.ptrProx->proxChannel[channel].iirHistory = LO16(temp >>CapSens
 818:Generated_Source\PSoC4/CapSense_Filter.c ****                     ptrFilterHistObj.ptrProx->proxChannel[channel].iirHistoryLow = LO8(temp);
 819:Generated_Source\PSoC4/CapSense_Filter.c ****                     ptrSensorObj->raw[channel] = LO16(temp >>CapSense_PROX_IIR_RC_SHIFT);
 820:Generated_Source\PSoC4/CapSense_Filter.c ****                 #else
 821:Generated_Source\PSoC4/CapSense_Filter.c ****                     temp =CapSense_FtIIR1stOrder((uint32)ptrSensorObj->raw[channel],
 822:Generated_Source\PSoC4/CapSense_Filter.c ****                                                         (uint32)ptrFilterHistObj.ptrProx->proxChann
 823:Generated_Source\PSoC4/CapSense_Filter.c ****                                                         CapSense_PROX_IIR_RC_N,
 824:Generated_Source\PSoC4/CapSense_Filter.c ****                                                         CapSense_PROX_IIR_RC_SHIFT);
 825:Generated_Source\PSoC4/CapSense_Filter.c ****                     ptrFilterHistObj.ptrProx->proxChannel[channel].iirHistory = LO16(temp);
 826:Generated_Source\PSoC4/CapSense_Filter.c ****                     ptrSensorObj->raw[channel] = LO16(temp >>CapSense_PROX_IIR_RC_SHIFT);
 827:Generated_Source\PSoC4/CapSense_Filter.c ****                 #endif /* (CapSense_PROX_IIR_RC_TYPE == CapSense_IIR_FILTER_PERFORMANCE) */
 828:Generated_Source\PSoC4/CapSense_Filter.c ****             #endif /* (CapSense_PROX_SENSOR_EN) */
 829:Generated_Source\PSoC4/CapSense_Filter.c ****         }    
 830:Generated_Source\PSoC4/CapSense_Filter.c ****     }        
 831:Generated_Source\PSoC4/CapSense_Filter.c **** }    
 832:Generated_Source\PSoC4/CapSense_Filter.c **** #endif /* #if (CapSense_REGULAR_RC_IIR_FILTER_EN || CapSense_PROX_RC_IIR_FILTER_EN) */
 833:Generated_Source\PSoC4/CapSense_Filter.c **** 
 834:Generated_Source\PSoC4/CapSense_Filter.c **** 
 835:Generated_Source\PSoC4/CapSense_Filter.c **** #if (CapSense_REGULAR_RC_MEDIAN_FILTER_EN || CapSense_PROX_RC_MEDIAN_FILTER_EN)
 836:Generated_Source\PSoC4/CapSense_Filter.c **** 
 837:Generated_Source\PSoC4/CapSense_Filter.c **** /*******************************************************************************
 838:Generated_Source\PSoC4/CapSense_Filter.c **** * Function Name: CapSense_InitializeMedian
 839:Generated_Source\PSoC4/CapSense_Filter.c **** ****************************************************************************//**
 840:Generated_Source\PSoC4/CapSense_Filter.c **** *
 841:Generated_Source\PSoC4/CapSense_Filter.c **** * \brief    Initializes the Median filter history.
 842:Generated_Source\PSoC4/CapSense_Filter.c **** *
 843:Generated_Source\PSoC4/CapSense_Filter.c **** * \details  Initializes the Median filter history.
 844:Generated_Source\PSoC4/CapSense_Filter.c **** *
 845:Generated_Source\PSoC4/CapSense_Filter.c **** * \param    widgetId Specifies the ID number of the widget.
 846:Generated_Source\PSoC4/CapSense_Filter.c **** * \param    sensorId Specifies the ID number of the sensor in the widget.
 847:Generated_Source\PSoC4/CapSense_Filter.c **** *
 848:Generated_Source\PSoC4/CapSense_Filter.c **** *******************************************************************************/
 849:Generated_Source\PSoC4/CapSense_Filter.c **** void CapSense_InitializeMedian(uint32 widgetId, uint32 sensorId)
 850:Generated_Source\PSoC4/CapSense_Filter.c **** {
 851:Generated_Source\PSoC4/CapSense_Filter.c ****     CapSense_FLASH_WD_STRUCT const *ptrWidget = &CapSense_dsFlash.wdgtArray[widgetId];      
ARM GAS  C:\Users\RD\AppData\Local\Temp\ccQZrPXd.s 			page 26


 852:Generated_Source\PSoC4/CapSense_Filter.c ****     CapSense_RAM_SNS_STRUCT *ptrSensor = NULL;    
 853:Generated_Source\PSoC4/CapSense_Filter.c ****     CapSense_PTR_FILTER_VARIANT ptrFilterHistObj; 
 854:Generated_Source\PSoC4/CapSense_Filter.c ****               
 855:Generated_Source\PSoC4/CapSense_Filter.c ****     /* Find pointer to specified sensor object */     
 856:Generated_Source\PSoC4/CapSense_Filter.c ****     ptrSensor = ptrWidget->ptr2SnsRam;
 857:Generated_Source\PSoC4/CapSense_Filter.c ****     ptrSensor = &ptrSensor[sensorId];
 858:Generated_Source\PSoC4/CapSense_Filter.c ****     
 859:Generated_Source\PSoC4/CapSense_Filter.c ****     /* Find pointer to specified filter sensor object */     
 860:Generated_Source\PSoC4/CapSense_Filter.c ****     ptrFilterHistObj.ptr = ptrWidget->ptr2FltrHistory;
 861:Generated_Source\PSoC4/CapSense_Filter.c ****     
 862:Generated_Source\PSoC4/CapSense_Filter.c ****     if ((CapSense_WD_TYPE_ENUM)ptrWidget->wdgtType != CapSense_WD_PROXIMITY_E)
 863:Generated_Source\PSoC4/CapSense_Filter.c ****     {
 864:Generated_Source\PSoC4/CapSense_Filter.c ****         #if (CapSense_REGULAR_SENSOR_EN)
 865:Generated_Source\PSoC4/CapSense_Filter.c ****             ptrFilterHistObj.ptrRegular = &ptrFilterHistObj.ptrRegular[sensorId];
 866:Generated_Source\PSoC4/CapSense_Filter.c ****         #endif /* (CapSense_REGULAR_SENSOR_EN) */
 867:Generated_Source\PSoC4/CapSense_Filter.c ****     }
 868:Generated_Source\PSoC4/CapSense_Filter.c ****     else
 869:Generated_Source\PSoC4/CapSense_Filter.c ****     {
 870:Generated_Source\PSoC4/CapSense_Filter.c ****         #if (CapSense_PROXIMITY_SENSOR_EN)
 871:Generated_Source\PSoC4/CapSense_Filter.c ****             ptrFilterHistObj.ptrProx = &ptrFilterHistObj.ptrProx[sensorId];
 872:Generated_Source\PSoC4/CapSense_Filter.c ****         #endif /* (CapSense_PROXIMITY_SENSOR_EN) */
 873:Generated_Source\PSoC4/CapSense_Filter.c ****     }
 874:Generated_Source\PSoC4/CapSense_Filter.c ****     
 875:Generated_Source\PSoC4/CapSense_Filter.c ****     CapSense_InitializeMedianInternal(ptrFilterHistObj, ptrSensor, (uint32)ptrWidget->wdgtType);
 876:Generated_Source\PSoC4/CapSense_Filter.c **** }     
 877:Generated_Source\PSoC4/CapSense_Filter.c **** 
 878:Generated_Source\PSoC4/CapSense_Filter.c **** 
 879:Generated_Source\PSoC4/CapSense_Filter.c **** /*******************************************************************************
 880:Generated_Source\PSoC4/CapSense_Filter.c **** * Function Name: CapSense_RunMedian
 881:Generated_Source\PSoC4/CapSense_Filter.c **** ****************************************************************************//**
 882:Generated_Source\PSoC4/CapSense_Filter.c **** *
 883:Generated_Source\PSoC4/CapSense_Filter.c **** * \brief    Executes the Median filter algorithm on a sensor indicated by an input 
 884:Generated_Source\PSoC4/CapSense_Filter.c **** *           parameter. 
 885:Generated_Source\PSoC4/CapSense_Filter.c **** *
 886:Generated_Source\PSoC4/CapSense_Filter.c **** * \details  Executes the Median filter algorithm on a sensor indicated by an input 
 887:Generated_Source\PSoC4/CapSense_Filter.c **** *           parameter. 
 888:Generated_Source\PSoC4/CapSense_Filter.c **** *
 889:Generated_Source\PSoC4/CapSense_Filter.c **** * \param    widgetId Specifies the ID number of the widget.
 890:Generated_Source\PSoC4/CapSense_Filter.c **** * \param    sensorId Specifies the ID number of the sensor in the widget.
 891:Generated_Source\PSoC4/CapSense_Filter.c **** *
 892:Generated_Source\PSoC4/CapSense_Filter.c **** *******************************************************************************/
 893:Generated_Source\PSoC4/CapSense_Filter.c **** void CapSense_RunMedian(uint32 widgetId, uint32 sensorId)
 894:Generated_Source\PSoC4/CapSense_Filter.c **** {
 895:Generated_Source\PSoC4/CapSense_Filter.c ****     CapSense_FLASH_WD_STRUCT const *ptrWidget = &CapSense_dsFlash.wdgtArray[widgetId];      
 896:Generated_Source\PSoC4/CapSense_Filter.c ****     CapSense_RAM_SNS_STRUCT *ptrSensor = NULL;    
 897:Generated_Source\PSoC4/CapSense_Filter.c ****     CapSense_PTR_FILTER_VARIANT ptrFilterHistObj; 
 898:Generated_Source\PSoC4/CapSense_Filter.c ****               
 899:Generated_Source\PSoC4/CapSense_Filter.c ****     /* Find pointer to specified sensor object */     
 900:Generated_Source\PSoC4/CapSense_Filter.c ****     ptrSensor = ptrWidget->ptr2SnsRam;
 901:Generated_Source\PSoC4/CapSense_Filter.c ****     ptrSensor = &ptrSensor[sensorId];
 902:Generated_Source\PSoC4/CapSense_Filter.c ****     
 903:Generated_Source\PSoC4/CapSense_Filter.c ****     /* Find pointer to specified filter sensor object */     
 904:Generated_Source\PSoC4/CapSense_Filter.c ****     ptrFilterHistObj.ptr = ptrWidget->ptr2FltrHistory;
 905:Generated_Source\PSoC4/CapSense_Filter.c ****     
 906:Generated_Source\PSoC4/CapSense_Filter.c ****     if ((CapSense_WD_TYPE_ENUM)ptrWidget->wdgtType != CapSense_WD_PROXIMITY_E)
 907:Generated_Source\PSoC4/CapSense_Filter.c ****     {
 908:Generated_Source\PSoC4/CapSense_Filter.c ****         #if (CapSense_REGULAR_SENSOR_EN)
ARM GAS  C:\Users\RD\AppData\Local\Temp\ccQZrPXd.s 			page 27


 909:Generated_Source\PSoC4/CapSense_Filter.c ****             ptrFilterHistObj.ptrRegular = &ptrFilterHistObj.ptrRegular[sensorId];
 910:Generated_Source\PSoC4/CapSense_Filter.c ****         #endif /* (CapSense_REGULAR_SENSOR_EN) */
 911:Generated_Source\PSoC4/CapSense_Filter.c ****     }
 912:Generated_Source\PSoC4/CapSense_Filter.c ****     else
 913:Generated_Source\PSoC4/CapSense_Filter.c ****     {
 914:Generated_Source\PSoC4/CapSense_Filter.c ****         #if (CapSense_PROXIMITY_SENSOR_EN)
 915:Generated_Source\PSoC4/CapSense_Filter.c ****             ptrFilterHistObj.ptrProx = &ptrFilterHistObj.ptrProx[sensorId];
 916:Generated_Source\PSoC4/CapSense_Filter.c ****         #endif /* (CapSense_PROXIMITY_SENSOR_EN) */
 917:Generated_Source\PSoC4/CapSense_Filter.c ****     }
 918:Generated_Source\PSoC4/CapSense_Filter.c ****     
 919:Generated_Source\PSoC4/CapSense_Filter.c ****     CapSense_RunMedianInternal(ptrFilterHistObj, ptrSensor, (uint32)ptrWidget->wdgtType);
 920:Generated_Source\PSoC4/CapSense_Filter.c **** }
 921:Generated_Source\PSoC4/CapSense_Filter.c ****    
 922:Generated_Source\PSoC4/CapSense_Filter.c **** 
 923:Generated_Source\PSoC4/CapSense_Filter.c **** /*******************************************************************************
 924:Generated_Source\PSoC4/CapSense_Filter.c **** * Function Name: CapSense_InitializeMedianInternal
 925:Generated_Source\PSoC4/CapSense_Filter.c **** ****************************************************************************//**
 926:Generated_Source\PSoC4/CapSense_Filter.c **** *
 927:Generated_Source\PSoC4/CapSense_Filter.c **** * \brief    Initializes the Median filter.
 928:Generated_Source\PSoC4/CapSense_Filter.c **** *
 929:Generated_Source\PSoC4/CapSense_Filter.c **** * \details  Initializes the Median filter.
 930:Generated_Source\PSoC4/CapSense_Filter.c **** *
 931:Generated_Source\PSoC4/CapSense_Filter.c **** * \param    ptrFilterHistObj The pointer to the filter RAM object of the sensor.
 932:Generated_Source\PSoC4/CapSense_Filter.c **** * \param    ptrSensorObj     The pointer to the sensor RAM object of the sensor.
 933:Generated_Source\PSoC4/CapSense_Filter.c **** * \param    wdType           Specifies the type of a widget.
 934:Generated_Source\PSoC4/CapSense_Filter.c **** *
 935:Generated_Source\PSoC4/CapSense_Filter.c **** *******************************************************************************/
 936:Generated_Source\PSoC4/CapSense_Filter.c **** void CapSense_InitializeMedianInternal(CapSense_PTR_FILTER_VARIANT ptrFilterHistObj,
 937:Generated_Source\PSoC4/CapSense_Filter.c ****                                                CapSense_RAM_SNS_STRUCT *ptrSensorObj, uint32 wdType
 938:Generated_Source\PSoC4/CapSense_Filter.c **** {
 939:Generated_Source\PSoC4/CapSense_Filter.c ****     uint32 channel;
 940:Generated_Source\PSoC4/CapSense_Filter.c **** 
 941:Generated_Source\PSoC4/CapSense_Filter.c ****     for(channel = CapSense_NUM_SCAN_FREQS; channel-- > 0u;)
 942:Generated_Source\PSoC4/CapSense_Filter.c ****     {
 943:Generated_Source\PSoC4/CapSense_Filter.c ****         if ((CapSense_WD_TYPE_ENUM)wdType != CapSense_WD_PROXIMITY_E)
 944:Generated_Source\PSoC4/CapSense_Filter.c ****         {
 945:Generated_Source\PSoC4/CapSense_Filter.c ****             #if (CapSense_REGULAR_SENSOR_EN && CapSense_REGULAR_RC_MEDIAN_FILTER_EN)
 946:Generated_Source\PSoC4/CapSense_Filter.c ****                 ptrFilterHistObj.ptrRegular->regularChannel[channel].medHistory[0u] = ptrSensorObj-
 947:Generated_Source\PSoC4/CapSense_Filter.c ****                 ptrFilterHistObj.ptrRegular->regularChannel[channel].medHistory[1u] = ptrSensorObj-
 948:Generated_Source\PSoC4/CapSense_Filter.c ****             #endif /* (CapSense_REGULAR_SENSOR_EN) */
 949:Generated_Source\PSoC4/CapSense_Filter.c ****         }
 950:Generated_Source\PSoC4/CapSense_Filter.c ****         else
 951:Generated_Source\PSoC4/CapSense_Filter.c ****         {
 952:Generated_Source\PSoC4/CapSense_Filter.c ****             #if (CapSense_PROXIMITY_SENSOR_EN && CapSense_PROX_RC_MEDIAN_FILTER_EN)
 953:Generated_Source\PSoC4/CapSense_Filter.c ****                 ptrFilterHistObj.ptrProx->proxChannel[channel].medHistory[0u] = ptrSensorObj->raw[c
 954:Generated_Source\PSoC4/CapSense_Filter.c ****                 ptrFilterHistObj.ptrProx->proxChannel[channel].medHistory[1u] = ptrSensorObj->raw[c
 955:Generated_Source\PSoC4/CapSense_Filter.c ****             #endif /* (CapSense_PROXIMITY_SENSOR_EN) */               
 956:Generated_Source\PSoC4/CapSense_Filter.c ****         }
 957:Generated_Source\PSoC4/CapSense_Filter.c ****     }
 958:Generated_Source\PSoC4/CapSense_Filter.c **** }
 959:Generated_Source\PSoC4/CapSense_Filter.c **** 
 960:Generated_Source\PSoC4/CapSense_Filter.c **** 
 961:Generated_Source\PSoC4/CapSense_Filter.c **** /*******************************************************************************
 962:Generated_Source\PSoC4/CapSense_Filter.c **** * Function Name: CapSense_RunMedianInternal
 963:Generated_Source\PSoC4/CapSense_Filter.c **** ****************************************************************************//**
 964:Generated_Source\PSoC4/CapSense_Filter.c **** *
 965:Generated_Source\PSoC4/CapSense_Filter.c **** * \brief    Runs the Median filter.
ARM GAS  C:\Users\RD\AppData\Local\Temp\ccQZrPXd.s 			page 28


 966:Generated_Source\PSoC4/CapSense_Filter.c **** *
 967:Generated_Source\PSoC4/CapSense_Filter.c **** * \details  Runs the Median filter.
 968:Generated_Source\PSoC4/CapSense_Filter.c **** *
 969:Generated_Source\PSoC4/CapSense_Filter.c **** * \param    ptrFilterHistObj The pointer to the filter RAM object of the sensor.
 970:Generated_Source\PSoC4/CapSense_Filter.c **** * \param    ptrSensorObj     The pointer to the sensor RAM object of the sensor.
 971:Generated_Source\PSoC4/CapSense_Filter.c **** * \param    wdType           Specifies the type of a widget.
 972:Generated_Source\PSoC4/CapSense_Filter.c **** *
 973:Generated_Source\PSoC4/CapSense_Filter.c **** *******************************************************************************/
 974:Generated_Source\PSoC4/CapSense_Filter.c **** void CapSense_RunMedianInternal(CapSense_PTR_FILTER_VARIANT ptrFilterHistObj,
 975:Generated_Source\PSoC4/CapSense_Filter.c ****                                         CapSense_RAM_SNS_STRUCT *ptrSensorObj, uint32 wdType)
 976:Generated_Source\PSoC4/CapSense_Filter.c **** {
 977:Generated_Source\PSoC4/CapSense_Filter.c ****     uint32 channel;
 978:Generated_Source\PSoC4/CapSense_Filter.c ****     
 979:Generated_Source\PSoC4/CapSense_Filter.c ****     #if ((CapSense_REGULAR_SENSOR_EN && CapSense_REGULAR_RC_MEDIAN_FILTER_EN) || \
 980:Generated_Source\PSoC4/CapSense_Filter.c ****          (CapSense_PROXIMITY_SENSOR_EN && CapSense_PROX_RC_MEDIAN_FILTER_EN))
 981:Generated_Source\PSoC4/CapSense_Filter.c ****         uint32 temp;
 982:Generated_Source\PSoC4/CapSense_Filter.c ****     #endif
 983:Generated_Source\PSoC4/CapSense_Filter.c ****     
 984:Generated_Source\PSoC4/CapSense_Filter.c ****     for(channel = CapSense_NUM_SCAN_FREQS; channel-- > 0u;)
 985:Generated_Source\PSoC4/CapSense_Filter.c ****     {    
 986:Generated_Source\PSoC4/CapSense_Filter.c ****         if ((CapSense_WD_TYPE_ENUM)wdType != CapSense_WD_PROXIMITY_E)
 987:Generated_Source\PSoC4/CapSense_Filter.c ****         {                                             
 988:Generated_Source\PSoC4/CapSense_Filter.c ****             #if (CapSense_REGULAR_SENSOR_EN && CapSense_REGULAR_RC_MEDIAN_FILTER_EN)
 989:Generated_Source\PSoC4/CapSense_Filter.c ****                 temp = CapSense_FtMedian((uint32)ptrSensorObj->raw[channel],\
 990:Generated_Source\PSoC4/CapSense_Filter.c ****                                                  (uint32)ptrFilterHistObj.ptrRegular->regularChanne
 991:Generated_Source\PSoC4/CapSense_Filter.c ****                                                  (uint32)ptrFilterHistObj.ptrRegular->regularChanne
 992:Generated_Source\PSoC4/CapSense_Filter.c ****                 ptrFilterHistObj.ptrRegular->regularChannel[channel].medHistory[1u] = \
 993:Generated_Source\PSoC4/CapSense_Filter.c ****                 ptrFilterHistObj.ptrRegular->regularChannel[channel].medHistory[0u];
 994:Generated_Source\PSoC4/CapSense_Filter.c ****                 ptrFilterHistObj.ptrRegular->regularChannel[channel].medHistory[0u] = ptrSensorObj-
 995:Generated_Source\PSoC4/CapSense_Filter.c ****                 ptrSensorObj->raw[channel] = LO16(temp);
 996:Generated_Source\PSoC4/CapSense_Filter.c ****             #endif /* (CapSense_REGULAR_SENSOR_EN) */     
 997:Generated_Source\PSoC4/CapSense_Filter.c ****         }
 998:Generated_Source\PSoC4/CapSense_Filter.c ****         else 
 999:Generated_Source\PSoC4/CapSense_Filter.c ****         {                   
1000:Generated_Source\PSoC4/CapSense_Filter.c ****             #if (CapSense_PROXIMITY_SENSOR_EN && CapSense_PROX_RC_MEDIAN_FILTER_EN)
1001:Generated_Source\PSoC4/CapSense_Filter.c ****                 temp = CapSense_FtMedian((uint32)ptrSensorObj->raw[channel],\
1002:Generated_Source\PSoC4/CapSense_Filter.c ****                                                  (uint32)ptrFilterHistObj.ptrProx->proxChannel[chan
1003:Generated_Source\PSoC4/CapSense_Filter.c ****                                                  (uint32)ptrFilterHistObj.ptrProx->proxChannel[chan
1004:Generated_Source\PSoC4/CapSense_Filter.c ****                 ptrFilterHistObj.ptrProx->proxChannel[channel].medHistory[1u] = \
1005:Generated_Source\PSoC4/CapSense_Filter.c ****                 ptrFilterHistObj.ptrProx->proxChannel[channel].medHistory[0u];
1006:Generated_Source\PSoC4/CapSense_Filter.c ****                 ptrFilterHistObj.ptrProx->proxChannel[channel].medHistory[0u] = ptrSensorObj->raw[c
1007:Generated_Source\PSoC4/CapSense_Filter.c ****                 ptrSensorObj->raw[channel] = LO16(temp);
1008:Generated_Source\PSoC4/CapSense_Filter.c ****             #endif /* (CapSense_PROXIMITY_SENSOR_EN) */               
1009:Generated_Source\PSoC4/CapSense_Filter.c ****         }
1010:Generated_Source\PSoC4/CapSense_Filter.c ****     }
1011:Generated_Source\PSoC4/CapSense_Filter.c **** }
1012:Generated_Source\PSoC4/CapSense_Filter.c **** #endif /* (CapSense_REGULAR_RC_MEDIAN_FILTER_EN || CapSense_PROX_RC_MEDIAN_FILTER_EN) */
1013:Generated_Source\PSoC4/CapSense_Filter.c **** 
1014:Generated_Source\PSoC4/CapSense_Filter.c **** 
1015:Generated_Source\PSoC4/CapSense_Filter.c **** #if (CapSense_REGULAR_RC_AVERAGE_FILTER_EN || CapSense_PROX_RC_AVERAGE_FILTER_EN)
1016:Generated_Source\PSoC4/CapSense_Filter.c **** 
1017:Generated_Source\PSoC4/CapSense_Filter.c **** /*******************************************************************************
1018:Generated_Source\PSoC4/CapSense_Filter.c **** * Function Name: CapSense_InitializeAverage
1019:Generated_Source\PSoC4/CapSense_Filter.c **** ****************************************************************************//**
1020:Generated_Source\PSoC4/CapSense_Filter.c **** *
1021:Generated_Source\PSoC4/CapSense_Filter.c **** * \brief    Initializes the average filter history.
1022:Generated_Source\PSoC4/CapSense_Filter.c **** *
ARM GAS  C:\Users\RD\AppData\Local\Temp\ccQZrPXd.s 			page 29


1023:Generated_Source\PSoC4/CapSense_Filter.c **** * \details  Initializes the average filter history.
1024:Generated_Source\PSoC4/CapSense_Filter.c **** *
1025:Generated_Source\PSoC4/CapSense_Filter.c **** * \param    widgetId Specifies the ID number of the widget.
1026:Generated_Source\PSoC4/CapSense_Filter.c **** * \param    sensorId Specifies the ID number of the sensor in the widget.
1027:Generated_Source\PSoC4/CapSense_Filter.c **** *
1028:Generated_Source\PSoC4/CapSense_Filter.c **** *******************************************************************************/
1029:Generated_Source\PSoC4/CapSense_Filter.c **** void CapSense_InitializeAverage(uint32 widgetId, uint32 sensorId)
1030:Generated_Source\PSoC4/CapSense_Filter.c **** {
1031:Generated_Source\PSoC4/CapSense_Filter.c ****     CapSense_FLASH_WD_STRUCT const *ptrWidget = &CapSense_dsFlash.wdgtArray[widgetId];      
1032:Generated_Source\PSoC4/CapSense_Filter.c ****     CapSense_RAM_SNS_STRUCT *ptrSensor = NULL;
1033:Generated_Source\PSoC4/CapSense_Filter.c ****     CapSense_PTR_FILTER_VARIANT ptrFilterHistObj;
1034:Generated_Source\PSoC4/CapSense_Filter.c **** 
1035:Generated_Source\PSoC4/CapSense_Filter.c ****     /* Find pointer to specified sensor object */
1036:Generated_Source\PSoC4/CapSense_Filter.c ****     ptrSensor = ptrWidget->ptr2SnsRam;
1037:Generated_Source\PSoC4/CapSense_Filter.c ****     ptrSensor = &ptrSensor[sensorId];
1038:Generated_Source\PSoC4/CapSense_Filter.c ****     
1039:Generated_Source\PSoC4/CapSense_Filter.c ****     /* Find pointer to specified filter sensor object */
1040:Generated_Source\PSoC4/CapSense_Filter.c ****     ptrFilterHistObj.ptr = ptrWidget->ptr2FltrHistory;
1041:Generated_Source\PSoC4/CapSense_Filter.c **** 
1042:Generated_Source\PSoC4/CapSense_Filter.c ****     if ((CapSense_WD_TYPE_ENUM)ptrWidget->wdgtType != CapSense_WD_PROXIMITY_E)
1043:Generated_Source\PSoC4/CapSense_Filter.c ****     {
1044:Generated_Source\PSoC4/CapSense_Filter.c ****         #if (CapSense_REGULAR_SENSOR_EN)
1045:Generated_Source\PSoC4/CapSense_Filter.c ****             ptrFilterHistObj.ptrRegular = &ptrFilterHistObj.ptrRegular[sensorId];
1046:Generated_Source\PSoC4/CapSense_Filter.c ****         #endif /* (CapSense_REGULAR_SENSOR_EN) */
1047:Generated_Source\PSoC4/CapSense_Filter.c ****     }
1048:Generated_Source\PSoC4/CapSense_Filter.c ****     else
1049:Generated_Source\PSoC4/CapSense_Filter.c ****     {
1050:Generated_Source\PSoC4/CapSense_Filter.c ****         #if (CapSense_PROXIMITY_SENSOR_EN)
1051:Generated_Source\PSoC4/CapSense_Filter.c ****             ptrFilterHistObj.ptrProx = &ptrFilterHistObj.ptrProx[sensorId];
1052:Generated_Source\PSoC4/CapSense_Filter.c ****         #endif /* (CapSense_PROXIMITY_SENSOR_EN) */
1053:Generated_Source\PSoC4/CapSense_Filter.c ****     }
1054:Generated_Source\PSoC4/CapSense_Filter.c **** 
1055:Generated_Source\PSoC4/CapSense_Filter.c ****     CapSense_InitializeAverageInternal(ptrFilterHistObj, ptrSensor, (uint32)ptrWidget->wdgtType);
1056:Generated_Source\PSoC4/CapSense_Filter.c **** }
1057:Generated_Source\PSoC4/CapSense_Filter.c **** 
1058:Generated_Source\PSoC4/CapSense_Filter.c **** 
1059:Generated_Source\PSoC4/CapSense_Filter.c **** /*******************************************************************************
1060:Generated_Source\PSoC4/CapSense_Filter.c **** * Function Name: CapSense_RunAverage
1061:Generated_Source\PSoC4/CapSense_Filter.c **** ****************************************************************************//**
1062:Generated_Source\PSoC4/CapSense_Filter.c **** *
1063:Generated_Source\PSoC4/CapSense_Filter.c **** * \brief    Executes the average filter algorithm on a sensor indicated by an input 
1064:Generated_Source\PSoC4/CapSense_Filter.c **** *           parameter. 
1065:Generated_Source\PSoC4/CapSense_Filter.c **** *
1066:Generated_Source\PSoC4/CapSense_Filter.c **** * \details  Executes the average filter algorithm on a sensor indicated by an input 
1067:Generated_Source\PSoC4/CapSense_Filter.c **** *           parameter. 
1068:Generated_Source\PSoC4/CapSense_Filter.c **** *
1069:Generated_Source\PSoC4/CapSense_Filter.c **** * \param    widgetId Specifies the ID number of the widget.
1070:Generated_Source\PSoC4/CapSense_Filter.c **** * \param    sensorId Specifies the ID number of the sensor in the widget.
1071:Generated_Source\PSoC4/CapSense_Filter.c **** *
1072:Generated_Source\PSoC4/CapSense_Filter.c **** *******************************************************************************/
1073:Generated_Source\PSoC4/CapSense_Filter.c **** void CapSense_RunAverage(uint32 widgetId, uint32 sensorId)
1074:Generated_Source\PSoC4/CapSense_Filter.c **** {
1075:Generated_Source\PSoC4/CapSense_Filter.c ****     CapSense_FLASH_WD_STRUCT const *ptrWidget = &CapSense_dsFlash.wdgtArray[widgetId];      
1076:Generated_Source\PSoC4/CapSense_Filter.c ****     CapSense_RAM_SNS_STRUCT *ptrSensor = NULL;    
1077:Generated_Source\PSoC4/CapSense_Filter.c ****     CapSense_PTR_FILTER_VARIANT ptrFilterHistObj; 
1078:Generated_Source\PSoC4/CapSense_Filter.c ****               
1079:Generated_Source\PSoC4/CapSense_Filter.c ****     /* Find pointer to specified sensor object */     
ARM GAS  C:\Users\RD\AppData\Local\Temp\ccQZrPXd.s 			page 30


1080:Generated_Source\PSoC4/CapSense_Filter.c ****     ptrSensor = ptrWidget->ptr2SnsRam;
1081:Generated_Source\PSoC4/CapSense_Filter.c ****     ptrSensor = &ptrSensor[sensorId];
1082:Generated_Source\PSoC4/CapSense_Filter.c ****     
1083:Generated_Source\PSoC4/CapSense_Filter.c ****     /* Find pointer to specified filter sensor object */     
1084:Generated_Source\PSoC4/CapSense_Filter.c ****     ptrFilterHistObj.ptr = ptrWidget->ptr2FltrHistory;
1085:Generated_Source\PSoC4/CapSense_Filter.c ****     
1086:Generated_Source\PSoC4/CapSense_Filter.c ****     if ((CapSense_WD_TYPE_ENUM)ptrWidget->wdgtType != CapSense_WD_PROXIMITY_E)
1087:Generated_Source\PSoC4/CapSense_Filter.c ****     {
1088:Generated_Source\PSoC4/CapSense_Filter.c ****         #if (CapSense_REGULAR_SENSOR_EN)
1089:Generated_Source\PSoC4/CapSense_Filter.c ****             ptrFilterHistObj.ptrRegular = &ptrFilterHistObj.ptrRegular[sensorId];
1090:Generated_Source\PSoC4/CapSense_Filter.c ****         #endif /* (CapSense_REGULAR_SENSOR_EN) */
1091:Generated_Source\PSoC4/CapSense_Filter.c ****     }
1092:Generated_Source\PSoC4/CapSense_Filter.c ****     else
1093:Generated_Source\PSoC4/CapSense_Filter.c ****     {
1094:Generated_Source\PSoC4/CapSense_Filter.c ****         #if (CapSense_PROXIMITY_SENSOR_EN)
1095:Generated_Source\PSoC4/CapSense_Filter.c ****             ptrFilterHistObj.ptrProx = &ptrFilterHistObj.ptrProx[sensorId];
1096:Generated_Source\PSoC4/CapSense_Filter.c ****         #endif /* (CapSense_PROXIMITY_SENSOR_EN) */
1097:Generated_Source\PSoC4/CapSense_Filter.c ****     }
1098:Generated_Source\PSoC4/CapSense_Filter.c ****     
1099:Generated_Source\PSoC4/CapSense_Filter.c ****     CapSense_RunAverageInternal(ptrFilterHistObj, ptrSensor, (uint32)ptrWidget->wdgtType);
1100:Generated_Source\PSoC4/CapSense_Filter.c **** }
1101:Generated_Source\PSoC4/CapSense_Filter.c **** 
1102:Generated_Source\PSoC4/CapSense_Filter.c **** 
1103:Generated_Source\PSoC4/CapSense_Filter.c **** /*******************************************************************************
1104:Generated_Source\PSoC4/CapSense_Filter.c **** * Function Name: CapSense_InitializeAverageInternal
1105:Generated_Source\PSoC4/CapSense_Filter.c **** ****************************************************************************//**
1106:Generated_Source\PSoC4/CapSense_Filter.c **** *
1107:Generated_Source\PSoC4/CapSense_Filter.c **** * \brief    Initializes the average filter.
1108:Generated_Source\PSoC4/CapSense_Filter.c **** *
1109:Generated_Source\PSoC4/CapSense_Filter.c **** * \details  Initializes the average filter.
1110:Generated_Source\PSoC4/CapSense_Filter.c **** *
1111:Generated_Source\PSoC4/CapSense_Filter.c **** * \param    ptrFilterHistObj The pointer to the filter RAM object of the sensor.
1112:Generated_Source\PSoC4/CapSense_Filter.c **** * \param    ptrSensorObj     The pointer to the sensor RAM object of the sensor.
1113:Generated_Source\PSoC4/CapSense_Filter.c **** * \param    wdType           Specifies the type of a widget.
1114:Generated_Source\PSoC4/CapSense_Filter.c **** *
1115:Generated_Source\PSoC4/CapSense_Filter.c **** *******************************************************************************/
1116:Generated_Source\PSoC4/CapSense_Filter.c **** void CapSense_InitializeAverageInternal(CapSense_PTR_FILTER_VARIANT ptrFilterHistObj,\
1117:Generated_Source\PSoC4/CapSense_Filter.c ****                                                   CapSense_RAM_SNS_STRUCT *ptrSensorObj, uint32 wdT
1118:Generated_Source\PSoC4/CapSense_Filter.c **** {
1119:Generated_Source\PSoC4/CapSense_Filter.c ****     uint32 channel;
1120:Generated_Source\PSoC4/CapSense_Filter.c **** 
1121:Generated_Source\PSoC4/CapSense_Filter.c ****     for(channel = CapSense_NUM_SCAN_FREQS; channel-- > 0u;)
1122:Generated_Source\PSoC4/CapSense_Filter.c ****     {
1123:Generated_Source\PSoC4/CapSense_Filter.c ****         if ((CapSense_WD_TYPE_ENUM)wdType != CapSense_WD_PROXIMITY_E)
1124:Generated_Source\PSoC4/CapSense_Filter.c ****         {
1125:Generated_Source\PSoC4/CapSense_Filter.c ****             #if (CapSense_REGULAR_SENSOR_EN && CapSense_REGULAR_RC_AVERAGE_FILTER_EN)
1126:Generated_Source\PSoC4/CapSense_Filter.c ****                 ptrFilterHistObj.ptrRegular->regularChannel[channel].avgHistory[0] = ptrSensorObj->
1127:Generated_Source\PSoC4/CapSense_Filter.c ****                 #if (CapSense_REGULAR_AVERAGE_LEN == CapSense_AVERAGE_FILTER_LEN_4)
1128:Generated_Source\PSoC4/CapSense_Filter.c ****                     ptrFilterHistObj.ptrRegular->regularChannel[channel].avgHistory[1u] = ptrSensor
1129:Generated_Source\PSoC4/CapSense_Filter.c ****                     ptrFilterHistObj.ptrRegular->regularChannel[channel].avgHistory[2u] = ptrSensor
1130:Generated_Source\PSoC4/CapSense_Filter.c ****                 #endif /* CapSense_REGULAR_AVERAGE_LEN == CapSense_AVERAGE_FILTER_LEN_4 */
1131:Generated_Source\PSoC4/CapSense_Filter.c ****             #endif /* (CapSense_REGULAR_SENSOR_EN) */      
1132:Generated_Source\PSoC4/CapSense_Filter.c ****         }
1133:Generated_Source\PSoC4/CapSense_Filter.c ****         else
1134:Generated_Source\PSoC4/CapSense_Filter.c ****         {
1135:Generated_Source\PSoC4/CapSense_Filter.c ****             #if (CapSense_PROXIMITY_SENSOR_EN && CapSense_PROX_RC_AVERAGE_FILTER_EN)
1136:Generated_Source\PSoC4/CapSense_Filter.c ****                 ptrFilterHistObj.ptrProx->proxChannel[channel].avgHistory[0] = ptrSensorObj->raw[ch
ARM GAS  C:\Users\RD\AppData\Local\Temp\ccQZrPXd.s 			page 31


1137:Generated_Source\PSoC4/CapSense_Filter.c ****                     #if (CapSense_PROX_AVERAGE_LEN == CapSense_AVERAGE_FILTER_LEN_4)
1138:Generated_Source\PSoC4/CapSense_Filter.c ****                         ptrFilterHistObj.ptrProx->proxChannel[channel].avgHistory[1u] = ptrSensorOb
1139:Generated_Source\PSoC4/CapSense_Filter.c ****                         ptrFilterHistObj.ptrProx->proxChannel[channel].avgHistory[2u] = ptrSensorOb
1140:Generated_Source\PSoC4/CapSense_Filter.c ****                     #endif /* CapSense_REGULAR_AVERAGE_LEN == CapSense_AVERAGE_FILTER_LEN_4 */
1141:Generated_Source\PSoC4/CapSense_Filter.c ****             #endif /* (CapSense_PROXIMITY_SENSOR_EN) */
1142:Generated_Source\PSoC4/CapSense_Filter.c ****         }
1143:Generated_Source\PSoC4/CapSense_Filter.c ****     }
1144:Generated_Source\PSoC4/CapSense_Filter.c **** }
1145:Generated_Source\PSoC4/CapSense_Filter.c **** 
1146:Generated_Source\PSoC4/CapSense_Filter.c **** 
1147:Generated_Source\PSoC4/CapSense_Filter.c **** /*******************************************************************************
1148:Generated_Source\PSoC4/CapSense_Filter.c **** * Function Name: CapSense_RunAverageInternal
1149:Generated_Source\PSoC4/CapSense_Filter.c **** ****************************************************************************//**
1150:Generated_Source\PSoC4/CapSense_Filter.c **** *
1151:Generated_Source\PSoC4/CapSense_Filter.c **** * \brief    Runs the average filter.
1152:Generated_Source\PSoC4/CapSense_Filter.c **** *
1153:Generated_Source\PSoC4/CapSense_Filter.c **** * \details  Runs the average filter.
1154:Generated_Source\PSoC4/CapSense_Filter.c **** *
1155:Generated_Source\PSoC4/CapSense_Filter.c **** * \param    ptrFilterHistObj The pointer to the filter RAM object of the sensor.
1156:Generated_Source\PSoC4/CapSense_Filter.c **** * \param    ptrSensorObj     The pointer to the sensor RAM object of the sensor.
1157:Generated_Source\PSoC4/CapSense_Filter.c **** * \param    wdType           Specifies the type of a widget.
1158:Generated_Source\PSoC4/CapSense_Filter.c **** *
1159:Generated_Source\PSoC4/CapSense_Filter.c **** *******************************************************************************/
1160:Generated_Source\PSoC4/CapSense_Filter.c **** void CapSense_RunAverageInternal(CapSense_PTR_FILTER_VARIANT ptrFilterHistObj,\
1161:Generated_Source\PSoC4/CapSense_Filter.c ****                                            CapSense_RAM_SNS_STRUCT *ptrSensorObj, uint32 wdType)
1162:Generated_Source\PSoC4/CapSense_Filter.c **** {
1163:Generated_Source\PSoC4/CapSense_Filter.c ****     uint32 channel;
1164:Generated_Source\PSoC4/CapSense_Filter.c ****     uint32 temp;
1165:Generated_Source\PSoC4/CapSense_Filter.c **** 
1166:Generated_Source\PSoC4/CapSense_Filter.c ****     for(channel = CapSense_NUM_SCAN_FREQS; channel-- > 0u;)
1167:Generated_Source\PSoC4/CapSense_Filter.c ****     {
1168:Generated_Source\PSoC4/CapSense_Filter.c ****         if ((CapSense_WD_TYPE_ENUM)wdType != CapSense_WD_PROXIMITY_E)
1169:Generated_Source\PSoC4/CapSense_Filter.c ****         {
1170:Generated_Source\PSoC4/CapSense_Filter.c ****             #if (CapSense_REGULAR_SENSOR_EN && CapSense_REGULAR_RC_AVERAGE_FILTER_EN)
1171:Generated_Source\PSoC4/CapSense_Filter.c ****                 #if (CapSense_REGULAR_AVERAGE_LEN == CapSense_AVERAGE_FILTER_LEN_2)
1172:Generated_Source\PSoC4/CapSense_Filter.c ****                     temp = ((uint32)ptrSensorObj->raw[channel] + 
1173:Generated_Source\PSoC4/CapSense_Filter.c ****                             (uint32)ptrFilterHistObj.ptrRegular->regularChannel[channel].avgHistory
1174:Generated_Source\PSoC4/CapSense_Filter.c ****                     ptrFilterHistObj.ptrRegular->regularChannel[channel].avgHistory[0] = ptrSensorO
1175:Generated_Source\PSoC4/CapSense_Filter.c ****                     ptrSensorObj->raw[channel] = LO16(temp);
1176:Generated_Source\PSoC4/CapSense_Filter.c ****                 #else
1177:Generated_Source\PSoC4/CapSense_Filter.c ****                     temp = ((uint32)ptrSensorObj->raw[channel] + 
1178:Generated_Source\PSoC4/CapSense_Filter.c ****                             (uint32)ptrFilterHistObj.ptrRegular->regularChannel[channel].avgHistory
1179:Generated_Source\PSoC4/CapSense_Filter.c ****                             (uint32)ptrFilterHistObj.ptrRegular->regularChannel[channel].avgHistory
1180:Generated_Source\PSoC4/CapSense_Filter.c ****                             (uint32)ptrFilterHistObj.ptrRegular->regularChannel[channel].avgHistory
1181:Generated_Source\PSoC4/CapSense_Filter.c **** 
1182:Generated_Source\PSoC4/CapSense_Filter.c ****                     ptrFilterHistObj.ptrRegular->regularChannel[channel].avgHistory[2u] =
1183:Generated_Source\PSoC4/CapSense_Filter.c ****                     ptrFilterHistObj.ptrRegular->regularChannel[channel].avgHistory[1u];
1184:Generated_Source\PSoC4/CapSense_Filter.c ****                     ptrFilterHistObj.ptrRegular->regularChannel[channel].avgHistory[1u] =
1185:Generated_Source\PSoC4/CapSense_Filter.c ****                     ptrFilterHistObj.ptrRegular->regularChannel[channel].avgHistory[0];
1186:Generated_Source\PSoC4/CapSense_Filter.c ****                     ptrFilterHistObj.ptrRegular->regularChannel[channel].avgHistory[0] = ptrSensorO
1187:Generated_Source\PSoC4/CapSense_Filter.c ****                     ptrSensorObj->raw[channel] = LO16(temp);
1188:Generated_Source\PSoC4/CapSense_Filter.c ****                 #endif /* CapSense_REGULAR_AVERAGE_LEN == CapSense_AVERAGE_FILTER_LEN_4 */
1189:Generated_Source\PSoC4/CapSense_Filter.c ****             #endif /* (CapSense_REGULAR_SENSOR_EN) */
1190:Generated_Source\PSoC4/CapSense_Filter.c ****         }
1191:Generated_Source\PSoC4/CapSense_Filter.c ****         else 
1192:Generated_Source\PSoC4/CapSense_Filter.c ****         {
1193:Generated_Source\PSoC4/CapSense_Filter.c ****             #if (CapSense_PROXIMITY_SENSOR_EN && CapSense_PROX_RC_AVERAGE_FILTER_EN)
ARM GAS  C:\Users\RD\AppData\Local\Temp\ccQZrPXd.s 			page 32


1194:Generated_Source\PSoC4/CapSense_Filter.c ****                 #if (CapSense_PROX_AVERAGE_LEN == CapSense_AVERAGE_FILTER_LEN_2)     
1195:Generated_Source\PSoC4/CapSense_Filter.c ****                     temp = ((uint32)ptrSensorObj->raw[channel] + 
1196:Generated_Source\PSoC4/CapSense_Filter.c ****                             (uint32)ptrFilterHistObj.ptrProx->proxChannel[channel].avgHistory[0]) >
1197:Generated_Source\PSoC4/CapSense_Filter.c ****                     ptrFilterHistObj.ptrProx->proxChannel[channel].avgHistory[0] = ptrSensorObj->ra
1198:Generated_Source\PSoC4/CapSense_Filter.c ****                     ptrSensorObj->raw[channel] = LO16(temp);
1199:Generated_Source\PSoC4/CapSense_Filter.c ****                 #else
1200:Generated_Source\PSoC4/CapSense_Filter.c ****                     temp = ((uint32)ptrSensorObj->raw[channel] + 
1201:Generated_Source\PSoC4/CapSense_Filter.c ****                             (uint32)ptrFilterHistObj.ptrProx->proxChannel[channel].avgHistory[0] +
1202:Generated_Source\PSoC4/CapSense_Filter.c ****                             (uint32)ptrFilterHistObj.ptrProx->proxChannel[channel].avgHistory[1u] +
1203:Generated_Source\PSoC4/CapSense_Filter.c ****                             (uint32)ptrFilterHistObj.ptrProx->proxChannel[channel].avgHistory[2u]) 
1204:Generated_Source\PSoC4/CapSense_Filter.c ****                     
1205:Generated_Source\PSoC4/CapSense_Filter.c ****                     ptrFilterHistObj.ptrProx->proxChannel[channel].avgHistory[2u] =
1206:Generated_Source\PSoC4/CapSense_Filter.c ****                     ptrFilterHistObj.ptrProx->proxChannel[channel].avgHistory[1u];
1207:Generated_Source\PSoC4/CapSense_Filter.c ****                     ptrFilterHistObj.ptrProx->proxChannel[channel].avgHistory[1u] =
1208:Generated_Source\PSoC4/CapSense_Filter.c ****                     ptrFilterHistObj.ptrProx->proxChannel[channel].avgHistory[0];
1209:Generated_Source\PSoC4/CapSense_Filter.c ****                     ptrFilterHistObj.ptrProx->proxChannel[channel].avgHistory[0] = ptrSensorObj->ra
1210:Generated_Source\PSoC4/CapSense_Filter.c ****                     ptrSensorObj->raw[channel] = LO16(temp);
1211:Generated_Source\PSoC4/CapSense_Filter.c ****                 #endif /* CapSense_PROX_AVERAGE_LEN == CapSense_AVERAGE_FILTER_LEN_4 */
1212:Generated_Source\PSoC4/CapSense_Filter.c ****             #endif /* (CapSense_PROXIMITY_SENSOR_EN) */
1213:Generated_Source\PSoC4/CapSense_Filter.c ****         }
1214:Generated_Source\PSoC4/CapSense_Filter.c ****     }
1215:Generated_Source\PSoC4/CapSense_Filter.c **** }
1216:Generated_Source\PSoC4/CapSense_Filter.c **** #endif /* (CapSense_REGULAR_RC_AVERAGE_FILTER_EN || CapSense_PROX_RC_AVERAGE_FILTER_EN) */
1217:Generated_Source\PSoC4/CapSense_Filter.c **** 
1218:Generated_Source\PSoC4/CapSense_Filter.c **** 
1219:Generated_Source\PSoC4/CapSense_Filter.c **** #if ((CapSense_REGULAR_RC_FILTER_EN || CapSense_PROX_RC_FILTER_EN))
1220:Generated_Source\PSoC4/CapSense_Filter.c **** /*******************************************************************************
1221:Generated_Source\PSoC4/CapSense_Filter.c **** * Function Name: CapSense_FtRunEnabledFilters
1222:Generated_Source\PSoC4/CapSense_Filter.c **** ****************************************************************************//**
1223:Generated_Source\PSoC4/CapSense_Filter.c **** *
1224:Generated_Source\PSoC4/CapSense_Filter.c **** * \brief    Runs all enabled filters.
1225:Generated_Source\PSoC4/CapSense_Filter.c **** *
1226:Generated_Source\PSoC4/CapSense_Filter.c **** * \details  Runs all enabled filters.
1227:Generated_Source\PSoC4/CapSense_Filter.c **** *
1228:Generated_Source\PSoC4/CapSense_Filter.c **** * \param    widgetId Specifies the ID number of a widget to update the IIR filter history.*
1229:Generated_Source\PSoC4/CapSense_Filter.c **** * \param    sensorId Specifies the ID number of a sensor in the widget to update the IIR 
1230:Generated_Source\PSoC4/CapSense_Filter.c **** *           filter history.
1231:Generated_Source\PSoC4/CapSense_Filter.c **** *
1232:Generated_Source\PSoC4/CapSense_Filter.c **** *******************************************************************************/
1233:Generated_Source\PSoC4/CapSense_Filter.c **** void CapSense_FtRunEnabledFilters(uint32 widgetId, uint32 sensorId)
1234:Generated_Source\PSoC4/CapSense_Filter.c **** {
1235:Generated_Source\PSoC4/CapSense_Filter.c ****     CapSense_FLASH_WD_STRUCT const *ptrWidget = &CapSense_dsFlash.wdgtArray[widgetId];      
1236:Generated_Source\PSoC4/CapSense_Filter.c ****     CapSense_RAM_SNS_STRUCT *ptrSensor = NULL;    
1237:Generated_Source\PSoC4/CapSense_Filter.c ****     CapSense_PTR_FILTER_VARIANT ptrFilterHistObj; 
1238:Generated_Source\PSoC4/CapSense_Filter.c ****               
1239:Generated_Source\PSoC4/CapSense_Filter.c ****     /* Find pointer to specified sensor object */     
1240:Generated_Source\PSoC4/CapSense_Filter.c ****     ptrSensor = ptrWidget->ptr2SnsRam;
1241:Generated_Source\PSoC4/CapSense_Filter.c ****     ptrSensor = &ptrSensor[sensorId];
1242:Generated_Source\PSoC4/CapSense_Filter.c ****     
1243:Generated_Source\PSoC4/CapSense_Filter.c ****     /* Find pointer to specified filter sensor object */     
1244:Generated_Source\PSoC4/CapSense_Filter.c ****     ptrFilterHistObj.ptr = ptrWidget->ptr2FltrHistory;
1245:Generated_Source\PSoC4/CapSense_Filter.c ****     
1246:Generated_Source\PSoC4/CapSense_Filter.c ****     if ((CapSense_WD_TYPE_ENUM)ptrWidget->wdgtType != CapSense_WD_PROXIMITY_E)
1247:Generated_Source\PSoC4/CapSense_Filter.c ****     {
1248:Generated_Source\PSoC4/CapSense_Filter.c ****         #if (CapSense_REGULAR_SENSOR_EN)
1249:Generated_Source\PSoC4/CapSense_Filter.c ****             ptrFilterHistObj.ptrRegular = &ptrFilterHistObj.ptrRegular[sensorId];
1250:Generated_Source\PSoC4/CapSense_Filter.c ****         #endif /* (CapSense_REGULAR_SENSOR_EN) */
ARM GAS  C:\Users\RD\AppData\Local\Temp\ccQZrPXd.s 			page 33


1251:Generated_Source\PSoC4/CapSense_Filter.c ****     }
1252:Generated_Source\PSoC4/CapSense_Filter.c ****     else
1253:Generated_Source\PSoC4/CapSense_Filter.c ****     {
1254:Generated_Source\PSoC4/CapSense_Filter.c ****         #if (CapSense_PROXIMITY_SENSOR_EN)
1255:Generated_Source\PSoC4/CapSense_Filter.c ****             ptrFilterHistObj.ptrProx = &ptrFilterHistObj.ptrProx[sensorId];
1256:Generated_Source\PSoC4/CapSense_Filter.c ****         #endif /* (CapSense_PROXIMITY_SENSOR_EN) */
1257:Generated_Source\PSoC4/CapSense_Filter.c ****     }
1258:Generated_Source\PSoC4/CapSense_Filter.c ****     
1259:Generated_Source\PSoC4/CapSense_Filter.c ****     CapSense_FtRunEnabledFiltersInternal(ptrFilterHistObj, ptrSensor, (uint32)ptrWidget->wdgtType);
1260:Generated_Source\PSoC4/CapSense_Filter.c **** }
1261:Generated_Source\PSoC4/CapSense_Filter.c **** 
1262:Generated_Source\PSoC4/CapSense_Filter.c **** 
1263:Generated_Source\PSoC4/CapSense_Filter.c **** /*******************************************************************************
1264:Generated_Source\PSoC4/CapSense_Filter.c **** * Function Name: CapSense_FtRunEnabledFiltersInternal
1265:Generated_Source\PSoC4/CapSense_Filter.c **** ****************************************************************************//**
1266:Generated_Source\PSoC4/CapSense_Filter.c **** *
1267:Generated_Source\PSoC4/CapSense_Filter.c **** * \brief    Runs all enabled filters.
1268:Generated_Source\PSoC4/CapSense_Filter.c **** *
1269:Generated_Source\PSoC4/CapSense_Filter.c **** * \details  Runs all enabled filters.
1270:Generated_Source\PSoC4/CapSense_Filter.c **** *
1271:Generated_Source\PSoC4/CapSense_Filter.c **** * \param    ptrFilterHistObj The pointer to the filter RAM object of the sensor.
1272:Generated_Source\PSoC4/CapSense_Filter.c **** * \param    ptrSensorObj     The pointer to the sensor RAM object of the sensor.
1273:Generated_Source\PSoC4/CapSense_Filter.c **** * \param    wdType           Specifies the type of a widget.
1274:Generated_Source\PSoC4/CapSense_Filter.c **** *
1275:Generated_Source\PSoC4/CapSense_Filter.c **** *******************************************************************************/
1276:Generated_Source\PSoC4/CapSense_Filter.c **** void CapSense_FtRunEnabledFiltersInternal(CapSense_PTR_FILTER_VARIANT ptrFilterHistObj, 
1277:Generated_Source\PSoC4/CapSense_Filter.c ****                                                   CapSense_RAM_SNS_STRUCT *ptrSensorObj, uint32 wdT
1278:Generated_Source\PSoC4/CapSense_Filter.c **** {
1279:Generated_Source\PSoC4/CapSense_Filter.c ****     #if (CapSense_REGULAR_RC_MEDIAN_FILTER_EN || CapSense_PROX_RC_MEDIAN_FILTER_EN)
1280:Generated_Source\PSoC4/CapSense_Filter.c ****         CapSense_RunMedianInternal(ptrFilterHistObj, ptrSensorObj, wdType);
1281:Generated_Source\PSoC4/CapSense_Filter.c ****     #endif /* (CapSense_REGULAR_RC_MEDIAN_FILTER_EN || CapSense_PROX_RC_MEDIAN_FILTER_EN) */
1282:Generated_Source\PSoC4/CapSense_Filter.c ****     
1283:Generated_Source\PSoC4/CapSense_Filter.c ****     #if (CapSense_REGULAR_RC_IIR_FILTER_EN || CapSense_PROX_RC_IIR_FILTER_EN)    
1284:Generated_Source\PSoC4/CapSense_Filter.c ****         CapSense_RunIIRInternal(ptrFilterHistObj, ptrSensorObj, wdType);
1285:Generated_Source\PSoC4/CapSense_Filter.c ****     #endif /* (CapSense_REGULAR_RC_IIR_FILTER_EN || CapSense_PROX_RC_IIR_FILTER_EN) */ 
1286:Generated_Source\PSoC4/CapSense_Filter.c **** 
1287:Generated_Source\PSoC4/CapSense_Filter.c ****     #if (CapSense_REGULAR_RC_AVERAGE_FILTER_EN || CapSense_PROX_RC_AVERAGE_FILTER_EN)
1288:Generated_Source\PSoC4/CapSense_Filter.c ****         CapSense_RunAverageInternal(ptrFilterHistObj, ptrSensorObj, wdType);
1289:Generated_Source\PSoC4/CapSense_Filter.c ****     #endif /* (CapSense_REGULAR_RC_AVERAGE_FILTER_EN || CapSense_PROX_RC_AVERAGE_FILTER_EN) */     
1290:Generated_Source\PSoC4/CapSense_Filter.c **** }
1291:Generated_Source\PSoC4/CapSense_Filter.c **** #endif /* (CapSense_REGULAR_RC_FILTER_EN || CapSense_PROX_RC_FILTER_EN) */
1292:Generated_Source\PSoC4/CapSense_Filter.c **** 
1293:Generated_Source\PSoC4/CapSense_Filter.c **** 
1294:Generated_Source\PSoC4/CapSense_Filter.c **** #if (CapSense_CSD_AUTOTUNE & CapSense_CSD_SS_TH_EN)
1295:Generated_Source\PSoC4/CapSense_Filter.c **** /*******************************************************************************
1296:Generated_Source\PSoC4/CapSense_Filter.c **** * Function Name: CapSense_RunNoiseEnvelope
1297:Generated_Source\PSoC4/CapSense_Filter.c **** ****************************************************************************//**
1298:Generated_Source\PSoC4/CapSense_Filter.c **** *
1299:Generated_Source\PSoC4/CapSense_Filter.c **** * \brief    Executes the noise envelope  filter algorithm on a sensor indicated by 
1300:Generated_Source\PSoC4/CapSense_Filter.c **** *           an input parameter to measure the pk-to-pk noise in the sensor raw count.
1301:Generated_Source\PSoC4/CapSense_Filter.c **** *
1302:Generated_Source\PSoC4/CapSense_Filter.c **** * \details  Executes the noise envelope  filter algorithm on a sensor indicated by 
1303:Generated_Source\PSoC4/CapSense_Filter.c **** *           an input parameter to measure the pk-to-pk noise in the sensor raw count.
1304:Generated_Source\PSoC4/CapSense_Filter.c **** *
1305:Generated_Source\PSoC4/CapSense_Filter.c **** * \param    widgetId Specifies the ID number of the widget.
1306:Generated_Source\PSoC4/CapSense_Filter.c **** * \param    sensorId Specifies the ID number of the sensor in the widget.
1307:Generated_Source\PSoC4/CapSense_Filter.c **** *
ARM GAS  C:\Users\RD\AppData\Local\Temp\ccQZrPXd.s 			page 34


1308:Generated_Source\PSoC4/CapSense_Filter.c **** *******************************************************************************/
1309:Generated_Source\PSoC4/CapSense_Filter.c **** void CapSense_RunNoiseEnvelope(uint32 widgetId, uint32 sensorId)
1310:Generated_Source\PSoC4/CapSense_Filter.c **** {
 520              		.loc 1 1310 0
 521              		.cfi_startproc
 522              	.LVL75:
 523 0000 70B5     		push	{r4, r5, r6, lr}
 524              		.cfi_def_cfa_offset 16
 525              		.cfi_offset 4, -16
 526              		.cfi_offset 5, -12
 527              		.cfi_offset 6, -8
 528              		.cfi_offset 14, -4
 529              	.LVL76:
1311:Generated_Source\PSoC4/CapSense_Filter.c ****     CapSense_FLASH_WD_STRUCT const *ptrWidget = &CapSense_dsFlash.wdgtArray[widgetId];
1312:Generated_Source\PSoC4/CapSense_Filter.c ****     CapSense_RAM_WD_BASE_STRUCT *ptrWidgetRam = ptrWidget->ptr2WdgtRam;
 530              		.loc 1 1312 0
 531 0002 0B4A     		ldr	r2, .L36
 532 0004 8400     		lsl	r4, r0, #2
 533 0006 2318     		add	r3, r4, r0
 534 0008 DB00     		lsl	r3, r3, #3
 535 000a D318     		add	r3, r2, r3
 536 000c 5D68     		ldr	r5, [r3, #4]
 537              	.LVL77:
1313:Generated_Source\PSoC4/CapSense_Filter.c ****     CapSense_RAM_SNS_STRUCT *ptrSensor = NULL;    
1314:Generated_Source\PSoC4/CapSense_Filter.c ****     SMARTSENSE_CSD_NOISE_ENVELOPE_STRUCT *ptrNoiseEnvelope = NULL;
1315:Generated_Source\PSoC4/CapSense_Filter.c **** 
1316:Generated_Source\PSoC4/CapSense_Filter.c ****     /* Find pointer to specified sensor object */
1317:Generated_Source\PSoC4/CapSense_Filter.c ****     ptrSensor = ptrWidget->ptr2SnsRam;
 538              		.loc 1 1317 0
 539 000e 9E68     		ldr	r6, [r3, #8]
 540              	.LVL78:
1318:Generated_Source\PSoC4/CapSense_Filter.c ****     ptrSensor = &ptrSensor[sensorId];
 541              		.loc 1 1318 0
 542 0010 CB00     		lsl	r3, r1, #3
 543 0012 5B1A     		sub	r3, r3, r1
 544 0014 5B00     		lsl	r3, r3, #1
 545              	.LVL79:
1319:Generated_Source\PSoC4/CapSense_Filter.c ****     
1320:Generated_Source\PSoC4/CapSense_Filter.c ****     /* Find pointer to specified filter sensor object */
1321:Generated_Source\PSoC4/CapSense_Filter.c ****     ptrNoiseEnvelope = ptrWidget->ptr2NoiseEnvlp;
 546              		.loc 1 1321 0
 547 0016 2018     		add	r0, r4, r0
 548              	.LVL80:
 549 0018 C000     		lsl	r0, r0, #3
 550 001a 1018     		add	r0, r2, r0
 551 001c 026A     		ldr	r2, [r0, #32]
 552              	.LVL81:
1322:Generated_Source\PSoC4/CapSense_Filter.c ****     ptrNoiseEnvelope = &ptrNoiseEnvelope[sensorId];    
 553              		.loc 1 1322 0
 554 001e 4800     		lsl	r0, r1, #1
 555 0020 4118     		add	r1, r0, r1
 556              	.LVL82:
 557 0022 8900     		lsl	r1, r1, #2
 558 0024 5218     		add	r2, r2, r1
 559              	.LVL83:
1323:Generated_Source\PSoC4/CapSense_Filter.c **** 
1324:Generated_Source\PSoC4/CapSense_Filter.c ****     SmartSense_RunNoiseEnvelope(ptrSensor->raw[0u], ptrWidgetRam->sigPFC, ptrNoiseEnvelope);
ARM GAS  C:\Users\RD\AppData\Local\Temp\ccQZrPXd.s 			page 35


 560              		.loc 1 1324 0
 561 0026 F05A     		ldrh	r0, [r6, r3]
 562 0028 298A     		ldrh	r1, [r5, #16]
 563 002a FFF7FEFF 		bl	SmartSense_RunNoiseEnvelope
 564              	.LVL84:
1325:Generated_Source\PSoC4/CapSense_Filter.c **** }
 565              		.loc 1 1325 0
 566              		@ sp needed
 567              	.LVL85:
 568              	.LVL86:
 569              	.LVL87:
 570 002e 70BD     		pop	{r4, r5, r6, pc}
 571              	.L37:
 572              		.align	2
 573              	.L36:
 574 0030 00000000 		.word	CapSense_dsFlash
 575              		.cfi_endproc
 576              	.LFE17:
 577              		.size	CapSense_RunNoiseEnvelope, .-CapSense_RunNoiseEnvelope
 578              		.section	.text.CapSense_InitializeNoiseEnvelope,"ax",%progbits
 579              		.align	2
 580              		.global	CapSense_InitializeNoiseEnvelope
 581              		.code	16
 582              		.thumb_func
 583              		.type	CapSense_InitializeNoiseEnvelope, %function
 584              	CapSense_InitializeNoiseEnvelope:
 585              	.LFB18:
1326:Generated_Source\PSoC4/CapSense_Filter.c **** 
1327:Generated_Source\PSoC4/CapSense_Filter.c **** 
1328:Generated_Source\PSoC4/CapSense_Filter.c **** /*******************************************************************************
1329:Generated_Source\PSoC4/CapSense_Filter.c **** * Function Name: CapSense_InitializeNoiseEnvelope
1330:Generated_Source\PSoC4/CapSense_Filter.c **** ****************************************************************************//**
1331:Generated_Source\PSoC4/CapSense_Filter.c **** *
1332:Generated_Source\PSoC4/CapSense_Filter.c **** * \brief    Initializes the noise-envelope filter
1333:Generated_Source\PSoC4/CapSense_Filter.c **** *
1334:Generated_Source\PSoC4/CapSense_Filter.c **** * \details  Initializes the noise-envelope filter
1335:Generated_Source\PSoC4/CapSense_Filter.c **** *
1336:Generated_Source\PSoC4/CapSense_Filter.c **** * \param    widgetId Specifies the ID number of the widget.
1337:Generated_Source\PSoC4/CapSense_Filter.c **** * \param    sensorId Specifies the ID number of the sensor in the widget.
1338:Generated_Source\PSoC4/CapSense_Filter.c **** *
1339:Generated_Source\PSoC4/CapSense_Filter.c **** *******************************************************************************/
1340:Generated_Source\PSoC4/CapSense_Filter.c **** void CapSense_InitializeNoiseEnvelope(uint32 widgetId, uint32 sensorId)
1341:Generated_Source\PSoC4/CapSense_Filter.c **** {
 586              		.loc 1 1341 0
 587              		.cfi_startproc
 588              	.LVL88:
 589 0000 70B5     		push	{r4, r5, r6, lr}
 590              		.cfi_def_cfa_offset 16
 591              		.cfi_offset 4, -16
 592              		.cfi_offset 5, -12
 593              		.cfi_offset 6, -8
 594              		.cfi_offset 14, -4
 595              	.LVL89:
1342:Generated_Source\PSoC4/CapSense_Filter.c ****     CapSense_FLASH_WD_STRUCT const *ptrWidget = &CapSense_dsFlash.wdgtArray[widgetId];
1343:Generated_Source\PSoC4/CapSense_Filter.c ****     CapSense_RAM_WD_BASE_STRUCT *ptrWidgetRam = ptrWidget->ptr2WdgtRam;
 596              		.loc 1 1343 0
 597 0002 0B4A     		ldr	r2, .L39
ARM GAS  C:\Users\RD\AppData\Local\Temp\ccQZrPXd.s 			page 36


 598 0004 8400     		lsl	r4, r0, #2
 599 0006 2318     		add	r3, r4, r0
 600 0008 DB00     		lsl	r3, r3, #3
 601 000a D318     		add	r3, r2, r3
 602 000c 5D68     		ldr	r5, [r3, #4]
 603              	.LVL90:
1344:Generated_Source\PSoC4/CapSense_Filter.c ****     CapSense_RAM_SNS_STRUCT *ptrSensor = NULL;    
1345:Generated_Source\PSoC4/CapSense_Filter.c ****     SMARTSENSE_CSD_NOISE_ENVELOPE_STRUCT *ptrNoiseEnvelope = NULL;
1346:Generated_Source\PSoC4/CapSense_Filter.c **** 
1347:Generated_Source\PSoC4/CapSense_Filter.c ****     /* Find pointer to specified sensor object */
1348:Generated_Source\PSoC4/CapSense_Filter.c ****     ptrSensor = ptrWidget->ptr2SnsRam;
 604              		.loc 1 1348 0
 605 000e 9E68     		ldr	r6, [r3, #8]
 606              	.LVL91:
1349:Generated_Source\PSoC4/CapSense_Filter.c ****     ptrSensor = &ptrSensor[sensorId];
 607              		.loc 1 1349 0
 608 0010 CB00     		lsl	r3, r1, #3
 609 0012 5B1A     		sub	r3, r3, r1
 610 0014 5B00     		lsl	r3, r3, #1
 611              	.LVL92:
1350:Generated_Source\PSoC4/CapSense_Filter.c ****     
1351:Generated_Source\PSoC4/CapSense_Filter.c ****     /* Find pointer to specified filter sensor object */
1352:Generated_Source\PSoC4/CapSense_Filter.c ****     ptrNoiseEnvelope = ptrWidget->ptr2NoiseEnvlp;
 612              		.loc 1 1352 0
 613 0016 2018     		add	r0, r4, r0
 614              	.LVL93:
 615 0018 C000     		lsl	r0, r0, #3
 616 001a 1018     		add	r0, r2, r0
 617 001c 026A     		ldr	r2, [r0, #32]
 618              	.LVL94:
1353:Generated_Source\PSoC4/CapSense_Filter.c ****     ptrNoiseEnvelope = &ptrNoiseEnvelope[sensorId];    
 619              		.loc 1 1353 0
 620 001e 4800     		lsl	r0, r1, #1
 621 0020 4118     		add	r1, r0, r1
 622              	.LVL95:
 623 0022 8900     		lsl	r1, r1, #2
 624 0024 5218     		add	r2, r2, r1
 625              	.LVL96:
1354:Generated_Source\PSoC4/CapSense_Filter.c **** 
1355:Generated_Source\PSoC4/CapSense_Filter.c ****     SmartSense_InitializeNoiseEnvelope(ptrSensor->raw[0u], ptrWidgetRam->sigPFC, ptrNoiseEnvelope);
 626              		.loc 1 1355 0
 627 0026 F05A     		ldrh	r0, [r6, r3]
 628 0028 298A     		ldrh	r1, [r5, #16]
 629 002a FFF7FEFF 		bl	SmartSense_InitializeNoiseEnvelope
 630              	.LVL97:
1356:Generated_Source\PSoC4/CapSense_Filter.c **** }
 631              		.loc 1 1356 0
 632              		@ sp needed
 633              	.LVL98:
 634              	.LVL99:
 635              	.LVL100:
 636 002e 70BD     		pop	{r4, r5, r6, pc}
 637              	.L40:
 638              		.align	2
 639              	.L39:
 640 0030 00000000 		.word	CapSense_dsFlash
 641              		.cfi_endproc
ARM GAS  C:\Users\RD\AppData\Local\Temp\ccQZrPXd.s 			page 37


 642              	.LFE18:
 643              		.size	CapSense_InitializeNoiseEnvelope, .-CapSense_InitializeNoiseEnvelope
 644              		.section	.text.CapSense_FtIIR1stOrder,"ax",%progbits
 645              		.align	2
 646              		.global	CapSense_FtIIR1stOrder
 647              		.code	16
 648              		.thumb_func
 649              		.type	CapSense_FtIIR1stOrder, %function
 650              	CapSense_FtIIR1stOrder:
 651              	.LFB19:
1357:Generated_Source\PSoC4/CapSense_Filter.c **** #endif /* #if CapSense_CSD_AUTOTUNE & CapSense_CSD_SS_TH_EN */
1358:Generated_Source\PSoC4/CapSense_Filter.c **** 
1359:Generated_Source\PSoC4/CapSense_Filter.c **** 
1360:Generated_Source\PSoC4/CapSense_Filter.c **** #if (CapSense_POS_MEDIAN_FILTER_EN || CapSense_REGULAR_RC_MEDIAN_FILTER_EN || CapSense_PROX_RC_MEDI
1361:Generated_Source\PSoC4/CapSense_Filter.c **** /*******************************************************************************
1362:Generated_Source\PSoC4/CapSense_Filter.c **** * Function Name: CapSense_FtMedian
1363:Generated_Source\PSoC4/CapSense_Filter.c **** ****************************************************************************//**
1364:Generated_Source\PSoC4/CapSense_Filter.c **** *
1365:Generated_Source\PSoC4/CapSense_Filter.c **** * \brief    Return the median value from the three passed arguments.
1366:Generated_Source\PSoC4/CapSense_Filter.c **** *
1367:Generated_Source\PSoC4/CapSense_Filter.c **** * \details  Return the median value from the three passed arguments.
1368:Generated_Source\PSoC4/CapSense_Filter.c **** *
1369:Generated_Source\PSoC4/CapSense_Filter.c **** * \param    x1 The first value to be compared.
1370:Generated_Source\PSoC4/CapSense_Filter.c **** * \param    x2 The second value to be compared.
1371:Generated_Source\PSoC4/CapSense_Filter.c **** * \param    x3 The third value to be compared.
1372:Generated_Source\PSoC4/CapSense_Filter.c **** *
1373:Generated_Source\PSoC4/CapSense_Filter.c **** * \return   Returns the median value of input arguments.
1374:Generated_Source\PSoC4/CapSense_Filter.c **** *
1375:Generated_Source\PSoC4/CapSense_Filter.c **** *******************************************************************************/
1376:Generated_Source\PSoC4/CapSense_Filter.c **** uint32 CapSense_FtMedian(uint32 x1, uint32 x2, uint32 x3)
1377:Generated_Source\PSoC4/CapSense_Filter.c **** {
1378:Generated_Source\PSoC4/CapSense_Filter.c ****     uint32 tmp;
1379:Generated_Source\PSoC4/CapSense_Filter.c **** 
1380:Generated_Source\PSoC4/CapSense_Filter.c ****     if (x1 > x2)
1381:Generated_Source\PSoC4/CapSense_Filter.c ****     {
1382:Generated_Source\PSoC4/CapSense_Filter.c ****         tmp = x2;
1383:Generated_Source\PSoC4/CapSense_Filter.c ****         x2 = x1;
1384:Generated_Source\PSoC4/CapSense_Filter.c ****         x1 = tmp;
1385:Generated_Source\PSoC4/CapSense_Filter.c ****     }
1386:Generated_Source\PSoC4/CapSense_Filter.c **** 
1387:Generated_Source\PSoC4/CapSense_Filter.c ****     if (x2 > x3)
1388:Generated_Source\PSoC4/CapSense_Filter.c ****     {
1389:Generated_Source\PSoC4/CapSense_Filter.c ****         x2 = x3;
1390:Generated_Source\PSoC4/CapSense_Filter.c ****     }
1391:Generated_Source\PSoC4/CapSense_Filter.c **** 
1392:Generated_Source\PSoC4/CapSense_Filter.c ****     return ((x1 > x2) ? x1 : x2);
1393:Generated_Source\PSoC4/CapSense_Filter.c **** }
1394:Generated_Source\PSoC4/CapSense_Filter.c **** #endif /*CapSense_POS_MEDIAN_FILTER_EN || CapSense_REGULAR_RC_MEDIAN_FILTER_EN || CapSense_PROX_RC_
1395:Generated_Source\PSoC4/CapSense_Filter.c **** 
1396:Generated_Source\PSoC4/CapSense_Filter.c **** 
1397:Generated_Source\PSoC4/CapSense_Filter.c **** /*******************************************************************************
1398:Generated_Source\PSoC4/CapSense_Filter.c **** * Function Name: CapSense_FtIIR1stOrder
1399:Generated_Source\PSoC4/CapSense_Filter.c **** ****************************************************************************//**
1400:Generated_Source\PSoC4/CapSense_Filter.c **** *
1401:Generated_Source\PSoC4/CapSense_Filter.c **** * \brief    Return the filtered data by the IIR 1-st order algorithm
1402:Generated_Source\PSoC4/CapSense_Filter.c **** *
1403:Generated_Source\PSoC4/CapSense_Filter.c **** * \details  Return the filtered data by the IIR 1-st order algorithm
ARM GAS  C:\Users\RD\AppData\Local\Temp\ccQZrPXd.s 			page 38


1404:Generated_Source\PSoC4/CapSense_Filter.c **** *
1405:Generated_Source\PSoC4/CapSense_Filter.c **** * \param    input      The data to be filtered.
1406:Generated_Source\PSoC4/CapSense_Filter.c **** * \param    prevOutput The previous filtered data.
1407:Generated_Source\PSoC4/CapSense_Filter.c **** * \param    n          The IIR filter coefficient (n/256).
1408:Generated_Source\PSoC4/CapSense_Filter.c **** * \param    shift      The parameter is used to shift input data to have free LSB 
1409:Generated_Source\PSoC4/CapSense_Filter.c **** *                       bits for a fraction storage of the filter output calculation.
1410:Generated_Source\PSoC4/CapSense_Filter.c **** *
1411:Generated_Source\PSoC4/CapSense_Filter.c **** * \return   Returns the filtered data.
1412:Generated_Source\PSoC4/CapSense_Filter.c **** *
1413:Generated_Source\PSoC4/CapSense_Filter.c **** *******************************************************************************/
1414:Generated_Source\PSoC4/CapSense_Filter.c **** uint32 CapSense_FtIIR1stOrder(uint32 input, uint32 prevOutput, uint32 n, uint32 shift)
1415:Generated_Source\PSoC4/CapSense_Filter.c **** {   
 652              		.loc 1 1415 0
 653              		.cfi_startproc
 654              	.LVL101:
1416:Generated_Source\PSoC4/CapSense_Filter.c ****     uint32 output;
1417:Generated_Source\PSoC4/CapSense_Filter.c ****    
1418:Generated_Source\PSoC4/CapSense_Filter.c ****     /*
1419:Generated_Source\PSoC4/CapSense_Filter.c ****     * n - IIR filter coefficient (n/256)
1420:Generated_Source\PSoC4/CapSense_Filter.c ****     * shift - Used to shift input data to have free LSB bits
1421:Generated_Source\PSoC4/CapSense_Filter.c ****     * for fraction storage of filter output calculation
1422:Generated_Source\PSoC4/CapSense_Filter.c ****     */
1423:Generated_Source\PSoC4/CapSense_Filter.c ****     output = ((n * (input << shift)) + ((CapSense_IIR_COEFFICIENT_K - n) * prevOutput)) >> 8u;
 655              		.loc 1 1423 0
 656 0000 9840     		lsl	r0, r0, r3
 657              	.LVL102:
 658 0002 031C     		mov	r3, r0
 659              	.LVL103:
 660 0004 5343     		mul	r3, r2
 661 0006 8020     		mov	r0, #128
 662 0008 4000     		lsl	r0, r0, #1
 663 000a 801A     		sub	r0, r0, r2
 664 000c 4143     		mul	r1, r0
 665              	.LVL104:
 666 000e 5818     		add	r0, r3, r1
 667 0010 000A     		lsr	r0, r0, #8
 668              	.LVL105:
1424:Generated_Source\PSoC4/CapSense_Filter.c ****     
1425:Generated_Source\PSoC4/CapSense_Filter.c ****     /* Shift operation of output will be done in upper level API if needed */
1426:Generated_Source\PSoC4/CapSense_Filter.c ****     return output;
1427:Generated_Source\PSoC4/CapSense_Filter.c **** }
 669              		.loc 1 1427 0
 670              		@ sp needed
 671 0012 7047     		bx	lr
 672              		.cfi_endproc
 673              	.LFE19:
 674              		.size	CapSense_FtIIR1stOrder, .-CapSense_FtIIR1stOrder
 675              		.section	.text.CapSense_FtUpdateBaseline,"ax",%progbits
 676              		.align	2
 677              		.global	CapSense_FtUpdateBaseline
 678              		.code	16
 679              		.thumb_func
 680              		.type	CapSense_FtUpdateBaseline, %function
 681              	CapSense_FtUpdateBaseline:
 682              	.LFB5:
 325:Generated_Source\PSoC4/CapSense_Filter.c ****     uint32 sign;
 683              		.loc 1 325 0
ARM GAS  C:\Users\RD\AppData\Local\Temp\ccQZrPXd.s 			page 39


 684              		.cfi_startproc
 685              	.LVL106:
 686 0000 F0B5     		push	{r4, r5, r6, r7, lr}
 687              		.cfi_def_cfa_offset 20
 688              		.cfi_offset 4, -20
 689              		.cfi_offset 5, -16
 690              		.cfi_offset 6, -12
 691              		.cfi_offset 7, -8
 692              		.cfi_offset 14, -4
 693 0002 83B0     		sub	sp, sp, #12
 694              		.cfi_def_cfa_offset 32
 695 0004 071C     		mov	r7, r0
 696 0006 0E1C     		mov	r6, r1
 697 0008 0192     		str	r2, [sp, #4]
 698              	.LVL107:
 336:Generated_Source\PSoC4/CapSense_Filter.c ****     {               
 699              		.loc 1 336 0
 700 000a 0123     		mov	r3, #1
 701 000c 33E0     		b	.L43
 702              	.LVL108:
 703              	.L49:
 348:Generated_Source\PSoC4/CapSense_Filter.c ****         {
 704              		.loc 1 348 0
 705 000e 6300     		lsl	r3, r4, #1
 706 0010 985B     		ldrh	r0, [r3, r6]
 707 0012 F318     		add	r3, r6, r3
 708 0014 5988     		ldrh	r1, [r3, #2]
 709 0016 8842     		cmp	r0, r1
 710 0018 05D3     		bcc	.L44
 350:Generated_Source\PSoC4/CapSense_Filter.c ****             sign = 1u;
 711              		.loc 1 350 0
 712 001a 421A     		sub	r2, r0, r1
 713              	.LVL109:
 352:Generated_Source\PSoC4/CapSense_Filter.c ****         }
 714              		.loc 1 352 0
 715 001c 3319     		add	r3, r6, r4
 716 001e 0025     		mov	r5, #0
 717 0020 1D72     		strb	r5, [r3, #8]
 351:Generated_Source\PSoC4/CapSense_Filter.c ****             ptrSensor->negBslnRstCnt[channel] = 0u;
 718              		.loc 1 351 0
 719 0022 0123     		mov	r3, #1
 720 0024 01E0     		b	.L45
 721              	.LVL110:
 722              	.L44:
 356:Generated_Source\PSoC4/CapSense_Filter.c ****             sign = 0u;
 723              		.loc 1 356 0
 724 0026 0A1A     		sub	r2, r1, r0
 725              	.LVL111:
 357:Generated_Source\PSoC4/CapSense_Filter.c ****         }     
 726              		.loc 1 357 0
 727 0028 0023     		mov	r3, #0
 728              	.LVL112:
 729              	.L45:
 361:Generated_Source\PSoC4/CapSense_Filter.c ****         {
 730              		.loc 1 361 0
 731 002a 002B     		cmp	r3, #0
 732 002c 11D1     		bne	.L46
ARM GAS  C:\Users\RD\AppData\Local\Temp\ccQZrPXd.s 			page 40


 361:Generated_Source\PSoC4/CapSense_Filter.c ****         {
 733              		.loc 1 361 0 is_stmt 0 discriminator 1
 734 002e 7B79     		ldrb	r3, [r7, #5]
 735              	.LVL113:
 736 0030 9342     		cmp	r3, r2
 737 0032 0ED2     		bcs	.L46
 363:Generated_Source\PSoC4/CapSense_Filter.c ****             {                
 738              		.loc 1 363 0 is_stmt 1
 739 0034 3319     		add	r3, r6, r4
 740 0036 1B7A     		ldrb	r3, [r3, #8]
 741 0038 3A7A     		ldrb	r2, [r7, #8]
 742              	.LVL114:
 743 003a 9342     		cmp	r3, r2
 744 003c 05D3     		bcc	.L47
 365:Generated_Source\PSoC4/CapSense_Filter.c ****             }
 745              		.loc 1 365 0
 746 003e 301C     		mov	r0, r6
 747 0040 0199     		ldr	r1, [sp, #4]
 748 0042 221C     		mov	r2, r4
 749 0044 FFF7FEFF 		bl	CapSense_FtInitializeBaselineChannel
 750              	.LVL115:
 751 0048 14E0     		b	.L48
 752              	.L47:
 369:Generated_Source\PSoC4/CapSense_Filter.c ****             }
 753              		.loc 1 369 0
 754 004a 3219     		add	r2, r6, r4
 755 004c 0133     		add	r3, r3, #1
 756 004e 1372     		strb	r3, [r2, #8]
 757 0050 10E0     		b	.L48
 758              	.LVL116:
 759              	.L46:
 383:Generated_Source\PSoC4/CapSense_Filter.c ****                 {
 760              		.loc 1 383 0
 761 0052 6B46     		mov	r3, sp
 762 0054 1B79     		ldrb	r3, [r3, #4]
 763 0056 062B     		cmp	r3, #6
 764 0058 0CD0     		beq	.L48
 387:Generated_Source\PSoC4/CapSense_Filter.c ****                             history |= ptrSensor->bslnExt[channel];
 765              		.loc 1 387 0
 766 005a 0902     		lsl	r1, r1, #8
 767              	.LVL117:
 388:Generated_Source\PSoC4/CapSense_Filter.c ****                         #else
 768              		.loc 1 388 0
 769 005c 3519     		add	r5, r6, r4
 770 005e 2B79     		ldrb	r3, [r5, #4]
 771 0060 1943     		orr	r1, r3
 772              	.LVL118:
 393:Generated_Source\PSoC4/CapSense_Filter.c ****                                         (uint32)ptrSensor->raw[channel],
 773              		.loc 1 393 0
 774 0062 0122     		mov	r2, #1
 775              	.LVL119:
 776 0064 0823     		mov	r3, #8
 777 0066 FFF7FEFF 		bl	CapSense_FtIIR1stOrder
 778              	.LVL120:
 400:Generated_Source\PSoC4/CapSense_Filter.c ****                             ptrSensor->bslnExt[channel] = LO8(history);
 779              		.loc 1 400 0
 780 006a 020A     		lsr	r2, r0, #8
ARM GAS  C:\Users\RD\AppData\Local\Temp\ccQZrPXd.s 			page 41


 781 006c 6300     		lsl	r3, r4, #1
 782 006e F318     		add	r3, r6, r3
 783 0070 5A80     		strh	r2, [r3, #2]
 401:Generated_Source\PSoC4/CapSense_Filter.c ****                         #else
 784              		.loc 1 401 0
 785 0072 2871     		strb	r0, [r5, #4]
 786              	.LVL121:
 787              	.L48:
 788 0074 231C     		mov	r3, r4
 789              	.LVL122:
 790              	.L43:
 336:Generated_Source\PSoC4/CapSense_Filter.c ****     {               
 791              		.loc 1 336 0 discriminator 1
 792 0076 5C1E     		sub	r4, r3, #1
 793              	.LVL123:
 794 0078 002B     		cmp	r3, #0
 795 007a C8D1     		bne	.L49
 449:Generated_Source\PSoC4/CapSense_Filter.c **** 
 796              		.loc 1 449 0
 797 007c 0020     		mov	r0, #0
 798 007e 03B0     		add	sp, sp, #12
 799              		@ sp needed
 800              	.LVL124:
 801              	.LVL125:
 802              	.LVL126:
 803 0080 F0BD     		pop	{r4, r5, r6, r7, pc}
 804              		.cfi_endproc
 805              	.LFE5:
 806              		.size	CapSense_FtUpdateBaseline, .-CapSense_FtUpdateBaseline
 807 0082 C046     		.section	.text.CapSense_UpdateSensorBaseline,"ax",%progbits
 808              		.align	2
 809              		.global	CapSense_UpdateSensorBaseline
 810              		.code	16
 811              		.thumb_func
 812              		.type	CapSense_UpdateSensorBaseline, %function
 813              	CapSense_UpdateSensorBaseline:
 814              	.LFB4:
 267:Generated_Source\PSoC4/CapSense_Filter.c ****     uint32 result = CYRET_SUCCESS;
 815              		.loc 1 267 0
 816              		.cfi_startproc
 817              	.LVL127:
 818 0000 70B5     		push	{r4, r5, r6, lr}
 819              		.cfi_def_cfa_offset 16
 820              		.cfi_offset 4, -16
 821              		.cfi_offset 5, -12
 822              		.cfi_offset 6, -8
 823              		.cfi_offset 14, -4
 824 0002 031C     		mov	r3, r0
 825              	.LVL128:
 272:Generated_Source\PSoC4/CapSense_Filter.c **** 
 826              		.loc 1 272 0
 827 0004 084C     		ldr	r4, .L51
 828 0006 8500     		lsl	r5, r0, #2
 829 0008 2A18     		add	r2, r5, r0
 830 000a D200     		lsl	r2, r2, #3
 831 000c A218     		add	r2, r4, r2
 832 000e 5068     		ldr	r0, [r2, #4]
ARM GAS  C:\Users\RD\AppData\Local\Temp\ccQZrPXd.s 			page 42


 833              	.LVL129:
 275:Generated_Source\PSoC4/CapSense_Filter.c ****     ptrSensor = &ptrSensor[sensorId];
 834              		.loc 1 275 0
 835 0010 9668     		ldr	r6, [r2, #8]
 836              	.LVL130:
 276:Generated_Source\PSoC4/CapSense_Filter.c ****     result = CapSense_FtUpdateBaseline(ptrWidgetRam, ptrSensor, (uint32)ptrWidget->wdgtType);
 837              		.loc 1 276 0
 838 0012 CA00     		lsl	r2, r1, #3
 839 0014 511A     		sub	r1, r2, r1
 840              	.LVL131:
 841 0016 4900     		lsl	r1, r1, #1
 842 0018 7118     		add	r1, r6, r1
 843              	.LVL132:
 277:Generated_Source\PSoC4/CapSense_Filter.c ****     
 844              		.loc 1 277 0
 845 001a EB18     		add	r3, r5, r3
 846              	.LVL133:
 847 001c DB00     		lsl	r3, r3, #3
 848 001e E318     		add	r3, r4, r3
 849 0020 1A7E     		ldrb	r2, [r3, #24]
 850 0022 FFF7FEFF 		bl	CapSense_FtUpdateBaseline
 851              	.LVL134:
 288:Generated_Source\PSoC4/CapSense_Filter.c **** 
 852              		.loc 1 288 0
 853              		@ sp needed
 854              	.LVL135:
 855              	.LVL136:
 856              	.LVL137:
 857 0026 70BD     		pop	{r4, r5, r6, pc}
 858              	.L52:
 859              		.align	2
 860              	.L51:
 861 0028 00000000 		.word	CapSense_dsFlash
 862              		.cfi_endproc
 863              	.LFE4:
 864              		.size	CapSense_UpdateSensorBaseline, .-CapSense_UpdateSensorBaseline
 865              		.section	.text.CapSense_UpdateWidgetBaseline,"ax",%progbits
 866              		.align	2
 867              		.global	CapSense_UpdateWidgetBaseline
 868              		.code	16
 869              		.thumb_func
 870              		.type	CapSense_UpdateWidgetBaseline, %function
 871              	CapSense_UpdateWidgetBaseline:
 872              	.LFB3:
 210:Generated_Source\PSoC4/CapSense_Filter.c ****     uint32 sensorId;       
 873              		.loc 1 210 0
 874              		.cfi_startproc
 875              	.LVL138:
 876 0000 70B5     		push	{r4, r5, r6, lr}
 877              		.cfi_def_cfa_offset 16
 878              		.cfi_offset 4, -16
 879              		.cfi_offset 5, -12
 880              		.cfi_offset 6, -8
 881              		.cfi_offset 14, -4
 882 0002 061C     		mov	r6, r0
 883              	.LVL139:
 218:Generated_Source\PSoC4/CapSense_Filter.c ****     
ARM GAS  C:\Users\RD\AppData\Local\Temp\ccQZrPXd.s 			page 43


 884              		.loc 1 218 0
 885 0004 8300     		lsl	r3, r0, #2
 886 0006 1B18     		add	r3, r3, r0
 887 0008 DB00     		lsl	r3, r3, #3
 888 000a 084A     		ldr	r2, .L56
 889 000c D318     		add	r3, r2, r3
 890 000e DB8A     		ldrh	r3, [r3, #22]
 891              	.LVL140:
 215:Generated_Source\PSoC4/CapSense_Filter.c ****     
 892              		.loc 1 215 0
 893 0010 0025     		mov	r5, #0
 220:Generated_Source\PSoC4/CapSense_Filter.c ****     {
 894              		.loc 1 220 0
 895 0012 05E0     		b	.L54
 896              	.LVL141:
 897              	.L55:
 222:Generated_Source\PSoC4/CapSense_Filter.c ****     }
 898              		.loc 1 222 0
 899 0014 301C     		mov	r0, r6
 900 0016 211C     		mov	r1, r4
 901 0018 FFF7FEFF 		bl	CapSense_UpdateSensorBaseline
 902              	.LVL142:
 903 001c 0543     		orr	r5, r0
 904              	.LVL143:
 220:Generated_Source\PSoC4/CapSense_Filter.c ****     {
 905              		.loc 1 220 0
 906 001e 231C     		mov	r3, r4
 907              	.LVL144:
 908              	.L54:
 220:Generated_Source\PSoC4/CapSense_Filter.c ****     {
 909              		.loc 1 220 0 is_stmt 0 discriminator 1
 910 0020 5C1E     		sub	r4, r3, #1
 911              	.LVL145:
 912 0022 002B     		cmp	r3, #0
 913 0024 F6D1     		bne	.L55
 226:Generated_Source\PSoC4/CapSense_Filter.c **** 
 914              		.loc 1 226 0 is_stmt 1
 915 0026 281C     		mov	r0, r5
 916              		@ sp needed
 917              	.LVL146:
 918              	.LVL147:
 919              	.LVL148:
 920 0028 70BD     		pop	{r4, r5, r6, pc}
 921              	.L57:
 922 002a C046     		.align	2
 923              	.L56:
 924 002c 00000000 		.word	CapSense_dsFlash
 925              		.cfi_endproc
 926              	.LFE3:
 927              		.size	CapSense_UpdateWidgetBaseline, .-CapSense_UpdateWidgetBaseline
 928              		.section	.text.CapSense_UpdateAllBaselines,"ax",%progbits
 929              		.align	2
 930              		.global	CapSense_UpdateAllBaselines
 931              		.code	16
 932              		.thumb_func
 933              		.type	CapSense_UpdateAllBaselines, %function
 934              	CapSense_UpdateAllBaselines:
ARM GAS  C:\Users\RD\AppData\Local\Temp\ccQZrPXd.s 			page 44


 935              	.LFB2:
 165:Generated_Source\PSoC4/CapSense_Filter.c ****     uint32 widgetId; 
 936              		.loc 1 165 0
 937              		.cfi_startproc
 938 0000 38B5     		push	{r3, r4, r5, lr}
 939              		.cfi_def_cfa_offset 16
 940              		.cfi_offset 3, -16
 941              		.cfi_offset 4, -12
 942              		.cfi_offset 5, -8
 943              		.cfi_offset 14, -4
 944              	.LVL149:
 167:Generated_Source\PSoC4/CapSense_Filter.c ****     
 945              		.loc 1 167 0
 946 0002 0024     		mov	r4, #0
 169:Generated_Source\PSoC4/CapSense_Filter.c ****     {            
 947              		.loc 1 169 0
 948 0004 0123     		mov	r3, #1
 949 0006 04E0     		b	.L59
 950              	.LVL150:
 951              	.L60:
 171:Generated_Source\PSoC4/CapSense_Filter.c ****     }      
 952              		.loc 1 171 0
 953 0008 281C     		mov	r0, r5
 954 000a FFF7FEFF 		bl	CapSense_UpdateWidgetBaseline
 955              	.LVL151:
 956 000e 0443     		orr	r4, r0
 957              	.LVL152:
 169:Generated_Source\PSoC4/CapSense_Filter.c ****     {            
 958              		.loc 1 169 0
 959 0010 2B1C     		mov	r3, r5
 960              	.LVL153:
 961              	.L59:
 169:Generated_Source\PSoC4/CapSense_Filter.c ****     {            
 962              		.loc 1 169 0 is_stmt 0 discriminator 1
 963 0012 5D1E     		sub	r5, r3, #1
 964              	.LVL154:
 965 0014 002B     		cmp	r3, #0
 966 0016 F7D1     		bne	.L60
 175:Generated_Source\PSoC4/CapSense_Filter.c ****   
 967              		.loc 1 175 0 is_stmt 1
 968 0018 201C     		mov	r0, r4
 969              		@ sp needed
 970              	.LVL155:
 971              	.LVL156:
 972 001a 38BD     		pop	{r3, r4, r5, pc}
 973              		.cfi_endproc
 974              	.LFE2:
 975              		.size	CapSense_UpdateAllBaselines, .-CapSense_UpdateAllBaselines
 976              		.section	.text.CapSense_RunIIRInternal,"ax",%progbits
 977              		.align	2
 978              		.global	CapSense_RunIIRInternal
 979              		.code	16
 980              		.thumb_func
 981              		.type	CapSense_RunIIRInternal, %function
 982              	CapSense_RunIIRInternal:
 983              	.LFB14:
 778:Generated_Source\PSoC4/CapSense_Filter.c ****     uint32 channel;
ARM GAS  C:\Users\RD\AppData\Local\Temp\ccQZrPXd.s 			page 45


 984              		.loc 1 778 0
 985              		.cfi_startproc
 986              	.LVL157:
 987 0000 F0B5     		push	{r4, r5, r6, r7, lr}
 988              		.cfi_def_cfa_offset 20
 989              		.cfi_offset 4, -20
 990              		.cfi_offset 5, -16
 991              		.cfi_offset 6, -12
 992              		.cfi_offset 7, -8
 993              		.cfi_offset 14, -4
 994 0002 83B0     		sub	sp, sp, #12
 995              		.cfi_def_cfa_offset 32
 996 0004 061C     		mov	r6, r0
 997 0006 0F1C     		mov	r7, r1
 998 0008 0192     		str	r2, [sp, #4]
 999              	.LVL158:
 782:Generated_Source\PSoC4/CapSense_Filter.c ****     {
 1000              		.loc 1 782 0
 1001 000a 0123     		mov	r3, #1
 1002 000c 0EE0     		b	.L62
 1003              	.LVL159:
 1004              	.L64:
 784:Generated_Source\PSoC4/CapSense_Filter.c ****         {
 1005              		.loc 1 784 0
 1006 000e 6B46     		mov	r3, sp
 1007 0010 1B79     		ldrb	r3, [r3, #4]
 1008 0012 062B     		cmp	r3, #6
 1009 0014 09D0     		beq	.L63
 798:Generated_Source\PSoC4/CapSense_Filter.c ****                                                         (uint32)ptrFilterHistObj.ptrRegular->regula
 1010              		.loc 1 798 0
 1011 0016 6500     		lsl	r5, r4, #1
 1012 0018 E85B     		ldrh	r0, [r5, r7]
 1013              	.LVL160:
 799:Generated_Source\PSoC4/CapSense_Filter.c ****                                                         CapSense_REGULAR_IIR_RC_N,
 1014              		.loc 1 799 0
 1015 001a A95B     		ldrh	r1, [r5, r6]
 798:Generated_Source\PSoC4/CapSense_Filter.c ****                                                         (uint32)ptrFilterHistObj.ptrRegular->regula
 1016              		.loc 1 798 0
 1017 001c 8022     		mov	r2, #128
 1018 001e 0023     		mov	r3, #0
 1019 0020 FFF7FEFF 		bl	CapSense_FtIIR1stOrder
 1020              	.LVL161:
 802:Generated_Source\PSoC4/CapSense_Filter.c ****                     ptrSensorObj->raw[channel] = LO16(temp >>CapSense_REGULAR_IIR_RC_SHIFT);
 1021              		.loc 1 802 0
 1022 0024 80B2     		uxth	r0, r0
 1023              	.LVL162:
 1024 0026 A853     		strh	r0, [r5, r6]
 803:Generated_Source\PSoC4/CapSense_Filter.c ****                 #endif /* (CapSense_REGULAR_IIR_RC_TYPE == CapSense_IIR_FILTER_PERFORMANCE) */
 1025              		.loc 1 803 0
 1026 0028 E853     		strh	r0, [r5, r7]
 1027              	.L63:
 778:Generated_Source\PSoC4/CapSense_Filter.c ****     uint32 channel;
 1028              		.loc 1 778 0 discriminator 1
 1029 002a 231C     		mov	r3, r4
 1030              	.LVL163:
 1031              	.L62:
 782:Generated_Source\PSoC4/CapSense_Filter.c ****     {
ARM GAS  C:\Users\RD\AppData\Local\Temp\ccQZrPXd.s 			page 46


 1032              		.loc 1 782 0 discriminator 1
 1033 002c 5C1E     		sub	r4, r3, #1
 1034              	.LVL164:
 1035 002e 002B     		cmp	r3, #0
 1036 0030 EDD1     		bne	.L64
 831:Generated_Source\PSoC4/CapSense_Filter.c **** #endif /* #if (CapSense_REGULAR_RC_IIR_FILTER_EN || CapSense_PROX_RC_IIR_FILTER_EN) */
 1037              		.loc 1 831 0
 1038 0032 03B0     		add	sp, sp, #12
 1039              		@ sp needed
 1040              	.LVL165:
 1041              	.LVL166:
 1042 0034 F0BD     		pop	{r4, r5, r6, r7, pc}
 1043              		.cfi_endproc
 1044              	.LFE14:
 1045              		.size	CapSense_RunIIRInternal, .-CapSense_RunIIRInternal
 1046 0036 C046     		.section	.text.CapSense_RunIIR,"ax",%progbits
 1047              		.align	2
 1048              		.global	CapSense_RunIIR
 1049              		.code	16
 1050              		.thumb_func
 1051              		.type	CapSense_RunIIR, %function
 1052              	CapSense_RunIIR:
 1053              	.LFB12:
 689:Generated_Source\PSoC4/CapSense_Filter.c ****     CapSense_FLASH_WD_STRUCT const *ptrWidget = &CapSense_dsFlash.wdgtArray[widgetId];      
 1054              		.loc 1 689 0
 1055              		.cfi_startproc
 1056              	.LVL167:
 1057 0000 F8B5     		push	{r3, r4, r5, r6, r7, lr}
 1058              		.cfi_def_cfa_offset 24
 1059              		.cfi_offset 3, -24
 1060              		.cfi_offset 4, -20
 1061              		.cfi_offset 5, -16
 1062              		.cfi_offset 6, -12
 1063              		.cfi_offset 7, -8
 1064              		.cfi_offset 14, -4
 1065              	.LVL168:
 695:Generated_Source\PSoC4/CapSense_Filter.c ****     ptrSensor = &ptrSensor[sensorId];
 1066              		.loc 1 695 0
 1067 0002 0C4E     		ldr	r6, .L67
 1068 0004 8300     		lsl	r3, r0, #2
 1069 0006 1A18     		add	r2, r3, r0
 1070 0008 D200     		lsl	r2, r2, #3
 1071 000a B518     		add	r5, r6, r2
 1072              	.LVL169:
 696:Generated_Source\PSoC4/CapSense_Filter.c ****         
 1073              		.loc 1 696 0
 1074 000c CA00     		lsl	r2, r1, #3
 1075 000e 521A     		sub	r2, r2, r1
 1076 0010 5200     		lsl	r2, r2, #1
 1077 0012 AC68     		ldr	r4, [r5, #8]
 1078 0014 A418     		add	r4, r4, r2
 1079              	.LVL170:
 699:Generated_Source\PSoC4/CapSense_Filter.c ****     
 1080              		.loc 1 699 0
 1081 0016 EF68     		ldr	r7, [r5, #12]
 1082 0018 3D1C     		mov	r5, r7
 1083              	.LVL171:
ARM GAS  C:\Users\RD\AppData\Local\Temp\ccQZrPXd.s 			page 47


 701:Generated_Source\PSoC4/CapSense_Filter.c ****     {
 1084              		.loc 1 701 0
 1085 001a 1B18     		add	r3, r3, r0
 1086 001c DB00     		lsl	r3, r3, #3
 1087 001e F318     		add	r3, r6, r3
 1088 0020 1A7E     		ldrb	r2, [r3, #24]
 1089 0022 062A     		cmp	r2, #6
 1090 0024 01D0     		beq	.L66
 704:Generated_Source\PSoC4/CapSense_Filter.c ****         #endif /* (CapSense_REGULAR_SENSOR_EN) */
 1091              		.loc 1 704 0
 1092 0026 4900     		lsl	r1, r1, #1
 1093              	.LVL172:
 1094 0028 7D18     		add	r5, r7, r1
 1095              	.L66:
 1096              	.LVL173:
 714:Generated_Source\PSoC4/CapSense_Filter.c **** }
 1097              		.loc 1 714 0
 1098 002a 281C     		mov	r0, r5
 1099              	.LVL174:
 1100 002c 211C     		mov	r1, r4
 1101 002e FFF7FEFF 		bl	CapSense_RunIIRInternal
 1102              	.LVL175:
 715:Generated_Source\PSoC4/CapSense_Filter.c ****     
 1103              		.loc 1 715 0
 1104              		@ sp needed
 1105              	.LVL176:
 1106              	.LVL177:
 1107              	.LVL178:
 1108 0032 F8BD     		pop	{r3, r4, r5, r6, r7, pc}
 1109              	.L68:
 1110              		.align	2
 1111              	.L67:
 1112 0034 00000000 		.word	CapSense_dsFlash
 1113              		.cfi_endproc
 1114              	.LFE12:
 1115              		.size	CapSense_RunIIR, .-CapSense_RunIIR
 1116              		.section	.text.CapSense_FtRunEnabledFiltersInternal,"ax",%progbits
 1117              		.align	2
 1118              		.global	CapSense_FtRunEnabledFiltersInternal
 1119              		.code	16
 1120              		.thumb_func
 1121              		.type	CapSense_FtRunEnabledFiltersInternal, %function
 1122              	CapSense_FtRunEnabledFiltersInternal:
 1123              	.LFB16:
1278:Generated_Source\PSoC4/CapSense_Filter.c ****     #if (CapSense_REGULAR_RC_MEDIAN_FILTER_EN || CapSense_PROX_RC_MEDIAN_FILTER_EN)
 1124              		.loc 1 1278 0
 1125              		.cfi_startproc
 1126              	.LVL179:
 1127 0000 08B5     		push	{r3, lr}
 1128              		.cfi_def_cfa_offset 8
 1129              		.cfi_offset 3, -8
 1130              		.cfi_offset 14, -4
1284:Generated_Source\PSoC4/CapSense_Filter.c ****     #endif /* (CapSense_REGULAR_RC_IIR_FILTER_EN || CapSense_PROX_RC_IIR_FILTER_EN) */ 
 1131              		.loc 1 1284 0
 1132 0002 FFF7FEFF 		bl	CapSense_RunIIRInternal
 1133              	.LVL180:
1290:Generated_Source\PSoC4/CapSense_Filter.c **** #endif /* (CapSense_REGULAR_RC_FILTER_EN || CapSense_PROX_RC_FILTER_EN) */
ARM GAS  C:\Users\RD\AppData\Local\Temp\ccQZrPXd.s 			page 48


 1134              		.loc 1 1290 0
 1135              		@ sp needed
 1136 0006 08BD     		pop	{r3, pc}
 1137              		.cfi_endproc
 1138              	.LFE16:
 1139              		.size	CapSense_FtRunEnabledFiltersInternal, .-CapSense_FtRunEnabledFiltersInternal
 1140              		.section	.text.CapSense_FtRunEnabledFilters,"ax",%progbits
 1141              		.align	2
 1142              		.global	CapSense_FtRunEnabledFilters
 1143              		.code	16
 1144              		.thumb_func
 1145              		.type	CapSense_FtRunEnabledFilters, %function
 1146              	CapSense_FtRunEnabledFilters:
 1147              	.LFB15:
1234:Generated_Source\PSoC4/CapSense_Filter.c ****     CapSense_FLASH_WD_STRUCT const *ptrWidget = &CapSense_dsFlash.wdgtArray[widgetId];      
 1148              		.loc 1 1234 0
 1149              		.cfi_startproc
 1150              	.LVL181:
 1151 0000 F8B5     		push	{r3, r4, r5, r6, r7, lr}
 1152              		.cfi_def_cfa_offset 24
 1153              		.cfi_offset 3, -24
 1154              		.cfi_offset 4, -20
 1155              		.cfi_offset 5, -16
 1156              		.cfi_offset 6, -12
 1157              		.cfi_offset 7, -8
 1158              		.cfi_offset 14, -4
 1159              	.LVL182:
1240:Generated_Source\PSoC4/CapSense_Filter.c ****     ptrSensor = &ptrSensor[sensorId];
 1160              		.loc 1 1240 0
 1161 0002 0C4E     		ldr	r6, .L72
 1162 0004 8300     		lsl	r3, r0, #2
 1163 0006 1A18     		add	r2, r3, r0
 1164 0008 D200     		lsl	r2, r2, #3
 1165 000a B518     		add	r5, r6, r2
 1166              	.LVL183:
1241:Generated_Source\PSoC4/CapSense_Filter.c ****     
 1167              		.loc 1 1241 0
 1168 000c CA00     		lsl	r2, r1, #3
 1169 000e 521A     		sub	r2, r2, r1
 1170 0010 5200     		lsl	r2, r2, #1
 1171 0012 AC68     		ldr	r4, [r5, #8]
 1172 0014 A418     		add	r4, r4, r2
 1173              	.LVL184:
1244:Generated_Source\PSoC4/CapSense_Filter.c ****     
 1174              		.loc 1 1244 0
 1175 0016 EF68     		ldr	r7, [r5, #12]
 1176 0018 3D1C     		mov	r5, r7
 1177              	.LVL185:
1246:Generated_Source\PSoC4/CapSense_Filter.c ****     {
 1178              		.loc 1 1246 0
 1179 001a 1B18     		add	r3, r3, r0
 1180 001c DB00     		lsl	r3, r3, #3
 1181 001e F318     		add	r3, r6, r3
 1182 0020 1A7E     		ldrb	r2, [r3, #24]
 1183 0022 062A     		cmp	r2, #6
 1184 0024 01D0     		beq	.L71
1249:Generated_Source\PSoC4/CapSense_Filter.c ****         #endif /* (CapSense_REGULAR_SENSOR_EN) */
ARM GAS  C:\Users\RD\AppData\Local\Temp\ccQZrPXd.s 			page 49


 1185              		.loc 1 1249 0
 1186 0026 4900     		lsl	r1, r1, #1
 1187              	.LVL186:
 1188 0028 7D18     		add	r5, r7, r1
 1189              	.L71:
 1190              	.LVL187:
1259:Generated_Source\PSoC4/CapSense_Filter.c **** }
 1191              		.loc 1 1259 0
 1192 002a 281C     		mov	r0, r5
 1193              	.LVL188:
 1194 002c 211C     		mov	r1, r4
 1195 002e FFF7FEFF 		bl	CapSense_FtRunEnabledFiltersInternal
 1196              	.LVL189:
1260:Generated_Source\PSoC4/CapSense_Filter.c **** 
 1197              		.loc 1 1260 0
 1198              		@ sp needed
 1199              	.LVL190:
 1200              	.LVL191:
 1201              	.LVL192:
 1202 0032 F8BD     		pop	{r3, r4, r5, r6, r7, pc}
 1203              	.L73:
 1204              		.align	2
 1205              	.L72:
 1206 0034 00000000 		.word	CapSense_dsFlash
 1207              		.cfi_endproc
 1208              	.LFE15:
 1209              		.size	CapSense_FtRunEnabledFilters, .-CapSense_FtRunEnabledFilters
 1210              		.text
 1211              	.Letext0:
 1212              		.file 2 "Generated_Source\\PSoC4\\cytypes.h"
 1213              		.file 3 "Generated_Source\\PSoC4\\CapSense_Configuration.h"
 1214              		.file 4 "Generated_Source\\PSoC4\\CapSense_SmartSense_LL.h"
 1215              		.file 5 "Generated_Source\\PSoC4\\CapSense_Structure.h"