ARM GAS  C:\Users\RD\AppData\Local\Temp\ccHJK4mz.s 			page 1


   1              		.cpu cortex-m0plus
   2              		.fpu softvfp
   3              		.eabi_attribute 20, 1
   4              		.eabi_attribute 21, 1
   5              		.eabi_attribute 23, 3
   6              		.eabi_attribute 24, 1
   7              		.eabi_attribute 25, 1
   8              		.eabi_attribute 26, 1
   9              		.eabi_attribute 30, 1
  10              		.eabi_attribute 34, 0
  11              		.eabi_attribute 18, 4
  12              		.code	16
  13              		.file	"CapSense_Control.c"
  14              		.text
  15              	.Ltext0:
  16              		.cfi_sections	.debug_frame
  17              		.section	.text.CapSense_Initialize,"ax",%progbits
  18              		.align	2
  19              		.global	CapSense_Initialize
  20              		.code	16
  21              		.thumb_func
  22              		.type	CapSense_Initialize, %function
  23              	CapSense_Initialize:
  24              	.LFB2:
  25              		.file 1 "Generated_Source\\PSoC4\\CapSense_Control.c"
   1:Generated_Source\PSoC4/CapSense_Control.c **** /***************************************************************************//**
   2:Generated_Source\PSoC4/CapSense_Control.c **** * \file CapSense_Control.c
   3:Generated_Source\PSoC4/CapSense_Control.c **** * \version 3.10
   4:Generated_Source\PSoC4/CapSense_Control.c **** *
   5:Generated_Source\PSoC4/CapSense_Control.c **** * \brief
   6:Generated_Source\PSoC4/CapSense_Control.c **** * This file provides the source code to the Control module API of the Component.
   7:Generated_Source\PSoC4/CapSense_Control.c **** *
   8:Generated_Source\PSoC4/CapSense_Control.c **** * \see CapSense P4 v3.10 Datasheet
   9:Generated_Source\PSoC4/CapSense_Control.c **** *
  10:Generated_Source\PSoC4/CapSense_Control.c **** *//*****************************************************************************
  11:Generated_Source\PSoC4/CapSense_Control.c **** * Copyright (2016), Cypress Semiconductor Corporation.
  12:Generated_Source\PSoC4/CapSense_Control.c **** ********************************************************************************
  13:Generated_Source\PSoC4/CapSense_Control.c **** * This software is owned by Cypress Semiconductor Corporation (Cypress) and is
  14:Generated_Source\PSoC4/CapSense_Control.c **** * protected by and subject to worldwide patent protection (United States and
  15:Generated_Source\PSoC4/CapSense_Control.c **** * foreign), United States copyright laws and international treaty provisions.
  16:Generated_Source\PSoC4/CapSense_Control.c **** * Cypress hereby grants to licensee a personal, non-exclusive, non-transferable
  17:Generated_Source\PSoC4/CapSense_Control.c **** * license to copy, use, modify, create derivative works of, and compile the
  18:Generated_Source\PSoC4/CapSense_Control.c **** * Cypress Source Code and derivative works for the sole purpose of creating
  19:Generated_Source\PSoC4/CapSense_Control.c **** * custom software in support of licensee product to be used only in conjunction
  20:Generated_Source\PSoC4/CapSense_Control.c **** * with a Cypress integrated circuit as specified in the applicable agreement.
  21:Generated_Source\PSoC4/CapSense_Control.c **** * Any reproduction, modification, translation, compilation, or representation of
  22:Generated_Source\PSoC4/CapSense_Control.c **** * this software except as specified above is prohibited without the express
  23:Generated_Source\PSoC4/CapSense_Control.c **** * written permission of Cypress.
  24:Generated_Source\PSoC4/CapSense_Control.c **** *
  25:Generated_Source\PSoC4/CapSense_Control.c **** * Disclaimer: CYPRESS MAKES NO WARRANTY OF ANY KIND, EXPRESS OR IMPLIED, WITH
  26:Generated_Source\PSoC4/CapSense_Control.c **** * REGARD TO THIS MATERIAL, INCLUDING, BUT NOT LIMITED TO, THE IMPLIED
  27:Generated_Source\PSoC4/CapSense_Control.c **** * WARRANTIES OF MERCHANTABILITY AND FITNESS FOR A PARTICULAR PURPOSE.
  28:Generated_Source\PSoC4/CapSense_Control.c **** * Cypress reserves the right to make changes without further notice to the
  29:Generated_Source\PSoC4/CapSense_Control.c **** * materials described herein. Cypress does not assume any liability arising out
  30:Generated_Source\PSoC4/CapSense_Control.c **** * of the application or use of any product or circuit described herein. Cypress
  31:Generated_Source\PSoC4/CapSense_Control.c **** * does not authorize its products for use as critical components in life-support
  32:Generated_Source\PSoC4/CapSense_Control.c **** * systems where a malfunction or failure may reasonably be expected to result in
ARM GAS  C:\Users\RD\AppData\Local\Temp\ccHJK4mz.s 			page 2


  33:Generated_Source\PSoC4/CapSense_Control.c **** * significant injury to the user. The inclusion of Cypress' product in a life-
  34:Generated_Source\PSoC4/CapSense_Control.c **** * support systems application implies that the manufacturer assumes all risk of
  35:Generated_Source\PSoC4/CapSense_Control.c **** * such use and in doing so indemnifies Cypress against all charges. Use may be
  36:Generated_Source\PSoC4/CapSense_Control.c **** * limited by and subject to the applicable Cypress software license agreement.
  37:Generated_Source\PSoC4/CapSense_Control.c **** *******************************************************************************/
  38:Generated_Source\PSoC4/CapSense_Control.c **** 
  39:Generated_Source\PSoC4/CapSense_Control.c **** #include "cytypes.h"
  40:Generated_Source\PSoC4/CapSense_Control.c **** #include "CyLib.h"
  41:Generated_Source\PSoC4/CapSense_Control.c **** #include "cyPm.h"
  42:Generated_Source\PSoC4/CapSense_Control.c **** #include "CapSense_Configuration.h"
  43:Generated_Source\PSoC4/CapSense_Control.c **** #include "CapSense_Structure.h"
  44:Generated_Source\PSoC4/CapSense_Control.c **** #include "CapSense_Control.h"
  45:Generated_Source\PSoC4/CapSense_Control.c **** #include "CapSense_Processing.h"
  46:Generated_Source\PSoC4/CapSense_Control.c **** #include "CapSense_Filter.h"
  47:Generated_Source\PSoC4/CapSense_Control.c **** #include "CapSense_Sensing.h"
  48:Generated_Source\PSoC4/CapSense_Control.c **** #include "CapSense_Tuner.h"
  49:Generated_Source\PSoC4/CapSense_Control.c **** 
  50:Generated_Source\PSoC4/CapSense_Control.c **** #if (CapSense_ENABLE == CapSense_SELF_TEST_EN)
  51:Generated_Source\PSoC4/CapSense_Control.c ****     #include "CapSense_SelfTest.h"
  52:Generated_Source\PSoC4/CapSense_Control.c **** #endif
  53:Generated_Source\PSoC4/CapSense_Control.c **** 
  54:Generated_Source\PSoC4/CapSense_Control.c **** #if (0u != CapSense_ADC_EN)
  55:Generated_Source\PSoC4/CapSense_Control.c ****     #include "CapSense_Adc.h"
  56:Generated_Source\PSoC4/CapSense_Control.c **** #endif /* (0u != CapSense_ADC_EN) */
  57:Generated_Source\PSoC4/CapSense_Control.c **** 
  58:Generated_Source\PSoC4/CapSense_Control.c **** /**************************************************************************************************
  59:Generated_Source\PSoC4/CapSense_Control.c **** * Local definition
  60:Generated_Source\PSoC4/CapSense_Control.c **** ***************************************************************************************************
  61:Generated_Source\PSoC4/CapSense_Control.c **** #define CapSense_INIT_DONE   (1u)
  62:Generated_Source\PSoC4/CapSense_Control.c **** #define CapSense_INIT_NEEDED (0u)
  63:Generated_Source\PSoC4/CapSense_Control.c **** 
  64:Generated_Source\PSoC4/CapSense_Control.c **** /**************************************************************************************************
  65:Generated_Source\PSoC4/CapSense_Control.c **** * Local variables
  66:Generated_Source\PSoC4/CapSense_Control.c **** ***************************************************************************************************
  67:Generated_Source\PSoC4/CapSense_Control.c **** static uint8 CapSense_InitVar = CapSense_INIT_NEEDED;
  68:Generated_Source\PSoC4/CapSense_Control.c **** 
  69:Generated_Source\PSoC4/CapSense_Control.c **** /*******************************************************************************
  70:Generated_Source\PSoC4/CapSense_Control.c **** * Function Name: CapSense_Start
  71:Generated_Source\PSoC4/CapSense_Control.c **** ****************************************************************************//**
  72:Generated_Source\PSoC4/CapSense_Control.c **** *
  73:Generated_Source\PSoC4/CapSense_Control.c **** * \brief
  74:Generated_Source\PSoC4/CapSense_Control.c **** *  Initializes component hardware and firmware modules. This function should be 
  75:Generated_Source\PSoC4/CapSense_Control.c **** *  called by the application program prior to calling any other function of the 
  76:Generated_Source\PSoC4/CapSense_Control.c **** *  component.
  77:Generated_Source\PSoC4/CapSense_Control.c **** *
  78:Generated_Source\PSoC4/CapSense_Control.c **** * \details
  79:Generated_Source\PSoC4/CapSense_Control.c **** *  This function initializes the component hardware and firmware modules and 
  80:Generated_Source\PSoC4/CapSense_Control.c **** *  should be called by the application program prior to calling any other API
  81:Generated_Source\PSoC4/CapSense_Control.c **** *  of the component. When this function is called, the following tasks are 
  82:Generated_Source\PSoC4/CapSense_Control.c **** *  executed as part of the initialization process:
  83:Generated_Source\PSoC4/CapSense_Control.c **** *    1. Initialize the registers of the \ref group_structures variable 
  84:Generated_Source\PSoC4/CapSense_Control.c **** *       CapSense_dsRam based on the user selection in component 
  85:Generated_Source\PSoC4/CapSense_Control.c **** *       configuration wizard. 
  86:Generated_Source\PSoC4/CapSense_Control.c **** *    2. Configure the hardware to perform capacitive sensing.
  87:Generated_Source\PSoC4/CapSense_Control.c **** *    3. If SmartSense Auto-tuning is selected for the CSD Tuning mode in the 
  88:Generated_Source\PSoC4/CapSense_Control.c **** *       Basic tab, the auto-tuning algorithm is executed to set the optimal 
  89:Generated_Source\PSoC4/CapSense_Control.c **** *       values for the hardware parameters of the widgets/sensors.
ARM GAS  C:\Users\RD\AppData\Local\Temp\ccHJK4mz.s 			page 3


  90:Generated_Source\PSoC4/CapSense_Control.c **** *    4. Calibrate the sensors and find the optimal values for IDACs of each 
  91:Generated_Source\PSoC4/CapSense_Control.c **** *       widget / sensor, if the Enable IDAC auto-calibration is enabled in the
  92:Generated_Source\PSoC4/CapSense_Control.c **** *       CSD Setting or CSX Setting tabs.
  93:Generated_Source\PSoC4/CapSense_Control.c **** *    5. Perform a scan for all sensors and initialize the baseline history. 
  94:Generated_Source\PSoC4/CapSense_Control.c **** *       During the scan, CPU is in the sleep mode to save power.
  95:Generated_Source\PSoC4/CapSense_Control.c **** *    6. If the firmware filters are enabled in the Advanced General tab, the 
  96:Generated_Source\PSoC4/CapSense_Control.c **** *       filter histories are also initialized.
  97:Generated_Source\PSoC4/CapSense_Control.c **** 
  98:Generated_Source\PSoC4/CapSense_Control.c **** *  Any next call of this API repeats an initialization process except for 
  99:Generated_Source\PSoC4/CapSense_Control.c **** *  data structure initialization. Therefore, it is possible to change the 
 100:Generated_Source\PSoC4/CapSense_Control.c **** *  component configuration from the application program by writing to the 
 101:Generated_Source\PSoC4/CapSense_Control.c **** *  data structure registers and calling this function again. This is also 
 102:Generated_Source\PSoC4/CapSense_Control.c **** *  done inside the CapSense_RunTuner() function when a restart command 
 103:Generated_Source\PSoC4/CapSense_Control.c **** *  is received. 
 104:Generated_Source\PSoC4/CapSense_Control.c **** *
 105:Generated_Source\PSoC4/CapSense_Control.c **** *  When the component operation is stopped by the CapSense_Stop() 
 106:Generated_Source\PSoC4/CapSense_Control.c **** *  function, the CapSense_Start() function repeats an initialization 
 107:Generated_Source\PSoC4/CapSense_Control.c **** *  process including data structure initialization.
 108:Generated_Source\PSoC4/CapSense_Control.c **** *
 109:Generated_Source\PSoC4/CapSense_Control.c **** * \return
 110:Generated_Source\PSoC4/CapSense_Control.c **** *  Returns the status of the initialization process. If CYRET_SUCCESS is not 
 111:Generated_Source\PSoC4/CapSense_Control.c **** *  received, some of the initialization fails and the component may not operate
 112:Generated_Source\PSoC4/CapSense_Control.c **** *  as expected.
 113:Generated_Source\PSoC4/CapSense_Control.c **** *
 114:Generated_Source\PSoC4/CapSense_Control.c **** *******************************************************************************/
 115:Generated_Source\PSoC4/CapSense_Control.c **** cystatus CapSense_Start(void)
 116:Generated_Source\PSoC4/CapSense_Control.c **** {
 117:Generated_Source\PSoC4/CapSense_Control.c ****     cystatus result;
 118:Generated_Source\PSoC4/CapSense_Control.c ****     uint8 interruptState;
 119:Generated_Source\PSoC4/CapSense_Control.c **** 
 120:Generated_Source\PSoC4/CapSense_Control.c ****     /* Initialize CapSense modules */
 121:Generated_Source\PSoC4/CapSense_Control.c ****     result = CapSense_Initialize();
 122:Generated_Source\PSoC4/CapSense_Control.c **** 
 123:Generated_Source\PSoC4/CapSense_Control.c ****     #if (CapSense_CSD_AUTOTUNE != CapSense_CSD_SS_DIS)
 124:Generated_Source\PSoC4/CapSense_Control.c ****         if (CYRET_SUCCESS == result)
 125:Generated_Source\PSoC4/CapSense_Control.c ****         {
 126:Generated_Source\PSoC4/CapSense_Control.c ****             result = CapSense_SsAutoTune();
 127:Generated_Source\PSoC4/CapSense_Control.c ****         }
 128:Generated_Source\PSoC4/CapSense_Control.c ****     #endif /* #if (CapSense_CSD_AUTOTUNE != CapSense_CSD_SS_DIS) */
 129:Generated_Source\PSoC4/CapSense_Control.c **** 
 130:Generated_Source\PSoC4/CapSense_Control.c ****     #if ((0u != CapSense_CSX_IDAC_AUTOCAL_EN) || \
 131:Generated_Source\PSoC4/CapSense_Control.c ****         ((CapSense_CSD_AUTOTUNE == CapSense_CSD_SS_DIS) && (0u != CapSense_CSD_IDAC_AUTOCAL_EN)))
 132:Generated_Source\PSoC4/CapSense_Control.c ****         if (CYRET_SUCCESS == result)
 133:Generated_Source\PSoC4/CapSense_Control.c ****         {
 134:Generated_Source\PSoC4/CapSense_Control.c ****             result = CapSense_CalibrateAllWidgets();
 135:Generated_Source\PSoC4/CapSense_Control.c ****         }
 136:Generated_Source\PSoC4/CapSense_Control.c ****     #endif
 137:Generated_Source\PSoC4/CapSense_Control.c **** 
 138:Generated_Source\PSoC4/CapSense_Control.c ****     if (CYRET_SUCCESS == result)
 139:Generated_Source\PSoC4/CapSense_Control.c ****     {
 140:Generated_Source\PSoC4/CapSense_Control.c ****         result = CapSense_ScanAllWidgets();
 141:Generated_Source\PSoC4/CapSense_Control.c ****     }
 142:Generated_Source\PSoC4/CapSense_Control.c **** 
 143:Generated_Source\PSoC4/CapSense_Control.c ****     if (CYRET_SUCCESS == result)
 144:Generated_Source\PSoC4/CapSense_Control.c ****     {
 145:Generated_Source\PSoC4/CapSense_Control.c ****         /* Put CPU into sleep mode while scanning */
 146:Generated_Source\PSoC4/CapSense_Control.c ****         interruptState = CyEnterCriticalSection();
ARM GAS  C:\Users\RD\AppData\Local\Temp\ccHJK4mz.s 			page 4


 147:Generated_Source\PSoC4/CapSense_Control.c ****         while(CapSense_NOT_BUSY != CapSense_IsBusy())
 148:Generated_Source\PSoC4/CapSense_Control.c ****         {
 149:Generated_Source\PSoC4/CapSense_Control.c ****             CySysPmSleep();
 150:Generated_Source\PSoC4/CapSense_Control.c **** 
 151:Generated_Source\PSoC4/CapSense_Control.c ****             /* Exit from the critical section to unblock processing pending interrupts. */
 152:Generated_Source\PSoC4/CapSense_Control.c ****             CyExitCriticalSection(interruptState);
 153:Generated_Source\PSoC4/CapSense_Control.c ****             interruptState = CyEnterCriticalSection();
 154:Generated_Source\PSoC4/CapSense_Control.c ****         }
 155:Generated_Source\PSoC4/CapSense_Control.c ****         CyExitCriticalSection(interruptState);
 156:Generated_Source\PSoC4/CapSense_Control.c **** 
 157:Generated_Source\PSoC4/CapSense_Control.c ****     }
 158:Generated_Source\PSoC4/CapSense_Control.c ****     CapSense_FtInitialize();
 159:Generated_Source\PSoC4/CapSense_Control.c ****     CapSense_InitializeAllBaselines();
 160:Generated_Source\PSoC4/CapSense_Control.c **** 
 161:Generated_Source\PSoC4/CapSense_Control.c ****     #if (0u != CapSense_ADC_EN)
 162:Generated_Source\PSoC4/CapSense_Control.c ****         CapSense_AdcInitialize();
 163:Generated_Source\PSoC4/CapSense_Control.c ****     #endif /* (0u != CapSense_ADC_EN) */
 164:Generated_Source\PSoC4/CapSense_Control.c **** 
 165:Generated_Source\PSoC4/CapSense_Control.c ****     return result;
 166:Generated_Source\PSoC4/CapSense_Control.c **** }
 167:Generated_Source\PSoC4/CapSense_Control.c **** 
 168:Generated_Source\PSoC4/CapSense_Control.c **** /*******************************************************************************
 169:Generated_Source\PSoC4/CapSense_Control.c **** * Function Name: CapSense_Initialize
 170:Generated_Source\PSoC4/CapSense_Control.c **** ****************************************************************************//**
 171:Generated_Source\PSoC4/CapSense_Control.c **** *
 172:Generated_Source\PSoC4/CapSense_Control.c **** * \brief
 173:Generated_Source\PSoC4/CapSense_Control.c **** *  This function initializes the CapSense component.
 174:Generated_Source\PSoC4/CapSense_Control.c **** *
 175:Generated_Source\PSoC4/CapSense_Control.c **** * \details
 176:Generated_Source\PSoC4/CapSense_Control.c **** *  This API initializes all sub-modules of the CapSense component:
 177:Generated_Source\PSoC4/CapSense_Control.c **** *   - Data Structure - set the default component parameters defined in the Customizer.
 178:Generated_Source\PSoC4/CapSense_Control.c **** *   - Data Processing - resets all widget statuses.
 179:Generated_Source\PSoC4/CapSense_Control.c **** *   - Tuner - resets tuning state.
 180:Generated_Source\PSoC4/CapSense_Control.c **** *   - Sensing - prepares CSD HW for operation.
 181:Generated_Source\PSoC4/CapSense_Control.c **** *
 182:Generated_Source\PSoC4/CapSense_Control.c **** *  Note that Data Structure module is initialized only once after the reset or
 183:Generated_Source\PSoC4/CapSense_Control.c **** *  CapSense_Stop() API is called. The repeated calls of Initialize API
 184:Generated_Source\PSoC4/CapSense_Control.c **** *  will not re-initialize Data Structure. This is done to preserve component
 185:Generated_Source\PSoC4/CapSense_Control.c **** *  parameters that user may set in runtime.
 186:Generated_Source\PSoC4/CapSense_Control.c **** *
 187:Generated_Source\PSoC4/CapSense_Control.c **** *  If default component parameters are needed the CapSense_DsInitialize()
 188:Generated_Source\PSoC4/CapSense_Control.c **** *  API must be called directly from the application code.
 189:Generated_Source\PSoC4/CapSense_Control.c **** *
 190:Generated_Source\PSoC4/CapSense_Control.c **** * \return
 191:Generated_Source\PSoC4/CapSense_Control.c **** *  Return CYRET_SUCCESS if the initialization was successful.
 192:Generated_Source\PSoC4/CapSense_Control.c **** *
 193:Generated_Source\PSoC4/CapSense_Control.c **** *******************************************************************************/
 194:Generated_Source\PSoC4/CapSense_Control.c **** cystatus CapSense_Initialize(void)
 195:Generated_Source\PSoC4/CapSense_Control.c **** {
  26              		.loc 1 195 0
  27              		.cfi_startproc
  28 0000 08B5     		push	{r3, lr}
  29              		.cfi_def_cfa_offset 8
  30              		.cfi_offset 3, -8
  31              		.cfi_offset 14, -4
 196:Generated_Source\PSoC4/CapSense_Control.c ****     cystatus result;
 197:Generated_Source\PSoC4/CapSense_Control.c **** 
ARM GAS  C:\Users\RD\AppData\Local\Temp\ccHJK4mz.s 			page 5


 198:Generated_Source\PSoC4/CapSense_Control.c ****     /* The Data Structure and Tuner are initialized only once */
 199:Generated_Source\PSoC4/CapSense_Control.c ****     if (CapSense_INIT_NEEDED == CapSense_InitVar)
  32              		.loc 1 199 0
  33 0002 084B     		ldr	r3, .L3
  34 0004 1B78     		ldrb	r3, [r3]
  35 0006 002B     		cmp	r3, #0
  36 0008 06D1     		bne	.L2
 200:Generated_Source\PSoC4/CapSense_Control.c ****     {
 201:Generated_Source\PSoC4/CapSense_Control.c ****         CapSense_DsInitialize();
  37              		.loc 1 201 0
  38 000a FFF7FEFF 		bl	CapSense_DsInitialize
  39              	.LVL0:
 202:Generated_Source\PSoC4/CapSense_Control.c ****         CapSense_TuInitialize();
  40              		.loc 1 202 0
  41 000e FFF7FEFF 		bl	CapSense_TuInitialize
  42              	.LVL1:
 203:Generated_Source\PSoC4/CapSense_Control.c ****         CapSense_InitVar = CapSense_INIT_DONE;
  43              		.loc 1 203 0
  44 0012 0122     		mov	r2, #1
  45 0014 034B     		ldr	r3, .L3
  46 0016 1A70     		strb	r2, [r3]
  47              	.L2:
 204:Generated_Source\PSoC4/CapSense_Control.c ****     }
 205:Generated_Source\PSoC4/CapSense_Control.c **** 
 206:Generated_Source\PSoC4/CapSense_Control.c ****     CapSense_DpInitialize();
  48              		.loc 1 206 0
  49 0018 FFF7FEFF 		bl	CapSense_DpInitialize
  50              	.LVL2:
 207:Generated_Source\PSoC4/CapSense_Control.c **** 
 208:Generated_Source\PSoC4/CapSense_Control.c ****     result = CapSense_SsInitialize();
  51              		.loc 1 208 0
  52 001c FFF7FEFF 		bl	CapSense_SsInitialize
  53              	.LVL3:
 209:Generated_Source\PSoC4/CapSense_Control.c **** 
 210:Generated_Source\PSoC4/CapSense_Control.c ****     return result;
 211:Generated_Source\PSoC4/CapSense_Control.c **** }
  54              		.loc 1 211 0
  55              		@ sp needed
  56 0020 08BD     		pop	{r3, pc}
  57              	.L4:
  58 0022 C046     		.align	2
  59              	.L3:
  60 0024 00000000 		.word	.LANCHOR0
  61              		.cfi_endproc
  62              	.LFE2:
  63              		.size	CapSense_Initialize, .-CapSense_Initialize
  64              		.section	.text.CapSense_Start,"ax",%progbits
  65              		.align	2
  66              		.global	CapSense_Start
  67              		.code	16
  68              		.thumb_func
  69              		.type	CapSense_Start, %function
  70              	CapSense_Start:
  71              	.LFB1:
 116:Generated_Source\PSoC4/CapSense_Control.c ****     cystatus result;
  72              		.loc 1 116 0
  73              		.cfi_startproc
ARM GAS  C:\Users\RD\AppData\Local\Temp\ccHJK4mz.s 			page 6


  74 0000 38B5     		push	{r3, r4, r5, lr}
  75              		.cfi_def_cfa_offset 16
  76              		.cfi_offset 3, -16
  77              		.cfi_offset 4, -12
  78              		.cfi_offset 5, -8
  79              		.cfi_offset 14, -4
 121:Generated_Source\PSoC4/CapSense_Control.c **** 
  80              		.loc 1 121 0
  81 0002 FFF7FEFF 		bl	CapSense_Initialize
  82              	.LVL4:
  83 0006 051E     		sub	r5, r0, #0
  84              	.LVL5:
 124:Generated_Source\PSoC4/CapSense_Control.c ****         {
  85              		.loc 1 124 0
  86 0008 02D1     		bne	.L6
 126:Generated_Source\PSoC4/CapSense_Control.c ****         }
  87              		.loc 1 126 0
  88 000a FFF7FEFF 		bl	CapSense_SsAutoTune
  89              	.LVL6:
  90 000e 051C     		mov	r5, r0
  91              	.LVL7:
  92              	.L6:
 138:Generated_Source\PSoC4/CapSense_Control.c ****     {
  93              		.loc 1 138 0
  94 0010 002D     		cmp	r5, #0
  95 0012 02D1     		bne	.L7
 140:Generated_Source\PSoC4/CapSense_Control.c ****     }
  96              		.loc 1 140 0
  97 0014 FFF7FEFF 		bl	CapSense_ScanAllWidgets
  98              	.LVL8:
  99 0018 051C     		mov	r5, r0
 100              	.LVL9:
 101              	.L7:
 143:Generated_Source\PSoC4/CapSense_Control.c ****     {
 102              		.loc 1 143 0
 103 001a 002D     		cmp	r5, #0
 104 001c 12D1     		bne	.L8
 146:Generated_Source\PSoC4/CapSense_Control.c ****         while(CapSense_NOT_BUSY != CapSense_IsBusy())
 105              		.loc 1 146 0
 106 001e FFF7FEFF 		bl	CyEnterCriticalSection
 107              	.LVL10:
 108 0022 041C     		mov	r4, r0
 109              	.LVL11:
 147:Generated_Source\PSoC4/CapSense_Control.c ****         {
 110              		.loc 1 147 0
 111 0024 07E0     		b	.L9
 112              	.LVL12:
 113              	.L10:
 149:Generated_Source\PSoC4/CapSense_Control.c **** 
 114              		.loc 1 149 0
 115 0026 FFF7FEFF 		bl	CySysPmSleep
 116              	.LVL13:
 152:Generated_Source\PSoC4/CapSense_Control.c ****             interruptState = CyEnterCriticalSection();
 117              		.loc 1 152 0
 118 002a 201C     		mov	r0, r4
 119 002c FFF7FEFF 		bl	CyExitCriticalSection
 120              	.LVL14:
ARM GAS  C:\Users\RD\AppData\Local\Temp\ccHJK4mz.s 			page 7


 153:Generated_Source\PSoC4/CapSense_Control.c ****         }
 121              		.loc 1 153 0
 122 0030 FFF7FEFF 		bl	CyEnterCriticalSection
 123              	.LVL15:
 124 0034 041C     		mov	r4, r0
 125              	.LVL16:
 126              	.L9:
 147:Generated_Source\PSoC4/CapSense_Control.c ****         {
 127              		.loc 1 147 0
 128 0036 FFF7FEFF 		bl	CapSense_IsBusy
 129              	.LVL17:
 130 003a 0028     		cmp	r0, #0
 131 003c F3D1     		bne	.L10
 155:Generated_Source\PSoC4/CapSense_Control.c **** 
 132              		.loc 1 155 0
 133 003e 201C     		mov	r0, r4
 134 0040 FFF7FEFF 		bl	CyExitCriticalSection
 135              	.LVL18:
 136              	.L8:
 158:Generated_Source\PSoC4/CapSense_Control.c ****     CapSense_InitializeAllBaselines();
 137              		.loc 1 158 0
 138 0044 FFF7FEFF 		bl	CapSense_FtInitialize
 139              	.LVL19:
 159:Generated_Source\PSoC4/CapSense_Control.c **** 
 140              		.loc 1 159 0
 141 0048 FFF7FEFF 		bl	CapSense_InitializeAllBaselines
 142              	.LVL20:
 166:Generated_Source\PSoC4/CapSense_Control.c **** 
 143              		.loc 1 166 0
 144 004c 281C     		mov	r0, r5
 145              		@ sp needed
 146              	.LVL21:
 147 004e 38BD     		pop	{r3, r4, r5, pc}
 148              		.cfi_endproc
 149              	.LFE1:
 150              		.size	CapSense_Start, .-CapSense_Start
 151              		.section	.text.CapSense_Stop,"ax",%progbits
 152              		.align	2
 153              		.global	CapSense_Stop
 154              		.code	16
 155              		.thumb_func
 156              		.type	CapSense_Stop, %function
 157              	CapSense_Stop:
 158              	.LFB3:
 212:Generated_Source\PSoC4/CapSense_Control.c **** 
 213:Generated_Source\PSoC4/CapSense_Control.c **** /*******************************************************************************
 214:Generated_Source\PSoC4/CapSense_Control.c **** * Function Name: CapSense_Stop
 215:Generated_Source\PSoC4/CapSense_Control.c **** ****************************************************************************//**
 216:Generated_Source\PSoC4/CapSense_Control.c **** *
 217:Generated_Source\PSoC4/CapSense_Control.c **** * \brief
 218:Generated_Source\PSoC4/CapSense_Control.c **** *  Stops the component operation.
 219:Generated_Source\PSoC4/CapSense_Control.c **** *
 220:Generated_Source\PSoC4/CapSense_Control.c **** * \details
 221:Generated_Source\PSoC4/CapSense_Control.c **** *  This function stops the component operation, no sensor scanning can be 
 222:Generated_Source\PSoC4/CapSense_Control.c **** *  executed when the component is stopped. Once stopped, the hardware block may 
 223:Generated_Source\PSoC4/CapSense_Control.c **** *  be reconfigured by the application program for any other special usage. The 
 224:Generated_Source\PSoC4/CapSense_Control.c **** *  component operation can be resumed by calling the CapSense_Resume() 
ARM GAS  C:\Users\RD\AppData\Local\Temp\ccHJK4mz.s 			page 8


 225:Generated_Source\PSoC4/CapSense_Control.c **** *  function or the component can be reset by calling the 
 226:Generated_Source\PSoC4/CapSense_Control.c **** *  CapSense_Start() function.
 227:Generated_Source\PSoC4/CapSense_Control.c **** *  
 228:Generated_Source\PSoC4/CapSense_Control.c **** *  This function should be called when no scanning is in progress. 
 229:Generated_Source\PSoC4/CapSense_Control.c **** *  I.e. CapSense_IsBusy() returns a non-busy status.
 230:Generated_Source\PSoC4/CapSense_Control.c **** *
 231:Generated_Source\PSoC4/CapSense_Control.c **** * \return
 232:Generated_Source\PSoC4/CapSense_Control.c **** *  Returns the status of the stop process. If CYRET_SUCCESS is not received, 
 233:Generated_Source\PSoC4/CapSense_Control.c **** *  the stop process fails and retries may be required.
 234:Generated_Source\PSoC4/CapSense_Control.c **** *
 235:Generated_Source\PSoC4/CapSense_Control.c **** *******************************************************************************/
 236:Generated_Source\PSoC4/CapSense_Control.c **** cystatus CapSense_Stop(void)
 237:Generated_Source\PSoC4/CapSense_Control.c **** {
 159              		.loc 1 237 0
 160              		.cfi_startproc
 161              	.LVL22:
 238:Generated_Source\PSoC4/CapSense_Control.c ****     cystatus result = CYRET_SUCCESS;
 239:Generated_Source\PSoC4/CapSense_Control.c **** 
 240:Generated_Source\PSoC4/CapSense_Control.c ****     #if (CapSense_ENABLE == CapSense_ADC_EN)
 241:Generated_Source\PSoC4/CapSense_Control.c ****         /* Release CSD resources */
 242:Generated_Source\PSoC4/CapSense_Control.c ****         result = CapSense_SsReleaseResources();
 243:Generated_Source\PSoC4/CapSense_Control.c **** 
 244:Generated_Source\PSoC4/CapSense_Control.c ****         /* Release ADC resources */
 245:Generated_Source\PSoC4/CapSense_Control.c ****         CapSense_AdcStop();
 246:Generated_Source\PSoC4/CapSense_Control.c ****     #endif /* (CapSense_ENABLE == CapSense_ADC_EN) */
 247:Generated_Source\PSoC4/CapSense_Control.c **** 
 248:Generated_Source\PSoC4/CapSense_Control.c ****     CapSense_InitVar = CapSense_INIT_NEEDED;
 162              		.loc 1 248 0
 163 0000 0022     		mov	r2, #0
 164 0002 024B     		ldr	r3, .L12
 165 0004 1A70     		strb	r2, [r3]
 249:Generated_Source\PSoC4/CapSense_Control.c **** 
 250:Generated_Source\PSoC4/CapSense_Control.c ****     return result;
 251:Generated_Source\PSoC4/CapSense_Control.c **** }
 166              		.loc 1 251 0
 167 0006 0020     		mov	r0, #0
 168              		@ sp needed
 169 0008 7047     		bx	lr
 170              	.L13:
 171 000a C046     		.align	2
 172              	.L12:
 173 000c 00000000 		.word	.LANCHOR0
 174              		.cfi_endproc
 175              	.LFE3:
 176              		.size	CapSense_Stop, .-CapSense_Stop
 177              		.section	.text.CapSense_Resume,"ax",%progbits
 178              		.align	2
 179              		.global	CapSense_Resume
 180              		.code	16
 181              		.thumb_func
 182              		.type	CapSense_Resume, %function
 183              	CapSense_Resume:
 184              	.LFB4:
 252:Generated_Source\PSoC4/CapSense_Control.c **** 
 253:Generated_Source\PSoC4/CapSense_Control.c **** /*******************************************************************************
 254:Generated_Source\PSoC4/CapSense_Control.c **** * Function Name: CapSense_Resume
 255:Generated_Source\PSoC4/CapSense_Control.c **** ****************************************************************************//**
ARM GAS  C:\Users\RD\AppData\Local\Temp\ccHJK4mz.s 			page 9


 256:Generated_Source\PSoC4/CapSense_Control.c **** *
 257:Generated_Source\PSoC4/CapSense_Control.c **** * \brief
 258:Generated_Source\PSoC4/CapSense_Control.c **** *  Resumes the component operation if CapSense_Stop() function was 
 259:Generated_Source\PSoC4/CapSense_Control.c **** *  called previously.
 260:Generated_Source\PSoC4/CapSense_Control.c **** *
 261:Generated_Source\PSoC4/CapSense_Control.c **** * \details
 262:Generated_Source\PSoC4/CapSense_Control.c **** *  This function resumes the component operation if the operation is stopped
 263:Generated_Source\PSoC4/CapSense_Control.c **** *  previously by the CapSense_Stop() function. The following tasks are 
 264:Generated_Source\PSoC4/CapSense_Control.c **** *  executed as part of the operation resume process:
 265:Generated_Source\PSoC4/CapSense_Control.c **** *    1. Reset all Widgets/Sensors status.
 266:Generated_Source\PSoC4/CapSense_Control.c **** *    2. Configure the hardware to perform capacitive sensing.
 267:Generated_Source\PSoC4/CapSense_Control.c **** *
 268:Generated_Source\PSoC4/CapSense_Control.c **** * \return
 269:Generated_Source\PSoC4/CapSense_Control.c **** *  Returns the status of the resume process. If CYRET_SUCCESS is not received,
 270:Generated_Source\PSoC4/CapSense_Control.c **** *  the resume process fails and retries may be required.
 271:Generated_Source\PSoC4/CapSense_Control.c **** *
 272:Generated_Source\PSoC4/CapSense_Control.c **** *******************************************************************************/
 273:Generated_Source\PSoC4/CapSense_Control.c **** cystatus CapSense_Resume(void)
 274:Generated_Source\PSoC4/CapSense_Control.c **** {
 185              		.loc 1 274 0
 186              		.cfi_startproc
 187 0000 08B5     		push	{r3, lr}
 188              		.cfi_def_cfa_offset 8
 189              		.cfi_offset 3, -8
 190              		.cfi_offset 14, -4
 275:Generated_Source\PSoC4/CapSense_Control.c ****     cystatus result;
 276:Generated_Source\PSoC4/CapSense_Control.c **** 
 277:Generated_Source\PSoC4/CapSense_Control.c ****     /* The Tuner are initialized only once to do not break communication */
 278:Generated_Source\PSoC4/CapSense_Control.c ****     if (CapSense_INIT_NEEDED == CapSense_InitVar)
 191              		.loc 1 278 0
 192 0002 074B     		ldr	r3, .L16
 193 0004 1B78     		ldrb	r3, [r3]
 194 0006 002B     		cmp	r3, #0
 195 0008 04D1     		bne	.L15
 279:Generated_Source\PSoC4/CapSense_Control.c ****     {
 280:Generated_Source\PSoC4/CapSense_Control.c ****         CapSense_TuInitialize();
 196              		.loc 1 280 0
 197 000a FFF7FEFF 		bl	CapSense_TuInitialize
 198              	.LVL23:
 281:Generated_Source\PSoC4/CapSense_Control.c ****         CapSense_InitVar = CapSense_INIT_DONE;
 199              		.loc 1 281 0
 200 000e 0122     		mov	r2, #1
 201 0010 034B     		ldr	r3, .L16
 202 0012 1A70     		strb	r2, [r3]
 203              	.L15:
 282:Generated_Source\PSoC4/CapSense_Control.c ****     }
 283:Generated_Source\PSoC4/CapSense_Control.c ****     CapSense_DpInitialize();
 204              		.loc 1 283 0
 205 0014 FFF7FEFF 		bl	CapSense_DpInitialize
 206              	.LVL24:
 284:Generated_Source\PSoC4/CapSense_Control.c **** 
 285:Generated_Source\PSoC4/CapSense_Control.c ****     result = CapSense_SsInitialize();
 207              		.loc 1 285 0
 208 0018 FFF7FEFF 		bl	CapSense_SsInitialize
 209              	.LVL25:
 286:Generated_Source\PSoC4/CapSense_Control.c **** 
 287:Generated_Source\PSoC4/CapSense_Control.c ****     return result;
ARM GAS  C:\Users\RD\AppData\Local\Temp\ccHJK4mz.s 			page 10


 288:Generated_Source\PSoC4/CapSense_Control.c **** }
 210              		.loc 1 288 0
 211              		@ sp needed
 212 001c 08BD     		pop	{r3, pc}
 213              	.L17:
 214 001e C046     		.align	2
 215              	.L16:
 216 0020 00000000 		.word	.LANCHOR0
 217              		.cfi_endproc
 218              	.LFE4:
 219              		.size	CapSense_Resume, .-CapSense_Resume
 220              		.section	.text.CapSense_ProcessAllWidgets,"ax",%progbits
 221              		.align	2
 222              		.global	CapSense_ProcessAllWidgets
 223              		.code	16
 224              		.thumb_func
 225              		.type	CapSense_ProcessAllWidgets, %function
 226              	CapSense_ProcessAllWidgets:
 227              	.LFB5:
 289:Generated_Source\PSoC4/CapSense_Control.c **** 
 290:Generated_Source\PSoC4/CapSense_Control.c **** /*******************************************************************************
 291:Generated_Source\PSoC4/CapSense_Control.c **** * Function Name: CapSense_ProcessAllWidgets
 292:Generated_Source\PSoC4/CapSense_Control.c **** ****************************************************************************//**
 293:Generated_Source\PSoC4/CapSense_Control.c **** *
 294:Generated_Source\PSoC4/CapSense_Control.c **** * \brief
 295:Generated_Source\PSoC4/CapSense_Control.c **** *  Performs full data processing of all enabled widgets.
 296:Generated_Source\PSoC4/CapSense_Control.c **** *
 297:Generated_Source\PSoC4/CapSense_Control.c **** * \details
 298:Generated_Source\PSoC4/CapSense_Control.c **** *  This function performs all data processes for all enabled widgets in the 
 299:Generated_Source\PSoC4/CapSense_Control.c **** *  component. The following tasks are executed as part of processing all the 
 300:Generated_Source\PSoC4/CapSense_Control.c **** *  widgets:
 301:Generated_Source\PSoC4/CapSense_Control.c **** *    1. Apply raw-count filters to raw counts, if they are enabled in the 
 302:Generated_Source\PSoC4/CapSense_Control.c **** *       customizer.
 303:Generated_Source\PSoC4/CapSense_Control.c **** *    2. Update thresholds if the SmartSense Full Auto-Tuning is enabled in
 304:Generated_Source\PSoC4/CapSense_Control.c **** *       the customizer.
 305:Generated_Source\PSoC4/CapSense_Control.c **** *    3. Update the Baselines and Difference counts for all sensors.
 306:Generated_Source\PSoC4/CapSense_Control.c **** *    4. Update the sensor and widget status (on/off), update centroid for 
 307:Generated_Source\PSoC4/CapSense_Control.c **** *       sliders and X/Y position for touchpads.
 308:Generated_Source\PSoC4/CapSense_Control.c **** *  
 309:Generated_Source\PSoC4/CapSense_Control.c **** *  Disabled widgets are not processed. To disable/enable a widget, set 
 310:Generated_Source\PSoC4/CapSense_Control.c **** *  appropriate values in the 
 311:Generated_Source\PSoC4/CapSense_Control.c **** *  CapSense_WDGT_ENABLE<RegisterNumber>_PARAM_ID register using the
 312:Generated_Source\PSoC4/CapSense_Control.c **** *  CapSense_SetParam() function.
 313:Generated_Source\PSoC4/CapSense_Control.c **** *  This function should be called only after all the sensors in the component
 314:Generated_Source\PSoC4/CapSense_Control.c **** *  are scanned. Calling this function multiple times without sensor scanning
 315:Generated_Source\PSoC4/CapSense_Control.c **** *  causes unexpected behavior.
 316:Generated_Source\PSoC4/CapSense_Control.c **** *
 317:Generated_Source\PSoC4/CapSense_Control.c **** *  If Self-test library is enabled this function executes baseline duplication
 318:Generated_Source\PSoC4/CapSense_Control.c **** *  test. Refer to CapSense_CheckBaselineDuplication() for details.
 319:Generated_Source\PSoC4/CapSense_Control.c **** *
 320:Generated_Source\PSoC4/CapSense_Control.c **** * \return
 321:Generated_Source\PSoC4/CapSense_Control.c **** *  Returns the status of the processing operation. If CYRET_SUCCESS is not received, 
 322:Generated_Source\PSoC4/CapSense_Control.c **** *  the processing fails and retries may be required.
 323:Generated_Source\PSoC4/CapSense_Control.c **** *
 324:Generated_Source\PSoC4/CapSense_Control.c **** *******************************************************************************/
 325:Generated_Source\PSoC4/CapSense_Control.c **** cystatus CapSense_ProcessAllWidgets(void)
 326:Generated_Source\PSoC4/CapSense_Control.c **** {
ARM GAS  C:\Users\RD\AppData\Local\Temp\ccHJK4mz.s 			page 11


 228              		.loc 1 326 0
 229              		.cfi_startproc
 230 0000 70B5     		push	{r4, r5, r6, lr}
 231              		.cfi_def_cfa_offset 16
 232              		.cfi_offset 4, -16
 233              		.cfi_offset 5, -12
 234              		.cfi_offset 6, -8
 235              		.cfi_offset 14, -4
 236              	.LVL26:
 327:Generated_Source\PSoC4/CapSense_Control.c ****     uint32 wdgtId;
 328:Generated_Source\PSoC4/CapSense_Control.c ****     cystatus result = CYRET_SUCCESS;
 329:Generated_Source\PSoC4/CapSense_Control.c ****     CapSense_FLASH_WD_STRUCT const *ptrFlashWdgt;
 330:Generated_Source\PSoC4/CapSense_Control.c **** 
 331:Generated_Source\PSoC4/CapSense_Control.c ****     ptrFlashWdgt = CapSense_dsFlash.wdgtArray;
 237              		.loc 1 331 0
 238 0002 0F4E     		ldr	r6, .L22
 328:Generated_Source\PSoC4/CapSense_Control.c ****     CapSense_FLASH_WD_STRUCT const *ptrFlashWdgt;
 239              		.loc 1 328 0
 240 0004 0024     		mov	r4, #0
 332:Generated_Source\PSoC4/CapSense_Control.c **** 
 333:Generated_Source\PSoC4/CapSense_Control.c ****     for (wdgtId = 0u; wdgtId < CapSense_TOTAL_WIDGETS; wdgtId++)
 241              		.loc 1 333 0
 242 0006 0025     		mov	r5, #0
 243 0008 15E0     		b	.L19
 244              	.LVL27:
 245              	.L21:
 334:Generated_Source\PSoC4/CapSense_Control.c ****     {
 335:Generated_Source\PSoC4/CapSense_Control.c ****         if (0uL != CapSense_GET_WIDGET_EN_STATUS(wdgtId))
 246              		.loc 1 335 0
 247 000a 6B09     		lsr	r3, r5, #5
 248 000c 0233     		add	r3, r3, #2
 249 000e 9B00     		lsl	r3, r3, #2
 250 0010 0C4A     		ldr	r2, .L22+4
 251 0012 D318     		add	r3, r2, r3
 252 0014 5A68     		ldr	r2, [r3, #4]
 253 0016 1F23     		mov	r3, #31
 254 0018 2B40     		and	r3, r5
 255 001a DA40     		lsr	r2, r2, r3
 256 001c 131C     		mov	r3, r2
 257 001e DB07     		lsl	r3, r3, #31
 258 0020 07D5     		bpl	.L20
 336:Generated_Source\PSoC4/CapSense_Control.c ****         {
 337:Generated_Source\PSoC4/CapSense_Control.c ****             switch(CapSense_GET_SENSE_METHOD(ptrFlashWdgt))
 338:Generated_Source\PSoC4/CapSense_Control.c ****             {
 339:Generated_Source\PSoC4/CapSense_Control.c ****             #if (0u != CapSense_TOTAL_CSD_WIDGETS)
 340:Generated_Source\PSoC4/CapSense_Control.c ****                 case CapSense_SENSE_METHOD_CSD_E:
 341:Generated_Source\PSoC4/CapSense_Control.c ****                     result = CapSense_DpProcessCsdWidgetRawCounts(ptrFlashWdgt);
 259              		.loc 1 341 0
 260 0022 301C     		mov	r0, r6
 261 0024 FFF7FEFF 		bl	CapSense_DpProcessCsdWidgetRawCounts
 262              	.LVL28:
 263 0028 041C     		mov	r4, r0
 264              	.LVL29:
 342:Generated_Source\PSoC4/CapSense_Control.c ****                     CapSense_DpProcessCsdWidgetStatus(wdgtId, ptrFlashWdgt);
 265              		.loc 1 342 0
 266 002a 281C     		mov	r0, r5
 267              	.LVL30:
ARM GAS  C:\Users\RD\AppData\Local\Temp\ccHJK4mz.s 			page 12


 268 002c 311C     		mov	r1, r6
 269 002e FFF7FEFF 		bl	CapSense_DpProcessCsdWidgetStatus
 270              	.LVL31:
 271              	.L20:
 343:Generated_Source\PSoC4/CapSense_Control.c ****                     break;
 344:Generated_Source\PSoC4/CapSense_Control.c ****             #endif /* #if (0u != CapSense_TOTAL_CSD_WIDGETS) */
 345:Generated_Source\PSoC4/CapSense_Control.c **** 
 346:Generated_Source\PSoC4/CapSense_Control.c ****             #if (0u != CapSense_TOTAL_CSX_WIDGETS)
 347:Generated_Source\PSoC4/CapSense_Control.c ****                 case CapSense_SENSE_METHOD_CSX_E:
 348:Generated_Source\PSoC4/CapSense_Control.c ****                     result = CapSense_DpProcessCsxWidgetRawCounts(ptrFlashWdgt);
 349:Generated_Source\PSoC4/CapSense_Control.c ****                     CapSense_DpProcessCsxWidgetStatus(wdgtId, ptrFlashWdgt);
 350:Generated_Source\PSoC4/CapSense_Control.c ****                     break;
 351:Generated_Source\PSoC4/CapSense_Control.c ****             #endif /* #if (0u != CapSense_TOTAL_CSX_WIDGETS) */
 352:Generated_Source\PSoC4/CapSense_Control.c **** 
 353:Generated_Source\PSoC4/CapSense_Control.c ****             default:
 354:Generated_Source\PSoC4/CapSense_Control.c ****                 CYASSERT(0u);
 355:Generated_Source\PSoC4/CapSense_Control.c ****                 break;
 356:Generated_Source\PSoC4/CapSense_Control.c ****             }
 357:Generated_Source\PSoC4/CapSense_Control.c ****                     
 358:Generated_Source\PSoC4/CapSense_Control.c ****             #if (CapSense_ENABLE == CapSense_TST_BSLN_DUPLICATION_EN)
 359:Generated_Source\PSoC4/CapSense_Control.c ****                 if (CYRET_SUCCESS != result)
 360:Generated_Source\PSoC4/CapSense_Control.c ****                 {
 361:Generated_Source\PSoC4/CapSense_Control.c ****                     CapSense_UpdateTestResultBaselineDuplication(wdgtId, result);
 362:Generated_Source\PSoC4/CapSense_Control.c ****                     result = CYRET_BAD_DATA;
 363:Generated_Source\PSoC4/CapSense_Control.c ****                 }
 364:Generated_Source\PSoC4/CapSense_Control.c ****             #endif /* (CapSense_ENABLE == CapSense_TST_BSLN_DUPLICATION_EN) */
 365:Generated_Source\PSoC4/CapSense_Control.c ****                     
 366:Generated_Source\PSoC4/CapSense_Control.c ****         }
 367:Generated_Source\PSoC4/CapSense_Control.c ****         ptrFlashWdgt++;
 272              		.loc 1 367 0 discriminator 2
 273 0032 2836     		add	r6, r6, #40
 274              	.LVL32:
 333:Generated_Source\PSoC4/CapSense_Control.c ****     {
 275              		.loc 1 333 0 discriminator 2
 276 0034 0135     		add	r5, r5, #1
 277              	.LVL33:
 278              	.L19:
 333:Generated_Source\PSoC4/CapSense_Control.c ****     {
 279              		.loc 1 333 0 is_stmt 0 discriminator 1
 280 0036 002D     		cmp	r5, #0
 281 0038 E7D0     		beq	.L21
 368:Generated_Source\PSoC4/CapSense_Control.c ****     }
 369:Generated_Source\PSoC4/CapSense_Control.c ****     return result;
 370:Generated_Source\PSoC4/CapSense_Control.c **** }
 282              		.loc 1 370 0 is_stmt 1
 283 003a 201C     		mov	r0, r4
 284              		@ sp needed
 285              	.LVL34:
 286              	.LVL35:
 287              	.LVL36:
 288 003c 70BD     		pop	{r4, r5, r6, pc}
 289              	.L23:
 290 003e C046     		.align	2
 291              	.L22:
 292 0040 00000000 		.word	CapSense_dsFlash
 293 0044 00000000 		.word	CapSense_dsRam
 294              		.cfi_endproc
ARM GAS  C:\Users\RD\AppData\Local\Temp\ccHJK4mz.s 			page 13


 295              	.LFE5:
 296              		.size	CapSense_ProcessAllWidgets, .-CapSense_ProcessAllWidgets
 297              		.section	.text.CapSense_ProcessWidget,"ax",%progbits
 298              		.align	2
 299              		.global	CapSense_ProcessWidget
 300              		.code	16
 301              		.thumb_func
 302              		.type	CapSense_ProcessWidget, %function
 303              	CapSense_ProcessWidget:
 304              	.LFB6:
 371:Generated_Source\PSoC4/CapSense_Control.c **** 
 372:Generated_Source\PSoC4/CapSense_Control.c **** /*******************************************************************************
 373:Generated_Source\PSoC4/CapSense_Control.c **** * Function Name: CapSense_ProcessWidget
 374:Generated_Source\PSoC4/CapSense_Control.c **** ****************************************************************************//**
 375:Generated_Source\PSoC4/CapSense_Control.c **** *
 376:Generated_Source\PSoC4/CapSense_Control.c **** * \brief
 377:Generated_Source\PSoC4/CapSense_Control.c **** *  Performs full data processing of the specified widget if it is enabled.
 378:Generated_Source\PSoC4/CapSense_Control.c **** *
 379:Generated_Source\PSoC4/CapSense_Control.c **** * \details
 380:Generated_Source\PSoC4/CapSense_Control.c **** *  This function performs exactly the same tasks as 
 381:Generated_Source\PSoC4/CapSense_Control.c **** *  CapSense_ProcessAllWidgets(), but only for a specified widget. This 
 382:Generated_Source\PSoC4/CapSense_Control.c **** *  function can be used along with the CapSense_SetupWidget() and 
 383:Generated_Source\PSoC4/CapSense_Control.c **** *  CapSense_Scan() functions to scan and process data for a specific
 384:Generated_Source\PSoC4/CapSense_Control.c **** *  widget. This function should be called only after all the sensors in the 
 385:Generated_Source\PSoC4/CapSense_Control.c **** *  widgets are scanned. A disabled widget is not processed by this function.
 386:Generated_Source\PSoC4/CapSense_Control.c **** *  
 387:Generated_Source\PSoC4/CapSense_Control.c **** *  The pipeline scan method (i.e. during scanning of a widget perform processing
 388:Generated_Source\PSoC4/CapSense_Control.c **** *  of the previously scanned widget) can be implemented using this function and
 389:Generated_Source\PSoC4/CapSense_Control.c **** *  it may reduce the total scan/process time, increase the refresh rate and 
 390:Generated_Source\PSoC4/CapSense_Control.c **** *  decrease the power consumption.
 391:Generated_Source\PSoC4/CapSense_Control.c **** *
 392:Generated_Source\PSoC4/CapSense_Control.c **** *  If Self-test library is enabled this function executes baseline duplication
 393:Generated_Source\PSoC4/CapSense_Control.c **** *  test. Refer to CapSense_CheckBaselineDuplication() for details.
 394:Generated_Source\PSoC4/CapSense_Control.c **** *
 395:Generated_Source\PSoC4/CapSense_Control.c **** * \param widgetId 
 396:Generated_Source\PSoC4/CapSense_Control.c **** *  Specify the ID number of the widget to be processed. 
 397:Generated_Source\PSoC4/CapSense_Control.c **** *  A macro for the widget ID can be found in the 
 398:Generated_Source\PSoC4/CapSense_Control.c **** *  CapSense Configuration header file defined as
 399:Generated_Source\PSoC4/CapSense_Control.c **** *  CapSense_<WidgetName>_WDGT_ID
 400:Generated_Source\PSoC4/CapSense_Control.c **** *
 401:Generated_Source\PSoC4/CapSense_Control.c **** * \return
 402:Generated_Source\PSoC4/CapSense_Control.c **** *  Returns the status of the widget processing:
 403:Generated_Source\PSoC4/CapSense_Control.c **** *  - CYRET_SUCCESS if operation is successfully completed
 404:Generated_Source\PSoC4/CapSense_Control.c **** *  - CYRET_BAD_PARAM if the input parameter is invalid
 405:Generated_Source\PSoC4/CapSense_Control.c **** *  - CYRET_INVALID_STATE if the specified widget is disabled
 406:Generated_Source\PSoC4/CapSense_Control.c **** *  - CYRET_BAD_DATA if processing was failed
 407:Generated_Source\PSoC4/CapSense_Control.c **** *
 408:Generated_Source\PSoC4/CapSense_Control.c **** *******************************************************************************/
 409:Generated_Source\PSoC4/CapSense_Control.c **** cystatus CapSense_ProcessWidget(uint32 widgetId)
 410:Generated_Source\PSoC4/CapSense_Control.c **** {
 305              		.loc 1 410 0
 306              		.cfi_startproc
 307              	.LVL37:
 308 0000 70B5     		push	{r4, r5, r6, lr}
 309              		.cfi_def_cfa_offset 16
 310              		.cfi_offset 4, -16
 311              		.cfi_offset 5, -12
ARM GAS  C:\Users\RD\AppData\Local\Temp\ccHJK4mz.s 			page 14


 312              		.cfi_offset 6, -8
 313              		.cfi_offset 14, -4
 314              	.LVL38:
 411:Generated_Source\PSoC4/CapSense_Control.c ****     cystatus result = CYRET_SUCCESS;
 412:Generated_Source\PSoC4/CapSense_Control.c ****     CapSense_FLASH_WD_STRUCT const *ptrFlashWdgt;
 413:Generated_Source\PSoC4/CapSense_Control.c **** 
 414:Generated_Source\PSoC4/CapSense_Control.c ****     if (widgetId >= CapSense_TOTAL_WIDGETS)
 315              		.loc 1 414 0
 316 0002 0028     		cmp	r0, #0
 317 0004 01D1     		bne	.L28
 411:Generated_Source\PSoC4/CapSense_Control.c ****     cystatus result = CYRET_SUCCESS;
 318              		.loc 1 411 0
 319 0006 0025     		mov	r5, #0
 320 0008 00E0     		b	.L25
 321              	.L28:
 415:Generated_Source\PSoC4/CapSense_Control.c ****     {
 416:Generated_Source\PSoC4/CapSense_Control.c ****         result = CYRET_BAD_PARAM;
 322              		.loc 1 416 0
 323 000a 0125     		mov	r5, #1
 324              	.L25:
 325              	.LVL39:
 417:Generated_Source\PSoC4/CapSense_Control.c ****     }
 418:Generated_Source\PSoC4/CapSense_Control.c **** 
 419:Generated_Source\PSoC4/CapSense_Control.c ****     if ((CYRET_SUCCESS == result) && (0uL == CapSense_GET_WIDGET_EN_STATUS(widgetId)))
 326              		.loc 1 419 0
 327 000c 002D     		cmp	r5, #0
 328 000e 0CD1     		bne	.L26
 329              		.loc 1 419 0 is_stmt 0 discriminator 1
 330 0010 4309     		lsr	r3, r0, #5
 331 0012 0233     		add	r3, r3, #2
 332 0014 9B00     		lsl	r3, r3, #2
 333 0016 0E4A     		ldr	r2, .L30
 334 0018 D318     		add	r3, r2, r3
 335 001a 5A68     		ldr	r2, [r3, #4]
 336 001c 1F23     		mov	r3, #31
 337 001e 0340     		and	r3, r0
 338 0020 DA40     		lsr	r2, r2, r3
 339 0022 131C     		mov	r3, r2
 340 0024 DB07     		lsl	r3, r3, #31
 341 0026 00D4     		bmi	.L26
 420:Generated_Source\PSoC4/CapSense_Control.c ****     {
 421:Generated_Source\PSoC4/CapSense_Control.c ****         result = CYRET_INVALID_STATE;
 342              		.loc 1 421 0 is_stmt 1
 343 0028 1135     		add	r5, r5, #17
 344              	.LVL40:
 345              	.L26:
 422:Generated_Source\PSoC4/CapSense_Control.c ****     }
 423:Generated_Source\PSoC4/CapSense_Control.c **** 
 424:Generated_Source\PSoC4/CapSense_Control.c ****     if (CYRET_SUCCESS == result)
 346              		.loc 1 424 0
 347 002a 002D     		cmp	r5, #0
 348 002c 0DD1     		bne	.L27
 349 002e 041C     		mov	r4, r0
 425:Generated_Source\PSoC4/CapSense_Control.c ****     {
 426:Generated_Source\PSoC4/CapSense_Control.c ****         ptrFlashWdgt = &CapSense_dsFlash.wdgtArray[widgetId];
 350              		.loc 1 426 0
 351 0030 8300     		lsl	r3, r0, #2
ARM GAS  C:\Users\RD\AppData\Local\Temp\ccHJK4mz.s 			page 15


 352 0032 1B18     		add	r3, r3, r0
 353 0034 DB00     		lsl	r3, r3, #3
 354 0036 074E     		ldr	r6, .L30+4
 355 0038 9E19     		add	r6, r3, r6
 356              	.LVL41:
 427:Generated_Source\PSoC4/CapSense_Control.c **** 
 428:Generated_Source\PSoC4/CapSense_Control.c ****         switch(CapSense_GET_SENSE_METHOD(ptrFlashWdgt))
 429:Generated_Source\PSoC4/CapSense_Control.c ****         {
 430:Generated_Source\PSoC4/CapSense_Control.c ****         #if (0u != CapSense_TOTAL_CSD_WIDGETS)
 431:Generated_Source\PSoC4/CapSense_Control.c ****             case CapSense_SENSE_METHOD_CSD_E:
 432:Generated_Source\PSoC4/CapSense_Control.c ****                 result = CapSense_DpProcessCsdWidgetRawCounts(ptrFlashWdgt);
 357              		.loc 1 432 0
 358 003a 301C     		mov	r0, r6
 359              	.LVL42:
 360 003c FFF7FEFF 		bl	CapSense_DpProcessCsdWidgetRawCounts
 361              	.LVL43:
 362 0040 051C     		mov	r5, r0
 363              	.LVL44:
 433:Generated_Source\PSoC4/CapSense_Control.c ****                 CapSense_DpProcessCsdWidgetStatus(widgetId, ptrFlashWdgt);
 364              		.loc 1 433 0
 365 0042 201C     		mov	r0, r4
 366              	.LVL45:
 367 0044 311C     		mov	r1, r6
 368 0046 FFF7FEFF 		bl	CapSense_DpProcessCsdWidgetStatus
 369              	.LVL46:
 370              	.L27:
 434:Generated_Source\PSoC4/CapSense_Control.c ****                 break;
 435:Generated_Source\PSoC4/CapSense_Control.c ****         #endif /* #if (0u != CapSense_TOTAL_CSD_WIDGETS) */
 436:Generated_Source\PSoC4/CapSense_Control.c **** 
 437:Generated_Source\PSoC4/CapSense_Control.c ****         #if (0u != CapSense_TOTAL_CSX_WIDGETS)
 438:Generated_Source\PSoC4/CapSense_Control.c ****             case CapSense_SENSE_METHOD_CSX_E:
 439:Generated_Source\PSoC4/CapSense_Control.c ****                 result = CapSense_DpProcessCsxWidgetRawCounts(ptrFlashWdgt);
 440:Generated_Source\PSoC4/CapSense_Control.c ****                 CapSense_DpProcessCsxWidgetStatus(widgetId, ptrFlashWdgt);
 441:Generated_Source\PSoC4/CapSense_Control.c ****                 break;
 442:Generated_Source\PSoC4/CapSense_Control.c ****         #endif /* #if (0u != CapSense_TOTAL_CSX_WIDGETS) */
 443:Generated_Source\PSoC4/CapSense_Control.c **** 
 444:Generated_Source\PSoC4/CapSense_Control.c ****         default:
 445:Generated_Source\PSoC4/CapSense_Control.c ****             CYASSERT(0u);
 446:Generated_Source\PSoC4/CapSense_Control.c ****             break;
 447:Generated_Source\PSoC4/CapSense_Control.c ****         }
 448:Generated_Source\PSoC4/CapSense_Control.c ****                 
 449:Generated_Source\PSoC4/CapSense_Control.c ****         #if (CapSense_ENABLE == CapSense_TST_BSLN_DUPLICATION_EN)
 450:Generated_Source\PSoC4/CapSense_Control.c ****             if (CYRET_SUCCESS != result)
 451:Generated_Source\PSoC4/CapSense_Control.c ****             {
 452:Generated_Source\PSoC4/CapSense_Control.c ****                 CapSense_UpdateTestResultBaselineDuplication(widgetId, result);
 453:Generated_Source\PSoC4/CapSense_Control.c ****                 result = CYRET_BAD_DATA;
 454:Generated_Source\PSoC4/CapSense_Control.c ****             }
 455:Generated_Source\PSoC4/CapSense_Control.c ****         #endif /* (CapSense_ENABLE == CapSense_TST_BSLN_DUPLICATION_EN) */
 456:Generated_Source\PSoC4/CapSense_Control.c ****     }
 457:Generated_Source\PSoC4/CapSense_Control.c ****     return result;
 458:Generated_Source\PSoC4/CapSense_Control.c **** }
 371              		.loc 1 458 0
 372 004a 281C     		mov	r0, r5
 373              		@ sp needed
 374              	.LVL47:
 375 004c 70BD     		pop	{r4, r5, r6, pc}
 376              	.L31:
ARM GAS  C:\Users\RD\AppData\Local\Temp\ccHJK4mz.s 			page 16


 377 004e C046     		.align	2
 378              	.L30:
 379 0050 00000000 		.word	CapSense_dsRam
 380 0054 00000000 		.word	CapSense_dsFlash
 381              		.cfi_endproc
 382              	.LFE6:
 383              		.size	CapSense_ProcessWidget, .-CapSense_ProcessWidget
 384              		.section	.text.CapSense_ProcessWidgetExt,"ax",%progbits
 385              		.align	2
 386              		.global	CapSense_ProcessWidgetExt
 387              		.code	16
 388              		.thumb_func
 389              		.type	CapSense_ProcessWidgetExt, %function
 390              	CapSense_ProcessWidgetExt:
 391              	.LFB7:
 459:Generated_Source\PSoC4/CapSense_Control.c **** 
 460:Generated_Source\PSoC4/CapSense_Control.c **** 
 461:Generated_Source\PSoC4/CapSense_Control.c **** /*******************************************************************************
 462:Generated_Source\PSoC4/CapSense_Control.c **** * Function Name: CapSense_ProcessWidgetExt
 463:Generated_Source\PSoC4/CapSense_Control.c **** ****************************************************************************//**
 464:Generated_Source\PSoC4/CapSense_Control.c **** *
 465:Generated_Source\PSoC4/CapSense_Control.c **** * \brief
 466:Generated_Source\PSoC4/CapSense_Control.c **** *  Performs customized data processing on the selected widget.
 467:Generated_Source\PSoC4/CapSense_Control.c **** *
 468:Generated_Source\PSoC4/CapSense_Control.c **** * \details
 469:Generated_Source\PSoC4/CapSense_Control.c **** *  This function performs data processes for the specified widget specified by 
 470:Generated_Source\PSoC4/CapSense_Control.c **** *  the mode parameter. The execution order of the requested operations is from 
 471:Generated_Source\PSoC4/CapSense_Control.c **** *  LSB to MSB of the mode parameter. If a different order is needed, this API 
 472:Generated_Source\PSoC4/CapSense_Control.c **** *  can be called multiple times with the required mode parameter. 
 473:Generated_Source\PSoC4/CapSense_Control.c **** *  
 474:Generated_Source\PSoC4/CapSense_Control.c **** *  This function can be used with any of the available scan functions. This 
 475:Generated_Source\PSoC4/CapSense_Control.c **** *  function should be called only after all sensors in the specified widget are
 476:Generated_Source\PSoC4/CapSense_Control.c **** *  scanned. Calling this function multiple times with the same mode without 
 477:Generated_Source\PSoC4/CapSense_Control.c **** *  sensor scanning causes unexpected behavior. This function ignores the value 
 478:Generated_Source\PSoC4/CapSense_Control.c **** *  of the wdgtEnable register. 
 479:Generated_Source\PSoC4/CapSense_Control.c **** *  
 480:Generated_Source\PSoC4/CapSense_Control.c **** *  The CapSense_PROCESS_CALC_NOISE and 
 481:Generated_Source\PSoC4/CapSense_Control.c **** *  CapSense_PROCESS_THRESHOLDS flags are supported by the CSD sensing
 482:Generated_Source\PSoC4/CapSense_Control.c **** *  method only when the auto-tuning mode is enabled.
 483:Generated_Source\PSoC4/CapSense_Control.c **** *  
 484:Generated_Source\PSoC4/CapSense_Control.c **** *  The pipeline scan method (i.e. during scanning of a widget perform processing
 485:Generated_Source\PSoC4/CapSense_Control.c **** *  of a previously scanned widget) can be implemented using this function and it
 486:Generated_Source\PSoC4/CapSense_Control.c **** *  may reduce the total scan/process time, increase the refresh rate and 
 487:Generated_Source\PSoC4/CapSense_Control.c **** *  decrease the power consumption.
 488:Generated_Source\PSoC4/CapSense_Control.c **** *
 489:Generated_Source\PSoC4/CapSense_Control.c **** *  If Self-test library is enabled this function executes baseline duplication
 490:Generated_Source\PSoC4/CapSense_Control.c **** *  test. Refer to CapSense_CheckBaselineDuplication() for details.
 491:Generated_Source\PSoC4/CapSense_Control.c **** *
 492:Generated_Source\PSoC4/CapSense_Control.c **** * \param widgetId 
 493:Generated_Source\PSoC4/CapSense_Control.c **** *  Specify the ID number of the widget to be processed. 
 494:Generated_Source\PSoC4/CapSense_Control.c **** *  A macro for the widget ID can be found in the CapSense Configuration header 
 495:Generated_Source\PSoC4/CapSense_Control.c **** *  file defined as CapSense_<WidgetName>_WDGT_ID.
 496:Generated_Source\PSoC4/CapSense_Control.c **** 
 497:Generated_Source\PSoC4/CapSense_Control.c **** * \param mode 
 498:Generated_Source\PSoC4/CapSense_Control.c **** *  Specify the type of widget processing that needs to be executed for the 
 499:Generated_Source\PSoC4/CapSense_Control.c **** *  specified widget:
 500:Generated_Source\PSoC4/CapSense_Control.c **** *    1.	Bits [31..6] - Reserved
ARM GAS  C:\Users\RD\AppData\Local\Temp\ccHJK4mz.s 			page 17


 501:Generated_Source\PSoC4/CapSense_Control.c **** *    2.	Bits [5..0] - CapSense_PROCESS_ALL - Execute all tasks
 502:Generated_Source\PSoC4/CapSense_Control.c **** *    3.	Bit [5] - CapSense_PROCESS_STATUS - Update Status (on/off, 
 503:Generated_Source\PSoC4/CapSense_Control.c **** *       centroid position)
 504:Generated_Source\PSoC4/CapSense_Control.c **** *    4.	Bit [4] - CapSense_PROCESS_THRESHOLDS - Update Thresholds 
 505:Generated_Source\PSoC4/CapSense_Control.c **** *       (only in CSD auto-tuning mode)
 506:Generated_Source\PSoC4/CapSense_Control.c **** *    5.	Bit [3] - CapSense_PROCESS_CALC_NOISE - Calculate Noise (only in
 507:Generated_Source\PSoC4/CapSense_Control.c **** *       CSD auto-tuning mode)
 508:Generated_Source\PSoC4/CapSense_Control.c **** *    6.	Bit [2] - CapSense_PROCESS_DIFFCOUNTS - Update Difference Counts
 509:Generated_Source\PSoC4/CapSense_Control.c **** *    7.	Bit [1] - CapSense_PROCESS_BASELINE - Update Baselines
 510:Generated_Source\PSoC4/CapSense_Control.c **** *    8.	Bit [0] - CapSense_PROCESS_FILTER - Run Firmware Filter
 511:Generated_Source\PSoC4/CapSense_Control.c **** *
 512:Generated_Source\PSoC4/CapSense_Control.c **** * \return
 513:Generated_Source\PSoC4/CapSense_Control.c **** *  Returns the status of the widget processing operation:
 514:Generated_Source\PSoC4/CapSense_Control.c **** *  - CYRET_SUCCESS if processing is successfully performed
 515:Generated_Source\PSoC4/CapSense_Control.c **** *  - CYRET_BAD_PARAM if the input parameter is invalid
 516:Generated_Source\PSoC4/CapSense_Control.c **** *  - CYRET_BAD_DATA if processing was failed
 517:Generated_Source\PSoC4/CapSense_Control.c **** *
 518:Generated_Source\PSoC4/CapSense_Control.c **** *******************************************************************************/
 519:Generated_Source\PSoC4/CapSense_Control.c **** cystatus CapSense_ProcessWidgetExt(uint32 widgetId, uint32 mode)
 520:Generated_Source\PSoC4/CapSense_Control.c **** {
 392              		.loc 1 520 0
 393              		.cfi_startproc
 394              	.LVL48:
 395 0000 F0B5     		push	{r4, r5, r6, r7, lr}
 396              		.cfi_def_cfa_offset 20
 397              		.cfi_offset 4, -20
 398              		.cfi_offset 5, -16
 399              		.cfi_offset 6, -12
 400              		.cfi_offset 7, -8
 401              		.cfi_offset 14, -4
 402 0002 4746     		mov	r7, r8
 403 0004 80B4     		push	{r7}
 404              		.cfi_def_cfa_offset 24
 405              		.cfi_offset 8, -24
 406 0006 84B0     		sub	sp, sp, #16
 407              		.cfi_def_cfa_offset 40
 408              	.LVL49:
 521:Generated_Source\PSoC4/CapSense_Control.c ****     uint32 snsCount;
 522:Generated_Source\PSoC4/CapSense_Control.c ****     cystatus result = CYRET_BAD_PARAM;
 523:Generated_Source\PSoC4/CapSense_Control.c ****     CapSense_FLASH_WD_STRUCT const *ptrFlashWdgt;
 524:Generated_Source\PSoC4/CapSense_Control.c ****     CapSense_PTR_FILTER_VARIANT fltrHistV;
 525:Generated_Source\PSoC4/CapSense_Control.c ****     CapSense_RAM_SNS_STRUCT *ptrSns;
 526:Generated_Source\PSoC4/CapSense_Control.c **** 
 527:Generated_Source\PSoC4/CapSense_Control.c ****     #if (0u != CapSense_TOTAL_CSD_WIDGETS)
 528:Generated_Source\PSoC4/CapSense_Control.c ****         uint32 isProxWdgt;
 529:Generated_Source\PSoC4/CapSense_Control.c ****     #endif
 530:Generated_Source\PSoC4/CapSense_Control.c **** 
 531:Generated_Source\PSoC4/CapSense_Control.c ****     if (widgetId < CapSense_TOTAL_WIDGETS)
 409              		.loc 1 531 0
 410 0008 0028     		cmp	r0, #0
 411 000a 2CD1     		bne	.L38
 532:Generated_Source\PSoC4/CapSense_Control.c ****     {
 533:Generated_Source\PSoC4/CapSense_Control.c ****         ptrFlashWdgt = &CapSense_dsFlash.wdgtArray[widgetId];
 412              		.loc 1 533 0
 413 000c 8300     		lsl	r3, r0, #2
 414 000e 1B18     		add	r3, r3, r0
 415 0010 DB00     		lsl	r3, r3, #3
ARM GAS  C:\Users\RD\AppData\Local\Temp\ccHJK4mz.s 			page 18


 416 0012 184A     		ldr	r2, .L40
 417 0014 9846     		mov	r8, r3
 418 0016 9044     		add	r8, r8, r2
 419              	.LVL50:
 534:Generated_Source\PSoC4/CapSense_Control.c ****         snsCount = CapSense_GET_SNS_CNT_BY_PTR(ptrFlashWdgt);
 420              		.loc 1 534 0
 421 0018 4346     		mov	r3, r8
 422 001a DB8A     		ldrh	r3, [r3, #22]
 423              	.LVL51:
 535:Generated_Source\PSoC4/CapSense_Control.c ****         ptrSns = ptrFlashWdgt->ptr2SnsRam;
 424              		.loc 1 535 0
 425 001c 4246     		mov	r2, r8
 426 001e 9468     		ldr	r4, [r2, #8]
 427              	.LVL52:
 536:Generated_Source\PSoC4/CapSense_Control.c ****         fltrHistV.ptr = ptrFlashWdgt->ptr2FltrHistory;
 428              		.loc 1 536 0
 429 0020 D668     		ldr	r6, [r2, #12]
 430              	.LVL53:
 537:Generated_Source\PSoC4/CapSense_Control.c **** 
 538:Generated_Source\PSoC4/CapSense_Control.c ****         switch(CapSense_GET_SENSE_METHOD(ptrFlashWdgt))
 539:Generated_Source\PSoC4/CapSense_Control.c ****         {
 540:Generated_Source\PSoC4/CapSense_Control.c ****         #if (0u != CapSense_TOTAL_CSD_WIDGETS)
 541:Generated_Source\PSoC4/CapSense_Control.c ****             case CapSense_SENSE_METHOD_CSD_E:
 542:Generated_Source\PSoC4/CapSense_Control.c ****             {
 543:Generated_Source\PSoC4/CapSense_Control.c ****                 /* Determine if widget is type of proximity.
 544:Generated_Source\PSoC4/CapSense_Control.c ****                  * The Proximity widgets use different filters and
 545:Generated_Source\PSoC4/CapSense_Control.c ****                  * therefore have different filter history object structure */
 546:Generated_Source\PSoC4/CapSense_Control.c ****                 isProxWdgt =
 547:Generated_Source\PSoC4/CapSense_Control.c ****                     (CapSense_GET_WIDGET_TYPE(ptrFlashWdgt) == CapSense_WD_PROXIMITY_E) ? 1Lu : 0Lu
 431              		.loc 1 547 0
 432 0022 127E     		ldrb	r2, [r2, #24]
 433 0024 062A     		cmp	r2, #6
 434 0026 01D1     		bne	.L39
 435 0028 0125     		mov	r5, #1
 436 002a 00E0     		b	.L34
 437              	.L39:
 438 002c 0025     		mov	r5, #0
 439              	.L34:
 440 002e 0291     		str	r1, [sp, #8]
 441 0030 0390     		str	r0, [sp, #12]
 442              	.LVL54:
 522:Generated_Source\PSoC4/CapSense_Control.c ****     CapSense_FLASH_WD_STRUCT const *ptrFlashWdgt;
 443              		.loc 1 522 0
 444 0032 0122     		mov	r2, #1
 445 0034 0192     		str	r2, [sp, #4]
 548:Generated_Source\PSoC4/CapSense_Control.c **** 
 549:Generated_Source\PSoC4/CapSense_Control.c ****                 /* Run the desired processing for the all CSD widget sensors */
 550:Generated_Source\PSoC4/CapSense_Control.c ****                 for (;snsCount-- > 0u;)
 446              		.loc 1 550 0
 447 0036 0BE0     		b	.L35
 448              	.LVL55:
 449              	.L37:
 551:Generated_Source\PSoC4/CapSense_Control.c ****                 {
 552:Generated_Source\PSoC4/CapSense_Control.c ****                     result = CapSense_DpProcessCsdSensorRawCountsExt(ptrFlashWdgt, ptrSns, fltrHist
 450              		.loc 1 552 0
 451 0038 4046     		mov	r0, r8
 452 003a 211C     		mov	r1, r4
ARM GAS  C:\Users\RD\AppData\Local\Temp\ccHJK4mz.s 			page 19


 453 003c 321C     		mov	r2, r6
 454 003e 029B     		ldr	r3, [sp, #8]
 455 0040 FFF7FEFF 		bl	CapSense_DpProcessCsdSensorRawCountsExt
 456              	.LVL56:
 457 0044 0190     		str	r0, [sp, #4]
 458              	.LVL57:
 553:Generated_Source\PSoC4/CapSense_Control.c ****                     
 554:Generated_Source\PSoC4/CapSense_Control.c ****                     #if (CapSense_ENABLE == CapSense_TST_BSLN_DUPLICATION_EN)
 555:Generated_Source\PSoC4/CapSense_Control.c ****                         if (CYRET_SUCCESS != result)
 556:Generated_Source\PSoC4/CapSense_Control.c ****                         {
 557:Generated_Source\PSoC4/CapSense_Control.c ****                             result = (result | CapSense_TST_LSBYTE) & snsCount;
 558:Generated_Source\PSoC4/CapSense_Control.c ****                         }
 559:Generated_Source\PSoC4/CapSense_Control.c ****                     #endif /* (CapSense_ENABLE == CapSense_TST_BSLN_DUPLICATION_EN) */
 560:Generated_Source\PSoC4/CapSense_Control.c **** 
 561:Generated_Source\PSoC4/CapSense_Control.c ****                     /* Move to the next sensor and filter history objects */
 562:Generated_Source\PSoC4/CapSense_Control.c ****                     ptrSns++;
 459              		.loc 1 562 0
 460 0046 0E34     		add	r4, r4, #14
 461              	.LVL58:
 563:Generated_Source\PSoC4/CapSense_Control.c ****                     CapSense_INC_FLTR_OBJ_VARIANT(isProxWdgt, fltrHistV);
 462              		.loc 1 563 0
 463 0048 002D     		cmp	r5, #0
 464 004a 00D1     		bne	.L36
 465              		.loc 1 563 0 is_stmt 0 discriminator 1
 466 004c 0236     		add	r6, r6, #2
 467              	.LVL59:
 468              	.L36:
 469 004e 3B1C     		mov	r3, r7
 470              	.LVL60:
 471              	.L35:
 550:Generated_Source\PSoC4/CapSense_Control.c ****                 {
 472              		.loc 1 550 0 is_stmt 1
 473 0050 5F1E     		sub	r7, r3, #1
 474              	.LVL61:
 475 0052 002B     		cmp	r3, #0
 476 0054 F0D1     		bne	.L37
 564:Generated_Source\PSoC4/CapSense_Control.c ****                 }
 565:Generated_Source\PSoC4/CapSense_Control.c **** 
 566:Generated_Source\PSoC4/CapSense_Control.c ****                 if (0u != (mode & CapSense_PROCESS_STATUS))
 477              		.loc 1 566 0
 478 0056 029B     		ldr	r3, [sp, #8]
 479 0058 9B06     		lsl	r3, r3, #26
 480 005a 06D5     		bpl	.L33
 567:Generated_Source\PSoC4/CapSense_Control.c ****                 {
 568:Generated_Source\PSoC4/CapSense_Control.c ****                     CapSense_DpProcessCsdWidgetStatus(widgetId, ptrFlashWdgt);
 481              		.loc 1 568 0
 482 005c 0398     		ldr	r0, [sp, #12]
 483 005e 4146     		mov	r1, r8
 484 0060 FFF7FEFF 		bl	CapSense_DpProcessCsdWidgetStatus
 485              	.LVL62:
 486 0064 01E0     		b	.L33
 487              	.LVL63:
 488              	.L38:
 522:Generated_Source\PSoC4/CapSense_Control.c ****     CapSense_FLASH_WD_STRUCT const *ptrFlashWdgt;
 489              		.loc 1 522 0
 490 0066 0123     		mov	r3, #1
 491 0068 0193     		str	r3, [sp, #4]
ARM GAS  C:\Users\RD\AppData\Local\Temp\ccHJK4mz.s 			page 20


 492              	.LVL64:
 493              	.L33:
 569:Generated_Source\PSoC4/CapSense_Control.c ****                 }
 570:Generated_Source\PSoC4/CapSense_Control.c ****                 break;
 571:Generated_Source\PSoC4/CapSense_Control.c ****             }
 572:Generated_Source\PSoC4/CapSense_Control.c ****         #endif /* #if (0u != CapSense_TOTAL_CSD_WIDGETS) */
 573:Generated_Source\PSoC4/CapSense_Control.c **** 
 574:Generated_Source\PSoC4/CapSense_Control.c ****         #if (0u != CapSense_TOTAL_CSX_WIDGETS)
 575:Generated_Source\PSoC4/CapSense_Control.c ****             case CapSense_SENSE_METHOD_CSX_E:
 576:Generated_Source\PSoC4/CapSense_Control.c **** 
 577:Generated_Source\PSoC4/CapSense_Control.c ****                 #if (0u != CapSense_CSX_MULTIPHASE_TX_EN)
 578:Generated_Source\PSoC4/CapSense_Control.c ****                     if ((0u != (mode & CapSense_PROCESS_DECONVOLUTION)) &&
 579:Generated_Source\PSoC4/CapSense_Control.c ****                         (0u != (ptrFlashWdgt->staticConfig & CapSense_MULTIPHASE_TX_MASK)))
 580:Generated_Source\PSoC4/CapSense_Control.c ****                     {
 581:Generated_Source\PSoC4/CapSense_Control.c ****                         CapSense_DpDeconvolution(ptrFlashWdgt);
 582:Generated_Source\PSoC4/CapSense_Control.c ****                     }
 583:Generated_Source\PSoC4/CapSense_Control.c ****                 #endif /* #if (0u != CapSense_CSX_MULTIPHASE_TX_EN) */
 584:Generated_Source\PSoC4/CapSense_Control.c **** 
 585:Generated_Source\PSoC4/CapSense_Control.c ****                 /* Run the desired processing for the all CSX widget sensors */
 586:Generated_Source\PSoC4/CapSense_Control.c ****                 for (;snsCount-- > 0u;)
 587:Generated_Source\PSoC4/CapSense_Control.c ****                 {
 588:Generated_Source\PSoC4/CapSense_Control.c ****                     result = CapSense_DpProcessCsxSensorRawCountsExt(ptrFlashWdgt, ptrSns, fltrHist
 589:Generated_Source\PSoC4/CapSense_Control.c ****                     
 590:Generated_Source\PSoC4/CapSense_Control.c ****                     #if (CapSense_ENABLE == CapSense_TST_BSLN_DUPLICATION_EN)
 591:Generated_Source\PSoC4/CapSense_Control.c ****                         if (CYRET_SUCCESS != result)
 592:Generated_Source\PSoC4/CapSense_Control.c ****                         {
 593:Generated_Source\PSoC4/CapSense_Control.c ****                             result = (result | CapSense_TST_LSBYTE) & snsCount;
 594:Generated_Source\PSoC4/CapSense_Control.c ****                         }
 595:Generated_Source\PSoC4/CapSense_Control.c ****                     #endif /* (CapSense_ENABLE == CapSense_TST_BSLN_DUPLICATION_EN) */
 596:Generated_Source\PSoC4/CapSense_Control.c ****                     
 597:Generated_Source\PSoC4/CapSense_Control.c ****                     /* Move to the next sensor and filter history objects */
 598:Generated_Source\PSoC4/CapSense_Control.c ****                     ptrSns++;
 599:Generated_Source\PSoC4/CapSense_Control.c ****                     CapSense_INC_FLTR_OBJ_VARIANT(0u, fltrHistV);
 600:Generated_Source\PSoC4/CapSense_Control.c ****                 }
 601:Generated_Source\PSoC4/CapSense_Control.c **** 
 602:Generated_Source\PSoC4/CapSense_Control.c ****                 if (0u != (mode & CapSense_PROCESS_STATUS))
 603:Generated_Source\PSoC4/CapSense_Control.c ****                 {
 604:Generated_Source\PSoC4/CapSense_Control.c ****                     CapSense_DpProcessCsxWidgetStatus(widgetId, ptrFlashWdgt);
 605:Generated_Source\PSoC4/CapSense_Control.c ****                 }
 606:Generated_Source\PSoC4/CapSense_Control.c ****                 break;
 607:Generated_Source\PSoC4/CapSense_Control.c ****         #endif /* #if (0u != CapSense_TOTAL_CSX_WIDGETS) */
 608:Generated_Source\PSoC4/CapSense_Control.c **** 
 609:Generated_Source\PSoC4/CapSense_Control.c ****         default:
 610:Generated_Source\PSoC4/CapSense_Control.c ****             CYASSERT(0u);
 611:Generated_Source\PSoC4/CapSense_Control.c ****             break;
 612:Generated_Source\PSoC4/CapSense_Control.c ****         }
 613:Generated_Source\PSoC4/CapSense_Control.c **** 
 614:Generated_Source\PSoC4/CapSense_Control.c ****         #if (CapSense_ENABLE == CapSense_TST_BSLN_DUPLICATION_EN)
 615:Generated_Source\PSoC4/CapSense_Control.c ****             if (CYRET_SUCCESS != result)
 616:Generated_Source\PSoC4/CapSense_Control.c ****             {
 617:Generated_Source\PSoC4/CapSense_Control.c ****                 CapSense_UpdateTestResultBaselineDuplication(widgetId, snsCount);
 618:Generated_Source\PSoC4/CapSense_Control.c ****                 result = CYRET_BAD_DATA;
 619:Generated_Source\PSoC4/CapSense_Control.c ****             }
 620:Generated_Source\PSoC4/CapSense_Control.c ****         #endif /* (CapSense_ENABLE == CapSense_TST_BSLN_DUPLICATION_EN) */
 621:Generated_Source\PSoC4/CapSense_Control.c ****         
 622:Generated_Source\PSoC4/CapSense_Control.c ****     }
 623:Generated_Source\PSoC4/CapSense_Control.c ****     return result;
ARM GAS  C:\Users\RD\AppData\Local\Temp\ccHJK4mz.s 			page 21


 624:Generated_Source\PSoC4/CapSense_Control.c **** }
 494              		.loc 1 624 0
 495 006a 0198     		ldr	r0, [sp, #4]
 496 006c 04B0     		add	sp, sp, #16
 497              		@ sp needed
 498              	.LVL65:
 499 006e 04BC     		pop	{r2}
 500 0070 9046     		mov	r8, r2
 501 0072 F0BD     		pop	{r4, r5, r6, r7, pc}
 502              	.L41:
 503              		.align	2
 504              	.L40:
 505 0074 00000000 		.word	CapSense_dsFlash
 506              		.cfi_endproc
 507              	.LFE7:
 508              		.size	CapSense_ProcessWidgetExt, .-CapSense_ProcessWidgetExt
 509              		.section	.text.CapSense_ProcessSensorExt,"ax",%progbits
 510              		.align	2
 511              		.global	CapSense_ProcessSensorExt
 512              		.code	16
 513              		.thumb_func
 514              		.type	CapSense_ProcessSensorExt, %function
 515              	CapSense_ProcessSensorExt:
 516              	.LFB8:
 625:Generated_Source\PSoC4/CapSense_Control.c **** 
 626:Generated_Source\PSoC4/CapSense_Control.c **** /*******************************************************************************
 627:Generated_Source\PSoC4/CapSense_Control.c **** * Function Name: CapSense_ProcessSensorExt
 628:Generated_Source\PSoC4/CapSense_Control.c **** ****************************************************************************//**
 629:Generated_Source\PSoC4/CapSense_Control.c **** *
 630:Generated_Source\PSoC4/CapSense_Control.c **** * \brief
 631:Generated_Source\PSoC4/CapSense_Control.c **** *  Performs customized data processing on the selected widget's sensor.
 632:Generated_Source\PSoC4/CapSense_Control.c **** *
 633:Generated_Source\PSoC4/CapSense_Control.c **** * \details
 634:Generated_Source\PSoC4/CapSense_Control.c **** *  This function performs data processes for the specified sensor specified by
 635:Generated_Source\PSoC4/CapSense_Control.c **** *  the mode parameter. The execution order of the requested operations is from 
 636:Generated_Source\PSoC4/CapSense_Control.c **** *  LSB to MSB of the mode parameter. If a different order is needed, this 
 637:Generated_Source\PSoC4/CapSense_Control.c **** *  function can be called multiple times with the required mode parameter.
 638:Generated_Source\PSoC4/CapSense_Control.c **** *  
 639:Generated_Source\PSoC4/CapSense_Control.c **** *  This function can be used with any of the available scan functions. This 
 640:Generated_Source\PSoC4/CapSense_Control.c **** *  function should be called only after a specified sensor in the widget is 
 641:Generated_Source\PSoC4/CapSense_Control.c **** *  scanned. Calling this function multiple times with the same mode without 
 642:Generated_Source\PSoC4/CapSense_Control.c **** *  sensor scanning causes unexpected behavior. This function ignores the value 
 643:Generated_Source\PSoC4/CapSense_Control.c **** *  of the wdgtEnable register. 
 644:Generated_Source\PSoC4/CapSense_Control.c **** *  
 645:Generated_Source\PSoC4/CapSense_Control.c **** *  The CapSense_PROCESS_CALC_NOISE and 
 646:Generated_Source\PSoC4/CapSense_Control.c **** *  CapSense_PROCESS_THRESHOLDS flags are supported by the CSD sensing 
 647:Generated_Source\PSoC4/CapSense_Control.c **** *  method only when the auto-tuning mode is enabled.
 648:Generated_Source\PSoC4/CapSense_Control.c **** *  
 649:Generated_Source\PSoC4/CapSense_Control.c **** *  The pipeline scan method (i.e. during scanning of a sensor perform processing
 650:Generated_Source\PSoC4/CapSense_Control.c **** *  of a previously scanned sensor) can be implemented using this function and it
 651:Generated_Source\PSoC4/CapSense_Control.c **** *  may reduce the total scan/process time, increase the refresh rate and 
 652:Generated_Source\PSoC4/CapSense_Control.c **** *  decrease the power consumption.
 653:Generated_Source\PSoC4/CapSense_Control.c **** *
 654:Generated_Source\PSoC4/CapSense_Control.c **** *  If Self-test library is enabled this function executes baseline duplication
 655:Generated_Source\PSoC4/CapSense_Control.c **** *  test. Refer to CapSense_CheckBaselineDuplication() for details.
 656:Generated_Source\PSoC4/CapSense_Control.c **** *
 657:Generated_Source\PSoC4/CapSense_Control.c **** * \param widgetId  
ARM GAS  C:\Users\RD\AppData\Local\Temp\ccHJK4mz.s 			page 22


 658:Generated_Source\PSoC4/CapSense_Control.c **** *  Specify the ID number of the widget to process one of its sensors. 
 659:Generated_Source\PSoC4/CapSense_Control.c **** *  A macro for the widget ID can be found in the 
 660:Generated_Source\PSoC4/CapSense_Control.c **** *  CapSense Configuration header file defined as 
 661:Generated_Source\PSoC4/CapSense_Control.c **** *  CapSense_<WidgetName>_WDGT_ID
 662:Generated_Source\PSoC4/CapSense_Control.c **** *  
 663:Generated_Source\PSoC4/CapSense_Control.c **** * \param sensorId  
 664:Generated_Source\PSoC4/CapSense_Control.c **** *  Specify the ID number of the sensor within the widget to process it.
 665:Generated_Source\PSoC4/CapSense_Control.c **** *  A macro for the sensor ID within a specified widget can be found in the
 666:Generated_Source\PSoC4/CapSense_Control.c **** *  CapSense Configuration header file defined as 
 667:Generated_Source\PSoC4/CapSense_Control.c **** *  CapSense_<WidgetName>_SNS<SensorNumber>_ID
 668:Generated_Source\PSoC4/CapSense_Control.c **** *  
 669:Generated_Source\PSoC4/CapSense_Control.c **** * \param mode      
 670:Generated_Source\PSoC4/CapSense_Control.c **** *  Specify the type of the sensor processing that needs to be executed for the
 671:Generated_Source\PSoC4/CapSense_Control.c **** *  specified sensor:
 672:Generated_Source\PSoC4/CapSense_Control.c **** *    1. Bits [31..5] - Reserved
 673:Generated_Source\PSoC4/CapSense_Control.c **** *    2. Bits [4..0] - CapSense_PROCESS_ALL - Executes all tasks
 674:Generated_Source\PSoC4/CapSense_Control.c **** *    3. Bit [4] - CapSense_PROCESS_THRESHOLDS - Updates Thresholds (only
 675:Generated_Source\PSoC4/CapSense_Control.c **** *       in auto-tuning mode)
 676:Generated_Source\PSoC4/CapSense_Control.c **** *    4. Bit [3] - CapSense_PROCESS_CALC_NOISE - Calculates Noise (only 
 677:Generated_Source\PSoC4/CapSense_Control.c **** *       in auto-tuning mode)
 678:Generated_Source\PSoC4/CapSense_Control.c **** *    5. Bit [2] - CapSense_PROCESS_DIFFCOUNTS - Updates Difference Count
 679:Generated_Source\PSoC4/CapSense_Control.c **** *    6. Bit [1] - CapSense_PROCESS_BASELINE - Updates Baseline
 680:Generated_Source\PSoC4/CapSense_Control.c **** *    7. Bit [0] - CapSense_PROCESS_FILTER - Runs Firmware Filter
 681:Generated_Source\PSoC4/CapSense_Control.c **** *
 682:Generated_Source\PSoC4/CapSense_Control.c **** * \return
 683:Generated_Source\PSoC4/CapSense_Control.c **** *  Returns the status of the sensor process operation:
 684:Generated_Source\PSoC4/CapSense_Control.c **** *  - CYRET_SUCCESS if processing is successfully performed
 685:Generated_Source\PSoC4/CapSense_Control.c **** *  - CYRET_BAD_PARAM if the input parameter is invalid
 686:Generated_Source\PSoC4/CapSense_Control.c **** *  - CYRET_BAD_DATA if processing was failed
 687:Generated_Source\PSoC4/CapSense_Control.c **** *
 688:Generated_Source\PSoC4/CapSense_Control.c **** *******************************************************************************/
 689:Generated_Source\PSoC4/CapSense_Control.c **** cystatus CapSense_ProcessSensorExt(uint32 widgetId, uint32 sensorId, uint32 mode)
 690:Generated_Source\PSoC4/CapSense_Control.c **** {
 517              		.loc 1 690 0
 518              		.cfi_startproc
 519              	.LVL66:
 520 0000 F0B5     		push	{r4, r5, r6, r7, lr}
 521              		.cfi_def_cfa_offset 20
 522              		.cfi_offset 4, -20
 523              		.cfi_offset 5, -16
 524              		.cfi_offset 6, -12
 525              		.cfi_offset 7, -8
 526              		.cfi_offset 14, -4
 527 0002 4746     		mov	r7, r8
 528 0004 80B4     		push	{r7}
 529              		.cfi_def_cfa_offset 24
 530              		.cfi_offset 8, -24
 531 0006 82B0     		sub	sp, sp, #8
 532              		.cfi_def_cfa_offset 32
 533              	.LVL67:
 691:Generated_Source\PSoC4/CapSense_Control.c ****     cystatus result = CYRET_BAD_PARAM;
 692:Generated_Source\PSoC4/CapSense_Control.c ****     CapSense_FLASH_WD_STRUCT const *ptrFlashWdgt;
 693:Generated_Source\PSoC4/CapSense_Control.c ****     CapSense_PTR_FILTER_VARIANT fltrHistV;
 694:Generated_Source\PSoC4/CapSense_Control.c ****     CapSense_RAM_SNS_STRUCT *ptrSns;
 695:Generated_Source\PSoC4/CapSense_Control.c **** 
 696:Generated_Source\PSoC4/CapSense_Control.c ****     if ((widgetId < CapSense_TOTAL_WIDGETS) && (sensorId < CapSense_GET_SENSOR_COUNT(widgetId)))
 534              		.loc 1 696 0
ARM GAS  C:\Users\RD\AppData\Local\Temp\ccHJK4mz.s 			page 23


 535 0008 0028     		cmp	r0, #0
 536 000a 22D1     		bne	.L45
 537              		.loc 1 696 0 is_stmt 0 discriminator 1
 538 000c 8400     		lsl	r4, r0, #2
 539 000e 2418     		add	r4, r4, r0
 540 0010 E400     		lsl	r4, r4, #3
 541 0012 134B     		ldr	r3, .L47
 542 0014 1C19     		add	r4, r3, r4
 543 0016 E38A     		ldrh	r3, [r4, #22]
 544 0018 8B42     		cmp	r3, r1
 545 001a 1CD9     		bls	.L46
 546              	.LVL68:
 697:Generated_Source\PSoC4/CapSense_Control.c ****     {
 698:Generated_Source\PSoC4/CapSense_Control.c ****         result = CYRET_SUCCESS;
 699:Generated_Source\PSoC4/CapSense_Control.c **** 
 700:Generated_Source\PSoC4/CapSense_Control.c ****         ptrFlashWdgt = &CapSense_dsFlash.wdgtArray[widgetId];
 547              		.loc 1 700 0 is_stmt 1
 548 001c 8400     		lsl	r4, r0, #2
 549 001e 2718     		add	r7, r4, r0
 550 0020 FF00     		lsl	r7, r7, #3
 551 0022 0F4B     		ldr	r3, .L47
 552 0024 9846     		mov	r8, r3
 553 0026 4744     		add	r7, r7, r8
 554              	.LVL69:
 701:Generated_Source\PSoC4/CapSense_Control.c ****         fltrHistV.ptr = ptrFlashWdgt->ptr2FltrHistory;
 555              		.loc 1 701 0
 556 0028 FD68     		ldr	r5, [r7, #12]
 557 002a 0195     		str	r5, [sp, #4]
 558              	.LVL70:
 702:Generated_Source\PSoC4/CapSense_Control.c ****         ptrSns = ptrFlashWdgt->ptr2SnsRam;
 703:Generated_Source\PSoC4/CapSense_Control.c ****         ptrSns += sensorId;
 559              		.loc 1 703 0
 560 002c CB00     		lsl	r3, r1, #3
 561 002e 5B1A     		sub	r3, r3, r1
 562 0030 5B00     		lsl	r3, r3, #1
 563 0032 BE68     		ldr	r6, [r7, #8]
 564 0034 B446     		mov	ip, r6
 565 0036 9C44     		add	ip, ip, r3
 566              	.LVL71:
 704:Generated_Source\PSoC4/CapSense_Control.c **** 
 705:Generated_Source\PSoC4/CapSense_Control.c ****         switch(CapSense_GET_SENSE_METHOD(ptrFlashWdgt))
 706:Generated_Source\PSoC4/CapSense_Control.c ****         {
 707:Generated_Source\PSoC4/CapSense_Control.c ****         #if (0u != CapSense_TOTAL_CSD_WIDGETS)
 708:Generated_Source\PSoC4/CapSense_Control.c ****             case CapSense_SENSE_METHOD_CSD_E:
 709:Generated_Source\PSoC4/CapSense_Control.c ****                 if (CapSense_WD_PROXIMITY_E == (CapSense_WD_TYPE_ENUM)ptrFlashWdgt->wdgtType)
 567              		.loc 1 709 0
 568 0038 3B7E     		ldrb	r3, [r7, #24]
 569 003a 062B     		cmp	r3, #6
 570 003c 02D0     		beq	.L44
 710:Generated_Source\PSoC4/CapSense_Control.c ****                 {
 711:Generated_Source\PSoC4/CapSense_Control.c ****                     #if (0u != CapSense_PROX_RC_FILTER_EN)
 712:Generated_Source\PSoC4/CapSense_Control.c ****                         fltrHistV.ptr = &fltrHistV.ptrProx[sensorId];
 713:Generated_Source\PSoC4/CapSense_Control.c ****                     #endif /* #if (0u != CapSense_PROX_RC_FILTER_EN) */
 714:Generated_Source\PSoC4/CapSense_Control.c ****                 }
 715:Generated_Source\PSoC4/CapSense_Control.c ****                 else
 716:Generated_Source\PSoC4/CapSense_Control.c ****                 {
 717:Generated_Source\PSoC4/CapSense_Control.c ****                     #if (0u != CapSense_REGULAR_RC_FILTER_EN)
ARM GAS  C:\Users\RD\AppData\Local\Temp\ccHJK4mz.s 			page 24


 718:Generated_Source\PSoC4/CapSense_Control.c ****                         fltrHistV.ptr = &fltrHistV.ptrRegular[sensorId];
 571              		.loc 1 718 0
 572 003e 4B00     		lsl	r3, r1, #1
 573 0040 EB18     		add	r3, r5, r3
 574              	.LVL72:
 575 0042 0193     		str	r3, [sp, #4]
 576              	.L44:
 577 0044 131C     		mov	r3, r2
 578              	.LVL73:
 719:Generated_Source\PSoC4/CapSense_Control.c ****                     #endif /* #if (0u != CapSense_REGULAR_RC_FILTER_EN) */
 720:Generated_Source\PSoC4/CapSense_Control.c ****                 }
 721:Generated_Source\PSoC4/CapSense_Control.c **** 
 722:Generated_Source\PSoC4/CapSense_Control.c ****                 result = CapSense_DpProcessCsdSensorRawCountsExt(ptrFlashWdgt, ptrSns, fltrHistV, m
 579              		.loc 1 722 0
 580 0046 381C     		mov	r0, r7
 581              	.LVL74:
 582 0048 6146     		mov	r1, ip
 583              	.LVL75:
 584 004a 019A     		ldr	r2, [sp, #4]
 585              	.LVL76:
 586 004c FFF7FEFF 		bl	CapSense_DpProcessCsdSensorRawCountsExt
 587              	.LVL77:
 723:Generated_Source\PSoC4/CapSense_Control.c ****                 break;
 588              		.loc 1 723 0
 589 0050 02E0     		b	.L43
 590              	.LVL78:
 591              	.L45:
 691:Generated_Source\PSoC4/CapSense_Control.c ****     CapSense_FLASH_WD_STRUCT const *ptrFlashWdgt;
 592              		.loc 1 691 0
 593 0052 0120     		mov	r0, #1
 594              	.LVL79:
 595 0054 00E0     		b	.L43
 596              	.LVL80:
 597              	.L46:
 598 0056 0120     		mov	r0, #1
 599              	.LVL81:
 600              	.L43:
 724:Generated_Source\PSoC4/CapSense_Control.c ****         #endif /* #if (0u != CapSense_TOTAL_CSD_WIDGETS) */
 725:Generated_Source\PSoC4/CapSense_Control.c **** 
 726:Generated_Source\PSoC4/CapSense_Control.c ****         #if (0u != CapSense_TOTAL_CSX_WIDGETS)
 727:Generated_Source\PSoC4/CapSense_Control.c ****             case CapSense_SENSE_METHOD_CSX_E:
 728:Generated_Source\PSoC4/CapSense_Control.c ****                 #if (0u != CapSense_REGULAR_RC_FILTER_EN)
 729:Generated_Source\PSoC4/CapSense_Control.c ****                     fltrHistV.ptr = &fltrHistV.ptrRegular[sensorId];
 730:Generated_Source\PSoC4/CapSense_Control.c ****                 #endif /* #if (0u != CapSense_REGULAR_RC_FILTER_EN) */
 731:Generated_Source\PSoC4/CapSense_Control.c **** 
 732:Generated_Source\PSoC4/CapSense_Control.c ****                 result = CapSense_DpProcessCsxSensorRawCountsExt(ptrFlashWdgt, ptrSns, fltrHistV, m
 733:Generated_Source\PSoC4/CapSense_Control.c ****                 break;
 734:Generated_Source\PSoC4/CapSense_Control.c ****         #endif /* #if (0u != CapSense_TOTAL_CSX_WIDGETS) */
 735:Generated_Source\PSoC4/CapSense_Control.c **** 
 736:Generated_Source\PSoC4/CapSense_Control.c ****         default:
 737:Generated_Source\PSoC4/CapSense_Control.c ****             CYASSERT(0u);
 738:Generated_Source\PSoC4/CapSense_Control.c ****             break;
 739:Generated_Source\PSoC4/CapSense_Control.c ****         }
 740:Generated_Source\PSoC4/CapSense_Control.c ****                 
 741:Generated_Source\PSoC4/CapSense_Control.c ****         #if (CapSense_ENABLE == CapSense_TST_BSLN_DUPLICATION_EN)
 742:Generated_Source\PSoC4/CapSense_Control.c ****             if (CYRET_SUCCESS != result)
 743:Generated_Source\PSoC4/CapSense_Control.c ****             {
ARM GAS  C:\Users\RD\AppData\Local\Temp\ccHJK4mz.s 			page 25


 744:Generated_Source\PSoC4/CapSense_Control.c ****                 CapSense_UpdateTestResultBaselineDuplication(widgetId, sensorId);
 745:Generated_Source\PSoC4/CapSense_Control.c ****                 result = CYRET_BAD_DATA;
 746:Generated_Source\PSoC4/CapSense_Control.c ****             }
 747:Generated_Source\PSoC4/CapSense_Control.c ****         #endif /* (CapSense_ENABLE == CapSense_TST_BSLN_DUPLICATION_EN) */
 748:Generated_Source\PSoC4/CapSense_Control.c ****         
 749:Generated_Source\PSoC4/CapSense_Control.c ****     }
 750:Generated_Source\PSoC4/CapSense_Control.c ****     return result;
 751:Generated_Source\PSoC4/CapSense_Control.c **** }
 601              		.loc 1 751 0
 602 0058 02B0     		add	sp, sp, #8
 603              		@ sp needed
 604 005a 04BC     		pop	{r2}
 605 005c 9046     		mov	r8, r2
 606 005e F0BD     		pop	{r4, r5, r6, r7, pc}
 607              	.L48:
 608              		.align	2
 609              	.L47:
 610 0060 00000000 		.word	CapSense_dsFlash
 611              		.cfi_endproc
 612              	.LFE8:
 613              		.size	CapSense_ProcessSensorExt, .-CapSense_ProcessSensorExt
 614              		.section	.text.CapSense_Sleep,"ax",%progbits
 615              		.align	2
 616              		.global	CapSense_Sleep
 617              		.code	16
 618              		.thumb_func
 619              		.type	CapSense_Sleep, %function
 620              	CapSense_Sleep:
 621              	.LFB9:
 752:Generated_Source\PSoC4/CapSense_Control.c **** 
 753:Generated_Source\PSoC4/CapSense_Control.c **** /*******************************************************************************
 754:Generated_Source\PSoC4/CapSense_Control.c **** * Function Name: CapSense_Sleep
 755:Generated_Source\PSoC4/CapSense_Control.c **** ****************************************************************************//**
 756:Generated_Source\PSoC4/CapSense_Control.c **** *
 757:Generated_Source\PSoC4/CapSense_Control.c **** * \brief
 758:Generated_Source\PSoC4/CapSense_Control.c **** *  Prepares the component to deep sleep.
 759:Generated_Source\PSoC4/CapSense_Control.c **** *
 760:Generated_Source\PSoC4/CapSense_Control.c **** * \details
 761:Generated_Source\PSoC4/CapSense_Control.c **** *  Currently this function is empty and exists as a place for future updates, 
 762:Generated_Source\PSoC4/CapSense_Control.c **** *  this function shall be used to prepare the component to enter deep sleep.
 763:Generated_Source\PSoC4/CapSense_Control.c **** *
 764:Generated_Source\PSoC4/CapSense_Control.c **** *******************************************************************************/
 765:Generated_Source\PSoC4/CapSense_Control.c **** void CapSense_Sleep(void)
 766:Generated_Source\PSoC4/CapSense_Control.c **** {
 622              		.loc 1 766 0
 623              		.cfi_startproc
 767:Generated_Source\PSoC4/CapSense_Control.c **** }
 624              		.loc 1 767 0
 625              		@ sp needed
 626 0000 7047     		bx	lr
 627              		.cfi_endproc
 628              	.LFE9:
 629              		.size	CapSense_Sleep, .-CapSense_Sleep
 630 0002 C046     		.section	.text.CapSense_Wakeup,"ax",%progbits
 631              		.align	2
 632              		.global	CapSense_Wakeup
 633              		.code	16
ARM GAS  C:\Users\RD\AppData\Local\Temp\ccHJK4mz.s 			page 26


 634              		.thumb_func
 635              		.type	CapSense_Wakeup, %function
 636              	CapSense_Wakeup:
 637              	.LFB10:
 768:Generated_Source\PSoC4/CapSense_Control.c **** 
 769:Generated_Source\PSoC4/CapSense_Control.c **** 
 770:Generated_Source\PSoC4/CapSense_Control.c **** /*******************************************************************************
 771:Generated_Source\PSoC4/CapSense_Control.c **** * Function Name: CapSense_Wakeup
 772:Generated_Source\PSoC4/CapSense_Control.c **** ****************************************************************************//**
 773:Generated_Source\PSoC4/CapSense_Control.c **** *
 774:Generated_Source\PSoC4/CapSense_Control.c **** * \brief
 775:Generated_Source\PSoC4/CapSense_Control.c **** *  Currently this function is empty and exists as a place for future updates,
 776:Generated_Source\PSoC4/CapSense_Control.c **** *  this function shall be used to resume the component after exiting deep sleep.
 777:Generated_Source\PSoC4/CapSense_Control.c **** *
 778:Generated_Source\PSoC4/CapSense_Control.c **** * \details
 779:Generated_Source\PSoC4/CapSense_Control.c **** *  This function resumes the component after sleep.
 780:Generated_Source\PSoC4/CapSense_Control.c **** *
 781:Generated_Source\PSoC4/CapSense_Control.c **** *******************************************************************************/
 782:Generated_Source\PSoC4/CapSense_Control.c **** void CapSense_Wakeup(void)
 783:Generated_Source\PSoC4/CapSense_Control.c **** {
 638              		.loc 1 783 0
 639              		.cfi_startproc
 784:Generated_Source\PSoC4/CapSense_Control.c **** }
 640              		.loc 1 784 0
 641              		@ sp needed
 642 0000 7047     		bx	lr
 643              		.cfi_endproc
 644              	.LFE10:
 645              		.size	CapSense_Wakeup, .-CapSense_Wakeup
 646 0002 C046     		.bss
 647              		.set	.LANCHOR0,. + 0
 648              		.type	CapSense_InitVar, %object
 649              		.size	CapSense_InitVar, 1
 650              	CapSense_InitVar:
 651 0000 00       		.space	1
 652              		.text
 653              	.Letext0:
 654              		.file 2 "Generated_Source\\PSoC4\\cytypes.h"
 655              		.file 3 "Generated_Source\\PSoC4\\CapSense_Configuration.h"
 656              		.file 4 "Generated_Source\\PSoC4\\CapSense_SmartSense_LL.h"
 657              		.file 5 "Generated_Source\\PSoC4\\CapSense_Structure.h"
 658              		.file 6 "Generated_Source\\PSoC4\\CapSense_Tuner.h"
 659              		.file 7 "Generated_Source\\PSoC4\\CapSense_Processing.h"
 660              		.file 8 "Generated_Source\\PSoC4\\CapSense_Sensing.h"
 661              		.file 9 "Generated_Source\\PSoC4\\CyLib.h"
 662              		.file 10 "Generated_Source\\PSoC4\\cyPm.h"
 663              		.file 11 "Generated_Source\\PSoC4\\CapSense_Filter.h"