ARM GAS  C:\Users\RD\AppData\Local\Temp\ccArzOlr.s 			page 1


   1              		.cpu cortex-m0plus
   2              		.fpu softvfp
   3              		.eabi_attribute 20, 1
   4              		.eabi_attribute 21, 1
   5              		.eabi_attribute 23, 3
   6              		.eabi_attribute 24, 1
   7              		.eabi_attribute 25, 1
   8              		.eabi_attribute 26, 1
   9              		.eabi_attribute 30, 1
  10              		.eabi_attribute 34, 0
  11              		.eabi_attribute 18, 4
  12              		.code	16
  13              		.file	"LED_Driver_SPI.c"
  14              		.text
  15              	.Ltext0:
  16              		.cfi_sections	.debug_frame
  17              		.section	.text.LED_Driver_SpiPostEnable,"ax",%progbits
  18              		.align	2
  19              		.global	LED_Driver_SpiPostEnable
  20              		.code	16
  21              		.thumb_func
  22              		.type	LED_Driver_SpiPostEnable, %function
  23              	LED_Driver_SpiPostEnable:
  24              	.LFB2:
  25              		.file 1 "Generated_Source\\PSoC4\\LED_Driver_SPI.c"
   1:Generated_Source\PSoC4/LED_Driver_SPI.c **** /***************************************************************************//**
   2:Generated_Source\PSoC4/LED_Driver_SPI.c **** * \file LED_Driver_SPI.c
   3:Generated_Source\PSoC4/LED_Driver_SPI.c **** * \version 3.20
   4:Generated_Source\PSoC4/LED_Driver_SPI.c **** *
   5:Generated_Source\PSoC4/LED_Driver_SPI.c **** * \brief
   6:Generated_Source\PSoC4/LED_Driver_SPI.c **** *  This file provides the source code to the API for the SCB Component in
   7:Generated_Source\PSoC4/LED_Driver_SPI.c **** *  SPI mode.
   8:Generated_Source\PSoC4/LED_Driver_SPI.c **** *
   9:Generated_Source\PSoC4/LED_Driver_SPI.c **** * Note:
  10:Generated_Source\PSoC4/LED_Driver_SPI.c **** *
  11:Generated_Source\PSoC4/LED_Driver_SPI.c **** *******************************************************************************
  12:Generated_Source\PSoC4/LED_Driver_SPI.c **** * \copyright
  13:Generated_Source\PSoC4/LED_Driver_SPI.c **** * Copyright 2013-2016, Cypress Semiconductor Corporation.  All rights reserved.
  14:Generated_Source\PSoC4/LED_Driver_SPI.c **** * You may use this file only in accordance with the license, terms, conditions,
  15:Generated_Source\PSoC4/LED_Driver_SPI.c **** * disclaimers, and limitations in the end user license agreement accompanying
  16:Generated_Source\PSoC4/LED_Driver_SPI.c **** * the software package with which this file was provided.
  17:Generated_Source\PSoC4/LED_Driver_SPI.c **** *******************************************************************************/
  18:Generated_Source\PSoC4/LED_Driver_SPI.c **** 
  19:Generated_Source\PSoC4/LED_Driver_SPI.c **** #include "LED_Driver_PVT.h"
  20:Generated_Source\PSoC4/LED_Driver_SPI.c **** #include "LED_Driver_SPI_UART_PVT.h"
  21:Generated_Source\PSoC4/LED_Driver_SPI.c **** 
  22:Generated_Source\PSoC4/LED_Driver_SPI.c **** #if(LED_Driver_SCB_MODE_UNCONFIG_CONST_CFG)
  23:Generated_Source\PSoC4/LED_Driver_SPI.c **** 
  24:Generated_Source\PSoC4/LED_Driver_SPI.c ****     /***************************************
  25:Generated_Source\PSoC4/LED_Driver_SPI.c ****     *  Configuration Structure Initialization
  26:Generated_Source\PSoC4/LED_Driver_SPI.c ****     ***************************************/
  27:Generated_Source\PSoC4/LED_Driver_SPI.c **** 
  28:Generated_Source\PSoC4/LED_Driver_SPI.c ****     const LED_Driver_SPI_INIT_STRUCT LED_Driver_configSpi =
  29:Generated_Source\PSoC4/LED_Driver_SPI.c ****     {
  30:Generated_Source\PSoC4/LED_Driver_SPI.c ****         LED_Driver_SPI_MODE,
  31:Generated_Source\PSoC4/LED_Driver_SPI.c ****         LED_Driver_SPI_SUB_MODE,
  32:Generated_Source\PSoC4/LED_Driver_SPI.c ****         LED_Driver_SPI_CLOCK_MODE,
ARM GAS  C:\Users\RD\AppData\Local\Temp\ccArzOlr.s 			page 2


  33:Generated_Source\PSoC4/LED_Driver_SPI.c ****         LED_Driver_SPI_OVS_FACTOR,
  34:Generated_Source\PSoC4/LED_Driver_SPI.c ****         LED_Driver_SPI_MEDIAN_FILTER_ENABLE,
  35:Generated_Source\PSoC4/LED_Driver_SPI.c ****         LED_Driver_SPI_LATE_MISO_SAMPLE_ENABLE,
  36:Generated_Source\PSoC4/LED_Driver_SPI.c ****         LED_Driver_SPI_WAKE_ENABLE,
  37:Generated_Source\PSoC4/LED_Driver_SPI.c ****         LED_Driver_SPI_RX_DATA_BITS_NUM,
  38:Generated_Source\PSoC4/LED_Driver_SPI.c ****         LED_Driver_SPI_TX_DATA_BITS_NUM,
  39:Generated_Source\PSoC4/LED_Driver_SPI.c ****         LED_Driver_SPI_BITS_ORDER,
  40:Generated_Source\PSoC4/LED_Driver_SPI.c ****         LED_Driver_SPI_TRANSFER_SEPARATION,
  41:Generated_Source\PSoC4/LED_Driver_SPI.c ****         0u,
  42:Generated_Source\PSoC4/LED_Driver_SPI.c ****         NULL,
  43:Generated_Source\PSoC4/LED_Driver_SPI.c ****         0u,
  44:Generated_Source\PSoC4/LED_Driver_SPI.c ****         NULL,
  45:Generated_Source\PSoC4/LED_Driver_SPI.c ****         (uint32) LED_Driver_SCB_IRQ_INTERNAL,
  46:Generated_Source\PSoC4/LED_Driver_SPI.c ****         LED_Driver_SPI_INTR_RX_MASK,
  47:Generated_Source\PSoC4/LED_Driver_SPI.c ****         LED_Driver_SPI_RX_TRIGGER_LEVEL,
  48:Generated_Source\PSoC4/LED_Driver_SPI.c ****         LED_Driver_SPI_INTR_TX_MASK,
  49:Generated_Source\PSoC4/LED_Driver_SPI.c ****         LED_Driver_SPI_TX_TRIGGER_LEVEL,
  50:Generated_Source\PSoC4/LED_Driver_SPI.c ****         (uint8) LED_Driver_SPI_BYTE_MODE_ENABLE,
  51:Generated_Source\PSoC4/LED_Driver_SPI.c ****         (uint8) LED_Driver_SPI_FREE_RUN_SCLK_ENABLE,
  52:Generated_Source\PSoC4/LED_Driver_SPI.c ****         (uint8) LED_Driver_SPI_SS_POLARITY
  53:Generated_Source\PSoC4/LED_Driver_SPI.c ****     };
  54:Generated_Source\PSoC4/LED_Driver_SPI.c **** 
  55:Generated_Source\PSoC4/LED_Driver_SPI.c **** 
  56:Generated_Source\PSoC4/LED_Driver_SPI.c ****     /*******************************************************************************
  57:Generated_Source\PSoC4/LED_Driver_SPI.c ****     * Function Name: LED_Driver_SpiInit
  58:Generated_Source\PSoC4/LED_Driver_SPI.c ****     ****************************************************************************//**
  59:Generated_Source\PSoC4/LED_Driver_SPI.c ****     *
  60:Generated_Source\PSoC4/LED_Driver_SPI.c ****     *  Configures the LED_Driver for SPI operation.
  61:Generated_Source\PSoC4/LED_Driver_SPI.c ****     *
  62:Generated_Source\PSoC4/LED_Driver_SPI.c ****     *  This function is intended specifically to be used when the LED_Driver 
  63:Generated_Source\PSoC4/LED_Driver_SPI.c ****     *  configuration is set to “Unconfigured LED_Driver” in the customizer. 
  64:Generated_Source\PSoC4/LED_Driver_SPI.c ****     *  After initializing the LED_Driver in SPI mode using this function, 
  65:Generated_Source\PSoC4/LED_Driver_SPI.c ****     *  the component can be enabled using the LED_Driver_Start() or 
  66:Generated_Source\PSoC4/LED_Driver_SPI.c ****     * LED_Driver_Enable() function.
  67:Generated_Source\PSoC4/LED_Driver_SPI.c ****     *  This function uses a pointer to a structure that provides the configuration 
  68:Generated_Source\PSoC4/LED_Driver_SPI.c ****     *  settings. This structure contains the same information that would otherwise 
  69:Generated_Source\PSoC4/LED_Driver_SPI.c ****     *  be provided by the customizer settings.
  70:Generated_Source\PSoC4/LED_Driver_SPI.c ****     *
  71:Generated_Source\PSoC4/LED_Driver_SPI.c ****     *  \param config: pointer to a structure that contains the following list of 
  72:Generated_Source\PSoC4/LED_Driver_SPI.c ****     *   fields. These fields match the selections available in the customizer. 
  73:Generated_Source\PSoC4/LED_Driver_SPI.c ****     *   Refer to the customizer for further description of the settings.
  74:Generated_Source\PSoC4/LED_Driver_SPI.c ****     *
  75:Generated_Source\PSoC4/LED_Driver_SPI.c ****     *******************************************************************************/
  76:Generated_Source\PSoC4/LED_Driver_SPI.c ****     void LED_Driver_SpiInit(const LED_Driver_SPI_INIT_STRUCT *config)
  77:Generated_Source\PSoC4/LED_Driver_SPI.c ****     {
  78:Generated_Source\PSoC4/LED_Driver_SPI.c ****         if(NULL == config)
  79:Generated_Source\PSoC4/LED_Driver_SPI.c ****         {
  80:Generated_Source\PSoC4/LED_Driver_SPI.c ****             CYASSERT(0u != 0u); /* Halt execution due to bad function parameter */
  81:Generated_Source\PSoC4/LED_Driver_SPI.c ****         }
  82:Generated_Source\PSoC4/LED_Driver_SPI.c ****         else
  83:Generated_Source\PSoC4/LED_Driver_SPI.c ****         {
  84:Generated_Source\PSoC4/LED_Driver_SPI.c ****             /* Configure pins */
  85:Generated_Source\PSoC4/LED_Driver_SPI.c ****             LED_Driver_SetPins(LED_Driver_SCB_MODE_SPI, config->mode, LED_Driver_DUMMY_PARAM);
  86:Generated_Source\PSoC4/LED_Driver_SPI.c **** 
  87:Generated_Source\PSoC4/LED_Driver_SPI.c ****             /* Store internal configuration */
  88:Generated_Source\PSoC4/LED_Driver_SPI.c ****             LED_Driver_scbMode       = (uint8) LED_Driver_SCB_MODE_SPI;
  89:Generated_Source\PSoC4/LED_Driver_SPI.c ****             LED_Driver_scbEnableWake = (uint8) config->enableWake;
ARM GAS  C:\Users\RD\AppData\Local\Temp\ccArzOlr.s 			page 3


  90:Generated_Source\PSoC4/LED_Driver_SPI.c ****             LED_Driver_scbEnableIntr = (uint8) config->enableInterrupt;
  91:Generated_Source\PSoC4/LED_Driver_SPI.c **** 
  92:Generated_Source\PSoC4/LED_Driver_SPI.c ****             /* Set RX direction internal variables */
  93:Generated_Source\PSoC4/LED_Driver_SPI.c ****             LED_Driver_rxBuffer      =         config->rxBuffer;
  94:Generated_Source\PSoC4/LED_Driver_SPI.c ****             LED_Driver_rxDataBits    = (uint8) config->rxDataBits;
  95:Generated_Source\PSoC4/LED_Driver_SPI.c ****             LED_Driver_rxBufferSize  = (uint8) config->rxBufferSize;
  96:Generated_Source\PSoC4/LED_Driver_SPI.c **** 
  97:Generated_Source\PSoC4/LED_Driver_SPI.c ****             /* Set TX direction internal variables */
  98:Generated_Source\PSoC4/LED_Driver_SPI.c ****             LED_Driver_txBuffer      =         config->txBuffer;
  99:Generated_Source\PSoC4/LED_Driver_SPI.c ****             LED_Driver_txDataBits    = (uint8) config->txDataBits;
 100:Generated_Source\PSoC4/LED_Driver_SPI.c ****             LED_Driver_txBufferSize  = (uint8) config->txBufferSize;
 101:Generated_Source\PSoC4/LED_Driver_SPI.c **** 
 102:Generated_Source\PSoC4/LED_Driver_SPI.c ****             /* Configure SPI interface */
 103:Generated_Source\PSoC4/LED_Driver_SPI.c ****             LED_Driver_CTRL_REG     = LED_Driver_GET_CTRL_OVS(config->oversample)           |
 104:Generated_Source\PSoC4/LED_Driver_SPI.c ****                                             LED_Driver_GET_CTRL_BYTE_MODE(config->enableByteMode) |
 105:Generated_Source\PSoC4/LED_Driver_SPI.c ****                                             LED_Driver_GET_CTRL_EC_AM_MODE(config->enableWake)    |
 106:Generated_Source\PSoC4/LED_Driver_SPI.c ****                                             LED_Driver_CTRL_SPI;
 107:Generated_Source\PSoC4/LED_Driver_SPI.c **** 
 108:Generated_Source\PSoC4/LED_Driver_SPI.c ****             LED_Driver_SPI_CTRL_REG = LED_Driver_GET_SPI_CTRL_CONTINUOUS    (config->transferSepera
 109:Generated_Source\PSoC4/LED_Driver_SPI.c ****                                             LED_Driver_GET_SPI_CTRL_SELECT_PRECEDE(config->submode 
 110:Generated_Source\PSoC4/LED_Driver_SPI.c ****                                                                           LED_Driver_SPI_MODE_TI_PR
 111:Generated_Source\PSoC4/LED_Driver_SPI.c ****                                             LED_Driver_GET_SPI_CTRL_SCLK_MODE     (config->sclkMode
 112:Generated_Source\PSoC4/LED_Driver_SPI.c ****                                             LED_Driver_GET_SPI_CTRL_LATE_MISO_SAMPLE(config->enable
 113:Generated_Source\PSoC4/LED_Driver_SPI.c ****                                             LED_Driver_GET_SPI_CTRL_SCLK_CONTINUOUS(config->enableF
 114:Generated_Source\PSoC4/LED_Driver_SPI.c ****                                             LED_Driver_GET_SPI_CTRL_SSEL_POLARITY (config->polarity
 115:Generated_Source\PSoC4/LED_Driver_SPI.c ****                                             LED_Driver_GET_SPI_CTRL_SUB_MODE      (config->submode)
 116:Generated_Source\PSoC4/LED_Driver_SPI.c ****                                             LED_Driver_GET_SPI_CTRL_MASTER_MODE   (config->mode);
 117:Generated_Source\PSoC4/LED_Driver_SPI.c **** 
 118:Generated_Source\PSoC4/LED_Driver_SPI.c ****             /* Configure RX direction */
 119:Generated_Source\PSoC4/LED_Driver_SPI.c ****             LED_Driver_RX_CTRL_REG     =  LED_Driver_GET_RX_CTRL_DATA_WIDTH(config->rxDataBits)    
 120:Generated_Source\PSoC4/LED_Driver_SPI.c ****                                                 LED_Driver_GET_RX_CTRL_BIT_ORDER (config->bitOrder)
 121:Generated_Source\PSoC4/LED_Driver_SPI.c ****                                                 LED_Driver_GET_RX_CTRL_MEDIAN    (config->enableMed
 122:Generated_Source\PSoC4/LED_Driver_SPI.c ****                                                 LED_Driver_SPI_RX_CTRL;
 123:Generated_Source\PSoC4/LED_Driver_SPI.c **** 
 124:Generated_Source\PSoC4/LED_Driver_SPI.c ****             LED_Driver_RX_FIFO_CTRL_REG = LED_Driver_GET_RX_FIFO_CTRL_TRIGGER_LEVEL(config->rxTrigg
 125:Generated_Source\PSoC4/LED_Driver_SPI.c **** 
 126:Generated_Source\PSoC4/LED_Driver_SPI.c ****             /* Configure TX direction */
 127:Generated_Source\PSoC4/LED_Driver_SPI.c ****             LED_Driver_TX_CTRL_REG      = LED_Driver_GET_TX_CTRL_DATA_WIDTH(config->txDataBits) |
 128:Generated_Source\PSoC4/LED_Driver_SPI.c ****                                                 LED_Driver_GET_TX_CTRL_BIT_ORDER (config->bitOrder)
 129:Generated_Source\PSoC4/LED_Driver_SPI.c ****                                                 LED_Driver_SPI_TX_CTRL;
 130:Generated_Source\PSoC4/LED_Driver_SPI.c **** 
 131:Generated_Source\PSoC4/LED_Driver_SPI.c ****             LED_Driver_TX_FIFO_CTRL_REG = LED_Driver_GET_TX_FIFO_CTRL_TRIGGER_LEVEL(config->txTrigg
 132:Generated_Source\PSoC4/LED_Driver_SPI.c **** 
 133:Generated_Source\PSoC4/LED_Driver_SPI.c ****             /* Configure interrupt with SPI handler but do not enable it */
 134:Generated_Source\PSoC4/LED_Driver_SPI.c ****             CyIntDisable    (LED_Driver_ISR_NUMBER);
 135:Generated_Source\PSoC4/LED_Driver_SPI.c ****             CyIntSetPriority(LED_Driver_ISR_NUMBER, LED_Driver_ISR_PRIORITY);
 136:Generated_Source\PSoC4/LED_Driver_SPI.c ****             (void) CyIntSetVector(LED_Driver_ISR_NUMBER, &LED_Driver_SPI_UART_ISR);
 137:Generated_Source\PSoC4/LED_Driver_SPI.c **** 
 138:Generated_Source\PSoC4/LED_Driver_SPI.c ****             /* Configure interrupt sources */
 139:Generated_Source\PSoC4/LED_Driver_SPI.c ****             LED_Driver_INTR_I2C_EC_MASK_REG = LED_Driver_NO_INTR_SOURCES;
 140:Generated_Source\PSoC4/LED_Driver_SPI.c ****             LED_Driver_INTR_SPI_EC_MASK_REG = LED_Driver_NO_INTR_SOURCES;
 141:Generated_Source\PSoC4/LED_Driver_SPI.c ****             LED_Driver_INTR_SLAVE_MASK_REG  = LED_Driver_GET_SPI_INTR_SLAVE_MASK(config->rxInterrup
 142:Generated_Source\PSoC4/LED_Driver_SPI.c ****             LED_Driver_INTR_MASTER_MASK_REG = LED_Driver_GET_SPI_INTR_MASTER_MASK(config->txInterru
 143:Generated_Source\PSoC4/LED_Driver_SPI.c ****             LED_Driver_INTR_RX_MASK_REG     = LED_Driver_GET_SPI_INTR_RX_MASK(config->rxInterruptMa
 144:Generated_Source\PSoC4/LED_Driver_SPI.c ****             LED_Driver_INTR_TX_MASK_REG     = LED_Driver_GET_SPI_INTR_TX_MASK(config->txInterruptMa
 145:Generated_Source\PSoC4/LED_Driver_SPI.c ****             
 146:Generated_Source\PSoC4/LED_Driver_SPI.c ****             /* Configure TX interrupt sources to restore. */
ARM GAS  C:\Users\RD\AppData\Local\Temp\ccArzOlr.s 			page 4


 147:Generated_Source\PSoC4/LED_Driver_SPI.c ****             LED_Driver_IntrTxMask = LO16(LED_Driver_INTR_TX_MASK_REG);
 148:Generated_Source\PSoC4/LED_Driver_SPI.c **** 
 149:Generated_Source\PSoC4/LED_Driver_SPI.c ****             /* Set active SS0 */
 150:Generated_Source\PSoC4/LED_Driver_SPI.c ****             LED_Driver_SpiSetActiveSlaveSelect(LED_Driver_SPI_SLAVE_SELECT0);
 151:Generated_Source\PSoC4/LED_Driver_SPI.c **** 
 152:Generated_Source\PSoC4/LED_Driver_SPI.c ****             /* Clear RX buffer indexes */
 153:Generated_Source\PSoC4/LED_Driver_SPI.c ****             LED_Driver_rxBufferHead     = 0u;
 154:Generated_Source\PSoC4/LED_Driver_SPI.c ****             LED_Driver_rxBufferTail     = 0u;
 155:Generated_Source\PSoC4/LED_Driver_SPI.c ****             LED_Driver_rxBufferOverflow = 0u;
 156:Generated_Source\PSoC4/LED_Driver_SPI.c **** 
 157:Generated_Source\PSoC4/LED_Driver_SPI.c ****             /* Clear TX buffer indexes */
 158:Generated_Source\PSoC4/LED_Driver_SPI.c ****             LED_Driver_txBufferHead = 0u;
 159:Generated_Source\PSoC4/LED_Driver_SPI.c ****             LED_Driver_txBufferTail = 0u;
 160:Generated_Source\PSoC4/LED_Driver_SPI.c ****         }
 161:Generated_Source\PSoC4/LED_Driver_SPI.c ****     }
 162:Generated_Source\PSoC4/LED_Driver_SPI.c **** 
 163:Generated_Source\PSoC4/LED_Driver_SPI.c **** #else
 164:Generated_Source\PSoC4/LED_Driver_SPI.c **** 
 165:Generated_Source\PSoC4/LED_Driver_SPI.c ****     /*******************************************************************************
 166:Generated_Source\PSoC4/LED_Driver_SPI.c ****     * Function Name: LED_Driver_SpiInit
 167:Generated_Source\PSoC4/LED_Driver_SPI.c ****     ****************************************************************************//**
 168:Generated_Source\PSoC4/LED_Driver_SPI.c ****     *
 169:Generated_Source\PSoC4/LED_Driver_SPI.c ****     *  Configures the SCB for the SPI operation.
 170:Generated_Source\PSoC4/LED_Driver_SPI.c ****     *
 171:Generated_Source\PSoC4/LED_Driver_SPI.c ****     *******************************************************************************/
 172:Generated_Source\PSoC4/LED_Driver_SPI.c ****     void LED_Driver_SpiInit(void)
 173:Generated_Source\PSoC4/LED_Driver_SPI.c ****     {
 174:Generated_Source\PSoC4/LED_Driver_SPI.c ****         /* Configure SPI interface */
 175:Generated_Source\PSoC4/LED_Driver_SPI.c ****         LED_Driver_CTRL_REG     = LED_Driver_SPI_DEFAULT_CTRL;
 176:Generated_Source\PSoC4/LED_Driver_SPI.c ****         LED_Driver_SPI_CTRL_REG = LED_Driver_SPI_DEFAULT_SPI_CTRL;
 177:Generated_Source\PSoC4/LED_Driver_SPI.c **** 
 178:Generated_Source\PSoC4/LED_Driver_SPI.c ****         /* Configure TX and RX direction */
 179:Generated_Source\PSoC4/LED_Driver_SPI.c ****         LED_Driver_RX_CTRL_REG      = LED_Driver_SPI_DEFAULT_RX_CTRL;
 180:Generated_Source\PSoC4/LED_Driver_SPI.c ****         LED_Driver_RX_FIFO_CTRL_REG = LED_Driver_SPI_DEFAULT_RX_FIFO_CTRL;
 181:Generated_Source\PSoC4/LED_Driver_SPI.c **** 
 182:Generated_Source\PSoC4/LED_Driver_SPI.c ****         /* Configure TX and RX direction */
 183:Generated_Source\PSoC4/LED_Driver_SPI.c ****         LED_Driver_TX_CTRL_REG      = LED_Driver_SPI_DEFAULT_TX_CTRL;
 184:Generated_Source\PSoC4/LED_Driver_SPI.c ****         LED_Driver_TX_FIFO_CTRL_REG = LED_Driver_SPI_DEFAULT_TX_FIFO_CTRL;
 185:Generated_Source\PSoC4/LED_Driver_SPI.c **** 
 186:Generated_Source\PSoC4/LED_Driver_SPI.c ****         /* Configure interrupt with SPI handler but do not enable it */
 187:Generated_Source\PSoC4/LED_Driver_SPI.c ****     #if(LED_Driver_SCB_IRQ_INTERNAL)
 188:Generated_Source\PSoC4/LED_Driver_SPI.c ****             CyIntDisable    (LED_Driver_ISR_NUMBER);
 189:Generated_Source\PSoC4/LED_Driver_SPI.c ****             CyIntSetPriority(LED_Driver_ISR_NUMBER, LED_Driver_ISR_PRIORITY);
 190:Generated_Source\PSoC4/LED_Driver_SPI.c ****             (void) CyIntSetVector(LED_Driver_ISR_NUMBER, &LED_Driver_SPI_UART_ISR);
 191:Generated_Source\PSoC4/LED_Driver_SPI.c ****     #endif /* (LED_Driver_SCB_IRQ_INTERNAL) */
 192:Generated_Source\PSoC4/LED_Driver_SPI.c **** 
 193:Generated_Source\PSoC4/LED_Driver_SPI.c ****         /* Configure interrupt sources */
 194:Generated_Source\PSoC4/LED_Driver_SPI.c ****         LED_Driver_INTR_I2C_EC_MASK_REG = LED_Driver_SPI_DEFAULT_INTR_I2C_EC_MASK;
 195:Generated_Source\PSoC4/LED_Driver_SPI.c ****         LED_Driver_INTR_SPI_EC_MASK_REG = LED_Driver_SPI_DEFAULT_INTR_SPI_EC_MASK;
 196:Generated_Source\PSoC4/LED_Driver_SPI.c ****         LED_Driver_INTR_SLAVE_MASK_REG  = LED_Driver_SPI_DEFAULT_INTR_SLAVE_MASK;
 197:Generated_Source\PSoC4/LED_Driver_SPI.c ****         LED_Driver_INTR_MASTER_MASK_REG = LED_Driver_SPI_DEFAULT_INTR_MASTER_MASK;
 198:Generated_Source\PSoC4/LED_Driver_SPI.c ****         LED_Driver_INTR_RX_MASK_REG     = LED_Driver_SPI_DEFAULT_INTR_RX_MASK;
 199:Generated_Source\PSoC4/LED_Driver_SPI.c ****         LED_Driver_INTR_TX_MASK_REG     = LED_Driver_SPI_DEFAULT_INTR_TX_MASK;
 200:Generated_Source\PSoC4/LED_Driver_SPI.c **** 
 201:Generated_Source\PSoC4/LED_Driver_SPI.c ****         /* Configure TX interrupt sources to restore. */
 202:Generated_Source\PSoC4/LED_Driver_SPI.c ****         LED_Driver_IntrTxMask = LO16(LED_Driver_INTR_TX_MASK_REG);
 203:Generated_Source\PSoC4/LED_Driver_SPI.c ****             
ARM GAS  C:\Users\RD\AppData\Local\Temp\ccArzOlr.s 			page 5


 204:Generated_Source\PSoC4/LED_Driver_SPI.c ****         /* Set active SS0 for master */
 205:Generated_Source\PSoC4/LED_Driver_SPI.c ****     #if (LED_Driver_SPI_MASTER_CONST)
 206:Generated_Source\PSoC4/LED_Driver_SPI.c ****         LED_Driver_SpiSetActiveSlaveSelect(LED_Driver_SPI_SLAVE_SELECT0);
 207:Generated_Source\PSoC4/LED_Driver_SPI.c ****     #endif /* (LED_Driver_SPI_MASTER_CONST) */
 208:Generated_Source\PSoC4/LED_Driver_SPI.c **** 
 209:Generated_Source\PSoC4/LED_Driver_SPI.c ****     #if(LED_Driver_INTERNAL_RX_SW_BUFFER_CONST)
 210:Generated_Source\PSoC4/LED_Driver_SPI.c ****         LED_Driver_rxBufferHead     = 0u;
 211:Generated_Source\PSoC4/LED_Driver_SPI.c ****         LED_Driver_rxBufferTail     = 0u;
 212:Generated_Source\PSoC4/LED_Driver_SPI.c ****         LED_Driver_rxBufferOverflow = 0u;
 213:Generated_Source\PSoC4/LED_Driver_SPI.c ****     #endif /* (LED_Driver_INTERNAL_RX_SW_BUFFER_CONST) */
 214:Generated_Source\PSoC4/LED_Driver_SPI.c **** 
 215:Generated_Source\PSoC4/LED_Driver_SPI.c ****     #if(LED_Driver_INTERNAL_TX_SW_BUFFER_CONST)
 216:Generated_Source\PSoC4/LED_Driver_SPI.c ****         LED_Driver_txBufferHead = 0u;
 217:Generated_Source\PSoC4/LED_Driver_SPI.c ****         LED_Driver_txBufferTail = 0u;
 218:Generated_Source\PSoC4/LED_Driver_SPI.c ****     #endif /* (LED_Driver_INTERNAL_TX_SW_BUFFER_CONST) */
 219:Generated_Source\PSoC4/LED_Driver_SPI.c ****     }
 220:Generated_Source\PSoC4/LED_Driver_SPI.c **** #endif /* (LED_Driver_SCB_MODE_UNCONFIG_CONST_CFG) */
 221:Generated_Source\PSoC4/LED_Driver_SPI.c **** 
 222:Generated_Source\PSoC4/LED_Driver_SPI.c **** 
 223:Generated_Source\PSoC4/LED_Driver_SPI.c **** /*******************************************************************************
 224:Generated_Source\PSoC4/LED_Driver_SPI.c **** * Function Name: LED_Driver_SpiPostEnable
 225:Generated_Source\PSoC4/LED_Driver_SPI.c **** ****************************************************************************//**
 226:Generated_Source\PSoC4/LED_Driver_SPI.c **** *
 227:Generated_Source\PSoC4/LED_Driver_SPI.c **** *  Restores HSIOM settings for the SPI master output pins (SCLK and/or SS0-SS3) 
 228:Generated_Source\PSoC4/LED_Driver_SPI.c **** *  to be controlled by the SCB SPI.
 229:Generated_Source\PSoC4/LED_Driver_SPI.c **** *
 230:Generated_Source\PSoC4/LED_Driver_SPI.c **** *******************************************************************************/
 231:Generated_Source\PSoC4/LED_Driver_SPI.c **** void LED_Driver_SpiPostEnable(void)
 232:Generated_Source\PSoC4/LED_Driver_SPI.c **** {
  26              		.loc 1 232 0
  27              		.cfi_startproc
 233:Generated_Source\PSoC4/LED_Driver_SPI.c **** #if(LED_Driver_SCB_MODE_UNCONFIG_CONST_CFG)
 234:Generated_Source\PSoC4/LED_Driver_SPI.c **** 
 235:Generated_Source\PSoC4/LED_Driver_SPI.c ****     if (LED_Driver_CHECK_SPI_MASTER)
 236:Generated_Source\PSoC4/LED_Driver_SPI.c ****     {
 237:Generated_Source\PSoC4/LED_Driver_SPI.c ****     #if (LED_Driver_CTS_SCLK_PIN)
 238:Generated_Source\PSoC4/LED_Driver_SPI.c ****         /* Set SCB SPI to drive output pin */
 239:Generated_Source\PSoC4/LED_Driver_SPI.c ****         LED_Driver_SET_HSIOM_SEL(LED_Driver_CTS_SCLK_HSIOM_REG, LED_Driver_CTS_SCLK_HSIOM_MASK,
 240:Generated_Source\PSoC4/LED_Driver_SPI.c ****                                        LED_Driver_CTS_SCLK_HSIOM_POS, LED_Driver_CTS_SCLK_HSIOM_SEL
 241:Generated_Source\PSoC4/LED_Driver_SPI.c ****     #endif /* (LED_Driver_CTS_SCLK_PIN) */
 242:Generated_Source\PSoC4/LED_Driver_SPI.c **** 
 243:Generated_Source\PSoC4/LED_Driver_SPI.c ****     #if (LED_Driver_RTS_SS0_PIN)
 244:Generated_Source\PSoC4/LED_Driver_SPI.c ****         /* Set SCB SPI to drive output pin */
 245:Generated_Source\PSoC4/LED_Driver_SPI.c ****         LED_Driver_SET_HSIOM_SEL(LED_Driver_RTS_SS0_HSIOM_REG, LED_Driver_RTS_SS0_HSIOM_MASK,
 246:Generated_Source\PSoC4/LED_Driver_SPI.c ****                                        LED_Driver_RTS_SS0_HSIOM_POS, LED_Driver_RTS_SS0_HSIOM_SEL_S
 247:Generated_Source\PSoC4/LED_Driver_SPI.c ****     #endif /* (LED_Driver_RTS_SS0_PIN) */
 248:Generated_Source\PSoC4/LED_Driver_SPI.c **** 
 249:Generated_Source\PSoC4/LED_Driver_SPI.c ****     #if (LED_Driver_SS1_PIN)
 250:Generated_Source\PSoC4/LED_Driver_SPI.c ****         /* Set SCB SPI to drive output pin */
 251:Generated_Source\PSoC4/LED_Driver_SPI.c ****         LED_Driver_SET_HSIOM_SEL(LED_Driver_SS1_HSIOM_REG, LED_Driver_SS1_HSIOM_MASK,
 252:Generated_Source\PSoC4/LED_Driver_SPI.c ****                                        LED_Driver_SS1_HSIOM_POS, LED_Driver_SS1_HSIOM_SEL_SPI);
 253:Generated_Source\PSoC4/LED_Driver_SPI.c ****     #endif /* (LED_Driver_SS1_PIN) */
 254:Generated_Source\PSoC4/LED_Driver_SPI.c **** 
 255:Generated_Source\PSoC4/LED_Driver_SPI.c ****     #if (LED_Driver_SS2_PIN)
 256:Generated_Source\PSoC4/LED_Driver_SPI.c ****         /* Set SCB SPI to drive output pin */
 257:Generated_Source\PSoC4/LED_Driver_SPI.c ****         LED_Driver_SET_HSIOM_SEL(LED_Driver_SS2_HSIOM_REG, LED_Driver_SS2_HSIOM_MASK,
 258:Generated_Source\PSoC4/LED_Driver_SPI.c ****                                        LED_Driver_SS2_HSIOM_POS, LED_Driver_SS2_HSIOM_SEL_SPI);
ARM GAS  C:\Users\RD\AppData\Local\Temp\ccArzOlr.s 			page 6


 259:Generated_Source\PSoC4/LED_Driver_SPI.c ****     #endif /* (LED_Driver_SS2_PIN) */
 260:Generated_Source\PSoC4/LED_Driver_SPI.c **** 
 261:Generated_Source\PSoC4/LED_Driver_SPI.c ****     #if (LED_Driver_SS3_PIN)
 262:Generated_Source\PSoC4/LED_Driver_SPI.c ****         /* Set SCB SPI to drive output pin */
 263:Generated_Source\PSoC4/LED_Driver_SPI.c ****         LED_Driver_SET_HSIOM_SEL(LED_Driver_SS3_HSIOM_REG, LED_Driver_SS3_HSIOM_MASK,
 264:Generated_Source\PSoC4/LED_Driver_SPI.c ****                                        LED_Driver_SS3_HSIOM_POS, LED_Driver_SS3_HSIOM_SEL_SPI);
 265:Generated_Source\PSoC4/LED_Driver_SPI.c ****     #endif /* (LED_Driver_SS3_PIN) */
 266:Generated_Source\PSoC4/LED_Driver_SPI.c ****     }
 267:Generated_Source\PSoC4/LED_Driver_SPI.c **** 
 268:Generated_Source\PSoC4/LED_Driver_SPI.c **** #else
 269:Generated_Source\PSoC4/LED_Driver_SPI.c **** 
 270:Generated_Source\PSoC4/LED_Driver_SPI.c ****     #if (LED_Driver_SPI_MASTER_SCLK_PIN)
 271:Generated_Source\PSoC4/LED_Driver_SPI.c ****         /* Set SCB SPI to drive output pin */
 272:Generated_Source\PSoC4/LED_Driver_SPI.c ****         LED_Driver_SET_HSIOM_SEL(LED_Driver_SCLK_M_HSIOM_REG, LED_Driver_SCLK_M_HSIOM_MASK,
  28              		.loc 1 272 0
  29 0000 054A     		ldr	r2, .L2
  30 0002 1368     		ldr	r3, [r2]
  31 0004 F021     		mov	r1, #240
  32 0006 0905     		lsl	r1, r1, #20
  33 0008 0B43     		orr	r3, r1
  34 000a 1360     		str	r3, [r2]
 273:Generated_Source\PSoC4/LED_Driver_SPI.c ****                                        LED_Driver_SCLK_M_HSIOM_POS, LED_Driver_SCLK_M_HSIOM_SEL_SPI
 274:Generated_Source\PSoC4/LED_Driver_SPI.c ****     #endif /* (LED_Driver_MISO_SDA_TX_PIN_PIN) */
 275:Generated_Source\PSoC4/LED_Driver_SPI.c **** 
 276:Generated_Source\PSoC4/LED_Driver_SPI.c ****     #if (LED_Driver_SPI_MASTER_SS0_PIN)
 277:Generated_Source\PSoC4/LED_Driver_SPI.c ****         /* Set SCB SPI to drive output pin */
 278:Generated_Source\PSoC4/LED_Driver_SPI.c ****         LED_Driver_SET_HSIOM_SEL(LED_Driver_SS0_M_HSIOM_REG, LED_Driver_SS0_M_HSIOM_MASK,
 279:Generated_Source\PSoC4/LED_Driver_SPI.c ****                                        LED_Driver_SS0_M_HSIOM_POS, LED_Driver_SS0_M_HSIOM_SEL_SPI);
 280:Generated_Source\PSoC4/LED_Driver_SPI.c ****     #endif /* (LED_Driver_SPI_MASTER_SS0_PIN) */
 281:Generated_Source\PSoC4/LED_Driver_SPI.c **** 
 282:Generated_Source\PSoC4/LED_Driver_SPI.c ****     #if (LED_Driver_SPI_MASTER_SS1_PIN)
 283:Generated_Source\PSoC4/LED_Driver_SPI.c ****         /* Set SCB SPI to drive output pin */
 284:Generated_Source\PSoC4/LED_Driver_SPI.c ****         LED_Driver_SET_HSIOM_SEL(LED_Driver_SS1_M_HSIOM_REG, LED_Driver_SS1_M_HSIOM_MASK,
 285:Generated_Source\PSoC4/LED_Driver_SPI.c ****                                        LED_Driver_SS1_M_HSIOM_POS, LED_Driver_SS1_M_HSIOM_SEL_SPI);
 286:Generated_Source\PSoC4/LED_Driver_SPI.c ****     #endif /* (LED_Driver_SPI_MASTER_SS1_PIN) */
 287:Generated_Source\PSoC4/LED_Driver_SPI.c **** 
 288:Generated_Source\PSoC4/LED_Driver_SPI.c ****     #if (LED_Driver_SPI_MASTER_SS2_PIN)
 289:Generated_Source\PSoC4/LED_Driver_SPI.c ****         /* Set SCB SPI to drive output pin */
 290:Generated_Source\PSoC4/LED_Driver_SPI.c ****         LED_Driver_SET_HSIOM_SEL(LED_Driver_SS2_M_HSIOM_REG, LED_Driver_SS2_M_HSIOM_MASK,
 291:Generated_Source\PSoC4/LED_Driver_SPI.c ****                                        LED_Driver_SS2_M_HSIOM_POS, LED_Driver_SS2_M_HSIOM_SEL_SPI);
 292:Generated_Source\PSoC4/LED_Driver_SPI.c ****     #endif /* (LED_Driver_SPI_MASTER_SS2_PIN) */
 293:Generated_Source\PSoC4/LED_Driver_SPI.c **** 
 294:Generated_Source\PSoC4/LED_Driver_SPI.c ****     #if (LED_Driver_SPI_MASTER_SS3_PIN)
 295:Generated_Source\PSoC4/LED_Driver_SPI.c ****         /* Set SCB SPI to drive output pin */
 296:Generated_Source\PSoC4/LED_Driver_SPI.c ****         LED_Driver_SET_HSIOM_SEL(LED_Driver_SS3_M_HSIOM_REG, LED_Driver_SS3_M_HSIOM_MASK,
 297:Generated_Source\PSoC4/LED_Driver_SPI.c ****                                        LED_Driver_SS3_M_HSIOM_POS, LED_Driver_SS3_M_HSIOM_SEL_SPI);
 298:Generated_Source\PSoC4/LED_Driver_SPI.c ****     #endif /* (LED_Driver_SPI_MASTER_SS3_PIN) */
 299:Generated_Source\PSoC4/LED_Driver_SPI.c **** 
 300:Generated_Source\PSoC4/LED_Driver_SPI.c **** #endif /* (LED_Driver_SCB_MODE_UNCONFIG_CONST_CFG) */
 301:Generated_Source\PSoC4/LED_Driver_SPI.c **** 
 302:Generated_Source\PSoC4/LED_Driver_SPI.c ****     /* Restore TX interrupt sources. */
 303:Generated_Source\PSoC4/LED_Driver_SPI.c ****     LED_Driver_SetTxInterruptMode(LED_Driver_IntrTxMask);
  35              		.loc 1 303 0
  36 000c 034B     		ldr	r3, .L2+4
  37 000e 1A88     		ldrh	r2, [r3]
  38 0010 034B     		ldr	r3, .L2+8
  39 0012 1A60     		str	r2, [r3]
ARM GAS  C:\Users\RD\AppData\Local\Temp\ccArzOlr.s 			page 7


 304:Generated_Source\PSoC4/LED_Driver_SPI.c **** }
  40              		.loc 1 304 0
  41              		@ sp needed
  42 0014 7047     		bx	lr
  43              	.L3:
  44 0016 C046     		.align	2
  45              	.L2:
  46 0018 00000240 		.word	1073872896
  47 001c 00000000 		.word	LED_Driver_IntrTxMask
  48 0020 880F0940 		.word	1074335624
  49              		.cfi_endproc
  50              	.LFE2:
  51              		.size	LED_Driver_SpiPostEnable, .-LED_Driver_SpiPostEnable
  52              		.section	.text.LED_Driver_SpiStop,"ax",%progbits
  53              		.align	2
  54              		.global	LED_Driver_SpiStop
  55              		.code	16
  56              		.thumb_func
  57              		.type	LED_Driver_SpiStop, %function
  58              	LED_Driver_SpiStop:
  59              	.LFB3:
 305:Generated_Source\PSoC4/LED_Driver_SPI.c **** 
 306:Generated_Source\PSoC4/LED_Driver_SPI.c **** 
 307:Generated_Source\PSoC4/LED_Driver_SPI.c **** /*******************************************************************************
 308:Generated_Source\PSoC4/LED_Driver_SPI.c **** * Function Name: LED_Driver_SpiStop
 309:Generated_Source\PSoC4/LED_Driver_SPI.c **** ****************************************************************************//**
 310:Generated_Source\PSoC4/LED_Driver_SPI.c **** *
 311:Generated_Source\PSoC4/LED_Driver_SPI.c **** *  Changes the HSIOM settings for the SPI master output pins 
 312:Generated_Source\PSoC4/LED_Driver_SPI.c **** *  (SCLK and/or SS0-SS3) to keep them inactive after the block is disabled. 
 313:Generated_Source\PSoC4/LED_Driver_SPI.c **** *  The output pins are controlled by the GPIO data register.
 314:Generated_Source\PSoC4/LED_Driver_SPI.c **** *
 315:Generated_Source\PSoC4/LED_Driver_SPI.c **** *******************************************************************************/
 316:Generated_Source\PSoC4/LED_Driver_SPI.c **** void LED_Driver_SpiStop(void)
 317:Generated_Source\PSoC4/LED_Driver_SPI.c **** {
  60              		.loc 1 317 0
  61              		.cfi_startproc
  62 0000 08B5     		push	{r3, lr}
  63              		.cfi_def_cfa_offset 8
  64              		.cfi_offset 3, -8
  65              		.cfi_offset 14, -4
 318:Generated_Source\PSoC4/LED_Driver_SPI.c **** #if(LED_Driver_SCB_MODE_UNCONFIG_CONST_CFG)
 319:Generated_Source\PSoC4/LED_Driver_SPI.c **** 
 320:Generated_Source\PSoC4/LED_Driver_SPI.c ****     if (LED_Driver_CHECK_SPI_MASTER)
 321:Generated_Source\PSoC4/LED_Driver_SPI.c ****     {
 322:Generated_Source\PSoC4/LED_Driver_SPI.c ****     #if (LED_Driver_CTS_SCLK_PIN)
 323:Generated_Source\PSoC4/LED_Driver_SPI.c ****         /* Set output pin state after block is disabled */
 324:Generated_Source\PSoC4/LED_Driver_SPI.c ****         LED_Driver_uart_cts_spi_sclk_Write(LED_Driver_GET_SPI_SCLK_INACTIVE);
 325:Generated_Source\PSoC4/LED_Driver_SPI.c **** 
 326:Generated_Source\PSoC4/LED_Driver_SPI.c ****         /* Set GPIO to drive output pin */
 327:Generated_Source\PSoC4/LED_Driver_SPI.c ****         LED_Driver_SET_HSIOM_SEL(LED_Driver_CTS_SCLK_HSIOM_REG, LED_Driver_CTS_SCLK_HSIOM_MASK,
 328:Generated_Source\PSoC4/LED_Driver_SPI.c ****                                        LED_Driver_CTS_SCLK_HSIOM_POS, LED_Driver_CTS_SCLK_HSIOM_SEL
 329:Generated_Source\PSoC4/LED_Driver_SPI.c ****     #endif /* (LED_Driver_uart_cts_spi_sclk_PIN) */
 330:Generated_Source\PSoC4/LED_Driver_SPI.c **** 
 331:Generated_Source\PSoC4/LED_Driver_SPI.c ****     #if (LED_Driver_RTS_SS0_PIN)
 332:Generated_Source\PSoC4/LED_Driver_SPI.c ****         /* Set output pin state after block is disabled */
 333:Generated_Source\PSoC4/LED_Driver_SPI.c ****         LED_Driver_uart_rts_spi_ss0_Write(LED_Driver_GET_SPI_SS0_INACTIVE);
 334:Generated_Source\PSoC4/LED_Driver_SPI.c **** 
ARM GAS  C:\Users\RD\AppData\Local\Temp\ccArzOlr.s 			page 8


 335:Generated_Source\PSoC4/LED_Driver_SPI.c ****         /* Set GPIO to drive output pin */
 336:Generated_Source\PSoC4/LED_Driver_SPI.c ****         LED_Driver_SET_HSIOM_SEL(LED_Driver_RTS_SS0_HSIOM_REG, LED_Driver_RTS_SS0_HSIOM_MASK,
 337:Generated_Source\PSoC4/LED_Driver_SPI.c ****                                        LED_Driver_RTS_SS0_HSIOM_POS, LED_Driver_RTS_SS0_HSIOM_SEL_G
 338:Generated_Source\PSoC4/LED_Driver_SPI.c ****     #endif /* (LED_Driver_uart_rts_spi_ss0_PIN) */
 339:Generated_Source\PSoC4/LED_Driver_SPI.c **** 
 340:Generated_Source\PSoC4/LED_Driver_SPI.c ****     #if (LED_Driver_SS1_PIN)
 341:Generated_Source\PSoC4/LED_Driver_SPI.c ****         /* Set output pin state after block is disabled */
 342:Generated_Source\PSoC4/LED_Driver_SPI.c ****         LED_Driver_spi_ss1_Write(LED_Driver_GET_SPI_SS1_INACTIVE);
 343:Generated_Source\PSoC4/LED_Driver_SPI.c **** 
 344:Generated_Source\PSoC4/LED_Driver_SPI.c ****         /* Set GPIO to drive output pin */
 345:Generated_Source\PSoC4/LED_Driver_SPI.c ****         LED_Driver_SET_HSIOM_SEL(LED_Driver_SS1_HSIOM_REG, LED_Driver_SS1_HSIOM_MASK,
 346:Generated_Source\PSoC4/LED_Driver_SPI.c ****                                        LED_Driver_SS1_HSIOM_POS, LED_Driver_SS1_HSIOM_SEL_GPIO);
 347:Generated_Source\PSoC4/LED_Driver_SPI.c ****     #endif /* (LED_Driver_SS1_PIN) */
 348:Generated_Source\PSoC4/LED_Driver_SPI.c **** 
 349:Generated_Source\PSoC4/LED_Driver_SPI.c ****     #if (LED_Driver_SS2_PIN)
 350:Generated_Source\PSoC4/LED_Driver_SPI.c ****         /* Set output pin state after block is disabled */
 351:Generated_Source\PSoC4/LED_Driver_SPI.c ****         LED_Driver_spi_ss2_Write(LED_Driver_GET_SPI_SS2_INACTIVE);
 352:Generated_Source\PSoC4/LED_Driver_SPI.c **** 
 353:Generated_Source\PSoC4/LED_Driver_SPI.c ****         /* Set GPIO to drive output pin */
 354:Generated_Source\PSoC4/LED_Driver_SPI.c ****         LED_Driver_SET_HSIOM_SEL(LED_Driver_SS2_HSIOM_REG, LED_Driver_SS2_HSIOM_MASK,
 355:Generated_Source\PSoC4/LED_Driver_SPI.c ****                                        LED_Driver_SS2_HSIOM_POS, LED_Driver_SS2_HSIOM_SEL_GPIO);
 356:Generated_Source\PSoC4/LED_Driver_SPI.c ****     #endif /* (LED_Driver_SS2_PIN) */
 357:Generated_Source\PSoC4/LED_Driver_SPI.c **** 
 358:Generated_Source\PSoC4/LED_Driver_SPI.c ****     #if (LED_Driver_SS3_PIN)
 359:Generated_Source\PSoC4/LED_Driver_SPI.c ****         /* Set output pin state after block is disabled */
 360:Generated_Source\PSoC4/LED_Driver_SPI.c ****         LED_Driver_spi_ss3_Write(LED_Driver_GET_SPI_SS3_INACTIVE);
 361:Generated_Source\PSoC4/LED_Driver_SPI.c **** 
 362:Generated_Source\PSoC4/LED_Driver_SPI.c ****         /* Set GPIO to drive output pin */
 363:Generated_Source\PSoC4/LED_Driver_SPI.c ****         LED_Driver_SET_HSIOM_SEL(LED_Driver_SS3_HSIOM_REG, LED_Driver_SS3_HSIOM_MASK,
 364:Generated_Source\PSoC4/LED_Driver_SPI.c ****                                        LED_Driver_SS3_HSIOM_POS, LED_Driver_SS3_HSIOM_SEL_GPIO);
 365:Generated_Source\PSoC4/LED_Driver_SPI.c ****     #endif /* (LED_Driver_SS3_PIN) */
 366:Generated_Source\PSoC4/LED_Driver_SPI.c ****     
 367:Generated_Source\PSoC4/LED_Driver_SPI.c ****         /* Store TX interrupt sources (exclude level triggered) for master. */
 368:Generated_Source\PSoC4/LED_Driver_SPI.c ****         LED_Driver_IntrTxMask = LO16(LED_Driver_GetTxInterruptMode() & LED_Driver_INTR_SPIM_TX_REST
 369:Generated_Source\PSoC4/LED_Driver_SPI.c ****     }
 370:Generated_Source\PSoC4/LED_Driver_SPI.c ****     else
 371:Generated_Source\PSoC4/LED_Driver_SPI.c ****     {
 372:Generated_Source\PSoC4/LED_Driver_SPI.c ****         /* Store TX interrupt sources (exclude level triggered) for slave. */
 373:Generated_Source\PSoC4/LED_Driver_SPI.c ****         LED_Driver_IntrTxMask = LO16(LED_Driver_GetTxInterruptMode() & LED_Driver_INTR_SPIS_TX_REST
 374:Generated_Source\PSoC4/LED_Driver_SPI.c ****     }
 375:Generated_Source\PSoC4/LED_Driver_SPI.c **** 
 376:Generated_Source\PSoC4/LED_Driver_SPI.c **** #else
 377:Generated_Source\PSoC4/LED_Driver_SPI.c **** 
 378:Generated_Source\PSoC4/LED_Driver_SPI.c **** #if (LED_Driver_SPI_MASTER_SCLK_PIN)
 379:Generated_Source\PSoC4/LED_Driver_SPI.c ****     /* Set output pin state after block is disabled */
 380:Generated_Source\PSoC4/LED_Driver_SPI.c ****     LED_Driver_sclk_m_Write(LED_Driver_GET_SPI_SCLK_INACTIVE);
  66              		.loc 1 380 0
  67 0002 094B     		ldr	r3, .L5
  68 0004 1868     		ldr	r0, [r3]
  69 0006 0007     		lsl	r0, r0, #28
  70 0008 C00F     		lsr	r0, r0, #31
  71 000a FFF7FEFF 		bl	LED_Driver_sclk_m_Write
  72              	.LVL0:
 381:Generated_Source\PSoC4/LED_Driver_SPI.c **** 
 382:Generated_Source\PSoC4/LED_Driver_SPI.c ****     /* Set GPIO to drive output pin */
 383:Generated_Source\PSoC4/LED_Driver_SPI.c ****     LED_Driver_SET_HSIOM_SEL(LED_Driver_SCLK_M_HSIOM_REG, LED_Driver_SCLK_M_HSIOM_MASK,
  73              		.loc 1 383 0
ARM GAS  C:\Users\RD\AppData\Local\Temp\ccArzOlr.s 			page 9


  74 000e 074A     		ldr	r2, .L5+4
  75 0010 1168     		ldr	r1, [r2]
  76 0012 074B     		ldr	r3, .L5+8
  77 0014 0B40     		and	r3, r1
  78 0016 1360     		str	r3, [r2]
 384:Generated_Source\PSoC4/LED_Driver_SPI.c ****                                    LED_Driver_SCLK_M_HSIOM_POS, LED_Driver_SCLK_M_HSIOM_SEL_GPIO);
 385:Generated_Source\PSoC4/LED_Driver_SPI.c **** #endif /* (LED_Driver_MISO_SDA_TX_PIN_PIN) */
 386:Generated_Source\PSoC4/LED_Driver_SPI.c **** 
 387:Generated_Source\PSoC4/LED_Driver_SPI.c **** #if (LED_Driver_SPI_MASTER_SS0_PIN)
 388:Generated_Source\PSoC4/LED_Driver_SPI.c ****     /* Set output pin state after block is disabled */
 389:Generated_Source\PSoC4/LED_Driver_SPI.c ****     LED_Driver_ss0_m_Write(LED_Driver_GET_SPI_SS0_INACTIVE);
 390:Generated_Source\PSoC4/LED_Driver_SPI.c **** 
 391:Generated_Source\PSoC4/LED_Driver_SPI.c ****     /* Set GPIO to drive output pin */
 392:Generated_Source\PSoC4/LED_Driver_SPI.c ****     LED_Driver_SET_HSIOM_SEL(LED_Driver_SS0_M_HSIOM_REG, LED_Driver_SS0_M_HSIOM_MASK,
 393:Generated_Source\PSoC4/LED_Driver_SPI.c ****                                    LED_Driver_SS0_M_HSIOM_POS, LED_Driver_SS0_M_HSIOM_SEL_GPIO);
 394:Generated_Source\PSoC4/LED_Driver_SPI.c **** #endif /* (LED_Driver_SPI_MASTER_SS0_PIN) */
 395:Generated_Source\PSoC4/LED_Driver_SPI.c **** 
 396:Generated_Source\PSoC4/LED_Driver_SPI.c **** #if (LED_Driver_SPI_MASTER_SS1_PIN)
 397:Generated_Source\PSoC4/LED_Driver_SPI.c ****     /* Set output pin state after block is disabled */
 398:Generated_Source\PSoC4/LED_Driver_SPI.c ****     LED_Driver_ss1_m_Write(LED_Driver_GET_SPI_SS1_INACTIVE);
 399:Generated_Source\PSoC4/LED_Driver_SPI.c **** 
 400:Generated_Source\PSoC4/LED_Driver_SPI.c ****     /* Set GPIO to drive output pin */
 401:Generated_Source\PSoC4/LED_Driver_SPI.c ****     LED_Driver_SET_HSIOM_SEL(LED_Driver_SS1_M_HSIOM_REG, LED_Driver_SS1_M_HSIOM_MASK,
 402:Generated_Source\PSoC4/LED_Driver_SPI.c ****                                    LED_Driver_SS1_M_HSIOM_POS, LED_Driver_SS1_M_HSIOM_SEL_GPIO);
 403:Generated_Source\PSoC4/LED_Driver_SPI.c **** #endif /* (LED_Driver_SPI_MASTER_SS1_PIN) */
 404:Generated_Source\PSoC4/LED_Driver_SPI.c **** 
 405:Generated_Source\PSoC4/LED_Driver_SPI.c **** #if (LED_Driver_SPI_MASTER_SS2_PIN)
 406:Generated_Source\PSoC4/LED_Driver_SPI.c ****     /* Set output pin state after block is disabled */
 407:Generated_Source\PSoC4/LED_Driver_SPI.c ****     LED_Driver_ss2_m_Write(LED_Driver_GET_SPI_SS2_INACTIVE);
 408:Generated_Source\PSoC4/LED_Driver_SPI.c **** 
 409:Generated_Source\PSoC4/LED_Driver_SPI.c ****     /* Set GPIO to drive output pin */
 410:Generated_Source\PSoC4/LED_Driver_SPI.c ****     LED_Driver_SET_HSIOM_SEL(LED_Driver_SS2_M_HSIOM_REG, LED_Driver_SS2_M_HSIOM_MASK,
 411:Generated_Source\PSoC4/LED_Driver_SPI.c ****                                    LED_Driver_SS2_M_HSIOM_POS, LED_Driver_SS2_M_HSIOM_SEL_GPIO);
 412:Generated_Source\PSoC4/LED_Driver_SPI.c **** #endif /* (LED_Driver_SPI_MASTER_SS2_PIN) */
 413:Generated_Source\PSoC4/LED_Driver_SPI.c **** 
 414:Generated_Source\PSoC4/LED_Driver_SPI.c **** #if (LED_Driver_SPI_MASTER_SS3_PIN)
 415:Generated_Source\PSoC4/LED_Driver_SPI.c ****     /* Set output pin state after block is disabled */
 416:Generated_Source\PSoC4/LED_Driver_SPI.c ****     LED_Driver_ss3_m_Write(LED_Driver_GET_SPI_SS3_INACTIVE);
 417:Generated_Source\PSoC4/LED_Driver_SPI.c **** 
 418:Generated_Source\PSoC4/LED_Driver_SPI.c ****     /* Set GPIO to drive output pin */
 419:Generated_Source\PSoC4/LED_Driver_SPI.c ****     LED_Driver_SET_HSIOM_SEL(LED_Driver_SS3_M_HSIOM_REG, LED_Driver_SS3_M_HSIOM_MASK,
 420:Generated_Source\PSoC4/LED_Driver_SPI.c ****                                    LED_Driver_SS3_M_HSIOM_POS, LED_Driver_SS3_M_HSIOM_SEL_GPIO);
 421:Generated_Source\PSoC4/LED_Driver_SPI.c **** #endif /* (LED_Driver_SPI_MASTER_SS3_PIN) */
 422:Generated_Source\PSoC4/LED_Driver_SPI.c **** 
 423:Generated_Source\PSoC4/LED_Driver_SPI.c ****     #if (LED_Driver_SPI_MASTER_CONST)
 424:Generated_Source\PSoC4/LED_Driver_SPI.c ****         /* Store TX interrupt sources (exclude level triggered). */
 425:Generated_Source\PSoC4/LED_Driver_SPI.c ****         LED_Driver_IntrTxMask = LO16(LED_Driver_GetTxInterruptMode() & LED_Driver_INTR_SPIM_TX_REST
  79              		.loc 1 425 0
  80 0018 064B     		ldr	r3, .L5+12
  81 001a 1B68     		ldr	r3, [r3]
  82 001c 2022     		mov	r2, #32
  83 001e 1340     		and	r3, r2
  84 0020 054A     		ldr	r2, .L5+16
  85 0022 1380     		strh	r3, [r2]
 426:Generated_Source\PSoC4/LED_Driver_SPI.c ****     #else
 427:Generated_Source\PSoC4/LED_Driver_SPI.c ****         /* Store TX interrupt sources (exclude level triggered). */
 428:Generated_Source\PSoC4/LED_Driver_SPI.c ****         LED_Driver_IntrTxMask = LO16(LED_Driver_GetTxInterruptMode() & LED_Driver_INTR_SPIS_TX_REST
ARM GAS  C:\Users\RD\AppData\Local\Temp\ccArzOlr.s 			page 10


 429:Generated_Source\PSoC4/LED_Driver_SPI.c ****     #endif /* (LED_Driver_SPI_MASTER_CONST) */
 430:Generated_Source\PSoC4/LED_Driver_SPI.c **** 
 431:Generated_Source\PSoC4/LED_Driver_SPI.c **** #endif /* (LED_Driver_SCB_MODE_UNCONFIG_CONST_CFG) */
 432:Generated_Source\PSoC4/LED_Driver_SPI.c **** }
  86              		.loc 1 432 0
  87              		@ sp needed
  88 0024 08BD     		pop	{r3, pc}
  89              	.L6:
  90 0026 C046     		.align	2
  91              	.L5:
  92 0028 20000940 		.word	1074331680
  93 002c 00000240 		.word	1073872896
  94 0030 FFFFFFF0 		.word	-251658241
  95 0034 880F0940 		.word	1074335624
  96 0038 00000000 		.word	LED_Driver_IntrTxMask
  97              		.cfi_endproc
  98              	.LFE3:
  99              		.size	LED_Driver_SpiStop, .-LED_Driver_SpiStop
 100              		.section	.text.LED_Driver_SpiSetActiveSlaveSelect,"ax",%progbits
 101              		.align	2
 102              		.global	LED_Driver_SpiSetActiveSlaveSelect
 103              		.code	16
 104              		.thumb_func
 105              		.type	LED_Driver_SpiSetActiveSlaveSelect, %function
 106              	LED_Driver_SpiSetActiveSlaveSelect:
 107              	.LFB4:
 433:Generated_Source\PSoC4/LED_Driver_SPI.c **** 
 434:Generated_Source\PSoC4/LED_Driver_SPI.c **** 
 435:Generated_Source\PSoC4/LED_Driver_SPI.c **** #if (LED_Driver_SPI_MASTER_CONST)
 436:Generated_Source\PSoC4/LED_Driver_SPI.c ****     /*******************************************************************************
 437:Generated_Source\PSoC4/LED_Driver_SPI.c ****     * Function Name: LED_Driver_SetActiveSlaveSelect
 438:Generated_Source\PSoC4/LED_Driver_SPI.c ****     ****************************************************************************//**
 439:Generated_Source\PSoC4/LED_Driver_SPI.c ****     *
 440:Generated_Source\PSoC4/LED_Driver_SPI.c ****     *  Selects one of the four slave select lines to be active during the transfer.
 441:Generated_Source\PSoC4/LED_Driver_SPI.c ****     *  After initialization the active slave select line is 0.
 442:Generated_Source\PSoC4/LED_Driver_SPI.c ****     *  The component should be in one of the following states to change the active
 443:Generated_Source\PSoC4/LED_Driver_SPI.c ****     *  slave select signal source correctly:
 444:Generated_Source\PSoC4/LED_Driver_SPI.c ****     *   - The component is disabled.
 445:Generated_Source\PSoC4/LED_Driver_SPI.c ****     *   - The component has completed transfer (TX FIFO is empty and the
 446:Generated_Source\PSoC4/LED_Driver_SPI.c ****     *     SCB_INTR_MASTER_SPI_DONE status is set).
 447:Generated_Source\PSoC4/LED_Driver_SPI.c ****     *
 448:Generated_Source\PSoC4/LED_Driver_SPI.c ****     *  This function does not check that these conditions are met.
 449:Generated_Source\PSoC4/LED_Driver_SPI.c ****     *  This function is only applicable to SPI Master mode of operation.
 450:Generated_Source\PSoC4/LED_Driver_SPI.c ****     *
 451:Generated_Source\PSoC4/LED_Driver_SPI.c ****     *  \param slaveSelect: slave select line which will be active while the following
 452:Generated_Source\PSoC4/LED_Driver_SPI.c ****     *   transfer.
 453:Generated_Source\PSoC4/LED_Driver_SPI.c ****     *   - LED_Driver_SPI_SLAVE_SELECT0 - Slave select 0.
 454:Generated_Source\PSoC4/LED_Driver_SPI.c ****     *   - LED_Driver_SPI_SLAVE_SELECT1 - Slave select 1.
 455:Generated_Source\PSoC4/LED_Driver_SPI.c ****     *   - LED_Driver_SPI_SLAVE_SELECT2 - Slave select 2.
 456:Generated_Source\PSoC4/LED_Driver_SPI.c ****     *   - LED_Driver_SPI_SLAVE_SELECT3 - Slave select 3.
 457:Generated_Source\PSoC4/LED_Driver_SPI.c ****     *
 458:Generated_Source\PSoC4/LED_Driver_SPI.c ****     *******************************************************************************/
 459:Generated_Source\PSoC4/LED_Driver_SPI.c ****     void LED_Driver_SpiSetActiveSlaveSelect(uint32 slaveSelect)
 460:Generated_Source\PSoC4/LED_Driver_SPI.c ****     {
 108              		.loc 1 460 0
 109              		.cfi_startproc
 110              	.LVL1:
ARM GAS  C:\Users\RD\AppData\Local\Temp\ccArzOlr.s 			page 11


 461:Generated_Source\PSoC4/LED_Driver_SPI.c ****         uint32 spiCtrl;
 462:Generated_Source\PSoC4/LED_Driver_SPI.c **** 
 463:Generated_Source\PSoC4/LED_Driver_SPI.c ****         spiCtrl = LED_Driver_SPI_CTRL_REG;
 111              		.loc 1 463 0
 112 0000 0549     		ldr	r1, .L8
 113 0002 0A68     		ldr	r2, [r1]
 114              	.LVL2:
 464:Generated_Source\PSoC4/LED_Driver_SPI.c **** 
 465:Generated_Source\PSoC4/LED_Driver_SPI.c ****         spiCtrl &= (uint32) ~LED_Driver_SPI_CTRL_SLAVE_SELECT_MASK;
 115              		.loc 1 465 0
 116 0004 054B     		ldr	r3, .L8+4
 117 0006 1340     		and	r3, r2
 118              	.LVL3:
 466:Generated_Source\PSoC4/LED_Driver_SPI.c ****         spiCtrl |= (uint32)  LED_Driver_GET_SPI_CTRL_SS(slaveSelect);
 119              		.loc 1 466 0
 120 0008 8006     		lsl	r0, r0, #26
 121              	.LVL4:
 122 000a C022     		mov	r2, #192
 123 000c 1205     		lsl	r2, r2, #20
 124 000e 1040     		and	r0, r2
 125 0010 1843     		orr	r0, r3
 126              	.LVL5:
 467:Generated_Source\PSoC4/LED_Driver_SPI.c **** 
 468:Generated_Source\PSoC4/LED_Driver_SPI.c ****         LED_Driver_SPI_CTRL_REG = spiCtrl;
 127              		.loc 1 468 0
 128 0012 0860     		str	r0, [r1]
 469:Generated_Source\PSoC4/LED_Driver_SPI.c ****     }
 129              		.loc 1 469 0
 130              		@ sp needed
 131 0014 7047     		bx	lr
 132              	.L9:
 133 0016 C046     		.align	2
 134              	.L8:
 135 0018 20000940 		.word	1074331680
 136 001c FFFFFFF3 		.word	-201326593
 137              		.cfi_endproc
 138              	.LFE4:
 139              		.size	LED_Driver_SpiSetActiveSlaveSelect, .-LED_Driver_SpiSetActiveSlaveSelect
 140              		.section	.text.LED_Driver_SpiInit,"ax",%progbits
 141              		.align	2
 142              		.global	LED_Driver_SpiInit
 143              		.code	16
 144              		.thumb_func
 145              		.type	LED_Driver_SpiInit, %function
 146              	LED_Driver_SpiInit:
 147              	.LFB1:
 173:Generated_Source\PSoC4/LED_Driver_SPI.c ****         /* Configure SPI interface */
 148              		.loc 1 173 0
 149              		.cfi_startproc
 150 0000 08B5     		push	{r3, lr}
 151              		.cfi_def_cfa_offset 8
 152              		.cfi_offset 3, -8
 153              		.cfi_offset 14, -4
 175:Generated_Source\PSoC4/LED_Driver_SPI.c ****         LED_Driver_SPI_CTRL_REG = LED_Driver_SPI_DEFAULT_SPI_CTRL;
 154              		.loc 1 175 0
 155 0002 124A     		ldr	r2, .L11
 156 0004 124B     		ldr	r3, .L11+4
ARM GAS  C:\Users\RD\AppData\Local\Temp\ccArzOlr.s 			page 12


 157 0006 1A60     		str	r2, [r3]
 176:Generated_Source\PSoC4/LED_Driver_SPI.c **** 
 158              		.loc 1 176 0
 159 0008 124A     		ldr	r2, .L11+8
 160 000a 134B     		ldr	r3, .L11+12
 161 000c 1A60     		str	r2, [r3]
 179:Generated_Source\PSoC4/LED_Driver_SPI.c ****         LED_Driver_RX_FIFO_CTRL_REG = LED_Driver_SPI_DEFAULT_RX_FIFO_CTRL;
 162              		.loc 1 179 0
 163 000e 134B     		ldr	r3, .L11+16
 164 0010 134A     		ldr	r2, .L11+20
 165 0012 1360     		str	r3, [r2]
 180:Generated_Source\PSoC4/LED_Driver_SPI.c **** 
 166              		.loc 1 180 0
 167 0014 0721     		mov	r1, #7
 168 0016 134A     		ldr	r2, .L11+24
 169 0018 1160     		str	r1, [r2]
 183:Generated_Source\PSoC4/LED_Driver_SPI.c ****         LED_Driver_TX_FIFO_CTRL_REG = LED_Driver_SPI_DEFAULT_TX_FIFO_CTRL;
 170              		.loc 1 183 0
 171 001a 134A     		ldr	r2, .L11+28
 172 001c 1360     		str	r3, [r2]
 184:Generated_Source\PSoC4/LED_Driver_SPI.c **** 
 173              		.loc 1 184 0
 174 001e 0023     		mov	r3, #0
 175 0020 124A     		ldr	r2, .L11+32
 176 0022 1360     		str	r3, [r2]
 194:Generated_Source\PSoC4/LED_Driver_SPI.c ****         LED_Driver_INTR_SPI_EC_MASK_REG = LED_Driver_SPI_DEFAULT_INTR_SPI_EC_MASK;
 177              		.loc 1 194 0
 178 0024 124A     		ldr	r2, .L11+36
 179 0026 1360     		str	r3, [r2]
 195:Generated_Source\PSoC4/LED_Driver_SPI.c ****         LED_Driver_INTR_SLAVE_MASK_REG  = LED_Driver_SPI_DEFAULT_INTR_SLAVE_MASK;
 180              		.loc 1 195 0
 181 0028 124A     		ldr	r2, .L11+40
 182 002a 1360     		str	r3, [r2]
 196:Generated_Source\PSoC4/LED_Driver_SPI.c ****         LED_Driver_INTR_MASTER_MASK_REG = LED_Driver_SPI_DEFAULT_INTR_MASTER_MASK;
 183              		.loc 1 196 0
 184 002c 124A     		ldr	r2, .L11+44
 185 002e 1360     		str	r3, [r2]
 197:Generated_Source\PSoC4/LED_Driver_SPI.c ****         LED_Driver_INTR_RX_MASK_REG     = LED_Driver_SPI_DEFAULT_INTR_RX_MASK;
 186              		.loc 1 197 0
 187 0030 124A     		ldr	r2, .L11+48
 188 0032 1360     		str	r3, [r2]
 198:Generated_Source\PSoC4/LED_Driver_SPI.c ****         LED_Driver_INTR_TX_MASK_REG     = LED_Driver_SPI_DEFAULT_INTR_TX_MASK;
 189              		.loc 1 198 0
 190 0034 124A     		ldr	r2, .L11+52
 191 0036 1360     		str	r3, [r2]
 199:Generated_Source\PSoC4/LED_Driver_SPI.c **** 
 192              		.loc 1 199 0
 193 0038 124A     		ldr	r2, .L11+56
 194 003a 1360     		str	r3, [r2]
 202:Generated_Source\PSoC4/LED_Driver_SPI.c ****             
 195              		.loc 1 202 0
 196 003c 1268     		ldr	r2, [r2]
 197 003e 124B     		ldr	r3, .L11+60
 198 0040 1A80     		strh	r2, [r3]
 206:Generated_Source\PSoC4/LED_Driver_SPI.c ****     #endif /* (LED_Driver_SPI_MASTER_CONST) */
 199              		.loc 1 206 0
 200 0042 0020     		mov	r0, #0
ARM GAS  C:\Users\RD\AppData\Local\Temp\ccArzOlr.s 			page 13


 201 0044 FFF7FEFF 		bl	LED_Driver_SpiSetActiveSlaveSelect
 202              	.LVL6:
 219:Generated_Source\PSoC4/LED_Driver_SPI.c **** #endif /* (LED_Driver_SCB_MODE_UNCONFIG_CONST_CFG) */
 203              		.loc 1 219 0
 204              		@ sp needed
 205 0048 08BD     		pop	{r3, pc}
 206              	.L12:
 207 004a C046     		.align	2
 208              	.L11:
 209 004c 0F000001 		.word	16777231
 210 0050 00000940 		.word	1074331648
 211 0054 01000080 		.word	-2147483647
 212 0058 20000940 		.word	1074331680
 213 005c 0B010080 		.word	-2147483381
 214 0060 00030940 		.word	1074332416
 215 0064 04030940 		.word	1074332420
 216 0068 00020940 		.word	1074332160
 217 006c 04020940 		.word	1074332164
 218 0070 880E0940 		.word	1074335368
 219 0074 C80E0940 		.word	1074335432
 220 0078 480F0940 		.word	1074335560
 221 007c 080F0940 		.word	1074335496
 222 0080 C80F0940 		.word	1074335688
 223 0084 880F0940 		.word	1074335624
 224 0088 00000000 		.word	LED_Driver_IntrTxMask
 225              		.cfi_endproc
 226              	.LFE1:
 227              		.size	LED_Driver_SpiInit, .-LED_Driver_SpiInit
 228              		.section	.text.LED_Driver_SpiSetSlaveSelectPolarity,"ax",%progbits
 229              		.align	2
 230              		.global	LED_Driver_SpiSetSlaveSelectPolarity
 231              		.code	16
 232              		.thumb_func
 233              		.type	LED_Driver_SpiSetSlaveSelectPolarity, %function
 234              	LED_Driver_SpiSetSlaveSelectPolarity:
 235              	.LFB5:
 470:Generated_Source\PSoC4/LED_Driver_SPI.c **** #endif /* (LED_Driver_SPI_MASTER_CONST) */
 471:Generated_Source\PSoC4/LED_Driver_SPI.c **** 
 472:Generated_Source\PSoC4/LED_Driver_SPI.c **** 
 473:Generated_Source\PSoC4/LED_Driver_SPI.c **** #if !(LED_Driver_CY_SCBIP_V0 || LED_Driver_CY_SCBIP_V1)
 474:Generated_Source\PSoC4/LED_Driver_SPI.c ****     /*******************************************************************************
 475:Generated_Source\PSoC4/LED_Driver_SPI.c ****     * Function Name: LED_Driver_SpiSetSlaveSelectPolarity
 476:Generated_Source\PSoC4/LED_Driver_SPI.c ****     ****************************************************************************//**
 477:Generated_Source\PSoC4/LED_Driver_SPI.c ****     *
 478:Generated_Source\PSoC4/LED_Driver_SPI.c ****     *  Sets active polarity for slave select line.
 479:Generated_Source\PSoC4/LED_Driver_SPI.c ****     *  The component should be in one of the following states to change the active
 480:Generated_Source\PSoC4/LED_Driver_SPI.c ****     *  slave select signal source correctly:
 481:Generated_Source\PSoC4/LED_Driver_SPI.c ****     *   - The component is disabled.
 482:Generated_Source\PSoC4/LED_Driver_SPI.c ****     *   - The component has completed transfer.
 483:Generated_Source\PSoC4/LED_Driver_SPI.c ****     *  
 484:Generated_Source\PSoC4/LED_Driver_SPI.c ****     *  This function does not check that these conditions are met.
 485:Generated_Source\PSoC4/LED_Driver_SPI.c ****     *
 486:Generated_Source\PSoC4/LED_Driver_SPI.c ****     *  \param slaveSelect: slave select line to change active polarity.
 487:Generated_Source\PSoC4/LED_Driver_SPI.c ****     *   - LED_Driver_SPI_SLAVE_SELECT0 - Slave select 0.
 488:Generated_Source\PSoC4/LED_Driver_SPI.c ****     *   - LED_Driver_SPI_SLAVE_SELECT1 - Slave select 1.
 489:Generated_Source\PSoC4/LED_Driver_SPI.c ****     *   - LED_Driver_SPI_SLAVE_SELECT2 - Slave select 2.
 490:Generated_Source\PSoC4/LED_Driver_SPI.c ****     *   - LED_Driver_SPI_SLAVE_SELECT3 - Slave select 3.
ARM GAS  C:\Users\RD\AppData\Local\Temp\ccArzOlr.s 			page 14


 491:Generated_Source\PSoC4/LED_Driver_SPI.c ****     *
 492:Generated_Source\PSoC4/LED_Driver_SPI.c ****     *  \param polarity: active polarity of slave select line.
 493:Generated_Source\PSoC4/LED_Driver_SPI.c ****     *   - LED_Driver_SPI_SS_ACTIVE_LOW  - Slave select is active low.
 494:Generated_Source\PSoC4/LED_Driver_SPI.c ****     *   - LED_Driver_SPI_SS_ACTIVE_HIGH - Slave select is active high.
 495:Generated_Source\PSoC4/LED_Driver_SPI.c ****     *
 496:Generated_Source\PSoC4/LED_Driver_SPI.c ****     *******************************************************************************/
 497:Generated_Source\PSoC4/LED_Driver_SPI.c ****     void LED_Driver_SpiSetSlaveSelectPolarity(uint32 slaveSelect, uint32 polarity)
 498:Generated_Source\PSoC4/LED_Driver_SPI.c ****     {
 236              		.loc 1 498 0
 237              		.cfi_startproc
 238              	.LVL7:
 499:Generated_Source\PSoC4/LED_Driver_SPI.c ****         uint32 ssPolarity;
 500:Generated_Source\PSoC4/LED_Driver_SPI.c **** 
 501:Generated_Source\PSoC4/LED_Driver_SPI.c ****         /* Get position of the polarity bit associated with slave select line */
 502:Generated_Source\PSoC4/LED_Driver_SPI.c ****         ssPolarity = LED_Driver_GET_SPI_CTRL_SSEL_POLARITY((uint32) 1u << slaveSelect);
 239              		.loc 1 502 0
 240 0000 8023     		mov	r3, #128
 241 0002 5B00     		lsl	r3, r3, #1
 242 0004 8340     		lsl	r3, r3, r0
 243 0006 181C     		mov	r0, r3
 244              	.LVL8:
 245 0008 F023     		mov	r3, #240
 246 000a 1B01     		lsl	r3, r3, #4
 247 000c 1840     		and	r0, r3
 248              	.LVL9:
 503:Generated_Source\PSoC4/LED_Driver_SPI.c **** 
 504:Generated_Source\PSoC4/LED_Driver_SPI.c ****         if (0u != polarity)
 249              		.loc 1 504 0
 250 000e 0029     		cmp	r1, #0
 251 0010 04D0     		beq	.L14
 505:Generated_Source\PSoC4/LED_Driver_SPI.c ****         {
 506:Generated_Source\PSoC4/LED_Driver_SPI.c ****             LED_Driver_SPI_CTRL_REG |= (uint32)  ssPolarity;
 252              		.loc 1 506 0
 253 0012 054B     		ldr	r3, .L16
 254 0014 1A68     		ldr	r2, [r3]
 255 0016 1043     		orr	r0, r2
 256              	.LVL10:
 257 0018 1860     		str	r0, [r3]
 258 001a 03E0     		b	.L13
 259              	.LVL11:
 260              	.L14:
 507:Generated_Source\PSoC4/LED_Driver_SPI.c ****         }
 508:Generated_Source\PSoC4/LED_Driver_SPI.c ****         else
 509:Generated_Source\PSoC4/LED_Driver_SPI.c ****         {
 510:Generated_Source\PSoC4/LED_Driver_SPI.c ****             LED_Driver_SPI_CTRL_REG &= (uint32) ~ssPolarity;
 261              		.loc 1 510 0
 262 001c 024A     		ldr	r2, .L16
 263 001e 1368     		ldr	r3, [r2]
 264 0020 8343     		bic	r3, r0
 265 0022 1360     		str	r3, [r2]
 266              	.LVL12:
 267              	.L13:
 511:Generated_Source\PSoC4/LED_Driver_SPI.c ****         }
 512:Generated_Source\PSoC4/LED_Driver_SPI.c ****     }
 268              		.loc 1 512 0
 269              		@ sp needed
 270 0024 7047     		bx	lr
ARM GAS  C:\Users\RD\AppData\Local\Temp\ccArzOlr.s 			page 15


 271              	.L17:
 272 0026 C046     		.align	2
 273              	.L16:
 274 0028 20000940 		.word	1074331680
 275              		.cfi_endproc
 276              	.LFE5:
 277              		.size	LED_Driver_SpiSetSlaveSelectPolarity, .-LED_Driver_SpiSetSlaveSelectPolarity
 278              		.text
 279              	.Letext0:
 280              		.file 2 "Generated_Source\\PSoC4/cytypes.h"
 281              		.file 3 "Generated_Source\\PSoC4\\LED_Driver_PVT.h"
 282              		.file 4 "Generated_Source\\PSoC4\\LED_Driver_sclk_m.h"