ARM GAS  C:\Users\TB1014~1\AppData\Local\Temp\ccVniMG7.s 			page 1


   1              		.cpu cortex-m0plus
   2              		.fpu softvfp
   3              		.eabi_attribute 20, 1
   4              		.eabi_attribute 21, 1
   5              		.eabi_attribute 23, 3
   6              		.eabi_attribute 24, 1
   7              		.eabi_attribute 25, 1
   8              		.eabi_attribute 26, 1
   9              		.eabi_attribute 30, 1
  10              		.eabi_attribute 34, 0
  11              		.eabi_attribute 18, 4
  12              		.code	16
  13              		.file	"animation.c"
  14              		.text
  15              	.Ltext0:
  16              		.cfi_sections	.debug_frame
  17              		.section	.text.animate_all_colors,"ax",%progbits
  18              		.align	2
  19              		.global	animate_all_colors
  20              		.code	16
  21              		.thumb_func
  22              		.type	animate_all_colors, %function
  23              	animate_all_colors:
  24              	.LFB35:
  25              		.file 1 "animation.c"
   1:animation.c   **** /* ========================================
   2:animation.c   ****  *
   3:animation.c   ****  * Copyright YOUR COMPANY, THE YEAR
   4:animation.c   ****  * All Rights Reserved
   5:animation.c   ****  * UNPUBLISHED, LICENSED SOFTWARE.
   6:animation.c   ****  *
   7:animation.c   ****  * CONFIDENTIAL AND PROPRIETARY INFORMATION
   8:animation.c   ****  * WHICH IS THE PROPERTY OF your company.
   9:animation.c   ****  *
  10:animation.c   ****  * ========================================
  11:animation.c   **** */
  12:animation.c   **** 
  13:animation.c   **** #include <math.h>
  14:animation.c   **** 
  15:animation.c   **** #include "animation.h"
  16:animation.c   **** 
  17:animation.c   **** 
  18:animation.c   **** 
  19:animation.c   **** #include "command_telemetry.h"
  20:animation.c   **** #include "util.h"
  21:animation.c   **** 
  22:animation.c   **** //=============================================================================
  23:animation.c   **** //============================================================ static variables
  24:animation.c   **** //=============================================================================
  25:animation.c   **** static t_struct_animation vec_call_back_anim[ANIM_UNKNOWN] = {{ANIM_BUTTON_SMOOTH_SLOW   , FALSE, F
  26:animation.c   ****                                                               {ANIM_BUTTON_SMOOTH_FAST   , FALSE, F
  27:animation.c   ****                                                               {ANIM_LEFT_RIGHT           , FALSE, F
  28:animation.c   ****                                                               {ANIM_INTENSITY            , FALSE, F
  29:animation.c   ****                                                               {ANIM_2_LEDS               , FALSE, F
  30:animation.c   ****                                                               {ANIM_RED_INTENSITY        , FALSE, F
  31:animation.c   ****                                                               {ANIM_GREEN_INTENSITY      , FALSE, F
  32:animation.c   ****                                                               {ANIM_BLUE_INTENSITY       , FALSE, F
ARM GAS  C:\Users\TB1014~1\AppData\Local\Temp\ccVniMG7.s 			page 2


  33:animation.c   ****                                                               {ANIM_RED_WHITE_INTENSITY  , FALSE, F
  34:animation.c   ****                                                               {ANIM_GREEN_WHITE_INTENSITY, FALSE, F
  35:animation.c   ****                                                               {ANIM_BLUE_WHITE_INTENSITY , FALSE, F
  36:animation.c   ****                                                               {ANIM_COLORS_INTENSITY     , FALSE, F
  37:animation.c   ****                                                               {ANIM_RAINBOW_COLORS       , FALSE, F
  38:animation.c   ****                                                               {ANIM_FIX_WHITE            , FALSE, F
  39:animation.c   **** 
  40:animation.c   **** 
  41:animation.c   **** #if USE_128_POINTS_FOR_BREATHING
  42:animation.c   **** #define SINE_VEC_SIZE 128                                                                 // Indexe
  43:animation.c   **** static uint16 sine_vec[SINE_VEC_SIZE] = {0x800,0x864,0x8c8,0x92c,0x98f,0x9f1,0xa52,0xab1, // [000..
  44:animation.c   ****                                          0xb0f,0xb6b,0xbc5,0xc1c,0xc71,0xcc3,0xd12,0xd5f, // [008..
  45:animation.c   ****                                          0xda7,0xded,0xe2e,0xe6c,0xea6,0xedc,0xf0d,0xf3a, // [016..
  46:animation.c   ****                                          0xf63,0xf87,0xfa7,0xfc2,0xfd8,0xfe9,0xff5,0xffd, // [024..
  47:animation.c   ****                                          0xfff,0xffd,0xff5,0xfe9,0xfd8,0xfc2,0xfa7,0xf87, // [032..
  48:animation.c   ****                                          0xf63,0xf3a,0xf0d,0xedc,0xea6,0xe6c,0xe2e,0xded, // [040..
  49:animation.c   ****                                          0xda7,0xd5f,0xd12,0xcc3,0xc71,0xc1c,0xbc5,0xb6b, // [048..
  50:animation.c   ****                                          0xb0f,0xab1,0xa52,0x9f1,0x98f,0x92c,0x8c8,0x864, // [056..
  51:animation.c   ****                                          0x800,0x79b,0x737,0x6d3,0x670,0x60e,0x5ad,0x54e, // [064..
  52:animation.c   ****                                          0x4f0,0x494,0x43a,0x3e3,0x38e,0x33c,0x2ed,0x2a0, // [072..
  53:animation.c   ****                                          0x258,0x212,0x1d1,0x193,0x159,0x123,0x0f2,0x0c5, // [080..
  54:animation.c   ****                                          0x09c,0x078,0x058,0x03d,0x027,0x016,0x00a,0x002, // [088..
  55:animation.c   ****                                          0x000,0x002,0x00a,0x016,0x027,0x03d,0x058,0x078, // [096..
  56:animation.c   ****                                          0x09c,0x0c5,0x0f2,0x123,0x159,0x193,0x1d1,0x212, // [104..
  57:animation.c   ****                                          0x258,0x2a0,0x2ed,0x33c,0x38e,0x3e3,0x43a,0x494, // [112..
  58:animation.c   ****                                          0x4f0,0x54e,0x5ad,0x60e,0x670,0x6d3,0x737,0x79b};// [120..
  59:animation.c   **** #else
  60:animation.c   **** #define SINE_VEC_SIZE 256
  61:animation.c   **** static uint16 sine_vec[SINE_VEC_SIZE] = {0x800,0x832,0x864,0x896,0x8c8,0x8fa,0x92c,0x95e,
  62:animation.c   ****                                          0x98f,0x9c0,0x9f1,0xa22,0xa52,0xa82,0xab1,0xae0,
  63:animation.c   ****                                          0xb0f,0xb3d,0xb6b,0xb98,0xbc5,0xbf1,0xc1c,0xc47,
  64:animation.c   ****                                          0xc71,0xc9a,0xcc3,0xceb,0xd12,0xd39,0xd5f,0xd83,
  65:animation.c   ****                                          0xda7,0xdca,0xded,0xe0e,0xe2e,0xe4e,0xe6c,0xe8a,
  66:animation.c   ****                                          0xea6,0xec1,0xedc,0xef5,0xf0d,0xf24,0xf3a,0xf4f,
  67:animation.c   ****                                          0xf63,0xf76,0xf87,0xf98,0xfa7,0xfb5,0xfc2,0xfcd,
  68:animation.c   ****                                          0xfd8,0xfe1,0xfe9,0xff0,0xff5,0xff9,0xffd,0xffe,
  69:animation.c   ****                                          0xfff,0xffe,0xffd,0xff9,0xff5,0xff0,0xfe9,0xfe1,
  70:animation.c   ****                                          0xfd8,0xfcd,0xfc2,0xfb5,0xfa7,0xf98,0xf87,0xf76,
  71:animation.c   ****                                          0xf63,0xf4f,0xf3a,0xf24,0xf0d,0xef5,0xedc,0xec1,
  72:animation.c   ****                                          0xea6,0xe8a,0xe6c,0xe4e,0xe2e,0xe0e,0xded,0xdca,
  73:animation.c   ****                                          0xda7,0xd83,0xd5f,0xd39,0xd12,0xceb,0xcc3,0xc9a,
  74:animation.c   ****                                          0xc71,0xc47,0xc1c,0xbf1,0xbc5,0xb98,0xb6b,0xb3d,
  75:animation.c   ****                                          0xb0f,0xae0,0xab1,0xa82,0xa52,0xa22,0x9f1,0x9c0,
  76:animation.c   ****                                          0x98f,0x95e,0x92c,0x8fa,0x8c8,0x896,0x864,0x832,
  77:animation.c   ****                                          0x800,0x7cd,0x79b,0x769,0x737,0x705,0x6d3,0x6a1,
  78:animation.c   ****                                          0x670,0x63f,0x60e,0x5dd,0x5ad,0x57d,0x54e,0x51f,
  79:animation.c   ****                                          0x4f0,0x4c2,0x494,0x467,0x43a,0x40e,0x3e3,0x3b8,
  80:animation.c   ****                                          0x38e,0x365,0x33c,0x314,0x2ed,0x2c6,0x2a0,0x27c,
  81:animation.c   ****                                          0x258,0x235,0x212,0x1f1,0x1d1,0x1b1,0x193,0x175,
  82:animation.c   ****                                          0x159,0x13e,0x123,0x10a,0x0f2,0x0db,0x0c5,0x0b0,
  83:animation.c   ****                                          0x09c,0x089,0x078,0x067,0x058,0x04a,0x03d,0x032,
  84:animation.c   ****                                          0x027,0x01e,0x016,0x00f,0x00a,0x006,0x002,0x001,
  85:animation.c   ****                                          0x000,0x001,0x002,0x006,0x00a,0x00f,0x016,0x01e,
  86:animation.c   ****                                          0x027,0x032,0x03d,0x04a,0x058,0x067,0x078,0x089,
  87:animation.c   ****                                          0x09c,0x0b0,0x0c5,0x0db,0x0f2,0x10a,0x123,0x13e,
  88:animation.c   ****                                          0x159,0x175,0x193,0x1b1,0x1d1,0x1f1,0x212,0x235,
  89:animation.c   ****                                          0x258,0x27c,0x2a0,0x2c6,0x2ed,0x314,0x33c,0x365,
ARM GAS  C:\Users\TB1014~1\AppData\Local\Temp\ccVniMG7.s 			page 3


  90:animation.c   ****                                          0x38e,0x3b8,0x3e3,0x40e,0x43a,0x467,0x494,0x4c2,
  91:animation.c   ****                                          0x4f0,0x51f,0x54e,0x57d,0x5ad,0x5dd,0x60e,0x63f,
  92:animation.c   ****                                          0x670,0x6a1,0x6d3,0x705,0x737,0x769,0x79b,0x7cd};         
  93:animation.c   **** #endif // USE_128_POINTS_FOR_BREATHING
  94:animation.c   ****                                                
  95:animation.c   **** #define PI_0_INDEX   0                  // 0   degrees
  96:animation.c   **** #define PI_90_INDEX  (SINE_VEC_SIZE / 4)// 90  degrees
  97:animation.c   **** #define PI_120_INDEX (SINE_VEC_SIZE / 3)// 120 degrees
  98:animation.c   **** #define PI_180_INDEX (PI_90_INDEX   * 2)// 180 degrees
  99:animation.c   **** #define PI_270_INDEX (PI_90_INDEX   * 3)// 270 degrees
 100:animation.c   **** 
 101:animation.c   **** static BOOL             is_auto_anim_rotation_enable = TRUE; // when enable: auto rotation of the l
 102:animation.c   **** static BOOL             is_anim_on_button_up_enable  = TRUE; // when anable: start the selected lig
 103:animation.c   **** static t_enum_animation current_callback_anim        = ANIM_BUTTON_SMOOTH_SLOW;
 104:animation.c   **** 
 105:animation.c   **** //=============================================================================
 106:animation.c   **** //========================================================== animate_all_colors
 107:animation.c   **** //=============================================================================
 108:animation.c   **** void animate_all_colors(void)
 109:animation.c   **** {
  26              		.loc 1 109 0
  27              		.cfi_startproc
  28 0000 10B5     		push	{r4, lr}
  29              		.cfi_def_cfa_offset 8
  30              		.cfi_offset 4, -8
  31              		.cfi_offset 14, -4
  32              	.LVL0:
 110:animation.c   ****     static uint16 red             = 0;
 111:animation.c   ****     static uint16 green           = 0;
 112:animation.c   ****     static uint16 blue            = 0;
 113:animation.c   ****     static BOOL   intensity_up    = TRUE;
 114:animation.c   ****            uint16 blue_increment  = 64 ;
 115:animation.c   ****            uint16 green_increment = 128;
 116:animation.c   ****            uint16 red_increment   = 256;
 117:animation.c   ****            
 118:animation.c   ****     set_led(E_LED_LEFT_RED   ,  red  );
  33              		.loc 1 118 0
  34 0002 354C     		ldr	r4, .L10
  35 0004 2188     		ldrh	r1, [r4]
  36 0006 1520     		mov	r0, #21
  37 0008 FFF7FEFF 		bl	set_led
  38              	.LVL1:
 119:animation.c   ****     set_led(E_LED_LEFT_GREEN ,  green);
  39              		.loc 1 119 0
  40 000c 6188     		ldrh	r1, [r4, #2]
  41 000e 1620     		mov	r0, #22
  42 0010 FFF7FEFF 		bl	set_led
  43              	.LVL2:
 120:animation.c   ****     set_led(E_LED_LEFT_BLUE  ,  blue );
  44              		.loc 1 120 0
  45 0014 A188     		ldrh	r1, [r4, #4]
  46 0016 1720     		mov	r0, #23
  47 0018 FFF7FEFF 		bl	set_led
  48              	.LVL3:
 121:animation.c   ****     set_led(E_LED_RIGHT_RED  , ~red  );
  49              		.loc 1 121 0
  50 001c 2188     		ldrh	r1, [r4]
ARM GAS  C:\Users\TB1014~1\AppData\Local\Temp\ccVniMG7.s 			page 4


  51 001e C943     		mvn	r1, r1
  52 0020 89B2     		uxth	r1, r1
  53 0022 1220     		mov	r0, #18
  54 0024 FFF7FEFF 		bl	set_led
  55              	.LVL4:
 122:animation.c   ****     set_led(E_LED_RIGHT_GREEN, ~green);
  56              		.loc 1 122 0
  57 0028 6188     		ldrh	r1, [r4, #2]
  58 002a C943     		mvn	r1, r1
  59 002c 89B2     		uxth	r1, r1
  60 002e 1320     		mov	r0, #19
  61 0030 FFF7FEFF 		bl	set_led
  62              	.LVL5:
 123:animation.c   ****     set_led(E_LED_RIGHT_BLUE , ~blue );
  63              		.loc 1 123 0
  64 0034 A188     		ldrh	r1, [r4, #4]
  65 0036 C943     		mvn	r1, r1
  66 0038 89B2     		uxth	r1, r1
  67 003a 1420     		mov	r0, #20
  68 003c FFF7FEFF 		bl	set_led
  69              	.LVL6:
 124:animation.c   ****    
 125:animation.c   ****     if (intensity_up)
  70              		.loc 1 125 0
  71 0040 264B     		ldr	r3, .L10+4
  72 0042 1B78     		ldrb	r3, [r3]
  73 0044 002B     		cmp	r3, #0
  74 0046 24D0     		beq	.L2
 126:animation.c   ****     {   
 127:animation.c   ****         if (red >= MAX_COLOR)
  75              		.loc 1 127 0
  76 0048 234B     		ldr	r3, .L10
  77 004a 1B88     		ldrh	r3, [r3]
  78 004c 244A     		ldr	r2, .L10+8
  79 004e 9342     		cmp	r3, r2
  80 0050 03D9     		bls	.L3
 128:animation.c   ****         {
 129:animation.c   ****             intensity_up = FALSE;
  81              		.loc 1 129 0
  82 0052 0022     		mov	r2, #0
  83 0054 214B     		ldr	r3, .L10+4
  84 0056 1A70     		strb	r2, [r3]
  85 0058 3CE0     		b	.L1
  86              	.L3:
 130:animation.c   ****         }
 131:animation.c   ****         else if (green >= MAX_COLOR) 
  87              		.loc 1 131 0
  88 005a 1F4A     		ldr	r2, .L10
  89 005c 5288     		ldrh	r2, [r2, #2]
  90 005e 2049     		ldr	r1, .L10+8
  91 0060 8A42     		cmp	r2, r1
  92 0062 07D9     		bls	.L5
 132:animation.c   ****         {
 133:animation.c   ****            red   += red_increment;
  93              		.loc 1 133 0
  94 0064 1C4A     		ldr	r2, .L10
  95 0066 0133     		add	r3, r3, #1
ARM GAS  C:\Users\TB1014~1\AppData\Local\Temp\ccVniMG7.s 			page 5


  96 0068 FF33     		add	r3, r3, #255
  97 006a 1380     		strh	r3, [r2]
 134:animation.c   ****            green  = 0;
  98              		.loc 1 134 0
  99 006c 0023     		mov	r3, #0
 100 006e 5380     		strh	r3, [r2, #2]
 135:animation.c   ****            blue   = 0;
 101              		.loc 1 135 0
 102 0070 9380     		strh	r3, [r2, #4]
 103 0072 2FE0     		b	.L1
 104              	.L5:
 136:animation.c   ****         } 
 137:animation.c   ****         else if (blue >= MAX_COLOR)
 105              		.loc 1 137 0
 106 0074 184B     		ldr	r3, .L10
 107 0076 9B88     		ldrh	r3, [r3, #4]
 108 0078 1949     		ldr	r1, .L10+8
 109 007a 8B42     		cmp	r3, r1
 110 007c 05D9     		bls	.L6
 138:animation.c   ****         {
 139:animation.c   ****             green += green_increment;
 111              		.loc 1 139 0
 112 007e 164B     		ldr	r3, .L10
 113 0080 8032     		add	r2, r2, #128
 114 0082 5A80     		strh	r2, [r3, #2]
 140:animation.c   ****             blue   = 0;
 115              		.loc 1 140 0
 116 0084 0022     		mov	r2, #0
 117 0086 9A80     		strh	r2, [r3, #4]
 118 0088 24E0     		b	.L1
 119              	.L6:
 141:animation.c   ****         }
 142:animation.c   ****         else
 143:animation.c   ****         {
 144:animation.c   ****             blue += blue_increment;    
 120              		.loc 1 144 0
 121 008a 4033     		add	r3, r3, #64
 122 008c 124A     		ldr	r2, .L10
 123 008e 9380     		strh	r3, [r2, #4]
 124 0090 20E0     		b	.L1
 125              	.L2:
 145:animation.c   ****         }
 146:animation.c   ****     }// if the intensity is going up
 147:animation.c   ****     else
 148:animation.c   ****     {
 149:animation.c   ****         if (red == 0)
 126              		.loc 1 149 0
 127 0092 114B     		ldr	r3, .L10
 128 0094 1B88     		ldrh	r3, [r3]
 129 0096 002B     		cmp	r3, #0
 130 0098 03D1     		bne	.L7
 150:animation.c   ****         {
 151:animation.c   ****             intensity_up = TRUE;
 131              		.loc 1 151 0
 132 009a 0122     		mov	r2, #1
 133 009c 0F4B     		ldr	r3, .L10+4
 134 009e 1A70     		strb	r2, [r3]
ARM GAS  C:\Users\TB1014~1\AppData\Local\Temp\ccVniMG7.s 			page 6


 135 00a0 18E0     		b	.L1
 136              	.L7:
 152:animation.c   ****         }
 153:animation.c   ****         else if (green == 0)
 137              		.loc 1 153 0
 138 00a2 0D4A     		ldr	r2, .L10
 139 00a4 5288     		ldrh	r2, [r2, #2]
 140 00a6 002A     		cmp	r2, #0
 141 00a8 07D1     		bne	.L8
 154:animation.c   ****         {
 155:animation.c   ****            red   -= red_increment;
 142              		.loc 1 155 0
 143 00aa 0B4A     		ldr	r2, .L10
 144 00ac 013B     		sub	r3, r3, #1
 145 00ae FF3B     		sub	r3, r3, #255
 146 00b0 1380     		strh	r3, [r2]
 156:animation.c   ****            green  = MAX_COLOR;
 147              		.loc 1 156 0
 148 00b2 0C4B     		ldr	r3, .L10+12
 149 00b4 5380     		strh	r3, [r2, #2]
 157:animation.c   ****            blue   = MAX_COLOR;
 150              		.loc 1 157 0
 151 00b6 9380     		strh	r3, [r2, #4]
 152 00b8 0CE0     		b	.L1
 153              	.L8:
 158:animation.c   ****         } 
 159:animation.c   ****         else if (blue == 0)
 154              		.loc 1 159 0
 155 00ba 074B     		ldr	r3, .L10
 156 00bc 9B88     		ldrh	r3, [r3, #4]
 157 00be 002B     		cmp	r3, #0
 158 00c0 05D1     		bne	.L9
 160:animation.c   ****         {
 161:animation.c   ****             green -= green_increment;
 159              		.loc 1 161 0
 160 00c2 054B     		ldr	r3, .L10
 161 00c4 803A     		sub	r2, r2, #128
 162 00c6 5A80     		strh	r2, [r3, #2]
 162:animation.c   ****             blue   = MAX_COLOR;
 163              		.loc 1 162 0
 164 00c8 064A     		ldr	r2, .L10+12
 165 00ca 9A80     		strh	r2, [r3, #4]
 166 00cc 02E0     		b	.L1
 167              	.L9:
 163:animation.c   ****         }
 164:animation.c   ****         else
 165:animation.c   ****         {
 166:animation.c   ****             blue -= blue_increment;    
 168              		.loc 1 166 0
 169 00ce 403B     		sub	r3, r3, #64
 170 00d0 014A     		ldr	r2, .L10
 171 00d2 9380     		strh	r3, [r2, #4]
 172              	.L1:
 167:animation.c   ****         }
 168:animation.c   ****     }// // else, the intensity is going down
 169:animation.c   **** }// animate_all_colors
 173              		.loc 1 169 0
ARM GAS  C:\Users\TB1014~1\AppData\Local\Temp\ccVniMG7.s 			page 7


 174              		@ sp needed
 175 00d4 10BD     		pop	{r4, pc}
 176              	.L11:
 177 00d6 C046     		.align	2
 178              	.L10:
 179 00d8 00000000 		.word	.LANCHOR0
 180 00dc 00000000 		.word	.LANCHOR1
 181 00e0 FE0F0000 		.word	4094
 182 00e4 FF0F0000 		.word	4095
 183              		.cfi_endproc
 184              	.LFE35:
 185              		.size	animate_all_colors, .-animate_all_colors
 186              		.section	.text.animate_fix_white,"ax",%progbits
 187              		.align	2
 188              		.global	animate_fix_white
 189              		.code	16
 190              		.thumb_func
 191              		.type	animate_fix_white, %function
 192              	animate_fix_white:
 193              	.LFB36:
 170:animation.c   **** 
 171:animation.c   **** //=============================================================================
 172:animation.c   **** //=========================================================== animate_fix_white
 173:animation.c   **** //=============================================================================
 174:animation.c   **** void animate_fix_white(void)
 175:animation.c   **** {
 194              		.loc 1 175 0
 195              		.cfi_startproc
 196 0000 10B5     		push	{r4, lr}
 197              		.cfi_def_cfa_offset 8
 198              		.cfi_offset 4, -8
 199              		.cfi_offset 14, -4
 176:animation.c   ****     set_led(6, MAX_INTENSITY);
 200              		.loc 1 176 0
 201 0002 094C     		ldr	r4, .L13
 202 0004 0620     		mov	r0, #6
 203 0006 211C     		mov	r1, r4
 204 0008 FFF7FEFF 		bl	set_led
 205              	.LVL7:
 177:animation.c   ****     set_led(7, MAX_INTENSITY);
 206              		.loc 1 177 0
 207 000c 0720     		mov	r0, #7
 208 000e 211C     		mov	r1, r4
 209 0010 FFF7FEFF 		bl	set_led
 210              	.LVL8:
 178:animation.c   ****     set_led(8, MAX_INTENSITY);
 211              		.loc 1 178 0
 212 0014 0820     		mov	r0, #8
 213 0016 211C     		mov	r1, r4
 214 0018 FFF7FEFF 		bl	set_led
 215              	.LVL9:
 179:animation.c   ****     set_led(9, MAX_INTENSITY);
 216              		.loc 1 179 0
 217 001c 0920     		mov	r0, #9
 218 001e 211C     		mov	r1, r4
 219 0020 FFF7FEFF 		bl	set_led
 220              	.LVL10:
ARM GAS  C:\Users\TB1014~1\AppData\Local\Temp\ccVniMG7.s 			page 8


 180:animation.c   **** }// animate_fix_led_0
 221              		.loc 1 180 0
 222              		@ sp needed
 223 0024 10BD     		pop	{r4, pc}
 224              	.L14:
 225 0026 C046     		.align	2
 226              	.L13:
 227 0028 FF0F0000 		.word	4095
 228              		.cfi_endproc
 229              	.LFE36:
 230              		.size	animate_fix_white, .-animate_fix_white
 231              		.section	.text.animate_red_intensity,"ax",%progbits
 232              		.align	2
 233              		.global	animate_red_intensity
 234              		.code	16
 235              		.thumb_func
 236              		.type	animate_red_intensity, %function
 237              	animate_red_intensity:
 238              	.LFB38:
 181:animation.c   **** 
 182:animation.c   **** //=============================================================================
 183:animation.c   **** //========================================================== animate_fix_led_14
 184:animation.c   **** //=============================================================================
 185:animation.c   **** void animate_fix_led_14(void)
 186:animation.c   **** {
 187:animation.c   ****     set_led(14, MAX_INTENSITY);
 188:animation.c   **** }// animate_fix_led_0
 189:animation.c   **** 
 190:animation.c   **** //=============================================================================
 191:animation.c   **** //======================================================= animate_red_intensity
 192:animation.c   **** //=============================================================================
 193:animation.c   **** void animate_red_intensity  (void)
 194:animation.c   **** {
 239              		.loc 1 194 0
 240              		.cfi_startproc
 241 0000 10B5     		push	{r4, lr}
 242              		.cfi_def_cfa_offset 8
 243              		.cfi_offset 4, -8
 244              		.cfi_offset 14, -4
 195:animation.c   **** #if FOR_COLIN    
 196:animation.c   ****     animate_color_intensity(E_RED);
 197:animation.c   **** #else
 198:animation.c   ****     set_led(E_LED_LEFT_RED   , MAX_COLOR);
 245              		.loc 1 198 0
 246 0002 0D4C     		ldr	r4, .L16
 247 0004 1520     		mov	r0, #21
 248 0006 211C     		mov	r1, r4
 249 0008 FFF7FEFF 		bl	set_led
 250              	.LVL11:
 199:animation.c   ****     set_led(E_LED_LEFT_GREEN , 0x00     );
 251              		.loc 1 199 0
 252 000c 1620     		mov	r0, #22
 253 000e 0021     		mov	r1, #0
 254 0010 FFF7FEFF 		bl	set_led
 255              	.LVL12:
 200:animation.c   ****     set_led(E_LED_LEFT_BLUE  , 0x00     );
 256              		.loc 1 200 0
ARM GAS  C:\Users\TB1014~1\AppData\Local\Temp\ccVniMG7.s 			page 9


 257 0014 1720     		mov	r0, #23
 258 0016 0021     		mov	r1, #0
 259 0018 FFF7FEFF 		bl	set_led
 260              	.LVL13:
 201:animation.c   ****     set_led(E_LED_RIGHT_RED  , MAX_COLOR);
 261              		.loc 1 201 0
 262 001c 1220     		mov	r0, #18
 263 001e 211C     		mov	r1, r4
 264 0020 FFF7FEFF 		bl	set_led
 265              	.LVL14:
 202:animation.c   ****     set_led(E_LED_RIGHT_GREEN, 0x00     );
 266              		.loc 1 202 0
 267 0024 1320     		mov	r0, #19
 268 0026 0021     		mov	r1, #0
 269 0028 FFF7FEFF 		bl	set_led
 270              	.LVL15:
 203:animation.c   ****     set_led(E_LED_RIGHT_BLUE , 0x00     );
 271              		.loc 1 203 0
 272 002c 1420     		mov	r0, #20
 273 002e 0021     		mov	r1, #0
 274 0030 FFF7FEFF 		bl	set_led
 275              	.LVL16:
 204:animation.c   **** #endif        
 205:animation.c   **** }// animate_red_intensity
 276              		.loc 1 205 0
 277              		@ sp needed
 278 0034 10BD     		pop	{r4, pc}
 279              	.L17:
 280 0036 C046     		.align	2
 281              	.L16:
 282 0038 FF0F0000 		.word	4095
 283              		.cfi_endproc
 284              	.LFE38:
 285              		.size	animate_red_intensity, .-animate_red_intensity
 286              		.section	.text.animate_green_intensity,"ax",%progbits
 287              		.align	2
 288              		.global	animate_green_intensity
 289              		.code	16
 290              		.thumb_func
 291              		.type	animate_green_intensity, %function
 292              	animate_green_intensity:
 293              	.LFB39:
 206:animation.c   **** 
 207:animation.c   **** //=============================================================================
 208:animation.c   **** //===================================================== animate_green_intensity
 209:animation.c   **** //=============================================================================
 210:animation.c   **** void animate_green_intensity(void)
 211:animation.c   **** {
 294              		.loc 1 211 0
 295              		.cfi_startproc
 296 0000 10B5     		push	{r4, lr}
 297              		.cfi_def_cfa_offset 8
 298              		.cfi_offset 4, -8
 299              		.cfi_offset 14, -4
 212:animation.c   **** #if FOR_COLIN    
 213:animation.c   ****     animate_color_intensity(E_GREEN);
 214:animation.c   **** #else
ARM GAS  C:\Users\TB1014~1\AppData\Local\Temp\ccVniMG7.s 			page 10


 215:animation.c   ****     set_led(E_LED_LEFT_RED   , 0x00     );
 300              		.loc 1 215 0
 301 0002 1520     		mov	r0, #21
 302 0004 0021     		mov	r1, #0
 303 0006 FFF7FEFF 		bl	set_led
 304              	.LVL17:
 216:animation.c   ****     set_led(E_LED_LEFT_GREEN , MAX_COLOR);
 305              		.loc 1 216 0
 306 000a 0B4C     		ldr	r4, .L19
 307 000c 1620     		mov	r0, #22
 308 000e 211C     		mov	r1, r4
 309 0010 FFF7FEFF 		bl	set_led
 310              	.LVL18:
 217:animation.c   ****     set_led(E_LED_LEFT_BLUE  , 0x00     );
 311              		.loc 1 217 0
 312 0014 1720     		mov	r0, #23
 313 0016 0021     		mov	r1, #0
 314 0018 FFF7FEFF 		bl	set_led
 315              	.LVL19:
 218:animation.c   ****     set_led(E_LED_RIGHT_RED  , 0x00     );
 316              		.loc 1 218 0
 317 001c 1220     		mov	r0, #18
 318 001e 0021     		mov	r1, #0
 319 0020 FFF7FEFF 		bl	set_led
 320              	.LVL20:
 219:animation.c   ****     set_led(E_LED_RIGHT_GREEN, MAX_COLOR);
 321              		.loc 1 219 0
 322 0024 1320     		mov	r0, #19
 323 0026 211C     		mov	r1, r4
 324 0028 FFF7FEFF 		bl	set_led
 325              	.LVL21:
 220:animation.c   ****     set_led(E_LED_RIGHT_BLUE , 0x00     );
 326              		.loc 1 220 0
 327 002c 1420     		mov	r0, #20
 328 002e 0021     		mov	r1, #0
 329 0030 FFF7FEFF 		bl	set_led
 330              	.LVL22:
 221:animation.c   **** #endif    
 222:animation.c   **** }// animate_green_intensity
 331              		.loc 1 222 0
 332              		@ sp needed
 333 0034 10BD     		pop	{r4, pc}
 334              	.L20:
 335 0036 C046     		.align	2
 336              	.L19:
 337 0038 FF0F0000 		.word	4095
 338              		.cfi_endproc
 339              	.LFE39:
 340              		.size	animate_green_intensity, .-animate_green_intensity
 341              		.section	.text.animate_blue_intensity,"ax",%progbits
 342              		.align	2
 343              		.global	animate_blue_intensity
 344              		.code	16
 345              		.thumb_func
 346              		.type	animate_blue_intensity, %function
 347              	animate_blue_intensity:
 348              	.LFB40:
ARM GAS  C:\Users\TB1014~1\AppData\Local\Temp\ccVniMG7.s 			page 11


 223:animation.c   **** 
 224:animation.c   **** //=============================================================================
 225:animation.c   **** //====================================================== animate_blue_intensity
 226:animation.c   **** //=============================================================================
 227:animation.c   **** void animate_blue_intensity (void)
 228:animation.c   **** {
 349              		.loc 1 228 0
 350              		.cfi_startproc
 351 0000 10B5     		push	{r4, lr}
 352              		.cfi_def_cfa_offset 8
 353              		.cfi_offset 4, -8
 354              		.cfi_offset 14, -4
 229:animation.c   **** #if FOR_COLIN    
 230:animation.c   ****     animate_color_intensity(E_BLUE);
 231:animation.c   **** #else
 232:animation.c   ****     set_led(E_LED_LEFT_RED   , 0x00     );
 355              		.loc 1 232 0
 356 0002 1520     		mov	r0, #21
 357 0004 0021     		mov	r1, #0
 358 0006 FFF7FEFF 		bl	set_led
 359              	.LVL23:
 233:animation.c   ****     set_led(E_LED_LEFT_GREEN , 0x00     );
 360              		.loc 1 233 0
 361 000a 1620     		mov	r0, #22
 362 000c 0021     		mov	r1, #0
 363 000e FFF7FEFF 		bl	set_led
 364              	.LVL24:
 234:animation.c   ****     set_led(E_LED_LEFT_BLUE  , MAX_COLOR);
 365              		.loc 1 234 0
 366 0012 094C     		ldr	r4, .L22
 367 0014 1720     		mov	r0, #23
 368 0016 211C     		mov	r1, r4
 369 0018 FFF7FEFF 		bl	set_led
 370              	.LVL25:
 235:animation.c   ****     set_led(E_LED_RIGHT_RED  , 0x00     );
 371              		.loc 1 235 0
 372 001c 1220     		mov	r0, #18
 373 001e 0021     		mov	r1, #0
 374 0020 FFF7FEFF 		bl	set_led
 375              	.LVL26:
 236:animation.c   ****     set_led(E_LED_RIGHT_GREEN, 0x00     );
 376              		.loc 1 236 0
 377 0024 1320     		mov	r0, #19
 378 0026 0021     		mov	r1, #0
 379 0028 FFF7FEFF 		bl	set_led
 380              	.LVL27:
 237:animation.c   ****     set_led(E_LED_RIGHT_BLUE , MAX_COLOR);
 381              		.loc 1 237 0
 382 002c 1420     		mov	r0, #20
 383 002e 211C     		mov	r1, r4
 384 0030 FFF7FEFF 		bl	set_led
 385              	.LVL28:
 238:animation.c   **** #endif        
 239:animation.c   **** }// animate_blue_intensity
 386              		.loc 1 239 0
 387              		@ sp needed
 388 0034 10BD     		pop	{r4, pc}
ARM GAS  C:\Users\TB1014~1\AppData\Local\Temp\ccVniMG7.s 			page 12


 389              	.L23:
 390 0036 C046     		.align	2
 391              	.L22:
 392 0038 FF0F0000 		.word	4095
 393              		.cfi_endproc
 394              	.LFE40:
 395              		.size	animate_blue_intensity, .-animate_blue_intensity
 396              		.section	.text.animate_rainbow_colors,"ax",%progbits
 397              		.align	2
 398              		.global	animate_rainbow_colors
 399              		.code	16
 400              		.thumb_func
 401              		.type	animate_rainbow_colors, %function
 402              	animate_rainbow_colors:
 403              	.LFB45:
 240:animation.c   **** 
 241:animation.c   **** //=============================================================================
 242:animation.c   **** //================================================= animate_red_white_intensity
 243:animation.c   **** //=============================================================================
 244:animation.c   **** void animate_red_white_intensity  (void)
 245:animation.c   **** {
 246:animation.c   ****     static uint8 intensity_white_index = PI_0_INDEX  ;
 247:animation.c   ****     static uint8 intensity_color_index = PI_180_INDEX;
 248:animation.c   ****       
 249:animation.c   ****     set_all_white_leds(sine_vec[intensity_white_index++]);
 250:animation.c   ****     set_led           (E_LED_LEFT_RED, sine_vec[intensity_color_index  ]);
 251:animation.c   ****     set_led           (E_LED_LEFT_RED, sine_vec[intensity_color_index++]);
 252:animation.c   ****     
 253:animation.c   **** #if USE_128_POINTS_FOR_BREATHING
 254:animation.c   ****     left_index  %= SINE_VEC_SIZE;
 255:animation.c   ****     right_index %= SINE_VEC_SIZE;
 256:animation.c   **** #endif // at 256 points, the index value (uint8) will rotate by them self
 257:animation.c   ****     
 258:animation.c   **** }// animate_red_white_intensity
 259:animation.c   **** 
 260:animation.c   **** //=============================================================================
 261:animation.c   **** //=============================================== animate_green_white_intensity
 262:animation.c   **** //=============================================================================
 263:animation.c   **** void animate_green_white_intensity(void)
 264:animation.c   **** {
 265:animation.c   ****     static uint8 intensity_white_index = PI_0_INDEX  ;
 266:animation.c   ****     static uint8 intensity_color_index = PI_180_INDEX;
 267:animation.c   ****       
 268:animation.c   ****     set_all_white_leds(sine_vec[intensity_white_index++]);
 269:animation.c   ****     set_led           (E_LED_LEFT_GREEN, sine_vec[intensity_color_index  ]);
 270:animation.c   ****     set_led           (E_LED_LEFT_GREEN, sine_vec[intensity_color_index++]);
 271:animation.c   ****     
 272:animation.c   **** #if USE_128_POINTS_FOR_BREATHING
 273:animation.c   ****     left_index  %= SINE_VEC_SIZE;
 274:animation.c   ****     right_index %= SINE_VEC_SIZE;
 275:animation.c   **** #endif // at 256 points, the index value (uint8) will rotate by them self
 276:animation.c   **** }// animate_green_white_intensity
 277:animation.c   **** 
 278:animation.c   **** //=============================================================================
 279:animation.c   **** //================================================ animate_blue_white_intensity
 280:animation.c   **** //=============================================================================
 281:animation.c   **** void animate_blue_white_intensity (void)
ARM GAS  C:\Users\TB1014~1\AppData\Local\Temp\ccVniMG7.s 			page 13


 282:animation.c   **** {
 283:animation.c   ****     static uint8 intensity_white_index = PI_0_INDEX  ;
 284:animation.c   ****     static uint8 intensity_color_index = PI_180_INDEX;
 285:animation.c   ****       
 286:animation.c   ****     set_all_white_leds(sine_vec[intensity_white_index++]);
 287:animation.c   ****     set_led           (E_LED_LEFT_BLUE, sine_vec[intensity_color_index  ]);
 288:animation.c   ****     set_led           (E_LED_LEFT_BLUE, sine_vec[intensity_color_index++]);
 289:animation.c   ****     
 290:animation.c   **** #if USE_128_POINTS_FOR_BREATHING
 291:animation.c   ****     left_index  %= SINE_VEC_SIZE;
 292:animation.c   ****     right_index %= SINE_VEC_SIZE;
 293:animation.c   **** #endif // at 256 points, the index value (uint8) will rotate by them self  
 294:animation.c   **** }// animate_blue_white_intensity
 295:animation.c   **** 
 296:animation.c   **** //=============================================================================
 297:animation.c   **** //===================================================== animate_color_intensity
 298:animation.c   **** //=============================================================================
 299:animation.c   **** void animate_color_intensity(t_enum_primary_color color)
 300:animation.c   **** {
 301:animation.c   ****     static uint16 intensity    = 0   ;
 302:animation.c   ****     static BOOL   intensity_up = TRUE;
 303:animation.c   ****            uint16 increment    = 1   ;
 304:animation.c   **** 
 305:animation.c   ****     switch (color)
 306:animation.c   ****     {
 307:animation.c   ****         case E_PRIMARY_COLOR_RED  : set_led(E_LED_LEFT_RED   , intensity);
 308:animation.c   ****                                     set_led(E_LED_RIGHT_RED  , intensity);
 309:animation.c   ****                                     break;
 310:animation.c   ****         case E_PRIMARY_COLOR_GREEN: set_led(E_LED_LEFT_GREEN , intensity);
 311:animation.c   ****                                     set_led(E_LED_RIGHT_GREEN, intensity);
 312:animation.c   ****                                     break;
 313:animation.c   ****         case E_PRIMARY_COLOR_BLUE : set_led(E_LED_LEFT_BLUE  , intensity);
 314:animation.c   ****                                     set_led(E_LED_RIGHT_BLUE , intensity);
 315:animation.c   ****                                     break;
 316:animation.c   ****         default                   : break;
 317:animation.c   ****     }// switch color
 318:animation.c   ****                    
 319:animation.c   ****     if (intensity_up)
 320:animation.c   ****     {
 321:animation.c   ****         intensity += increment;
 322:animation.c   ****         if (intensity >= MAX_COLOR)
 323:animation.c   ****         {
 324:animation.c   ****             intensity_up = FALSE;
 325:animation.c   ****         }
 326:animation.c   ****     }// if the intensity is going up
 327:animation.c   ****     else
 328:animation.c   ****     {
 329:animation.c   ****         intensity -= increment;
 330:animation.c   ****         if (intensity == 0)
 331:animation.c   ****         {
 332:animation.c   ****             intensity_up = TRUE;
 333:animation.c   ****         }
 334:animation.c   ****     }  
 335:animation.c   **** }// animate_color_intensity
 336:animation.c   **** 
 337:animation.c   **** //=============================================================================
 338:animation.c   **** //====================================================== animate_rainbow_colors
ARM GAS  C:\Users\TB1014~1\AppData\Local\Temp\ccVniMG7.s 			page 14


 339:animation.c   **** //=============================================================================
 340:animation.c   **** void animate_rainbow_colors()
 341:animation.c   **** {
 404              		.loc 1 341 0
 405              		.cfi_startproc
 406 0000 38B5     		push	{r3, r4, r5, lr}
 407              		.cfi_def_cfa_offset 16
 408              		.cfi_offset 3, -16
 409              		.cfi_offset 4, -12
 410              		.cfi_offset 5, -8
 411              		.cfi_offset 14, -4
 342:animation.c   ****     static uint16             cycle         = 0;
 343:animation.c   ****     static uint16             color_index   = 0;
 344:animation.c   ****     static t_struct_rgb_color vec_rainbow[] = {{148,   0, 211}, // violet
 345:animation.c   ****                                                { 75,   0, 130}, // indigo
 346:animation.c   ****                                                {  0,   0, 255}, // blue
 347:animation.c   ****                                                {  0, 255,   0}, // green
 348:animation.c   ****                                                {255, 255,   0}, // yellow
 349:animation.c   ****                                                {255, 127,   0}, // orange
 350:animation.c   ****                                                {255,   0,   0}, // red
 351:animation.c   ****                                                {  0,   0,   0}};
 352:animation.c   ****         
 353:animation.c   ****     cycle++;
 412              		.loc 1 353 0
 413 0002 254A     		ldr	r2, .L27
 414 0004 D388     		ldrh	r3, [r2, #6]
 415 0006 0133     		add	r3, r3, #1
 416 0008 9BB2     		uxth	r3, r3
 417 000a D380     		strh	r3, [r2, #6]
 354:animation.c   ****     if (cycle % 64)
 418              		.loc 1 354 0
 419 000c 9B06     		lsl	r3, r3, #26
 420 000e 41D1     		bne	.L24
 355:animation.c   ****     {
 356:animation.c   ****         return;
 357:animation.c   ****     }
 358:animation.c   ****     
 359:animation.c   ****     if ((vec_rainbow[color_index].red + vec_rainbow[color_index].green + vec_rainbow[color_index].b
 421              		.loc 1 359 0
 422 0010 1289     		ldrh	r2, [r2, #8]
 423 0012 2248     		ldr	r0, .L27+4
 424 0014 5300     		lsl	r3, r2, #1
 425 0016 9B18     		add	r3, r3, r2
 426 0018 195C     		ldrb	r1, [r3, r0]
 427 001a C318     		add	r3, r0, r3
 428 001c 5A78     		ldrb	r2, [r3, #1]
 429 001e 8918     		add	r1, r1, r2
 430 0020 9A78     		ldrb	r2, [r3, #2]
 431 0022 8B18     		add	r3, r1, r2
 432 0024 002B     		cmp	r3, #0
 433 0026 02D1     		bne	.L26
 360:animation.c   ****     {
 361:animation.c   ****         color_index = 0;      
 434              		.loc 1 361 0
 435 0028 0022     		mov	r2, #0
 436 002a 1B4B     		ldr	r3, .L27
 437 002c 1A81     		strh	r2, [r3, #8]
ARM GAS  C:\Users\TB1014~1\AppData\Local\Temp\ccVniMG7.s 			page 15


 438              	.L26:
 362:animation.c   ****     }
 363:animation.c   ****     
 364:animation.c   ****     set_led(E_LED_LEFT_RED   , vec_rainbow[color_index].red  );
 439              		.loc 1 364 0
 440 002e 1B4D     		ldr	r5, .L27+4
 441 0030 194C     		ldr	r4, .L27
 442 0032 2389     		ldrh	r3, [r4, #8]
 443 0034 5A00     		lsl	r2, r3, #1
 444 0036 D318     		add	r3, r2, r3
 445 0038 E95C     		ldrb	r1, [r5, r3]
 446 003a 1520     		mov	r0, #21
 447 003c FFF7FEFF 		bl	set_led
 448              	.LVL29:
 365:animation.c   ****     set_led(E_LED_RIGHT_RED  , vec_rainbow[color_index].red  );
 449              		.loc 1 365 0
 450 0040 2389     		ldrh	r3, [r4, #8]
 451 0042 5A00     		lsl	r2, r3, #1
 452 0044 D318     		add	r3, r2, r3
 453 0046 E95C     		ldrb	r1, [r5, r3]
 454 0048 1220     		mov	r0, #18
 455 004a FFF7FEFF 		bl	set_led
 456              	.LVL30:
 366:animation.c   ****     set_led(E_LED_LEFT_GREEN , vec_rainbow[color_index].green);
 457              		.loc 1 366 0
 458 004e 2389     		ldrh	r3, [r4, #8]
 459 0050 5A00     		lsl	r2, r3, #1
 460 0052 D318     		add	r3, r2, r3
 461 0054 EB18     		add	r3, r5, r3
 462 0056 5978     		ldrb	r1, [r3, #1]
 463 0058 1620     		mov	r0, #22
 464 005a FFF7FEFF 		bl	set_led
 465              	.LVL31:
 367:animation.c   ****     set_led(E_LED_RIGHT_GREEN, vec_rainbow[color_index].green);  
 466              		.loc 1 367 0
 467 005e 2389     		ldrh	r3, [r4, #8]
 468 0060 5A00     		lsl	r2, r3, #1
 469 0062 D318     		add	r3, r2, r3
 470 0064 EB18     		add	r3, r5, r3
 471 0066 5978     		ldrb	r1, [r3, #1]
 472 0068 1320     		mov	r0, #19
 473 006a FFF7FEFF 		bl	set_led
 474              	.LVL32:
 368:animation.c   ****     set_led(E_LED_LEFT_BLUE  , vec_rainbow[color_index].blue );
 475              		.loc 1 368 0
 476 006e 2389     		ldrh	r3, [r4, #8]
 477 0070 5A00     		lsl	r2, r3, #1
 478 0072 D318     		add	r3, r2, r3
 479 0074 EB18     		add	r3, r5, r3
 480 0076 9978     		ldrb	r1, [r3, #2]
 481 0078 1720     		mov	r0, #23
 482 007a FFF7FEFF 		bl	set_led
 483              	.LVL33:
 369:animation.c   ****     set_led(E_LED_RIGHT_BLUE , vec_rainbow[color_index].blue );
 484              		.loc 1 369 0
 485 007e 2389     		ldrh	r3, [r4, #8]
 486 0080 5A00     		lsl	r2, r3, #1
ARM GAS  C:\Users\TB1014~1\AppData\Local\Temp\ccVniMG7.s 			page 16


 487 0082 D318     		add	r3, r2, r3
 488 0084 EB18     		add	r3, r5, r3
 489 0086 9978     		ldrb	r1, [r3, #2]
 490 0088 1420     		mov	r0, #20
 491 008a FFF7FEFF 		bl	set_led
 492              	.LVL34:
 370:animation.c   ****     color_index++;    
 493              		.loc 1 370 0
 494 008e 2389     		ldrh	r3, [r4, #8]
 495 0090 0133     		add	r3, r3, #1
 496 0092 2381     		strh	r3, [r4, #8]
 497              	.L24:
 371:animation.c   **** }// animate_rainbow_colors
 498              		.loc 1 371 0
 499              		@ sp needed
 500 0094 38BD     		pop	{r3, r4, r5, pc}
 501              	.L28:
 502 0096 C046     		.align	2
 503              	.L27:
 504 0098 00000000 		.word	.LANCHOR0
 505 009c 00000000 		.word	.LANCHOR2
 506              		.cfi_endproc
 507              	.LFE45:
 508              		.size	animate_rainbow_colors, .-animate_rainbow_colors
 509              		.global	__aeabi_uidivmod
 510              		.section	.text.animate_left_right,"ax",%progbits
 511              		.align	2
 512              		.global	animate_left_right
 513              		.code	16
 514              		.thumb_func
 515              		.type	animate_left_right, %function
 516              	animate_left_right:
 517              	.LFB46:
 372:animation.c   **** 
 373:animation.c   **** //=============================================================================
 374:animation.c   **** //========================================================== animate_left_right
 375:animation.c   **** //=============================================================================
 376:animation.c   **** void animate_left_right()
 377:animation.c   **** {
 518              		.loc 1 377 0
 519              		.cfi_startproc
 520 0000 10B5     		push	{r4, lr}
 521              		.cfi_def_cfa_offset 8
 522              		.cfi_offset 4, -8
 523              		.cfi_offset 14, -4
 378:animation.c   ****     static uint16 cycle   = 0;
 379:animation.c   ****     static uint16 led_pos = 0;
 380:animation.c   ****          
 381:animation.c   ****     cycle++;
 524              		.loc 1 381 0
 525 0002 0E4B     		ldr	r3, .L31
 526 0004 5889     		ldrh	r0, [r3, #10]
 527 0006 0130     		add	r0, r0, #1
 528 0008 80B2     		uxth	r0, r0
 529 000a 5881     		strh	r0, [r3, #10]
 382:animation.c   ****     if (cycle % 13)
 530              		.loc 1 382 0
ARM GAS  C:\Users\TB1014~1\AppData\Local\Temp\ccVniMG7.s 			page 17


 531 000c 0D21     		mov	r1, #13
 532 000e FFF7FEFF 		bl	__aeabi_uidivmod
 533              	.LVL35:
 534 0012 89B2     		uxth	r1, r1
 535 0014 0029     		cmp	r1, #0
 536 0016 0FD1     		bne	.L29
 383:animation.c   ****     {
 384:animation.c   ****         return;
 385:animation.c   ****     }
 386:animation.c   **** 
 387:animation.c   ****     set_led(led_pos, 0x00);
 537              		.loc 1 387 0
 538 0018 084C     		ldr	r4, .L31
 539 001a 207B     		ldrb	r0, [r4, #12]
 540 001c FFF7FEFF 		bl	set_led
 541              	.LVL36:
 388:animation.c   **** 
 389:animation.c   ****     led_pos++;
 542              		.loc 1 389 0
 543 0020 A089     		ldrh	r0, [r4, #12]
 544 0022 0130     		add	r0, r0, #1
 545 0024 80B2     		uxth	r0, r0
 390:animation.c   ****     led_pos %= NUMBER_OF_WHITE_LEDS;
 546              		.loc 1 390 0
 547 0026 0F21     		mov	r1, #15
 548 0028 FFF7FEFF 		bl	__aeabi_uidivmod
 549              	.LVL37:
 550 002c 88B2     		uxth	r0, r1
 551 002e A081     		strh	r0, [r4, #12]
 391:animation.c   **** 
 392:animation.c   ****     set_led(led_pos, MAX_INTENSITY);
 552              		.loc 1 392 0
 553 0030 C0B2     		uxtb	r0, r0
 554 0032 0349     		ldr	r1, .L31+4
 555 0034 FFF7FEFF 		bl	set_led
 556              	.LVL38:
 557              	.L29:
 393:animation.c   **** }// animate_left_right
 558              		.loc 1 393 0
 559              		@ sp needed
 560 0038 10BD     		pop	{r4, pc}
 561              	.L32:
 562 003a C046     		.align	2
 563              	.L31:
 564 003c 00000000 		.word	.LANCHOR0
 565 0040 FF0F0000 		.word	4095
 566              		.cfi_endproc
 567              	.LFE46:
 568              		.size	animate_left_right, .-animate_left_right
 569              		.section	.text.animate_intensity,"ax",%progbits
 570              		.align	2
 571              		.global	animate_intensity
 572              		.code	16
 573              		.thumb_func
 574              		.type	animate_intensity, %function
 575              	animate_intensity:
 576              	.LFB47:
ARM GAS  C:\Users\TB1014~1\AppData\Local\Temp\ccVniMG7.s 			page 18


 394:animation.c   **** 
 395:animation.c   **** //=============================================================================
 396:animation.c   **** //=========================================================== animate_intensity
 397:animation.c   **** //=============================================================================
 398:animation.c   **** void animate_intensity()
 399:animation.c   **** {
 577              		.loc 1 399 0
 578              		.cfi_startproc
 579 0000 10B5     		push	{r4, lr}
 580              		.cfi_def_cfa_offset 8
 581              		.cfi_offset 4, -8
 582              		.cfi_offset 14, -4
 583              	.LVL39:
 400:animation.c   ****     static uint8 intensity_left_index  = PI_0_INDEX ;
 401:animation.c   ****     static uint8 intensity_right_index = PI_180_INDEX;
 402:animation.c   ****     static uint8 half_white            = NUMBER_OF_WHITE_LEDS / 2;
 403:animation.c   ****     int i;
 404:animation.c   ****        
 405:animation.c   ****     for (i = 0; i < half_white; i++)
 584              		.loc 1 405 0
 585 0002 0024     		mov	r4, #0
 586 0004 09E0     		b	.L34
 587              	.LVL40:
 588              	.L35:
 406:animation.c   ****     {
 407:animation.c   ****         set_led(i, sine_vec[intensity_left_index]);
 589              		.loc 1 407 0 discriminator 3
 590 0006 E0B2     		uxtb	r0, r4
 591 0008 194B     		ldr	r3, .L38
 592 000a 9B7B     		ldrb	r3, [r3, #14]
 593 000c 5B00     		lsl	r3, r3, #1
 594 000e 194A     		ldr	r2, .L38+4
 595 0010 D318     		add	r3, r2, r3
 596 0012 198B     		ldrh	r1, [r3, #24]
 597 0014 FFF7FEFF 		bl	set_led
 598              	.LVL41:
 405:animation.c   ****     {
 599              		.loc 1 405 0 discriminator 3
 600 0018 0134     		add	r4, r4, #1
 601              	.LVL42:
 602              	.L34:
 405:animation.c   ****     {
 603              		.loc 1 405 0 is_stmt 0 discriminator 1
 604 001a 062C     		cmp	r4, #6
 605 001c F3DD     		ble	.L35
 408:animation.c   ****     }
 409:animation.c   ****     
 410:animation.c   ****     for (i = half_white; i < NUMBER_OF_WHITE_LEDS; i++)
 606              		.loc 1 410 0 is_stmt 1
 607 001e 0724     		mov	r4, #7
 608              	.LVL43:
 609 0020 09E0     		b	.L36
 610              	.LVL44:
 611              	.L37:
 411:animation.c   ****     {
 412:animation.c   ****         set_led(i, sine_vec[intensity_right_index]);
 612              		.loc 1 412 0 discriminator 3
ARM GAS  C:\Users\TB1014~1\AppData\Local\Temp\ccVniMG7.s 			page 19


 613 0022 E0B2     		uxtb	r0, r4
 614 0024 144B     		ldr	r3, .L38+8
 615 0026 5B78     		ldrb	r3, [r3, #1]
 616 0028 5B00     		lsl	r3, r3, #1
 617 002a 124A     		ldr	r2, .L38+4
 618 002c D318     		add	r3, r2, r3
 619 002e 198B     		ldrh	r1, [r3, #24]
 620 0030 FFF7FEFF 		bl	set_led
 621              	.LVL45:
 410:animation.c   ****     {
 622              		.loc 1 410 0 discriminator 3
 623 0034 0134     		add	r4, r4, #1
 624              	.LVL46:
 625              	.L36:
 410:animation.c   ****     {
 626              		.loc 1 410 0 is_stmt 0 discriminator 1
 627 0036 0E2C     		cmp	r4, #14
 628 0038 F3DD     		ble	.L37
 413:animation.c   ****     }
 414:animation.c   ****     
 415:animation.c   ****     intensity_left_index++;
 629              		.loc 1 415 0 is_stmt 1
 630 003a 0D4A     		ldr	r2, .L38
 631 003c 937B     		ldrb	r3, [r2, #14]
 632 003e 0133     		add	r3, r3, #1
 633 0040 9373     		strb	r3, [r2, #14]
 416:animation.c   ****     intensity_right_index++;
 634              		.loc 1 416 0
 635 0042 0D4A     		ldr	r2, .L38+8
 636 0044 5378     		ldrb	r3, [r2, #1]
 637 0046 0133     		add	r3, r3, #1
 638 0048 5370     		strb	r3, [r2, #1]
 417:animation.c   **** 
 418:animation.c   ****     set_led(E_LED_LEFT_RED   , MAX_INTENSITY);
 639              		.loc 1 418 0
 640 004a 0C4C     		ldr	r4, .L38+12
 641              	.LVL47:
 642 004c 1520     		mov	r0, #21
 643 004e 211C     		mov	r1, r4
 644 0050 FFF7FEFF 		bl	set_led
 645              	.LVL48:
 419:animation.c   ****     set_led(E_LED_LEFT_GREEN , MAX_INTENSITY);
 646              		.loc 1 419 0
 647 0054 1620     		mov	r0, #22
 648 0056 211C     		mov	r1, r4
 649 0058 FFF7FEFF 		bl	set_led
 650              	.LVL49:
 420:animation.c   ****     set_led(E_LED_RIGHT_RED  , MAX_INTENSITY);
 651              		.loc 1 420 0
 652 005c 1220     		mov	r0, #18
 653 005e 211C     		mov	r1, r4
 654 0060 FFF7FEFF 		bl	set_led
 655              	.LVL50:
 421:animation.c   ****     set_led(E_LED_RIGHT_GREEN, MAX_INTENSITY);
 656              		.loc 1 421 0
 657 0064 1320     		mov	r0, #19
 658 0066 211C     		mov	r1, r4
ARM GAS  C:\Users\TB1014~1\AppData\Local\Temp\ccVniMG7.s 			page 20


 659 0068 FFF7FEFF 		bl	set_led
 660              	.LVL51:
 422:animation.c   ****     
 423:animation.c   **** #if USE_128_POINTS_FOR_BREATHING
 424:animation.c   ****     intensity_left_index  %= SINE_VEC_SIZE;
 425:animation.c   ****     intensity_right_index %= SINE_VEC_SIZE;
 426:animation.c   **** #endif // at 256 points, the index value (uint8) will rotate by them self  
 427:animation.c   **** }// animate_intensity
 661              		.loc 1 427 0
 662              		@ sp needed
 663 006c 10BD     		pop	{r4, pc}
 664              	.L39:
 665 006e C046     		.align	2
 666              	.L38:
 667 0070 00000000 		.word	.LANCHOR0
 668 0074 00000000 		.word	.LANCHOR2
 669 0078 00000000 		.word	.LANCHOR1
 670 007c FF0F0000 		.word	4095
 671              		.cfi_endproc
 672              	.LFE47:
 673              		.size	animate_intensity, .-animate_intensity
 674              		.section	.text.animate_red_white_intensity,"ax",%progbits
 675              		.align	2
 676              		.global	animate_red_white_intensity
 677              		.code	16
 678              		.thumb_func
 679              		.type	animate_red_white_intensity, %function
 680              	animate_red_white_intensity:
 681              	.LFB41:
 245:animation.c   ****     static uint8 intensity_white_index = PI_0_INDEX  ;
 682              		.loc 1 245 0
 683              		.cfi_startproc
 684 0000 38B5     		push	{r3, r4, r5, lr}
 685              		.cfi_def_cfa_offset 16
 686              		.cfi_offset 3, -16
 687              		.cfi_offset 4, -12
 688              		.cfi_offset 5, -8
 689              		.cfi_offset 14, -4
 249:animation.c   ****     set_led           (E_LED_LEFT_RED, sine_vec[intensity_color_index  ]);
 690              		.loc 1 249 0
 691 0002 0E4A     		ldr	r2, .L41
 692 0004 D37B     		ldrb	r3, [r2, #15]
 693 0006 591C     		add	r1, r3, #1
 694 0008 D173     		strb	r1, [r2, #15]
 695 000a 0D4C     		ldr	r4, .L41+4
 696 000c 5B00     		lsl	r3, r3, #1
 697 000e E318     		add	r3, r4, r3
 698 0010 188B     		ldrh	r0, [r3, #24]
 699 0012 FFF7FEFF 		bl	set_all_white_leds
 700              	.LVL52:
 250:animation.c   ****     set_led           (E_LED_LEFT_RED, sine_vec[intensity_color_index++]);
 701              		.loc 1 250 0
 702 0016 0B4D     		ldr	r5, .L41+8
 703 0018 AB78     		ldrb	r3, [r5, #2]
 704 001a 5B00     		lsl	r3, r3, #1
 705 001c E318     		add	r3, r4, r3
 706 001e 198B     		ldrh	r1, [r3, #24]
ARM GAS  C:\Users\TB1014~1\AppData\Local\Temp\ccVniMG7.s 			page 21


 707 0020 1520     		mov	r0, #21
 708 0022 FFF7FEFF 		bl	set_led
 709              	.LVL53:
 251:animation.c   ****     
 710              		.loc 1 251 0
 711 0026 AB78     		ldrb	r3, [r5, #2]
 712 0028 5A1C     		add	r2, r3, #1
 713 002a AA70     		strb	r2, [r5, #2]
 714 002c 5B00     		lsl	r3, r3, #1
 715 002e E318     		add	r3, r4, r3
 716 0030 198B     		ldrh	r1, [r3, #24]
 717 0032 1520     		mov	r0, #21
 718 0034 FFF7FEFF 		bl	set_led
 719              	.LVL54:
 258:animation.c   **** 
 720              		.loc 1 258 0
 721              		@ sp needed
 722 0038 38BD     		pop	{r3, r4, r5, pc}
 723              	.L42:
 724 003a C046     		.align	2
 725              	.L41:
 726 003c 00000000 		.word	.LANCHOR0
 727 0040 00000000 		.word	.LANCHOR2
 728 0044 00000000 		.word	.LANCHOR1
 729              		.cfi_endproc
 730              	.LFE41:
 731              		.size	animate_red_white_intensity, .-animate_red_white_intensity
 732              		.section	.text.animate_green_white_intensity,"ax",%progbits
 733              		.align	2
 734              		.global	animate_green_white_intensity
 735              		.code	16
 736              		.thumb_func
 737              		.type	animate_green_white_intensity, %function
 738              	animate_green_white_intensity:
 739              	.LFB42:
 264:animation.c   ****     static uint8 intensity_white_index = PI_0_INDEX  ;
 740              		.loc 1 264 0
 741              		.cfi_startproc
 742 0000 38B5     		push	{r3, r4, r5, lr}
 743              		.cfi_def_cfa_offset 16
 744              		.cfi_offset 3, -16
 745              		.cfi_offset 4, -12
 746              		.cfi_offset 5, -8
 747              		.cfi_offset 14, -4
 268:animation.c   ****     set_led           (E_LED_LEFT_GREEN, sine_vec[intensity_color_index  ]);
 748              		.loc 1 268 0
 749 0002 0E4A     		ldr	r2, .L44
 750 0004 137C     		ldrb	r3, [r2, #16]
 751 0006 591C     		add	r1, r3, #1
 752 0008 1174     		strb	r1, [r2, #16]
 753 000a 0D4C     		ldr	r4, .L44+4
 754 000c 5B00     		lsl	r3, r3, #1
 755 000e E318     		add	r3, r4, r3
 756 0010 188B     		ldrh	r0, [r3, #24]
 757 0012 FFF7FEFF 		bl	set_all_white_leds
 758              	.LVL55:
 269:animation.c   ****     set_led           (E_LED_LEFT_GREEN, sine_vec[intensity_color_index++]);
ARM GAS  C:\Users\TB1014~1\AppData\Local\Temp\ccVniMG7.s 			page 22


 759              		.loc 1 269 0
 760 0016 0B4D     		ldr	r5, .L44+8
 761 0018 EB78     		ldrb	r3, [r5, #3]
 762 001a 5B00     		lsl	r3, r3, #1
 763 001c E318     		add	r3, r4, r3
 764 001e 198B     		ldrh	r1, [r3, #24]
 765 0020 1620     		mov	r0, #22
 766 0022 FFF7FEFF 		bl	set_led
 767              	.LVL56:
 270:animation.c   ****     
 768              		.loc 1 270 0
 769 0026 EB78     		ldrb	r3, [r5, #3]
 770 0028 5A1C     		add	r2, r3, #1
 771 002a EA70     		strb	r2, [r5, #3]
 772 002c 5B00     		lsl	r3, r3, #1
 773 002e E318     		add	r3, r4, r3
 774 0030 198B     		ldrh	r1, [r3, #24]
 775 0032 1620     		mov	r0, #22
 776 0034 FFF7FEFF 		bl	set_led
 777              	.LVL57:
 276:animation.c   **** 
 778              		.loc 1 276 0
 779              		@ sp needed
 780 0038 38BD     		pop	{r3, r4, r5, pc}
 781              	.L45:
 782 003a C046     		.align	2
 783              	.L44:
 784 003c 00000000 		.word	.LANCHOR0
 785 0040 00000000 		.word	.LANCHOR2
 786 0044 00000000 		.word	.LANCHOR1
 787              		.cfi_endproc
 788              	.LFE42:
 789              		.size	animate_green_white_intensity, .-animate_green_white_intensity
 790              		.section	.text.animate_blue_white_intensity,"ax",%progbits
 791              		.align	2
 792              		.global	animate_blue_white_intensity
 793              		.code	16
 794              		.thumb_func
 795              		.type	animate_blue_white_intensity, %function
 796              	animate_blue_white_intensity:
 797              	.LFB43:
 282:animation.c   ****     static uint8 intensity_white_index = PI_0_INDEX  ;
 798              		.loc 1 282 0
 799              		.cfi_startproc
 800 0000 38B5     		push	{r3, r4, r5, lr}
 801              		.cfi_def_cfa_offset 16
 802              		.cfi_offset 3, -16
 803              		.cfi_offset 4, -12
 804              		.cfi_offset 5, -8
 805              		.cfi_offset 14, -4
 286:animation.c   ****     set_led           (E_LED_LEFT_BLUE, sine_vec[intensity_color_index  ]);
 806              		.loc 1 286 0
 807 0002 0E4A     		ldr	r2, .L47
 808 0004 537C     		ldrb	r3, [r2, #17]
 809 0006 591C     		add	r1, r3, #1
 810 0008 5174     		strb	r1, [r2, #17]
 811 000a 0D4C     		ldr	r4, .L47+4
ARM GAS  C:\Users\TB1014~1\AppData\Local\Temp\ccVniMG7.s 			page 23


 812 000c 5B00     		lsl	r3, r3, #1
 813 000e E318     		add	r3, r4, r3
 814 0010 188B     		ldrh	r0, [r3, #24]
 815 0012 FFF7FEFF 		bl	set_all_white_leds
 816              	.LVL58:
 287:animation.c   ****     set_led           (E_LED_LEFT_BLUE, sine_vec[intensity_color_index++]);
 817              		.loc 1 287 0
 818 0016 0B4D     		ldr	r5, .L47+8
 819 0018 2B79     		ldrb	r3, [r5, #4]
 820 001a 5B00     		lsl	r3, r3, #1
 821 001c E318     		add	r3, r4, r3
 822 001e 198B     		ldrh	r1, [r3, #24]
 823 0020 1720     		mov	r0, #23
 824 0022 FFF7FEFF 		bl	set_led
 825              	.LVL59:
 288:animation.c   ****     
 826              		.loc 1 288 0
 827 0026 2B79     		ldrb	r3, [r5, #4]
 828 0028 5A1C     		add	r2, r3, #1
 829 002a 2A71     		strb	r2, [r5, #4]
 830 002c 5B00     		lsl	r3, r3, #1
 831 002e E318     		add	r3, r4, r3
 832 0030 198B     		ldrh	r1, [r3, #24]
 833 0032 1720     		mov	r0, #23
 834 0034 FFF7FEFF 		bl	set_led
 835              	.LVL60:
 294:animation.c   **** 
 836              		.loc 1 294 0
 837              		@ sp needed
 838 0038 38BD     		pop	{r3, r4, r5, pc}
 839              	.L48:
 840 003a C046     		.align	2
 841              	.L47:
 842 003c 00000000 		.word	.LANCHOR0
 843 0040 00000000 		.word	.LANCHOR2
 844 0044 00000000 		.word	.LANCHOR1
 845              		.cfi_endproc
 846              	.LFE43:
 847              		.size	animate_blue_white_intensity, .-animate_blue_white_intensity
 848              		.section	.text.animate_2_leds,"ax",%progbits
 849              		.align	2
 850              		.global	animate_2_leds
 851              		.code	16
 852              		.thumb_func
 853              		.type	animate_2_leds, %function
 854              	animate_2_leds:
 855              	.LFB48:
 428:animation.c   **** 
 429:animation.c   **** //=============================================================================
 430:animation.c   **** //============================================================== animate_2_leds
 431:animation.c   **** //=============================================================================
 432:animation.c   **** void animate_2_leds()
 433:animation.c   **** {
 856              		.loc 1 433 0
 857              		.cfi_startproc
 858 0000 38B5     		push	{r3, r4, r5, lr}
 859              		.cfi_def_cfa_offset 16
ARM GAS  C:\Users\TB1014~1\AppData\Local\Temp\ccVniMG7.s 			page 24


 860              		.cfi_offset 3, -16
 861              		.cfi_offset 4, -12
 862              		.cfi_offset 5, -8
 863              		.cfi_offset 14, -4
 434:animation.c   ****     static uint16               cycle         = 0;
 435:animation.c   ****     static uint16               right_led     = (NUMBER_OF_WHITE_LEDS / 2);
 436:animation.c   ****     static uint16               left_led      = (NUMBER_OF_WHITE_LEDS / 2) - 1;
 437:animation.c   ****     static BOOL                 outward       = TRUE;
 438:animation.c   ****     static t_enum_primary_color primary_color = E_PRIMARY_COLOR_RED;
 439:animation.c   ****           
 440:animation.c   ****     cycle++;
 864              		.loc 1 440 0
 865 0002 324B     		ldr	r3, .L55
 866 0004 588A     		ldrh	r0, [r3, #18]
 867 0006 0130     		add	r0, r0, #1
 868 0008 80B2     		uxth	r0, r0
 869 000a 5882     		strh	r0, [r3, #18]
 441:animation.c   ****     if (cycle % 20)
 870              		.loc 1 441 0
 871 000c 1421     		mov	r1, #20
 872 000e FFF7FEFF 		bl	__aeabi_uidivmod
 873              	.LVL61:
 874 0012 89B2     		uxth	r1, r1
 875 0014 0029     		cmp	r1, #0
 876 0016 58D1     		bne	.L49
 442:animation.c   ****     {
 443:animation.c   ****         return;
 444:animation.c   ****     }
 445:animation.c   ****  
 446:animation.c   ****     set_all_white_leds(0x00);
 877              		.loc 1 446 0
 878 0018 0020     		mov	r0, #0
 879 001a FFF7FEFF 		bl	set_all_white_leds
 880              	.LVL62:
 447:animation.c   **** 
 448:animation.c   ****     set_led(left_led , MAX_INTENSITY);
 881              		.loc 1 448 0
 882 001e 2C4C     		ldr	r4, .L55+4
 883 0020 A079     		ldrb	r0, [r4, #6]
 884 0022 2C4D     		ldr	r5, .L55+8
 885 0024 291C     		mov	r1, r5
 886 0026 FFF7FEFF 		bl	set_led
 887              	.LVL63:
 449:animation.c   ****     set_led(right_led, MAX_INTENSITY);
 888              		.loc 1 449 0
 889 002a 207A     		ldrb	r0, [r4, #8]
 890 002c 291C     		mov	r1, r5
 891 002e FFF7FEFF 		bl	set_led
 892              	.LVL64:
 450:animation.c   ****     
 451:animation.c   ****     if (outward)
 893              		.loc 1 451 0
 894 0032 A37A     		ldrb	r3, [r4, #10]
 895 0034 002B     		cmp	r3, #0
 896 0036 09D0     		beq	.L51
 452:animation.c   ****     {
 453:animation.c   ****         left_led --;
ARM GAS  C:\Users\TB1014~1\AppData\Local\Temp\ccVniMG7.s 			page 25


 897              		.loc 1 453 0
 898 0038 254A     		ldr	r2, .L55+4
 899 003a D388     		ldrh	r3, [r2, #6]
 900 003c 013B     		sub	r3, r3, #1
 901 003e 9BB2     		uxth	r3, r3
 902 0040 D380     		strh	r3, [r2, #6]
 454:animation.c   ****         right_led++;
 903              		.loc 1 454 0
 904 0042 1189     		ldrh	r1, [r2, #8]
 905 0044 0131     		add	r1, r1, #1
 906 0046 1181     		strh	r1, [r2, #8]
 455:animation.c   ****         outward = left_led; // if left_led == 0, we go inward
 907              		.loc 1 455 0
 908 0048 9372     		strb	r3, [r2, #10]
 909 004a 3EE0     		b	.L49
 910              	.L51:
 456:animation.c   ****     }// if we go outward
 457:animation.c   ****     else
 458:animation.c   ****     {
 459:animation.c   ****         left_led ++;
 911              		.loc 1 459 0
 912 004c 204A     		ldr	r2, .L55+4
 913 004e D388     		ldrh	r3, [r2, #6]
 914 0050 0133     		add	r3, r3, #1
 915 0052 D380     		strh	r3, [r2, #6]
 460:animation.c   ****         right_led--;
 916              		.loc 1 460 0
 917 0054 1389     		ldrh	r3, [r2, #8]
 918 0056 013B     		sub	r3, r3, #1
 919 0058 9BB2     		uxth	r3, r3
 920 005a 1381     		strh	r3, [r2, #8]
 461:animation.c   ****         outward = (right_led == (NUMBER_OF_WHITE_LEDS / 2));
 921              		.loc 1 461 0
 922 005c 073B     		sub	r3, r3, #7
 923 005e 5942     		neg	r1, r3
 924 0060 4B41     		adc	r3, r3, r1
 925 0062 DBB2     		uxtb	r3, r3
 926 0064 9372     		strb	r3, [r2, #10]
 462:animation.c   ****         if (outward)
 927              		.loc 1 462 0
 928 0066 002B     		cmp	r3, #0
 929 0068 2FD0     		beq	.L49
 463:animation.c   ****         {
 464:animation.c   ****             primary_color++;
 930              		.loc 1 464 0
 931 006a 184C     		ldr	r4, .L55
 932 006c 207D     		ldrb	r0, [r4, #20]
 933 006e 0130     		add	r0, r0, #1
 934 0070 C0B2     		uxtb	r0, r0
 465:animation.c   ****             primary_color %= E_PRIMARY_COLOR_NUMBER;
 935              		.loc 1 465 0
 936 0072 0321     		mov	r1, #3
 937 0074 FFF7FEFF 		bl	__aeabi_uidivmod
 938              	.LVL65:
 939 0078 2175     		strb	r1, [r4, #20]
 466:animation.c   ****             set_all_colored_leds(0x00);
 940              		.loc 1 466 0
ARM GAS  C:\Users\TB1014~1\AppData\Local\Temp\ccVniMG7.s 			page 26


 941 007a 0020     		mov	r0, #0
 942 007c FFF7FEFF 		bl	set_all_colored_leds
 943              	.LVL66:
 467:animation.c   ****             switch (primary_color)
 944              		.loc 1 467 0
 945 0080 237D     		ldrb	r3, [r4, #20]
 946 0082 012B     		cmp	r3, #1
 947 0084 0ED0     		beq	.L52
 948 0086 002B     		cmp	r3, #0
 949 0088 02D0     		beq	.L53
 950 008a 022B     		cmp	r3, #2
 951 008c 14D0     		beq	.L54
 952 008e 1CE0     		b	.L49
 953              	.L53:
 468:animation.c   ****             {
 469:animation.c   ****                 case E_PRIMARY_COLOR_RED  : set_led(E_LED_LEFT_RED   , MAX_INTENSITY);
 954              		.loc 1 469 0
 955 0090 104C     		ldr	r4, .L55+8
 956 0092 1520     		mov	r0, #21
 957 0094 211C     		mov	r1, r4
 958 0096 FFF7FEFF 		bl	set_led
 959              	.LVL67:
 470:animation.c   ****                                             set_led(E_LED_RIGHT_RED  , MAX_INTENSITY);
 960              		.loc 1 470 0
 961 009a 1220     		mov	r0, #18
 962 009c 211C     		mov	r1, r4
 963 009e FFF7FEFF 		bl	set_led
 964              	.LVL68:
 471:animation.c   ****                                             break;
 965              		.loc 1 471 0
 966 00a2 12E0     		b	.L49
 967              	.L52:
 472:animation.c   ****                 case E_PRIMARY_COLOR_GREEN: set_led(E_LED_LEFT_GREEN , MAX_INTENSITY);
 968              		.loc 1 472 0
 969 00a4 0B4C     		ldr	r4, .L55+8
 970 00a6 1620     		mov	r0, #22
 971 00a8 211C     		mov	r1, r4
 972 00aa FFF7FEFF 		bl	set_led
 973              	.LVL69:
 473:animation.c   ****                                             set_led(E_LED_RIGHT_GREEN, MAX_INTENSITY);
 974              		.loc 1 473 0
 975 00ae 1320     		mov	r0, #19
 976 00b0 211C     		mov	r1, r4
 977 00b2 FFF7FEFF 		bl	set_led
 978              	.LVL70:
 474:animation.c   ****                                             break; 
 979              		.loc 1 474 0
 980 00b6 08E0     		b	.L49
 981              	.L54:
 475:animation.c   ****                 case E_PRIMARY_COLOR_BLUE : set_led(E_LED_LEFT_BLUE  , MAX_INTENSITY);
 982              		.loc 1 475 0
 983 00b8 064C     		ldr	r4, .L55+8
 984 00ba 1720     		mov	r0, #23
 985 00bc 211C     		mov	r1, r4
 986 00be FFF7FEFF 		bl	set_led
 987              	.LVL71:
 476:animation.c   ****                                             set_led(E_LED_RIGHT_BLUE , MAX_INTENSITY);
ARM GAS  C:\Users\TB1014~1\AppData\Local\Temp\ccVniMG7.s 			page 27


 988              		.loc 1 476 0
 989 00c2 1420     		mov	r0, #20
 990 00c4 211C     		mov	r1, r4
 991 00c6 FFF7FEFF 		bl	set_led
 992              	.LVL72:
 993              	.L49:
 477:animation.c   ****                                             break;
 478:animation.c   ****                 default:                    break;
 479:animation.c   ****             }
 480:animation.c   ****         }
 481:animation.c   ****     }// we go inward
 482:animation.c   **** }// animate_2_leds
 994              		.loc 1 482 0
 995              		@ sp needed
 996 00ca 38BD     		pop	{r3, r4, r5, pc}
 997              	.L56:
 998              		.align	2
 999              	.L55:
 1000 00cc 00000000 		.word	.LANCHOR0
 1001 00d0 00000000 		.word	.LANCHOR1
 1002 00d4 FF0F0000 		.word	4095
 1003              		.cfi_endproc
 1004              	.LFE48:
 1005              		.size	animate_2_leds, .-animate_2_leds
 1006              		.section	.text.animate_fix_led_14,"ax",%progbits
 1007              		.align	2
 1008              		.global	animate_fix_led_14
 1009              		.code	16
 1010              		.thumb_func
 1011              		.type	animate_fix_led_14, %function
 1012              	animate_fix_led_14:
 1013              	.LFB37:
 186:animation.c   ****     set_led(14, MAX_INTENSITY);
 1014              		.loc 1 186 0
 1015              		.cfi_startproc
 1016 0000 08B5     		push	{r3, lr}
 1017              		.cfi_def_cfa_offset 8
 1018              		.cfi_offset 3, -8
 1019              		.cfi_offset 14, -4
 187:animation.c   **** }// animate_fix_led_0
 1020              		.loc 1 187 0
 1021 0002 0E20     		mov	r0, #14
 1022 0004 0149     		ldr	r1, .L58
 1023 0006 FFF7FEFF 		bl	set_led
 1024              	.LVL73:
 188:animation.c   **** 
 1025              		.loc 1 188 0
 1026              		@ sp needed
 1027 000a 08BD     		pop	{r3, pc}
 1028              	.L59:
 1029              		.align	2
 1030              	.L58:
 1031 000c FF0F0000 		.word	4095
 1032              		.cfi_endproc
 1033              	.LFE37:
 1034              		.size	animate_fix_led_14, .-animate_fix_led_14
 1035              		.section	.text.animate_color_intensity,"ax",%progbits
ARM GAS  C:\Users\TB1014~1\AppData\Local\Temp\ccVniMG7.s 			page 28


 1036              		.align	2
 1037              		.global	animate_color_intensity
 1038              		.code	16
 1039              		.thumb_func
 1040              		.type	animate_color_intensity, %function
 1041              	animate_color_intensity:
 1042              	.LFB44:
 300:animation.c   ****     static uint16 intensity    = 0   ;
 1043              		.loc 1 300 0
 1044              		.cfi_startproc
 1045              	.LVL74:
 1046 0000 10B5     		push	{r4, lr}
 1047              		.cfi_def_cfa_offset 8
 1048              		.cfi_offset 4, -8
 1049              		.cfi_offset 14, -4
 1050              	.LVL75:
 305:animation.c   ****     {
 1051              		.loc 1 305 0
 1052 0002 0128     		cmp	r0, #1
 1053 0004 0ED0     		beq	.L62
 1054 0006 0028     		cmp	r0, #0
 1055 0008 02D0     		beq	.L63
 1056 000a 0228     		cmp	r0, #2
 1057 000c 14D0     		beq	.L64
 1058 000e 1CE0     		b	.L61
 1059              	.L63:
 307:animation.c   ****                                     set_led(E_LED_RIGHT_RED  , intensity);
 1060              		.loc 1 307 0
 1061 0010 1B4C     		ldr	r4, .L67
 1062 0012 E18A     		ldrh	r1, [r4, #22]
 1063 0014 1520     		mov	r0, #21
 1064              	.LVL76:
 1065 0016 FFF7FEFF 		bl	set_led
 1066              	.LVL77:
 308:animation.c   ****                                     break;
 1067              		.loc 1 308 0
 1068 001a E18A     		ldrh	r1, [r4, #22]
 1069 001c 1220     		mov	r0, #18
 1070 001e FFF7FEFF 		bl	set_led
 1071              	.LVL78:
 309:animation.c   ****         case E_PRIMARY_COLOR_GREEN: set_led(E_LED_LEFT_GREEN , intensity);
 1072              		.loc 1 309 0
 1073 0022 12E0     		b	.L61
 1074              	.LVL79:
 1075              	.L62:
 310:animation.c   ****                                     set_led(E_LED_RIGHT_GREEN, intensity);
 1076              		.loc 1 310 0
 1077 0024 164C     		ldr	r4, .L67
 1078 0026 E18A     		ldrh	r1, [r4, #22]
 1079 0028 1620     		mov	r0, #22
 1080              	.LVL80:
 1081 002a FFF7FEFF 		bl	set_led
 1082              	.LVL81:
 311:animation.c   ****                                     break;
 1083              		.loc 1 311 0
 1084 002e E18A     		ldrh	r1, [r4, #22]
 1085 0030 1320     		mov	r0, #19
ARM GAS  C:\Users\TB1014~1\AppData\Local\Temp\ccVniMG7.s 			page 29


 1086 0032 FFF7FEFF 		bl	set_led
 1087              	.LVL82:
 312:animation.c   ****         case E_PRIMARY_COLOR_BLUE : set_led(E_LED_LEFT_BLUE  , intensity);
 1088              		.loc 1 312 0
 1089 0036 08E0     		b	.L61
 1090              	.LVL83:
 1091              	.L64:
 313:animation.c   ****                                     set_led(E_LED_RIGHT_BLUE , intensity);
 1092              		.loc 1 313 0
 1093 0038 114C     		ldr	r4, .L67
 1094 003a E18A     		ldrh	r1, [r4, #22]
 1095 003c 1720     		mov	r0, #23
 1096              	.LVL84:
 1097 003e FFF7FEFF 		bl	set_led
 1098              	.LVL85:
 314:animation.c   ****                                     break;
 1099              		.loc 1 314 0
 1100 0042 E18A     		ldrh	r1, [r4, #22]
 1101 0044 1420     		mov	r0, #20
 1102 0046 FFF7FEFF 		bl	set_led
 1103              	.LVL86:
 1104              	.L61:
 319:animation.c   ****     {
 1105              		.loc 1 319 0
 1106 004a 0E4B     		ldr	r3, .L67+4
 1107 004c DB7A     		ldrb	r3, [r3, #11]
 1108 004e 002B     		cmp	r3, #0
 1109 0050 0BD0     		beq	.L65
 321:animation.c   ****         if (intensity >= MAX_COLOR)
 1110              		.loc 1 321 0
 1111 0052 0B4A     		ldr	r2, .L67
 1112 0054 D38A     		ldrh	r3, [r2, #22]
 1113 0056 0133     		add	r3, r3, #1
 1114 0058 9BB2     		uxth	r3, r3
 1115 005a D382     		strh	r3, [r2, #22]
 322:animation.c   ****         {
 1116              		.loc 1 322 0
 1117 005c 0A4A     		ldr	r2, .L67+8
 1118 005e 9342     		cmp	r3, r2
 1119 0060 0DD9     		bls	.L60
 324:animation.c   ****         }
 1120              		.loc 1 324 0
 1121 0062 0022     		mov	r2, #0
 1122 0064 074B     		ldr	r3, .L67+4
 1123 0066 DA72     		strb	r2, [r3, #11]
 1124 0068 09E0     		b	.L60
 1125              	.L65:
 329:animation.c   ****         if (intensity == 0)
 1126              		.loc 1 329 0
 1127 006a 054A     		ldr	r2, .L67
 1128 006c D38A     		ldrh	r3, [r2, #22]
 1129 006e 013B     		sub	r3, r3, #1
 1130 0070 9BB2     		uxth	r3, r3
 1131 0072 D382     		strh	r3, [r2, #22]
 330:animation.c   ****         {
 1132              		.loc 1 330 0
 1133 0074 002B     		cmp	r3, #0
ARM GAS  C:\Users\TB1014~1\AppData\Local\Temp\ccVniMG7.s 			page 30


 1134 0076 02D1     		bne	.L60
 332:animation.c   ****         }
 1135              		.loc 1 332 0
 1136 0078 0122     		mov	r2, #1
 1137 007a 024B     		ldr	r3, .L67+4
 1138 007c DA72     		strb	r2, [r3, #11]
 1139              	.L60:
 335:animation.c   **** 
 1140              		.loc 1 335 0
 1141              		@ sp needed
 1142 007e 10BD     		pop	{r4, pc}
 1143              	.L68:
 1144              		.align	2
 1145              	.L67:
 1146 0080 00000000 		.word	.LANCHOR0
 1147 0084 00000000 		.word	.LANCHOR1
 1148 0088 FE0F0000 		.word	4094
 1149              		.cfi_endproc
 1150              	.LFE44:
 1151              		.size	animate_color_intensity, .-animate_color_intensity
 1152              		.section	.text.animate_button_smooth,"ax",%progbits
 1153              		.align	2
 1154              		.global	animate_button_smooth
 1155              		.code	16
 1156              		.thumb_func
 1157              		.type	animate_button_smooth, %function
 1158              	animate_button_smooth:
 1159              	.LFB49:
 483:animation.c   **** 
 484:animation.c   **** void animate_button_smooth(uint16 breather_skip_cycle)
 485:animation.c   **** {
 1160              		.loc 1 485 0
 1161              		.cfi_startproc
 1162              	.LVL87:
 1163 0000 38B5     		push	{r3, r4, r5, lr}
 1164              		.cfi_def_cfa_offset 16
 1165              		.cfi_offset 3, -16
 1166              		.cfi_offset 4, -12
 1167              		.cfi_offset 5, -8
 1168              		.cfi_offset 14, -4
 1169 0002 011C     		mov	r1, r0
 1170              	.LVL88:
 486:animation.c   ****     static uint16 led_up      = TRUE;
 487:animation.c   ****     static uint16 left_led    = 1  ;
 488:animation.c   ****     static uint16 right_led   = 2   ;
 489:animation.c   ****     static uint8  left_index  = PI_0_INDEX  ;
 490:animation.c   ****     static uint8  right_index = PI_180_INDEX;
 491:animation.c   ****     static uint16 cycle       = 0;
 492:animation.c   ****            uint16 tmp         = 0;
 493:animation.c   ****     
 494:animation.c   ****     cycle++;
 1171              		.loc 1 494 0
 1172 0004 284B     		ldr	r3, .L76
 1173 0006 188B     		ldrh	r0, [r3, #24]
 1174              	.LVL89:
 1175 0008 0130     		add	r0, r0, #1
 1176 000a 80B2     		uxth	r0, r0
ARM GAS  C:\Users\TB1014~1\AppData\Local\Temp\ccVniMG7.s 			page 31


 1177 000c 1883     		strh	r0, [r3, #24]
 495:animation.c   ****     
 496:animation.c   ****  #if 1   
 497:animation.c   ****     if ((breather_skip_cycle) && (cycle % breather_skip_cycle))
 1178              		.loc 1 497 0
 1179 000e 0029     		cmp	r1, #0
 1180 0010 04D0     		beq	.L70
 1181              		.loc 1 497 0 is_stmt 0 discriminator 1
 1182 0012 FFF7FEFF 		bl	__aeabi_uidivmod
 1183              	.LVL90:
 1184 0016 89B2     		uxth	r1, r1
 1185 0018 0029     		cmp	r1, #0
 1186 001a 43D1     		bne	.L69
 1187              	.L70:
 498:animation.c   ****     {
 499:animation.c   ****         return;    
 500:animation.c   ****     }
 501:animation.c   ****  #endif   
 502:animation.c   ****     
 503:animation.c   **** #if USE_128_POINTS_FOR_BREATHING
 504:animation.c   ****     left_index  %= SINE_VEC_SIZE;
 505:animation.c   ****     right_index %= SINE_VEC_SIZE;
 506:animation.c   **** #endif // at 256 points, the index value (uint8) will rotate by them self
 507:animation.c   **** 
 508:animation.c   **** #if 1
 509:animation.c   ****     if (led_up)
 1188              		.loc 1 509 0 is_stmt 1
 1189 001c 234B     		ldr	r3, .L76+4
 1190 001e 9B89     		ldrh	r3, [r3, #12]
 1191 0020 002B     		cmp	r3, #0
 1192 0022 17D0     		beq	.L72
 510:animation.c   ****     {
 511:animation.c   ****         if (left_index == PI_270_INDEX) // left to right breathing cycle completed
 1193              		.loc 1 511 0
 1194 0024 204B     		ldr	r3, .L76
 1195 0026 9B7E     		ldrb	r3, [r3, #26]
 1196 0028 C02B     		cmp	r3, #192
 1197 002a 29D1     		bne	.L73
 512:animation.c   ****         {
 513:animation.c   ****             if (right_led >= NUMBER_OF_WHITE_LEDS - 1)
 1198              		.loc 1 513 0
 1199 002c 1F4A     		ldr	r2, .L76+4
 1200 002e D289     		ldrh	r2, [r2, #14]
 1201 0030 0D2A     		cmp	r2, #13
 1202 0032 03D9     		bls	.L74
 514:animation.c   ****             {
 515:animation.c   ****                 led_up = FALSE; 
 1203              		.loc 1 515 0
 1204 0034 0022     		mov	r2, #0
 1205 0036 1D4B     		ldr	r3, .L76+4
 1206 0038 9A81     		strh	r2, [r3, #12]
 1207 003a 21E0     		b	.L73
 1208              	.L74:
 516:animation.c   ****             }
 517:animation.c   ****             else
 518:animation.c   ****             {
 519:animation.c   ****                 left_led++;
ARM GAS  C:\Users\TB1014~1\AppData\Local\Temp\ccVniMG7.s 			page 32


 1209              		.loc 1 519 0
 1210 003c 1B49     		ldr	r1, .L76+4
 1211 003e 0A8A     		ldrh	r2, [r1, #16]
 1212 0040 0132     		add	r2, r2, #1
 1213 0042 92B2     		uxth	r2, r2
 1214 0044 0A82     		strh	r2, [r1, #16]
 520:animation.c   ****                 right_led   = left_led + 1;
 1215              		.loc 1 520 0
 1216 0046 0132     		add	r2, r2, #1
 1217 0048 CA81     		strh	r2, [r1, #14]
 1218              	.LVL91:
 521:animation.c   ****                 tmp         = left_index;
 522:animation.c   ****                 left_index  = right_index;
 1219              		.loc 1 522 0
 1220 004a 887C     		ldrb	r0, [r1, #18]
 1221 004c 164A     		ldr	r2, .L76
 1222 004e 9076     		strb	r0, [r2, #26]
 523:animation.c   ****                 right_index = tmp;
 1223              		.loc 1 523 0
 1224 0050 8B74     		strb	r3, [r1, #18]
 1225 0052 15E0     		b	.L73
 1226              	.LVL92:
 1227              	.L72:
 524:animation.c   ****             }
 525:animation.c   ****         }// If the left led is at 0 intensity
 526:animation.c   ****     }// led up, left to right
 527:animation.c   ****     else
 528:animation.c   ****     {
 529:animation.c   ****         if (right_index == PI_270_INDEX) // right to left breathing cycle completed
 1228              		.loc 1 529 0
 1229 0054 154B     		ldr	r3, .L76+4
 1230 0056 9B7C     		ldrb	r3, [r3, #18]
 1231 0058 C02B     		cmp	r3, #192
 1232 005a 11D1     		bne	.L73
 530:animation.c   ****         {
 531:animation.c   ****             if (left_led == 1)
 1233              		.loc 1 531 0
 1234 005c 134A     		ldr	r2, .L76+4
 1235 005e 128A     		ldrh	r2, [r2, #16]
 1236 0060 012A     		cmp	r2, #1
 1237 0062 02D1     		bne	.L75
 532:animation.c   ****             {
 533:animation.c   ****                 led_up = TRUE;
 1238              		.loc 1 533 0
 1239 0064 114B     		ldr	r3, .L76+4
 1240 0066 9A81     		strh	r2, [r3, #12]
 1241 0068 0AE0     		b	.L73
 1242              	.L75:
 534:animation.c   ****             }
 535:animation.c   ****             else
 536:animation.c   ****             {
 537:animation.c   ****                 right_led--;    
 1243              		.loc 1 537 0
 1244 006a 1049     		ldr	r1, .L76+4
 1245 006c CA89     		ldrh	r2, [r1, #14]
 1246 006e 013A     		sub	r2, r2, #1
 1247 0070 92B2     		uxth	r2, r2
ARM GAS  C:\Users\TB1014~1\AppData\Local\Temp\ccVniMG7.s 			page 33


 1248 0072 CA81     		strh	r2, [r1, #14]
 538:animation.c   ****                 left_led    = right_led - 1;
 1249              		.loc 1 538 0
 1250 0074 013A     		sub	r2, r2, #1
 1251 0076 0A82     		strh	r2, [r1, #16]
 539:animation.c   ****                 tmp         = left_index;
 1252              		.loc 1 539 0
 1253 0078 0B4A     		ldr	r2, .L76
 1254 007a 907E     		ldrb	r0, [r2, #26]
 1255              	.LVL93:
 540:animation.c   ****                 left_index  = right_index;
 1256              		.loc 1 540 0
 1257 007c 9376     		strb	r3, [r2, #26]
 541:animation.c   ****                 right_index = tmp;
 1258              		.loc 1 541 0
 1259 007e 8874     		strb	r0, [r1, #18]
 1260              	.LVL94:
 1261              	.L73:
 542:animation.c   ****             }  
 543:animation.c   ****         }// If the right led is at 0 intensity
 544:animation.c   ****     }// else, led down, right to left
 545:animation.c   **** #endif
 546:animation.c   **** 
 547:animation.c   ****     set_led_pair(left_led, sine_vec[left_index++], sine_vec[right_index++]); 
 1262              		.loc 1 547 0
 1263 0080 0A4C     		ldr	r4, .L76+4
 1264 0082 207C     		ldrb	r0, [r4, #16]
 1265 0084 084B     		ldr	r3, .L76
 1266 0086 9A7E     		ldrb	r2, [r3, #26]
 1267 0088 511C     		add	r1, r2, #1
 1268 008a 9976     		strb	r1, [r3, #26]
 1269 008c 084D     		ldr	r5, .L76+8
 1270 008e 5200     		lsl	r2, r2, #1
 1271 0090 AA18     		add	r2, r5, r2
 1272 0092 118B     		ldrh	r1, [r2, #24]
 1273 0094 A37C     		ldrb	r3, [r4, #18]
 1274 0096 5A1C     		add	r2, r3, #1
 1275 0098 A274     		strb	r2, [r4, #18]
 1276 009a 5B00     		lsl	r3, r3, #1
 1277 009c EB18     		add	r3, r5, r3
 1278 009e 1A8B     		ldrh	r2, [r3, #24]
 1279 00a0 FFF7FEFF 		bl	set_led_pair
 1280              	.LVL95:
 1281              	.L69:
 548:animation.c   **** }// animate_button_smooth
 1282              		.loc 1 548 0
 1283              		@ sp needed
 1284 00a4 38BD     		pop	{r3, r4, r5, pc}
 1285              	.L77:
 1286 00a6 C046     		.align	2
 1287              	.L76:
 1288 00a8 00000000 		.word	.LANCHOR0
 1289 00ac 00000000 		.word	.LANCHOR1
 1290 00b0 00000000 		.word	.LANCHOR2
 1291              		.cfi_endproc
 1292              	.LFE49:
 1293              		.size	animate_button_smooth, .-animate_button_smooth
ARM GAS  C:\Users\TB1014~1\AppData\Local\Temp\ccVniMG7.s 			page 34


 1294              		.section	.text.animate_button_smooth_slow,"ax",%progbits
 1295              		.align	2
 1296              		.global	animate_button_smooth_slow
 1297              		.code	16
 1298              		.thumb_func
 1299              		.type	animate_button_smooth_slow, %function
 1300              	animate_button_smooth_slow:
 1301              	.LFB50:
 549:animation.c   **** 
 550:animation.c   **** void animate_button_smooth_slow(void)
 551:animation.c   **** {
 1302              		.loc 1 551 0
 1303              		.cfi_startproc
 1304 0000 08B5     		push	{r3, lr}
 1305              		.cfi_def_cfa_offset 8
 1306              		.cfi_offset 3, -8
 1307              		.cfi_offset 14, -4
 552:animation.c   ****     animate_button_smooth(/*0x400*/ 0x04);
 1308              		.loc 1 552 0
 1309 0002 0420     		mov	r0, #4
 1310 0004 FFF7FEFF 		bl	animate_button_smooth
 1311              	.LVL96:
 553:animation.c   ****     
 554:animation.c   **** }// animate_button_smooth_slow
 1312              		.loc 1 554 0
 1313              		@ sp needed
 1314 0008 08BD     		pop	{r3, pc}
 1315              		.cfi_endproc
 1316              	.LFE50:
 1317              		.size	animate_button_smooth_slow, .-animate_button_smooth_slow
 1318 000a C046     		.section	.text.animate_button_smooth_fast,"ax",%progbits
 1319              		.align	2
 1320              		.global	animate_button_smooth_fast
 1321              		.code	16
 1322              		.thumb_func
 1323              		.type	animate_button_smooth_fast, %function
 1324              	animate_button_smooth_fast:
 1325              	.LFB51:
 555:animation.c   **** 
 556:animation.c   **** void animate_button_smooth_fast(void)
 557:animation.c   **** {
 1326              		.loc 1 557 0
 1327              		.cfi_startproc
 1328 0000 08B5     		push	{r3, lr}
 1329              		.cfi_def_cfa_offset 8
 1330              		.cfi_offset 3, -8
 1331              		.cfi_offset 14, -4
 558:animation.c   ****      animate_button_smooth(/*0x10*/ 0x00);
 1332              		.loc 1 558 0
 1333 0002 0020     		mov	r0, #0
 1334 0004 FFF7FEFF 		bl	animate_button_smooth
 1335              	.LVL97:
 559:animation.c   **** }// animate_button_smooth_fast
 1336              		.loc 1 559 0
 1337              		@ sp needed
 1338 0008 08BD     		pop	{r3, pc}
 1339              		.cfi_endproc
ARM GAS  C:\Users\TB1014~1\AppData\Local\Temp\ccVniMG7.s 			page 35


 1340              	.LFE51:
 1341              		.size	animate_button_smooth_fast, .-animate_button_smooth_fast
 1342 000a C046     		.section	.text.get_animation,"ax",%progbits
 1343              		.align	2
 1344              		.global	get_animation
 1345              		.code	16
 1346              		.thumb_func
 1347              		.type	get_animation, %function
 1348              	get_animation:
 1349              	.LFB52:
 560:animation.c   **** 
 561:animation.c   **** //=============================================================================
 562:animation.c   **** //=============================================================== get_animation
 563:animation.c   **** //=============================================================================
 564:animation.c   **** void get_animation (t_enum_animation anim_id, t_struct_animation* p_animation)
 565:animation.c   **** {
 1350              		.loc 1 565 0
 1351              		.cfi_startproc
 1352              	.LVL98:
 1353 0000 70B5     		push	{r4, r5, r6, lr}
 1354              		.cfi_def_cfa_offset 16
 1355              		.cfi_offset 4, -16
 1356              		.cfi_offset 5, -12
 1357              		.cfi_offset 6, -8
 1358              		.cfi_offset 14, -4
 566:animation.c   ****     p_animation->id          = vec_call_back_anim[anim_id].id;
 1359              		.loc 1 566 0
 1360 0002 0A4A     		ldr	r2, .L81
 1361 0004 4400     		lsl	r4, r0, #1
 1362 0006 2318     		add	r3, r4, r0
 1363 0008 9B00     		lsl	r3, r3, #2
 1364 000a D318     		add	r3, r2, r3
 1365 000c 1D1C     		mov	r5, r3
 1366 000e 1E7D     		ldrb	r6, [r3, #20]
 1367 0010 0E70     		strb	r6, [r1]
 567:animation.c   ****     p_animation->high_speed  = vec_call_back_anim[anim_id].high_speed;
 1368              		.loc 1 567 0
 1369 0012 5E7D     		ldrb	r6, [r3, #21]
 566:animation.c   ****     p_animation->id          = vec_call_back_anim[anim_id].id;
 1370              		.loc 1 566 0
 1371 0014 1435     		add	r5, r5, #20
 1372              		.loc 1 567 0
 1373 0016 4E70     		strb	r6, [r1, #1]
 568:animation.c   ****     p_animation->started     = vec_call_back_anim[anim_id].started;
 1374              		.loc 1 568 0
 1375 0018 AD78     		ldrb	r5, [r5, #2]
 1376 001a 8D70     		strb	r5, [r1, #2]
 569:animation.c   ****     p_animation->description = vec_call_back_anim[anim_id].description;
 1377              		.loc 1 569 0
 1378 001c DB69     		ldr	r3, [r3, #28]
 1379 001e 8B60     		str	r3, [r1, #8]
 570:animation.c   ****     p_animation->callback    = vec_call_back_anim[anim_id].callback;
 1380              		.loc 1 570 0
 1381 0020 2018     		add	r0, r4, r0
 1382              	.LVL99:
 1383 0022 8000     		lsl	r0, r0, #2
 1384 0024 1018     		add	r0, r2, r0
ARM GAS  C:\Users\TB1014~1\AppData\Local\Temp\ccVniMG7.s 			page 36


 1385 0026 8369     		ldr	r3, [r0, #24]
 1386 0028 4B60     		str	r3, [r1, #4]
 571:animation.c   **** }// get_animation
 1387              		.loc 1 571 0
 1388              		@ sp needed
 1389 002a 70BD     		pop	{r4, r5, r6, pc}
 1390              	.L82:
 1391              		.align	2
 1392              	.L81:
 1393 002c 00000000 		.word	.LANCHOR1
 1394              		.cfi_endproc
 1395              	.LFE52:
 1396              		.size	get_animation, .-get_animation
 1397              		.section	.text.get_is_auto_anim_rotation_enable,"ax",%progbits
 1398              		.align	2
 1399              		.global	get_is_auto_anim_rotation_enable
 1400              		.code	16
 1401              		.thumb_func
 1402              		.type	get_is_auto_anim_rotation_enable, %function
 1403              	get_is_auto_anim_rotation_enable:
 1404              	.LFB53:
 572:animation.c   **** 
 573:animation.c   **** //=============================================================================
 574:animation.c   **** //============================================ get_is_auto_anim_rotation_enable
 575:animation.c   **** //=============================================================================
 576:animation.c   **** BOOL get_is_auto_anim_rotation_enable()
 577:animation.c   **** {
 1405              		.loc 1 577 0
 1406              		.cfi_startproc
 578:animation.c   ****     return is_auto_anim_rotation_enable;
 1407              		.loc 1 578 0
 1408 0000 3C23     		mov	r3, #60
 1409 0002 014A     		ldr	r2, .L84
 1410 0004 D05C     		ldrb	r0, [r2, r3]
 579:animation.c   **** }// get_is_auto_anim_rotation_enable
 1411              		.loc 1 579 0
 1412              		@ sp needed
 1413 0006 7047     		bx	lr
 1414              	.L85:
 1415              		.align	2
 1416              	.L84:
 1417 0008 80000000 		.word	.LANCHOR3
 1418              		.cfi_endproc
 1419              	.LFE53:
 1420              		.size	get_is_auto_anim_rotation_enable, .-get_is_auto_anim_rotation_enable
 1421              		.section	.text.set_is_auto_anim_rotation_enable,"ax",%progbits
 1422              		.align	2
 1423              		.global	set_is_auto_anim_rotation_enable
 1424              		.code	16
 1425              		.thumb_func
 1426              		.type	set_is_auto_anim_rotation_enable, %function
 1427              	set_is_auto_anim_rotation_enable:
 1428              	.LFB54:
 580:animation.c   **** 
 581:animation.c   **** //=============================================================================
 582:animation.c   **** //============================================ set_is_auto_anim_rotation_enable
 583:animation.c   **** //=============================================================================
ARM GAS  C:\Users\TB1014~1\AppData\Local\Temp\ccVniMG7.s 			page 37


 584:animation.c   **** void set_is_auto_anim_rotation_enable(BOOL the_is_auto_anim_rotation_enable)
 585:animation.c   **** {
 1429              		.loc 1 585 0
 1430              		.cfi_startproc
 1431              	.LVL100:
 586:animation.c   ****     is_auto_anim_rotation_enable = the_is_auto_anim_rotation_enable;
 1432              		.loc 1 586 0
 1433 0000 3C23     		mov	r3, #60
 1434 0002 014A     		ldr	r2, .L87
 1435 0004 D054     		strb	r0, [r2, r3]
 587:animation.c   **** }// set_is_auto_anim_rotation_enable
 1436              		.loc 1 587 0
 1437              		@ sp needed
 1438 0006 7047     		bx	lr
 1439              	.L88:
 1440              		.align	2
 1441              	.L87:
 1442 0008 80000000 		.word	.LANCHOR3
 1443              		.cfi_endproc
 1444              	.LFE54:
 1445              		.size	set_is_auto_anim_rotation_enable, .-set_is_auto_anim_rotation_enable
 1446              		.section	.text.get_is_anim_on_button_up_enable,"ax",%progbits
 1447              		.align	2
 1448              		.global	get_is_anim_on_button_up_enable
 1449              		.code	16
 1450              		.thumb_func
 1451              		.type	get_is_anim_on_button_up_enable, %function
 1452              	get_is_anim_on_button_up_enable:
 1453              	.LFB55:
 588:animation.c   **** 
 589:animation.c   **** //=============================================================================
 590:animation.c   **** //============================================= get_is_anim_on_button_up_enable
 591:animation.c   **** //=============================================================================
 592:animation.c   **** BOOL get_is_anim_on_button_up_enable()
 593:animation.c   **** {
 1454              		.loc 1 593 0
 1455              		.cfi_startproc
 594:animation.c   ****     return is_anim_on_button_up_enable;
 1456              		.loc 1 594 0
 1457 0000 3D23     		mov	r3, #61
 1458 0002 014A     		ldr	r2, .L90
 1459 0004 D05C     		ldrb	r0, [r2, r3]
 595:animation.c   **** }// get_is_anim_on_button_up_enable
 1460              		.loc 1 595 0
 1461              		@ sp needed
 1462 0006 7047     		bx	lr
 1463              	.L91:
 1464              		.align	2
 1465              	.L90:
 1466 0008 80000000 		.word	.LANCHOR3
 1467              		.cfi_endproc
 1468              	.LFE55:
 1469              		.size	get_is_anim_on_button_up_enable, .-get_is_anim_on_button_up_enable
 1470              		.section	.text.set_is_anim_on_button_up_enable,"ax",%progbits
 1471              		.align	2
 1472              		.global	set_is_anim_on_button_up_enable
 1473              		.code	16
ARM GAS  C:\Users\TB1014~1\AppData\Local\Temp\ccVniMG7.s 			page 38


 1474              		.thumb_func
 1475              		.type	set_is_anim_on_button_up_enable, %function
 1476              	set_is_anim_on_button_up_enable:
 1477              	.LFB56:
 596:animation.c   **** 
 597:animation.c   **** //=============================================================================
 598:animation.c   **** //============================================= set_is_anim_on_button_up_enable
 599:animation.c   **** //=============================================================================
 600:animation.c   **** void set_is_anim_on_button_up_enable(BOOL the_is_anim_on_button_up_enable)
 601:animation.c   **** {
 1478              		.loc 1 601 0
 1479              		.cfi_startproc
 1480              	.LVL101:
 1481 0000 10B5     		push	{r4, lr}
 1482              		.cfi_def_cfa_offset 8
 1483              		.cfi_offset 4, -8
 1484              		.cfi_offset 14, -4
 1485 0002 041C     		mov	r4, r0
 602:animation.c   ****     if (current_callback_anim < ANIM_UNKNOWN)
 1486              		.loc 1 602 0
 1487 0004 0B4B     		ldr	r3, .L96
 1488 0006 D87E     		ldrb	r0, [r3, #27]
 1489              	.LVL102:
 1490 0008 0D28     		cmp	r0, #13
 1491 000a 0ED8     		bhi	.L93
 603:animation.c   ****     {
 604:animation.c   ****         send_animation_telemetry(current_callback_anim, the_is_anim_on_button_up_enable ? "starting
 1492              		.loc 1 604 0
 1493 000c 002C     		cmp	r4, #0
 1494 000e 01D0     		beq	.L95
 1495 0010 0949     		ldr	r1, .L96+4
 1496 0012 00E0     		b	.L94
 1497              	.L95:
 1498 0014 0949     		ldr	r1, .L96+8
 1499              	.L94:
 1500              		.loc 1 604 0 is_stmt 0 discriminator 4
 1501 0016 FFF7FEFF 		bl	send_animation_telemetry
 1502              	.LVL103:
 605:animation.c   ****         vec_call_back_anim[current_callback_anim].started = the_is_anim_on_button_up_enable;
 1503              		.loc 1 605 0 is_stmt 1 discriminator 4
 1504 001a 064B     		ldr	r3, .L96
 1505 001c DB7E     		ldrb	r3, [r3, #27]
 1506 001e 5A00     		lsl	r2, r3, #1
 1507 0020 D318     		add	r3, r2, r3
 1508 0022 9B00     		lsl	r3, r3, #2
 1509 0024 064A     		ldr	r2, .L96+12
 1510 0026 D318     		add	r3, r2, r3
 1511 0028 9C75     		strb	r4, [r3, #22]
 1512              	.L93:
 606:animation.c   ****     }
 607:animation.c   ****     
 608:animation.c   ****     is_anim_on_button_up_enable = the_is_anim_on_button_up_enable;
 1513              		.loc 1 608 0
 1514 002a 3D23     		mov	r3, #61
 1515 002c 054A     		ldr	r2, .L96+16
 1516 002e D454     		strb	r4, [r2, r3]
 609:animation.c   **** }// set_is_anim_on_button_up_enable
ARM GAS  C:\Users\TB1014~1\AppData\Local\Temp\ccVniMG7.s 			page 39


 1517              		.loc 1 609 0
 1518              		@ sp needed
 1519 0030 10BD     		pop	{r4, pc}
 1520              	.L97:
 1521 0032 C046     		.align	2
 1522              	.L96:
 1523 0034 00000000 		.word	.LANCHOR0
 1524 0038 00000000 		.word	.LC28
 1525 003c 0C000000 		.word	.LC30
 1526 0040 00000000 		.word	.LANCHOR1
 1527 0044 80000000 		.word	.LANCHOR3
 1528              		.cfi_endproc
 1529              	.LFE56:
 1530              		.size	set_is_anim_on_button_up_enable, .-set_is_anim_on_button_up_enable
 1531              		.section	.text.get_current_callback_anim,"ax",%progbits
 1532              		.align	2
 1533              		.global	get_current_callback_anim
 1534              		.code	16
 1535              		.thumb_func
 1536              		.type	get_current_callback_anim, %function
 1537              	get_current_callback_anim:
 1538              	.LFB57:
 610:animation.c   **** 
 611:animation.c   **** //=============================================================================
 612:animation.c   **** //=================================================== get_current_callback_anim
 613:animation.c   **** //=============================================================================
 614:animation.c   **** t_enum_animation get_current_callback_anim()
 615:animation.c   **** {
 1539              		.loc 1 615 0
 1540              		.cfi_startproc
 616:animation.c   ****     return current_callback_anim;
 1541              		.loc 1 616 0
 1542 0000 014B     		ldr	r3, .L99
 1543 0002 D87E     		ldrb	r0, [r3, #27]
 617:animation.c   **** }// get_current_callback_anim
 1544              		.loc 1 617 0
 1545              		@ sp needed
 1546 0004 7047     		bx	lr
 1547              	.L100:
 1548 0006 C046     		.align	2
 1549              	.L99:
 1550 0008 00000000 		.word	.LANCHOR0
 1551              		.cfi_endproc
 1552              	.LFE57:
 1553              		.size	get_current_callback_anim, .-get_current_callback_anim
 1554              		.section	.text.is_smooth_button_anim_on,"ax",%progbits
 1555              		.align	2
 1556              		.global	is_smooth_button_anim_on
 1557              		.code	16
 1558              		.thumb_func
 1559              		.type	is_smooth_button_anim_on, %function
 1560              	is_smooth_button_anim_on:
 1561              	.LFB58:
 618:animation.c   **** 
 619:animation.c   **** //=============================================================================
 620:animation.c   **** //==================================================== is_smooth_button_anim_on
 621:animation.c   **** //=============================================================================
ARM GAS  C:\Users\TB1014~1\AppData\Local\Temp\ccVniMG7.s 			page 40


 622:animation.c   **** BOOL is_smooth_button_anim_on()
 623:animation.c   **** {
 1562              		.loc 1 623 0
 1563              		.cfi_startproc
 624:animation.c   ****     return ((current_callback_anim == ANIM_BUTTON_SMOOTH_SLOW) || (current_callback_anim == ANIM_BU
 1564              		.loc 1 624 0
 1565 0000 034B     		ldr	r3, .L102
 1566 0002 DB7E     		ldrb	r3, [r3, #27]
 1567 0004 0020     		mov	r0, #0
 1568 0006 0122     		mov	r2, #1
 1569 0008 9A42     		cmp	r2, r3
 1570 000a 4041     		adc	r0, r0, r0
 1571 000c C0B2     		uxtb	r0, r0
 625:animation.c   **** }// get_current_callback_anim
 1572              		.loc 1 625 0
 1573              		@ sp needed
 1574 000e 7047     		bx	lr
 1575              	.L103:
 1576              		.align	2
 1577              	.L102:
 1578 0010 00000000 		.word	.LANCHOR0
 1579              		.cfi_endproc
 1580              	.LFE58:
 1581              		.size	is_smooth_button_anim_on, .-is_smooth_button_anim_on
 1582              		.section	.text.set_current_callback_anim,"ax",%progbits
 1583              		.align	2
 1584              		.global	set_current_callback_anim
 1585              		.code	16
 1586              		.thumb_func
 1587              		.type	set_current_callback_anim, %function
 1588              	set_current_callback_anim:
 1589              	.LFB59:
 626:animation.c   **** 
 627:animation.c   **** //=============================================================================
 628:animation.c   **** //=================================================== set_current_callback_anim
 629:animation.c   **** //=============================================================================
 630:animation.c   **** void set_current_callback_anim(t_enum_animation the_current_callback_anim)
 631:animation.c   **** {
 1590              		.loc 1 631 0
 1591              		.cfi_startproc
 1592              	.LVL104:
 1593 0000 10B5     		push	{r4, lr}
 1594              		.cfi_def_cfa_offset 8
 1595              		.cfi_offset 4, -8
 1596              		.cfi_offset 14, -4
 1597 0002 041E     		sub	r4, r0, #0
 632:animation.c   ****     if (the_current_callback_anim >= ANIM_UNKNOWN)
 1598              		.loc 1 632 0
 1599 0004 0D2C     		cmp	r4, #13
 1600 0006 05D9     		bls	.L105
 633:animation.c   ****     {
 634:animation.c   ****         send_alarm_telemetry(ALARM_ERROR, "firmware", "invalid animation id");
 1601              		.loc 1 634 0
 1602 0008 0320     		mov	r0, #3
 1603              	.LVL105:
 1604 000a 0F49     		ldr	r1, .L108
 1605 000c 0F4A     		ldr	r2, .L108+4
ARM GAS  C:\Users\TB1014~1\AppData\Local\Temp\ccVniMG7.s 			page 41


 1606 000e FFF7FEFF 		bl	send_alarm_telemetry
 1607              	.LVL106:
 635:animation.c   ****         return;
 1608              		.loc 1 635 0
 1609 0012 17E0     		b	.L104
 1610              	.LVL107:
 1611              	.L105:
 636:animation.c   ****     }
 637:animation.c   ****     
 638:animation.c   ****     if (vec_call_back_anim[the_current_callback_anim].started)
 1612              		.loc 1 638 0
 1613 0014 4300     		lsl	r3, r0, #1
 1614 0016 1B18     		add	r3, r3, r0
 1615 0018 9B00     		lsl	r3, r3, #2
 1616 001a 0D4A     		ldr	r2, .L108+8
 1617 001c D318     		add	r3, r2, r3
 1618 001e 9B7D     		ldrb	r3, [r3, #22]
 1619 0020 002B     		cmp	r3, #0
 1620 0022 09D0     		beq	.L107
 639:animation.c   ****     {
 640:animation.c   ****         send_animation_telemetry(the_current_callback_anim, "stopping");
 1621              		.loc 1 640 0
 1622 0024 0B49     		ldr	r1, .L108+12
 1623 0026 FFF7FEFF 		bl	send_animation_telemetry
 1624              	.LVL108:
 641:animation.c   ****         vec_call_back_anim[the_current_callback_anim].started = FALSE;
 1625              		.loc 1 641 0
 1626 002a 6300     		lsl	r3, r4, #1
 1627 002c 1B19     		add	r3, r3, r4
 1628 002e 9B00     		lsl	r3, r3, #2
 1629 0030 074A     		ldr	r2, .L108+8
 1630 0032 D318     		add	r3, r2, r3
 1631 0034 0022     		mov	r2, #0
 1632 0036 9A75     		strb	r2, [r3, #22]
 1633              	.L107:
 642:animation.c   ****     }
 643:animation.c   ****     
 644:animation.c   ****     current_callback_anim = the_current_callback_anim;
 1634              		.loc 1 644 0
 1635 0038 074B     		ldr	r3, .L108+16
 1636 003a DC76     		strb	r4, [r3, #27]
 645:animation.c   ****     send_animation_telemetry(current_callback_anim, "selected");
 1637              		.loc 1 645 0
 1638 003c 201C     		mov	r0, r4
 1639 003e 0749     		ldr	r1, .L108+20
 1640 0040 FFF7FEFF 		bl	send_animation_telemetry
 1641              	.LVL109:
 1642              	.L104:
 646:animation.c   **** }// set_current_callback_anim
 1643              		.loc 1 646 0
 1644              		@ sp needed
 1645 0044 10BD     		pop	{r4, pc}
 1646              	.L109:
 1647 0046 C046     		.align	2
 1648              	.L108:
 1649 0048 18000000 		.word	.LC37
 1650 004c 24000000 		.word	.LC39
ARM GAS  C:\Users\TB1014~1\AppData\Local\Temp\ccVniMG7.s 			page 42


 1651 0050 00000000 		.word	.LANCHOR1
 1652 0054 0C000000 		.word	.LC30
 1653 0058 00000000 		.word	.LANCHOR0
 1654 005c 3C000000 		.word	.LC44
 1655              		.cfi_endproc
 1656              	.LFE59:
 1657              		.size	set_current_callback_anim, .-set_current_callback_anim
 1658              		.section	.text.run_current_animation,"ax",%progbits
 1659              		.align	2
 1660              		.global	run_current_animation
 1661              		.code	16
 1662              		.thumb_func
 1663              		.type	run_current_animation, %function
 1664              	run_current_animation:
 1665              	.LFB60:
 647:animation.c   **** 
 648:animation.c   **** //=============================================================================
 649:animation.c   **** //======================================================= run_current_animation
 650:animation.c   **** //=============================================================================
 651:animation.c   **** void run_current_animation(BOOL high_speed)
 652:animation.c   **** {
 1666              		.loc 1 652 0
 1667              		.cfi_startproc
 1668              	.LVL110:
 1669 0000 08B5     		push	{r3, lr}
 1670              		.cfi_def_cfa_offset 8
 1671              		.cfi_offset 3, -8
 1672              		.cfi_offset 14, -4
 653:animation.c   ****     if ((current_callback_anim >= ANIM_UNKNOWN) || (vec_call_back_anim[current_callback_anim].high_
 1673              		.loc 1 653 0
 1674 0002 154B     		ldr	r3, .L113
 1675 0004 DA7E     		ldrb	r2, [r3, #27]
 1676 0006 0D2A     		cmp	r2, #13
 1677 0008 24D8     		bhi	.L110
 1678              		.loc 1 653 0 is_stmt 0 discriminator 1
 1679 000a 5300     		lsl	r3, r2, #1
 1680 000c 9B18     		add	r3, r3, r2
 1681 000e 9B00     		lsl	r3, r3, #2
 1682 0010 1249     		ldr	r1, .L113+4
 1683 0012 CB18     		add	r3, r1, r3
 1684 0014 5B7D     		ldrb	r3, [r3, #21]
 1685 0016 8342     		cmp	r3, r0
 1686 0018 1CD1     		bne	.L110
 654:animation.c   ****     {
 655:animation.c   ****         return;
 656:animation.c   ****     }
 657:animation.c   ****     
 658:animation.c   ****     if (vec_call_back_anim[current_callback_anim].started)
 1687              		.loc 1 658 0 is_stmt 1
 1688 001a 5300     		lsl	r3, r2, #1
 1689 001c 9B18     		add	r3, r3, r2
 1690 001e 9B00     		lsl	r3, r3, #2
 1691 0020 CB18     		add	r3, r1, r3
 1692 0022 9B7D     		ldrb	r3, [r3, #22]
 1693 0024 002B     		cmp	r3, #0
 1694 0026 0CD0     		beq	.L112
 659:animation.c   ****     {
ARM GAS  C:\Users\TB1014~1\AppData\Local\Temp\ccVniMG7.s 			page 43


 660:animation.c   ****         send_animation_telemetry(current_callback_anim, "started");
 1695              		.loc 1 660 0
 1696 0028 101C     		mov	r0, r2
 1697              	.LVL111:
 1698 002a 0D49     		ldr	r1, .L113+8
 1699 002c FFF7FEFF 		bl	send_animation_telemetry
 1700              	.LVL112:
 661:animation.c   ****         vec_call_back_anim[current_callback_anim].started = TRUE;
 1701              		.loc 1 661 0
 1702 0030 094B     		ldr	r3, .L113
 1703 0032 DB7E     		ldrb	r3, [r3, #27]
 1704 0034 5A00     		lsl	r2, r3, #1
 1705 0036 D318     		add	r3, r2, r3
 1706 0038 9B00     		lsl	r3, r3, #2
 1707 003a 084A     		ldr	r2, .L113+4
 1708 003c D318     		add	r3, r2, r3
 1709 003e 0122     		mov	r2, #1
 1710 0040 9A75     		strb	r2, [r3, #22]
 1711              	.L112:
 662:animation.c   ****     }
 663:animation.c   ****     
 664:animation.c   ****     vec_call_back_anim[current_callback_anim].callback();
 1712              		.loc 1 664 0
 1713 0042 054B     		ldr	r3, .L113
 1714 0044 DB7E     		ldrb	r3, [r3, #27]
 1715 0046 5A00     		lsl	r2, r3, #1
 1716 0048 D318     		add	r3, r2, r3
 1717 004a 9B00     		lsl	r3, r3, #2
 1718 004c 034A     		ldr	r2, .L113+4
 1719 004e D318     		add	r3, r2, r3
 1720 0050 9B69     		ldr	r3, [r3, #24]
 1721 0052 9847     		blx	r3
 1722              	.LVL113:
 1723              	.L110:
 665:animation.c   **** }// run_current_animation
 1724              		.loc 1 665 0
 1725              		@ sp needed
 1726 0054 08BD     		pop	{r3, pc}
 1727              	.L114:
 1728 0056 C046     		.align	2
 1729              	.L113:
 1730 0058 00000000 		.word	.LANCHOR0
 1731 005c 00000000 		.word	.LANCHOR1
 1732 0060 48000000 		.word	.LC48
 1733              		.cfi_endproc
 1734              	.LFE60:
 1735              		.size	run_current_animation, .-run_current_animation
 1736              		.section	.rodata
 1737              		.align	2
 1738              		.set	.LANCHOR2,. + 0
 1739              		.type	vec_rainbow.6809, %object
 1740              		.size	vec_rainbow.6809, 24
 1741              	vec_rainbow.6809:
 1742 0000 94       		.byte	-108
 1743 0001 00       		.byte	0
 1744 0002 D3       		.byte	-45
 1745 0003 4B       		.byte	75
ARM GAS  C:\Users\TB1014~1\AppData\Local\Temp\ccVniMG7.s 			page 44


 1746 0004 00       		.byte	0
 1747 0005 82       		.byte	-126
 1748 0006 00       		.byte	0
 1749 0007 00       		.byte	0
 1750 0008 FF       		.byte	-1
 1751 0009 00       		.byte	0
 1752 000a FF       		.byte	-1
 1753 000b 00       		.byte	0
 1754 000c FF       		.byte	-1
 1755 000d FF       		.byte	-1
 1756 000e 00       		.byte	0
 1757 000f FF       		.byte	-1
 1758 0010 7F       		.byte	127
 1759 0011 00       		.byte	0
 1760 0012 FF       		.byte	-1
 1761 0013 00       		.byte	0
 1762 0014 00       		.byte	0
 1763 0015 00       		.byte	0
 1764 0016 00       		.byte	0
 1765 0017 00       		.byte	0
 1766              		.type	sine_vec, %object
 1767              		.size	sine_vec, 512
 1768              	sine_vec:
 1769 0018 0008     		.short	2048
 1770 001a 3208     		.short	2098
 1771 001c 6408     		.short	2148
 1772 001e 9608     		.short	2198
 1773 0020 C808     		.short	2248
 1774 0022 FA08     		.short	2298
 1775 0024 2C09     		.short	2348
 1776 0026 5E09     		.short	2398
 1777 0028 8F09     		.short	2447
 1778 002a C009     		.short	2496
 1779 002c F109     		.short	2545
 1780 002e 220A     		.short	2594
 1781 0030 520A     		.short	2642
 1782 0032 820A     		.short	2690
 1783 0034 B10A     		.short	2737
 1784 0036 E00A     		.short	2784
 1785 0038 0F0B     		.short	2831
 1786 003a 3D0B     		.short	2877
 1787 003c 6B0B     		.short	2923
 1788 003e 980B     		.short	2968
 1789 0040 C50B     		.short	3013
 1790 0042 F10B     		.short	3057
 1791 0044 1C0C     		.short	3100
 1792 0046 470C     		.short	3143
 1793 0048 710C     		.short	3185
 1794 004a 9A0C     		.short	3226
 1795 004c C30C     		.short	3267
 1796 004e EB0C     		.short	3307
 1797 0050 120D     		.short	3346
 1798 0052 390D     		.short	3385
 1799 0054 5F0D     		.short	3423
 1800 0056 830D     		.short	3459
 1801 0058 A70D     		.short	3495
 1802 005a CA0D     		.short	3530
ARM GAS  C:\Users\TB1014~1\AppData\Local\Temp\ccVniMG7.s 			page 45


 1803 005c ED0D     		.short	3565
 1804 005e 0E0E     		.short	3598
 1805 0060 2E0E     		.short	3630
 1806 0062 4E0E     		.short	3662
 1807 0064 6C0E     		.short	3692
 1808 0066 8A0E     		.short	3722
 1809 0068 A60E     		.short	3750
 1810 006a C10E     		.short	3777
 1811 006c DC0E     		.short	3804
 1812 006e F50E     		.short	3829
 1813 0070 0D0F     		.short	3853
 1814 0072 240F     		.short	3876
 1815 0074 3A0F     		.short	3898
 1816 0076 4F0F     		.short	3919
 1817 0078 630F     		.short	3939
 1818 007a 760F     		.short	3958
 1819 007c 870F     		.short	3975
 1820 007e 980F     		.short	3992
 1821 0080 A70F     		.short	4007
 1822 0082 B50F     		.short	4021
 1823 0084 C20F     		.short	4034
 1824 0086 CD0F     		.short	4045
 1825 0088 D80F     		.short	4056
 1826 008a E10F     		.short	4065
 1827 008c E90F     		.short	4073
 1828 008e F00F     		.short	4080
 1829 0090 F50F     		.short	4085
 1830 0092 F90F     		.short	4089
 1831 0094 FD0F     		.short	4093
 1832 0096 FE0F     		.short	4094
 1833 0098 FF0F     		.short	4095
 1834 009a FE0F     		.short	4094
 1835 009c FD0F     		.short	4093
 1836 009e F90F     		.short	4089
 1837 00a0 F50F     		.short	4085
 1838 00a2 F00F     		.short	4080
 1839 00a4 E90F     		.short	4073
 1840 00a6 E10F     		.short	4065
 1841 00a8 D80F     		.short	4056
 1842 00aa CD0F     		.short	4045
 1843 00ac C20F     		.short	4034
 1844 00ae B50F     		.short	4021
 1845 00b0 A70F     		.short	4007
 1846 00b2 980F     		.short	3992
 1847 00b4 870F     		.short	3975
 1848 00b6 760F     		.short	3958
 1849 00b8 630F     		.short	3939
 1850 00ba 4F0F     		.short	3919
 1851 00bc 3A0F     		.short	3898
 1852 00be 240F     		.short	3876
 1853 00c0 0D0F     		.short	3853
 1854 00c2 F50E     		.short	3829
 1855 00c4 DC0E     		.short	3804
 1856 00c6 C10E     		.short	3777
 1857 00c8 A60E     		.short	3750
 1858 00ca 8A0E     		.short	3722
 1859 00cc 6C0E     		.short	3692
ARM GAS  C:\Users\TB1014~1\AppData\Local\Temp\ccVniMG7.s 			page 46


 1860 00ce 4E0E     		.short	3662
 1861 00d0 2E0E     		.short	3630
 1862 00d2 0E0E     		.short	3598
 1863 00d4 ED0D     		.short	3565
 1864 00d6 CA0D     		.short	3530
 1865 00d8 A70D     		.short	3495
 1866 00da 830D     		.short	3459
 1867 00dc 5F0D     		.short	3423
 1868 00de 390D     		.short	3385
 1869 00e0 120D     		.short	3346
 1870 00e2 EB0C     		.short	3307
 1871 00e4 C30C     		.short	3267
 1872 00e6 9A0C     		.short	3226
 1873 00e8 710C     		.short	3185
 1874 00ea 470C     		.short	3143
 1875 00ec 1C0C     		.short	3100
 1876 00ee F10B     		.short	3057
 1877 00f0 C50B     		.short	3013
 1878 00f2 980B     		.short	2968
 1879 00f4 6B0B     		.short	2923
 1880 00f6 3D0B     		.short	2877
 1881 00f8 0F0B     		.short	2831
 1882 00fa E00A     		.short	2784
 1883 00fc B10A     		.short	2737
 1884 00fe 820A     		.short	2690
 1885 0100 520A     		.short	2642
 1886 0102 220A     		.short	2594
 1887 0104 F109     		.short	2545
 1888 0106 C009     		.short	2496
 1889 0108 8F09     		.short	2447
 1890 010a 5E09     		.short	2398
 1891 010c 2C09     		.short	2348
 1892 010e FA08     		.short	2298
 1893 0110 C808     		.short	2248
 1894 0112 9608     		.short	2198
 1895 0114 6408     		.short	2148
 1896 0116 3208     		.short	2098
 1897 0118 0008     		.short	2048
 1898 011a CD07     		.short	1997
 1899 011c 9B07     		.short	1947
 1900 011e 6907     		.short	1897
 1901 0120 3707     		.short	1847
 1902 0122 0507     		.short	1797
 1903 0124 D306     		.short	1747
 1904 0126 A106     		.short	1697
 1905 0128 7006     		.short	1648
 1906 012a 3F06     		.short	1599
 1907 012c 0E06     		.short	1550
 1908 012e DD05     		.short	1501
 1909 0130 AD05     		.short	1453
 1910 0132 7D05     		.short	1405
 1911 0134 4E05     		.short	1358
 1912 0136 1F05     		.short	1311
 1913 0138 F004     		.short	1264
 1914 013a C204     		.short	1218
 1915 013c 9404     		.short	1172
 1916 013e 6704     		.short	1127
ARM GAS  C:\Users\TB1014~1\AppData\Local\Temp\ccVniMG7.s 			page 47


 1917 0140 3A04     		.short	1082
 1918 0142 0E04     		.short	1038
 1919 0144 E303     		.short	995
 1920 0146 B803     		.short	952
 1921 0148 8E03     		.short	910
 1922 014a 6503     		.short	869
 1923 014c 3C03     		.short	828
 1924 014e 1403     		.short	788
 1925 0150 ED02     		.short	749
 1926 0152 C602     		.short	710
 1927 0154 A002     		.short	672
 1928 0156 7C02     		.short	636
 1929 0158 5802     		.short	600
 1930 015a 3502     		.short	565
 1931 015c 1202     		.short	530
 1932 015e F101     		.short	497
 1933 0160 D101     		.short	465
 1934 0162 B101     		.short	433
 1935 0164 9301     		.short	403
 1936 0166 7501     		.short	373
 1937 0168 5901     		.short	345
 1938 016a 3E01     		.short	318
 1939 016c 2301     		.short	291
 1940 016e 0A01     		.short	266
 1941 0170 F200     		.short	242
 1942 0172 DB00     		.short	219
 1943 0174 C500     		.short	197
 1944 0176 B000     		.short	176
 1945 0178 9C00     		.short	156
 1946 017a 8900     		.short	137
 1947 017c 7800     		.short	120
 1948 017e 6700     		.short	103
 1949 0180 5800     		.short	88
 1950 0182 4A00     		.short	74
 1951 0184 3D00     		.short	61
 1952 0186 3200     		.short	50
 1953 0188 2700     		.short	39
 1954 018a 1E00     		.short	30
 1955 018c 1600     		.short	22
 1956 018e 0F00     		.short	15
 1957 0190 0A00     		.short	10
 1958 0192 0600     		.short	6
 1959 0194 0200     		.short	2
 1960 0196 0100     		.short	1
 1961 0198 0000     		.short	0
 1962 019a 0100     		.short	1
 1963 019c 0200     		.short	2
 1964 019e 0600     		.short	6
 1965 01a0 0A00     		.short	10
 1966 01a2 0F00     		.short	15
 1967 01a4 1600     		.short	22
 1968 01a6 1E00     		.short	30
 1969 01a8 2700     		.short	39
 1970 01aa 3200     		.short	50
 1971 01ac 3D00     		.short	61
 1972 01ae 4A00     		.short	74
 1973 01b0 5800     		.short	88
ARM GAS  C:\Users\TB1014~1\AppData\Local\Temp\ccVniMG7.s 			page 48


 1974 01b2 6700     		.short	103
 1975 01b4 7800     		.short	120
 1976 01b6 8900     		.short	137
 1977 01b8 9C00     		.short	156
 1978 01ba B000     		.short	176
 1979 01bc C500     		.short	197
 1980 01be DB00     		.short	219
 1981 01c0 F200     		.short	242
 1982 01c2 0A01     		.short	266
 1983 01c4 2301     		.short	291
 1984 01c6 3E01     		.short	318
 1985 01c8 5901     		.short	345
 1986 01ca 7501     		.short	373
 1987 01cc 9301     		.short	403
 1988 01ce B101     		.short	433
 1989 01d0 D101     		.short	465
 1990 01d2 F101     		.short	497
 1991 01d4 1202     		.short	530
 1992 01d6 3502     		.short	565
 1993 01d8 5802     		.short	600
 1994 01da 7C02     		.short	636
 1995 01dc A002     		.short	672
 1996 01de C602     		.short	710
 1997 01e0 ED02     		.short	749
 1998 01e2 1403     		.short	788
 1999 01e4 3C03     		.short	828
 2000 01e6 6503     		.short	869
 2001 01e8 8E03     		.short	910
 2002 01ea B803     		.short	952
 2003 01ec E303     		.short	995
 2004 01ee 0E04     		.short	1038
 2005 01f0 3A04     		.short	1082
 2006 01f2 6704     		.short	1127
 2007 01f4 9404     		.short	1172
 2008 01f6 C204     		.short	1218
 2009 01f8 F004     		.short	1264
 2010 01fa 1F05     		.short	1311
 2011 01fc 4E05     		.short	1358
 2012 01fe 7D05     		.short	1405
 2013 0200 AD05     		.short	1453
 2014 0202 DD05     		.short	1501
 2015 0204 0E06     		.short	1550
 2016 0206 3F06     		.short	1599
 2017 0208 7006     		.short	1648
 2018 020a A106     		.short	1697
 2019 020c D306     		.short	1747
 2020 020e 0507     		.short	1797
 2021 0210 3707     		.short	1847
 2022 0212 6907     		.short	1897
 2023 0214 9B07     		.short	1947
 2024 0216 CD07     		.short	1997
 2025              		.data
 2026              		.align	2
 2027              		.set	.LANCHOR1,. + 0
 2028              		.set	.LANCHOR3,. + 128
 2029              		.type	intensity_up.6760, %object
 2030              		.size	intensity_up.6760, 1
ARM GAS  C:\Users\TB1014~1\AppData\Local\Temp\ccVniMG7.s 			page 49


 2031              	intensity_up.6760:
 2032 0000 01       		.byte	1
 2033              		.type	intensity_right_index.6817, %object
 2034              		.size	intensity_right_index.6817, 1
 2035              	intensity_right_index.6817:
 2036 0001 80       		.byte	-128
 2037              		.type	intensity_color_index.6783, %object
 2038              		.size	intensity_color_index.6783, 1
 2039              	intensity_color_index.6783:
 2040 0002 80       		.byte	-128
 2041              		.type	intensity_color_index.6788, %object
 2042              		.size	intensity_color_index.6788, 1
 2043              	intensity_color_index.6788:
 2044 0003 80       		.byte	-128
 2045              		.type	intensity_color_index.6793, %object
 2046              		.size	intensity_color_index.6793, 1
 2047              	intensity_color_index.6793:
 2048 0004 80       		.byte	-128
 2049 0005 00       		.space	1
 2050              		.type	left_led.6830, %object
 2051              		.size	left_led.6830, 2
 2052              	left_led.6830:
 2053 0006 0600     		.short	6
 2054              		.type	right_led.6829, %object
 2055              		.size	right_led.6829, 2
 2056              	right_led.6829:
 2057 0008 0700     		.short	7
 2058              		.type	outward.6831, %object
 2059              		.size	outward.6831, 1
 2060              	outward.6831:
 2061 000a 01       		.byte	1
 2062              		.type	intensity_up.6798, %object
 2063              		.size	intensity_up.6798, 1
 2064              	intensity_up.6798:
 2065 000b 01       		.byte	1
 2066              		.type	led_up.6841, %object
 2067              		.size	led_up.6841, 2
 2068              	led_up.6841:
 2069 000c 0100     		.short	1
 2070              		.type	right_led.6843, %object
 2071              		.size	right_led.6843, 2
 2072              	right_led.6843:
 2073 000e 0200     		.short	2
 2074              		.type	left_led.6842, %object
 2075              		.size	left_led.6842, 2
 2076              	left_led.6842:
 2077 0010 0100     		.short	1
 2078              		.type	right_index.6845, %object
 2079              		.size	right_index.6845, 1
 2080              	right_index.6845:
 2081 0012 80       		.byte	-128
 2082 0013 00       		.space	1
 2083              		.type	vec_call_back_anim, %object
 2084              		.size	vec_call_back_anim, 168
 2085              	vec_call_back_anim:
 2086 0014 00       		.byte	0
 2087 0015 00       		.byte	0
ARM GAS  C:\Users\TB1014~1\AppData\Local\Temp\ccVniMG7.s 			page 50


 2088 0016 00       		.byte	0
 2089 0017 00       		.space	1
 2090 0018 00000000 		.word	animate_button_smooth_slow
 2091 001c 50000000 		.word	.LC50
 2092 0020 01       		.byte	1
 2093 0021 00       		.byte	0
 2094 0022 00       		.byte	0
 2095 0023 00       		.space	1
 2096 0024 00000000 		.word	animate_button_smooth_fast
 2097 0028 60000000 		.word	.LC51
 2098 002c 02       		.byte	2
 2099 002d 00       		.byte	0
 2100 002e 00       		.byte	0
 2101 002f 00       		.space	1
 2102 0030 00000000 		.word	animate_left_right
 2103 0034 70000000 		.word	.LC52
 2104 0038 03       		.byte	3
 2105 0039 00       		.byte	0
 2106 003a 00       		.byte	0
 2107 003b 00       		.space	1
 2108 003c 00000000 		.word	animate_intensity
 2109 0040 7C000000 		.word	.LC53
 2110 0044 04       		.byte	4
 2111 0045 00       		.byte	0
 2112 0046 00       		.byte	0
 2113 0047 00       		.space	1
 2114 0048 00000000 		.word	animate_2_leds
 2115 004c 8C000000 		.word	.LC54
 2116 0050 05       		.byte	5
 2117 0051 00       		.byte	0
 2118 0052 00       		.byte	0
 2119 0053 00       		.space	1
 2120 0054 00000000 		.word	animate_red_intensity
 2121 0058 94000000 		.word	.LC55
 2122 005c 06       		.byte	6
 2123 005d 00       		.byte	0
 2124 005e 00       		.byte	0
 2125 005f 00       		.space	1
 2126 0060 00000000 		.word	animate_green_intensity
 2127 0064 A4000000 		.word	.LC56
 2128 0068 07       		.byte	7
 2129 0069 00       		.byte	0
 2130 006a 00       		.byte	0
 2131 006b 00       		.space	1
 2132 006c 00000000 		.word	animate_blue_intensity
 2133 0070 B4000000 		.word	.LC57
 2134 0074 08       		.byte	8
 2135 0075 00       		.byte	0
 2136 0076 00       		.byte	0
 2137 0077 00       		.space	1
 2138 0078 00000000 		.word	animate_red_white_intensity
 2139 007c C4000000 		.word	.LC58
 2140 0080 09       		.byte	9
 2141 0081 00       		.byte	0
 2142 0082 00       		.byte	0
 2143 0083 00       		.space	1
 2144 0084 00000000 		.word	animate_green_white_intensity
ARM GAS  C:\Users\TB1014~1\AppData\Local\Temp\ccVniMG7.s 			page 51


 2145 0088 D8000000 		.word	.LC59
 2146 008c 0A       		.byte	10
 2147 008d 00       		.byte	0
 2148 008e 00       		.byte	0
 2149 008f 00       		.space	1
 2150 0090 00000000 		.word	animate_blue_white_intensity
 2151 0094 F0000000 		.word	.LC60
 2152 0098 0B       		.byte	11
 2153 0099 00       		.byte	0
 2154 009a 00       		.byte	0
 2155 009b 00       		.space	1
 2156 009c 00000000 		.word	animate_all_colors
 2157 00a0 08010000 		.word	.LC61
 2158 00a4 0C       		.byte	12
 2159 00a5 00       		.byte	0
 2160 00a6 00       		.byte	0
 2161 00a7 00       		.space	1
 2162 00a8 00000000 		.word	animate_rainbow_colors
 2163 00ac 14010000 		.word	.LC62
 2164 00b0 0D       		.byte	13
 2165 00b1 00       		.byte	0
 2166 00b2 00       		.byte	0
 2167 00b3 00       		.space	1
 2168 00b4 00000000 		.word	animate_fix_white
 2169 00b8 24010000 		.word	.LC63
 2170              		.type	is_auto_anim_rotation_enable, %object
 2171              		.size	is_auto_anim_rotation_enable, 1
 2172              	is_auto_anim_rotation_enable:
 2173 00bc 01       		.byte	1
 2174              		.type	is_anim_on_button_up_enable, %object
 2175              		.size	is_anim_on_button_up_enable, 1
 2176              	is_anim_on_button_up_enable:
 2177 00bd 01       		.byte	1
 2178 00be 0000     		.section	.rodata.str1.4,"aMS",%progbits,1
 2179              		.align	2
 2180              	.LC28:
 2181 0000 73746172 		.ascii	"starting\000"
 2181      74696E67 
 2181      00
 2182 0009 000000   		.space	3
 2183              	.LC30:
 2184 000c 73746F70 		.ascii	"stopping\000"
 2184      70696E67 
 2184      00
 2185 0015 000000   		.space	3
 2186              	.LC37:
 2187 0018 6669726D 		.ascii	"firmware\000"
 2187      77617265 
 2187      00
 2188 0021 000000   		.space	3
 2189              	.LC39:
 2190 0024 696E7661 		.ascii	"invalid animation id\000"
 2190      6C696420 
 2190      616E696D 
 2190      6174696F 
 2190      6E206964 
 2191 0039 000000   		.space	3
ARM GAS  C:\Users\TB1014~1\AppData\Local\Temp\ccVniMG7.s 			page 52


 2192              	.LC44:
 2193 003c 73656C65 		.ascii	"selected\000"
 2193      63746564 
 2193      00
 2194 0045 000000   		.space	3
 2195              	.LC48:
 2196 0048 73746172 		.ascii	"started\000"
 2196      74656400 
 2197              	.LC50:
 2198 0050 736C6F77 		.ascii	"slow breather\000"
 2198      20627265 
 2198      61746865 
 2198      7200
 2199 005e 0000     		.space	2
 2200              	.LC51:
 2201 0060 66617374 		.ascii	"fast breather\000"
 2201      20627265 
 2201      61746865 
 2201      7200
 2202 006e 0000     		.space	2
 2203              	.LC52:
 2204 0070 6C656674 		.ascii	"left-right\000"
 2204      2D726967 
 2204      687400
 2205 007b 00       		.space	1
 2206              	.LC53:
 2207 007c 77686974 		.ascii	"white intensity\000"
 2207      6520696E 
 2207      74656E73 
 2207      69747900 
 2208              	.LC54:
 2209 008c 32206C65 		.ascii	"2 leds\000"
 2209      647300
 2210 0093 00       		.space	1
 2211              	.LC55:
 2212 0094 72656420 		.ascii	"red intensity\000"
 2212      696E7465 
 2212      6E736974 
 2212      7900
 2213 00a2 0000     		.space	2
 2214              	.LC56:
 2215 00a4 67726565 		.ascii	"green intensity\000"
 2215      6E20696E 
 2215      74656E73 
 2215      69747900 
 2216              	.LC57:
 2217 00b4 626C7565 		.ascii	"blue intensity\000"
 2217      20696E74 
 2217      656E7369 
 2217      747900
 2218 00c3 00       		.space	1
 2219              	.LC58:
 2220 00c4 7265642D 		.ascii	"red-white intensity\000"
 2220      77686974 
 2220      6520696E 
 2220      74656E73 
 2220      69747900 
ARM GAS  C:\Users\TB1014~1\AppData\Local\Temp\ccVniMG7.s 			page 53


 2221              	.LC59:
 2222 00d8 67726565 		.ascii	"green-white  intensity\000"
 2222      6E2D7768 
 2222      69746520 
 2222      20696E74 
 2222      656E7369 
 2223 00ef 00       		.space	1
 2224              	.LC60:
 2225 00f0 626C7565 		.ascii	"blue-white  intensity\000"
 2225      2D776869 
 2225      74652020 
 2225      696E7465 
 2225      6E736974 
 2226 0106 0000     		.space	2
 2227              	.LC61:
 2228 0108 616C6C20 		.ascii	"all colors\000"
 2228      636F6C6F 
 2228      727300
 2229 0113 00       		.space	1
 2230              	.LC62:
 2231 0114 7261696E 		.ascii	"rainbow colors\000"
 2231      626F7720 
 2231      636F6C6F 
 2231      727300
 2232 0123 00       		.space	1
 2233              	.LC63:
 2234 0124 34206669 		.ascii	"4 fix white LEDs at full intensity\000"
 2234      78207768 
 2234      69746520 
 2234      4C454473 
 2234      20617420 
 2235 0147 00       		.bss
 2236              		.align	1
 2237              		.set	.LANCHOR0,. + 0
 2238              		.type	red.6757, %object
 2239              		.size	red.6757, 2
 2240              	red.6757:
 2241 0000 0000     		.space	2
 2242              		.type	green.6758, %object
 2243              		.size	green.6758, 2
 2244              	green.6758:
 2245 0002 0000     		.space	2
 2246              		.type	blue.6759, %object
 2247              		.size	blue.6759, 2
 2248              	blue.6759:
 2249 0004 0000     		.space	2
 2250              		.type	cycle.6807, %object
 2251              		.size	cycle.6807, 2
 2252              	cycle.6807:
 2253 0006 0000     		.space	2
 2254              		.type	color_index.6808, %object
 2255              		.size	color_index.6808, 2
 2256              	color_index.6808:
 2257 0008 0000     		.space	2
 2258              		.type	cycle.6812, %object
 2259              		.size	cycle.6812, 2
 2260              	cycle.6812:
ARM GAS  C:\Users\TB1014~1\AppData\Local\Temp\ccVniMG7.s 			page 54


 2261 000a 0000     		.space	2
 2262              		.type	led_pos.6813, %object
 2263              		.size	led_pos.6813, 2
 2264              	led_pos.6813:
 2265 000c 0000     		.space	2
 2266              		.type	intensity_left_index.6816, %object
 2267              		.size	intensity_left_index.6816, 1
 2268              	intensity_left_index.6816:
 2269 000e 00       		.space	1
 2270              		.type	intensity_white_index.6782, %object
 2271              		.size	intensity_white_index.6782, 1
 2272              	intensity_white_index.6782:
 2273 000f 00       		.space	1
 2274              		.type	intensity_white_index.6787, %object
 2275              		.size	intensity_white_index.6787, 1
 2276              	intensity_white_index.6787:
 2277 0010 00       		.space	1
 2278              		.type	intensity_white_index.6792, %object
 2279              		.size	intensity_white_index.6792, 1
 2280              	intensity_white_index.6792:
 2281 0011 00       		.space	1
 2282              		.type	cycle.6828, %object
 2283              		.size	cycle.6828, 2
 2284              	cycle.6828:
 2285 0012 0000     		.space	2
 2286              		.type	primary_color.6832, %object
 2287              		.size	primary_color.6832, 1
 2288              	primary_color.6832:
 2289 0014 00       		.space	1
 2290 0015 00       		.space	1
 2291              		.type	intensity.6797, %object
 2292              		.size	intensity.6797, 2
 2293              	intensity.6797:
 2294 0016 0000     		.space	2
 2295              		.type	cycle.6846, %object
 2296              		.size	cycle.6846, 2
 2297              	cycle.6846:
 2298 0018 0000     		.space	2
 2299              		.type	left_index.6844, %object
 2300              		.size	left_index.6844, 1
 2301              	left_index.6844:
 2302 001a 00       		.space	1
 2303              		.type	current_callback_anim, %object
 2304              		.size	current_callback_anim, 1
 2305              	current_callback_anim:
 2306 001b 00       		.space	1
 2307              		.text
 2308              	.Letext0:
 2309              		.file 2 "Generated_Source\\PSoC4/cytypes.h"
 2310              		.file 3 "led.h"
 2311              		.file 4 "animation.h"
 2312              		.file 5 "command_telemetry.h"