ARM GAS  C:\Users\TB1014~1\AppData\Local\Temp\ccLG6s4V.s 			page 1


   1              		.cpu cortex-m0plus
   2              		.fpu softvfp
   3              		.eabi_attribute 20, 1
   4              		.eabi_attribute 21, 1
   5              		.eabi_attribute 23, 3
   6              		.eabi_attribute 24, 1
   7              		.eabi_attribute 25, 1
   8              		.eabi_attribute 26, 1
   9              		.eabi_attribute 30, 1
  10              		.eabi_attribute 34, 0
  11              		.eabi_attribute 18, 4
  12              		.code	16
  13              		.file	"CapSense_SensingCSX_LL.c"
  14              		.text
  15              	.Ltext0:
  16              		.cfi_sections	.debug_frame
  17              		.section	.text.CapSense_SsCSXPostSingleScan,"ax",%progbits
  18              		.align	2
  19              		.code	16
  20              		.thumb_func
  21              		.type	CapSense_SsCSXPostSingleScan, %function
  22              	CapSense_SsCSXPostSingleScan:
  23              	.LFB8:
  24              		.file 1 "Generated_Source\\PSoC4\\CapSense_SensingCSX_LL.c"
   1:Generated_Source\PSoC4/CapSense_SensingCSX_LL.c **** /***************************************************************************//**
   2:Generated_Source\PSoC4/CapSense_SensingCSX_LL.c **** * \file CapSense_SensingCSX_LL.c
   3:Generated_Source\PSoC4/CapSense_SensingCSX_LL.c **** * \version 3.10
   4:Generated_Source\PSoC4/CapSense_SensingCSX_LL.c **** *
   5:Generated_Source\PSoC4/CapSense_SensingCSX_LL.c **** * \brief
   6:Generated_Source\PSoC4/CapSense_SensingCSX_LL.c **** *   This file defines the data structure global variables and provides
   7:Generated_Source\PSoC4/CapSense_SensingCSX_LL.c **** *   implementation for the low-level APIs of the CSX part of
   8:Generated_Source\PSoC4/CapSense_SensingCSX_LL.c **** *   the Sensing module. The file contains the APIs used for the CSD block
   9:Generated_Source\PSoC4/CapSense_SensingCSX_LL.c **** *   initialization, calibration and scanning.
  10:Generated_Source\PSoC4/CapSense_SensingCSX_LL.c **** *
  11:Generated_Source\PSoC4/CapSense_SensingCSX_LL.c **** * \see CapSense P4 v3.10 Datasheet
  12:Generated_Source\PSoC4/CapSense_SensingCSX_LL.c **** *
  13:Generated_Source\PSoC4/CapSense_SensingCSX_LL.c **** *//*****************************************************************************
  14:Generated_Source\PSoC4/CapSense_SensingCSX_LL.c **** * Copyright (2016), Cypress Semiconductor Corporation.
  15:Generated_Source\PSoC4/CapSense_SensingCSX_LL.c **** ********************************************************************************
  16:Generated_Source\PSoC4/CapSense_SensingCSX_LL.c **** * This software is owned by Cypress Semiconductor Corporation (Cypress) and is
  17:Generated_Source\PSoC4/CapSense_SensingCSX_LL.c **** * protected by and subject to worldwide patent protection (United States and
  18:Generated_Source\PSoC4/CapSense_SensingCSX_LL.c **** * foreign), United States copyright laws and international treaty provisions.
  19:Generated_Source\PSoC4/CapSense_SensingCSX_LL.c **** * Cypress hereby grants to licensee a personal, non-exclusive, non-transferable
  20:Generated_Source\PSoC4/CapSense_SensingCSX_LL.c **** * license to copy, use, modify, create derivative works of, and compile the
  21:Generated_Source\PSoC4/CapSense_SensingCSX_LL.c **** * Cypress Source Code and derivative works for the sole purpose of creating
  22:Generated_Source\PSoC4/CapSense_SensingCSX_LL.c **** * custom software in support of licensee product to be used only in conjunction
  23:Generated_Source\PSoC4/CapSense_SensingCSX_LL.c **** * with a Cypress integrated circuit as specified in the applicable agreement.
  24:Generated_Source\PSoC4/CapSense_SensingCSX_LL.c **** * Any reproduction, modification, translation, compilation, or representation of
  25:Generated_Source\PSoC4/CapSense_SensingCSX_LL.c **** * this software except as specified above is prohibited without the express
  26:Generated_Source\PSoC4/CapSense_SensingCSX_LL.c **** * written permission of Cypress.
  27:Generated_Source\PSoC4/CapSense_SensingCSX_LL.c **** *
  28:Generated_Source\PSoC4/CapSense_SensingCSX_LL.c **** * Disclaimer: CYPRESS MAKES NO WARRANTY OF ANY KIND, EXPRESS OR IMPLIED, WITH
  29:Generated_Source\PSoC4/CapSense_SensingCSX_LL.c **** * REGARD TO THIS MATERIAL, INCLUDING, BUT NOT LIMITED TO, THE IMPLIED
  30:Generated_Source\PSoC4/CapSense_SensingCSX_LL.c **** * WARRANTIES OF MERCHANTABILITY AND FITNESS FOR A PARTICULAR PURPOSE.
  31:Generated_Source\PSoC4/CapSense_SensingCSX_LL.c **** * Cypress reserves the right to make changes without further notice to the
  32:Generated_Source\PSoC4/CapSense_SensingCSX_LL.c **** * materials described herein. Cypress does not assume any liability arising out
  33:Generated_Source\PSoC4/CapSense_SensingCSX_LL.c **** * of the application or use of any product or circuit described herein. Cypress
ARM GAS  C:\Users\TB1014~1\AppData\Local\Temp\ccLG6s4V.s 			page 2


  34:Generated_Source\PSoC4/CapSense_SensingCSX_LL.c **** * does not authorize its products for use as critical components in life-support
  35:Generated_Source\PSoC4/CapSense_SensingCSX_LL.c **** * systems where a malfunction or failure may reasonably be expected to result in
  36:Generated_Source\PSoC4/CapSense_SensingCSX_LL.c **** * significant injury to the user. The inclusion of Cypress' product in a life-
  37:Generated_Source\PSoC4/CapSense_SensingCSX_LL.c **** * support systems application implies that the manufacturer assumes all risk of
  38:Generated_Source\PSoC4/CapSense_SensingCSX_LL.c **** * such use and in doing so indemnifies Cypress against all charges. Use may be
  39:Generated_Source\PSoC4/CapSense_SensingCSX_LL.c **** * limited by and subject to the applicable Cypress software license agreement.
  40:Generated_Source\PSoC4/CapSense_SensingCSX_LL.c **** *******************************************************************************/
  41:Generated_Source\PSoC4/CapSense_SensingCSX_LL.c **** #include <cytypes.h>
  42:Generated_Source\PSoC4/CapSense_SensingCSX_LL.c **** #include "CyLib.h"
  43:Generated_Source\PSoC4/CapSense_SensingCSX_LL.c **** 
  44:Generated_Source\PSoC4/CapSense_SensingCSX_LL.c **** #include "CapSense_Structure.h"
  45:Generated_Source\PSoC4/CapSense_SensingCSX_LL.c **** #include "CapSense_Configuration.h"
  46:Generated_Source\PSoC4/CapSense_SensingCSX_LL.c **** #include "CapSense_SensingCSX_LL.h"
  47:Generated_Source\PSoC4/CapSense_SensingCSX_LL.c **** #include "CapSense_Sensing.h"
  48:Generated_Source\PSoC4/CapSense_SensingCSX_LL.c **** 
  49:Generated_Source\PSoC4/CapSense_SensingCSX_LL.c **** 
  50:Generated_Source\PSoC4/CapSense_SensingCSX_LL.c **** #if (0u != CapSense_CSX_EN)
  51:Generated_Source\PSoC4/CapSense_SensingCSX_LL.c **** 
  52:Generated_Source\PSoC4/CapSense_SensingCSX_LL.c **** /*******************************************************************************
  53:Generated_Source\PSoC4/CapSense_SensingCSX_LL.c **** * Module local function declarations
  54:Generated_Source\PSoC4/CapSense_SensingCSX_LL.c **** *******************************************************************************/
  55:Generated_Source\PSoC4/CapSense_SensingCSX_LL.c **** /**
  56:Generated_Source\PSoC4/CapSense_SensingCSX_LL.c **** * \if SECTION_CAPSENSE_INTERNAL
  57:Generated_Source\PSoC4/CapSense_SensingCSX_LL.c **** * \addtogroup group_capsense_internal
  58:Generated_Source\PSoC4/CapSense_SensingCSX_LL.c **** * \{
  59:Generated_Source\PSoC4/CapSense_SensingCSX_LL.c **** */
  60:Generated_Source\PSoC4/CapSense_SensingCSX_LL.c **** 
  61:Generated_Source\PSoC4/CapSense_SensingCSX_LL.c **** static void CapSense_SsCSXStartSample (void);
  62:Generated_Source\PSoC4/CapSense_SensingCSX_LL.c **** static void CapSense_SsCSXPostMultiScan (void);
  63:Generated_Source\PSoC4/CapSense_SensingCSX_LL.c **** static void CapSense_SsCSXPostSingleScan (void);
  64:Generated_Source\PSoC4/CapSense_SensingCSX_LL.c **** 
  65:Generated_Source\PSoC4/CapSense_SensingCSX_LL.c **** #if (CapSense_CSX_GANGED_SNS_EN == 1u)
  66:Generated_Source\PSoC4/CapSense_SensingCSX_LL.c **** static void CapSense_SsCSXPostMultiScanGanged (void);
  67:Generated_Source\PSoC4/CapSense_SensingCSX_LL.c **** #endif
  68:Generated_Source\PSoC4/CapSense_SensingCSX_LL.c **** 
  69:Generated_Source\PSoC4/CapSense_SensingCSX_LL.c **** /** \}
  70:Generated_Source\PSoC4/CapSense_SensingCSX_LL.c **** * \endif */
  71:Generated_Source\PSoC4/CapSense_SensingCSX_LL.c **** 
  72:Generated_Source\PSoC4/CapSense_SensingCSX_LL.c **** #if(CapSense_ENABLE == CapSense_CSDV2)
  73:Generated_Source\PSoC4/CapSense_SensingCSX_LL.c ****     CY_INLINE static void CapSense_SsCSXStartSampleExt(void);
  74:Generated_Source\PSoC4/CapSense_SensingCSX_LL.c **** #endif /* (CapSense_ENABLE == CapSense_CSDV2) */
  75:Generated_Source\PSoC4/CapSense_SensingCSX_LL.c **** static uint16 CapSense_SsCalcCsxScanPeriod (CapSense_RAM_WD_BASE_STRUCT const *wdgtPtr);
  76:Generated_Source\PSoC4/CapSense_SensingCSX_LL.c **** 
  77:Generated_Source\PSoC4/CapSense_SensingCSX_LL.c **** /*******************************************************************************
  78:Generated_Source\PSoC4/CapSense_SensingCSX_LL.c **** * Define module variables
  79:Generated_Source\PSoC4/CapSense_SensingCSX_LL.c **** *******************************************************************************/
  80:Generated_Source\PSoC4/CapSense_SensingCSX_LL.c **** 
  81:Generated_Source\PSoC4/CapSense_SensingCSX_LL.c **** /*  Local variable used to store the Scan period */
  82:Generated_Source\PSoC4/CapSense_SensingCSX_LL.c **** volatile uint16 CapSense_csxScanPeriod = 0u;
  83:Generated_Source\PSoC4/CapSense_SensingCSX_LL.c **** /*  Local variable used to return RawCount from the post scan ISR */
  84:Generated_Source\PSoC4/CapSense_SensingCSX_LL.c **** volatile uint16 CapSense_csxRawCount = 0u;
  85:Generated_Source\PSoC4/CapSense_SensingCSX_LL.c **** 
  86:Generated_Source\PSoC4/CapSense_SensingCSX_LL.c **** #if(CapSense_ENABLE == CapSense_CSDV2)
  87:Generated_Source\PSoC4/CapSense_SensingCSX_LL.c ****     volatile uint32 CapSense_resamplingCyclesCnt = CapSense_RESAMPLING_CYCLES_MAX_NUMBER;
  88:Generated_Source\PSoC4/CapSense_SensingCSX_LL.c **** #else
  89:Generated_Source\PSoC4/CapSense_SensingCSX_LL.c ****     /*  Local variable used by ASM function for raw count correction    */
  90:Generated_Source\PSoC4/CapSense_SensingCSX_LL.c ****     volatile uint32 CapSense_csxRawGarbage = 0u;
ARM GAS  C:\Users\TB1014~1\AppData\Local\Temp\ccLG6s4V.s 			page 3


  91:Generated_Source\PSoC4/CapSense_SensingCSX_LL.c **** #endif /* (CapSense_ENABLE == CapSense_CSDV2) */
  92:Generated_Source\PSoC4/CapSense_SensingCSX_LL.c **** 
  93:Generated_Source\PSoC4/CapSense_SensingCSX_LL.c **** /*  Pointer to Flash structure holding info of sensor to be scanned     */
  94:Generated_Source\PSoC4/CapSense_SensingCSX_LL.c **** #if (CapSense_CSX_GANGED_SNS_EN == 1u)
  95:Generated_Source\PSoC4/CapSense_SensingCSX_LL.c **** static CapSense_FLASH_SNS_STRUCT const *CapSense_curGangRxPtr = 0u;
  96:Generated_Source\PSoC4/CapSense_SensingCSX_LL.c **** static CapSense_FLASH_SNS_STRUCT const *CapSense_curGangTxPtr = 0u;
  97:Generated_Source\PSoC4/CapSense_SensingCSX_LL.c **** #endif
  98:Generated_Source\PSoC4/CapSense_SensingCSX_LL.c **** /*  Pointer to Flash structure to hold Tx electrode that was connected previously   */
  99:Generated_Source\PSoC4/CapSense_SensingCSX_LL.c **** static CapSense_FLASH_IO_STRUCT const *CapSense_curTxIOPtr;
 100:Generated_Source\PSoC4/CapSense_SensingCSX_LL.c **** /*  Pointer to Flash structure to hold Rx electrode that was connected previously   */
 101:Generated_Source\PSoC4/CapSense_SensingCSX_LL.c **** static CapSense_FLASH_IO_STRUCT const *CapSense_curRxIOPtr;
 102:Generated_Source\PSoC4/CapSense_SensingCSX_LL.c **** /*  Pointer to Pointer to function used to register callback in ISR     */
 103:Generated_Source\PSoC4/CapSense_SensingCSX_LL.c **** void (*CapSense_CSXPostScanApiPtr)(void) = &CapSense_SsCSXPostMultiScan;
 104:Generated_Source\PSoC4/CapSense_SensingCSX_LL.c **** 
 105:Generated_Source\PSoC4/CapSense_SensingCSX_LL.c **** /*  Local variable to hold total Tx in widget, while scanning all sensors in widget */
 106:Generated_Source\PSoC4/CapSense_SensingCSX_LL.c **** static uint16 CapSense_curWdgtTotalRx = 0u;
 107:Generated_Source\PSoC4/CapSense_SensingCSX_LL.c **** /*  Local variable to hold total Rx in widget, while scanning all sensors in widget */
 108:Generated_Source\PSoC4/CapSense_SensingCSX_LL.c **** static uint16 CapSense_curWdgtTotalTx = 0u;
 109:Generated_Source\PSoC4/CapSense_SensingCSX_LL.c **** /*  Flag to indicate that electrodes were connected previously  */
 110:Generated_Source\PSoC4/CapSense_SensingCSX_LL.c **** static uint16 CapSense_eleCsxDisconnectFlag = 0u;
 111:Generated_Source\PSoC4/CapSense_SensingCSX_LL.c **** 
 112:Generated_Source\PSoC4/CapSense_SensingCSX_LL.c **** /*******************************************************************************
 113:Generated_Source\PSoC4/CapSense_SensingCSX_LL.c **** * Function constants
 114:Generated_Source\PSoC4/CapSense_SensingCSX_LL.c **** *******************************************************************************/
 115:Generated_Source\PSoC4/CapSense_SensingCSX_LL.c **** 
 116:Generated_Source\PSoC4/CapSense_SensingCSX_LL.c **** #define  CapSense_NUM_HALF_CYCLES       2u
 117:Generated_Source\PSoC4/CapSense_SensingCSX_LL.c **** 
 118:Generated_Source\PSoC4/CapSense_SensingCSX_LL.c **** /*******************************************************************************
 119:Generated_Source\PSoC4/CapSense_SensingCSX_LL.c **** * Function Name: CapSense_CSXInitialize
 120:Generated_Source\PSoC4/CapSense_SensingCSX_LL.c **** ****************************************************************************//**
 121:Generated_Source\PSoC4/CapSense_SensingCSX_LL.c **** *
 122:Generated_Source\PSoC4/CapSense_SensingCSX_LL.c **** * \brief
 123:Generated_Source\PSoC4/CapSense_SensingCSX_LL.c **** *   Performs hardware and firmware initialization required for the CSX operation
 124:Generated_Source\PSoC4/CapSense_SensingCSX_LL.c **** *   of the CapSense component.
 125:Generated_Source\PSoC4/CapSense_SensingCSX_LL.c **** *
 126:Generated_Source\PSoC4/CapSense_SensingCSX_LL.c **** * \details
 127:Generated_Source\PSoC4/CapSense_SensingCSX_LL.c **** *   This function initializes hardware to perform the CSX sensing operation. This
 128:Generated_Source\PSoC4/CapSense_SensingCSX_LL.c **** *   function is called by the CapSense_Start() API during the component
 129:Generated_Source\PSoC4/CapSense_SensingCSX_LL.c **** *   initialization. If both CSX and CSD sensing methods are used in the component,
 130:Generated_Source\PSoC4/CapSense_SensingCSX_LL.c **** *   this function is called by the CapSense_SetupWidget() API to change hardware
 131:Generated_Source\PSoC4/CapSense_SensingCSX_LL.c **** *   configured for CSD to re-initialise for the CSX sensing.
 132:Generated_Source\PSoC4/CapSense_SensingCSX_LL.c **** *
 133:Generated_Source\PSoC4/CapSense_SensingCSX_LL.c **** *   If the CSD and CSX widgets are used in the component, it is recommended not to
 134:Generated_Source\PSoC4/CapSense_SensingCSX_LL.c **** *   mix the CSD widgets between the CSX widgets, instead, place all CSX widgets in
 135:Generated_Source\PSoC4/CapSense_SensingCSX_LL.c **** *   the required scanning order and then place the CSD widgets in the customizer.
 136:Generated_Source\PSoC4/CapSense_SensingCSX_LL.c **** *   For the component API, this action will eliminate the need for changing the hardware
 137:Generated_Source\PSoC4/CapSense_SensingCSX_LL.c **** *   configuration for every widget scan and will increase the execution speed
 138:Generated_Source\PSoC4/CapSense_SensingCSX_LL.c **** *   in the CapSense_ScanAllWidgets() when the API is called.
 139:Generated_Source\PSoC4/CapSense_SensingCSX_LL.c **** *
 140:Generated_Source\PSoC4/CapSense_SensingCSX_LL.c **** *   Similarly, it is recommended to set up and scan all the CSX widgets in such
 141:Generated_Source\PSoC4/CapSense_SensingCSX_LL.c **** *   a sequence that the CapSense_SetupWidget() API  shouldn't need
 142:Generated_Source\PSoC4/CapSense_SensingCSX_LL.c **** *   hardware  sensing-configuration change.
 143:Generated_Source\PSoC4/CapSense_SensingCSX_LL.c **** *
 144:Generated_Source\PSoC4/CapSense_SensingCSX_LL.c **** *   It is highly not recommended to call this API directly from the application layer.
 145:Generated_Source\PSoC4/CapSense_SensingCSX_LL.c **** *
 146:Generated_Source\PSoC4/CapSense_SensingCSX_LL.c **** *******************************************************************************/
 147:Generated_Source\PSoC4/CapSense_SensingCSX_LL.c **** 
ARM GAS  C:\Users\TB1014~1\AppData\Local\Temp\ccLG6s4V.s 			page 4


 148:Generated_Source\PSoC4/CapSense_SensingCSX_LL.c **** void CapSense_CSXInitialize(void)
 149:Generated_Source\PSoC4/CapSense_SensingCSX_LL.c **** {
 150:Generated_Source\PSoC4/CapSense_SensingCSX_LL.c ****     #if(CapSense_ENABLE == CapSense_CSDV2)
 151:Generated_Source\PSoC4/CapSense_SensingCSX_LL.c ****         uint8  interruptState;
 152:Generated_Source\PSoC4/CapSense_SensingCSX_LL.c ****         uint32 tmpRegVal;
 153:Generated_Source\PSoC4/CapSense_SensingCSX_LL.c **** 
 154:Generated_Source\PSoC4/CapSense_SensingCSX_LL.c ****         CY_SET_REG32(CapSense_INTR_PTR,             CapSense_DEFAULT_CSD_INTR_CFG);
 155:Generated_Source\PSoC4/CapSense_SensingCSX_LL.c ****         CY_SET_REG32(CapSense_INTR_SET_PTR,         CapSense_DEFAULT_CSD_INTR_SET_CFG);
 156:Generated_Source\PSoC4/CapSense_SensingCSX_LL.c ****         CY_SET_REG32(CapSense_INTR_MASK_PTR,        CapSense_DEFAULT_CSD_INTR_MASK_CFG);
 157:Generated_Source\PSoC4/CapSense_SensingCSX_LL.c ****         CY_SET_REG32(CapSense_HSCMP_PTR,            CapSense_DEFAULT_CSD_HSCMP_CFG);
 158:Generated_Source\PSoC4/CapSense_SensingCSX_LL.c ****         CY_SET_REG32(CapSense_AMBUF_PTR,            CapSense_DEFAULT_CSD_AMBUF_CFG);
 159:Generated_Source\PSoC4/CapSense_SensingCSX_LL.c ****         CY_SET_REG32(CapSense_REFGEN_PTR,           CapSense_DEFAULT_CSD_REFGEN_CFG);
 160:Generated_Source\PSoC4/CapSense_SensingCSX_LL.c ****         CY_SET_REG32(CapSense_CSDCMP_PTR,           CapSense_DEFAULT_CSD_CSDCMP_CFG);
 161:Generated_Source\PSoC4/CapSense_SensingCSX_LL.c ****         CY_SET_REG32(CapSense_IDAC_MOD_PTR,         CapSense_DEFAULT_CSD_IDACA_CFG);
 162:Generated_Source\PSoC4/CapSense_SensingCSX_LL.c **** 
 163:Generated_Source\PSoC4/CapSense_SensingCSX_LL.c ****         #if((0u != CapSense_ADC_EN) || (0u != CapSense_IDACB_USED))
 164:Generated_Source\PSoC4/CapSense_SensingCSX_LL.c ****             CY_SET_REG32(CapSense_IDAC_COMP_PTR,    CapSense_DEFAULT_CSD_IDACB_CFG);
 165:Generated_Source\PSoC4/CapSense_SensingCSX_LL.c ****         #endif /* (0u != CapSense_ADC_EN) || (0u != CapSense_IDACB_USED) */
 166:Generated_Source\PSoC4/CapSense_SensingCSX_LL.c **** 
 167:Generated_Source\PSoC4/CapSense_SensingCSX_LL.c ****         CY_SET_REG32(CapSense_SW_RES_PTR,           CapSense_DEFAULT_CSD_SW_RES_CFG);
 168:Generated_Source\PSoC4/CapSense_SensingCSX_LL.c ****         CY_SET_REG32(CapSense_SENSE_PERIOD_PTR,     CapSense_DEFAULT_CSD_SENSE_PERIOD_CFG);
 169:Generated_Source\PSoC4/CapSense_SensingCSX_LL.c ****         CY_SET_REG32(CapSense_SENSE_DUTY_PTR,       CapSense_DEFAULT_CSD_SENSE_DUTY_CFG);
 170:Generated_Source\PSoC4/CapSense_SensingCSX_LL.c ****         CY_SET_REG32(CapSense_SW_HS_P_SEL_PTR,      CapSense_DEFAULT_CSD_SW_HS_P_SEL_CFG);
 171:Generated_Source\PSoC4/CapSense_SensingCSX_LL.c ****         CY_SET_REG32(CapSense_SW_HS_N_SEL_PTR,      CapSense_DEFAULT_CSD_SW_HS_N_SEL_CFG);
 172:Generated_Source\PSoC4/CapSense_SensingCSX_LL.c ****         CY_SET_REG32(CapSense_SW_SHIELD_SEL_PTR,    CapSense_DEFAULT_CSD_SW_SHIELD_SEL_CFG);
 173:Generated_Source\PSoC4/CapSense_SensingCSX_LL.c ****         CY_SET_REG32(CapSense_SW_AMUXBUF_SEL_PTR,   CapSense_DEFAULT_CSD_SW_AMUXBUF_SEL_CFG);
 174:Generated_Source\PSoC4/CapSense_SensingCSX_LL.c **** 
 175:Generated_Source\PSoC4/CapSense_SensingCSX_LL.c ****         tmpRegVal = CY_GET_REG32(CapSense_SW_BYP_SEL_PTR);
 176:Generated_Source\PSoC4/CapSense_SensingCSX_LL.c ****         tmpRegVal |= CapSense_DEFAULT_CSD_SW_BYP_SEL_CFG;
 177:Generated_Source\PSoC4/CapSense_SensingCSX_LL.c ****         CY_SET_REG32(CapSense_SW_BYP_SEL_PTR,       tmpRegVal);
 178:Generated_Source\PSoC4/CapSense_SensingCSX_LL.c **** 
 179:Generated_Source\PSoC4/CapSense_SensingCSX_LL.c ****         CY_SET_REG32(CapSense_SW_CMP_P_SEL_PTR,     CapSense_DEFAULT_CSD_SW_CMP_P_SEL_CFG);
 180:Generated_Source\PSoC4/CapSense_SensingCSX_LL.c ****         CY_SET_REG32(CapSense_SW_CMP_N_SEL_PTR,     CapSense_DEFAULT_CSD_SW_CMP_N_SEL_CFG);
 181:Generated_Source\PSoC4/CapSense_SensingCSX_LL.c **** 
 182:Generated_Source\PSoC4/CapSense_SensingCSX_LL.c ****         tmpRegVal = CY_GET_REG32(CapSense_SW_REFGEN_SEL_PTR);
 183:Generated_Source\PSoC4/CapSense_SensingCSX_LL.c ****         tmpRegVal |= CapSense_DEFAULT_CSD_SW_REFGEN_SEL_CFG;
 184:Generated_Source\PSoC4/CapSense_SensingCSX_LL.c ****         CY_SET_REG32(CapSense_SW_REFGEN_SEL_PTR,    tmpRegVal);
 185:Generated_Source\PSoC4/CapSense_SensingCSX_LL.c **** 
 186:Generated_Source\PSoC4/CapSense_SensingCSX_LL.c ****         CY_SET_REG32(CapSense_SW_FW_MOD_SEL_PTR,    CapSense_DEFAULT_CSD_SW_FW_MOD_SEL_CFG);
 187:Generated_Source\PSoC4/CapSense_SensingCSX_LL.c ****         CY_SET_REG32(CapSense_SW_FW_TANK_SEL_PTR,   CapSense_DEFAULT_CSD_SW_FW_TANK_SEL_CFG);
 188:Generated_Source\PSoC4/CapSense_SensingCSX_LL.c ****         CY_SET_REG32(CapSense_SW_DSI_SEL_PTR,       CapSense_DEFAULT_CSD_SW_DSI_SEL_CFG);
 189:Generated_Source\PSoC4/CapSense_SensingCSX_LL.c ****         CY_SET_REG32(CapSense_SEQ_TIME_PTR,         CapSense_DEFAULT_CSD_SEQ_TIME_CFG);
 190:Generated_Source\PSoC4/CapSense_SensingCSX_LL.c ****         CY_SET_REG32(CapSense_SEQ_INIT_CNT_PTR,     CapSense_DEFAULT_CSD_SEQ_INIT_CNT_CFG);
 191:Generated_Source\PSoC4/CapSense_SensingCSX_LL.c ****         CY_SET_REG32(CapSense_SEQ_NORM_CNT_PTR,     CapSense_DEFAULT_CSD_SEQ_NORM_CNT_CFG);
 192:Generated_Source\PSoC4/CapSense_SensingCSX_LL.c ****         CY_SET_REG32(CapSense_ADC_CTL_PTR,          CapSense_DEFAULT_CSD_ADC_CTL_CFG);
 193:Generated_Source\PSoC4/CapSense_SensingCSX_LL.c ****         CY_SET_REG32(CapSense_SEQ_START_PTR,        CapSense_DEFAULT_CSD_SEQ_START_CFG);
 194:Generated_Source\PSoC4/CapSense_SensingCSX_LL.c **** 
 195:Generated_Source\PSoC4/CapSense_SensingCSX_LL.c ****         interruptState = CyEnterCriticalSection();
 196:Generated_Source\PSoC4/CapSense_SensingCSX_LL.c ****         tmpRegVal = CY_GET_REG32(CapSense_CintA_PC_PTR);
 197:Generated_Source\PSoC4/CapSense_SensingCSX_LL.c ****         tmpRegVal &= (~(CapSense_GPIO_PC_MASK << (CapSense_CintA_SHIFT * CapSense_GPIO_PC_BIT_SIZE)
 198:Generated_Source\PSoC4/CapSense_SensingCSX_LL.c ****         CY_SET_REG32(CapSense_CintA_PC_PTR, tmpRegVal);
 199:Generated_Source\PSoC4/CapSense_SensingCSX_LL.c ****         CyExitCriticalSection(interruptState);
 200:Generated_Source\PSoC4/CapSense_SensingCSX_LL.c **** 
 201:Generated_Source\PSoC4/CapSense_SensingCSX_LL.c ****         interruptState = CyEnterCriticalSection();
 202:Generated_Source\PSoC4/CapSense_SensingCSX_LL.c ****         tmpRegVal = CY_GET_REG32(CapSense_CintB_PC_PTR);
 203:Generated_Source\PSoC4/CapSense_SensingCSX_LL.c ****         tmpRegVal &= (~(CapSense_GPIO_PC_MASK << (CapSense_CintB__SHIFT * CapSense_GPIO_PC_BIT_SIZE
 204:Generated_Source\PSoC4/CapSense_SensingCSX_LL.c ****         CY_SET_REG32(CapSense_CintB_PC_PTR, tmpRegVal);
ARM GAS  C:\Users\TB1014~1\AppData\Local\Temp\ccLG6s4V.s 			page 5


 205:Generated_Source\PSoC4/CapSense_SensingCSX_LL.c ****         CyExitCriticalSection(interruptState);
 206:Generated_Source\PSoC4/CapSense_SensingCSX_LL.c **** 
 207:Generated_Source\PSoC4/CapSense_SensingCSX_LL.c ****         /* Connect CintA_tank pin to AMUXBUS-A using HSIOM registers. */
 208:Generated_Source\PSoC4/CapSense_SensingCSX_LL.c ****         interruptState = CyEnterCriticalSection();
 209:Generated_Source\PSoC4/CapSense_SensingCSX_LL.c ****         tmpRegVal = CY_GET_REG32(CapSense_CintA_HSIOM_PTR);
 210:Generated_Source\PSoC4/CapSense_SensingCSX_LL.c ****         tmpRegVal &= ~CapSense_CintA_HSIOM_MASK;
 211:Generated_Source\PSoC4/CapSense_SensingCSX_LL.c ****         tmpRegVal |= (CapSense_HSIOM_SEL_AMUXA << CapSense_CintA_HSIOM_SHIFT);
 212:Generated_Source\PSoC4/CapSense_SensingCSX_LL.c ****         CY_SET_REG32(CapSense_CintA_HSIOM_PTR, tmpRegVal);
 213:Generated_Source\PSoC4/CapSense_SensingCSX_LL.c ****         CyExitCriticalSection(interruptState);
 214:Generated_Source\PSoC4/CapSense_SensingCSX_LL.c **** 
 215:Generated_Source\PSoC4/CapSense_SensingCSX_LL.c ****         /* Connect CintB to AMUXBUS-A using HSIOM registers. */
 216:Generated_Source\PSoC4/CapSense_SensingCSX_LL.c ****         interruptState = CyEnterCriticalSection();
 217:Generated_Source\PSoC4/CapSense_SensingCSX_LL.c ****         tmpRegVal = CY_GET_REG32(CapSense_CintB_HSIOM_PTR);
 218:Generated_Source\PSoC4/CapSense_SensingCSX_LL.c ****         tmpRegVal &= ~CapSense_CintB_HSIOM_MASK;
 219:Generated_Source\PSoC4/CapSense_SensingCSX_LL.c ****         tmpRegVal |= (CapSense_HSIOM_SEL_AMUXA << CapSense_CintB_HSIOM_SHIFT);
 220:Generated_Source\PSoC4/CapSense_SensingCSX_LL.c ****         CY_SET_REG32(CapSense_CintB_HSIOM_PTR, tmpRegVal);
 221:Generated_Source\PSoC4/CapSense_SensingCSX_LL.c ****         CyExitCriticalSection(interruptState);
 222:Generated_Source\PSoC4/CapSense_SensingCSX_LL.c **** 
 223:Generated_Source\PSoC4/CapSense_SensingCSX_LL.c ****         CapSense_SsSetModClkClockDivider((uint32)CapSense_dsRam.modCsxClk);
 224:Generated_Source\PSoC4/CapSense_SensingCSX_LL.c **** 
 225:Generated_Source\PSoC4/CapSense_SensingCSX_LL.c ****         #if (CapSense_ENABLE == CapSense_CSX_COMMON_TX_CLK_EN)
 226:Generated_Source\PSoC4/CapSense_SensingCSX_LL.c ****             CapSense_SsSetSnsClockDivider((uint32)CapSense_dsRam.snsCsxClk);
 227:Generated_Source\PSoC4/CapSense_SensingCSX_LL.c ****         #endif
 228:Generated_Source\PSoC4/CapSense_SensingCSX_LL.c **** 
 229:Generated_Source\PSoC4/CapSense_SensingCSX_LL.c ****         /*  Set all IO states to default state  */
 230:Generated_Source\PSoC4/CapSense_SensingCSX_LL.c ****         CapSense_SsSetIOsInDefaultState();
 231:Generated_Source\PSoC4/CapSense_SensingCSX_LL.c **** 
 232:Generated_Source\PSoC4/CapSense_SensingCSX_LL.c ****     #else
 233:Generated_Source\PSoC4/CapSense_SensingCSX_LL.c ****         uint32 trimValue;
 234:Generated_Source\PSoC4/CapSense_SensingCSX_LL.c **** 
 235:Generated_Source\PSoC4/CapSense_SensingCSX_LL.c ****         /*  Set all IO states to default state  */
 236:Generated_Source\PSoC4/CapSense_SensingCSX_LL.c ****         CapSense_SsSetIOsInDefaultState();
 237:Generated_Source\PSoC4/CapSense_SensingCSX_LL.c **** 
 238:Generated_Source\PSoC4/CapSense_SensingCSX_LL.c ****         /*  Connect CintB to AMUXBUS-A using HSIOM registers.   */
 239:Generated_Source\PSoC4/CapSense_SensingCSX_LL.c **** 
 240:Generated_Source\PSoC4/CapSense_SensingCSX_LL.c ****         trimValue = CY_GET_REG32(CapSense_CintB_HSIOM_PTR);
 241:Generated_Source\PSoC4/CapSense_SensingCSX_LL.c ****         trimValue &= ~CapSense_CintB_HSIOM_MASK;
 242:Generated_Source\PSoC4/CapSense_SensingCSX_LL.c ****         trimValue |= (CapSense_HSIOM_SEL_AMUXA << CapSense_CintB_HSIOM_SHIFT);
 243:Generated_Source\PSoC4/CapSense_SensingCSX_LL.c ****         CY_SET_REG32(CapSense_CintB_HSIOM_PTR, trimValue);
 244:Generated_Source\PSoC4/CapSense_SensingCSX_LL.c **** 
 245:Generated_Source\PSoC4/CapSense_SensingCSX_LL.c ****         /*  Set drive mode of CintB pin to High-Z Analog state in PC register
 246:Generated_Source\PSoC4/CapSense_SensingCSX_LL.c ****             and set logic high on DR register.  */
 247:Generated_Source\PSoC4/CapSense_SensingCSX_LL.c ****         trimValue = CY_GET_REG32(CapSense_CintB_PC_PTR);
 248:Generated_Source\PSoC4/CapSense_SensingCSX_LL.c ****         trimValue &= ~(CapSense_GPIO_PC_MASK << (CapSense_CintB__SHIFT * CapSense_GPIO_PC_BIT_SIZE 
 249:Generated_Source\PSoC4/CapSense_SensingCSX_LL.c ****         CY_SET_REG32(CapSense_CintB_PC_PTR, trimValue);
 250:Generated_Source\PSoC4/CapSense_SensingCSX_LL.c **** 
 251:Generated_Source\PSoC4/CapSense_SensingCSX_LL.c ****         trimValue = CY_GET_REG32(CapSense_CintB_DR_PTR);
 252:Generated_Source\PSoC4/CapSense_SensingCSX_LL.c ****         trimValue &= ~(uint32)((uint32)0x01u << CapSense_CintB__SHIFT);
 253:Generated_Source\PSoC4/CapSense_SensingCSX_LL.c ****         CY_SET_REG32(CapSense_CintB_DR_PTR, trimValue);
 254:Generated_Source\PSoC4/CapSense_SensingCSX_LL.c **** 
 255:Generated_Source\PSoC4/CapSense_SensingCSX_LL.c ****         /*  Connect CintA_tank pin to AMUXBUS-A using HSIOM registers.  */
 256:Generated_Source\PSoC4/CapSense_SensingCSX_LL.c ****         trimValue = CY_GET_REG32(CapSense_CintA_HSIOM_PTR);
 257:Generated_Source\PSoC4/CapSense_SensingCSX_LL.c ****         trimValue &= ~CapSense_CintA_HSIOM_MASK;
 258:Generated_Source\PSoC4/CapSense_SensingCSX_LL.c ****         trimValue |= (CapSense_HSIOM_SEL_AMUXA << CapSense_CintA_HSIOM_SHIFT);
 259:Generated_Source\PSoC4/CapSense_SensingCSX_LL.c ****         CY_SET_REG32(CapSense_CintA_HSIOM_PTR, trimValue);
 260:Generated_Source\PSoC4/CapSense_SensingCSX_LL.c **** 
 261:Generated_Source\PSoC4/CapSense_SensingCSX_LL.c ****         /*  Set drive mode of CintA_tank pin to High-Z Analog state in PC register
ARM GAS  C:\Users\TB1014~1\AppData\Local\Temp\ccLG6s4V.s 			page 6


 262:Generated_Source\PSoC4/CapSense_SensingCSX_LL.c ****             and set logic high on DR register.  */
 263:Generated_Source\PSoC4/CapSense_SensingCSX_LL.c ****         trimValue = CY_GET_REG32(CapSense_CintA_PC_PTR);
 264:Generated_Source\PSoC4/CapSense_SensingCSX_LL.c ****         trimValue &= ~(CapSense_GPIO_PC_MASK << (CapSense_CintA_SHIFT * CapSense_GPIO_PC_BIT_SIZE )
 265:Generated_Source\PSoC4/CapSense_SensingCSX_LL.c ****         CY_SET_REG32(CapSense_CintA_PC_PTR, trimValue);
 266:Generated_Source\PSoC4/CapSense_SensingCSX_LL.c **** 
 267:Generated_Source\PSoC4/CapSense_SensingCSX_LL.c ****         trimValue = CY_GET_REG32(CapSense_CintA_DR_PTR);
 268:Generated_Source\PSoC4/CapSense_SensingCSX_LL.c ****         trimValue &= ~(uint32)((uint32)0x01u << CapSense_CintA_SHIFT);
 269:Generated_Source\PSoC4/CapSense_SensingCSX_LL.c ****         CY_SET_REG32(CapSense_CintA_DR_PTR, trimValue);
 270:Generated_Source\PSoC4/CapSense_SensingCSX_LL.c **** 
 271:Generated_Source\PSoC4/CapSense_SensingCSX_LL.c ****         /*  Connect CSD comparator to CintB via AMUXBUS-A   */
 272:Generated_Source\PSoC4/CapSense_SensingCSX_LL.c ****         trimValue = CY_GET_REG32(CapSense_CONFIG_PTR);
 273:Generated_Source\PSoC4/CapSense_SensingCSX_LL.c ****         trimValue |= CapSense_CONFIG_SENSE_INSEL_MASK;
 274:Generated_Source\PSoC4/CapSense_SensingCSX_LL.c ****         CY_SET_REG32(CapSense_CONFIG_PTR, trimValue);
 275:Generated_Source\PSoC4/CapSense_SensingCSX_LL.c **** 
 276:Generated_Source\PSoC4/CapSense_SensingCSX_LL.c ****         /*  If common clocks are enabled for component, set clock
 277:Generated_Source\PSoC4/CapSense_SensingCSX_LL.c ****             divider for sensor and modulator clocks and start/restart them  */
 278:Generated_Source\PSoC4/CapSense_SensingCSX_LL.c ****         #if (CapSense_CSX_COMMON_TX_CLK_EN == CapSense_ENABLE)
 279:Generated_Source\PSoC4/CapSense_SensingCSX_LL.c ****             CapSense_SsSetClockDividers((uint32)CapSense_dsRam.snsCsxClk, (uint32)CapSense_dsRam.mo
 280:Generated_Source\PSoC4/CapSense_SensingCSX_LL.c ****         #endif
 281:Generated_Source\PSoC4/CapSense_SensingCSX_LL.c ****     #endif /* (CapSense_ENABLE == CapSense_CSDV2) */
 282:Generated_Source\PSoC4/CapSense_SensingCSX_LL.c ****     /* Enable CapSense ISR  and set ISR for CSX sensing */
 283:Generated_Source\PSoC4/CapSense_SensingCSX_LL.c ****     CapSense_SsIsrInitialize(&CapSense_SsCSXScanISR);
 284:Generated_Source\PSoC4/CapSense_SensingCSX_LL.c **** }
 285:Generated_Source\PSoC4/CapSense_SensingCSX_LL.c **** 
 286:Generated_Source\PSoC4/CapSense_SensingCSX_LL.c **** 
 287:Generated_Source\PSoC4/CapSense_SensingCSX_LL.c **** /*******************************************************************************
 288:Generated_Source\PSoC4/CapSense_SensingCSX_LL.c **** * Function Name: CapSense_CSXElectrodeCheck
 289:Generated_Source\PSoC4/CapSense_SensingCSX_LL.c **** ****************************************************************************//**
 290:Generated_Source\PSoC4/CapSense_SensingCSX_LL.c **** *
 291:Generated_Source\PSoC4/CapSense_SensingCSX_LL.c **** * \brief
 292:Generated_Source\PSoC4/CapSense_SensingCSX_LL.c **** *   Check if electrodes were previously connected using
 293:Generated_Source\PSoC4/CapSense_SensingCSX_LL.c **** *   the CapSense_CSXSetupWidgetExt() API and if yes, disconnect them.
 294:Generated_Source\PSoC4/CapSense_SensingCSX_LL.c **** *
 295:Generated_Source\PSoC4/CapSense_SensingCSX_LL.c **** * \details
 296:Generated_Source\PSoC4/CapSense_SensingCSX_LL.c **** *   This function checks if CapSense_eleCsxDisconnectFlag is set.
 297:Generated_Source\PSoC4/CapSense_SensingCSX_LL.c **** *   If it is set, the function disconnects the previously connected electrode.
 298:Generated_Source\PSoC4/CapSense_SensingCSX_LL.c **** *
 299:Generated_Source\PSoC4/CapSense_SensingCSX_LL.c **** *******************************************************************************/
 300:Generated_Source\PSoC4/CapSense_SensingCSX_LL.c **** void CapSense_CSXElectrodeCheck(void)
 301:Generated_Source\PSoC4/CapSense_SensingCSX_LL.c **** {
 302:Generated_Source\PSoC4/CapSense_SensingCSX_LL.c ****     #if (0u != CapSense_CSX_GANGED_SNS_EN)
 303:Generated_Source\PSoC4/CapSense_SensingCSX_LL.c ****         uint32 numElectrodes;
 304:Generated_Source\PSoC4/CapSense_SensingCSX_LL.c ****     #endif /* (0u != CapSense_CSX_GANGED_SNS_EN)  */
 305:Generated_Source\PSoC4/CapSense_SensingCSX_LL.c **** 
 306:Generated_Source\PSoC4/CapSense_SensingCSX_LL.c ****     if (0u != CapSense_eleCsxDisconnectFlag)
 307:Generated_Source\PSoC4/CapSense_SensingCSX_LL.c ****     {
 308:Generated_Source\PSoC4/CapSense_SensingCSX_LL.c ****        /* Disconnect if electrodes were previous connected by SetupWidgetExt() API */
 309:Generated_Source\PSoC4/CapSense_SensingCSX_LL.c ****         #if (0u != CapSense_CSX_GANGED_SNS_EN)
 310:Generated_Source\PSoC4/CapSense_SensingCSX_LL.c ****             /* Check ganged sns flag */
 311:Generated_Source\PSoC4/CapSense_SensingCSX_LL.c ****             if (CapSense_GANGED_SNS_MASK == (CapSense_curFlashWdgtPtr->staticConfig & CapSense_GANG
 312:Generated_Source\PSoC4/CapSense_SensingCSX_LL.c ****             {
 313:Generated_Source\PSoC4/CapSense_SensingCSX_LL.c ****                 /*  1. Get number of pins in previous connected Tx electrode
 314:Generated_Source\PSoC4/CapSense_SensingCSX_LL.c ****                     3. Get Tx pointer
 315:Generated_Source\PSoC4/CapSense_SensingCSX_LL.c ****                     4. Disconnect all Tx   */
 316:Generated_Source\PSoC4/CapSense_SensingCSX_LL.c ****                 numElectrodes = CapSense_curGangTxPtr->numPins;
 317:Generated_Source\PSoC4/CapSense_SensingCSX_LL.c ****                 CapSense_curTxIOPtr = &CapSense_ioList[CapSense_curGangTxPtr->firstPinId];
 318:Generated_Source\PSoC4/CapSense_SensingCSX_LL.c **** 
ARM GAS  C:\Users\TB1014~1\AppData\Local\Temp\ccLG6s4V.s 			page 7


 319:Generated_Source\PSoC4/CapSense_SensingCSX_LL.c ****                 do
 320:Generated_Source\PSoC4/CapSense_SensingCSX_LL.c ****                 {
 321:Generated_Source\PSoC4/CapSense_SensingCSX_LL.c ****                     CapSense_CSXDisconnectTx(CapSense_curTxIOPtr++);
 322:Generated_Source\PSoC4/CapSense_SensingCSX_LL.c ****                     numElectrodes--;
 323:Generated_Source\PSoC4/CapSense_SensingCSX_LL.c ****                 } while (0u != numElectrodes);
 324:Generated_Source\PSoC4/CapSense_SensingCSX_LL.c **** 
 325:Generated_Source\PSoC4/CapSense_SensingCSX_LL.c ****                 /*  1. Get number of pins in previous connected Rx electrode
 326:Generated_Source\PSoC4/CapSense_SensingCSX_LL.c ****                     3. Get Rx pointer
 327:Generated_Source\PSoC4/CapSense_SensingCSX_LL.c ****                     4. Disconnect all Rx   */
 328:Generated_Source\PSoC4/CapSense_SensingCSX_LL.c ****                 numElectrodes = CapSense_curGangRxPtr->numPins;
 329:Generated_Source\PSoC4/CapSense_SensingCSX_LL.c ****                 CapSense_curRxIOPtr = &CapSense_ioList[CapSense_curGangRxPtr->firstPinId];
 330:Generated_Source\PSoC4/CapSense_SensingCSX_LL.c **** 
 331:Generated_Source\PSoC4/CapSense_SensingCSX_LL.c ****                 do
 332:Generated_Source\PSoC4/CapSense_SensingCSX_LL.c ****                 {
 333:Generated_Source\PSoC4/CapSense_SensingCSX_LL.c ****                     CapSense_CSXDisconnectRx(CapSense_curRxIOPtr++);
 334:Generated_Source\PSoC4/CapSense_SensingCSX_LL.c ****                     numElectrodes--;
 335:Generated_Source\PSoC4/CapSense_SensingCSX_LL.c ****                 } while (0u != numElectrodes);
 336:Generated_Source\PSoC4/CapSense_SensingCSX_LL.c ****             }
 337:Generated_Source\PSoC4/CapSense_SensingCSX_LL.c ****             else
 338:Generated_Source\PSoC4/CapSense_SensingCSX_LL.c ****             {
 339:Generated_Source\PSoC4/CapSense_SensingCSX_LL.c ****                 /*  Disconnect if electrodes were previous connected by SetupWidgetExt API  */
 340:Generated_Source\PSoC4/CapSense_SensingCSX_LL.c ****                 CapSense_CSXDisconnectTx(CapSense_curTxIOPtr);
 341:Generated_Source\PSoC4/CapSense_SensingCSX_LL.c ****                 CapSense_CSXDisconnectRx(CapSense_curRxIOPtr);
 342:Generated_Source\PSoC4/CapSense_SensingCSX_LL.c ****             }
 343:Generated_Source\PSoC4/CapSense_SensingCSX_LL.c ****         #else
 344:Generated_Source\PSoC4/CapSense_SensingCSX_LL.c ****             /*  Disconnect if electrodes were previous connected by SetupWidgetExt API  */
 345:Generated_Source\PSoC4/CapSense_SensingCSX_LL.c ****             CapSense_CSXDisconnectTx(CapSense_curTxIOPtr);
 346:Generated_Source\PSoC4/CapSense_SensingCSX_LL.c ****             CapSense_CSXDisconnectRx(CapSense_curRxIOPtr);
 347:Generated_Source\PSoC4/CapSense_SensingCSX_LL.c ****         #endif
 348:Generated_Source\PSoC4/CapSense_SensingCSX_LL.c ****         CapSense_eleCsxDisconnectFlag = 0u;
 349:Generated_Source\PSoC4/CapSense_SensingCSX_LL.c ****     }
 350:Generated_Source\PSoC4/CapSense_SensingCSX_LL.c **** }
 351:Generated_Source\PSoC4/CapSense_SensingCSX_LL.c **** 
 352:Generated_Source\PSoC4/CapSense_SensingCSX_LL.c **** 
 353:Generated_Source\PSoC4/CapSense_SensingCSX_LL.c **** /*******************************************************************************
 354:Generated_Source\PSoC4/CapSense_SensingCSX_LL.c **** * Function Name: CapSense_CSXSetupWidget
 355:Generated_Source\PSoC4/CapSense_SensingCSX_LL.c **** ****************************************************************************//**
 356:Generated_Source\PSoC4/CapSense_SensingCSX_LL.c **** *
 357:Generated_Source\PSoC4/CapSense_SensingCSX_LL.c **** * \brief
 358:Generated_Source\PSoC4/CapSense_SensingCSX_LL.c **** *  Performs hardware and firmware initialization required for scanning sensors
 359:Generated_Source\PSoC4/CapSense_SensingCSX_LL.c **** *  in a specific widget using the CSX sensing method. The
 360:Generated_Source\PSoC4/CapSense_SensingCSX_LL.c **** *  CapSense_CSDScan() function should be used to start scanning when
 361:Generated_Source\PSoC4/CapSense_SensingCSX_LL.c **** *  using this function.
 362:Generated_Source\PSoC4/CapSense_SensingCSX_LL.c **** *
 363:Generated_Source\PSoC4/CapSense_SensingCSX_LL.c **** * \details
 364:Generated_Source\PSoC4/CapSense_SensingCSX_LL.c **** *  This function initializes the widgets specific common parameters to perform
 365:Generated_Source\PSoC4/CapSense_SensingCSX_LL.c **** *  the CSX scanning. The initialization includes the following:
 366:Generated_Source\PSoC4/CapSense_SensingCSX_LL.c **** *    1. The CSD_CONFIG register.
 367:Generated_Source\PSoC4/CapSense_SensingCSX_LL.c **** *    2. The IDAC register.
 368:Generated_Source\PSoC4/CapSense_SensingCSX_LL.c **** *    3. The Sense clock frequency
 369:Generated_Source\PSoC4/CapSense_SensingCSX_LL.c **** *    4. The phase alignment of the sense and modulator clocks.
 370:Generated_Source\PSoC4/CapSense_SensingCSX_LL.c **** *
 371:Generated_Source\PSoC4/CapSense_SensingCSX_LL.c **** *  This function does not connect any specific sensors to the scanning hardware
 372:Generated_Source\PSoC4/CapSense_SensingCSX_LL.c **** *  and also does not start a scanning process. The CapSense_CSXScan()
 373:Generated_Source\PSoC4/CapSense_SensingCSX_LL.c **** *  function must be called after initializing the widget to start scanning.
 374:Generated_Source\PSoC4/CapSense_SensingCSX_LL.c **** *
 375:Generated_Source\PSoC4/CapSense_SensingCSX_LL.c **** *  This function should be called when no scanning in progress. I.e.
ARM GAS  C:\Users\TB1014~1\AppData\Local\Temp\ccLG6s4V.s 			page 8


 376:Generated_Source\PSoC4/CapSense_SensingCSX_LL.c **** *  CapSense_IsBusy() returns a non-busy status.
 377:Generated_Source\PSoC4/CapSense_SensingCSX_LL.c **** *
 378:Generated_Source\PSoC4/CapSense_SensingCSX_LL.c **** *  This function is called by the CapSense_SetupWidget() API if the
 379:Generated_Source\PSoC4/CapSense_SensingCSX_LL.c **** *  given widget uses the CSX sensing method.
 380:Generated_Source\PSoC4/CapSense_SensingCSX_LL.c **** *
 381:Generated_Source\PSoC4/CapSense_SensingCSX_LL.c **** *  It is not recommended to call this function directly from the application.
 382:Generated_Source\PSoC4/CapSense_SensingCSX_LL.c **** *  layer. This function should be used to implement only the user’s specific
 383:Generated_Source\PSoC4/CapSense_SensingCSX_LL.c **** *  use cases (for faster execution time or pipeline scanning for example).
 384:Generated_Source\PSoC4/CapSense_SensingCSX_LL.c **** *
 385:Generated_Source\PSoC4/CapSense_SensingCSX_LL.c **** * \param widgetIndex
 386:Generated_Source\PSoC4/CapSense_SensingCSX_LL.c **** *  Specify the ID number of the widget to perform hardware and firmware
 387:Generated_Source\PSoC4/CapSense_SensingCSX_LL.c **** *  initialization required for scanning sensors in the specific widget.
 388:Generated_Source\PSoC4/CapSense_SensingCSX_LL.c **** *  A macro for the widget ID can be found in the CapSense Configuration header
 389:Generated_Source\PSoC4/CapSense_SensingCSX_LL.c **** *  file defined as CapSense_<WidgetName>_WDGT_ID.
 390:Generated_Source\PSoC4/CapSense_SensingCSX_LL.c **** *
 391:Generated_Source\PSoC4/CapSense_SensingCSX_LL.c **** *******************************************************************************/
 392:Generated_Source\PSoC4/CapSense_SensingCSX_LL.c **** 
 393:Generated_Source\PSoC4/CapSense_SensingCSX_LL.c **** void CapSense_CSXSetupWidget(uint32 widgetIndex)
 394:Generated_Source\PSoC4/CapSense_SensingCSX_LL.c **** {
 395:Generated_Source\PSoC4/CapSense_SensingCSX_LL.c ****     /* variable to access widget details    */
 396:Generated_Source\PSoC4/CapSense_SensingCSX_LL.c ****     CapSense_RAM_WD_BASE_STRUCT * curRamWdgtBasePtr;
 397:Generated_Source\PSoC4/CapSense_SensingCSX_LL.c **** 
 398:Generated_Source\PSoC4/CapSense_SensingCSX_LL.c ****     #if (CapSense_ENABLE == CapSense_CSDV2)
 399:Generated_Source\PSoC4/CapSense_SensingCSX_LL.c ****         uint32 tmpRegVal;
 400:Generated_Source\PSoC4/CapSense_SensingCSX_LL.c ****         uint32 snsClkVal;
 401:Generated_Source\PSoC4/CapSense_SensingCSX_LL.c ****     #endif /* (CapSense_DISABLE == CapSense_CSDV2) */
 402:Generated_Source\PSoC4/CapSense_SensingCSX_LL.c **** 
 403:Generated_Source\PSoC4/CapSense_SensingCSX_LL.c ****     #if ((CapSense_ENABLE == CapSense_CSD_CSX_EN) || \
 404:Generated_Source\PSoC4/CapSense_SensingCSX_LL.c ****         (CapSense_ENABLE == CapSense_SELF_TEST_EN) || \
 405:Generated_Source\PSoC4/CapSense_SensingCSX_LL.c ****         (CapSense_ENABLE == CapSense_ADC_EN))
 406:Generated_Source\PSoC4/CapSense_SensingCSX_LL.c ****          CapSense_SsSwitchSensingMode(CapSense_SENSE_METHOD_CSX_E);
 407:Generated_Source\PSoC4/CapSense_SensingCSX_LL.c ****     #endif /* ((CapSense_ENABLE == CapSense_CSD_CSX_EN) || \
 408:Generated_Source\PSoC4/CapSense_SensingCSX_LL.c ****                (CapSense_ENABLE == CapSense_SELF_TEST_EN) || \
 409:Generated_Source\PSoC4/CapSense_SensingCSX_LL.c ****                (CapSense_ENABLE == CapSense_ADC_EN)) */
 410:Generated_Source\PSoC4/CapSense_SensingCSX_LL.c **** 
 411:Generated_Source\PSoC4/CapSense_SensingCSX_LL.c ****     /*  Check if CSX electrodes were previously connected using
 412:Generated_Source\PSoC4/CapSense_SensingCSX_LL.c ****         CapSense_CSXSetupWidgetExt API and if yes, disconnect them  */
 413:Generated_Source\PSoC4/CapSense_SensingCSX_LL.c ****     CapSense_CSXElectrodeCheck();
 414:Generated_Source\PSoC4/CapSense_SensingCSX_LL.c **** 
 415:Generated_Source\PSoC4/CapSense_SensingCSX_LL.c ****     /* Save the current widget Id */
 416:Generated_Source\PSoC4/CapSense_SensingCSX_LL.c ****     CapSense_widgetIndex = (uint8)widgetIndex;
 417:Generated_Source\PSoC4/CapSense_SensingCSX_LL.c **** 
 418:Generated_Source\PSoC4/CapSense_SensingCSX_LL.c ****     /*  Configure hardware block */
 419:Generated_Source\PSoC4/CapSense_SensingCSX_LL.c ****     #if (CapSense_DISABLE == CapSense_CSDV2)
 420:Generated_Source\PSoC4/CapSense_SensingCSX_LL.c ****         /*  Initialise access pointers for current:
 421:Generated_Source\PSoC4/CapSense_SensingCSX_LL.c ****             1. Pointer to widget configuration in Flash
 422:Generated_Source\PSoC4/CapSense_SensingCSX_LL.c ****             2. Widget configuration in RAM
 423:Generated_Source\PSoC4/CapSense_SensingCSX_LL.c ****             3. Make a local copy of widget index    */
 424:Generated_Source\PSoC4/CapSense_SensingCSX_LL.c ****         CapSense_curFlashWdgtPtr = &CapSense_dsFlash.wdgtArray[widgetIndex];
 425:Generated_Source\PSoC4/CapSense_SensingCSX_LL.c ****         curRamWdgtBasePtr = (CapSense_RAM_WD_BASE_STRUCT *)CapSense_curFlashWdgtPtr->ptr2WdgtRam;
 426:Generated_Source\PSoC4/CapSense_SensingCSX_LL.c **** 
 427:Generated_Source\PSoC4/CapSense_SensingCSX_LL.c ****         CY_SET_REG32(CapSense_CONFIG_PTR, CapSense_CONFIG_ENABLE_MASK);
 428:Generated_Source\PSoC4/CapSense_SensingCSX_LL.c ****         CY_SET_REG32(CapSense_CONFIG_PTR, (CY_GET_REG32(CapSense_CONFIG_PTR) |
 429:Generated_Source\PSoC4/CapSense_SensingCSX_LL.c ****                                 CapSense_CONFIG_MUTUALCAP_EN_MASK     |
 430:Generated_Source\PSoC4/CapSense_SensingCSX_LL.c ****                                 CapSense_CONFIG_SENSE_COMP_BW_MASK    |
 431:Generated_Source\PSoC4/CapSense_SensingCSX_LL.c ****                                 CapSense_CONFIG_SENSE_COMP_EN_MASK    |
 432:Generated_Source\PSoC4/CapSense_SensingCSX_LL.c ****                                 CapSense_CONFIG_SENSE_INSEL_MASK      |
ARM GAS  C:\Users\TB1014~1\AppData\Local\Temp\ccLG6s4V.s 			page 9


 433:Generated_Source\PSoC4/CapSense_SensingCSX_LL.c ****                                 CapSense_CONFIG_REFBUF_EN_MASK        |
 434:Generated_Source\PSoC4/CapSense_SensingCSX_LL.c ****                                 CapSense_CONFIG_REFBUF_DRV_MASK));
 435:Generated_Source\PSoC4/CapSense_SensingCSX_LL.c **** 
 436:Generated_Source\PSoC4/CapSense_SensingCSX_LL.c ****         /*  If individual clocks are enabled for each widget, set clock
 437:Generated_Source\PSoC4/CapSense_SensingCSX_LL.c ****             divider for sensor and modulator clocks and start/restart them.  */
 438:Generated_Source\PSoC4/CapSense_SensingCSX_LL.c ****         #if (CapSense_CSX_COMMON_TX_CLK_EN == CapSense_DISABLE)
 439:Generated_Source\PSoC4/CapSense_SensingCSX_LL.c ****             CapSense_SsSetClockDividers((uint32)curRamWdgtBasePtr->snsClk, (uint32)CapSense_dsRam.m
 440:Generated_Source\PSoC4/CapSense_SensingCSX_LL.c ****         #endif
 441:Generated_Source\PSoC4/CapSense_SensingCSX_LL.c **** 
 442:Generated_Source\PSoC4/CapSense_SensingCSX_LL.c ****         /*  Find scan period */
 443:Generated_Source\PSoC4/CapSense_SensingCSX_LL.c ****         CapSense_csxScanPeriod = CapSense_SsCalcCsxScanPeriod(curRamWdgtBasePtr);
 444:Generated_Source\PSoC4/CapSense_SensingCSX_LL.c ****     #else
 445:Generated_Source\PSoC4/CapSense_SensingCSX_LL.c ****         CapSense_curFlashWdgtPtr = &CapSense_dsFlash.wdgtArray[widgetIndex];
 446:Generated_Source\PSoC4/CapSense_SensingCSX_LL.c **** 
 447:Generated_Source\PSoC4/CapSense_SensingCSX_LL.c ****         curRamWdgtBasePtr = (CapSense_RAM_WD_BASE_STRUCT *)CapSense_curFlashWdgtPtr->ptr2WdgtRam;
 448:Generated_Source\PSoC4/CapSense_SensingCSX_LL.c **** 
 449:Generated_Source\PSoC4/CapSense_SensingCSX_LL.c ****         #if (0u != CapSense_CSX_COMMON_TX_CLK_EN)
 450:Generated_Source\PSoC4/CapSense_SensingCSX_LL.c ****             snsClkVal = (uint32)CapSense_dsRam.snsCsxClk;
 451:Generated_Source\PSoC4/CapSense_SensingCSX_LL.c ****         #else
 452:Generated_Source\PSoC4/CapSense_SensingCSX_LL.c ****             snsClkVal = (uint32)curRamWdgtBasePtr->snsClk;
 453:Generated_Source\PSoC4/CapSense_SensingCSX_LL.c ****         #endif /* (0u != CapSense_CSX_COMMON_TX_CLK_EN) */
 454:Generated_Source\PSoC4/CapSense_SensingCSX_LL.c **** 
 455:Generated_Source\PSoC4/CapSense_SensingCSX_LL.c ****         CY_SET_REG32(CapSense_SEQ_NORM_CNT_PTR, (uint32)curRamWdgtBasePtr->resolution);
 456:Generated_Source\PSoC4/CapSense_SensingCSX_LL.c ****         CapSense_csxScanPeriod  = CapSense_SsCalcCsxScanPeriod(curRamWdgtBasePtr);
 457:Generated_Source\PSoC4/CapSense_SensingCSX_LL.c **** 
 458:Generated_Source\PSoC4/CapSense_SensingCSX_LL.c ****         tmpRegVal = (uint32)curRamWdgtBasePtr->snsClkSource;
 459:Generated_Source\PSoC4/CapSense_SensingCSX_LL.c **** 
 460:Generated_Source\PSoC4/CapSense_SensingCSX_LL.c ****         snsClkVal = (snsClkVal - 1uL) & CapSense_SENSE_PERIOD_SENSE_DIV_MASK;
 461:Generated_Source\PSoC4/CapSense_SensingCSX_LL.c ****         tmpRegVal = (tmpRegVal << CapSense_SENSE_PERIOD_LFSR_SIZE_SHIFT) | snsClkVal;
 462:Generated_Source\PSoC4/CapSense_SensingCSX_LL.c ****         CY_SET_REG32(CapSense_SENSE_PERIOD_PTR, tmpRegVal);
 463:Generated_Source\PSoC4/CapSense_SensingCSX_LL.c ****         CapSense_SsSetModClkClockDivider((uint32)CapSense_dsRam.modCsxClk);
 464:Generated_Source\PSoC4/CapSense_SensingCSX_LL.c ****     #endif /* (CapSense_DISABLE == CapSense_CSDV2) */
 465:Generated_Source\PSoC4/CapSense_SensingCSX_LL.c **** }
 466:Generated_Source\PSoC4/CapSense_SensingCSX_LL.c **** 
 467:Generated_Source\PSoC4/CapSense_SensingCSX_LL.c **** /*******************************************************************************
 468:Generated_Source\PSoC4/CapSense_SensingCSX_LL.c **** * Function Name: CapSense_CSXSetupWidgetExt
 469:Generated_Source\PSoC4/CapSense_SensingCSX_LL.c **** ****************************************************************************//**
 470:Generated_Source\PSoC4/CapSense_SensingCSX_LL.c **** *
 471:Generated_Source\PSoC4/CapSense_SensingCSX_LL.c **** * \brief
 472:Generated_Source\PSoC4/CapSense_SensingCSX_LL.c **** *  Performs extended initialization for the CSX widget and also performs
 473:Generated_Source\PSoC4/CapSense_SensingCSX_LL.c **** *  initialization required for a specific sensor in the widget. The
 474:Generated_Source\PSoC4/CapSense_SensingCSX_LL.c **** *  CapSense_CSXScan() function should be called to initiate the scan
 475:Generated_Source\PSoC4/CapSense_SensingCSX_LL.c **** *  when using this function.
 476:Generated_Source\PSoC4/CapSense_SensingCSX_LL.c **** *
 477:Generated_Source\PSoC4/CapSense_SensingCSX_LL.c **** * \details
 478:Generated_Source\PSoC4/CapSense_SensingCSX_LL.c **** *  This function does the same tasks as CapSense_CSXSetupWidget() and
 479:Generated_Source\PSoC4/CapSense_SensingCSX_LL.c **** *  also connects a sensor in the widget for scanning. Once this function is
 480:Generated_Source\PSoC4/CapSense_SensingCSX_LL.c **** *  called to initialize a widget and a sensor, the CapSense_CSXScanExt()
 481:Generated_Source\PSoC4/CapSense_SensingCSX_LL.c **** *  function should be called to scan the sensor.
 482:Generated_Source\PSoC4/CapSense_SensingCSX_LL.c **** *
 483:Generated_Source\PSoC4/CapSense_SensingCSX_LL.c **** *  This function should be called when no scanning in progress. I.e.
 484:Generated_Source\PSoC4/CapSense_SensingCSX_LL.c **** *  CapSense_IsBusy() returns a non-busy status.
 485:Generated_Source\PSoC4/CapSense_SensingCSX_LL.c **** *
 486:Generated_Source\PSoC4/CapSense_SensingCSX_LL.c **** *  It is not recommended to call this function directly from the application
 487:Generated_Source\PSoC4/CapSense_SensingCSX_LL.c **** *  layer. This function should be used to implement only the user’s specific
 488:Generated_Source\PSoC4/CapSense_SensingCSX_LL.c **** *  use cases (for faster execution time or pipeline scanning for example).
 489:Generated_Source\PSoC4/CapSense_SensingCSX_LL.c **** *
ARM GAS  C:\Users\TB1014~1\AppData\Local\Temp\ccLG6s4V.s 			page 10


 490:Generated_Source\PSoC4/CapSense_SensingCSX_LL.c **** * \param widgetIndex
 491:Generated_Source\PSoC4/CapSense_SensingCSX_LL.c **** *  Specify the ID number of the widget to perform hardware and firmware
 492:Generated_Source\PSoC4/CapSense_SensingCSX_LL.c **** *  initialization required for scanning a specific sensor in a specific widget.
 493:Generated_Source\PSoC4/CapSense_SensingCSX_LL.c **** *  A macro for the widget ID can be found in the CapSense Configuration header
 494:Generated_Source\PSoC4/CapSense_SensingCSX_LL.c **** *  file defined as CapSense_<WidgetName>_WDGT_ID.
 495:Generated_Source\PSoC4/CapSense_SensingCSX_LL.c **** *
 496:Generated_Source\PSoC4/CapSense_SensingCSX_LL.c **** * \param snsIndex
 497:Generated_Source\PSoC4/CapSense_SensingCSX_LL.c **** *  Specify the ID number of the sensor within the widget to perform hardware
 498:Generated_Source\PSoC4/CapSense_SensingCSX_LL.c **** *  and firmware initialization required for scanning a specific sensor in a
 499:Generated_Source\PSoC4/CapSense_SensingCSX_LL.c **** *  specific widget.
 500:Generated_Source\PSoC4/CapSense_SensingCSX_LL.c **** *  A macro for the sensor ID within a specified widget can be found in the
 501:Generated_Source\PSoC4/CapSense_SensingCSX_LL.c **** *  CapSense Configuration header file defined as
 502:Generated_Source\PSoC4/CapSense_SensingCSX_LL.c **** *  CapSense_<WidgetName>_SNS<SensorNumber>_ID
 503:Generated_Source\PSoC4/CapSense_SensingCSX_LL.c **** *
 504:Generated_Source\PSoC4/CapSense_SensingCSX_LL.c **** *******************************************************************************/
 505:Generated_Source\PSoC4/CapSense_SensingCSX_LL.c **** 
 506:Generated_Source\PSoC4/CapSense_SensingCSX_LL.c **** void CapSense_CSXSetupWidgetExt(uint32 widgetIndex, uint32 snsIndex)
 507:Generated_Source\PSoC4/CapSense_SensingCSX_LL.c **** {
 508:Generated_Source\PSoC4/CapSense_SensingCSX_LL.c ****     uint32 txIndex;
 509:Generated_Source\PSoC4/CapSense_SensingCSX_LL.c ****     uint32 rxIndex;
 510:Generated_Source\PSoC4/CapSense_SensingCSX_LL.c ****     #if (CapSense_ENABLE == CapSense_CSX_GANGED_SNS_EN)
 511:Generated_Source\PSoC4/CapSense_SensingCSX_LL.c ****         uint16 numElectrodes;
 512:Generated_Source\PSoC4/CapSense_SensingCSX_LL.c ****     #endif /* (CapSense_ENABLE == CapSense_CSX_GANGED_SNS_EN) */
 513:Generated_Source\PSoC4/CapSense_SensingCSX_LL.c **** 
 514:Generated_Source\PSoC4/CapSense_SensingCSX_LL.c ****     /*  Initialize widget   */
 515:Generated_Source\PSoC4/CapSense_SensingCSX_LL.c ****     CapSense_CSXSetupWidget(widgetIndex);
 516:Generated_Source\PSoC4/CapSense_SensingCSX_LL.c **** 
 517:Generated_Source\PSoC4/CapSense_SensingCSX_LL.c ****     /*  Initialise sensor data structure pointer to appropriate address */
 518:Generated_Source\PSoC4/CapSense_SensingCSX_LL.c ****     CapSense_curRamSnsPtr = CapSense_curFlashWdgtPtr->ptr2SnsRam;
 519:Generated_Source\PSoC4/CapSense_SensingCSX_LL.c ****     CapSense_curRamSnsPtr = &CapSense_curRamSnsPtr[snsIndex];
 520:Generated_Source\PSoC4/CapSense_SensingCSX_LL.c **** 
 521:Generated_Source\PSoC4/CapSense_SensingCSX_LL.c ****     /*  Find Tx and Rx index for given snsIndex
 522:Generated_Source\PSoC4/CapSense_SensingCSX_LL.c ****         rxIndex = snsIndex / TxCount
 523:Generated_Source\PSoC4/CapSense_SensingCSX_LL.c ****         txIndex = snsIndex % TxCount    */
 524:Generated_Source\PSoC4/CapSense_SensingCSX_LL.c ****     rxIndex = snsIndex /CapSense_curFlashWdgtPtr->numRows;
 525:Generated_Source\PSoC4/CapSense_SensingCSX_LL.c ****     txIndex = snsIndex % CapSense_curFlashWdgtPtr->numRows;
 526:Generated_Source\PSoC4/CapSense_SensingCSX_LL.c **** 
 527:Generated_Source\PSoC4/CapSense_SensingCSX_LL.c ****     /*  If widget is APA, find node (Tx/Rx) to be connected for scanning    */
 528:Generated_Source\PSoC4/CapSense_SensingCSX_LL.c ****     #if (CapSense_ENABLE == CapSense_CSX_GANGED_SNS_EN)
 529:Generated_Source\PSoC4/CapSense_SensingCSX_LL.c ****         if (CapSense_GANGED_SNS_MASK == (CapSense_curFlashWdgtPtr->staticConfig & CapSense_GANGED_S
 530:Generated_Source\PSoC4/CapSense_SensingCSX_LL.c ****         {
 531:Generated_Source\PSoC4/CapSense_SensingCSX_LL.c ****             /*  1. Get access to Rx sensor pointer  (Rx = Base + rxIndex).
 532:Generated_Source\PSoC4/CapSense_SensingCSX_LL.c ****                 2. Get number of Rx electrodes
 533:Generated_Source\PSoC4/CapSense_SensingCSX_LL.c ****                 3. Get Rx pointer
 534:Generated_Source\PSoC4/CapSense_SensingCSX_LL.c ****                 4. Connect all Rx   */
 535:Generated_Source\PSoC4/CapSense_SensingCSX_LL.c ****             CapSense_curGangRxPtr = CapSense_curFlashWdgtPtr->ptr2SnsFlash;
 536:Generated_Source\PSoC4/CapSense_SensingCSX_LL.c ****             CapSense_curGangRxPtr += rxIndex;
 537:Generated_Source\PSoC4/CapSense_SensingCSX_LL.c ****             numElectrodes = CapSense_curGangRxPtr->numPins ;
 538:Generated_Source\PSoC4/CapSense_SensingCSX_LL.c ****             CapSense_curRxIOPtr = &CapSense_ioList[CapSense_curGangRxPtr->firstPinId];
 539:Generated_Source\PSoC4/CapSense_SensingCSX_LL.c **** 
 540:Generated_Source\PSoC4/CapSense_SensingCSX_LL.c ****             do
 541:Generated_Source\PSoC4/CapSense_SensingCSX_LL.c ****             {
 542:Generated_Source\PSoC4/CapSense_SensingCSX_LL.c ****                 CapSense_CSXConnectRx(CapSense_curRxIOPtr++);
 543:Generated_Source\PSoC4/CapSense_SensingCSX_LL.c ****                 numElectrodes--;
 544:Generated_Source\PSoC4/CapSense_SensingCSX_LL.c ****             } while (0u != numElectrodes);
 545:Generated_Source\PSoC4/CapSense_SensingCSX_LL.c **** 
 546:Generated_Source\PSoC4/CapSense_SensingCSX_LL.c ****             /*  1. Get access to Tx sensor pointer (Tx = Base + NumberRx + TxIndex).
ARM GAS  C:\Users\TB1014~1\AppData\Local\Temp\ccLG6s4V.s 			page 11


 547:Generated_Source\PSoC4/CapSense_SensingCSX_LL.c ****                 2. Get number of Tx electrodes
 548:Generated_Source\PSoC4/CapSense_SensingCSX_LL.c ****                 3. Get Tx pointer
 549:Generated_Source\PSoC4/CapSense_SensingCSX_LL.c ****                 4. Connect all Tx   */
 550:Generated_Source\PSoC4/CapSense_SensingCSX_LL.c ****             CapSense_curGangTxPtr = CapSense_curFlashWdgtPtr->ptr2SnsFlash;
 551:Generated_Source\PSoC4/CapSense_SensingCSX_LL.c ****             CapSense_curGangTxPtr += (CapSense_curFlashWdgtPtr->numCols + txIndex);
 552:Generated_Source\PSoC4/CapSense_SensingCSX_LL.c **** 
 553:Generated_Source\PSoC4/CapSense_SensingCSX_LL.c ****             numElectrodes = CapSense_curGangTxPtr->numPins ;
 554:Generated_Source\PSoC4/CapSense_SensingCSX_LL.c ****             CapSense_curTxIOPtr = &CapSense_ioList[CapSense_curGangTxPtr->firstPinId];
 555:Generated_Source\PSoC4/CapSense_SensingCSX_LL.c **** 
 556:Generated_Source\PSoC4/CapSense_SensingCSX_LL.c ****             do
 557:Generated_Source\PSoC4/CapSense_SensingCSX_LL.c ****             {
 558:Generated_Source\PSoC4/CapSense_SensingCSX_LL.c ****                 CapSense_CSXConnectTx(CapSense_curTxIOPtr++);
 559:Generated_Source\PSoC4/CapSense_SensingCSX_LL.c ****                 numElectrodes--;
 560:Generated_Source\PSoC4/CapSense_SensingCSX_LL.c ****             }while (0u != numElectrodes);
 561:Generated_Source\PSoC4/CapSense_SensingCSX_LL.c **** 
 562:Generated_Source\PSoC4/CapSense_SensingCSX_LL.c ****             /*  Set callback to scan connected ganged sensor only */
 563:Generated_Source\PSoC4/CapSense_SensingCSX_LL.c ****             CapSense_CSXPostScanApiPtr = &CapSense_SsCSXPostSingleScan;
 564:Generated_Source\PSoC4/CapSense_SensingCSX_LL.c ****         }
 565:Generated_Source\PSoC4/CapSense_SensingCSX_LL.c ****         else
 566:Generated_Source\PSoC4/CapSense_SensingCSX_LL.c ****     #endif  /* (CapSense_ENABLE == CapSense_CSD_CSX_EN) */
 567:Generated_Source\PSoC4/CapSense_SensingCSX_LL.c ****         {
 568:Generated_Source\PSoC4/CapSense_SensingCSX_LL.c ****             /*  If no ganged sensor in component OR current widget no contains ganged sns, then:
 569:Generated_Source\PSoC4/CapSense_SensingCSX_LL.c ****                 1. Find Rx pointer: Rx = Base address + RxIndex
 570:Generated_Source\PSoC4/CapSense_SensingCSX_LL.c ****                 2. Find Tx pointer: Tx = Base address + (total Rx + TxIndex) */
 571:Generated_Source\PSoC4/CapSense_SensingCSX_LL.c ****             CapSense_curRxIOPtr = (CapSense_FLASH_IO_STRUCT const *)CapSense_curFlashWdgtPtr->ptr2S
 572:Generated_Source\PSoC4/CapSense_SensingCSX_LL.c ****             CapSense_curRxIOPtr = &CapSense_curRxIOPtr[rxIndex];
 573:Generated_Source\PSoC4/CapSense_SensingCSX_LL.c **** 
 574:Generated_Source\PSoC4/CapSense_SensingCSX_LL.c ****             CapSense_curTxIOPtr = (CapSense_FLASH_IO_STRUCT const *)CapSense_curFlashWdgtPtr->ptr2S
 575:Generated_Source\PSoC4/CapSense_SensingCSX_LL.c ****             CapSense_curTxIOPtr = &CapSense_curTxIOPtr[(CapSense_curFlashWdgtPtr->numCols + txIndex
 576:Generated_Source\PSoC4/CapSense_SensingCSX_LL.c **** 
 577:Generated_Source\PSoC4/CapSense_SensingCSX_LL.c ****             /*  Connect Tx and Rx IOs for scan ad set flag to indicate that IOs should be disconnec
 578:Generated_Source\PSoC4/CapSense_SensingCSX_LL.c ****             CapSense_CSXConnectTx(CapSense_curTxIOPtr);
 579:Generated_Source\PSoC4/CapSense_SensingCSX_LL.c ****             CapSense_CSXConnectRx(CapSense_curRxIOPtr);
 580:Generated_Source\PSoC4/CapSense_SensingCSX_LL.c ****             CapSense_eleCsxDisconnectFlag = CapSense_DISCONNECT_IO_FLAG;
 581:Generated_Source\PSoC4/CapSense_SensingCSX_LL.c **** 
 582:Generated_Source\PSoC4/CapSense_SensingCSX_LL.c ****             /*   Set callback to scan all sensors in widget */
 583:Generated_Source\PSoC4/CapSense_SensingCSX_LL.c ****             CapSense_CSXPostScanApiPtr = &CapSense_SsCSXPostSingleScan;
 584:Generated_Source\PSoC4/CapSense_SensingCSX_LL.c ****         }
 585:Generated_Source\PSoC4/CapSense_SensingCSX_LL.c **** }
 586:Generated_Source\PSoC4/CapSense_SensingCSX_LL.c **** 
 587:Generated_Source\PSoC4/CapSense_SensingCSX_LL.c **** /*******************************************************************************
 588:Generated_Source\PSoC4/CapSense_SensingCSX_LL.c **** * Function Name: CapSense_CSXScan
 589:Generated_Source\PSoC4/CapSense_SensingCSX_LL.c **** ****************************************************************************//**
 590:Generated_Source\PSoC4/CapSense_SensingCSX_LL.c **** *
 591:Generated_Source\PSoC4/CapSense_SensingCSX_LL.c **** * \brief
 592:Generated_Source\PSoC4/CapSense_SensingCSX_LL.c **** *  This function initiates the scan for sensors of the widget initialized by
 593:Generated_Source\PSoC4/CapSense_SensingCSX_LL.c **** *  the CapSense_CSXSetupWidget() function.
 594:Generated_Source\PSoC4/CapSense_SensingCSX_LL.c **** *
 595:Generated_Source\PSoC4/CapSense_SensingCSX_LL.c **** * \details
 596:Generated_Source\PSoC4/CapSense_SensingCSX_LL.c **** *  This function performs scanning of all sensors in the widget configured by
 597:Generated_Source\PSoC4/CapSense_SensingCSX_LL.c **** *  the CapSense_CSXSetupWidget() function. It does the following tasks:
 598:Generated_Source\PSoC4/CapSense_SensingCSX_LL.c **** *    1. Connects the first sensor of the widget.
 599:Generated_Source\PSoC4/CapSense_SensingCSX_LL.c **** *    2. Initializes an interrupt callback function to initialize a scan of the
 600:Generated_Source\PSoC4/CapSense_SensingCSX_LL.c **** *       next sensors in a widget.
 601:Generated_Source\PSoC4/CapSense_SensingCSX_LL.c **** *    3. Starts scanning for the first sensor in the widget.
 602:Generated_Source\PSoC4/CapSense_SensingCSX_LL.c **** *
 603:Generated_Source\PSoC4/CapSense_SensingCSX_LL.c **** *  This function is called by the CapSense_Scan() API if the given
ARM GAS  C:\Users\TB1014~1\AppData\Local\Temp\ccLG6s4V.s 			page 12


 604:Generated_Source\PSoC4/CapSense_SensingCSX_LL.c **** *  widget uses the CSX sensing method.
 605:Generated_Source\PSoC4/CapSense_SensingCSX_LL.c **** *
 606:Generated_Source\PSoC4/CapSense_SensingCSX_LL.c **** *  It is not recommended to call this function directly from the application
 607:Generated_Source\PSoC4/CapSense_SensingCSX_LL.c **** *  layer. This function should be used to implement only the user’s specific
 608:Generated_Source\PSoC4/CapSense_SensingCSX_LL.c **** *  use cases (for faster execution time or pipeline scanning for example).
 609:Generated_Source\PSoC4/CapSense_SensingCSX_LL.c **** *
 610:Generated_Source\PSoC4/CapSense_SensingCSX_LL.c **** *  This function should be called when no scanning in progress. I.e.
 611:Generated_Source\PSoC4/CapSense_SensingCSX_LL.c **** *  CapSense_IsBusy() returns a non-busy status. The widget must be
 612:Generated_Source\PSoC4/CapSense_SensingCSX_LL.c **** *  preconfigured by the CapSense_CSXSetupWidget() function if other
 613:Generated_Source\PSoC4/CapSense_SensingCSX_LL.c **** *  widget was previously scanned or other type of scan functions were used.
 614:Generated_Source\PSoC4/CapSense_SensingCSX_LL.c **** *
 615:Generated_Source\PSoC4/CapSense_SensingCSX_LL.c **** *******************************************************************************/
 616:Generated_Source\PSoC4/CapSense_SensingCSX_LL.c **** 
 617:Generated_Source\PSoC4/CapSense_SensingCSX_LL.c **** void CapSense_CSXScan(void)
 618:Generated_Source\PSoC4/CapSense_SensingCSX_LL.c **** {
 619:Generated_Source\PSoC4/CapSense_SensingCSX_LL.c ****     #if (CapSense_CSX_GANGED_SNS_EN == 1u)
 620:Generated_Source\PSoC4/CapSense_SensingCSX_LL.c ****         uint32 numElectrodes;
 621:Generated_Source\PSoC4/CapSense_SensingCSX_LL.c ****     #endif
 622:Generated_Source\PSoC4/CapSense_SensingCSX_LL.c **** 
 623:Generated_Source\PSoC4/CapSense_SensingCSX_LL.c ****     /*  Initialise pointer to access sensor RAM elements    */
 624:Generated_Source\PSoC4/CapSense_SensingCSX_LL.c ****     CapSense_curRamSnsPtr = CapSense_curFlashWdgtPtr->ptr2SnsRam;
 625:Generated_Source\PSoC4/CapSense_SensingCSX_LL.c **** 
 626:Generated_Source\PSoC4/CapSense_SensingCSX_LL.c ****     /*  Calculate total sensor to be scanned. If buttons, one Tx and an Rx for each sensor
 627:Generated_Source\PSoC4/CapSense_SensingCSX_LL.c ****         if Matrix button or Touchpad, M x N rule applies    */
 628:Generated_Source\PSoC4/CapSense_SensingCSX_LL.c ****     CapSense_curWdgtTotalTx = CapSense_curFlashWdgtPtr->numRows;
 629:Generated_Source\PSoC4/CapSense_SensingCSX_LL.c ****     CapSense_curWdgtTotalRx  = CapSense_curFlashWdgtPtr->numCols;
 630:Generated_Source\PSoC4/CapSense_SensingCSX_LL.c **** 
 631:Generated_Source\PSoC4/CapSense_SensingCSX_LL.c ****     /*  If component contains CSX ganged sensor, then check if widget contains ganged sensor.   */
 632:Generated_Source\PSoC4/CapSense_SensingCSX_LL.c ****     #if (CapSense_CSX_GANGED_SNS_EN == 1u)
 633:Generated_Source\PSoC4/CapSense_SensingCSX_LL.c ****         if ((CapSense_curFlashWdgtPtr->staticConfig & CapSense_GANGED_SNS_MASK) != 0u)
 634:Generated_Source\PSoC4/CapSense_SensingCSX_LL.c ****         {
 635:Generated_Source\PSoC4/CapSense_SensingCSX_LL.c ****             /*  1. Get sns pointer for first Rx
 636:Generated_Source\PSoC4/CapSense_SensingCSX_LL.c ****                 2. Get number of Rx pin
 637:Generated_Source\PSoC4/CapSense_SensingCSX_LL.c ****                 3. Get pointer to the Rx pin
 638:Generated_Source\PSoC4/CapSense_SensingCSX_LL.c ****                 4. Connect all Rx pins   */
 639:Generated_Source\PSoC4/CapSense_SensingCSX_LL.c ****             CapSense_curGangRxPtr = CapSense_curFlashWdgtPtr->ptr2SnsFlash;
 640:Generated_Source\PSoC4/CapSense_SensingCSX_LL.c ****             numElectrodes = CapSense_curGangRxPtr->numPins ;
 641:Generated_Source\PSoC4/CapSense_SensingCSX_LL.c ****             CapSense_curRxIOPtr = &CapSense_ioList[CapSense_curGangRxPtr->firstPinId];
 642:Generated_Source\PSoC4/CapSense_SensingCSX_LL.c ****             do
 643:Generated_Source\PSoC4/CapSense_SensingCSX_LL.c ****             {
 644:Generated_Source\PSoC4/CapSense_SensingCSX_LL.c ****                 CapSense_CSXConnectRx(CapSense_curRxIOPtr++);
 645:Generated_Source\PSoC4/CapSense_SensingCSX_LL.c ****                 numElectrodes--;
 646:Generated_Source\PSoC4/CapSense_SensingCSX_LL.c ****             } while (0u != numElectrodes);
 647:Generated_Source\PSoC4/CapSense_SensingCSX_LL.c **** 
 648:Generated_Source\PSoC4/CapSense_SensingCSX_LL.c ****             /*  1. Get sns pointer for first Tx (Tx = Base + number of Rx).
 649:Generated_Source\PSoC4/CapSense_SensingCSX_LL.c ****                 2. Get number of Tx electrodes
 650:Generated_Source\PSoC4/CapSense_SensingCSX_LL.c ****                 3. Get pointer the Tx electrode
 651:Generated_Source\PSoC4/CapSense_SensingCSX_LL.c ****                 4. Connect all Tx   */
 652:Generated_Source\PSoC4/CapSense_SensingCSX_LL.c ****             CapSense_curGangTxPtr = CapSense_curFlashWdgtPtr->ptr2SnsFlash;
 653:Generated_Source\PSoC4/CapSense_SensingCSX_LL.c ****             CapSense_curGangTxPtr += CapSense_curFlashWdgtPtr->numCols;
 654:Generated_Source\PSoC4/CapSense_SensingCSX_LL.c ****             numElectrodes = CapSense_curGangTxPtr->numPins ;
 655:Generated_Source\PSoC4/CapSense_SensingCSX_LL.c ****             CapSense_curTxIOPtr = &CapSense_ioList[CapSense_curGangTxPtr->firstPinId];
 656:Generated_Source\PSoC4/CapSense_SensingCSX_LL.c **** 
 657:Generated_Source\PSoC4/CapSense_SensingCSX_LL.c ****             do
 658:Generated_Source\PSoC4/CapSense_SensingCSX_LL.c ****             {
 659:Generated_Source\PSoC4/CapSense_SensingCSX_LL.c ****                 CapSense_CSXConnectTx(CapSense_curTxIOPtr++);
 660:Generated_Source\PSoC4/CapSense_SensingCSX_LL.c ****                 numElectrodes--;
ARM GAS  C:\Users\TB1014~1\AppData\Local\Temp\ccLG6s4V.s 			page 13


 661:Generated_Source\PSoC4/CapSense_SensingCSX_LL.c ****             }while (0u != numElectrodes);
 662:Generated_Source\PSoC4/CapSense_SensingCSX_LL.c **** 
 663:Generated_Source\PSoC4/CapSense_SensingCSX_LL.c ****             /*  Assign callback to ISR  */
 664:Generated_Source\PSoC4/CapSense_SensingCSX_LL.c ****             CapSense_CSXPostScanApiPtr = &CapSense_SsCSXPostMultiScanGanged;
 665:Generated_Source\PSoC4/CapSense_SensingCSX_LL.c **** 
 666:Generated_Source\PSoC4/CapSense_SensingCSX_LL.c ****         }
 667:Generated_Source\PSoC4/CapSense_SensingCSX_LL.c ****         else
 668:Generated_Source\PSoC4/CapSense_SensingCSX_LL.c ****     #endif
 669:Generated_Source\PSoC4/CapSense_SensingCSX_LL.c ****         {
 670:Generated_Source\PSoC4/CapSense_SensingCSX_LL.c ****             /*  If no ganged sensor in the component OR current widget contains no ganged sns, then
 671:Generated_Source\PSoC4/CapSense_SensingCSX_LL.c ****                 1. Find Rx pointer: Rx = Base address.
 672:Generated_Source\PSoC4/CapSense_SensingCSX_LL.c ****                 2. Find Rx pointer: Tx = Base address + total Rx */
 673:Generated_Source\PSoC4/CapSense_SensingCSX_LL.c ****             CapSense_curRxIOPtr = (CapSense_FLASH_IO_STRUCT const *)CapSense_curFlashWdgtPtr->ptr2S
 674:Generated_Source\PSoC4/CapSense_SensingCSX_LL.c ****             CapSense_curTxIOPtr = CapSense_curRxIOPtr;
 675:Generated_Source\PSoC4/CapSense_SensingCSX_LL.c ****             CapSense_curTxIOPtr = &CapSense_curTxIOPtr[(CapSense_curFlashWdgtPtr->numCols)];
 676:Generated_Source\PSoC4/CapSense_SensingCSX_LL.c **** 
 677:Generated_Source\PSoC4/CapSense_SensingCSX_LL.c ****             /*  Connect first Tx and first Rx IOs for scan  */
 678:Generated_Source\PSoC4/CapSense_SensingCSX_LL.c ****             CapSense_CSXConnectTx(CapSense_curTxIOPtr);
 679:Generated_Source\PSoC4/CapSense_SensingCSX_LL.c ****             CapSense_CSXConnectRx(CapSense_curRxIOPtr);
 680:Generated_Source\PSoC4/CapSense_SensingCSX_LL.c **** 
 681:Generated_Source\PSoC4/CapSense_SensingCSX_LL.c ****             /*   Set callback to scan all sensors in widget */
 682:Generated_Source\PSoC4/CapSense_SensingCSX_LL.c ****             CapSense_CSXPostScanApiPtr = &CapSense_SsCSXPostMultiScan;
 683:Generated_Source\PSoC4/CapSense_SensingCSX_LL.c ****         }
 684:Generated_Source\PSoC4/CapSense_SensingCSX_LL.c **** 
 685:Generated_Source\PSoC4/CapSense_SensingCSX_LL.c ****         /*  If frequency hopping is enabled, reset hopping channel counter  */
 686:Generated_Source\PSoC4/CapSense_SensingCSX_LL.c ****         #if (CapSense_MULTI_FREQ_SCAN_EN == CapSense_ENABLE)
 687:Generated_Source\PSoC4/CapSense_SensingCSX_LL.c ****             CapSense_scanFreqIndex = 0u;
 688:Generated_Source\PSoC4/CapSense_SensingCSX_LL.c ****         #endif
 689:Generated_Source\PSoC4/CapSense_SensingCSX_LL.c **** 
 690:Generated_Source\PSoC4/CapSense_SensingCSX_LL.c ****     /*  Set scan status, enter critical section and initiate scan   */
 691:Generated_Source\PSoC4/CapSense_SensingCSX_LL.c ****     CapSense_dsRam.status |= CapSense_SW_STS_BUSY;
 692:Generated_Source\PSoC4/CapSense_SensingCSX_LL.c ****     CapSense_SsCSXStartSample();
 693:Generated_Source\PSoC4/CapSense_SensingCSX_LL.c **** }
 694:Generated_Source\PSoC4/CapSense_SensingCSX_LL.c **** 
 695:Generated_Source\PSoC4/CapSense_SensingCSX_LL.c **** /*******************************************************************************
 696:Generated_Source\PSoC4/CapSense_SensingCSX_LL.c **** * Function Name: CapSense_CSXScanExt()
 697:Generated_Source\PSoC4/CapSense_SensingCSX_LL.c **** ****************************************************************************//**
 698:Generated_Source\PSoC4/CapSense_SensingCSX_LL.c **** *
 699:Generated_Source\PSoC4/CapSense_SensingCSX_LL.c **** * \brief
 700:Generated_Source\PSoC4/CapSense_SensingCSX_LL.c **** *  Starts the CSX conversion on the preconfigured sensor. The
 701:Generated_Source\PSoC4/CapSense_SensingCSX_LL.c **** *  CapSense_CSXSetupWidgetExt() function should be used to setup a
 702:Generated_Source\PSoC4/CapSense_SensingCSX_LL.c **** *  widget when using this function.
 703:Generated_Source\PSoC4/CapSense_SensingCSX_LL.c **** *
 704:Generated_Source\PSoC4/CapSense_SensingCSX_LL.c **** * \details
 705:Generated_Source\PSoC4/CapSense_SensingCSX_LL.c **** *  This function performs single scanning of one sensor in the widget configured
 706:Generated_Source\PSoC4/CapSense_SensingCSX_LL.c **** *  by CapSense_CSXSetupWidgetExt()  function. It does the following
 707:Generated_Source\PSoC4/CapSense_SensingCSX_LL.c **** *  tasks:
 708:Generated_Source\PSoC4/CapSense_SensingCSX_LL.c **** *    1. Sets a busy flag in the CapSense_dsRam structure.
 709:Generated_Source\PSoC4/CapSense_SensingCSX_LL.c **** *    2. Configures the Tx clock frequency.
 710:Generated_Source\PSoC4/CapSense_SensingCSX_LL.c **** *    3. Configures the Modulator clock frequency.
 711:Generated_Source\PSoC4/CapSense_SensingCSX_LL.c **** *    4. Configures the IDAC value.
 712:Generated_Source\PSoC4/CapSense_SensingCSX_LL.c **** *    5. Starts single scanning.
 713:Generated_Source\PSoC4/CapSense_SensingCSX_LL.c **** *
 714:Generated_Source\PSoC4/CapSense_SensingCSX_LL.c **** *  It is not recommended to call this function directly from the application
 715:Generated_Source\PSoC4/CapSense_SensingCSX_LL.c **** *  layer. This function should be used to implement only the user’s specific
 716:Generated_Source\PSoC4/CapSense_SensingCSX_LL.c **** *  use cases (for faster execution time or pipeline scanning for example). This
 717:Generated_Source\PSoC4/CapSense_SensingCSX_LL.c **** *  function should be called when no scanning in progress. I.e.
ARM GAS  C:\Users\TB1014~1\AppData\Local\Temp\ccLG6s4V.s 			page 14


 718:Generated_Source\PSoC4/CapSense_SensingCSX_LL.c **** *  CapSense_IsBusy() returns a non-busy status.
 719:Generated_Source\PSoC4/CapSense_SensingCSX_LL.c **** *
 720:Generated_Source\PSoC4/CapSense_SensingCSX_LL.c **** *  The sensor must be preconfigured by using the
 721:Generated_Source\PSoC4/CapSense_SensingCSX_LL.c **** *  CapSense_CSXSetupWidgetExt() API prior to calling this function.
 722:Generated_Source\PSoC4/CapSense_SensingCSX_LL.c **** *  The sensor remains ready for the next scan if a previous scan was triggered
 723:Generated_Source\PSoC4/CapSense_SensingCSX_LL.c **** *  by using the CapSense_CSXScanExt() function. In this case, calling
 724:Generated_Source\PSoC4/CapSense_SensingCSX_LL.c **** *  CapSense_CSXSetupWidgetExt() is not required every time before the
 725:Generated_Source\PSoC4/CapSense_SensingCSX_LL.c **** *  CapSense_CSXScanExt() function. If a previous scan was triggered in
 726:Generated_Source\PSoC4/CapSense_SensingCSX_LL.c **** *  any other way: CapSense_Scan(), CapSense_ScanAllWidgets()
 727:Generated_Source\PSoC4/CapSense_SensingCSX_LL.c **** *  or CapSense_RunTuner() (see the CapSense_RunTuner() function
 728:Generated_Source\PSoC4/CapSense_SensingCSX_LL.c **** *  description for more details), the sensor must be preconfigured again by
 729:Generated_Source\PSoC4/CapSense_SensingCSX_LL.c **** *  using the CapSense_CSXSetupWidgetExt() API prior to calling the
 730:Generated_Source\PSoC4/CapSense_SensingCSX_LL.c **** *  CapSense_CSXScanExt() function.
 731:Generated_Source\PSoC4/CapSense_SensingCSX_LL.c **** *
 732:Generated_Source\PSoC4/CapSense_SensingCSX_LL.c **** *  If disconnection of the sensors is required after calling
 733:Generated_Source\PSoC4/CapSense_SensingCSX_LL.c **** *  CapSense_CSXScanExt(), the CapSense_CSXDisconnectTx() and
 734:Generated_Source\PSoC4/CapSense_SensingCSX_LL.c **** *  CapSense_CSXDisconnectRx() APIs can be used.
 735:Generated_Source\PSoC4/CapSense_SensingCSX_LL.c **** *
 736:Generated_Source\PSoC4/CapSense_SensingCSX_LL.c **** *******************************************************************************/
 737:Generated_Source\PSoC4/CapSense_SensingCSX_LL.c **** 
 738:Generated_Source\PSoC4/CapSense_SensingCSX_LL.c **** void CapSense_CSXScanExt(void)
 739:Generated_Source\PSoC4/CapSense_SensingCSX_LL.c **** {
 740:Generated_Source\PSoC4/CapSense_SensingCSX_LL.c ****     /*  If frequency hopping is enabled, reset hopping channel counter  */
 741:Generated_Source\PSoC4/CapSense_SensingCSX_LL.c ****     #if (CapSense_MULTI_FREQ_SCAN_EN == CapSense_ENABLE)
 742:Generated_Source\PSoC4/CapSense_SensingCSX_LL.c ****         CapSense_scanFreqIndex = 0u;
 743:Generated_Source\PSoC4/CapSense_SensingCSX_LL.c ****     #endif
 744:Generated_Source\PSoC4/CapSense_SensingCSX_LL.c **** 
 745:Generated_Source\PSoC4/CapSense_SensingCSX_LL.c ****     /*  Set busy flag and start conversion  */
 746:Generated_Source\PSoC4/CapSense_SensingCSX_LL.c ****     CapSense_dsRam.status |= CapSense_SW_STS_BUSY;
 747:Generated_Source\PSoC4/CapSense_SensingCSX_LL.c ****     CapSense_SsCSXStartSample();
 748:Generated_Source\PSoC4/CapSense_SensingCSX_LL.c **** }
 749:Generated_Source\PSoC4/CapSense_SensingCSX_LL.c **** 
 750:Generated_Source\PSoC4/CapSense_SensingCSX_LL.c **** 
 751:Generated_Source\PSoC4/CapSense_SensingCSX_LL.c **** /*******************************************************************************
 752:Generated_Source\PSoC4/CapSense_SensingCSX_LL.c **** * Function Name: CapSense_SsCSXPostMultiScan
 753:Generated_Source\PSoC4/CapSense_SensingCSX_LL.c **** ****************************************************************************//**
 754:Generated_Source\PSoC4/CapSense_SensingCSX_LL.c **** *
 755:Generated_Source\PSoC4/CapSense_SensingCSX_LL.c **** * \brief
 756:Generated_Source\PSoC4/CapSense_SensingCSX_LL.c **** *   ISR function implements the multiple-sensor scanning for un-ganged CSX widgets.
 757:Generated_Source\PSoC4/CapSense_SensingCSX_LL.c **** *   This function is called by the component ISR only, it should not be used by
 758:Generated_Source\PSoC4/CapSense_SensingCSX_LL.c **** *   the application layer.
 759:Generated_Source\PSoC4/CapSense_SensingCSX_LL.c **** *
 760:Generated_Source\PSoC4/CapSense_SensingCSX_LL.c **** *******************************************************************************/
 761:Generated_Source\PSoC4/CapSense_SensingCSX_LL.c **** 
 762:Generated_Source\PSoC4/CapSense_SensingCSX_LL.c **** static void CapSense_SsCSXPostMultiScan(void)
 763:Generated_Source\PSoC4/CapSense_SensingCSX_LL.c **** {
 764:Generated_Source\PSoC4/CapSense_SensingCSX_LL.c ****     #ifdef CapSense_ENTRY_CALLBACK
 765:Generated_Source\PSoC4/CapSense_SensingCSX_LL.c ****         CapSense_EntryCallback();
 766:Generated_Source\PSoC4/CapSense_SensingCSX_LL.c ****     #endif /* CapSense_ENTRY_CALLBACK */
 767:Generated_Source\PSoC4/CapSense_SensingCSX_LL.c **** 
 768:Generated_Source\PSoC4/CapSense_SensingCSX_LL.c ****     /*  Copy scan result into sensor raw count array    */
 769:Generated_Source\PSoC4/CapSense_SensingCSX_LL.c ****     CapSense_curRamSnsPtr->raw[CapSense_scanFreqIndex] = \
 770:Generated_Source\PSoC4/CapSense_SensingCSX_LL.c ****                              (CapSense_csxScanPeriod - CapSense_csxRawCount);
 771:Generated_Source\PSoC4/CapSense_SensingCSX_LL.c **** 
 772:Generated_Source\PSoC4/CapSense_SensingCSX_LL.c ****     #if (CapSense_MULTI_FREQ_SCAN_EN == CapSense_ENABLE)
 773:Generated_Source\PSoC4/CapSense_SensingCSX_LL.c ****     /*  Increment frequency hopping index and imitate next scan if all channels
 774:Generated_Source\PSoC4/CapSense_SensingCSX_LL.c ****         are not scanned */
ARM GAS  C:\Users\TB1014~1\AppData\Local\Temp\ccLG6s4V.s 			page 15


 775:Generated_Source\PSoC4/CapSense_SensingCSX_LL.c ****         CapSense_scanFreqIndex++;
 776:Generated_Source\PSoC4/CapSense_SensingCSX_LL.c ****         if (CapSense_scanFreqIndex < 3u)
 777:Generated_Source\PSoC4/CapSense_SensingCSX_LL.c ****         {
 778:Generated_Source\PSoC4/CapSense_SensingCSX_LL.c ****             /*  Change IMO frequency and start sample   */
 779:Generated_Source\PSoC4/CapSense_SensingCSX_LL.c ****                 CapSense_SsChangeImoFreq((uint32)CapSense_scanFreqIndex);
 780:Generated_Source\PSoC4/CapSense_SensingCSX_LL.c ****                 CapSense_SsCSXStartSample();
 781:Generated_Source\PSoC4/CapSense_SensingCSX_LL.c ****         }
 782:Generated_Source\PSoC4/CapSense_SensingCSX_LL.c ****         else
 783:Generated_Source\PSoC4/CapSense_SensingCSX_LL.c ****     #endif
 784:Generated_Source\PSoC4/CapSense_SensingCSX_LL.c ****         {
 785:Generated_Source\PSoC4/CapSense_SensingCSX_LL.c ****             /*  Restore IMO clock, Reset frequency hopping channel counter, if FH is enabled.   */
 786:Generated_Source\PSoC4/CapSense_SensingCSX_LL.c ****             #if (CapSense_MULTI_FREQ_SCAN_EN == CapSense_ENABLE)
 787:Generated_Source\PSoC4/CapSense_SensingCSX_LL.c ****                 CapSense_SsChangeImoFreq(0u);
 788:Generated_Source\PSoC4/CapSense_SensingCSX_LL.c ****                 CapSense_scanFreqIndex = 0u;
 789:Generated_Source\PSoC4/CapSense_SensingCSX_LL.c ****             #endif
 790:Generated_Source\PSoC4/CapSense_SensingCSX_LL.c **** 
 791:Generated_Source\PSoC4/CapSense_SensingCSX_LL.c ****             /*  Disconnect Tx electrodes of previously scanned sensor as
 792:Generated_Source\PSoC4/CapSense_SensingCSX_LL.c ****                 preparation for next sensor scan    */
 793:Generated_Source\PSoC4/CapSense_SensingCSX_LL.c ****             CapSense_CSXDisconnectTx (CapSense_curTxIOPtr);
 794:Generated_Source\PSoC4/CapSense_SensingCSX_LL.c **** 
 795:Generated_Source\PSoC4/CapSense_SensingCSX_LL.c ****             /*  Initiate scan for next sensor in widget, if all sensors in
 796:Generated_Source\PSoC4/CapSense_SensingCSX_LL.c ****                 widget are not scanned */
 797:Generated_Source\PSoC4/CapSense_SensingCSX_LL.c ****             CapSense_curWdgtTotalTx--;
 798:Generated_Source\PSoC4/CapSense_SensingCSX_LL.c ****             if (CapSense_curWdgtTotalTx > 0u)
 799:Generated_Source\PSoC4/CapSense_SensingCSX_LL.c ****             {
 800:Generated_Source\PSoC4/CapSense_SensingCSX_LL.c ****                 /*  1. Increment pointer to next Tx
 801:Generated_Source\PSoC4/CapSense_SensingCSX_LL.c ****                     2. Connect next Rx for scan
 802:Generated_Source\PSoC4/CapSense_SensingCSX_LL.c ****                     3. Increment pointer to sns data    */
 803:Generated_Source\PSoC4/CapSense_SensingCSX_LL.c ****                 CapSense_curTxIOPtr++;
 804:Generated_Source\PSoC4/CapSense_SensingCSX_LL.c ****                 CapSense_CSXConnectTx (CapSense_curTxIOPtr);
 805:Generated_Source\PSoC4/CapSense_SensingCSX_LL.c ****                 CapSense_curRamSnsPtr++;
 806:Generated_Source\PSoC4/CapSense_SensingCSX_LL.c **** 
 807:Generated_Source\PSoC4/CapSense_SensingCSX_LL.c ****                 /*  Reset scan result holder, and initiate scan */
 808:Generated_Source\PSoC4/CapSense_SensingCSX_LL.c ****                 CapSense_SsCSXStartSample();
 809:Generated_Source\PSoC4/CapSense_SensingCSX_LL.c ****             }
 810:Generated_Source\PSoC4/CapSense_SensingCSX_LL.c **** 
 811:Generated_Source\PSoC4/CapSense_SensingCSX_LL.c ****             /*  Check if all Rx are looped through  */
 812:Generated_Source\PSoC4/CapSense_SensingCSX_LL.c ****             else
 813:Generated_Source\PSoC4/CapSense_SensingCSX_LL.c ****             {
 814:Generated_Source\PSoC4/CapSense_SensingCSX_LL.c ****                 CapSense_curWdgtTotalRx--;
 815:Generated_Source\PSoC4/CapSense_SensingCSX_LL.c ****                 if (CapSense_curWdgtTotalRx > 0u)
 816:Generated_Source\PSoC4/CapSense_SensingCSX_LL.c ****                 {
 817:Generated_Source\PSoC4/CapSense_SensingCSX_LL.c ****                     /*  1. Disconnect current Rx electrode
 818:Generated_Source\PSoC4/CapSense_SensingCSX_LL.c ****                         2. Connect next Rx electrode
 819:Generated_Source\PSoC4/CapSense_SensingCSX_LL.c ****                         3. Re-initialize total Tx to be scanned per Rx
 820:Generated_Source\PSoC4/CapSense_SensingCSX_LL.c ****                         4. Find first Tx electrode again
 821:Generated_Source\PSoC4/CapSense_SensingCSX_LL.c ****                         5. Connect first Tx electrode   */
 822:Generated_Source\PSoC4/CapSense_SensingCSX_LL.c ****                     CapSense_CSXDisconnectRx(CapSense_curRxIOPtr);
 823:Generated_Source\PSoC4/CapSense_SensingCSX_LL.c ****                     CapSense_curRxIOPtr++;
 824:Generated_Source\PSoC4/CapSense_SensingCSX_LL.c ****                     CapSense_CSXConnectRx(CapSense_curRxIOPtr);
 825:Generated_Source\PSoC4/CapSense_SensingCSX_LL.c ****                     CapSense_curWdgtTotalTx  = CapSense_curFlashWdgtPtr->numRows;
 826:Generated_Source\PSoC4/CapSense_SensingCSX_LL.c ****                     CapSense_curTxIOPtr = (CapSense_FLASH_IO_STRUCT const *)CapSense_curFlashWdgtPt
 827:Generated_Source\PSoC4/CapSense_SensingCSX_LL.c ****                     CapSense_curTxIOPtr = & CapSense_curTxIOPtr[(CapSense_curFlashWdgtPtr->numCols)
 828:Generated_Source\PSoC4/CapSense_SensingCSX_LL.c ****                     CapSense_CSXConnectTx(CapSense_curTxIOPtr);
 829:Generated_Source\PSoC4/CapSense_SensingCSX_LL.c **** 
 830:Generated_Source\PSoC4/CapSense_SensingCSX_LL.c ****                     /*  Increment RAM sensor pointer pointer    */
 831:Generated_Source\PSoC4/CapSense_SensingCSX_LL.c ****                     CapSense_curRamSnsPtr++;
ARM GAS  C:\Users\TB1014~1\AppData\Local\Temp\ccLG6s4V.s 			page 16


 832:Generated_Source\PSoC4/CapSense_SensingCSX_LL.c **** 
 833:Generated_Source\PSoC4/CapSense_SensingCSX_LL.c ****                     /*  Initiate sample */
 834:Generated_Source\PSoC4/CapSense_SensingCSX_LL.c ****                     CapSense_SsCSXStartSample();
 835:Generated_Source\PSoC4/CapSense_SensingCSX_LL.c ****                 }
 836:Generated_Source\PSoC4/CapSense_SensingCSX_LL.c ****                 else
 837:Generated_Source\PSoC4/CapSense_SensingCSX_LL.c ****                 {
 838:Generated_Source\PSoC4/CapSense_SensingCSX_LL.c ****                     /*  If all sensors are scanned, disconnect Tx   */
 839:Generated_Source\PSoC4/CapSense_SensingCSX_LL.c ****                     CapSense_CSXDisconnectRx(CapSense_curRxIOPtr);
 840:Generated_Source\PSoC4/CapSense_SensingCSX_LL.c **** 
 841:Generated_Source\PSoC4/CapSense_SensingCSX_LL.c ****                     /*  Call scan next widget API if requested, if not, complete scan   */
 842:Generated_Source\PSoC4/CapSense_SensingCSX_LL.c ****                     if (CapSense_requestScanAllWidget != 0u)
 843:Generated_Source\PSoC4/CapSense_SensingCSX_LL.c ****                     {
 844:Generated_Source\PSoC4/CapSense_SensingCSX_LL.c ****                         CapSense_SsPostAllWidgetsScan();
 845:Generated_Source\PSoC4/CapSense_SensingCSX_LL.c ****                     }
 846:Generated_Source\PSoC4/CapSense_SensingCSX_LL.c ****                     else
 847:Generated_Source\PSoC4/CapSense_SensingCSX_LL.c ****                     {
 848:Generated_Source\PSoC4/CapSense_SensingCSX_LL.c ****                         /* All pending scans completed,
 849:Generated_Source\PSoC4/CapSense_SensingCSX_LL.c ****                             1. update the counter to indicat same
 850:Generated_Source\PSoC4/CapSense_SensingCSX_LL.c ****                             2. Clear busy state as scanning is completed      */
 851:Generated_Source\PSoC4/CapSense_SensingCSX_LL.c ****                         CapSense_dsRam.scanCounter++;
 852:Generated_Source\PSoC4/CapSense_SensingCSX_LL.c ****                         CapSense_dsRam.status &= ~CapSense_SW_STS_BUSY;
 853:Generated_Source\PSoC4/CapSense_SensingCSX_LL.c ****                     }
 854:Generated_Source\PSoC4/CapSense_SensingCSX_LL.c ****                 }
 855:Generated_Source\PSoC4/CapSense_SensingCSX_LL.c ****             }
 856:Generated_Source\PSoC4/CapSense_SensingCSX_LL.c ****         }
 857:Generated_Source\PSoC4/CapSense_SensingCSX_LL.c **** 
 858:Generated_Source\PSoC4/CapSense_SensingCSX_LL.c ****     #ifdef CapSense_EXIT_CALLBACK
 859:Generated_Source\PSoC4/CapSense_SensingCSX_LL.c ****         CapSense_ExitCallBack();
 860:Generated_Source\PSoC4/CapSense_SensingCSX_LL.c ****     #endif /* CapSense_EXIT_CALLBACK */
 861:Generated_Source\PSoC4/CapSense_SensingCSX_LL.c **** }
 862:Generated_Source\PSoC4/CapSense_SensingCSX_LL.c **** 
 863:Generated_Source\PSoC4/CapSense_SensingCSX_LL.c **** 
 864:Generated_Source\PSoC4/CapSense_SensingCSX_LL.c **** /*******************************************************************************
 865:Generated_Source\PSoC4/CapSense_SensingCSX_LL.c **** * Function Name: CapSense_SsCSXPostMultiScanGanged
 866:Generated_Source\PSoC4/CapSense_SensingCSX_LL.c **** ****************************************************************************//**
 867:Generated_Source\PSoC4/CapSense_SensingCSX_LL.c **** *
 868:Generated_Source\PSoC4/CapSense_SensingCSX_LL.c **** * \brief
 869:Generated_Source\PSoC4/CapSense_SensingCSX_LL.c **** *   The ISR function implements the multiple-sensor scanning for ganged CSX widgets.
 870:Generated_Source\PSoC4/CapSense_SensingCSX_LL.c **** *   This function is called by the Component ISR only, should not be used by
 871:Generated_Source\PSoC4/CapSense_SensingCSX_LL.c **** *   the application layer.
 872:Generated_Source\PSoC4/CapSense_SensingCSX_LL.c **** *
 873:Generated_Source\PSoC4/CapSense_SensingCSX_LL.c **** * \details
 874:Generated_Source\PSoC4/CapSense_SensingCSX_LL.c **** *   The ISR function implements the multiple-sensor scanning for ganged CSX widgets.
 875:Generated_Source\PSoC4/CapSense_SensingCSX_LL.c **** *   This function is called by the Component ISR only, should not be used by
 876:Generated_Source\PSoC4/CapSense_SensingCSX_LL.c **** *   the application layer.
 877:Generated_Source\PSoC4/CapSense_SensingCSX_LL.c **** *
 878:Generated_Source\PSoC4/CapSense_SensingCSX_LL.c **** *******************************************************************************/
 879:Generated_Source\PSoC4/CapSense_SensingCSX_LL.c **** #if (CapSense_CSX_GANGED_SNS_EN == 1u)
 880:Generated_Source\PSoC4/CapSense_SensingCSX_LL.c **** 
 881:Generated_Source\PSoC4/CapSense_SensingCSX_LL.c **** static void CapSense_SsCSXPostMultiScanGanged(void)
 882:Generated_Source\PSoC4/CapSense_SensingCSX_LL.c **** {
 883:Generated_Source\PSoC4/CapSense_SensingCSX_LL.c ****     uint32 numElectrodes;
 884:Generated_Source\PSoC4/CapSense_SensingCSX_LL.c **** 
 885:Generated_Source\PSoC4/CapSense_SensingCSX_LL.c ****     #ifdef CapSense_ENTRY_CALLBACK
 886:Generated_Source\PSoC4/CapSense_SensingCSX_LL.c ****         CapSense_EntryCallback();
 887:Generated_Source\PSoC4/CapSense_SensingCSX_LL.c ****     #endif /* CapSense_ENTRY_CALLBACK */
 888:Generated_Source\PSoC4/CapSense_SensingCSX_LL.c **** 
ARM GAS  C:\Users\TB1014~1\AppData\Local\Temp\ccLG6s4V.s 			page 17


 889:Generated_Source\PSoC4/CapSense_SensingCSX_LL.c ****     /*  Copy scan result into sensor raw count array    */
 890:Generated_Source\PSoC4/CapSense_SensingCSX_LL.c ****     CapSense_curRamSnsPtr->raw[CapSense_scanFreqIndex] = \
 891:Generated_Source\PSoC4/CapSense_SensingCSX_LL.c ****                     (CapSense_csxScanPeriod - CapSense_csxRawCount);
 892:Generated_Source\PSoC4/CapSense_SensingCSX_LL.c **** 
 893:Generated_Source\PSoC4/CapSense_SensingCSX_LL.c ****     #if (CapSense_MULTI_FREQ_SCAN_EN == CapSense_ENABLE)
 894:Generated_Source\PSoC4/CapSense_SensingCSX_LL.c ****     /*  Increment frequency hopping index and initiate next scan if all channels are not scanned */
 895:Generated_Source\PSoC4/CapSense_SensingCSX_LL.c ****         CapSense_scanFreqIndex++;
 896:Generated_Source\PSoC4/CapSense_SensingCSX_LL.c ****         if (CapSense_scanFreqIndex < 3u)
 897:Generated_Source\PSoC4/CapSense_SensingCSX_LL.c ****         {
 898:Generated_Source\PSoC4/CapSense_SensingCSX_LL.c ****             /*  Change IMO frequency and start sample   */
 899:Generated_Source\PSoC4/CapSense_SensingCSX_LL.c ****             CapSense_SsChangeImoFreq (CapSense_scanFreqIndex);
 900:Generated_Source\PSoC4/CapSense_SensingCSX_LL.c ****             CapSense_SsCSXStartSample();
 901:Generated_Source\PSoC4/CapSense_SensingCSX_LL.c ****         }
 902:Generated_Source\PSoC4/CapSense_SensingCSX_LL.c ****         else
 903:Generated_Source\PSoC4/CapSense_SensingCSX_LL.c ****     #endif
 904:Generated_Source\PSoC4/CapSense_SensingCSX_LL.c ****         {
 905:Generated_Source\PSoC4/CapSense_SensingCSX_LL.c ****             /*  Restore IMO clock, Reset frequency hopping channel counter, if FH is enabled.   */
 906:Generated_Source\PSoC4/CapSense_SensingCSX_LL.c ****             #if (CapSense_MULTI_FREQ_SCAN_EN == CapSense_ENABLE)
 907:Generated_Source\PSoC4/CapSense_SensingCSX_LL.c ****                 CapSense_SsChangeImoFreq (0u);
 908:Generated_Source\PSoC4/CapSense_SensingCSX_LL.c ****                 CapSense_scanFreqIndex = 0u;
 909:Generated_Source\PSoC4/CapSense_SensingCSX_LL.c ****             #endif
 910:Generated_Source\PSoC4/CapSense_SensingCSX_LL.c **** 
 911:Generated_Source\PSoC4/CapSense_SensingCSX_LL.c ****             /*  Disconnect ALL pins of previously scanned Tx     */
 912:Generated_Source\PSoC4/CapSense_SensingCSX_LL.c ****             numElectrodes = CapSense_curGangTxPtr->numPins ;
 913:Generated_Source\PSoC4/CapSense_SensingCSX_LL.c ****             CapSense_curTxIOPtr = &CapSense_ioList[CapSense_curGangTxPtr->firstPinId];
 914:Generated_Source\PSoC4/CapSense_SensingCSX_LL.c ****             do
 915:Generated_Source\PSoC4/CapSense_SensingCSX_LL.c ****             {
 916:Generated_Source\PSoC4/CapSense_SensingCSX_LL.c ****                 CapSense_CSXDisconnectTx (CapSense_curTxIOPtr++);
 917:Generated_Source\PSoC4/CapSense_SensingCSX_LL.c ****                 numElectrodes--;
 918:Generated_Source\PSoC4/CapSense_SensingCSX_LL.c ****             } while (0u != numElectrodes);
 919:Generated_Source\PSoC4/CapSense_SensingCSX_LL.c **** 
 920:Generated_Source\PSoC4/CapSense_SensingCSX_LL.c ****             /*  Check if all Tx are scanned, if not, initiate scan for next Tx  */
 921:Generated_Source\PSoC4/CapSense_SensingCSX_LL.c ****             CapSense_curWdgtTotalTx--;
 922:Generated_Source\PSoC4/CapSense_SensingCSX_LL.c ****             if (CapSense_curWdgtTotalTx > 0u)
 923:Generated_Source\PSoC4/CapSense_SensingCSX_LL.c ****             {
 924:Generated_Source\PSoC4/CapSense_SensingCSX_LL.c ****                 /*  1. Find pointer of next Tx (ganged)
 925:Generated_Source\PSoC4/CapSense_SensingCSX_LL.c ****                     2. Connect all Tx pins        */
 926:Generated_Source\PSoC4/CapSense_SensingCSX_LL.c ****                 CapSense_curGangTxPtr++;
 927:Generated_Source\PSoC4/CapSense_SensingCSX_LL.c ****                 numElectrodes = CapSense_curGangTxPtr->numPins ;
 928:Generated_Source\PSoC4/CapSense_SensingCSX_LL.c ****                 CapSense_curTxIOPtr = &CapSense_ioList[CapSense_curGangTxPtr->firstPinId];
 929:Generated_Source\PSoC4/CapSense_SensingCSX_LL.c ****                 do
 930:Generated_Source\PSoC4/CapSense_SensingCSX_LL.c ****                 {
 931:Generated_Source\PSoC4/CapSense_SensingCSX_LL.c ****                     CapSense_CSXConnectTx(CapSense_curTxIOPtr++);
 932:Generated_Source\PSoC4/CapSense_SensingCSX_LL.c ****                     numElectrodes--;
 933:Generated_Source\PSoC4/CapSense_SensingCSX_LL.c ****                 } while (0u != numElectrodes);
 934:Generated_Source\PSoC4/CapSense_SensingCSX_LL.c **** 
 935:Generated_Source\PSoC4/CapSense_SensingCSX_LL.c ****                 /*  Increment RAM pointer to next sensor    */
 936:Generated_Source\PSoC4/CapSense_SensingCSX_LL.c ****                 CapSense_curRamSnsPtr++;
 937:Generated_Source\PSoC4/CapSense_SensingCSX_LL.c **** 
 938:Generated_Source\PSoC4/CapSense_SensingCSX_LL.c ****                 /*  Reset scan result holder and initiate scan */
 939:Generated_Source\PSoC4/CapSense_SensingCSX_LL.c ****                 CapSense_SsCSXStartSample();
 940:Generated_Source\PSoC4/CapSense_SensingCSX_LL.c ****             }
 941:Generated_Source\PSoC4/CapSense_SensingCSX_LL.c ****             else
 942:Generated_Source\PSoC4/CapSense_SensingCSX_LL.c ****             {
 943:Generated_Source\PSoC4/CapSense_SensingCSX_LL.c ****                 /*  Check if all Rx are scanned, if not, initiate scan for next Rx  */
 944:Generated_Source\PSoC4/CapSense_SensingCSX_LL.c ****                 CapSense_curWdgtTotalRx--;
 945:Generated_Source\PSoC4/CapSense_SensingCSX_LL.c ****                 if (CapSense_curWdgtTotalRx > 0u)
ARM GAS  C:\Users\TB1014~1\AppData\Local\Temp\ccLG6s4V.s 			page 18


 946:Generated_Source\PSoC4/CapSense_SensingCSX_LL.c ****                 {
 947:Generated_Source\PSoC4/CapSense_SensingCSX_LL.c ****                     /*  1. Disconnect current Rx ALL pins   */
 948:Generated_Source\PSoC4/CapSense_SensingCSX_LL.c ****                     numElectrodes = CapSense_curGangRxPtr->numPins ;
 949:Generated_Source\PSoC4/CapSense_SensingCSX_LL.c ****                     CapSense_curRxIOPtr = &CapSense_ioList[CapSense_curGangRxPtr->firstPinId];
 950:Generated_Source\PSoC4/CapSense_SensingCSX_LL.c ****                     do
 951:Generated_Source\PSoC4/CapSense_SensingCSX_LL.c ****                     {
 952:Generated_Source\PSoC4/CapSense_SensingCSX_LL.c ****                         CapSense_CSXDisconnectRx(CapSense_curRxIOPtr++);
 953:Generated_Source\PSoC4/CapSense_SensingCSX_LL.c ****                         numElectrodes--;
 954:Generated_Source\PSoC4/CapSense_SensingCSX_LL.c ****                     } while (0u != numElectrodes);
 955:Generated_Source\PSoC4/CapSense_SensingCSX_LL.c **** 
 956:Generated_Source\PSoC4/CapSense_SensingCSX_LL.c ****                     /*  2. Connect next Rx ALL pins */
 957:Generated_Source\PSoC4/CapSense_SensingCSX_LL.c ****                     CapSense_curGangRxPtr++;
 958:Generated_Source\PSoC4/CapSense_SensingCSX_LL.c ****                     numElectrodes = CapSense_curGangRxPtr->numPins ;
 959:Generated_Source\PSoC4/CapSense_SensingCSX_LL.c ****                     CapSense_curRxIOPtr = &CapSense_ioList[CapSense_curGangRxPtr->firstPinId];
 960:Generated_Source\PSoC4/CapSense_SensingCSX_LL.c ****                     do
 961:Generated_Source\PSoC4/CapSense_SensingCSX_LL.c ****                     {
 962:Generated_Source\PSoC4/CapSense_SensingCSX_LL.c ****                         CapSense_CSXConnectRx(CapSense_curRxIOPtr++);
 963:Generated_Source\PSoC4/CapSense_SensingCSX_LL.c ****                         numElectrodes--;
 964:Generated_Source\PSoC4/CapSense_SensingCSX_LL.c ****                     } while (0u != numElectrodes);
 965:Generated_Source\PSoC4/CapSense_SensingCSX_LL.c **** 
 966:Generated_Source\PSoC4/CapSense_SensingCSX_LL.c ****                     /*  3. Re-initialize total Tx to be scanned per Rx
 967:Generated_Source\PSoC4/CapSense_SensingCSX_LL.c ****                         4. Find first Tx  again
 968:Generated_Source\PSoC4/CapSense_SensingCSX_LL.c ****                         5. Connect first Tx ALL pins    */
 969:Generated_Source\PSoC4/CapSense_SensingCSX_LL.c ****                     CapSense_curWdgtTotalTx = CapSense_curFlashWdgtPtr->numRows;
 970:Generated_Source\PSoC4/CapSense_SensingCSX_LL.c ****                     CapSense_curGangTxPtr = CapSense_curFlashWdgtPtr->ptr2SnsFlash;
 971:Generated_Source\PSoC4/CapSense_SensingCSX_LL.c ****                     CapSense_curGangTxPtr += CapSense_curFlashWdgtPtr->numCols;
 972:Generated_Source\PSoC4/CapSense_SensingCSX_LL.c **** 
 973:Generated_Source\PSoC4/CapSense_SensingCSX_LL.c ****                     /*  5. Connect Tx ALL pins    */
 974:Generated_Source\PSoC4/CapSense_SensingCSX_LL.c ****                     numElectrodes = CapSense_curGangTxPtr->numPins ;
 975:Generated_Source\PSoC4/CapSense_SensingCSX_LL.c ****                     CapSense_curTxIOPtr = &CapSense_ioList[CapSense_curGangTxPtr->firstPinId];
 976:Generated_Source\PSoC4/CapSense_SensingCSX_LL.c ****                     do
 977:Generated_Source\PSoC4/CapSense_SensingCSX_LL.c ****                     {
 978:Generated_Source\PSoC4/CapSense_SensingCSX_LL.c ****                         CapSense_CSXConnectTx(CapSense_curTxIOPtr++);
 979:Generated_Source\PSoC4/CapSense_SensingCSX_LL.c ****                         numElectrodes--;
 980:Generated_Source\PSoC4/CapSense_SensingCSX_LL.c ****                     } while (0u != numElectrodes);
 981:Generated_Source\PSoC4/CapSense_SensingCSX_LL.c **** 
 982:Generated_Source\PSoC4/CapSense_SensingCSX_LL.c ****                     /*  Increment RAM pointer to next sensor    */
 983:Generated_Source\PSoC4/CapSense_SensingCSX_LL.c ****                     CapSense_curRamSnsPtr++;
 984:Generated_Source\PSoC4/CapSense_SensingCSX_LL.c **** 
 985:Generated_Source\PSoC4/CapSense_SensingCSX_LL.c ****                     /*  Reset scan result holder and initiate scan */
 986:Generated_Source\PSoC4/CapSense_SensingCSX_LL.c ****                     CapSense_SsCSXStartSample();
 987:Generated_Source\PSoC4/CapSense_SensingCSX_LL.c ****                 }
 988:Generated_Source\PSoC4/CapSense_SensingCSX_LL.c ****                 else
 989:Generated_Source\PSoC4/CapSense_SensingCSX_LL.c ****                 {
 990:Generated_Source\PSoC4/CapSense_SensingCSX_LL.c ****                     /*  Disconnect ALL electrodes of previously scanned Rx   */
 991:Generated_Source\PSoC4/CapSense_SensingCSX_LL.c ****                     numElectrodes = CapSense_curGangRxPtr->numPins ;
 992:Generated_Source\PSoC4/CapSense_SensingCSX_LL.c ****                     CapSense_curRxIOPtr = &CapSense_ioList[CapSense_curGangRxPtr->firstPinId];
 993:Generated_Source\PSoC4/CapSense_SensingCSX_LL.c ****                     do
 994:Generated_Source\PSoC4/CapSense_SensingCSX_LL.c ****                     {
 995:Generated_Source\PSoC4/CapSense_SensingCSX_LL.c ****                         CapSense_CSXDisconnectRx(CapSense_curRxIOPtr++);
 996:Generated_Source\PSoC4/CapSense_SensingCSX_LL.c ****                         numElectrodes--;
 997:Generated_Source\PSoC4/CapSense_SensingCSX_LL.c ****                     } while (0u != numElectrodes);
 998:Generated_Source\PSoC4/CapSense_SensingCSX_LL.c **** 
 999:Generated_Source\PSoC4/CapSense_SensingCSX_LL.c ****                     /*  Call scan next widget API if requested, if not, complete scan   */
1000:Generated_Source\PSoC4/CapSense_SensingCSX_LL.c ****                     if (CapSense_requestScanAllWidget != 0u)
1001:Generated_Source\PSoC4/CapSense_SensingCSX_LL.c ****                     {
1002:Generated_Source\PSoC4/CapSense_SensingCSX_LL.c ****                         CapSense_SsPostAllWidgetsScan();
ARM GAS  C:\Users\TB1014~1\AppData\Local\Temp\ccLG6s4V.s 			page 19


1003:Generated_Source\PSoC4/CapSense_SensingCSX_LL.c ****                     }
1004:Generated_Source\PSoC4/CapSense_SensingCSX_LL.c ****                     else
1005:Generated_Source\PSoC4/CapSense_SensingCSX_LL.c ****                     {
1006:Generated_Source\PSoC4/CapSense_SensingCSX_LL.c ****                         /* All pending scans completed,
1007:Generated_Source\PSoC4/CapSense_SensingCSX_LL.c ****                             1. update the counter to indicat same
1008:Generated_Source\PSoC4/CapSense_SensingCSX_LL.c ****                             2. Clear busy state as scanning is completed      */
1009:Generated_Source\PSoC4/CapSense_SensingCSX_LL.c ****                         CapSense_dsRam.scanCounter++;
1010:Generated_Source\PSoC4/CapSense_SensingCSX_LL.c ****                         CapSense_dsRam.status &= ~CapSense_SW_STS_BUSY;
1011:Generated_Source\PSoC4/CapSense_SensingCSX_LL.c ****                     }
1012:Generated_Source\PSoC4/CapSense_SensingCSX_LL.c ****                 }
1013:Generated_Source\PSoC4/CapSense_SensingCSX_LL.c ****             }
1014:Generated_Source\PSoC4/CapSense_SensingCSX_LL.c ****         }
1015:Generated_Source\PSoC4/CapSense_SensingCSX_LL.c **** 
1016:Generated_Source\PSoC4/CapSense_SensingCSX_LL.c ****     #ifdef CapSense_EXIT_CALLBACK
1017:Generated_Source\PSoC4/CapSense_SensingCSX_LL.c ****         CapSense_ExitCallBack();
1018:Generated_Source\PSoC4/CapSense_SensingCSX_LL.c ****     #endif /* CapSense_EXIT_CALLBACK */
1019:Generated_Source\PSoC4/CapSense_SensingCSX_LL.c **** }
1020:Generated_Source\PSoC4/CapSense_SensingCSX_LL.c **** 
1021:Generated_Source\PSoC4/CapSense_SensingCSX_LL.c **** #endif  /*  end of (CapSense_CSX_GANGED_SNS_EN == 1u)   */
1022:Generated_Source\PSoC4/CapSense_SensingCSX_LL.c **** 
1023:Generated_Source\PSoC4/CapSense_SensingCSX_LL.c **** /*******************************************************************************
1024:Generated_Source\PSoC4/CapSense_SensingCSX_LL.c **** * Function Name: CapSense_SsCSXPostSingleScan
1025:Generated_Source\PSoC4/CapSense_SensingCSX_LL.c **** ****************************************************************************//**
1026:Generated_Source\PSoC4/CapSense_SensingCSX_LL.c **** *
1027:Generated_Source\PSoC4/CapSense_SensingCSX_LL.c **** * \brief
1028:Generated_Source\PSoC4/CapSense_SensingCSX_LL.c **** *   The ISR function for single-sensor scanning implementation.
1029:Generated_Source\PSoC4/CapSense_SensingCSX_LL.c **** *
1030:Generated_Source\PSoC4/CapSense_SensingCSX_LL.c **** * \details
1031:Generated_Source\PSoC4/CapSense_SensingCSX_LL.c **** *   This function is used by CapSense ISR in the CSX scanning mode to implement
1032:Generated_Source\PSoC4/CapSense_SensingCSX_LL.c **** *   the single-sensor scanning.
1033:Generated_Source\PSoC4/CapSense_SensingCSX_LL.c **** *   This function should not be used by the application layer.
1034:Generated_Source\PSoC4/CapSense_SensingCSX_LL.c **** *
1035:Generated_Source\PSoC4/CapSense_SensingCSX_LL.c **** *******************************************************************************/
1036:Generated_Source\PSoC4/CapSense_SensingCSX_LL.c **** 
1037:Generated_Source\PSoC4/CapSense_SensingCSX_LL.c **** static void CapSense_SsCSXPostSingleScan(void)
1038:Generated_Source\PSoC4/CapSense_SensingCSX_LL.c **** {
  25              		.loc 1 1038 0
  26              		.cfi_startproc
1039:Generated_Source\PSoC4/CapSense_SensingCSX_LL.c ****     #ifdef CapSense_ENTRY_CALLBACK
1040:Generated_Source\PSoC4/CapSense_SensingCSX_LL.c ****         CapSense_EntryCallback();
1041:Generated_Source\PSoC4/CapSense_SensingCSX_LL.c ****     #endif /* CapSense_ENTRY_CALLBACK */
1042:Generated_Source\PSoC4/CapSense_SensingCSX_LL.c **** 
1043:Generated_Source\PSoC4/CapSense_SensingCSX_LL.c ****     /*  Copy scan result into sensor raw count array and clear busy flag
1044:Generated_Source\PSoC4/CapSense_SensingCSX_LL.c ****         No sensor is connected or disconnected in this function
1045:Generated_Source\PSoC4/CapSense_SensingCSX_LL.c ****         Calling CapSense_ScanExt from application would perform
1046:Generated_Source\PSoC4/CapSense_SensingCSX_LL.c ****         one more scan of same sensor. Specifically for low-power mode.   */
1047:Generated_Source\PSoC4/CapSense_SensingCSX_LL.c ****     CapSense_curRamSnsPtr->raw[CapSense_scanFreqIndex] = \
  27              		.loc 1 1047 0
  28 0000 094B     		ldr	r3, .L2
  29 0002 1868     		ldr	r0, [r3]
  30 0004 094B     		ldr	r3, .L2+4
  31 0006 1B78     		ldrb	r3, [r3]
  32 0008 0949     		ldr	r1, .L2+8
  33 000a 0A88     		ldrh	r2, [r1]
  34 000c 4988     		ldrh	r1, [r1, #2]
  35 000e 5B00     		lsl	r3, r3, #1
  36 0010 521A     		sub	r2, r2, r1
ARM GAS  C:\Users\TB1014~1\AppData\Local\Temp\ccLG6s4V.s 			page 20


  37 0012 1A52     		strh	r2, [r3, r0]
1048:Generated_Source\PSoC4/CapSense_SensingCSX_LL.c ****                         (CapSense_csxScanPeriod - CapSense_csxRawCount);
1049:Generated_Source\PSoC4/CapSense_SensingCSX_LL.c **** 
1050:Generated_Source\PSoC4/CapSense_SensingCSX_LL.c ****     /*  If frequency hopping is enabled */
1051:Generated_Source\PSoC4/CapSense_SensingCSX_LL.c ****     #if (CapSense_MULTI_FREQ_SCAN_EN == CapSense_ENABLE)
1052:Generated_Source\PSoC4/CapSense_SensingCSX_LL.c ****         /*  Increment frequency hopping index and initiate next scan if all
1053:Generated_Source\PSoC4/CapSense_SensingCSX_LL.c ****             channels are not scanned */
1054:Generated_Source\PSoC4/CapSense_SensingCSX_LL.c ****         if (++CapSense_scanFreqIndex < 3u)
1055:Generated_Source\PSoC4/CapSense_SensingCSX_LL.c ****         {
1056:Generated_Source\PSoC4/CapSense_SensingCSX_LL.c ****             /*  Change IMO frequency and start sample   */
1057:Generated_Source\PSoC4/CapSense_SensingCSX_LL.c ****             CapSense_SsChangeImoFreq((uint32)CapSense_scanFreqIndex);
1058:Generated_Source\PSoC4/CapSense_SensingCSX_LL.c ****             CapSense_SsCSXStartSample();
1059:Generated_Source\PSoC4/CapSense_SensingCSX_LL.c ****         }
1060:Generated_Source\PSoC4/CapSense_SensingCSX_LL.c ****         else
1061:Generated_Source\PSoC4/CapSense_SensingCSX_LL.c ****     #endif
1062:Generated_Source\PSoC4/CapSense_SensingCSX_LL.c ****         {
1063:Generated_Source\PSoC4/CapSense_SensingCSX_LL.c ****             /*  Restore IMO clock   */
1064:Generated_Source\PSoC4/CapSense_SensingCSX_LL.c ****             #if (CapSense_MULTI_FREQ_SCAN_EN == CapSense_ENABLE)
1065:Generated_Source\PSoC4/CapSense_SensingCSX_LL.c ****                 CapSense_SsChangeImoFreq(0u);
1066:Generated_Source\PSoC4/CapSense_SensingCSX_LL.c ****             #endif
1067:Generated_Source\PSoC4/CapSense_SensingCSX_LL.c **** 
1068:Generated_Source\PSoC4/CapSense_SensingCSX_LL.c ****             /* All pending scans completed,
1069:Generated_Source\PSoC4/CapSense_SensingCSX_LL.c ****                 1. update the counter to indicat same
1070:Generated_Source\PSoC4/CapSense_SensingCSX_LL.c ****                 2. Clear busy state as scanning is completed    */
1071:Generated_Source\PSoC4/CapSense_SensingCSX_LL.c ****             CapSense_dsRam.scanCounter++;
  38              		.loc 1 1071 0
  39 0014 074B     		ldr	r3, .L2+12
  40 0016 DA88     		ldrh	r2, [r3, #6]
  41 0018 0132     		add	r2, r2, #1
  42 001a DA80     		strh	r2, [r3, #6]
1072:Generated_Source\PSoC4/CapSense_SensingCSX_LL.c ****             CapSense_dsRam.status &= ~CapSense_SW_STS_BUSY;
  43              		.loc 1 1072 0
  44 001c 8022     		mov	r2, #128
  45 001e 9968     		ldr	r1, [r3, #8]
  46 0020 9143     		bic	r1, r2
  47 0022 9960     		str	r1, [r3, #8]
1073:Generated_Source\PSoC4/CapSense_SensingCSX_LL.c ****         }
1074:Generated_Source\PSoC4/CapSense_SensingCSX_LL.c **** 
1075:Generated_Source\PSoC4/CapSense_SensingCSX_LL.c ****     #ifdef CapSense_EXIT_CALLBACK
1076:Generated_Source\PSoC4/CapSense_SensingCSX_LL.c ****         CapSense_ExitCallBack();
1077:Generated_Source\PSoC4/CapSense_SensingCSX_LL.c ****     #endif /* CapSense_EXIT_CALLBACK */
1078:Generated_Source\PSoC4/CapSense_SensingCSX_LL.c **** }
  48              		.loc 1 1078 0
  49              		@ sp needed
  50 0024 7047     		bx	lr
  51              	.L3:
  52 0026 C046     		.align	2
  53              	.L2:
  54 0028 00000000 		.word	CapSense_curRamSnsPtr
  55 002c 00000000 		.word	CapSense_scanFreqIndex
  56 0030 00000000 		.word	.LANCHOR0
  57 0034 00000000 		.word	CapSense_dsRam
  58              		.cfi_endproc
  59              	.LFE8:
  60              		.size	CapSense_SsCSXPostSingleScan, .-CapSense_SsCSXPostSingleScan
  61              		.section	.text.CapSense_SsCalcCsxScanPeriod,"ax",%progbits
  62              		.align	2
ARM GAS  C:\Users\TB1014~1\AppData\Local\Temp\ccLG6s4V.s 			page 21


  63              		.code	16
  64              		.thumb_func
  65              		.type	CapSense_SsCalcCsxScanPeriod, %function
  66              	CapSense_SsCalcCsxScanPeriod:
  67              	.LFB16:
1079:Generated_Source\PSoC4/CapSense_SensingCSX_LL.c **** 
1080:Generated_Source\PSoC4/CapSense_SensingCSX_LL.c **** /*******************************************************************************
1081:Generated_Source\PSoC4/CapSense_SensingCSX_LL.c **** * Function Name: CapSense_CSXCalibrateWidget
1082:Generated_Source\PSoC4/CapSense_SensingCSX_LL.c **** ****************************************************************************//**
1083:Generated_Source\PSoC4/CapSense_SensingCSX_LL.c **** *
1084:Generated_Source\PSoC4/CapSense_SensingCSX_LL.c **** * \brief
1085:Generated_Source\PSoC4/CapSense_SensingCSX_LL.c **** *  Calibrates the raw count values of all sensors/nodes in a CSX widget.
1086:Generated_Source\PSoC4/CapSense_SensingCSX_LL.c **** *
1087:Generated_Source\PSoC4/CapSense_SensingCSX_LL.c **** * \details
1088:Generated_Source\PSoC4/CapSense_SensingCSX_LL.c **** *  Performs a successive approximation search algorithm to find appropriate
1089:Generated_Source\PSoC4/CapSense_SensingCSX_LL.c **** *  IDAC values for sensors in the specified widget that provides a raw count
1090:Generated_Source\PSoC4/CapSense_SensingCSX_LL.c **** *  to the level specified by the target parameter.
1091:Generated_Source\PSoC4/CapSense_SensingCSX_LL.c **** *
1092:Generated_Source\PSoC4/CapSense_SensingCSX_LL.c **** *  This function is available when the CSX Enable IDAC auto-calibration
1093:Generated_Source\PSoC4/CapSense_SensingCSX_LL.c **** *  parameter is enabled.
1094:Generated_Source\PSoC4/CapSense_SensingCSX_LL.c **** *
1095:Generated_Source\PSoC4/CapSense_SensingCSX_LL.c **** * \param  widgetIndex
1096:Generated_Source\PSoC4/CapSense_SensingCSX_LL.c **** *  Specify the ID number of the CSX widget to calibrate its raw count.
1097:Generated_Source\PSoC4/CapSense_SensingCSX_LL.c **** *  A macro for the widget ID can be found in the
1098:Generated_Source\PSoC4/CapSense_SensingCSX_LL.c **** *  CapSense Configuration header file defined as
1099:Generated_Source\PSoC4/CapSense_SensingCSX_LL.c **** *  CapSense_<WidgetName>_WDGT_ID.
1100:Generated_Source\PSoC4/CapSense_SensingCSX_LL.c **** *
1101:Generated_Source\PSoC4/CapSense_SensingCSX_LL.c **** * \param  target
1102:Generated_Source\PSoC4/CapSense_SensingCSX_LL.c **** *  Specify the calibration target in percentages of the maximum raw count.
1103:Generated_Source\PSoC4/CapSense_SensingCSX_LL.c **** *
1104:Generated_Source\PSoC4/CapSense_SensingCSX_LL.c **** *******************************************************************************/
1105:Generated_Source\PSoC4/CapSense_SensingCSX_LL.c **** #if (CapSense_CSX_IDAC_AUTOCAL_EN == CapSense_ENABLE)
1106:Generated_Source\PSoC4/CapSense_SensingCSX_LL.c **** 
1107:Generated_Source\PSoC4/CapSense_SensingCSX_LL.c **** void CapSense_CSXCalibrateWidget(uint32 widgetIndex, uint16 target)
1108:Generated_Source\PSoC4/CapSense_SensingCSX_LL.c **** {
1109:Generated_Source\PSoC4/CapSense_SensingCSX_LL.c ****     /*  Declare and initialise ptr to widget and sensor structures        */
1110:Generated_Source\PSoC4/CapSense_SensingCSX_LL.c ****     CapSense_RAM_SNS_STRUCT *snsRamPtr = CapSense_dsFlash.wdgtArray[widgetIndex].ptr2SnsRam;
1111:Generated_Source\PSoC4/CapSense_SensingCSX_LL.c ****     CapSense_RAM_WD_BASE_STRUCT *ptrWdgt = (CapSense_RAM_WD_BASE_STRUCT *)
1112:Generated_Source\PSoC4/CapSense_SensingCSX_LL.c ****                                           CapSense_dsFlash.wdgtArray[widgetIndex].ptr2WdgtRam;
1113:Generated_Source\PSoC4/CapSense_SensingCSX_LL.c ****     /*  Current IDAC bit in use
1114:Generated_Source\PSoC4/CapSense_SensingCSX_LL.c ****         next idac bit to be used
1115:Generated_Source\PSoC4/CapSense_SensingCSX_LL.c ****         counters for loop execution
1116:Generated_Source\PSoC4/CapSense_SensingCSX_LL.c ****         variable to calculate raw count target      */
1117:Generated_Source\PSoC4/CapSense_SensingCSX_LL.c ****     uint8 curIdacMask = (1u << (CapSense_CSX_IDAC_BITS_USED-1u));
1118:Generated_Source\PSoC4/CapSense_SensingCSX_LL.c ****     uint8 nextIdacMask = (curIdacMask >> 1u);
1119:Generated_Source\PSoC4/CapSense_SensingCSX_LL.c ****     uint32 calibrationIndex, totalSns;
1120:Generated_Source\PSoC4/CapSense_SensingCSX_LL.c ****     uint32 rawTarget;
1121:Generated_Source\PSoC4/CapSense_SensingCSX_LL.c **** 
1122:Generated_Source\PSoC4/CapSense_SensingCSX_LL.c ****     #if(CapSense_ENABLE == CapSense_CSDV2)
1123:Generated_Source\PSoC4/CapSense_SensingCSX_LL.c ****         #if (0u != CapSense_CSX_COMMON_TX_CLK_EN)
1124:Generated_Source\PSoC4/CapSense_SensingCSX_LL.c ****             rawTarget = (uint32)CapSense_dsRam.snsCsxClk;
1125:Generated_Source\PSoC4/CapSense_SensingCSX_LL.c ****         #else
1126:Generated_Source\PSoC4/CapSense_SensingCSX_LL.c ****             rawTarget = (uint32)ptrWdgt->snsClk;
1127:Generated_Source\PSoC4/CapSense_SensingCSX_LL.c ****         #endif /* (0u != CapSense_CSX_COMMON_TX_CLK_EN) */
1128:Generated_Source\PSoC4/CapSense_SensingCSX_LL.c **** 
1129:Generated_Source\PSoC4/CapSense_SensingCSX_LL.c ****         CapSense_csxScanPeriod  = CapSense_SsCalcCsxScanPeriod (ptrWdgt);
1130:Generated_Source\PSoC4/CapSense_SensingCSX_LL.c ****         rawTarget = CapSense_csxScanPeriod;
ARM GAS  C:\Users\TB1014~1\AppData\Local\Temp\ccLG6s4V.s 			page 22


1131:Generated_Source\PSoC4/CapSense_SensingCSX_LL.c ****     #else
1132:Generated_Source\PSoC4/CapSense_SensingCSX_LL.c ****         /*  Find max count       */
1133:Generated_Source\PSoC4/CapSense_SensingCSX_LL.c ****         rawTarget = CapSense_csxScanPeriod = CapSense_SsCalcCsxScanPeriod (ptrWdgt);
1134:Generated_Source\PSoC4/CapSense_SensingCSX_LL.c ****     #endif /* (CapSense_ENABLE == CapSense_CSDV2) */
1135:Generated_Source\PSoC4/CapSense_SensingCSX_LL.c **** 
1136:Generated_Source\PSoC4/CapSense_SensingCSX_LL.c ****     /*  Calculate target raw count      */
1137:Generated_Source\PSoC4/CapSense_SensingCSX_LL.c ****     rawTarget = (rawTarget * target);
1138:Generated_Source\PSoC4/CapSense_SensingCSX_LL.c ****     rawTarget = (rawTarget / CapSense_PERCENTAGE_100);
1139:Generated_Source\PSoC4/CapSense_SensingCSX_LL.c **** 
1140:Generated_Source\PSoC4/CapSense_SensingCSX_LL.c ****     if (CapSense_SENSE_METHOD_CSX_E == 
1141:Generated_Source\PSoC4/CapSense_SensingCSX_LL.c ****        CapSense_GET_SENSE_METHOD(&CapSense_dsFlash.wdgtArray[widgetIndex]))
1142:Generated_Source\PSoC4/CapSense_SensingCSX_LL.c ****     {
1143:Generated_Source\PSoC4/CapSense_SensingCSX_LL.c ****         /*  Find out total sensors/nodes in widget  */
1144:Generated_Source\PSoC4/CapSense_SensingCSX_LL.c ****         totalSns = ((uint32)CapSense_dsFlash.wdgtArray[widgetIndex].numCols *
1145:Generated_Source\PSoC4/CapSense_SensingCSX_LL.c ****                     (uint32)CapSense_dsFlash.wdgtArray[widgetIndex].numRows);
1146:Generated_Source\PSoC4/CapSense_SensingCSX_LL.c **** 
1147:Generated_Source\PSoC4/CapSense_SensingCSX_LL.c ****         /*  Clear raw count registers and IDAC registers of all sensors/nodes   */
1148:Generated_Source\PSoC4/CapSense_SensingCSX_LL.c ****         for (calibrationIndex = 0u; calibrationIndex < totalSns; calibrationIndex++)
1149:Generated_Source\PSoC4/CapSense_SensingCSX_LL.c ****         {
1150:Generated_Source\PSoC4/CapSense_SensingCSX_LL.c ****             snsRamPtr->raw[0u] = 0u;
1151:Generated_Source\PSoC4/CapSense_SensingCSX_LL.c ****             snsRamPtr->idacComp[0u] = curIdacMask;
1152:Generated_Source\PSoC4/CapSense_SensingCSX_LL.c ****             #if (CapSense_MULTI_FREQ_SCAN_EN == CapSense_ENABLE)
1153:Generated_Source\PSoC4/CapSense_SensingCSX_LL.c ****                 snsRamPtr->raw[1] = 0u;
1154:Generated_Source\PSoC4/CapSense_SensingCSX_LL.c ****                 snsRamPtr->raw[2] = 0u;
1155:Generated_Source\PSoC4/CapSense_SensingCSX_LL.c ****                 snsRamPtr->idacComp[1] = curIdacMask;
1156:Generated_Source\PSoC4/CapSense_SensingCSX_LL.c ****                 snsRamPtr->idacComp[2] = curIdacMask;
1157:Generated_Source\PSoC4/CapSense_SensingCSX_LL.c ****             #endif
1158:Generated_Source\PSoC4/CapSense_SensingCSX_LL.c ****             snsRamPtr++;
1159:Generated_Source\PSoC4/CapSense_SensingCSX_LL.c ****         }
1160:Generated_Source\PSoC4/CapSense_SensingCSX_LL.c **** 
1161:Generated_Source\PSoC4/CapSense_SensingCSX_LL.c ****         /*  1. Perform binary search for accurate IDAC value for each sensor/node   */
1162:Generated_Source\PSoC4/CapSense_SensingCSX_LL.c ****         do
1163:Generated_Source\PSoC4/CapSense_SensingCSX_LL.c ****         {
1164:Generated_Source\PSoC4/CapSense_SensingCSX_LL.c ****             /*  1. Get access to sensor data    */
1165:Generated_Source\PSoC4/CapSense_SensingCSX_LL.c ****             snsRamPtr = (CapSense_RAM_SNS_STRUCT *)CapSense_dsFlash.wdgtArray[widgetIndex].ptr2SnsR
1166:Generated_Source\PSoC4/CapSense_SensingCSX_LL.c **** 
1167:Generated_Source\PSoC4/CapSense_SensingCSX_LL.c ****             /*  Scan all sensors/nodes in widget    */
1168:Generated_Source\PSoC4/CapSense_SensingCSX_LL.c ****             (void)CapSense_SetupWidget(widgetIndex);
1169:Generated_Source\PSoC4/CapSense_SensingCSX_LL.c ****             (void)CapSense_Scan();
1170:Generated_Source\PSoC4/CapSense_SensingCSX_LL.c ****             while ((*(volatile uint8 *)&CapSense_dsRam.status & CapSense_SW_STS_BUSY) != 0u)
1171:Generated_Source\PSoC4/CapSense_SensingCSX_LL.c ****             {
1172:Generated_Source\PSoC4/CapSense_SensingCSX_LL.c ****             }
1173:Generated_Source\PSoC4/CapSense_SensingCSX_LL.c **** 
1174:Generated_Source\PSoC4/CapSense_SensingCSX_LL.c ****             /*  1.2 Check raw count and adjust IDAC, loop through all sensors/nodes */
1175:Generated_Source\PSoC4/CapSense_SensingCSX_LL.c ****             for (calibrationIndex = 0u; calibrationIndex < totalSns; calibrationIndex++)
1176:Generated_Source\PSoC4/CapSense_SensingCSX_LL.c ****             {
1177:Generated_Source\PSoC4/CapSense_SensingCSX_LL.c ****                 /*  1.2.1 Check if current raw count is above target,
1178:Generated_Source\PSoC4/CapSense_SensingCSX_LL.c ****                         if yes, clear the MS bit of bit
1179:Generated_Source\PSoC4/CapSense_SensingCSX_LL.c ****                         if no, keep the MS bit and set next bit     */
1180:Generated_Source\PSoC4/CapSense_SensingCSX_LL.c ****                 if (snsRamPtr->raw[0u] > rawTarget)
1181:Generated_Source\PSoC4/CapSense_SensingCSX_LL.c ****                 {
1182:Generated_Source\PSoC4/CapSense_SensingCSX_LL.c ****                     snsRamPtr->idacComp[0u] &= (uint8)(~curIdacMask);
1183:Generated_Source\PSoC4/CapSense_SensingCSX_LL.c ****                 }
1184:Generated_Source\PSoC4/CapSense_SensingCSX_LL.c ****                 snsRamPtr->idacComp[0u] |= nextIdacMask;
1185:Generated_Source\PSoC4/CapSense_SensingCSX_LL.c **** 
1186:Generated_Source\PSoC4/CapSense_SensingCSX_LL.c ****                 #if (CapSense_MULTI_FREQ_SCAN_EN == CapSense_ENABLE)
1187:Generated_Source\PSoC4/CapSense_SensingCSX_LL.c ****                     if (snsRamPtr->raw[1u] > rawTarget)
ARM GAS  C:\Users\TB1014~1\AppData\Local\Temp\ccLG6s4V.s 			page 23


1188:Generated_Source\PSoC4/CapSense_SensingCSX_LL.c ****                     {
1189:Generated_Source\PSoC4/CapSense_SensingCSX_LL.c ****                         snsRamPtr->idacComp[1u] &= (uint8)(~curIdacMask);
1190:Generated_Source\PSoC4/CapSense_SensingCSX_LL.c ****                     }
1191:Generated_Source\PSoC4/CapSense_SensingCSX_LL.c **** 
1192:Generated_Source\PSoC4/CapSense_SensingCSX_LL.c ****                     if (snsRamPtr->raw[2u] > rawTarget)
1193:Generated_Source\PSoC4/CapSense_SensingCSX_LL.c ****                     {
1194:Generated_Source\PSoC4/CapSense_SensingCSX_LL.c ****                         snsRamPtr->idacComp[2u] &= (uint8)(~curIdacMask);
1195:Generated_Source\PSoC4/CapSense_SensingCSX_LL.c ****                     }
1196:Generated_Source\PSoC4/CapSense_SensingCSX_LL.c **** 
1197:Generated_Source\PSoC4/CapSense_SensingCSX_LL.c ****                     snsRamPtr->idacComp[1u] |= nextIdacMask;
1198:Generated_Source\PSoC4/CapSense_SensingCSX_LL.c ****                     snsRamPtr->idacComp[2u] |= nextIdacMask;
1199:Generated_Source\PSoC4/CapSense_SensingCSX_LL.c ****                 #endif
1200:Generated_Source\PSoC4/CapSense_SensingCSX_LL.c ****                 snsRamPtr++;
1201:Generated_Source\PSoC4/CapSense_SensingCSX_LL.c ****             }
1202:Generated_Source\PSoC4/CapSense_SensingCSX_LL.c **** 
1203:Generated_Source\PSoC4/CapSense_SensingCSX_LL.c ****             /*  Shift both current idac and pre Idac values to right by 1   */
1204:Generated_Source\PSoC4/CapSense_SensingCSX_LL.c ****             curIdacMask = nextIdacMask;
1205:Generated_Source\PSoC4/CapSense_SensingCSX_LL.c ****             nextIdacMask = nextIdacMask >> 1u;
1206:Generated_Source\PSoC4/CapSense_SensingCSX_LL.c ****         }
1207:Generated_Source\PSoC4/CapSense_SensingCSX_LL.c ****         while (curIdacMask != 0u);
1208:Generated_Source\PSoC4/CapSense_SensingCSX_LL.c ****     }
1209:Generated_Source\PSoC4/CapSense_SensingCSX_LL.c **** }
1210:Generated_Source\PSoC4/CapSense_SensingCSX_LL.c **** 
1211:Generated_Source\PSoC4/CapSense_SensingCSX_LL.c **** #endif /* (CapSense_CSX_IDAC_AUTOCAL_EN == CapSense_ENABLE) */
1212:Generated_Source\PSoC4/CapSense_SensingCSX_LL.c **** 
1213:Generated_Source\PSoC4/CapSense_SensingCSX_LL.c **** #if(CapSense_ENABLE == CapSense_CSDV2)
1214:Generated_Source\PSoC4/CapSense_SensingCSX_LL.c **** /*******************************************************************************
1215:Generated_Source\PSoC4/CapSense_SensingCSX_LL.c **** * Function Name: CapSense_SsCSXStartSample
1216:Generated_Source\PSoC4/CapSense_SensingCSX_LL.c **** ****************************************************************************//**
1217:Generated_Source\PSoC4/CapSense_SensingCSX_LL.c **** *
1218:Generated_Source\PSoC4/CapSense_SensingCSX_LL.c **** * \brief
1219:Generated_Source\PSoC4/CapSense_SensingCSX_LL.c **** *   Starts scanning for the CSX widget.
1220:Generated_Source\PSoC4/CapSense_SensingCSX_LL.c **** *
1221:Generated_Source\PSoC4/CapSense_SensingCSX_LL.c **** * \details
1222:Generated_Source\PSoC4/CapSense_SensingCSX_LL.c **** *   Starts scanning for the CSX widget.
1223:Generated_Source\PSoC4/CapSense_SensingCSX_LL.c **** *
1224:Generated_Source\PSoC4/CapSense_SensingCSX_LL.c **** *******************************************************************************/
1225:Generated_Source\PSoC4/CapSense_SensingCSX_LL.c **** static void CapSense_SsCSXStartSample(void)
1226:Generated_Source\PSoC4/CapSense_SensingCSX_LL.c **** {
1227:Generated_Source\PSoC4/CapSense_SensingCSX_LL.c ****     uint32 tmpRegVal;
1228:Generated_Source\PSoC4/CapSense_SensingCSX_LL.c **** 
1229:Generated_Source\PSoC4/CapSense_SensingCSX_LL.c ****     tmpRegVal = (uint32)CapSense_curRamSnsPtr->idacComp[CapSense_scanFreqIndex];
1230:Generated_Source\PSoC4/CapSense_SensingCSX_LL.c ****     tmpRegVal = (tmpRegVal & CapSense_IDAC_MOD_VAL_MASK) | CapSense_DEFAULT_CSD_IDACA_CFG;
1231:Generated_Source\PSoC4/CapSense_SensingCSX_LL.c ****     CY_SET_REG32(CapSense_IDAC_MOD_PTR, tmpRegVal);
1232:Generated_Source\PSoC4/CapSense_SensingCSX_LL.c **** 
1233:Generated_Source\PSoC4/CapSense_SensingCSX_LL.c ****     /*  Clear scan result holder    */
1234:Generated_Source\PSoC4/CapSense_SensingCSX_LL.c ****     CapSense_csxRawCount = 0u;
1235:Generated_Source\PSoC4/CapSense_SensingCSX_LL.c ****     CapSense_SsCSXStartSampleExt();
1236:Generated_Source\PSoC4/CapSense_SensingCSX_LL.c **** }
1237:Generated_Source\PSoC4/CapSense_SensingCSX_LL.c **** #else
1238:Generated_Source\PSoC4/CapSense_SensingCSX_LL.c **** /*******************************************************************************
1239:Generated_Source\PSoC4/CapSense_SensingCSX_LL.c **** * Function Name: CapSense_SsCSXStartSample
1240:Generated_Source\PSoC4/CapSense_SensingCSX_LL.c **** ****************************************************************************//**
1241:Generated_Source\PSoC4/CapSense_SensingCSX_LL.c **** *
1242:Generated_Source\PSoC4/CapSense_SensingCSX_LL.c **** * \brief
1243:Generated_Source\PSoC4/CapSense_SensingCSX_LL.c **** *   Starts scanning for the CSX widget.
1244:Generated_Source\PSoC4/CapSense_SensingCSX_LL.c **** *
ARM GAS  C:\Users\TB1014~1\AppData\Local\Temp\ccLG6s4V.s 			page 24


1245:Generated_Source\PSoC4/CapSense_SensingCSX_LL.c **** * \param  widgetIndex The ID of the widget to be calibrated.
1246:Generated_Source\PSoC4/CapSense_SensingCSX_LL.c **** *
1247:Generated_Source\PSoC4/CapSense_SensingCSX_LL.c **** * \details
1248:Generated_Source\PSoC4/CapSense_SensingCSX_LL.c **** *
1249:Generated_Source\PSoC4/CapSense_SensingCSX_LL.c **** *******************************************************************************/
1250:Generated_Source\PSoC4/CapSense_SensingCSX_LL.c **** static void CapSense_SsCSXStartSample(void)
1251:Generated_Source\PSoC4/CapSense_SensingCSX_LL.c **** {
1252:Generated_Source\PSoC4/CapSense_SensingCSX_LL.c ****     uint8 critSect;
1253:Generated_Source\PSoC4/CapSense_SensingCSX_LL.c **** 
1254:Generated_Source\PSoC4/CapSense_SensingCSX_LL.c ****     CY_SET_REG32(CapSense_IDAC_PTR, (CapSense_IDAC_MOD_MODE_VARIABLE |
1255:Generated_Source\PSoC4/CapSense_SensingCSX_LL.c ****                                 (uint32)CapSense_curRamSnsPtr->idacComp[CapSense_scanFreqIndex]));
1256:Generated_Source\PSoC4/CapSense_SensingCSX_LL.c **** 
1257:Generated_Source\PSoC4/CapSense_SensingCSX_LL.c ****     /*  Clear scan result holder    */
1258:Generated_Source\PSoC4/CapSense_SensingCSX_LL.c ****     CapSense_csxRawCount = 0u;
1259:Generated_Source\PSoC4/CapSense_SensingCSX_LL.c **** 
1260:Generated_Source\PSoC4/CapSense_SensingCSX_LL.c ****     /*  Disable interrupts and initiate scan  */
1261:Generated_Source\PSoC4/CapSense_SensingCSX_LL.c ****     critSect = CyEnterCriticalSection();
1262:Generated_Source\PSoC4/CapSense_SensingCSX_LL.c ****     CapSense_SsCSXStartSampleExt();
1263:Generated_Source\PSoC4/CapSense_SensingCSX_LL.c ****     CyExitCriticalSection(critSect);
1264:Generated_Source\PSoC4/CapSense_SensingCSX_LL.c **** }
1265:Generated_Source\PSoC4/CapSense_SensingCSX_LL.c **** #endif /* (CapSense_ENABLE == CapSense_CSDV2) */
1266:Generated_Source\PSoC4/CapSense_SensingCSX_LL.c **** 
1267:Generated_Source\PSoC4/CapSense_SensingCSX_LL.c **** 
1268:Generated_Source\PSoC4/CapSense_SensingCSX_LL.c **** /*******************************************************************************
1269:Generated_Source\PSoC4/CapSense_SensingCSX_LL.c **** * Function Name: CapSense_CSXConnectTx
1270:Generated_Source\PSoC4/CapSense_SensingCSX_LL.c **** ****************************************************************************//**
1271:Generated_Source\PSoC4/CapSense_SensingCSX_LL.c **** *
1272:Generated_Source\PSoC4/CapSense_SensingCSX_LL.c **** * \brief
1273:Generated_Source\PSoC4/CapSense_SensingCSX_LL.c **** *  Connects a TX electrode to the CSX scanning hardware.
1274:Generated_Source\PSoC4/CapSense_SensingCSX_LL.c **** *
1275:Generated_Source\PSoC4/CapSense_SensingCSX_LL.c **** * \details
1276:Generated_Source\PSoC4/CapSense_SensingCSX_LL.c **** *  This function connects a port pin (Tx electrode) to the CSD_SENSE signal.
1277:Generated_Source\PSoC4/CapSense_SensingCSX_LL.c **** *  It is assumed that the drive mode of the port pin is already set to STRONG
1278:Generated_Source\PSoC4/CapSense_SensingCSX_LL.c **** *  in the HSIOM_PORT_SELx register.
1279:Generated_Source\PSoC4/CapSense_SensingCSX_LL.c **** *
1280:Generated_Source\PSoC4/CapSense_SensingCSX_LL.c **** *  It is not recommended to call this function directly from the application
1281:Generated_Source\PSoC4/CapSense_SensingCSX_LL.c **** *  layer. This function should be used to implement only the user’s specific
1282:Generated_Source\PSoC4/CapSense_SensingCSX_LL.c **** *  use cases (for faster execution time when there is only one port pin for an
1283:Generated_Source\PSoC4/CapSense_SensingCSX_LL.c **** *  electrode for example).
1284:Generated_Source\PSoC4/CapSense_SensingCSX_LL.c **** *
1285:Generated_Source\PSoC4/CapSense_SensingCSX_LL.c **** * \param  txPtr
1286:Generated_Source\PSoC4/CapSense_SensingCSX_LL.c **** *  Specify the pointer to the FLASH_IO_STRUCT object belonging to a sensor
1287:Generated_Source\PSoC4/CapSense_SensingCSX_LL.c **** *  which should be connected to the CapSense block as Tx pin.
1288:Generated_Source\PSoC4/CapSense_SensingCSX_LL.c **** *
1289:Generated_Source\PSoC4/CapSense_SensingCSX_LL.c **** *******************************************************************************/
1290:Generated_Source\PSoC4/CapSense_SensingCSX_LL.c **** void CapSense_CSXConnectTx(CapSense_FLASH_IO_STRUCT const *txPtr)
1291:Generated_Source\PSoC4/CapSense_SensingCSX_LL.c **** {
1292:Generated_Source\PSoC4/CapSense_SensingCSX_LL.c ****     uint32 regValue;
1293:Generated_Source\PSoC4/CapSense_SensingCSX_LL.c **** 
1294:Generated_Source\PSoC4/CapSense_SensingCSX_LL.c ****     regValue = CY_GET_REG32 (txPtr->pcPtr);
1295:Generated_Source\PSoC4/CapSense_SensingCSX_LL.c ****     regValue |= (CapSense_GPIO_STRGDRV << txPtr->shift);
1296:Generated_Source\PSoC4/CapSense_SensingCSX_LL.c ****     CY_SET_REG32 (txPtr->pcPtr, regValue);
1297:Generated_Source\PSoC4/CapSense_SensingCSX_LL.c **** 
1298:Generated_Source\PSoC4/CapSense_SensingCSX_LL.c ****     regValue = CY_GET_REG32 (txPtr->hsiomPtr);
1299:Generated_Source\PSoC4/CapSense_SensingCSX_LL.c ****     regValue |= (CapSense_HSIOM_SEL_CSD_SENSE << txPtr->hsiomShift);
1300:Generated_Source\PSoC4/CapSense_SensingCSX_LL.c ****     CY_SET_REG32 (txPtr->hsiomPtr, regValue);
1301:Generated_Source\PSoC4/CapSense_SensingCSX_LL.c **** }
ARM GAS  C:\Users\TB1014~1\AppData\Local\Temp\ccLG6s4V.s 			page 25


1302:Generated_Source\PSoC4/CapSense_SensingCSX_LL.c **** 
1303:Generated_Source\PSoC4/CapSense_SensingCSX_LL.c **** /*******************************************************************************
1304:Generated_Source\PSoC4/CapSense_SensingCSX_LL.c **** * Function Name: CapSense_CSXConnectRx
1305:Generated_Source\PSoC4/CapSense_SensingCSX_LL.c **** ****************************************************************************//**
1306:Generated_Source\PSoC4/CapSense_SensingCSX_LL.c **** *
1307:Generated_Source\PSoC4/CapSense_SensingCSX_LL.c **** * \brief
1308:Generated_Source\PSoC4/CapSense_SensingCSX_LL.c **** *  Connects an RX electrode to the CSX scanning hardware.
1309:Generated_Source\PSoC4/CapSense_SensingCSX_LL.c **** *
1310:Generated_Source\PSoC4/CapSense_SensingCSX_LL.c **** * \details
1311:Generated_Source\PSoC4/CapSense_SensingCSX_LL.c **** *  This function connects a port pin (Rx electrode)to AMUXBUS-A and sets the
1312:Generated_Source\PSoC4/CapSense_SensingCSX_LL.c **** *  drive mode of the port pin to HIgh-Z in the GPIO_PRT_PCx register.
1313:Generated_Source\PSoC4/CapSense_SensingCSX_LL.c **** *
1314:Generated_Source\PSoC4/CapSense_SensingCSX_LL.c **** *  It is not recommended to call this function directly from the application
1315:Generated_Source\PSoC4/CapSense_SensingCSX_LL.c **** *  layer. This function should be used to implement only the user’s specific
1316:Generated_Source\PSoC4/CapSense_SensingCSX_LL.c **** *  use cases (for faster execution time when there is only one port pin for an
1317:Generated_Source\PSoC4/CapSense_SensingCSX_LL.c **** *  electrode for example).
1318:Generated_Source\PSoC4/CapSense_SensingCSX_LL.c **** *
1319:Generated_Source\PSoC4/CapSense_SensingCSX_LL.c **** * \param  rxPtr
1320:Generated_Source\PSoC4/CapSense_SensingCSX_LL.c **** *  Specify the pointer to the FLASH_IO_STRUCT object belonging to a sensor
1321:Generated_Source\PSoC4/CapSense_SensingCSX_LL.c **** *  which should be connected to the CapSense block as Rx pin.
1322:Generated_Source\PSoC4/CapSense_SensingCSX_LL.c **** *
1323:Generated_Source\PSoC4/CapSense_SensingCSX_LL.c **** *******************************************************************************/
1324:Generated_Source\PSoC4/CapSense_SensingCSX_LL.c **** void CapSense_CSXConnectRx(CapSense_FLASH_IO_STRUCT const *rxPtr)
1325:Generated_Source\PSoC4/CapSense_SensingCSX_LL.c **** {
1326:Generated_Source\PSoC4/CapSense_SensingCSX_LL.c ****     uint32 regValue;
1327:Generated_Source\PSoC4/CapSense_SensingCSX_LL.c **** 
1328:Generated_Source\PSoC4/CapSense_SensingCSX_LL.c ****     regValue = CY_GET_REG32 (rxPtr->pcPtr);
1329:Generated_Source\PSoC4/CapSense_SensingCSX_LL.c ****     regValue &= ~(CapSense_GPIO_PC_MASK << rxPtr->shift);
1330:Generated_Source\PSoC4/CapSense_SensingCSX_LL.c ****     CY_SET_REG32 (rxPtr->pcPtr, regValue);
1331:Generated_Source\PSoC4/CapSense_SensingCSX_LL.c **** 
1332:Generated_Source\PSoC4/CapSense_SensingCSX_LL.c ****     regValue = CY_GET_REG32 (rxPtr->hsiomPtr);
1333:Generated_Source\PSoC4/CapSense_SensingCSX_LL.c ****     regValue |=  (CapSense_HSIOM_SEL_AMUXA << rxPtr->hsiomShift);
1334:Generated_Source\PSoC4/CapSense_SensingCSX_LL.c ****     CY_SET_REG32 (rxPtr->hsiomPtr, regValue);
1335:Generated_Source\PSoC4/CapSense_SensingCSX_LL.c **** }
1336:Generated_Source\PSoC4/CapSense_SensingCSX_LL.c **** 
1337:Generated_Source\PSoC4/CapSense_SensingCSX_LL.c **** /*******************************************************************************
1338:Generated_Source\PSoC4/CapSense_SensingCSX_LL.c **** * Function Name: CapSense_CSXDisconnectTx
1339:Generated_Source\PSoC4/CapSense_SensingCSX_LL.c **** ****************************************************************************//**
1340:Generated_Source\PSoC4/CapSense_SensingCSX_LL.c **** *
1341:Generated_Source\PSoC4/CapSense_SensingCSX_LL.c **** * \brief
1342:Generated_Source\PSoC4/CapSense_SensingCSX_LL.c **** *  Disconnects a TX electrode from the CSX scanning hardware.
1343:Generated_Source\PSoC4/CapSense_SensingCSX_LL.c **** *
1344:Generated_Source\PSoC4/CapSense_SensingCSX_LL.c **** * \details
1345:Generated_Source\PSoC4/CapSense_SensingCSX_LL.c **** *  This function disconnects a port pin (Tx electrode) from the CSD_SENSE
1346:Generated_Source\PSoC4/CapSense_SensingCSX_LL.c **** *  signal and configures the port pin to the strong drive mode. It is assumed
1347:Generated_Source\PSoC4/CapSense_SensingCSX_LL.c **** *  that the data register (GPIO_PRTx_DR) of the port pin is already 0.
1348:Generated_Source\PSoC4/CapSense_SensingCSX_LL.c **** *
1349:Generated_Source\PSoC4/CapSense_SensingCSX_LL.c **** *  It is not recommended to call this function directly from the application
1350:Generated_Source\PSoC4/CapSense_SensingCSX_LL.c **** *  layer. This function should be used to implement only the user’s specific
1351:Generated_Source\PSoC4/CapSense_SensingCSX_LL.c **** *  use cases (for faster execution time when there is only one port pin for an
1352:Generated_Source\PSoC4/CapSense_SensingCSX_LL.c **** *  electrode for example).
1353:Generated_Source\PSoC4/CapSense_SensingCSX_LL.c **** *
1354:Generated_Source\PSoC4/CapSense_SensingCSX_LL.c **** * \param  txPtr
1355:Generated_Source\PSoC4/CapSense_SensingCSX_LL.c **** *  Specify the pointer to the FLASH_IO_STRUCT object belonging to a Tx pin
1356:Generated_Source\PSoC4/CapSense_SensingCSX_LL.c **** *  sensor which should be disconnected from the CapSense block.
1357:Generated_Source\PSoC4/CapSense_SensingCSX_LL.c **** *
1358:Generated_Source\PSoC4/CapSense_SensingCSX_LL.c **** *******************************************************************************/
ARM GAS  C:\Users\TB1014~1\AppData\Local\Temp\ccLG6s4V.s 			page 26


1359:Generated_Source\PSoC4/CapSense_SensingCSX_LL.c **** void CapSense_CSXDisconnectTx(CapSense_FLASH_IO_STRUCT const *txPtr)
1360:Generated_Source\PSoC4/CapSense_SensingCSX_LL.c **** {
1361:Generated_Source\PSoC4/CapSense_SensingCSX_LL.c ****     uint32 regValue;
1362:Generated_Source\PSoC4/CapSense_SensingCSX_LL.c **** 
1363:Generated_Source\PSoC4/CapSense_SensingCSX_LL.c ****     regValue = CY_GET_REG32 (txPtr->hsiomPtr);
1364:Generated_Source\PSoC4/CapSense_SensingCSX_LL.c ****     regValue &= ~(txPtr->hsiomMask);
1365:Generated_Source\PSoC4/CapSense_SensingCSX_LL.c ****     CY_SET_REG32 (txPtr->hsiomPtr, regValue);
1366:Generated_Source\PSoC4/CapSense_SensingCSX_LL.c **** }
1367:Generated_Source\PSoC4/CapSense_SensingCSX_LL.c **** 
1368:Generated_Source\PSoC4/CapSense_SensingCSX_LL.c **** /*******************************************************************************
1369:Generated_Source\PSoC4/CapSense_SensingCSX_LL.c **** * Function Name: CapSense_CSXDisconnectRx
1370:Generated_Source\PSoC4/CapSense_SensingCSX_LL.c **** ****************************************************************************//**
1371:Generated_Source\PSoC4/CapSense_SensingCSX_LL.c **** *
1372:Generated_Source\PSoC4/CapSense_SensingCSX_LL.c **** * \brief
1373:Generated_Source\PSoC4/CapSense_SensingCSX_LL.c **** *  Disconnects an RX electrode from the CSX scanning hardware.
1374:Generated_Source\PSoC4/CapSense_SensingCSX_LL.c **** *
1375:Generated_Source\PSoC4/CapSense_SensingCSX_LL.c **** * \details
1376:Generated_Source\PSoC4/CapSense_SensingCSX_LL.c **** *  This function disconnects a port pin (Rx electrode) from AMUXBUS_A and
1377:Generated_Source\PSoC4/CapSense_SensingCSX_LL.c **** *  configures the port pin to the strong drive mode. It is assumed that the
1378:Generated_Source\PSoC4/CapSense_SensingCSX_LL.c **** *  data register (GPIO_PRTx_DR) of the port pin is already 0.
1379:Generated_Source\PSoC4/CapSense_SensingCSX_LL.c **** *
1380:Generated_Source\PSoC4/CapSense_SensingCSX_LL.c **** *  It is not recommended to call this function directly from the application
1381:Generated_Source\PSoC4/CapSense_SensingCSX_LL.c **** *  layer. This function should be used to implement only the user’s specific
1382:Generated_Source\PSoC4/CapSense_SensingCSX_LL.c **** *  use cases (for faster execution time when there is only one port pin for
1383:Generated_Source\PSoC4/CapSense_SensingCSX_LL.c **** *  an electrode for example).
1384:Generated_Source\PSoC4/CapSense_SensingCSX_LL.c **** *
1385:Generated_Source\PSoC4/CapSense_SensingCSX_LL.c **** * \param  rxPtr
1386:Generated_Source\PSoC4/CapSense_SensingCSX_LL.c **** *  Specify the pointer to the FLASH_IO_STRUCT object belonging to a Rx pin
1387:Generated_Source\PSoC4/CapSense_SensingCSX_LL.c **** *  sensor which should be disconnected from the CapSense block.
1388:Generated_Source\PSoC4/CapSense_SensingCSX_LL.c **** *
1389:Generated_Source\PSoC4/CapSense_SensingCSX_LL.c **** *******************************************************************************/
1390:Generated_Source\PSoC4/CapSense_SensingCSX_LL.c **** void CapSense_CSXDisconnectRx(CapSense_FLASH_IO_STRUCT const *rxPtr)
1391:Generated_Source\PSoC4/CapSense_SensingCSX_LL.c **** {
1392:Generated_Source\PSoC4/CapSense_SensingCSX_LL.c ****     uint32 regValue;
1393:Generated_Source\PSoC4/CapSense_SensingCSX_LL.c **** 
1394:Generated_Source\PSoC4/CapSense_SensingCSX_LL.c ****     regValue = CY_GET_REG32 (rxPtr->hsiomPtr);
1395:Generated_Source\PSoC4/CapSense_SensingCSX_LL.c ****     regValue &= ~(rxPtr->hsiomMask);
1396:Generated_Source\PSoC4/CapSense_SensingCSX_LL.c ****     CY_SET_REG32 (rxPtr->hsiomPtr, regValue);
1397:Generated_Source\PSoC4/CapSense_SensingCSX_LL.c **** 
1398:Generated_Source\PSoC4/CapSense_SensingCSX_LL.c ****     regValue = CY_GET_REG32 (rxPtr->pcPtr);
1399:Generated_Source\PSoC4/CapSense_SensingCSX_LL.c ****     regValue &= ~(CapSense_GPIO_PC_MASK << rxPtr->shift);
1400:Generated_Source\PSoC4/CapSense_SensingCSX_LL.c ****     regValue |=  (CapSense_GPIO_STRGDRV << rxPtr->shift);
1401:Generated_Source\PSoC4/CapSense_SensingCSX_LL.c ****     CY_SET_REG32 (rxPtr->pcPtr, regValue);
1402:Generated_Source\PSoC4/CapSense_SensingCSX_LL.c **** 
1403:Generated_Source\PSoC4/CapSense_SensingCSX_LL.c ****     regValue = CY_GET_REG32 (rxPtr->drPtr);
1404:Generated_Source\PSoC4/CapSense_SensingCSX_LL.c ****     regValue &=  ~(rxPtr->mask);
1405:Generated_Source\PSoC4/CapSense_SensingCSX_LL.c ****     CY_SET_REG32 (rxPtr->drPtr, regValue);
1406:Generated_Source\PSoC4/CapSense_SensingCSX_LL.c **** }
1407:Generated_Source\PSoC4/CapSense_SensingCSX_LL.c **** 
1408:Generated_Source\PSoC4/CapSense_SensingCSX_LL.c **** 
1409:Generated_Source\PSoC4/CapSense_SensingCSX_LL.c **** /*******************************************************************************
1410:Generated_Source\PSoC4/CapSense_SensingCSX_LL.c **** * Function Name: CapSense_SsCSXGetTxClkDivider
1411:Generated_Source\PSoC4/CapSense_SensingCSX_LL.c **** ****************************************************************************//**
1412:Generated_Source\PSoC4/CapSense_SensingCSX_LL.c **** *
1413:Generated_Source\PSoC4/CapSense_SensingCSX_LL.c **** * \brief
1414:Generated_Source\PSoC4/CapSense_SensingCSX_LL.c **** *  This function gets the Sense Clock Divider value for one-dimension widgets
1415:Generated_Source\PSoC4/CapSense_SensingCSX_LL.c **** *  and the Column Sense Clock divider value for two-dimension widgets.
ARM GAS  C:\Users\TB1014~1\AppData\Local\Temp\ccLG6s4V.s 			page 27


1416:Generated_Source\PSoC4/CapSense_SensingCSX_LL.c **** *
1417:Generated_Source\PSoC4/CapSense_SensingCSX_LL.c **** * \details
1418:Generated_Source\PSoC4/CapSense_SensingCSX_LL.c **** *  This function gets the Sense Clock Divider value based on the component
1419:Generated_Source\PSoC4/CapSense_SensingCSX_LL.c **** *  configuration. The function is applicable for one-dimension widgets and for
1420:Generated_Source\PSoC4/CapSense_SensingCSX_LL.c **** *  two-dimension widgets.
1421:Generated_Source\PSoC4/CapSense_SensingCSX_LL.c **** *
1422:Generated_Source\PSoC4/CapSense_SensingCSX_LL.c **** * \param
1423:Generated_Source\PSoC4/CapSense_SensingCSX_LL.c **** *  wdgtIndex Specifies the ID of the widget.
1424:Generated_Source\PSoC4/CapSense_SensingCSX_LL.c **** *
1425:Generated_Source\PSoC4/CapSense_SensingCSX_LL.c **** * \return The Sense Clock Divider value for one-dimension widgets
1426:Generated_Source\PSoC4/CapSense_SensingCSX_LL.c **** *         and the Column Sense Clock divider value for two-dimension widgets.
1427:Generated_Source\PSoC4/CapSense_SensingCSX_LL.c **** *
1428:Generated_Source\PSoC4/CapSense_SensingCSX_LL.c **** *******************************************************************************/
1429:Generated_Source\PSoC4/CapSense_SensingCSX_LL.c **** uint32 CapSense_SsCSXGetTxClkDivider(uint32 wdgtIndex)
1430:Generated_Source\PSoC4/CapSense_SensingCSX_LL.c **** {
1431:Generated_Source\PSoC4/CapSense_SensingCSX_LL.c ****     uint32 retVal;
1432:Generated_Source\PSoC4/CapSense_SensingCSX_LL.c **** 
1433:Generated_Source\PSoC4/CapSense_SensingCSX_LL.c ****     /* Get sense divider based on configuration */
1434:Generated_Source\PSoC4/CapSense_SensingCSX_LL.c ****     #if (CapSense_ENABLE != CapSense_CSX_COMMON_TX_CLK_EN)
1435:Generated_Source\PSoC4/CapSense_SensingCSX_LL.c ****         CapSense_RAM_WD_BASE_STRUCT *ptrWdgt;
1436:Generated_Source\PSoC4/CapSense_SensingCSX_LL.c **** 
1437:Generated_Source\PSoC4/CapSense_SensingCSX_LL.c ****         ptrWdgt = (CapSense_RAM_WD_BASE_STRUCT *)
1438:Generated_Source\PSoC4/CapSense_SensingCSX_LL.c ****         CapSense_dsFlash.wdgtArray[wdgtIndex].ptr2WdgtRam;
1439:Generated_Source\PSoC4/CapSense_SensingCSX_LL.c **** 
1440:Generated_Source\PSoC4/CapSense_SensingCSX_LL.c ****         retVal = (uint32)(ptrWdgt->snsClk);
1441:Generated_Source\PSoC4/CapSense_SensingCSX_LL.c ****     #else
1442:Generated_Source\PSoC4/CapSense_SensingCSX_LL.c ****         retVal = (uint32)CapSense_dsRam.snsCsxClk;
1443:Generated_Source\PSoC4/CapSense_SensingCSX_LL.c ****     #endif /* (CapSense_ENABLE == CapSense_CSX_COMMON_TX_CLK_EN) */
1444:Generated_Source\PSoC4/CapSense_SensingCSX_LL.c **** 
1445:Generated_Source\PSoC4/CapSense_SensingCSX_LL.c ****     if(wdgtIndex == 0uL)
1446:Generated_Source\PSoC4/CapSense_SensingCSX_LL.c ****     {
1447:Generated_Source\PSoC4/CapSense_SensingCSX_LL.c ****         ;
1448:Generated_Source\PSoC4/CapSense_SensingCSX_LL.c ****     }
1449:Generated_Source\PSoC4/CapSense_SensingCSX_LL.c **** 
1450:Generated_Source\PSoC4/CapSense_SensingCSX_LL.c ****     return (retVal);
1451:Generated_Source\PSoC4/CapSense_SensingCSX_LL.c **** }
1452:Generated_Source\PSoC4/CapSense_SensingCSX_LL.c **** 
1453:Generated_Source\PSoC4/CapSense_SensingCSX_LL.c **** 
1454:Generated_Source\PSoC4/CapSense_SensingCSX_LL.c **** /*******************************************************************************
1455:Generated_Source\PSoC4/CapSense_SensingCSX_LL.c **** * Function Name: CapSense_SsCalcCsxScanPeriod
1456:Generated_Source\PSoC4/CapSense_SensingCSX_LL.c **** ****************************************************************************//**
1457:Generated_Source\PSoC4/CapSense_SensingCSX_LL.c **** *
1458:Generated_Source\PSoC4/CapSense_SensingCSX_LL.c **** * \brief
1459:Generated_Source\PSoC4/CapSense_SensingCSX_LL.c **** *   Calculates scan  period for CSX
1460:Generated_Source\PSoC4/CapSense_SensingCSX_LL.c **** *
1461:Generated_Source\PSoC4/CapSense_SensingCSX_LL.c **** * \details
1462:Generated_Source\PSoC4/CapSense_SensingCSX_LL.c **** *   This function calculates scan period for CSX considering
1463:Generated_Source\PSoC4/CapSense_SensingCSX_LL.c **** *
1464:Generated_Source\PSoC4/CapSense_SensingCSX_LL.c **** * \param  wdgtPtr The pointer to a register map object that contains widget
1465:Generated_Source\PSoC4/CapSense_SensingCSX_LL.c **** *                     information.
1466:Generated_Source\PSoC4/CapSense_SensingCSX_LL.c **** *
1467:Generated_Source\PSoC4/CapSense_SensingCSX_LL.c **** * \return     Returns the CSX scan period for the widget.
1468:Generated_Source\PSoC4/CapSense_SensingCSX_LL.c **** *
1469:Generated_Source\PSoC4/CapSense_SensingCSX_LL.c **** *******************************************************************************/
1470:Generated_Source\PSoC4/CapSense_SensingCSX_LL.c **** static uint16 CapSense_SsCalcCsxScanPeriod(CapSense_RAM_WD_BASE_STRUCT const *wdgtPtr)
1471:Generated_Source\PSoC4/CapSense_SensingCSX_LL.c **** {
  68              		.loc 1 1471 0
ARM GAS  C:\Users\TB1014~1\AppData\Local\Temp\ccLG6s4V.s 			page 28


  69              		.cfi_startproc
  70              	.LVL0:
1472:Generated_Source\PSoC4/CapSense_SensingCSX_LL.c ****     uint32 temp;
1473:Generated_Source\PSoC4/CapSense_SensingCSX_LL.c **** 
1474:Generated_Source\PSoC4/CapSense_SensingCSX_LL.c ****     #if(CapSense_DISABLE == CapSense_CSX_COMMON_TX_CLK_EN)
1475:Generated_Source\PSoC4/CapSense_SensingCSX_LL.c ****         temp = (uint32)(wdgtPtr->snsClk);
  71              		.loc 1 1475 0
  72 0000 C37A     		ldrb	r3, [r0, #11]
  73              	.LVL1:
1476:Generated_Source\PSoC4/CapSense_SensingCSX_LL.c ****     #else
1477:Generated_Source\PSoC4/CapSense_SensingCSX_LL.c ****         temp = (uint32)(CapSense_dsRam.snsCsxClk);
1478:Generated_Source\PSoC4/CapSense_SensingCSX_LL.c ****     #endif /* (CapSense_DISABLE == CapSense_CSX_COMMON_TX_CLK_EN) */
1479:Generated_Source\PSoC4/CapSense_SensingCSX_LL.c **** 
1480:Generated_Source\PSoC4/CapSense_SensingCSX_LL.c ****     #if(CapSense_ENABLE == CapSense_CSDV2)
1481:Generated_Source\PSoC4/CapSense_SensingCSX_LL.c ****         temp  = LO16((uint32)wdgtPtr->resolution * (temp - CapSense_CSX_DEADBAND_CYCLES_NUMBER));
  74              		.loc 1 1481 0
  75 0002 0288     		ldrh	r2, [r0]
  76 0004 981E     		sub	r0, r3, #2
  77              	.LVL2:
  78 0006 5043     		mul	r0, r2
  79 0008 80B2     		uxth	r0, r0
  80              	.LVL3:
1482:Generated_Source\PSoC4/CapSense_SensingCSX_LL.c ****     #else
1483:Generated_Source\PSoC4/CapSense_SensingCSX_LL.c ****         #if(CapSense_ENABLE == CapSense_IS_M0S8PERI_BLOCK)
1484:Generated_Source\PSoC4/CapSense_SensingCSX_LL.c ****             temp = (temp / (uint32)CapSense_dsRam.modCsxClk);
1485:Generated_Source\PSoC4/CapSense_SensingCSX_LL.c ****         #endif /* (CapSense_ENABLE == CapSense_IS_M0S8PERI_BLOCK) */
1486:Generated_Source\PSoC4/CapSense_SensingCSX_LL.c ****             
1487:Generated_Source\PSoC4/CapSense_SensingCSX_LL.c ****         temp = ((uint32)wdgtPtr->resolution * CapSense_NUM_HALF_CYCLES * temp);
1488:Generated_Source\PSoC4/CapSense_SensingCSX_LL.c ****     #endif /* (CapSense_ENABLE == CapSense_CSDV2) */
1489:Generated_Source\PSoC4/CapSense_SensingCSX_LL.c **** 
1490:Generated_Source\PSoC4/CapSense_SensingCSX_LL.c ****     /*  return the scan period */
1491:Generated_Source\PSoC4/CapSense_SensingCSX_LL.c ****     return ((uint16)temp);
1492:Generated_Source\PSoC4/CapSense_SensingCSX_LL.c **** }
  81              		.loc 1 1492 0
  82              		@ sp needed
  83 000a 7047     		bx	lr
  84              		.cfi_endproc
  85              	.LFE16:
  86              		.size	CapSense_SsCalcCsxScanPeriod, .-CapSense_SsCalcCsxScanPeriod
  87              		.global	__aeabi_uidiv
  88              		.section	.text.CapSense_SsCSXStartSample,"ax",%progbits
  89              		.align	2
  90              		.code	16
  91              		.thumb_func
  92              		.type	CapSense_SsCSXStartSample, %function
  93              	CapSense_SsCSXStartSample:
  94              	.LFB10:
1226:Generated_Source\PSoC4/CapSense_SensingCSX_LL.c ****     uint32 tmpRegVal;
  95              		.loc 1 1226 0
  96              		.cfi_startproc
  97 0000 08B5     		push	{r3, lr}
  98              		.cfi_def_cfa_offset 8
  99              		.cfi_offset 3, -8
 100              		.cfi_offset 14, -4
1229:Generated_Source\PSoC4/CapSense_SensingCSX_LL.c ****     tmpRegVal = (tmpRegVal & CapSense_IDAC_MOD_VAL_MASK) | CapSense_DEFAULT_CSD_IDACA_CFG;
 101              		.loc 1 1229 0
 102 0002 344B     		ldr	r3, .L13
ARM GAS  C:\Users\TB1014~1\AppData\Local\Temp\ccLG6s4V.s 			page 29


 103 0004 1A68     		ldr	r2, [r3]
 104 0006 344B     		ldr	r3, .L13+4
 105 0008 1B78     		ldrb	r3, [r3]
 106 000a D318     		add	r3, r2, r3
 107 000c 5B7A     		ldrb	r3, [r3, #9]
 108              	.LVL4:
1230:Generated_Source\PSoC4/CapSense_SensingCSX_LL.c ****     CY_SET_REG32(CapSense_IDAC_MOD_PTR, tmpRegVal);
 109              		.loc 1 1230 0
 110 000e 334A     		ldr	r2, .L13+8
 111 0010 1343     		orr	r3, r2
 112              	.LVL5:
1231:Generated_Source\PSoC4/CapSense_SensingCSX_LL.c **** 
 113              		.loc 1 1231 0
 114 0012 334A     		ldr	r2, .L13+12
 115 0014 1360     		str	r3, [r2]
1234:Generated_Source\PSoC4/CapSense_SensingCSX_LL.c ****     CapSense_SsCSXStartSampleExt();
 116              		.loc 1 1234 0
 117 0016 0022     		mov	r2, #0
 118 0018 324B     		ldr	r3, .L13+16
 119              	.LVL6:
 120 001a 5A80     		strh	r2, [r3, #2]
 121              	.LVL7:
 122              	.LBB4:
 123              	.LBB5:
1493:Generated_Source\PSoC4/CapSense_SensingCSX_LL.c **** 
1494:Generated_Source\PSoC4/CapSense_SensingCSX_LL.c **** 
1495:Generated_Source\PSoC4/CapSense_SensingCSX_LL.c **** #if(CapSense_ENABLE == CapSense_CSDV2)
1496:Generated_Source\PSoC4/CapSense_SensingCSX_LL.c **** 
1497:Generated_Source\PSoC4/CapSense_SensingCSX_LL.c ****     /*******************************************************************************
1498:Generated_Source\PSoC4/CapSense_SensingCSX_LL.c ****     * Function Name: CapSense_SsCSXScanISR
1499:Generated_Source\PSoC4/CapSense_SensingCSX_LL.c ****     ****************************************************************************//**
1500:Generated_Source\PSoC4/CapSense_SensingCSX_LL.c ****     *
1501:Generated_Source\PSoC4/CapSense_SensingCSX_LL.c ****     * \brief
1502:Generated_Source\PSoC4/CapSense_SensingCSX_LL.c ****     *  This is the handler of the WDT interrupt in CPU NVIC. The handler is executed
1503:Generated_Source\PSoC4/CapSense_SensingCSX_LL.c ****     *  when normal sample is complete.
1504:Generated_Source\PSoC4/CapSense_SensingCSX_LL.c ****     *
1505:Generated_Source\PSoC4/CapSense_SensingCSX_LL.c ****     * \details
1506:Generated_Source\PSoC4/CapSense_SensingCSX_LL.c ****     *  This handler covers the following functionality:
1507:Generated_Source\PSoC4/CapSense_SensingCSX_LL.c ****     *   - Read result of measurement a store it into the corresponding register of
1508:Generated_Source\PSoC4/CapSense_SensingCSX_LL.c ****     *     the data structure.
1509:Generated_Source\PSoC4/CapSense_SensingCSX_LL.c ****     *   - If the Noise Metric functionality is enabled then check the number of bad
1510:Generated_Source\PSoC4/CapSense_SensingCSX_LL.c ****     *     conversions and repeat scan of the current sensor of the number of bad
1511:Generated_Source\PSoC4/CapSense_SensingCSX_LL.c ****     *     conversions is greater than Noise Metric Threshold.
1512:Generated_Source\PSoC4/CapSense_SensingCSX_LL.c ****     *   - Initiate scan of the next sensor for the multiple-sensor scanning mode.
1513:Generated_Source\PSoC4/CapSense_SensingCSX_LL.c ****     *   - Update the Status register in the data structure.
1514:Generated_Source\PSoC4/CapSense_SensingCSX_LL.c ****     *   - Switch CSDv2 HW IP block to the default state is scanning of all sensors is
1515:Generated_Source\PSoC4/CapSense_SensingCSX_LL.c ****     *     completed.
1516:Generated_Source\PSoC4/CapSense_SensingCSX_LL.c ****     *
1517:Generated_Source\PSoC4/CapSense_SensingCSX_LL.c ****     *******************************************************************************/
1518:Generated_Source\PSoC4/CapSense_SensingCSX_LL.c ****     CY_ISR(CapSense_SsCSXScanISR)
1519:Generated_Source\PSoC4/CapSense_SensingCSX_LL.c ****     {
1520:Generated_Source\PSoC4/CapSense_SensingCSX_LL.c ****     #if(0u != CapSense_CSX_NOISE_METRIC_EN)
1521:Generated_Source\PSoC4/CapSense_SensingCSX_LL.c ****         uint32 tmpRegVal;
1522:Generated_Source\PSoC4/CapSense_SensingCSX_LL.c ****     #endif /* (0u != CapSense_CSX_NOISE_METRIC_EN) */
1523:Generated_Source\PSoC4/CapSense_SensingCSX_LL.c **** 
1524:Generated_Source\PSoC4/CapSense_SensingCSX_LL.c ****         CyIntDisable(CapSense_ISR_NUMBER);
1525:Generated_Source\PSoC4/CapSense_SensingCSX_LL.c **** 
ARM GAS  C:\Users\TB1014~1\AppData\Local\Temp\ccLG6s4V.s 			page 30


1526:Generated_Source\PSoC4/CapSense_SensingCSX_LL.c ****         CY_SET_REG32(CapSense_INTR_PTR, CapSense_DEFAULT_CSD_INTR_CFG);
1527:Generated_Source\PSoC4/CapSense_SensingCSX_LL.c **** 
1528:Generated_Source\PSoC4/CapSense_SensingCSX_LL.c ****         CapSense_csxRawCount  = (uint16)(CY_GET_REG32(CapSense_RESULT_VAL1_PTR) &\
1529:Generated_Source\PSoC4/CapSense_SensingCSX_LL.c ****                                                              CapSense_RESULT_VAL1_VALUE_MASK);
1530:Generated_Source\PSoC4/CapSense_SensingCSX_LL.c **** 
1531:Generated_Source\PSoC4/CapSense_SensingCSX_LL.c ****         CapSense_csxRawCount += (uint16)(CY_GET_REG32(CapSense_RESULT_VAL2_PTR) &\
1532:Generated_Source\PSoC4/CapSense_SensingCSX_LL.c ****                                                              CapSense_RESULT_VAL2_VALUE_MASK);
1533:Generated_Source\PSoC4/CapSense_SensingCSX_LL.c **** 
1534:Generated_Source\PSoC4/CapSense_SensingCSX_LL.c ****         /* This workaround neded to prevent overflow in the SW register map. Cypress ID #234358 */
1535:Generated_Source\PSoC4/CapSense_SensingCSX_LL.c ****         if(CapSense_csxRawCount > CapSense_csxScanPeriod)
1536:Generated_Source\PSoC4/CapSense_SensingCSX_LL.c ****         {
1537:Generated_Source\PSoC4/CapSense_SensingCSX_LL.c ****             CapSense_csxRawCount = CapSense_csxScanPeriod;
1538:Generated_Source\PSoC4/CapSense_SensingCSX_LL.c ****         }
1539:Generated_Source\PSoC4/CapSense_SensingCSX_LL.c **** 
1540:Generated_Source\PSoC4/CapSense_SensingCSX_LL.c ****     #if(0u != CapSense_CSX_NOISE_METRIC_EN)
1541:Generated_Source\PSoC4/CapSense_SensingCSX_LL.c ****         tmpRegVal = CY_GET_REG32(CapSense_RESULT_VAL1_PTR) >> CapSense_RESULT_VAL1_BAD_CONVS_SHIFT;
1542:Generated_Source\PSoC4/CapSense_SensingCSX_LL.c **** 
1543:Generated_Source\PSoC4/CapSense_SensingCSX_LL.c ****         if((tmpRegVal > CapSense_CSX_NOISE_METRIC_TH) && (CapSense_resamplingCyclesCnt > 0uL))
1544:Generated_Source\PSoC4/CapSense_SensingCSX_LL.c ****         {
1545:Generated_Source\PSoC4/CapSense_SensingCSX_LL.c ****             CY_SET_REG32(CapSense_SEQ_START_PTR, CapSense_SCAN_CSD_SEQ_START_CFG);
1546:Generated_Source\PSoC4/CapSense_SensingCSX_LL.c ****             CapSense_resamplingCyclesCnt--;
1547:Generated_Source\PSoC4/CapSense_SensingCSX_LL.c ****         }
1548:Generated_Source\PSoC4/CapSense_SensingCSX_LL.c ****         else
1549:Generated_Source\PSoC4/CapSense_SensingCSX_LL.c ****         {
1550:Generated_Source\PSoC4/CapSense_SensingCSX_LL.c ****             CapSense_CSXPostScanApiPtr();
1551:Generated_Source\PSoC4/CapSense_SensingCSX_LL.c ****             CapSense_resamplingCyclesCnt = CapSense_RESAMPLING_CYCLES_MAX_NUMBER;
1552:Generated_Source\PSoC4/CapSense_SensingCSX_LL.c ****         }
1553:Generated_Source\PSoC4/CapSense_SensingCSX_LL.c ****     #else
1554:Generated_Source\PSoC4/CapSense_SensingCSX_LL.c ****         CapSense_CSXPostScanApiPtr();
1555:Generated_Source\PSoC4/CapSense_SensingCSX_LL.c ****     #endif /* (0u != CapSense_CSX_NOISE_METRIC_EN) */
1556:Generated_Source\PSoC4/CapSense_SensingCSX_LL.c **** 
1557:Generated_Source\PSoC4/CapSense_SensingCSX_LL.c ****         if(CapSense_NOT_BUSY == (CapSense_dsRam.status & CapSense_SW_STS_BUSY))
1558:Generated_Source\PSoC4/CapSense_SensingCSX_LL.c ****         {
1559:Generated_Source\PSoC4/CapSense_SensingCSX_LL.c ****             CY_SET_REG32(CapSense_CONFIG_PTR, CapSense_DEFAULT_CSD_CONFIG_CFG);
1560:Generated_Source\PSoC4/CapSense_SensingCSX_LL.c ****             CY_SET_REG32(CapSense_CSDCMP_PTR, CapSense_DEFAULT_CSD_CSDCMP_CFG);
1561:Generated_Source\PSoC4/CapSense_SensingCSX_LL.c ****             CY_SET_REG32(CapSense_IDAC_MOD_PTR, CapSense_DEFAULT_CSD_IDACA_CFG);
1562:Generated_Source\PSoC4/CapSense_SensingCSX_LL.c ****         }
1563:Generated_Source\PSoC4/CapSense_SensingCSX_LL.c **** 
1564:Generated_Source\PSoC4/CapSense_SensingCSX_LL.c ****         CyIntEnable(CapSense_ISR_NUMBER);
1565:Generated_Source\PSoC4/CapSense_SensingCSX_LL.c ****     }
1566:Generated_Source\PSoC4/CapSense_SensingCSX_LL.c **** 
1567:Generated_Source\PSoC4/CapSense_SensingCSX_LL.c **** 
1568:Generated_Source\PSoC4/CapSense_SensingCSX_LL.c ****     /*******************************************************************************
1569:Generated_Source\PSoC4/CapSense_SensingCSX_LL.c ****     * Function Name: CapSense_SsCSXStartSampleExt
1570:Generated_Source\PSoC4/CapSense_SensingCSX_LL.c ****     ****************************************************************************//**
1571:Generated_Source\PSoC4/CapSense_SensingCSX_LL.c ****     *
1572:Generated_Source\PSoC4/CapSense_SensingCSX_LL.c ****     * \brief
1573:Generated_Source\PSoC4/CapSense_SensingCSX_LL.c ****     *   Starts the CSDV2 sequencer to perform the CSX conversion.
1574:Generated_Source\PSoC4/CapSense_SensingCSX_LL.c ****     *   specific widget.
1575:Generated_Source\PSoC4/CapSense_SensingCSX_LL.c ****     *
1576:Generated_Source\PSoC4/CapSense_SensingCSX_LL.c ****     * \details
1577:Generated_Source\PSoC4/CapSense_SensingCSX_LL.c ****     *   This function covers the following functionality:
1578:Generated_Source\PSoC4/CapSense_SensingCSX_LL.c ****     *      1. Configures the CSDV2 sequencer to perform the coarse initialization.
1579:Generated_Source\PSoC4/CapSense_SensingCSX_LL.c ****     *      2. Waiting for completion of the coarse initialization.
1580:Generated_Source\PSoC4/CapSense_SensingCSX_LL.c ****     *      3. Configures the CSDV2 sequencer to perform the normal conversion.
1581:Generated_Source\PSoC4/CapSense_SensingCSX_LL.c ****     *      4. Starts the normal conversion
1582:Generated_Source\PSoC4/CapSense_SensingCSX_LL.c ****     *
ARM GAS  C:\Users\TB1014~1\AppData\Local\Temp\ccLG6s4V.s 			page 31


1583:Generated_Source\PSoC4/CapSense_SensingCSX_LL.c ****     *******************************************************************************/
1584:Generated_Source\PSoC4/CapSense_SensingCSX_LL.c ****     CY_INLINE static void CapSense_SsCSXStartSampleExt(void)
1585:Generated_Source\PSoC4/CapSense_SensingCSX_LL.c ****     {
1586:Generated_Source\PSoC4/CapSense_SensingCSX_LL.c ****         uint32 filterDelay;
1587:Generated_Source\PSoC4/CapSense_SensingCSX_LL.c ****         uint32 watchdogCounter;
1588:Generated_Source\PSoC4/CapSense_SensingCSX_LL.c ****         #if (CapSense_MOD_CSD_CLK_12MHZ < CYDEV_BCLK__HFCLK__HZ)
1589:Generated_Source\PSoC4/CapSense_SensingCSX_LL.c ****             uint32 sampleClkFreqHz;
1590:Generated_Source\PSoC4/CapSense_SensingCSX_LL.c ****         #endif /* (CapSense_MOD_CSD_CLK_12MHZ < CYDEV_BCLK__HFCLK__HZ)  */
1591:Generated_Source\PSoC4/CapSense_SensingCSX_LL.c **** 
1592:Generated_Source\PSoC4/CapSense_SensingCSX_LL.c ****         /* Configure the CSDV2 sequencer to perform the coarse initialization. */
1593:Generated_Source\PSoC4/CapSense_SensingCSX_LL.c ****         CY_SET_REG32(CapSense_CONFIG_PTR,           CapSense_DEFAULT_CSD_CONFIG_CFG);
 124              		.loc 1 1593 0
 125 001c 324A     		ldr	r2, .L13+20
 126 001e 334B     		ldr	r3, .L13+24
 127 0020 1A60     		str	r2, [r3]
1594:Generated_Source\PSoC4/CapSense_SensingCSX_LL.c ****         CY_SET_REG32(CapSense_HSCMP_PTR,            CapSense_PRECHARGE_CSD_HSCMP_CFG);
 128              		.loc 1 1594 0
 129 0022 0122     		mov	r2, #1
 130 0024 324B     		ldr	r3, .L13+28
 131 0026 1A60     		str	r2, [r3]
1595:Generated_Source\PSoC4/CapSense_SensingCSX_LL.c ****         CY_SET_REG32(CapSense_SW_HS_P_SEL_PTR,      CapSense_PRECHARGE_CSD_SW_HS_P_SEL_CFG);
 132              		.loc 1 1595 0
 133 0028 1123     		mov	r3, #17
 134 002a 324A     		ldr	r2, .L13+32
 135 002c 1360     		str	r3, [r2]
1596:Generated_Source\PSoC4/CapSense_SensingCSX_LL.c ****         CY_SET_REG32(CapSense_SW_HS_N_SEL_PTR,      CapSense_PRECHARGE_CSD_SW_HS_N_SEL_CFG);
 136              		.loc 1 1596 0
 137 002e 8021     		mov	r1, #128
 138 0030 4904     		lsl	r1, r1, #17
 139 0032 314A     		ldr	r2, .L13+36
 140 0034 1160     		str	r1, [r2]
1597:Generated_Source\PSoC4/CapSense_SensingCSX_LL.c ****         CY_SET_REG32(CapSense_SW_DSI_SEL_PTR,       CapSense_PRECHARGE_CSD_SW_DSI_SEL_CFG);
 141              		.loc 1 1597 0
 142 0036 314A     		ldr	r2, .L13+40
 143 0038 1360     		str	r3, [r2]
1598:Generated_Source\PSoC4/CapSense_SensingCSX_LL.c ****         CY_SET_REG32(CapSense_SW_SHIELD_SEL_PTR,    CapSense_PRECHARGE_CSD_SW_SHIELD_SEL_CFG);
 144              		.loc 1 1598 0
 145 003a 0622     		mov	r2, #6
 146 003c 304B     		ldr	r3, .L13+44
 147 003e 1A60     		str	r2, [r3]
1599:Generated_Source\PSoC4/CapSense_SensingCSX_LL.c ****         CY_SET_REG32(CapSense_SW_FW_MOD_SEL_PTR,    CapSense_PRECHARGE_CSD_SW_FW_MOD_SEL_CFG);
 148              		.loc 1 1599 0
 149 0040 304A     		ldr	r2, .L13+48
 150 0042 314B     		ldr	r3, .L13+52
 151 0044 1A60     		str	r2, [r3]
1600:Generated_Source\PSoC4/CapSense_SensingCSX_LL.c ****         CY_SET_REG32(CapSense_SW_FW_TANK_SEL_PTR,   CapSense_PRECHARGE_CSD_SW_FW_TANK_SEL_CFG);
 152              		.loc 1 1600 0
 153 0046 314A     		ldr	r2, .L13+56
 154 0048 314B     		ldr	r3, .L13+60
 155 004a 1A60     		str	r2, [r3]
1601:Generated_Source\PSoC4/CapSense_SensingCSX_LL.c ****         CY_SET_REG32(CapSense_SEQ_START_PTR,        CapSense_PRECHARGE_CSD_SEQ_START_CFG);
 156              		.loc 1 1601 0
 157 004c 314A     		ldr	r2, .L13+64
 158 004e 324B     		ldr	r3, .L13+68
 159 0050 1A60     		str	r2, [r3]
 160              	.LVL8:
1602:Generated_Source\PSoC4/CapSense_SensingCSX_LL.c **** 
ARM GAS  C:\Users\TB1014~1\AppData\Local\Temp\ccLG6s4V.s 			page 32


1603:Generated_Source\PSoC4/CapSense_SensingCSX_LL.c ****         /* Wait for the HSCMP trigger and retutn the sequencer to the IDLE state. */
1604:Generated_Source\PSoC4/CapSense_SensingCSX_LL.c ****         watchdogCounter = CapSense_CSX_PRECHARGE_WATCHDOG_CYCLES_NUM;
 161              		.loc 1 1604 0
 162 0052 F023     		mov	r3, #240
 163 0054 5B00     		lsl	r3, r3, #1
 164 0056 00E0     		b	.L6
 165              	.LVL9:
 166              	.L8:
1605:Generated_Source\PSoC4/CapSense_SensingCSX_LL.c ****         while((0u != (CapSense_SEQ_START_START_MASK & CY_GET_REG32(CapSense_SEQ_START_PTR))) && (0u
1606:Generated_Source\PSoC4/CapSense_SensingCSX_LL.c ****         {
1607:Generated_Source\PSoC4/CapSense_SensingCSX_LL.c ****             watchdogCounter--;
 167              		.loc 1 1607 0
 168 0058 013B     		sub	r3, r3, #1
 169              	.LVL10:
 170              	.L6:
1605:Generated_Source\PSoC4/CapSense_SensingCSX_LL.c ****         while((0u != (CapSense_SEQ_START_START_MASK & CY_GET_REG32(CapSense_SEQ_START_PTR))) && (0u
 171              		.loc 1 1605 0
 172 005a 2F4A     		ldr	r2, .L13+68
 173 005c 1268     		ldr	r2, [r2]
 174 005e D207     		lsl	r2, r2, #31
 175 0060 01D5     		bpl	.L7
 176 0062 002B     		cmp	r3, #0
 177 0064 F8D1     		bne	.L8
 178              	.L7:
1608:Generated_Source\PSoC4/CapSense_SensingCSX_LL.c ****         }
1609:Generated_Source\PSoC4/CapSense_SensingCSX_LL.c **** 
1610:Generated_Source\PSoC4/CapSense_SensingCSX_LL.c ****         /* Reset the sequencer to the IDLE state if HSCMP not triggered till watchdog period is out
1611:Generated_Source\PSoC4/CapSense_SensingCSX_LL.c ****         if(0u != (CapSense_SEQ_START_START_MASK & CY_GET_REG32(CapSense_SEQ_START_PTR)))
 179              		.loc 1 1611 0
 180 0066 2C4B     		ldr	r3, .L13+68
 181              	.LVL11:
 182 0068 1B68     		ldr	r3, [r3]
 183 006a DB07     		lsl	r3, r3, #31
 184 006c 03D5     		bpl	.L9
1612:Generated_Source\PSoC4/CapSense_SensingCSX_LL.c ****         {
1613:Generated_Source\PSoC4/CapSense_SensingCSX_LL.c ****             CY_SET_REG32(CapSense_SEQ_START_PTR,  CapSense_DEFAULT_CSD_SEQ_START_CFG);
 185              		.loc 1 1613 0
 186 006e C222     		mov	r2, #194
 187 0070 9200     		lsl	r2, r2, #2
 188 0072 294B     		ldr	r3, .L13+68
 189 0074 1A60     		str	r2, [r3]
 190              	.L9:
1614:Generated_Source\PSoC4/CapSense_SensingCSX_LL.c ****         }
1615:Generated_Source\PSoC4/CapSense_SensingCSX_LL.c **** 
1616:Generated_Source\PSoC4/CapSense_SensingCSX_LL.c ****         #if (CapSense_MOD_CSD_CLK_12MHZ < CYDEV_BCLK__HFCLK__HZ)
1617:Generated_Source\PSoC4/CapSense_SensingCSX_LL.c ****             sampleClkFreqHz = CYDEV_BCLK__HFCLK__HZ / (uint32)CapSense_dsRam.modCsxClk;
 191              		.loc 1 1617 0
 192 0076 2123     		mov	r3, #33
 193 0078 284A     		ldr	r2, .L13+72
 194 007a D15C     		ldrb	r1, [r2, r3]
 195 007c 2848     		ldr	r0, .L13+76
 196 007e FFF7FEFF 		bl	__aeabi_uidiv
 197              	.LVL12:
1618:Generated_Source\PSoC4/CapSense_SensingCSX_LL.c ****             if(sampleClkFreqHz <= CapSense_MOD_CSD_CLK_12MHZ)
 198              		.loc 1 1618 0
 199 0082 284B     		ldr	r3, .L13+80
 200 0084 9842     		cmp	r0, r3
ARM GAS  C:\Users\TB1014~1\AppData\Local\Temp\ccLG6s4V.s 			page 33


 201 0086 04D9     		bls	.L11
1619:Generated_Source\PSoC4/CapSense_SensingCSX_LL.c ****             {
1620:Generated_Source\PSoC4/CapSense_SensingCSX_LL.c ****                 filterDelay = CapSense_CONFIG_FILTER_DELAY_12MHZ;
1621:Generated_Source\PSoC4/CapSense_SensingCSX_LL.c ****             }
1622:Generated_Source\PSoC4/CapSense_SensingCSX_LL.c ****             else if(sampleClkFreqHz <= CapSense_MOD_CSD_CLK_24MHZ)
 202              		.loc 1 1622 0
 203 0088 254B     		ldr	r3, .L13+76
 204 008a 9842     		cmp	r0, r3
 205 008c 03D8     		bhi	.L12
1623:Generated_Source\PSoC4/CapSense_SensingCSX_LL.c ****             {
1624:Generated_Source\PSoC4/CapSense_SensingCSX_LL.c ****                 filterDelay = CapSense_CONFIG_FILTER_DELAY_24MHZ;
 206              		.loc 1 1624 0
 207 008e 3023     		mov	r3, #48
 208 0090 02E0     		b	.L10
 209              	.L11:
1620:Generated_Source\PSoC4/CapSense_SensingCSX_LL.c ****             }
 210              		.loc 1 1620 0
 211 0092 2023     		mov	r3, #32
 212 0094 00E0     		b	.L10
 213              	.L12:
1625:Generated_Source\PSoC4/CapSense_SensingCSX_LL.c ****             }
1626:Generated_Source\PSoC4/CapSense_SensingCSX_LL.c ****             else
1627:Generated_Source\PSoC4/CapSense_SensingCSX_LL.c ****             {
1628:Generated_Source\PSoC4/CapSense_SensingCSX_LL.c ****                 filterDelay = CapSense_CONFIG_FILTER_DELAY_48MHZ;
 214              		.loc 1 1628 0
 215 0096 4023     		mov	r3, #64
 216              	.L10:
 217              	.LVL13:
1629:Generated_Source\PSoC4/CapSense_SensingCSX_LL.c ****             }
1630:Generated_Source\PSoC4/CapSense_SensingCSX_LL.c ****         #else
1631:Generated_Source\PSoC4/CapSense_SensingCSX_LL.c ****             filterDelay = CapSense_CONFIG_FILTER_DELAY_12MHZ;
1632:Generated_Source\PSoC4/CapSense_SensingCSX_LL.c ****         #endif /* (CapSense_MOD_CSD_CLK_12MHZ < CYDEV_BCLK__HFCLK__HZ)  */
1633:Generated_Source\PSoC4/CapSense_SensingCSX_LL.c **** 
1634:Generated_Source\PSoC4/CapSense_SensingCSX_LL.c ****         /* Configure the CSDV2 sequencer to perform the normal conversion. */
1635:Generated_Source\PSoC4/CapSense_SensingCSX_LL.c ****         CY_SET_REG32(CapSense_CONFIG_PTR, CapSense_PRESCAN_CSD_CONFIG_CFG | filterDelay);
 218              		.loc 1 1635 0
 219 0098 234A     		ldr	r2, .L13+84
 220 009a 1343     		orr	r3, r2
 221              	.LVL14:
 222 009c 134A     		ldr	r2, .L13+24
 223 009e 1360     		str	r3, [r2]
1636:Generated_Source\PSoC4/CapSense_SensingCSX_LL.c ****         CY_SET_REG32(CapSense_CSDCMP_PTR, CapSense_PRESCAN_CSD_CSDCMP_CFG);
 224              		.loc 1 1636 0
 225 00a0 224A     		ldr	r2, .L13+88
 226 00a2 234B     		ldr	r3, .L13+92
 227 00a4 1A60     		str	r2, [r3]
1637:Generated_Source\PSoC4/CapSense_SensingCSX_LL.c ****         CY_SET_REG32(CapSense_HSCMP_PTR,            CapSense_DEFAULT_CSD_HSCMP_CFG);
 228              		.loc 1 1637 0
 229 00a6 0023     		mov	r3, #0
 230 00a8 1149     		ldr	r1, .L13+28
 231 00aa 0B60     		str	r3, [r1]
1638:Generated_Source\PSoC4/CapSense_SensingCSX_LL.c ****         CY_SET_REG32(CapSense_SW_HS_P_SEL_PTR,      CapSense_DEFAULT_CSD_SW_HS_P_SEL_CFG);
 232              		.loc 1 1638 0
 233 00ac 1149     		ldr	r1, .L13+32
 234 00ae 0B60     		str	r3, [r1]
1639:Generated_Source\PSoC4/CapSense_SensingCSX_LL.c ****         CY_SET_REG32(CapSense_SW_HS_N_SEL_PTR,      CapSense_DEFAULT_CSD_SW_HS_N_SEL_CFG);
 235              		.loc 1 1639 0
ARM GAS  C:\Users\TB1014~1\AppData\Local\Temp\ccLG6s4V.s 			page 34


 236 00b0 1149     		ldr	r1, .L13+36
 237 00b2 0B60     		str	r3, [r1]
1640:Generated_Source\PSoC4/CapSense_SensingCSX_LL.c ****         CY_SET_REG32(CapSense_SW_DSI_SEL_PTR,       CapSense_DEFAULT_CSD_SW_DSI_SEL_CFG);
 238              		.loc 1 1640 0
 239 00b4 2320     		mov	r0, #35
 240              	.LVL15:
 241 00b6 1149     		ldr	r1, .L13+40
 242 00b8 0860     		str	r0, [r1]
1641:Generated_Source\PSoC4/CapSense_SensingCSX_LL.c ****         CY_SET_REG32(CapSense_SW_SHIELD_SEL_PTR,    CapSense_DEFAULT_CSD_SW_SHIELD_SEL_CFG);
 243              		.loc 1 1641 0
 244 00ba 1149     		ldr	r1, .L13+44
 245 00bc 0B60     		str	r3, [r1]
1642:Generated_Source\PSoC4/CapSense_SensingCSX_LL.c ****         CY_SET_REG32(CapSense_SW_FW_MOD_SEL_PTR,    CapSense_DEFAULT_CSD_SW_FW_MOD_SEL_CFG);
 246              		.loc 1 1642 0
 247 00be 1249     		ldr	r1, .L13+52
 248 00c0 0B60     		str	r3, [r1]
1643:Generated_Source\PSoC4/CapSense_SensingCSX_LL.c ****         CY_SET_REG32(CapSense_SW_FW_TANK_SEL_PTR,   CapSense_DEFAULT_CSD_SW_FW_TANK_SEL_CFG);
 249              		.loc 1 1643 0
 250 00c2 1349     		ldr	r1, .L13+60
 251 00c4 0B60     		str	r3, [r1]
1644:Generated_Source\PSoC4/CapSense_SensingCSX_LL.c ****         CY_SET_REG32(CapSense_INTR_PTR,             CapSense_DEFAULT_CSD_INTR_CFG);
 252              		.loc 1 1644 0
 253 00c6 8321     		mov	r1, #131
 254 00c8 4900     		lsl	r1, r1, #1
 255 00ca 1A4B     		ldr	r3, .L13+96
 256 00cc 1960     		str	r1, [r3]
1645:Generated_Source\PSoC4/CapSense_SensingCSX_LL.c **** 
1646:Generated_Source\PSoC4/CapSense_SensingCSX_LL.c ****         /* Start the normal conversion. */
1647:Generated_Source\PSoC4/CapSense_SensingCSX_LL.c ****         CY_SET_REG32(CapSense_SEQ_START_PTR, CapSense_SCAN_CSD_SEQ_START_CFG);
 257              		.loc 1 1647 0
 258 00ce 124B     		ldr	r3, .L13+68
 259 00d0 1A60     		str	r2, [r3]
 260              	.LBE5:
 261              	.LBE4:
1236:Generated_Source\PSoC4/CapSense_SensingCSX_LL.c **** #else
 262              		.loc 1 1236 0
 263              		@ sp needed
 264 00d2 08BD     		pop	{r3, pc}
 265              	.L14:
 266              		.align	2
 267              	.L13:
 268 00d4 00000000 		.word	CapSense_curRamSnsPtr
 269 00d8 00000000 		.word	CapSense_scanFreqIndex
 270 00dc 800E4301 		.word	21171840
 271 00e0 C0010B40 		.word	1074463168
 272 00e4 00000000 		.word	.LANCHOR0
 273 00e8 20100480 		.word	-2147217376
 274 00ec 00000B40 		.word	1074462720
 275 00f0 80010B40 		.word	1074463104
 276 00f4 80020B40 		.word	1074463360
 277 00f8 84020B40 		.word	1074463364
 278 00fc C0020B40 		.word	1074463424
 279 0100 88020B40 		.word	1074463368
 280 0104 01010100 		.word	65793
 281 0108 B0020B40 		.word	1074463408
 282 010c 10100000 		.word	4112
 283 0110 B4020B40 		.word	1074463412
ARM GAS  C:\Users\TB1014~1\AppData\Local\Temp\ccLG6s4V.s 			page 35


 284 0114 03030000 		.word	771
 285 0118 40030B40 		.word	1074463552
 286 011c 00000000 		.word	CapSense_dsRam
 287 0120 00366E01 		.word	24000000
 288 0124 001BB700 		.word	12000000
 289 0128 00100C80 		.word	-2146693120
 290 012c 01030000 		.word	769
 291 0130 8C010B40 		.word	1074463116
 292 0134 F0000B40 		.word	1074462960
 293              		.cfi_endproc
 294              	.LFE10:
 295              		.size	CapSense_SsCSXStartSample, .-CapSense_SsCSXStartSample
 296              		.section	.text.CapSense_SsCSXScanISR,"ax",%progbits
 297              		.align	2
 298              		.global	CapSense_SsCSXScanISR
 299              		.code	16
 300              		.thumb_func
 301              		.type	CapSense_SsCSXScanISR, %function
 302              	CapSense_SsCSXScanISR:
 303              	.LFB17:
1519:Generated_Source\PSoC4/CapSense_SensingCSX_LL.c ****     #if(0u != CapSense_CSX_NOISE_METRIC_EN)
 304              		.loc 1 1519 0
 305              		.cfi_startproc
 306 0000 08B5     		push	{r3, lr}
 307              		.cfi_def_cfa_offset 8
 308              		.cfi_offset 3, -8
 309              		.cfi_offset 14, -4
1524:Generated_Source\PSoC4/CapSense_SensingCSX_LL.c **** 
 310              		.loc 1 1524 0
 311 0002 0A20     		mov	r0, #10
 312 0004 FFF7FEFF 		bl	CyIntDisable
 313              	.LVL16:
1526:Generated_Source\PSoC4/CapSense_SensingCSX_LL.c **** 
 314              		.loc 1 1526 0
 315 0008 8322     		mov	r2, #131
 316 000a 5200     		lsl	r2, r2, #1
 317 000c 154B     		ldr	r3, .L18
 318 000e 1A60     		str	r2, [r3]
1528:Generated_Source\PSoC4/CapSense_SensingCSX_LL.c ****                                                              CapSense_RESULT_VAL1_VALUE_MASK);
 319              		.loc 1 1528 0
 320 0010 154B     		ldr	r3, .L18+4
 321 0012 1A68     		ldr	r2, [r3]
 322 0014 92B2     		uxth	r2, r2
 323 0016 154B     		ldr	r3, .L18+8
 324 0018 5A80     		strh	r2, [r3, #2]
1531:Generated_Source\PSoC4/CapSense_SensingCSX_LL.c ****                                                              CapSense_RESULT_VAL2_VALUE_MASK);
 325              		.loc 1 1531 0
 326 001a 154A     		ldr	r2, .L18+12
 327 001c 1168     		ldr	r1, [r2]
 328 001e 5A88     		ldrh	r2, [r3, #2]
 329 0020 8A18     		add	r2, r1, r2
 330 0022 92B2     		uxth	r2, r2
 331 0024 5A80     		strh	r2, [r3, #2]
1535:Generated_Source\PSoC4/CapSense_SensingCSX_LL.c ****         {
 332              		.loc 1 1535 0
 333 0026 5A88     		ldrh	r2, [r3, #2]
 334 0028 1988     		ldrh	r1, [r3]
ARM GAS  C:\Users\TB1014~1\AppData\Local\Temp\ccLG6s4V.s 			page 36


 335 002a 93B2     		uxth	r3, r2
 336 002c 8B42     		cmp	r3, r1
 337 002e 03D9     		bls	.L16
1537:Generated_Source\PSoC4/CapSense_SensingCSX_LL.c ****         }
 338              		.loc 1 1537 0
 339 0030 0E4A     		ldr	r2, .L18+8
 340 0032 1388     		ldrh	r3, [r2]
 341 0034 9BB2     		uxth	r3, r3
 342 0036 5380     		strh	r3, [r2, #2]
 343              	.L16:
1554:Generated_Source\PSoC4/CapSense_SensingCSX_LL.c ****     #endif /* (0u != CapSense_CSX_NOISE_METRIC_EN) */
 344              		.loc 1 1554 0
 345 0038 0E4B     		ldr	r3, .L18+16
 346 003a 1B68     		ldr	r3, [r3]
 347 003c 9847     		blx	r3
 348              	.LVL17:
1557:Generated_Source\PSoC4/CapSense_SensingCSX_LL.c ****         {
 349              		.loc 1 1557 0
 350 003e 0E4B     		ldr	r3, .L18+20
 351 0040 9B68     		ldr	r3, [r3, #8]
 352 0042 1B06     		lsl	r3, r3, #24
 353 0044 09D4     		bmi	.L17
1559:Generated_Source\PSoC4/CapSense_SensingCSX_LL.c ****             CY_SET_REG32(CapSense_CSDCMP_PTR, CapSense_DEFAULT_CSD_CSDCMP_CFG);
 354              		.loc 1 1559 0
 355 0046 0D4A     		ldr	r2, .L18+24
 356 0048 0D4B     		ldr	r3, .L18+28
 357 004a 1A60     		str	r2, [r3]
1560:Generated_Source\PSoC4/CapSense_SensingCSX_LL.c ****             CY_SET_REG32(CapSense_IDAC_MOD_PTR, CapSense_DEFAULT_CSD_IDACA_CFG);
 358              		.loc 1 1560 0
 359 004c C022     		mov	r2, #192
 360 004e 9200     		lsl	r2, r2, #2
 361 0050 0C4B     		ldr	r3, .L18+32
 362 0052 1A60     		str	r2, [r3]
1561:Generated_Source\PSoC4/CapSense_SensingCSX_LL.c ****         }
 363              		.loc 1 1561 0
 364 0054 0C4A     		ldr	r2, .L18+36
 365 0056 0D4B     		ldr	r3, .L18+40
 366 0058 1A60     		str	r2, [r3]
 367              	.L17:
1564:Generated_Source\PSoC4/CapSense_SensingCSX_LL.c ****     }
 368              		.loc 1 1564 0
 369 005a 0A20     		mov	r0, #10
 370 005c FFF7FEFF 		bl	CyIntEnable
 371              	.LVL18:
1565:Generated_Source\PSoC4/CapSense_SensingCSX_LL.c **** 
 372              		.loc 1 1565 0
 373              		@ sp needed
 374 0060 08BD     		pop	{r3, pc}
 375              	.L19:
 376 0062 C046     		.align	2
 377              	.L18:
 378 0064 F0000B40 		.word	1074462960
 379 0068 D0000B40 		.word	1074462928
 380 006c 00000000 		.word	.LANCHOR0
 381 0070 D4000B40 		.word	1074462932
 382 0074 00000000 		.word	.LANCHOR1
 383 0078 00000000 		.word	CapSense_dsRam
ARM GAS  C:\Users\TB1014~1\AppData\Local\Temp\ccLG6s4V.s 			page 37


 384 007c 20100480 		.word	-2147217376
 385 0080 00000B40 		.word	1074462720
 386 0084 8C010B40 		.word	1074463116
 387 0088 800E4301 		.word	21171840
 388 008c C0010B40 		.word	1074463168
 389              		.cfi_endproc
 390              	.LFE17:
 391              		.size	CapSense_SsCSXScanISR, .-CapSense_SsCSXScanISR
 392              		.section	.text.CapSense_CSXInitialize,"ax",%progbits
 393              		.align	2
 394              		.global	CapSense_CSXInitialize
 395              		.code	16
 396              		.thumb_func
 397              		.type	CapSense_CSXInitialize, %function
 398              	CapSense_CSXInitialize:
 399              	.LFB1:
 149:Generated_Source\PSoC4/CapSense_SensingCSX_LL.c ****     #if(CapSense_ENABLE == CapSense_CSDV2)
 400              		.loc 1 149 0
 401              		.cfi_startproc
 402 0000 10B5     		push	{r4, lr}
 403              		.cfi_def_cfa_offset 8
 404              		.cfi_offset 4, -8
 405              		.cfi_offset 14, -4
 154:Generated_Source\PSoC4/CapSense_SensingCSX_LL.c ****         CY_SET_REG32(CapSense_INTR_SET_PTR,         CapSense_DEFAULT_CSD_INTR_SET_CFG);
 406              		.loc 1 154 0
 407 0002 8322     		mov	r2, #131
 408 0004 5200     		lsl	r2, r2, #1
 409 0006 414B     		ldr	r3, .L21
 410 0008 1A60     		str	r2, [r3]
 155:Generated_Source\PSoC4/CapSense_SensingCSX_LL.c ****         CY_SET_REG32(CapSense_INTR_MASK_PTR,        CapSense_DEFAULT_CSD_INTR_MASK_CFG);
 411              		.loc 1 155 0
 412 000a 0023     		mov	r3, #0
 413 000c 404A     		ldr	r2, .L21+4
 414 000e 1360     		str	r3, [r2]
 156:Generated_Source\PSoC4/CapSense_SensingCSX_LL.c ****         CY_SET_REG32(CapSense_HSCMP_PTR,            CapSense_DEFAULT_CSD_HSCMP_CFG);
 415              		.loc 1 156 0
 416 0010 0221     		mov	r1, #2
 417 0012 404A     		ldr	r2, .L21+8
 418 0014 1160     		str	r1, [r2]
 157:Generated_Source\PSoC4/CapSense_SensingCSX_LL.c ****         CY_SET_REG32(CapSense_AMBUF_PTR,            CapSense_DEFAULT_CSD_AMBUF_CFG);
 419              		.loc 1 157 0
 420 0016 404A     		ldr	r2, .L21+12
 421 0018 1360     		str	r3, [r2]
 158:Generated_Source\PSoC4/CapSense_SensingCSX_LL.c ****         CY_SET_REG32(CapSense_REFGEN_PTR,           CapSense_DEFAULT_CSD_REFGEN_CFG);
 422              		.loc 1 158 0
 423 001a 404A     		ldr	r2, .L21+16
 424 001c 1360     		str	r3, [r2]
 159:Generated_Source\PSoC4/CapSense_SensingCSX_LL.c ****         CY_SET_REG32(CapSense_CSDCMP_PTR,           CapSense_DEFAULT_CSD_CSDCMP_CFG);
 425              		.loc 1 159 0
 426 001e 4049     		ldr	r1, .L21+20
 427 0020 404A     		ldr	r2, .L21+24
 428 0022 1160     		str	r1, [r2]
 160:Generated_Source\PSoC4/CapSense_SensingCSX_LL.c ****         CY_SET_REG32(CapSense_IDAC_MOD_PTR,         CapSense_DEFAULT_CSD_IDACA_CFG);
 429              		.loc 1 160 0
 430 0024 C021     		mov	r1, #192
 431 0026 8900     		lsl	r1, r1, #2
 432 0028 3F4A     		ldr	r2, .L21+28
ARM GAS  C:\Users\TB1014~1\AppData\Local\Temp\ccLG6s4V.s 			page 38


 433 002a 1160     		str	r1, [r2]
 161:Generated_Source\PSoC4/CapSense_SensingCSX_LL.c **** 
 434              		.loc 1 161 0
 435 002c 3F49     		ldr	r1, .L21+32
 436 002e 404A     		ldr	r2, .L21+36
 437 0030 1160     		str	r1, [r2]
 164:Generated_Source\PSoC4/CapSense_SensingCSX_LL.c ****         #endif /* (0u != CapSense_ADC_EN) || (0u != CapSense_IDACB_USED) */
 438              		.loc 1 164 0
 439 0032 404A     		ldr	r2, .L21+40
 440 0034 1360     		str	r3, [r2]
 167:Generated_Source\PSoC4/CapSense_SensingCSX_LL.c ****         CY_SET_REG32(CapSense_SENSE_PERIOD_PTR,     CapSense_DEFAULT_CSD_SENSE_PERIOD_CFG);
 441              		.loc 1 167 0
 442 0036 4049     		ldr	r1, .L21+44
 443 0038 404A     		ldr	r2, .L21+48
 444 003a 1160     		str	r1, [r2]
 168:Generated_Source\PSoC4/CapSense_SensingCSX_LL.c ****         CY_SET_REG32(CapSense_SENSE_DUTY_PTR,       CapSense_DEFAULT_CSD_SENSE_DUTY_CFG);
 445              		.loc 1 168 0
 446 003c 5021     		mov	r1, #80
 447 003e 404A     		ldr	r2, .L21+52
 448 0040 1160     		str	r1, [r2]
 169:Generated_Source\PSoC4/CapSense_SensingCSX_LL.c ****         CY_SET_REG32(CapSense_SW_HS_P_SEL_PTR,      CapSense_DEFAULT_CSD_SW_HS_P_SEL_CFG);
 449              		.loc 1 169 0
 450 0042 404A     		ldr	r2, .L21+56
 451 0044 1360     		str	r3, [r2]
 170:Generated_Source\PSoC4/CapSense_SensingCSX_LL.c ****         CY_SET_REG32(CapSense_SW_HS_N_SEL_PTR,      CapSense_DEFAULT_CSD_SW_HS_N_SEL_CFG);
 452              		.loc 1 170 0
 453 0046 404A     		ldr	r2, .L21+60
 454 0048 1360     		str	r3, [r2]
 171:Generated_Source\PSoC4/CapSense_SensingCSX_LL.c ****         CY_SET_REG32(CapSense_SW_SHIELD_SEL_PTR,    CapSense_DEFAULT_CSD_SW_SHIELD_SEL_CFG);
 455              		.loc 1 171 0
 456 004a 404A     		ldr	r2, .L21+64
 457 004c 1360     		str	r3, [r2]
 172:Generated_Source\PSoC4/CapSense_SensingCSX_LL.c ****         CY_SET_REG32(CapSense_SW_AMUXBUF_SEL_PTR,   CapSense_DEFAULT_CSD_SW_AMUXBUF_SEL_CFG);
 458              		.loc 1 172 0
 459 004e 404A     		ldr	r2, .L21+68
 460 0050 1360     		str	r3, [r2]
 173:Generated_Source\PSoC4/CapSense_SensingCSX_LL.c **** 
 461              		.loc 1 173 0
 462 0052 404A     		ldr	r2, .L21+72
 463 0054 1360     		str	r3, [r2]
 175:Generated_Source\PSoC4/CapSense_SensingCSX_LL.c ****         tmpRegVal |= CapSense_DEFAULT_CSD_SW_BYP_SEL_CFG;
 464              		.loc 1 175 0
 465 0056 4049     		ldr	r1, .L21+76
 466 0058 0A68     		ldr	r2, [r1]
 467              	.LVL19:
 176:Generated_Source\PSoC4/CapSense_SensingCSX_LL.c ****         CY_SET_REG32(CapSense_SW_BYP_SEL_PTR,       tmpRegVal);
 468              		.loc 1 176 0
 469 005a 8020     		mov	r0, #128
 470 005c 4001     		lsl	r0, r0, #5
 471 005e 0243     		orr	r2, r0
 472              	.LVL20:
 177:Generated_Source\PSoC4/CapSense_SensingCSX_LL.c **** 
 473              		.loc 1 177 0
 474 0060 0A60     		str	r2, [r1]
 179:Generated_Source\PSoC4/CapSense_SensingCSX_LL.c ****         CY_SET_REG32(CapSense_SW_CMP_N_SEL_PTR,     CapSense_DEFAULT_CSD_SW_CMP_N_SEL_CFG);
 475              		.loc 1 179 0
 476 0062 3221     		mov	r1, #50
ARM GAS  C:\Users\TB1014~1\AppData\Local\Temp\ccLG6s4V.s 			page 39


 477 0064 3D4A     		ldr	r2, .L21+80
 478              	.LVL21:
 479 0066 1160     		str	r1, [r2]
 480              	.LVL22:
 180:Generated_Source\PSoC4/CapSense_SensingCSX_LL.c **** 
 481              		.loc 1 180 0
 482 0068 8021     		mov	r1, #128
 483 006a 4904     		lsl	r1, r1, #17
 484 006c 3C4A     		ldr	r2, .L21+84
 485 006e 1160     		str	r1, [r2]
 182:Generated_Source\PSoC4/CapSense_SensingCSX_LL.c ****         tmpRegVal |= CapSense_DEFAULT_CSD_SW_REFGEN_SEL_CFG;
 486              		.loc 1 182 0
 487 0070 3C49     		ldr	r1, .L21+88
 488 0072 0A68     		ldr	r2, [r1]
 489              	.LVL23:
 183:Generated_Source\PSoC4/CapSense_SensingCSX_LL.c ****         CY_SET_REG32(CapSense_SW_REFGEN_SEL_PTR,    tmpRegVal);
 490              		.loc 1 183 0
 491 0074 8020     		mov	r0, #128
 492 0076 4005     		lsl	r0, r0, #21
 493 0078 0243     		orr	r2, r0
 494              	.LVL24:
 184:Generated_Source\PSoC4/CapSense_SensingCSX_LL.c **** 
 495              		.loc 1 184 0
 496 007a 0A60     		str	r2, [r1]
 186:Generated_Source\PSoC4/CapSense_SensingCSX_LL.c ****         CY_SET_REG32(CapSense_SW_FW_TANK_SEL_PTR,   CapSense_DEFAULT_CSD_SW_FW_TANK_SEL_CFG);
 497              		.loc 1 186 0
 498 007c 3A4A     		ldr	r2, .L21+92
 499              	.LVL25:
 500 007e 1360     		str	r3, [r2]
 501              	.LVL26:
 187:Generated_Source\PSoC4/CapSense_SensingCSX_LL.c ****         CY_SET_REG32(CapSense_SW_DSI_SEL_PTR,       CapSense_DEFAULT_CSD_SW_DSI_SEL_CFG);
 502              		.loc 1 187 0
 503 0080 3A4A     		ldr	r2, .L21+96
 504 0082 1360     		str	r3, [r2]
 188:Generated_Source\PSoC4/CapSense_SensingCSX_LL.c ****         CY_SET_REG32(CapSense_SEQ_TIME_PTR,         CapSense_DEFAULT_CSD_SEQ_TIME_CFG);
 505              		.loc 1 188 0
 506 0084 2321     		mov	r1, #35
 507 0086 3A4A     		ldr	r2, .L21+100
 508 0088 1160     		str	r1, [r2]
 189:Generated_Source\PSoC4/CapSense_SensingCSX_LL.c ****         CY_SET_REG32(CapSense_SEQ_INIT_CNT_PTR,     CapSense_DEFAULT_CSD_SEQ_INIT_CNT_CFG);
 509              		.loc 1 189 0
 510 008a 1439     		sub	r1, r1, #20
 511 008c 394A     		ldr	r2, .L21+104
 512 008e 1160     		str	r1, [r2]
 190:Generated_Source\PSoC4/CapSense_SensingCSX_LL.c ****         CY_SET_REG32(CapSense_SEQ_NORM_CNT_PTR,     CapSense_DEFAULT_CSD_SEQ_NORM_CNT_CFG);
 513              		.loc 1 190 0
 514 0090 0B39     		sub	r1, r1, #11
 515 0092 394A     		ldr	r2, .L21+108
 516 0094 1160     		str	r1, [r2]
 191:Generated_Source\PSoC4/CapSense_SensingCSX_LL.c ****         CY_SET_REG32(CapSense_ADC_CTL_PTR,          CapSense_DEFAULT_CSD_ADC_CTL_CFG);
 517              		.loc 1 191 0
 518 0096 394A     		ldr	r2, .L21+112
 519 0098 1360     		str	r3, [r2]
 192:Generated_Source\PSoC4/CapSense_SensingCSX_LL.c ****         CY_SET_REG32(CapSense_SEQ_START_PTR,        CapSense_DEFAULT_CSD_SEQ_START_CFG);
 520              		.loc 1 192 0
 521 009a 394A     		ldr	r2, .L21+116
 522 009c 1360     		str	r3, [r2]
ARM GAS  C:\Users\TB1014~1\AppData\Local\Temp\ccLG6s4V.s 			page 40


 193:Generated_Source\PSoC4/CapSense_SensingCSX_LL.c **** 
 523              		.loc 1 193 0
 524 009e C222     		mov	r2, #194
 525 00a0 9200     		lsl	r2, r2, #2
 526 00a2 384B     		ldr	r3, .L21+120
 527 00a4 1A60     		str	r2, [r3]
 195:Generated_Source\PSoC4/CapSense_SensingCSX_LL.c ****         tmpRegVal = CY_GET_REG32(CapSense_CintA_PC_PTR);
 528              		.loc 1 195 0
 529 00a6 FFF7FEFF 		bl	CyEnterCriticalSection
 530              	.LVL27:
 196:Generated_Source\PSoC4/CapSense_SensingCSX_LL.c ****         tmpRegVal &= (~(CapSense_GPIO_PC_MASK << (CapSense_CintA_SHIFT * CapSense_GPIO_PC_BIT_SIZE)
 531              		.loc 1 196 0
 532 00aa 374C     		ldr	r4, .L21+124
 533 00ac 2268     		ldr	r2, [r4]
 534              	.LVL28:
 197:Generated_Source\PSoC4/CapSense_SensingCSX_LL.c ****         CY_SET_REG32(CapSense_CintA_PC_PTR, tmpRegVal);
 535              		.loc 1 197 0
 536 00ae 374B     		ldr	r3, .L21+128
 537 00b0 1340     		and	r3, r2
 538              	.LVL29:
 198:Generated_Source\PSoC4/CapSense_SensingCSX_LL.c ****         CyExitCriticalSection(interruptState);
 539              		.loc 1 198 0
 540 00b2 2360     		str	r3, [r4]
 199:Generated_Source\PSoC4/CapSense_SensingCSX_LL.c **** 
 541              		.loc 1 199 0
 542 00b4 FFF7FEFF 		bl	CyExitCriticalSection
 543              	.LVL30:
 201:Generated_Source\PSoC4/CapSense_SensingCSX_LL.c ****         tmpRegVal = CY_GET_REG32(CapSense_CintB_PC_PTR);
 544              		.loc 1 201 0
 545 00b8 FFF7FEFF 		bl	CyEnterCriticalSection
 546              	.LVL31:
 202:Generated_Source\PSoC4/CapSense_SensingCSX_LL.c ****         tmpRegVal &= (~(CapSense_GPIO_PC_MASK << (CapSense_CintB__SHIFT * CapSense_GPIO_PC_BIT_SIZE
 547              		.loc 1 202 0
 548 00bc 2268     		ldr	r2, [r4]
 549              	.LVL32:
 203:Generated_Source\PSoC4/CapSense_SensingCSX_LL.c ****         CY_SET_REG32(CapSense_CintB_PC_PTR, tmpRegVal);
 550              		.loc 1 203 0
 551 00be 344B     		ldr	r3, .L21+132
 552 00c0 1340     		and	r3, r2
 553              	.LVL33:
 204:Generated_Source\PSoC4/CapSense_SensingCSX_LL.c ****         CyExitCriticalSection(interruptState);
 554              		.loc 1 204 0
 555 00c2 2360     		str	r3, [r4]
 205:Generated_Source\PSoC4/CapSense_SensingCSX_LL.c **** 
 556              		.loc 1 205 0
 557 00c4 FFF7FEFF 		bl	CyExitCriticalSection
 558              	.LVL34:
 208:Generated_Source\PSoC4/CapSense_SensingCSX_LL.c ****         tmpRegVal = CY_GET_REG32(CapSense_CintA_HSIOM_PTR);
 559              		.loc 1 208 0
 560 00c8 FFF7FEFF 		bl	CyEnterCriticalSection
 561              	.LVL35:
 209:Generated_Source\PSoC4/CapSense_SensingCSX_LL.c ****         tmpRegVal &= ~CapSense_CintA_HSIOM_MASK;
 562              		.loc 1 209 0
 563 00cc 314C     		ldr	r4, .L21+136
 564 00ce 2268     		ldr	r2, [r4]
 565              	.LVL36:
 210:Generated_Source\PSoC4/CapSense_SensingCSX_LL.c ****         tmpRegVal |= (CapSense_HSIOM_SEL_AMUXA << CapSense_CintA_HSIOM_SHIFT);
ARM GAS  C:\Users\TB1014~1\AppData\Local\Temp\ccLG6s4V.s 			page 41


 566              		.loc 1 210 0
 567 00d0 314B     		ldr	r3, .L21+140
 568 00d2 1340     		and	r3, r2
 569              	.LVL37:
 211:Generated_Source\PSoC4/CapSense_SensingCSX_LL.c ****         CY_SET_REG32(CapSense_CintA_HSIOM_PTR, tmpRegVal);
 570              		.loc 1 211 0
 571 00d4 C022     		mov	r2, #192
 572 00d6 D200     		lsl	r2, r2, #3
 573 00d8 1343     		orr	r3, r2
 574              	.LVL38:
 212:Generated_Source\PSoC4/CapSense_SensingCSX_LL.c ****         CyExitCriticalSection(interruptState);
 575              		.loc 1 212 0
 576 00da 2360     		str	r3, [r4]
 213:Generated_Source\PSoC4/CapSense_SensingCSX_LL.c **** 
 577              		.loc 1 213 0
 578 00dc FFF7FEFF 		bl	CyExitCriticalSection
 579              	.LVL39:
 216:Generated_Source\PSoC4/CapSense_SensingCSX_LL.c ****         tmpRegVal = CY_GET_REG32(CapSense_CintB_HSIOM_PTR);
 580              		.loc 1 216 0
 581 00e0 FFF7FEFF 		bl	CyEnterCriticalSection
 582              	.LVL40:
 217:Generated_Source\PSoC4/CapSense_SensingCSX_LL.c ****         tmpRegVal &= ~CapSense_CintB_HSIOM_MASK;
 583              		.loc 1 217 0
 584 00e4 2268     		ldr	r2, [r4]
 585              	.LVL41:
 218:Generated_Source\PSoC4/CapSense_SensingCSX_LL.c ****         tmpRegVal |= (CapSense_HSIOM_SEL_AMUXA << CapSense_CintB_HSIOM_SHIFT);
 586              		.loc 1 218 0
 587 00e6 2D4B     		ldr	r3, .L21+144
 588 00e8 1340     		and	r3, r2
 589              	.LVL42:
 219:Generated_Source\PSoC4/CapSense_SensingCSX_LL.c ****         CY_SET_REG32(CapSense_CintB_HSIOM_PTR, tmpRegVal);
 590              		.loc 1 219 0
 591 00ea C022     		mov	r2, #192
 592 00ec D201     		lsl	r2, r2, #7
 593 00ee 1343     		orr	r3, r2
 594              	.LVL43:
 220:Generated_Source\PSoC4/CapSense_SensingCSX_LL.c ****         CyExitCriticalSection(interruptState);
 595              		.loc 1 220 0
 596 00f0 2360     		str	r3, [r4]
 221:Generated_Source\PSoC4/CapSense_SensingCSX_LL.c **** 
 597              		.loc 1 221 0
 598 00f2 FFF7FEFF 		bl	CyExitCriticalSection
 599              	.LVL44:
 223:Generated_Source\PSoC4/CapSense_SensingCSX_LL.c **** 
 600              		.loc 1 223 0
 601 00f6 2123     		mov	r3, #33
 602 00f8 294A     		ldr	r2, .L21+148
 603 00fa D05C     		ldrb	r0, [r2, r3]
 604 00fc FFF7FEFF 		bl	CapSense_SsSetModClkClockDivider
 605              	.LVL45:
 230:Generated_Source\PSoC4/CapSense_SensingCSX_LL.c **** 
 606              		.loc 1 230 0
 607 0100 FFF7FEFF 		bl	CapSense_SsSetIOsInDefaultState
 608              	.LVL46:
 283:Generated_Source\PSoC4/CapSense_SensingCSX_LL.c **** }
 609              		.loc 1 283 0
 610 0104 2748     		ldr	r0, .L21+152
ARM GAS  C:\Users\TB1014~1\AppData\Local\Temp\ccLG6s4V.s 			page 42


 611 0106 FFF7FEFF 		bl	CapSense_SsIsrInitialize
 612              	.LVL47:
 284:Generated_Source\PSoC4/CapSense_SensingCSX_LL.c **** 
 613              		.loc 1 284 0
 614              		@ sp needed
 615 010a 10BD     		pop	{r4, pc}
 616              	.L22:
 617              		.align	2
 618              	.L21:
 619 010c F0000B40 		.word	1074462960
 620 0110 F4000B40 		.word	1074462964
 621 0114 F8000B40 		.word	1074462968
 622 0118 80010B40 		.word	1074463104
 623 011c 84010B40 		.word	1074463108
 624 0120 411F1E00 		.word	1974081
 625 0124 88010B40 		.word	1074463112
 626 0128 8C010B40 		.word	1074463116
 627 012c 800E4301 		.word	21171840
 628 0130 C0010B40 		.word	1074463168
 629 0134 C4010B40 		.word	1074463172
 630 0138 AA000500 		.word	327850
 631 013c F0010B40 		.word	1074463216
 632 0140 00020B40 		.word	1074463232
 633 0144 04020B40 		.word	1074463236
 634 0148 80020B40 		.word	1074463360
 635 014c 84020B40 		.word	1074463364
 636 0150 88020B40 		.word	1074463368
 637 0154 90020B40 		.word	1074463376
 638 0158 94020B40 		.word	1074463380
 639 015c A0020B40 		.word	1074463392
 640 0160 A4020B40 		.word	1074463396
 641 0164 A8020B40 		.word	1074463400
 642 0168 B0020B40 		.word	1074463408
 643 016c B4020B40 		.word	1074463412
 644 0170 C0020B40 		.word	1074463424
 645 0174 00030B40 		.word	1074463488
 646 0178 10030B40 		.word	1074463504
 647 017c 14030B40 		.word	1074463508
 648 0180 20030B40 		.word	1074463520
 649 0184 40030B40 		.word	1074463552
 650 0188 08040440 		.word	1074005000
 651 018c 3FFEFFFF 		.word	-449
 652 0190 FFF1FFFF 		.word	-3585
 653 0194 00040240 		.word	1073873920
 654 0198 FFF0FFFF 		.word	-3841
 655 019c FF0FFFFF 		.word	-61441
 656 01a0 00000000 		.word	CapSense_dsRam
 657 01a4 00000000 		.word	CapSense_SsCSXScanISR
 658              		.cfi_endproc
 659              	.LFE1:
 660              		.size	CapSense_CSXInitialize, .-CapSense_CSXInitialize
 661              		.section	.text.CapSense_CSXScanExt,"ax",%progbits
 662              		.align	2
 663              		.global	CapSense_CSXScanExt
 664              		.code	16
 665              		.thumb_func
 666              		.type	CapSense_CSXScanExt, %function
ARM GAS  C:\Users\TB1014~1\AppData\Local\Temp\ccLG6s4V.s 			page 43


 667              	CapSense_CSXScanExt:
 668              	.LFB6:
 739:Generated_Source\PSoC4/CapSense_SensingCSX_LL.c ****     /*  If frequency hopping is enabled, reset hopping channel counter  */
 669              		.loc 1 739 0
 670              		.cfi_startproc
 671 0000 08B5     		push	{r3, lr}
 672              		.cfi_def_cfa_offset 8
 673              		.cfi_offset 3, -8
 674              		.cfi_offset 14, -4
 746:Generated_Source\PSoC4/CapSense_SensingCSX_LL.c ****     CapSense_SsCSXStartSample();
 675              		.loc 1 746 0
 676 0002 044A     		ldr	r2, .L24
 677 0004 8023     		mov	r3, #128
 678 0006 9168     		ldr	r1, [r2, #8]
 679 0008 0B43     		orr	r3, r1
 680 000a 9360     		str	r3, [r2, #8]
 747:Generated_Source\PSoC4/CapSense_SensingCSX_LL.c **** }
 681              		.loc 1 747 0
 682 000c FFF7FEFF 		bl	CapSense_SsCSXStartSample
 683              	.LVL48:
 748:Generated_Source\PSoC4/CapSense_SensingCSX_LL.c **** 
 684              		.loc 1 748 0
 685              		@ sp needed
 686 0010 08BD     		pop	{r3, pc}
 687              	.L25:
 688 0012 C046     		.align	2
 689              	.L24:
 690 0014 00000000 		.word	CapSense_dsRam
 691              		.cfi_endproc
 692              	.LFE6:
 693              		.size	CapSense_CSXScanExt, .-CapSense_CSXScanExt
 694              		.section	.text.CapSense_CSXCalibrateWidget,"ax",%progbits
 695              		.align	2
 696              		.global	CapSense_CSXCalibrateWidget
 697              		.code	16
 698              		.thumb_func
 699              		.type	CapSense_CSXCalibrateWidget, %function
 700              	CapSense_CSXCalibrateWidget:
 701              	.LFB9:
1108:Generated_Source\PSoC4/CapSense_SensingCSX_LL.c ****     /*  Declare and initialise ptr to widget and sensor structures        */
 702              		.loc 1 1108 0
 703              		.cfi_startproc
 704              	.LVL49:
 705 0000 F0B5     		push	{r4, r5, r6, r7, lr}
 706              		.cfi_def_cfa_offset 20
 707              		.cfi_offset 4, -20
 708              		.cfi_offset 5, -16
 709              		.cfi_offset 6, -12
 710              		.cfi_offset 7, -8
 711              		.cfi_offset 14, -4
 712 0002 83B0     		sub	sp, sp, #12
 713              		.cfi_def_cfa_offset 32
 714 0004 0190     		str	r0, [sp, #4]
 715 0006 0F1C     		mov	r7, r1
1110:Generated_Source\PSoC4/CapSense_SensingCSX_LL.c ****     CapSense_RAM_WD_BASE_STRUCT *ptrWdgt = (CapSense_RAM_WD_BASE_STRUCT *)
 716              		.loc 1 1110 0
 717 0008 8600     		lsl	r6, r0, #2
ARM GAS  C:\Users\TB1014~1\AppData\Local\Temp\ccLG6s4V.s 			page 44


 718 000a 3318     		add	r3, r6, r0
 719 000c DB00     		lsl	r3, r3, #3
 720 000e 254E     		ldr	r6, .L36
 721 0010 F618     		add	r6, r6, r3
 722 0012 B368     		ldr	r3, [r6, #8]
 723 0014 0093     		str	r3, [sp]
 724              	.LVL50:
1129:Generated_Source\PSoC4/CapSense_SensingCSX_LL.c ****         rawTarget = CapSense_csxScanPeriod;
 725              		.loc 1 1129 0
 726 0016 7068     		ldr	r0, [r6, #4]
 727              	.LVL51:
 728 0018 FFF7FEFF 		bl	CapSense_SsCalcCsxScanPeriod
 729              	.LVL52:
 730 001c 224B     		ldr	r3, .L36+4
 731 001e 1880     		strh	r0, [r3]
1130:Generated_Source\PSoC4/CapSense_SensingCSX_LL.c ****     #else
 732              		.loc 1 1130 0
 733 0020 1888     		ldrh	r0, [r3]
 734              	.LVL53:
1137:Generated_Source\PSoC4/CapSense_SensingCSX_LL.c ****     rawTarget = (rawTarget / CapSense_PERCENTAGE_100);
 735              		.loc 1 1137 0
 736 0022 7843     		mul	r0, r7
 737              	.LVL54:
1138:Generated_Source\PSoC4/CapSense_SensingCSX_LL.c **** 
 738              		.loc 1 1138 0
 739 0024 6421     		mov	r1, #100
 740 0026 FFF7FEFF 		bl	__aeabi_uidiv
 741              	.LVL55:
 742 002a 041C     		mov	r4, r0
 743              	.LVL56:
1141:Generated_Source\PSoC4/CapSense_SensingCSX_LL.c ****     {
 744              		.loc 1 1141 0
 745 002c 737E     		ldrb	r3, [r6, #25]
1140:Generated_Source\PSoC4/CapSense_SensingCSX_LL.c ****        CapSense_GET_SENSE_METHOD(&CapSense_dsFlash.wdgtArray[widgetIndex]))
 746              		.loc 1 1140 0
 747 002e 022B     		cmp	r3, #2
 748 0030 36D1     		bne	.L26
1144:Generated_Source\PSoC4/CapSense_SensingCSX_LL.c ****                     (uint32)CapSense_dsFlash.wdgtArray[widgetIndex].numRows);
 749              		.loc 1 1144 0
 750 0032 019A     		ldr	r2, [sp, #4]
 751 0034 9300     		lsl	r3, r2, #2
 752 0036 9446     		mov	ip, r2
 753 0038 6344     		add	r3, r3, ip
 754 003a DB00     		lsl	r3, r3, #3
 755 003c 194A     		ldr	r2, .L36
 756 003e D318     		add	r3, r2, r3
 757 0040 9A7E     		ldrb	r2, [r3, #26]
1145:Generated_Source\PSoC4/CapSense_SensingCSX_LL.c **** 
 758              		.loc 1 1145 0
 759 0042 DF7E     		ldrb	r7, [r3, #27]
1144:Generated_Source\PSoC4/CapSense_SensingCSX_LL.c ****                     (uint32)CapSense_dsFlash.wdgtArray[widgetIndex].numRows);
 760              		.loc 1 1144 0
 761 0044 5743     		mul	r7, r2
 762              	.LVL57:
1110:Generated_Source\PSoC4/CapSense_SensingCSX_LL.c ****     CapSense_RAM_WD_BASE_STRUCT *ptrWdgt = (CapSense_RAM_WD_BASE_STRUCT *)
 763              		.loc 1 1110 0
 764 0046 009B     		ldr	r3, [sp]
ARM GAS  C:\Users\TB1014~1\AppData\Local\Temp\ccLG6s4V.s 			page 45


1148:Generated_Source\PSoC4/CapSense_SensingCSX_LL.c ****         {
 765              		.loc 1 1148 0
 766 0048 0022     		mov	r2, #0
 767 004a 05E0     		b	.L28
 768              	.LVL58:
 769              	.L29:
1150:Generated_Source\PSoC4/CapSense_SensingCSX_LL.c ****             snsRamPtr->idacComp[0u] = curIdacMask;
 770              		.loc 1 1150 0 discriminator 3
 771 004c 0021     		mov	r1, #0
 772 004e 1980     		strh	r1, [r3]
1151:Generated_Source\PSoC4/CapSense_SensingCSX_LL.c ****             #if (CapSense_MULTI_FREQ_SCAN_EN == CapSense_ENABLE)
 773              		.loc 1 1151 0 discriminator 3
 774 0050 4031     		add	r1, r1, #64
 775 0052 5972     		strb	r1, [r3, #9]
1158:Generated_Source\PSoC4/CapSense_SensingCSX_LL.c ****         }
 776              		.loc 1 1158 0 discriminator 3
 777 0054 0A33     		add	r3, r3, #10
 778              	.LVL59:
1148:Generated_Source\PSoC4/CapSense_SensingCSX_LL.c ****         {
 779              		.loc 1 1148 0 discriminator 3
 780 0056 0132     		add	r2, r2, #1
 781              	.LVL60:
 782              	.L28:
1148:Generated_Source\PSoC4/CapSense_SensingCSX_LL.c ****         {
 783              		.loc 1 1148 0 is_stmt 0 discriminator 1
 784 0058 BA42     		cmp	r2, r7
 785 005a F7D3     		bcc	.L29
 786 005c 2026     		mov	r6, #32
 787              	.LVL61:
 788 005e 4025     		mov	r5, #64
 789 0060 00E0     		b	.L34
 790              	.LVL62:
 791              	.L35:
1205:Generated_Source\PSoC4/CapSense_SensingCSX_LL.c ****         }
 792              		.loc 1 1205 0 is_stmt 1
 793 0062 1E1C     		mov	r6, r3
 794              	.LVL63:
 795              	.L34:
1168:Generated_Source\PSoC4/CapSense_SensingCSX_LL.c ****             (void)CapSense_Scan();
 796              		.loc 1 1168 0
 797 0064 0198     		ldr	r0, [sp, #4]
 798 0066 FFF7FEFF 		bl	CapSense_SetupWidget
 799              	.LVL64:
1169:Generated_Source\PSoC4/CapSense_SensingCSX_LL.c ****             while ((*(volatile uint8 *)&CapSense_dsRam.status & CapSense_SW_STS_BUSY) != 0u)
 800              		.loc 1 1169 0
 801 006a FFF7FEFF 		bl	CapSense_Scan
 802              	.LVL65:
 803              	.L30:
1170:Generated_Source\PSoC4/CapSense_SensingCSX_LL.c ****             {
 804              		.loc 1 1170 0 discriminator 1
 805 006e 0F4B     		ldr	r3, .L36+8
 806 0070 1B7A     		ldrb	r3, [r3, #8]
 807 0072 5BB2     		sxtb	r3, r3
 808 0074 002B     		cmp	r3, #0
 809 0076 FADB     		blt	.L30
 810 0078 009B     		ldr	r3, [sp]
 811 007a 0021     		mov	r1, #0
ARM GAS  C:\Users\TB1014~1\AppData\Local\Temp\ccLG6s4V.s 			page 46


 812 007c 0AE0     		b	.L31
 813              	.LVL66:
 814              	.L33:
1180:Generated_Source\PSoC4/CapSense_SensingCSX_LL.c ****                 {
 815              		.loc 1 1180 0
 816 007e 1A88     		ldrh	r2, [r3]
 817 0080 A242     		cmp	r2, r4
 818 0082 02D9     		bls	.L32
1182:Generated_Source\PSoC4/CapSense_SensingCSX_LL.c ****                 }
 819              		.loc 1 1182 0
 820 0084 5A7A     		ldrb	r2, [r3, #9]
 821 0086 AA43     		bic	r2, r5
 822 0088 5A72     		strb	r2, [r3, #9]
 823              	.L32:
1184:Generated_Source\PSoC4/CapSense_SensingCSX_LL.c **** 
 824              		.loc 1 1184 0 discriminator 2
 825 008a 5A7A     		ldrb	r2, [r3, #9]
 826 008c 3243     		orr	r2, r6
 827 008e 5A72     		strb	r2, [r3, #9]
1200:Generated_Source\PSoC4/CapSense_SensingCSX_LL.c ****             }
 828              		.loc 1 1200 0 discriminator 2
 829 0090 0A33     		add	r3, r3, #10
 830              	.LVL67:
1175:Generated_Source\PSoC4/CapSense_SensingCSX_LL.c ****             {
 831              		.loc 1 1175 0 discriminator 2
 832 0092 0131     		add	r1, r1, #1
 833              	.LVL68:
 834              	.L31:
1175:Generated_Source\PSoC4/CapSense_SensingCSX_LL.c ****             {
 835              		.loc 1 1175 0 is_stmt 0 discriminator 1
 836 0094 B942     		cmp	r1, r7
 837 0096 F2D3     		bcc	.L33
 838              	.LVL69:
1205:Generated_Source\PSoC4/CapSense_SensingCSX_LL.c ****         }
 839              		.loc 1 1205 0 is_stmt 1
 840 0098 7308     		lsr	r3, r6, #1
 841              	.LVL70:
 842 009a DBB2     		uxtb	r3, r3
 843              	.LVL71:
1204:Generated_Source\PSoC4/CapSense_SensingCSX_LL.c ****             nextIdacMask = nextIdacMask >> 1u;
 844              		.loc 1 1204 0
 845 009c 351E     		sub	r5, r6, #0
1207:Generated_Source\PSoC4/CapSense_SensingCSX_LL.c ****     }
 846              		.loc 1 1207 0
 847 009e E0D1     		bne	.L35
 848              	.LVL72:
 849              	.L26:
1209:Generated_Source\PSoC4/CapSense_SensingCSX_LL.c **** 
 850              		.loc 1 1209 0
 851 00a0 03B0     		add	sp, sp, #12
 852              		@ sp needed
 853              	.LVL73:
 854 00a2 F0BD     		pop	{r4, r5, r6, r7, pc}
 855              	.L37:
 856              		.align	2
 857              	.L36:
 858 00a4 00000000 		.word	CapSense_dsFlash
ARM GAS  C:\Users\TB1014~1\AppData\Local\Temp\ccLG6s4V.s 			page 47


 859 00a8 00000000 		.word	.LANCHOR0
 860 00ac 00000000 		.word	CapSense_dsRam
 861              		.cfi_endproc
 862              	.LFE9:
 863              		.size	CapSense_CSXCalibrateWidget, .-CapSense_CSXCalibrateWidget
 864              		.section	.text.CapSense_CSXConnectTx,"ax",%progbits
 865              		.align	2
 866              		.global	CapSense_CSXConnectTx
 867              		.code	16
 868              		.thumb_func
 869              		.type	CapSense_CSXConnectTx, %function
 870              	CapSense_CSXConnectTx:
 871              	.LFB11:
1291:Generated_Source\PSoC4/CapSense_SensingCSX_LL.c ****     uint32 regValue;
 872              		.loc 1 1291 0
 873              		.cfi_startproc
 874              	.LVL74:
 875 0000 10B5     		push	{r4, lr}
 876              		.cfi_def_cfa_offset 8
 877              		.cfi_offset 4, -8
 878              		.cfi_offset 14, -4
1294:Generated_Source\PSoC4/CapSense_SensingCSX_LL.c ****     regValue |= (CapSense_GPIO_STRGDRV << txPtr->shift);
 879              		.loc 1 1294 0
 880 0002 4168     		ldr	r1, [r0, #4]
 881 0004 0A68     		ldr	r2, [r1]
 882              	.LVL75:
1295:Generated_Source\PSoC4/CapSense_SensingCSX_LL.c ****     CY_SET_REG32 (txPtr->pcPtr, regValue);
 883              		.loc 1 1295 0
 884 0006 847E     		ldrb	r4, [r0, #26]
 885 0008 0623     		mov	r3, #6
 886 000a A340     		lsl	r3, r3, r4
 887 000c 1343     		orr	r3, r2
 888              	.LVL76:
1296:Generated_Source\PSoC4/CapSense_SensingCSX_LL.c **** 
 889              		.loc 1 1296 0
 890 000e 0B60     		str	r3, [r1]
1298:Generated_Source\PSoC4/CapSense_SensingCSX_LL.c ****     regValue |= (CapSense_HSIOM_SEL_CSD_SENSE << txPtr->hsiomShift);
 891              		.loc 1 1298 0
 892 0010 0168     		ldr	r1, [r0]
 893 0012 0A68     		ldr	r2, [r1]
 894              	.LVL77:
1299:Generated_Source\PSoC4/CapSense_SensingCSX_LL.c ****     CY_SET_REG32 (txPtr->hsiomPtr, regValue);
 895              		.loc 1 1299 0
 896 0014 007E     		ldrb	r0, [r0, #24]
 897              	.LVL78:
 898 0016 0423     		mov	r3, #4
 899 0018 8340     		lsl	r3, r3, r0
 900 001a 1343     		orr	r3, r2
 901              	.LVL79:
1300:Generated_Source\PSoC4/CapSense_SensingCSX_LL.c **** }
 902              		.loc 1 1300 0
 903 001c 0B60     		str	r3, [r1]
1301:Generated_Source\PSoC4/CapSense_SensingCSX_LL.c **** 
 904              		.loc 1 1301 0
 905              		@ sp needed
 906 001e 10BD     		pop	{r4, pc}
 907              		.cfi_endproc
ARM GAS  C:\Users\TB1014~1\AppData\Local\Temp\ccLG6s4V.s 			page 48


 908              	.LFE11:
 909              		.size	CapSense_CSXConnectTx, .-CapSense_CSXConnectTx
 910              		.section	.text.CapSense_CSXConnectRx,"ax",%progbits
 911              		.align	2
 912              		.global	CapSense_CSXConnectRx
 913              		.code	16
 914              		.thumb_func
 915              		.type	CapSense_CSXConnectRx, %function
 916              	CapSense_CSXConnectRx:
 917              	.LFB12:
1325:Generated_Source\PSoC4/CapSense_SensingCSX_LL.c ****     uint32 regValue;
 918              		.loc 1 1325 0
 919              		.cfi_startproc
 920              	.LVL80:
 921 0000 10B5     		push	{r4, lr}
 922              		.cfi_def_cfa_offset 8
 923              		.cfi_offset 4, -8
 924              		.cfi_offset 14, -4
1328:Generated_Source\PSoC4/CapSense_SensingCSX_LL.c ****     regValue &= ~(CapSense_GPIO_PC_MASK << rxPtr->shift);
 925              		.loc 1 1328 0
 926 0002 4168     		ldr	r1, [r0, #4]
 927 0004 0B68     		ldr	r3, [r1]
 928              	.LVL81:
1329:Generated_Source\PSoC4/CapSense_SensingCSX_LL.c ****     CY_SET_REG32 (rxPtr->pcPtr, regValue);
 929              		.loc 1 1329 0
 930 0006 847E     		ldrb	r4, [r0, #26]
 931 0008 0722     		mov	r2, #7
 932 000a A240     		lsl	r2, r2, r4
 933 000c 9343     		bic	r3, r2
 934              	.LVL82:
1330:Generated_Source\PSoC4/CapSense_SensingCSX_LL.c **** 
 935              		.loc 1 1330 0
 936 000e 0B60     		str	r3, [r1]
1332:Generated_Source\PSoC4/CapSense_SensingCSX_LL.c ****     regValue |=  (CapSense_HSIOM_SEL_AMUXA << rxPtr->hsiomShift);
 937              		.loc 1 1332 0
 938 0010 0168     		ldr	r1, [r0]
 939 0012 0A68     		ldr	r2, [r1]
 940              	.LVL83:
1333:Generated_Source\PSoC4/CapSense_SensingCSX_LL.c ****     CY_SET_REG32 (rxPtr->hsiomPtr, regValue);
 941              		.loc 1 1333 0
 942 0014 007E     		ldrb	r0, [r0, #24]
 943              	.LVL84:
 944 0016 0623     		mov	r3, #6
 945 0018 8340     		lsl	r3, r3, r0
 946 001a 1343     		orr	r3, r2
 947              	.LVL85:
1334:Generated_Source\PSoC4/CapSense_SensingCSX_LL.c **** }
 948              		.loc 1 1334 0
 949 001c 0B60     		str	r3, [r1]
1335:Generated_Source\PSoC4/CapSense_SensingCSX_LL.c **** 
 950              		.loc 1 1335 0
 951              		@ sp needed
 952 001e 10BD     		pop	{r4, pc}
 953              		.cfi_endproc
 954              	.LFE12:
 955              		.size	CapSense_CSXConnectRx, .-CapSense_CSXConnectRx
 956              		.section	.text.CapSense_CSXScan,"ax",%progbits
ARM GAS  C:\Users\TB1014~1\AppData\Local\Temp\ccLG6s4V.s 			page 49


 957              		.align	2
 958              		.global	CapSense_CSXScan
 959              		.code	16
 960              		.thumb_func
 961              		.type	CapSense_CSXScan, %function
 962              	CapSense_CSXScan:
 963              	.LFB5:
 618:Generated_Source\PSoC4/CapSense_SensingCSX_LL.c ****     #if (CapSense_CSX_GANGED_SNS_EN == 1u)
 964              		.loc 1 618 0
 965              		.cfi_startproc
 966 0000 10B5     		push	{r4, lr}
 967              		.cfi_def_cfa_offset 8
 968              		.cfi_offset 4, -8
 969              		.cfi_offset 14, -4
 624:Generated_Source\PSoC4/CapSense_SensingCSX_LL.c **** 
 970              		.loc 1 624 0
 971 0002 104B     		ldr	r3, .L41
 972 0004 1B68     		ldr	r3, [r3]
 973 0006 104A     		ldr	r2, .L41+4
 974 0008 9968     		ldr	r1, [r3, #8]
 975 000a 1160     		str	r1, [r2]
 628:Generated_Source\PSoC4/CapSense_SensingCSX_LL.c ****     CapSense_curWdgtTotalRx  = CapSense_curFlashWdgtPtr->numCols;
 976              		.loc 1 628 0
 977 000c DA7E     		ldrb	r2, [r3, #27]
 978 000e 0F4C     		ldr	r4, .L41+8
 979 0010 A280     		strh	r2, [r4, #4]
 629:Generated_Source\PSoC4/CapSense_SensingCSX_LL.c **** 
 980              		.loc 1 629 0
 981 0012 987E     		ldrb	r0, [r3, #26]
 982 0014 E080     		strh	r0, [r4, #6]
 673:Generated_Source\PSoC4/CapSense_SensingCSX_LL.c ****             CapSense_curTxIOPtr = CapSense_curRxIOPtr;
 983              		.loc 1 673 0
 984 0016 1A68     		ldr	r2, [r3]
 985 0018 A260     		str	r2, [r4, #8]
 675:Generated_Source\PSoC4/CapSense_SensingCSX_LL.c **** 
 986              		.loc 1 675 0
 987 001a C300     		lsl	r3, r0, #3
 988 001c 181A     		sub	r0, r3, r0
 989 001e 8000     		lsl	r0, r0, #2
 990 0020 1018     		add	r0, r2, r0
 991 0022 E060     		str	r0, [r4, #12]
 678:Generated_Source\PSoC4/CapSense_SensingCSX_LL.c ****             CapSense_CSXConnectRx(CapSense_curRxIOPtr);
 992              		.loc 1 678 0
 993 0024 FFF7FEFF 		bl	CapSense_CSXConnectTx
 994              	.LVL86:
 679:Generated_Source\PSoC4/CapSense_SensingCSX_LL.c **** 
 995              		.loc 1 679 0
 996 0028 A068     		ldr	r0, [r4, #8]
 997 002a FFF7FEFF 		bl	CapSense_CSXConnectRx
 998              	.LVL87:
 682:Generated_Source\PSoC4/CapSense_SensingCSX_LL.c ****         }
 999              		.loc 1 682 0
 1000 002e 084A     		ldr	r2, .L41+12
 1001 0030 084B     		ldr	r3, .L41+16
 1002 0032 1A60     		str	r2, [r3]
 691:Generated_Source\PSoC4/CapSense_SensingCSX_LL.c ****     CapSense_SsCSXStartSample();
 1003              		.loc 1 691 0
ARM GAS  C:\Users\TB1014~1\AppData\Local\Temp\ccLG6s4V.s 			page 50


 1004 0034 084A     		ldr	r2, .L41+20
 1005 0036 8023     		mov	r3, #128
 1006 0038 9168     		ldr	r1, [r2, #8]
 1007 003a 0B43     		orr	r3, r1
 1008 003c 9360     		str	r3, [r2, #8]
 692:Generated_Source\PSoC4/CapSense_SensingCSX_LL.c **** }
 1009              		.loc 1 692 0
 1010 003e FFF7FEFF 		bl	CapSense_SsCSXStartSample
 1011              	.LVL88:
 693:Generated_Source\PSoC4/CapSense_SensingCSX_LL.c **** 
 1012              		.loc 1 693 0
 1013              		@ sp needed
 1014 0042 10BD     		pop	{r4, pc}
 1015              	.L42:
 1016              		.align	2
 1017              	.L41:
 1018 0044 00000000 		.word	CapSense_curFlashWdgtPtr
 1019 0048 00000000 		.word	CapSense_curRamSnsPtr
 1020 004c 00000000 		.word	.LANCHOR0
 1021 0050 00000000 		.word	CapSense_SsCSXPostMultiScan
 1022 0054 00000000 		.word	.LANCHOR1
 1023 0058 00000000 		.word	CapSense_dsRam
 1024              		.cfi_endproc
 1025              	.LFE5:
 1026              		.size	CapSense_CSXScan, .-CapSense_CSXScan
 1027              		.section	.text.CapSense_CSXDisconnectTx,"ax",%progbits
 1028              		.align	2
 1029              		.global	CapSense_CSXDisconnectTx
 1030              		.code	16
 1031              		.thumb_func
 1032              		.type	CapSense_CSXDisconnectTx, %function
 1033              	CapSense_CSXDisconnectTx:
 1034              	.LFB13:
1360:Generated_Source\PSoC4/CapSense_SensingCSX_LL.c ****     uint32 regValue;
 1035              		.loc 1 1360 0
 1036              		.cfi_startproc
 1037              	.LVL89:
1363:Generated_Source\PSoC4/CapSense_SensingCSX_LL.c ****     regValue &= ~(txPtr->hsiomMask);
 1038              		.loc 1 1363 0
 1039 0000 0268     		ldr	r2, [r0]
 1040 0002 1368     		ldr	r3, [r2]
 1041              	.LVL90:
1364:Generated_Source\PSoC4/CapSense_SensingCSX_LL.c ****     CY_SET_REG32 (txPtr->hsiomPtr, regValue);
 1042              		.loc 1 1364 0
 1043 0004 0169     		ldr	r1, [r0, #16]
 1044 0006 8B43     		bic	r3, r1
 1045              	.LVL91:
1365:Generated_Source\PSoC4/CapSense_SensingCSX_LL.c **** }
 1046              		.loc 1 1365 0
 1047 0008 1360     		str	r3, [r2]
1366:Generated_Source\PSoC4/CapSense_SensingCSX_LL.c **** 
 1048              		.loc 1 1366 0
 1049              		@ sp needed
 1050 000a 7047     		bx	lr
 1051              		.cfi_endproc
 1052              	.LFE13:
 1053              		.size	CapSense_CSXDisconnectTx, .-CapSense_CSXDisconnectTx
ARM GAS  C:\Users\TB1014~1\AppData\Local\Temp\ccLG6s4V.s 			page 51


 1054              		.section	.text.CapSense_CSXDisconnectRx,"ax",%progbits
 1055              		.align	2
 1056              		.global	CapSense_CSXDisconnectRx
 1057              		.code	16
 1058              		.thumb_func
 1059              		.type	CapSense_CSXDisconnectRx, %function
 1060              	CapSense_CSXDisconnectRx:
 1061              	.LFB14:
1391:Generated_Source\PSoC4/CapSense_SensingCSX_LL.c ****     uint32 regValue;
 1062              		.loc 1 1391 0
 1063              		.cfi_startproc
 1064              	.LVL92:
 1065 0000 10B5     		push	{r4, lr}
 1066              		.cfi_def_cfa_offset 8
 1067              		.cfi_offset 4, -8
 1068              		.cfi_offset 14, -4
1394:Generated_Source\PSoC4/CapSense_SensingCSX_LL.c ****     regValue &= ~(rxPtr->hsiomMask);
 1069              		.loc 1 1394 0
 1070 0002 0268     		ldr	r2, [r0]
 1071 0004 1368     		ldr	r3, [r2]
 1072              	.LVL93:
1395:Generated_Source\PSoC4/CapSense_SensingCSX_LL.c ****     CY_SET_REG32 (rxPtr->hsiomPtr, regValue);
 1073              		.loc 1 1395 0
 1074 0006 0169     		ldr	r1, [r0, #16]
 1075 0008 8B43     		bic	r3, r1
 1076              	.LVL94:
1396:Generated_Source\PSoC4/CapSense_SensingCSX_LL.c **** 
 1077              		.loc 1 1396 0
 1078 000a 1360     		str	r3, [r2]
1398:Generated_Source\PSoC4/CapSense_SensingCSX_LL.c ****     regValue &= ~(CapSense_GPIO_PC_MASK << rxPtr->shift);
 1079              		.loc 1 1398 0
 1080 000c 4168     		ldr	r1, [r0, #4]
 1081 000e 0B68     		ldr	r3, [r1]
 1082              	.LVL95:
1399:Generated_Source\PSoC4/CapSense_SensingCSX_LL.c ****     regValue |=  (CapSense_GPIO_STRGDRV << rxPtr->shift);
 1083              		.loc 1 1399 0
 1084 0010 847E     		ldrb	r4, [r0, #26]
 1085 0012 0722     		mov	r2, #7
 1086 0014 A240     		lsl	r2, r2, r4
 1087 0016 9343     		bic	r3, r2
 1088              	.LVL96:
 1089 0018 1A1C     		mov	r2, r3
 1090              	.LVL97:
1400:Generated_Source\PSoC4/CapSense_SensingCSX_LL.c ****     CY_SET_REG32 (rxPtr->pcPtr, regValue);
 1091              		.loc 1 1400 0
 1092 001a 0623     		mov	r3, #6
 1093 001c A340     		lsl	r3, r3, r4
 1094 001e 1343     		orr	r3, r2
 1095              	.LVL98:
1401:Generated_Source\PSoC4/CapSense_SensingCSX_LL.c **** 
 1096              		.loc 1 1401 0
 1097 0020 0B60     		str	r3, [r1]
1403:Generated_Source\PSoC4/CapSense_SensingCSX_LL.c ****     regValue &=  ~(rxPtr->mask);
 1098              		.loc 1 1403 0
 1099 0022 8268     		ldr	r2, [r0, #8]
 1100 0024 1368     		ldr	r3, [r2]
 1101              	.LVL99:
ARM GAS  C:\Users\TB1014~1\AppData\Local\Temp\ccLG6s4V.s 			page 52


1404:Generated_Source\PSoC4/CapSense_SensingCSX_LL.c ****     CY_SET_REG32 (rxPtr->drPtr, regValue);
 1102              		.loc 1 1404 0
 1103 0026 4169     		ldr	r1, [r0, #20]
 1104 0028 8B43     		bic	r3, r1
 1105              	.LVL100:
1405:Generated_Source\PSoC4/CapSense_SensingCSX_LL.c **** }
 1106              		.loc 1 1405 0
 1107 002a 1360     		str	r3, [r2]
1406:Generated_Source\PSoC4/CapSense_SensingCSX_LL.c **** 
 1108              		.loc 1 1406 0
 1109              		@ sp needed
 1110 002c 10BD     		pop	{r4, pc}
 1111              		.cfi_endproc
 1112              	.LFE14:
 1113              		.size	CapSense_CSXDisconnectRx, .-CapSense_CSXDisconnectRx
 1114 002e C046     		.section	.text.CapSense_SsCSXPostMultiScan,"ax",%progbits
 1115              		.align	2
 1116              		.code	16
 1117              		.thumb_func
 1118              		.type	CapSense_SsCSXPostMultiScan, %function
 1119              	CapSense_SsCSXPostMultiScan:
 1120              	.LFB7:
 763:Generated_Source\PSoC4/CapSense_SensingCSX_LL.c ****     #ifdef CapSense_ENTRY_CALLBACK
 1121              		.loc 1 763 0
 1122              		.cfi_startproc
 1123 0000 10B5     		push	{r4, lr}
 1124              		.cfi_def_cfa_offset 8
 1125              		.cfi_offset 4, -8
 1126              		.cfi_offset 14, -4
 769:Generated_Source\PSoC4/CapSense_SensingCSX_LL.c ****                              (CapSense_csxScanPeriod - CapSense_csxRawCount);
 1127              		.loc 1 769 0
 1128 0002 2C4B     		ldr	r3, .L50
 1129 0004 1968     		ldr	r1, [r3]
 1130 0006 2C4B     		ldr	r3, .L50+4
 1131 0008 1B78     		ldrb	r3, [r3]
 1132 000a 2C4C     		ldr	r4, .L50+8
 1133 000c 2288     		ldrh	r2, [r4]
 1134 000e 6088     		ldrh	r0, [r4, #2]
 1135 0010 5B00     		lsl	r3, r3, #1
 1136 0012 121A     		sub	r2, r2, r0
 1137 0014 5A52     		strh	r2, [r3, r1]
 793:Generated_Source\PSoC4/CapSense_SensingCSX_LL.c **** 
 1138              		.loc 1 793 0
 1139 0016 E068     		ldr	r0, [r4, #12]
 1140 0018 FFF7FEFF 		bl	CapSense_CSXDisconnectTx
 1141              	.LVL101:
 797:Generated_Source\PSoC4/CapSense_SensingCSX_LL.c ****             if (CapSense_curWdgtTotalTx > 0u)
 1142              		.loc 1 797 0
 1143 001c A388     		ldrh	r3, [r4, #4]
 1144 001e 013B     		sub	r3, r3, #1
 1145 0020 9BB2     		uxth	r3, r3
 1146 0022 A380     		strh	r3, [r4, #4]
 798:Generated_Source\PSoC4/CapSense_SensingCSX_LL.c ****             {
 1147              		.loc 1 798 0
 1148 0024 002B     		cmp	r3, #0
 1149 0026 0CD0     		beq	.L46
 803:Generated_Source\PSoC4/CapSense_SensingCSX_LL.c ****                 CapSense_CSXConnectTx (CapSense_curTxIOPtr);
ARM GAS  C:\Users\TB1014~1\AppData\Local\Temp\ccLG6s4V.s 			page 53


 1150              		.loc 1 803 0
 1151 0028 244B     		ldr	r3, .L50+8
 1152 002a D868     		ldr	r0, [r3, #12]
 1153 002c 1C30     		add	r0, r0, #28
 1154 002e D860     		str	r0, [r3, #12]
 804:Generated_Source\PSoC4/CapSense_SensingCSX_LL.c ****                 CapSense_curRamSnsPtr++;
 1155              		.loc 1 804 0
 1156 0030 FFF7FEFF 		bl	CapSense_CSXConnectTx
 1157              	.LVL102:
 805:Generated_Source\PSoC4/CapSense_SensingCSX_LL.c **** 
 1158              		.loc 1 805 0
 1159 0034 1F4A     		ldr	r2, .L50
 1160 0036 1368     		ldr	r3, [r2]
 1161 0038 0A33     		add	r3, r3, #10
 1162 003a 1360     		str	r3, [r2]
 808:Generated_Source\PSoC4/CapSense_SensingCSX_LL.c ****             }
 1163              		.loc 1 808 0
 1164 003c FFF7FEFF 		bl	CapSense_SsCSXStartSample
 1165              	.LVL103:
 1166 0040 37E0     		b	.L45
 1167              	.L46:
 814:Generated_Source\PSoC4/CapSense_SensingCSX_LL.c ****                 if (CapSense_curWdgtTotalRx > 0u)
 1168              		.loc 1 814 0
 1169 0042 1E4A     		ldr	r2, .L50+8
 1170 0044 D388     		ldrh	r3, [r2, #6]
 1171 0046 013B     		sub	r3, r3, #1
 1172 0048 9BB2     		uxth	r3, r3
 1173 004a D380     		strh	r3, [r2, #6]
 815:Generated_Source\PSoC4/CapSense_SensingCSX_LL.c ****                 {
 1174              		.loc 1 815 0
 1175 004c 002B     		cmp	r3, #0
 1176 004e 1DD0     		beq	.L48
 822:Generated_Source\PSoC4/CapSense_SensingCSX_LL.c ****                     CapSense_curRxIOPtr++;
 1177              		.loc 1 822 0
 1178 0050 141C     		mov	r4, r2
 1179 0052 9068     		ldr	r0, [r2, #8]
 1180 0054 FFF7FEFF 		bl	CapSense_CSXDisconnectRx
 1181              	.LVL104:
 823:Generated_Source\PSoC4/CapSense_SensingCSX_LL.c ****                     CapSense_CSXConnectRx(CapSense_curRxIOPtr);
 1182              		.loc 1 823 0
 1183 0058 A068     		ldr	r0, [r4, #8]
 1184 005a 1C30     		add	r0, r0, #28
 1185 005c A060     		str	r0, [r4, #8]
 824:Generated_Source\PSoC4/CapSense_SensingCSX_LL.c ****                     CapSense_curWdgtTotalTx  = CapSense_curFlashWdgtPtr->numRows;
 1186              		.loc 1 824 0
 1187 005e FFF7FEFF 		bl	CapSense_CSXConnectRx
 1188              	.LVL105:
 825:Generated_Source\PSoC4/CapSense_SensingCSX_LL.c ****                     CapSense_curTxIOPtr = (CapSense_FLASH_IO_STRUCT const *)CapSense_curFlashWdgtPt
 1189              		.loc 1 825 0
 1190 0062 174B     		ldr	r3, .L50+12
 1191 0064 1A68     		ldr	r2, [r3]
 1192 0066 D37E     		ldrb	r3, [r2, #27]
 1193 0068 A380     		strh	r3, [r4, #4]
 826:Generated_Source\PSoC4/CapSense_SensingCSX_LL.c ****                     CapSense_curTxIOPtr = & CapSense_curTxIOPtr[(CapSense_curFlashWdgtPtr->numCols)
 1194              		.loc 1 826 0
 1195 006a 1068     		ldr	r0, [r2]
 1196 006c E060     		str	r0, [r4, #12]
ARM GAS  C:\Users\TB1014~1\AppData\Local\Temp\ccLG6s4V.s 			page 54


 827:Generated_Source\PSoC4/CapSense_SensingCSX_LL.c ****                     CapSense_CSXConnectTx(CapSense_curTxIOPtr);
 1197              		.loc 1 827 0
 1198 006e 937E     		ldrb	r3, [r2, #26]
 1199 0070 DA00     		lsl	r2, r3, #3
 1200 0072 D31A     		sub	r3, r2, r3
 1201 0074 9B00     		lsl	r3, r3, #2
 1202 0076 C018     		add	r0, r0, r3
 1203 0078 E060     		str	r0, [r4, #12]
 828:Generated_Source\PSoC4/CapSense_SensingCSX_LL.c **** 
 1204              		.loc 1 828 0
 1205 007a FFF7FEFF 		bl	CapSense_CSXConnectTx
 1206              	.LVL106:
 831:Generated_Source\PSoC4/CapSense_SensingCSX_LL.c **** 
 1207              		.loc 1 831 0
 1208 007e 0D4A     		ldr	r2, .L50
 1209 0080 1368     		ldr	r3, [r2]
 1210 0082 0A33     		add	r3, r3, #10
 1211 0084 1360     		str	r3, [r2]
 834:Generated_Source\PSoC4/CapSense_SensingCSX_LL.c ****                 }
 1212              		.loc 1 834 0
 1213 0086 FFF7FEFF 		bl	CapSense_SsCSXStartSample
 1214              	.LVL107:
 1215 008a 12E0     		b	.L45
 1216              	.L48:
 839:Generated_Source\PSoC4/CapSense_SensingCSX_LL.c **** 
 1217              		.loc 1 839 0
 1218 008c 0B4B     		ldr	r3, .L50+8
 1219 008e 9868     		ldr	r0, [r3, #8]
 1220 0090 FFF7FEFF 		bl	CapSense_CSXDisconnectRx
 1221              	.LVL108:
 842:Generated_Source\PSoC4/CapSense_SensingCSX_LL.c ****                     {
 1222              		.loc 1 842 0
 1223 0094 0B4B     		ldr	r3, .L50+16
 1224 0096 1B78     		ldrb	r3, [r3]
 1225 0098 002B     		cmp	r3, #0
 1226 009a 02D0     		beq	.L49
 844:Generated_Source\PSoC4/CapSense_SensingCSX_LL.c ****                     }
 1227              		.loc 1 844 0
 1228 009c FFF7FEFF 		bl	CapSense_SsPostAllWidgetsScan
 1229              	.LVL109:
 1230 00a0 07E0     		b	.L45
 1231              	.L49:
 851:Generated_Source\PSoC4/CapSense_SensingCSX_LL.c ****                         CapSense_dsRam.status &= ~CapSense_SW_STS_BUSY;
 1232              		.loc 1 851 0
 1233 00a2 094B     		ldr	r3, .L50+20
 1234 00a4 DA88     		ldrh	r2, [r3, #6]
 1235 00a6 0132     		add	r2, r2, #1
 1236 00a8 DA80     		strh	r2, [r3, #6]
 852:Generated_Source\PSoC4/CapSense_SensingCSX_LL.c ****                     }
 1237              		.loc 1 852 0
 1238 00aa 8022     		mov	r2, #128
 1239 00ac 9968     		ldr	r1, [r3, #8]
 1240 00ae 9143     		bic	r1, r2
 1241 00b0 9960     		str	r1, [r3, #8]
 1242              	.L45:
 861:Generated_Source\PSoC4/CapSense_SensingCSX_LL.c **** 
 1243              		.loc 1 861 0
ARM GAS  C:\Users\TB1014~1\AppData\Local\Temp\ccLG6s4V.s 			page 55


 1244              		@ sp needed
 1245 00b2 10BD     		pop	{r4, pc}
 1246              	.L51:
 1247              		.align	2
 1248              	.L50:
 1249 00b4 00000000 		.word	CapSense_curRamSnsPtr
 1250 00b8 00000000 		.word	CapSense_scanFreqIndex
 1251 00bc 00000000 		.word	.LANCHOR0
 1252 00c0 00000000 		.word	CapSense_curFlashWdgtPtr
 1253 00c4 00000000 		.word	CapSense_requestScanAllWidget
 1254 00c8 00000000 		.word	CapSense_dsRam
 1255              		.cfi_endproc
 1256              	.LFE7:
 1257              		.size	CapSense_SsCSXPostMultiScan, .-CapSense_SsCSXPostMultiScan
 1258              		.section	.text.CapSense_CSXElectrodeCheck,"ax",%progbits
 1259              		.align	2
 1260              		.global	CapSense_CSXElectrodeCheck
 1261              		.code	16
 1262              		.thumb_func
 1263              		.type	CapSense_CSXElectrodeCheck, %function
 1264              	CapSense_CSXElectrodeCheck:
 1265              	.LFB2:
 301:Generated_Source\PSoC4/CapSense_SensingCSX_LL.c ****     #if (0u != CapSense_CSX_GANGED_SNS_EN)
 1266              		.loc 1 301 0
 1267              		.cfi_startproc
 1268 0000 10B5     		push	{r4, lr}
 1269              		.cfi_def_cfa_offset 8
 1270              		.cfi_offset 4, -8
 1271              		.cfi_offset 14, -4
 306:Generated_Source\PSoC4/CapSense_SensingCSX_LL.c ****     {
 1272              		.loc 1 306 0
 1273 0002 074B     		ldr	r3, .L54
 1274 0004 1B8A     		ldrh	r3, [r3, #16]
 1275 0006 002B     		cmp	r3, #0
 1276 0008 08D0     		beq	.L52
 345:Generated_Source\PSoC4/CapSense_SensingCSX_LL.c ****             CapSense_CSXDisconnectRx(CapSense_curRxIOPtr);
 1277              		.loc 1 345 0
 1278 000a 054C     		ldr	r4, .L54
 1279 000c E068     		ldr	r0, [r4, #12]
 1280 000e FFF7FEFF 		bl	CapSense_CSXDisconnectTx
 1281              	.LVL110:
 346:Generated_Source\PSoC4/CapSense_SensingCSX_LL.c ****         #endif
 1282              		.loc 1 346 0
 1283 0012 A068     		ldr	r0, [r4, #8]
 1284 0014 FFF7FEFF 		bl	CapSense_CSXDisconnectRx
 1285              	.LVL111:
 348:Generated_Source\PSoC4/CapSense_SensingCSX_LL.c ****     }
 1286              		.loc 1 348 0
 1287 0018 0023     		mov	r3, #0
 1288 001a 2382     		strh	r3, [r4, #16]
 1289              	.L52:
 350:Generated_Source\PSoC4/CapSense_SensingCSX_LL.c **** 
 1290              		.loc 1 350 0
 1291              		@ sp needed
 1292 001c 10BD     		pop	{r4, pc}
 1293              	.L55:
 1294 001e C046     		.align	2
ARM GAS  C:\Users\TB1014~1\AppData\Local\Temp\ccLG6s4V.s 			page 56


 1295              	.L54:
 1296 0020 00000000 		.word	.LANCHOR0
 1297              		.cfi_endproc
 1298              	.LFE2:
 1299              		.size	CapSense_CSXElectrodeCheck, .-CapSense_CSXElectrodeCheck
 1300              		.section	.text.CapSense_CSXSetupWidget,"ax",%progbits
 1301              		.align	2
 1302              		.global	CapSense_CSXSetupWidget
 1303              		.code	16
 1304              		.thumb_func
 1305              		.type	CapSense_CSXSetupWidget, %function
 1306              	CapSense_CSXSetupWidget:
 1307              	.LFB3:
 394:Generated_Source\PSoC4/CapSense_SensingCSX_LL.c ****     /* variable to access widget details    */
 1308              		.loc 1 394 0
 1309              		.cfi_startproc
 1310              	.LVL112:
 1311 0000 38B5     		push	{r3, r4, r5, lr}
 1312              		.cfi_def_cfa_offset 16
 1313              		.cfi_offset 3, -16
 1314              		.cfi_offset 4, -12
 1315              		.cfi_offset 5, -8
 1316              		.cfi_offset 14, -4
 1317 0002 041C     		mov	r4, r0
 406:Generated_Source\PSoC4/CapSense_SensingCSX_LL.c ****     #endif /* ((CapSense_ENABLE == CapSense_CSD_CSX_EN) || \
 1318              		.loc 1 406 0
 1319 0004 0220     		mov	r0, #2
 1320              	.LVL113:
 1321 0006 FFF7FEFF 		bl	CapSense_SsSwitchSensingMode
 1322              	.LVL114:
 413:Generated_Source\PSoC4/CapSense_SensingCSX_LL.c **** 
 1323              		.loc 1 413 0
 1324 000a FFF7FEFF 		bl	CapSense_CSXElectrodeCheck
 1325              	.LVL115:
 416:Generated_Source\PSoC4/CapSense_SensingCSX_LL.c **** 
 1326              		.loc 1 416 0
 1327 000e E2B2     		uxtb	r2, r4
 1328 0010 104B     		ldr	r3, .L57
 1329 0012 1A70     		strb	r2, [r3]
 445:Generated_Source\PSoC4/CapSense_SensingCSX_LL.c **** 
 1330              		.loc 1 445 0
 1331 0014 A300     		lsl	r3, r4, #2
 1332 0016 1C19     		add	r4, r3, r4
 1333              	.LVL116:
 1334 0018 E400     		lsl	r4, r4, #3
 1335 001a 0F4B     		ldr	r3, .L57+4
 1336 001c E418     		add	r4, r4, r3
 1337 001e 0F4B     		ldr	r3, .L57+8
 1338 0020 1C60     		str	r4, [r3]
 447:Generated_Source\PSoC4/CapSense_SensingCSX_LL.c **** 
 1339              		.loc 1 447 0
 1340 0022 6568     		ldr	r5, [r4, #4]
 1341              	.LVL117:
 452:Generated_Source\PSoC4/CapSense_SensingCSX_LL.c ****         #endif /* (0u != CapSense_CSX_COMMON_TX_CLK_EN) */
 1342              		.loc 1 452 0
 1343 0024 EC7A     		ldrb	r4, [r5, #11]
 1344              	.LVL118:
ARM GAS  C:\Users\TB1014~1\AppData\Local\Temp\ccLG6s4V.s 			page 57


 455:Generated_Source\PSoC4/CapSense_SensingCSX_LL.c ****         CapSense_csxScanPeriod  = CapSense_SsCalcCsxScanPeriod(curRamWdgtBasePtr);
 1345              		.loc 1 455 0
 1346 0026 2A88     		ldrh	r2, [r5]
 1347 0028 0D4B     		ldr	r3, .L57+12
 1348 002a 1A60     		str	r2, [r3]
 456:Generated_Source\PSoC4/CapSense_SensingCSX_LL.c **** 
 1349              		.loc 1 456 0
 1350 002c 281C     		mov	r0, r5
 1351 002e FFF7FEFF 		bl	CapSense_SsCalcCsxScanPeriod
 1352              	.LVL119:
 1353 0032 0C4B     		ldr	r3, .L57+16
 1354 0034 1880     		strh	r0, [r3]
 458:Generated_Source\PSoC4/CapSense_SensingCSX_LL.c **** 
 1355              		.loc 1 458 0
 1356 0036 2A7B     		ldrb	r2, [r5, #12]
 1357              	.LVL120:
 460:Generated_Source\PSoC4/CapSense_SensingCSX_LL.c ****         tmpRegVal = (tmpRegVal << CapSense_SENSE_PERIOD_LFSR_SIZE_SHIFT) | snsClkVal;
 1358              		.loc 1 460 0
 1359 0038 013C     		sub	r4, r4, #1
 1360              	.LVL121:
 1361 003a 2405     		lsl	r4, r4, #20
 1362              	.LVL122:
 1363 003c 230D     		lsr	r3, r4, #20
 1364              	.LVL123:
 461:Generated_Source\PSoC4/CapSense_SensingCSX_LL.c ****         CY_SET_REG32(CapSense_SENSE_PERIOD_PTR, tmpRegVal);
 1365              		.loc 1 461 0
 1366 003e 1404     		lsl	r4, r2, #16
 1367 0040 1C43     		orr	r4, r3
 1368              	.LVL124:
 462:Generated_Source\PSoC4/CapSense_SensingCSX_LL.c ****         CapSense_SsSetModClkClockDivider((uint32)CapSense_dsRam.modCsxClk);
 1369              		.loc 1 462 0
 1370 0042 094B     		ldr	r3, .L57+20
 1371              	.LVL125:
 1372 0044 1C60     		str	r4, [r3]
 463:Generated_Source\PSoC4/CapSense_SensingCSX_LL.c ****     #endif /* (CapSense_DISABLE == CapSense_CSDV2) */
 1373              		.loc 1 463 0
 1374 0046 2123     		mov	r3, #33
 1375 0048 084A     		ldr	r2, .L57+24
 1376 004a D05C     		ldrb	r0, [r2, r3]
 1377 004c FFF7FEFF 		bl	CapSense_SsSetModClkClockDivider
 1378              	.LVL126:
 465:Generated_Source\PSoC4/CapSense_SensingCSX_LL.c **** 
 1379              		.loc 1 465 0
 1380              		@ sp needed
 1381              	.LVL127:
 1382              	.LVL128:
 1383 0050 38BD     		pop	{r3, r4, r5, pc}
 1384              	.L58:
 1385 0052 C046     		.align	2
 1386              	.L57:
 1387 0054 00000000 		.word	CapSense_widgetIndex
 1388 0058 00000000 		.word	CapSense_dsFlash
 1389 005c 00000000 		.word	CapSense_curFlashWdgtPtr
 1390 0060 14030B40 		.word	1074463508
 1391 0064 00000000 		.word	.LANCHOR0
 1392 0068 00020B40 		.word	1074463232
 1393 006c 00000000 		.word	CapSense_dsRam
ARM GAS  C:\Users\TB1014~1\AppData\Local\Temp\ccLG6s4V.s 			page 58


 1394              		.cfi_endproc
 1395              	.LFE3:
 1396              		.size	CapSense_CSXSetupWidget, .-CapSense_CSXSetupWidget
 1397              		.global	__aeabi_uidivmod
 1398              		.section	.text.CapSense_CSXSetupWidgetExt,"ax",%progbits
 1399              		.align	2
 1400              		.global	CapSense_CSXSetupWidgetExt
 1401              		.code	16
 1402              		.thumb_func
 1403              		.type	CapSense_CSXSetupWidgetExt, %function
 1404              	CapSense_CSXSetupWidgetExt:
 1405              	.LFB4:
 507:Generated_Source\PSoC4/CapSense_SensingCSX_LL.c ****     uint32 txIndex;
 1406              		.loc 1 507 0
 1407              		.cfi_startproc
 1408              	.LVL129:
 1409 0000 F8B5     		push	{r3, r4, r5, r6, r7, lr}
 1410              		.cfi_def_cfa_offset 24
 1411              		.cfi_offset 3, -24
 1412              		.cfi_offset 4, -20
 1413              		.cfi_offset 5, -16
 1414              		.cfi_offset 6, -12
 1415              		.cfi_offset 7, -8
 1416              		.cfi_offset 14, -4
 1417 0002 0C1C     		mov	r4, r1
 515:Generated_Source\PSoC4/CapSense_SensingCSX_LL.c **** 
 1418              		.loc 1 515 0
 1419 0004 FFF7FEFF 		bl	CapSense_CSXSetupWidget
 1420              	.LVL130:
 518:Generated_Source\PSoC4/CapSense_SensingCSX_LL.c ****     CapSense_curRamSnsPtr = &CapSense_curRamSnsPtr[snsIndex];
 1421              		.loc 1 518 0
 1422 0008 164B     		ldr	r3, .L60
 1423 000a 1D68     		ldr	r5, [r3]
 519:Generated_Source\PSoC4/CapSense_SensingCSX_LL.c **** 
 1424              		.loc 1 519 0
 1425 000c A300     		lsl	r3, r4, #2
 1426 000e 1B19     		add	r3, r3, r4
 1427 0010 5B00     		lsl	r3, r3, #1
 1428 0012 AA68     		ldr	r2, [r5, #8]
 1429 0014 9446     		mov	ip, r2
 1430 0016 6344     		add	r3, r3, ip
 1431 0018 134A     		ldr	r2, .L60+4
 1432 001a 1360     		str	r3, [r2]
 524:Generated_Source\PSoC4/CapSense_SensingCSX_LL.c ****     txIndex = snsIndex % CapSense_curFlashWdgtPtr->numRows;
 1433              		.loc 1 524 0
 1434 001c EF7E     		ldrb	r7, [r5, #27]
 1435 001e 201C     		mov	r0, r4
 1436 0020 391C     		mov	r1, r7
 1437 0022 FFF7FEFF 		bl	__aeabi_uidiv
 1438              	.LVL131:
 1439 0026 061C     		mov	r6, r0
 1440              	.LVL132:
 525:Generated_Source\PSoC4/CapSense_SensingCSX_LL.c **** 
 1441              		.loc 1 525 0
 1442 0028 201C     		mov	r0, r4
 1443              	.LVL133:
 1444 002a 391C     		mov	r1, r7
ARM GAS  C:\Users\TB1014~1\AppData\Local\Temp\ccLG6s4V.s 			page 59


 1445 002c FFF7FEFF 		bl	__aeabi_uidivmod
 1446              	.LVL134:
 571:Generated_Source\PSoC4/CapSense_SensingCSX_LL.c ****             CapSense_curRxIOPtr = &CapSense_curRxIOPtr[rxIndex];
 1447              		.loc 1 571 0
 1448 0030 2A68     		ldr	r2, [r5]
 1449 0032 0E4C     		ldr	r4, .L60+8
 1450              	.LVL135:
 572:Generated_Source\PSoC4/CapSense_SensingCSX_LL.c **** 
 1451              		.loc 1 572 0
 1452 0034 F300     		lsl	r3, r6, #3
 1453 0036 9B1B     		sub	r3, r3, r6
 1454 0038 9B00     		lsl	r3, r3, #2
 1455 003a D318     		add	r3, r2, r3
 1456 003c A360     		str	r3, [r4, #8]
 574:Generated_Source\PSoC4/CapSense_SensingCSX_LL.c ****             CapSense_curTxIOPtr = &CapSense_curTxIOPtr[(CapSense_curFlashWdgtPtr->numCols + txIndex
 1457              		.loc 1 574 0
 1458 003e E260     		str	r2, [r4, #12]
 575:Generated_Source\PSoC4/CapSense_SensingCSX_LL.c **** 
 1459              		.loc 1 575 0
 1460 0040 A87E     		ldrb	r0, [r5, #26]
 1461 0042 4018     		add	r0, r0, r1
 1462 0044 C300     		lsl	r3, r0, #3
 1463 0046 181A     		sub	r0, r3, r0
 1464 0048 8000     		lsl	r0, r0, #2
 1465 004a 1018     		add	r0, r2, r0
 1466 004c E060     		str	r0, [r4, #12]
 578:Generated_Source\PSoC4/CapSense_SensingCSX_LL.c ****             CapSense_CSXConnectRx(CapSense_curRxIOPtr);
 1467              		.loc 1 578 0
 1468 004e FFF7FEFF 		bl	CapSense_CSXConnectTx
 1469              	.LVL136:
 579:Generated_Source\PSoC4/CapSense_SensingCSX_LL.c ****             CapSense_eleCsxDisconnectFlag = CapSense_DISCONNECT_IO_FLAG;
 1470              		.loc 1 579 0
 1471 0052 A068     		ldr	r0, [r4, #8]
 1472 0054 FFF7FEFF 		bl	CapSense_CSXConnectRx
 1473              	.LVL137:
 580:Generated_Source\PSoC4/CapSense_SensingCSX_LL.c **** 
 1474              		.loc 1 580 0
 1475 0058 0123     		mov	r3, #1
 1476 005a 2382     		strh	r3, [r4, #16]
 583:Generated_Source\PSoC4/CapSense_SensingCSX_LL.c ****         }
 1477              		.loc 1 583 0
 1478 005c 044A     		ldr	r2, .L60+12
 1479 005e 054B     		ldr	r3, .L60+16
 1480 0060 1A60     		str	r2, [r3]
 585:Generated_Source\PSoC4/CapSense_SensingCSX_LL.c **** 
 1481              		.loc 1 585 0
 1482              		@ sp needed
 1483              	.LVL138:
 1484 0062 F8BD     		pop	{r3, r4, r5, r6, r7, pc}
 1485              	.L61:
 1486              		.align	2
 1487              	.L60:
 1488 0064 00000000 		.word	CapSense_curFlashWdgtPtr
 1489 0068 00000000 		.word	CapSense_curRamSnsPtr
 1490 006c 00000000 		.word	.LANCHOR0
 1491 0070 00000000 		.word	CapSense_SsCSXPostSingleScan
 1492 0074 00000000 		.word	.LANCHOR1
ARM GAS  C:\Users\TB1014~1\AppData\Local\Temp\ccLG6s4V.s 			page 60


 1493              		.cfi_endproc
 1494              	.LFE4:
 1495              		.size	CapSense_CSXSetupWidgetExt, .-CapSense_CSXSetupWidgetExt
 1496              		.section	.text.CapSense_SsCSXGetTxClkDivider,"ax",%progbits
 1497              		.align	2
 1498              		.global	CapSense_SsCSXGetTxClkDivider
 1499              		.code	16
 1500              		.thumb_func
 1501              		.type	CapSense_SsCSXGetTxClkDivider, %function
 1502              	CapSense_SsCSXGetTxClkDivider:
 1503              	.LFB15:
1430:Generated_Source\PSoC4/CapSense_SensingCSX_LL.c ****     uint32 retVal;
 1504              		.loc 1 1430 0
 1505              		.cfi_startproc
 1506              	.LVL139:
1437:Generated_Source\PSoC4/CapSense_SensingCSX_LL.c ****         CapSense_dsFlash.wdgtArray[wdgtIndex].ptr2WdgtRam;
 1507              		.loc 1 1437 0
 1508 0000 8300     		lsl	r3, r0, #2
 1509 0002 1818     		add	r0, r3, r0
 1510              	.LVL140:
 1511 0004 C000     		lsl	r0, r0, #3
 1512 0006 024B     		ldr	r3, .L63
 1513 0008 1818     		add	r0, r3, r0
 1514 000a 4368     		ldr	r3, [r0, #4]
 1515              	.LVL141:
1440:Generated_Source\PSoC4/CapSense_SensingCSX_LL.c ****     #else
 1516              		.loc 1 1440 0
 1517 000c D87A     		ldrb	r0, [r3, #11]
 1518              	.LVL142:
1451:Generated_Source\PSoC4/CapSense_SensingCSX_LL.c **** 
 1519              		.loc 1 1451 0
 1520              		@ sp needed
 1521 000e 7047     		bx	lr
 1522              	.L64:
 1523              		.align	2
 1524              	.L63:
 1525 0010 00000000 		.word	CapSense_dsFlash
 1526              		.cfi_endproc
 1527              	.LFE15:
 1528              		.size	CapSense_SsCSXGetTxClkDivider, .-CapSense_SsCSXGetTxClkDivider
 1529              		.global	CapSense_CSXPostScanApiPtr
 1530              		.global	CapSense_resamplingCyclesCnt
 1531              		.global	CapSense_csxRawCount
 1532              		.global	CapSense_csxScanPeriod
 1533              		.data
 1534              		.align	2
 1535              		.set	.LANCHOR1,. + 0
 1536              		.type	CapSense_CSXPostScanApiPtr, %object
 1537              		.size	CapSense_CSXPostScanApiPtr, 4
 1538              	CapSense_CSXPostScanApiPtr:
 1539 0000 00000000 		.word	CapSense_SsCSXPostMultiScan
 1540              		.type	CapSense_resamplingCyclesCnt, %object
 1541              		.size	CapSense_resamplingCyclesCnt, 4
 1542              	CapSense_resamplingCyclesCnt:
 1543 0004 01000000 		.word	1
 1544              		.bss
 1545              		.align	2
ARM GAS  C:\Users\TB1014~1\AppData\Local\Temp\ccLG6s4V.s 			page 61


 1546              		.set	.LANCHOR0,. + 0
 1547              		.type	CapSense_csxScanPeriod, %object
 1548              		.size	CapSense_csxScanPeriod, 2
 1549              	CapSense_csxScanPeriod:
 1550 0000 0000     		.space	2
 1551              		.type	CapSense_csxRawCount, %object
 1552              		.size	CapSense_csxRawCount, 2
 1553              	CapSense_csxRawCount:
 1554 0002 0000     		.space	2
 1555              		.type	CapSense_curWdgtTotalTx, %object
 1556              		.size	CapSense_curWdgtTotalTx, 2
 1557              	CapSense_curWdgtTotalTx:
 1558 0004 0000     		.space	2
 1559              		.type	CapSense_curWdgtTotalRx, %object
 1560              		.size	CapSense_curWdgtTotalRx, 2
 1561              	CapSense_curWdgtTotalRx:
 1562 0006 0000     		.space	2
 1563              		.type	CapSense_curRxIOPtr, %object
 1564              		.size	CapSense_curRxIOPtr, 4
 1565              	CapSense_curRxIOPtr:
 1566 0008 00000000 		.space	4
 1567              		.type	CapSense_curTxIOPtr, %object
 1568              		.size	CapSense_curTxIOPtr, 4
 1569              	CapSense_curTxIOPtr:
 1570 000c 00000000 		.space	4
 1571              		.type	CapSense_eleCsxDisconnectFlag, %object
 1572              		.size	CapSense_eleCsxDisconnectFlag, 2
 1573              	CapSense_eleCsxDisconnectFlag:
 1574 0010 0000     		.space	2
 1575 0012 0000     		.text
 1576              	.Letext0:
 1577              		.file 2 "Generated_Source\\PSoC4/cytypes.h"
 1578              		.file 3 "Generated_Source\\PSoC4\\CapSense_Configuration.h"
 1579              		.file 4 "Generated_Source\\PSoC4\\CapSense_Structure.h"
 1580              		.file 5 "Generated_Source\\PSoC4\\CapSense_Sensing.h"
 1581              		.file 6 "Generated_Source\\PSoC4\\CyLib.h"
 1582              		.section	.debug_info,"",%progbits
 1583              	.Ldebug_info0:
 1584 0000 350F0000 		.4byte	0xf35
 1585 0004 0400     		.2byte	0x4
 1586 0006 00000000 		.4byte	.Ldebug_abbrev0
 1587 000a 04       		.byte	0x4
 1588 000b 01       		.uleb128 0x1
 1589 000c 19000000 		.4byte	.LASF170
 1590 0010 01       		.byte	0x1
 1591 0011 60080000 		.4byte	.LASF171
 1592 0015 C9060000 		.4byte	.LASF172
 1593 0019 00000000 		.4byte	.Ldebug_ranges0+0
 1594 001d 00000000 		.4byte	0
 1595 0021 00000000 		.4byte	.Ldebug_line0
 1596 0025 02       		.uleb128 0x2
 1597 0026 01       		.byte	0x1
 1598 0027 06       		.byte	0x6
 1599 0028 D20A0000 		.4byte	.LASF0
 1600 002c 02       		.uleb128 0x2
 1601 002d 01       		.byte	0x1
 1602 002e 08       		.byte	0x8
ARM GAS  C:\Users\TB1014~1\AppData\Local\Temp\ccLG6s4V.s 			page 62


 1603 002f 93090000 		.4byte	.LASF1
 1604 0033 02       		.uleb128 0x2
 1605 0034 02       		.byte	0x2
 1606 0035 05       		.byte	0x5
 1607 0036 BA070000 		.4byte	.LASF2
 1608 003a 02       		.uleb128 0x2
 1609 003b 02       		.byte	0x2
 1610 003c 07       		.byte	0x7
 1611 003d FA0A0000 		.4byte	.LASF3
 1612 0041 02       		.uleb128 0x2
 1613 0042 04       		.byte	0x4
 1614 0043 05       		.byte	0x5
 1615 0044 D8070000 		.4byte	.LASF4
 1616 0048 02       		.uleb128 0x2
 1617 0049 04       		.byte	0x4
 1618 004a 07       		.byte	0x7
 1619 004b 01090000 		.4byte	.LASF5
 1620 004f 02       		.uleb128 0x2
 1621 0050 08       		.byte	0x8
 1622 0051 05       		.byte	0x5
 1623 0052 AA040000 		.4byte	.LASF6
 1624 0056 02       		.uleb128 0x2
 1625 0057 08       		.byte	0x8
 1626 0058 07       		.byte	0x7
 1627 0059 B2020000 		.4byte	.LASF7
 1628 005d 03       		.uleb128 0x3
 1629 005e 04       		.byte	0x4
 1630 005f 05       		.byte	0x5
 1631 0060 696E7400 		.ascii	"int\000"
 1632 0064 02       		.uleb128 0x2
 1633 0065 04       		.byte	0x4
 1634 0066 07       		.byte	0x7
 1635 0067 56010000 		.4byte	.LASF8
 1636 006b 04       		.uleb128 0x4
 1637 006c 4A0B0000 		.4byte	.LASF9
 1638 0070 02       		.byte	0x2
 1639 0071 B901     		.2byte	0x1b9
 1640 0073 2C000000 		.4byte	0x2c
 1641 0077 04       		.uleb128 0x4
 1642 0078 40040000 		.4byte	.LASF10
 1643 007c 02       		.byte	0x2
 1644 007d BA01     		.2byte	0x1ba
 1645 007f 3A000000 		.4byte	0x3a
 1646 0083 04       		.uleb128 0x4
 1647 0084 C6050000 		.4byte	.LASF11
 1648 0088 02       		.byte	0x2
 1649 0089 BB01     		.2byte	0x1bb
 1650 008b 48000000 		.4byte	0x48
 1651 008f 02       		.uleb128 0x2
 1652 0090 04       		.byte	0x4
 1653 0091 04       		.byte	0x4
 1654 0092 6E020000 		.4byte	.LASF12
 1655 0096 02       		.uleb128 0x2
 1656 0097 08       		.byte	0x8
 1657 0098 04       		.byte	0x4
 1658 0099 500B0000 		.4byte	.LASF13
 1659 009d 02       		.uleb128 0x2
ARM GAS  C:\Users\TB1014~1\AppData\Local\Temp\ccLG6s4V.s 			page 63


 1660 009e 01       		.byte	0x1
 1661 009f 08       		.byte	0x8
 1662 00a0 FA030000 		.4byte	.LASF14
 1663 00a4 04       		.uleb128 0x4
 1664 00a5 8A090000 		.4byte	.LASF15
 1665 00a9 02       		.byte	0x2
 1666 00aa 5B02     		.2byte	0x25b
 1667 00ac 48000000 		.4byte	0x48
 1668 00b0 05       		.uleb128 0x5
 1669 00b1 6B000000 		.4byte	0x6b
 1670 00b5 05       		.uleb128 0x5
 1671 00b6 77000000 		.4byte	0x77
 1672 00ba 04       		.uleb128 0x4
 1673 00bb 88060000 		.4byte	.LASF16
 1674 00bf 02       		.byte	0x2
 1675 00c0 6502     		.2byte	0x265
 1676 00c2 C6000000 		.4byte	0xc6
 1677 00c6 05       		.uleb128 0x5
 1678 00c7 83000000 		.4byte	0x83
 1679 00cb 04       		.uleb128 0x4
 1680 00cc 6D050000 		.4byte	.LASF17
 1681 00d0 02       		.byte	0x2
 1682 00d1 7502     		.2byte	0x275
 1683 00d3 D7000000 		.4byte	0xd7
 1684 00d7 06       		.uleb128 0x6
 1685 00d8 04       		.byte	0x4
 1686 00d9 DD000000 		.4byte	0xdd
 1687 00dd 07       		.uleb128 0x7
 1688 00de 02       		.uleb128 0x2
 1689 00df 04       		.byte	0x4
 1690 00e0 07       		.byte	0x7
 1691 00e1 F0080000 		.4byte	.LASF18
 1692 00e5 08       		.uleb128 0x8
 1693 00e6 04       		.byte	0x4
 1694 00e7 09       		.uleb128 0x9
 1695 00e8 050A0000 		.4byte	.LASF19
 1696 00ec 03       		.byte	0x3
 1697 00ed FD       		.byte	0xfd
 1698 00ee 77000000 		.4byte	0x77
 1699 00f2 04       		.uleb128 0x4
 1700 00f3 65040000 		.4byte	.LASF20
 1701 00f7 03       		.byte	0x3
 1702 00f8 0101     		.2byte	0x101
 1703 00fa 6B000000 		.4byte	0x6b
 1704 00fe 0A       		.uleb128 0xa
 1705 00ff 6B000000 		.4byte	0x6b
 1706 0103 06       		.uleb128 0x6
 1707 0104 04       		.byte	0x4
 1708 0105 6B000000 		.4byte	0x6b
 1709 0109 0B       		.uleb128 0xb
 1710 010a 01       		.byte	0x1
 1711 010b 04       		.byte	0x4
 1712 010c 5D       		.byte	0x5d
 1713 010d 2A010000 		.4byte	0x12a
 1714 0111 0C       		.uleb128 0xc
 1715 0112 41010000 		.4byte	.LASF21
 1716 0116 00       		.sleb128 0
ARM GAS  C:\Users\TB1014~1\AppData\Local\Temp\ccLG6s4V.s 			page 64


 1717 0117 0C       		.uleb128 0xc
 1718 0118 D4080000 		.4byte	.LASF22
 1719 011c 01       		.sleb128 1
 1720 011d 0C       		.uleb128 0xc
 1721 011e 17080000 		.4byte	.LASF23
 1722 0122 02       		.sleb128 2
 1723 0123 0C       		.uleb128 0xc
 1724 0124 1D0A0000 		.4byte	.LASF24
 1725 0128 03       		.sleb128 3
 1726 0129 00       		.byte	0
 1727 012a 09       		.uleb128 0x9
 1728 012b 80040000 		.4byte	.LASF25
 1729 012f 04       		.byte	0x4
 1730 0130 62       		.byte	0x62
 1731 0131 09010000 		.4byte	0x109
 1732 0135 0D       		.uleb128 0xd
 1733 0136 12       		.byte	0x12
 1734 0137 04       		.byte	0x4
 1735 0138 7C       		.byte	0x7c
 1736 0139 DA010000 		.4byte	0x1da
 1737 013d 0E       		.uleb128 0xe
 1738 013e 47040000 		.4byte	.LASF26
 1739 0142 04       		.byte	0x4
 1740 0143 82       		.byte	0x82
 1741 0144 77000000 		.4byte	0x77
 1742 0148 00       		.byte	0
 1743 0149 0E       		.uleb128 0xe
 1744 014a 4C090000 		.4byte	.LASF27
 1745 014e 04       		.byte	0x4
 1746 014f 87       		.byte	0x87
 1747 0150 E7000000 		.4byte	0xe7
 1748 0154 02       		.byte	0x2
 1749 0155 0E       		.uleb128 0xe
 1750 0156 F2030000 		.4byte	.LASF28
 1751 015a 04       		.byte	0x4
 1752 015b 8C       		.byte	0x8c
 1753 015c 6B000000 		.4byte	0x6b
 1754 0160 04       		.byte	0x4
 1755 0161 0E       		.uleb128 0xe
 1756 0162 59050000 		.4byte	.LASF29
 1757 0166 04       		.byte	0x4
 1758 0167 91       		.byte	0x91
 1759 0168 6B000000 		.4byte	0x6b
 1760 016c 05       		.byte	0x5
 1761 016d 0E       		.uleb128 0xe
 1762 016e 78030000 		.4byte	.LASF30
 1763 0172 04       		.byte	0x4
 1764 0173 96       		.byte	0x96
 1765 0174 6B000000 		.4byte	0x6b
 1766 0178 06       		.byte	0x6
 1767 0179 0E       		.uleb128 0xe
 1768 017a D9040000 		.4byte	.LASF31
 1769 017e 04       		.byte	0x4
 1770 017f 9B       		.byte	0x9b
 1771 0180 6B000000 		.4byte	0x6b
 1772 0184 07       		.byte	0x7
 1773 0185 0E       		.uleb128 0xe
ARM GAS  C:\Users\TB1014~1\AppData\Local\Temp\ccLG6s4V.s 			page 65


 1774 0186 9C030000 		.4byte	.LASF32
 1775 018a 04       		.byte	0x4
 1776 018b A1       		.byte	0xa1
 1777 018c F2000000 		.4byte	0xf2
 1778 0190 08       		.byte	0x8
 1779 0191 0E       		.uleb128 0xe
 1780 0192 3D030000 		.4byte	.LASF33
 1781 0196 04       		.byte	0x4
 1782 0197 A6       		.byte	0xa6
 1783 0198 6B000000 		.4byte	0x6b
 1784 019c 09       		.byte	0x9
 1785 019d 0E       		.uleb128 0xe
 1786 019e 1A090000 		.4byte	.LASF34
 1787 01a2 04       		.byte	0x4
 1788 01a3 AD       		.byte	0xad
 1789 01a4 DA010000 		.4byte	0x1da
 1790 01a8 0A       		.byte	0xa
 1791 01a9 0E       		.uleb128 0xe
 1792 01aa 810A0000 		.4byte	.LASF35
 1793 01ae 04       		.byte	0x4
 1794 01af B4       		.byte	0xb4
 1795 01b0 6B000000 		.4byte	0x6b
 1796 01b4 0B       		.byte	0xb
 1797 01b5 0E       		.uleb128 0xe
 1798 01b6 6A070000 		.4byte	.LASF36
 1799 01ba 04       		.byte	0x4
 1800 01bb B9       		.byte	0xb9
 1801 01bc 6B000000 		.4byte	0x6b
 1802 01c0 0C       		.byte	0xc
 1803 01c1 0E       		.uleb128 0xe
 1804 01c2 A1080000 		.4byte	.LASF37
 1805 01c6 04       		.byte	0x4
 1806 01c7 BF       		.byte	0xbf
 1807 01c8 77000000 		.4byte	0x77
 1808 01cc 0E       		.byte	0xe
 1809 01cd 0E       		.uleb128 0xe
 1810 01ce 71030000 		.4byte	.LASF38
 1811 01d2 04       		.byte	0x4
 1812 01d3 C4       		.byte	0xc4
 1813 01d4 77000000 		.4byte	0x77
 1814 01d8 10       		.byte	0x10
 1815 01d9 00       		.byte	0
 1816 01da 0F       		.uleb128 0xf
 1817 01db 6B000000 		.4byte	0x6b
 1818 01df EA010000 		.4byte	0x1ea
 1819 01e3 10       		.uleb128 0x10
 1820 01e4 DE000000 		.4byte	0xde
 1821 01e8 00       		.byte	0
 1822 01e9 00       		.byte	0
 1823 01ea 09       		.uleb128 0x9
 1824 01eb 7A050000 		.4byte	.LASF39
 1825 01ef 04       		.byte	0x4
 1826 01f0 C5       		.byte	0xc5
 1827 01f1 35010000 		.4byte	0x135
 1828 01f5 0D       		.uleb128 0xd
 1829 01f6 14       		.byte	0x14
 1830 01f7 04       		.byte	0x4
ARM GAS  C:\Users\TB1014~1\AppData\Local\Temp\ccLG6s4V.s 			page 66


 1831 01f8 CA       		.byte	0xca
 1832 01f9 AB020000 		.4byte	0x2ab
 1833 01fd 0E       		.uleb128 0xe
 1834 01fe 47040000 		.4byte	.LASF26
 1835 0202 04       		.byte	0x4
 1836 0203 D0       		.byte	0xd0
 1837 0204 77000000 		.4byte	0x77
 1838 0208 00       		.byte	0
 1839 0209 0E       		.uleb128 0xe
 1840 020a 4C090000 		.4byte	.LASF27
 1841 020e 04       		.byte	0x4
 1842 020f D5       		.byte	0xd5
 1843 0210 E7000000 		.4byte	0xe7
 1844 0214 02       		.byte	0x2
 1845 0215 0E       		.uleb128 0xe
 1846 0216 F2030000 		.4byte	.LASF28
 1847 021a 04       		.byte	0x4
 1848 021b DA       		.byte	0xda
 1849 021c 6B000000 		.4byte	0x6b
 1850 0220 04       		.byte	0x4
 1851 0221 0E       		.uleb128 0xe
 1852 0222 59050000 		.4byte	.LASF29
 1853 0226 04       		.byte	0x4
 1854 0227 DF       		.byte	0xdf
 1855 0228 6B000000 		.4byte	0x6b
 1856 022c 05       		.byte	0x5
 1857 022d 0E       		.uleb128 0xe
 1858 022e 78030000 		.4byte	.LASF30
 1859 0232 04       		.byte	0x4
 1860 0233 E4       		.byte	0xe4
 1861 0234 6B000000 		.4byte	0x6b
 1862 0238 06       		.byte	0x6
 1863 0239 0E       		.uleb128 0xe
 1864 023a D9040000 		.4byte	.LASF31
 1865 023e 04       		.byte	0x4
 1866 023f E9       		.byte	0xe9
 1867 0240 6B000000 		.4byte	0x6b
 1868 0244 07       		.byte	0x7
 1869 0245 0E       		.uleb128 0xe
 1870 0246 9C030000 		.4byte	.LASF32
 1871 024a 04       		.byte	0x4
 1872 024b EF       		.byte	0xef
 1873 024c F2000000 		.4byte	0xf2
 1874 0250 08       		.byte	0x8
 1875 0251 0E       		.uleb128 0xe
 1876 0252 3D030000 		.4byte	.LASF33
 1877 0256 04       		.byte	0x4
 1878 0257 F4       		.byte	0xf4
 1879 0258 6B000000 		.4byte	0x6b
 1880 025c 09       		.byte	0x9
 1881 025d 0E       		.uleb128 0xe
 1882 025e 1A090000 		.4byte	.LASF34
 1883 0262 04       		.byte	0x4
 1884 0263 FB       		.byte	0xfb
 1885 0264 DA010000 		.4byte	0x1da
 1886 0268 0A       		.byte	0xa
 1887 0269 11       		.uleb128 0x11
ARM GAS  C:\Users\TB1014~1\AppData\Local\Temp\ccLG6s4V.s 			page 67


 1888 026a 810A0000 		.4byte	.LASF35
 1889 026e 04       		.byte	0x4
 1890 026f 0201     		.2byte	0x102
 1891 0271 6B000000 		.4byte	0x6b
 1892 0275 0B       		.byte	0xb
 1893 0276 11       		.uleb128 0x11
 1894 0277 6A070000 		.4byte	.LASF36
 1895 027b 04       		.byte	0x4
 1896 027c 0701     		.2byte	0x107
 1897 027e 6B000000 		.4byte	0x6b
 1898 0282 0C       		.byte	0xc
 1899 0283 11       		.uleb128 0x11
 1900 0284 A1080000 		.4byte	.LASF37
 1901 0288 04       		.byte	0x4
 1902 0289 0D01     		.2byte	0x10d
 1903 028b 77000000 		.4byte	0x77
 1904 028f 0E       		.byte	0xe
 1905 0290 11       		.uleb128 0x11
 1906 0291 71030000 		.4byte	.LASF38
 1907 0295 04       		.byte	0x4
 1908 0296 1201     		.2byte	0x112
 1909 0298 77000000 		.4byte	0x77
 1910 029c 10       		.byte	0x10
 1911 029d 11       		.uleb128 0x11
 1912 029e A10B0000 		.4byte	.LASF40
 1913 02a2 04       		.byte	0x4
 1914 02a3 1701     		.2byte	0x117
 1915 02a5 AB020000 		.4byte	0x2ab
 1916 02a9 12       		.byte	0x12
 1917 02aa 00       		.byte	0
 1918 02ab 0F       		.uleb128 0xf
 1919 02ac 77000000 		.4byte	0x77
 1920 02b0 BB020000 		.4byte	0x2bb
 1921 02b4 10       		.uleb128 0x10
 1922 02b5 DE000000 		.4byte	0xde
 1923 02b9 00       		.byte	0
 1924 02ba 00       		.byte	0
 1925 02bb 04       		.uleb128 0x4
 1926 02bc B6080000 		.4byte	.LASF41
 1927 02c0 04       		.byte	0x4
 1928 02c1 1801     		.2byte	0x118
 1929 02c3 F5010000 		.4byte	0x1f5
 1930 02c7 12       		.uleb128 0x12
 1931 02c8 12       		.byte	0x12
 1932 02c9 04       		.byte	0x4
 1933 02ca 1D01     		.2byte	0x11d
 1934 02cc 7A030000 		.4byte	0x37a
 1935 02d0 11       		.uleb128 0x11
 1936 02d1 47040000 		.4byte	.LASF26
 1937 02d5 04       		.byte	0x4
 1938 02d6 2301     		.2byte	0x123
 1939 02d8 77000000 		.4byte	0x77
 1940 02dc 00       		.byte	0
 1941 02dd 11       		.uleb128 0x11
 1942 02de 4C090000 		.4byte	.LASF27
 1943 02e2 04       		.byte	0x4
 1944 02e3 2801     		.2byte	0x128
ARM GAS  C:\Users\TB1014~1\AppData\Local\Temp\ccLG6s4V.s 			page 68


 1945 02e5 E7000000 		.4byte	0xe7
 1946 02e9 02       		.byte	0x2
 1947 02ea 11       		.uleb128 0x11
 1948 02eb F2030000 		.4byte	.LASF28
 1949 02ef 04       		.byte	0x4
 1950 02f0 2D01     		.2byte	0x12d
 1951 02f2 6B000000 		.4byte	0x6b
 1952 02f6 04       		.byte	0x4
 1953 02f7 11       		.uleb128 0x11
 1954 02f8 59050000 		.4byte	.LASF29
 1955 02fc 04       		.byte	0x4
 1956 02fd 3201     		.2byte	0x132
 1957 02ff 6B000000 		.4byte	0x6b
 1958 0303 05       		.byte	0x5
 1959 0304 11       		.uleb128 0x11
 1960 0305 78030000 		.4byte	.LASF30
 1961 0309 04       		.byte	0x4
 1962 030a 3701     		.2byte	0x137
 1963 030c 6B000000 		.4byte	0x6b
 1964 0310 06       		.byte	0x6
 1965 0311 11       		.uleb128 0x11
 1966 0312 D9040000 		.4byte	.LASF31
 1967 0316 04       		.byte	0x4
 1968 0317 3C01     		.2byte	0x13c
 1969 0319 6B000000 		.4byte	0x6b
 1970 031d 07       		.byte	0x7
 1971 031e 11       		.uleb128 0x11
 1972 031f 9C030000 		.4byte	.LASF32
 1973 0323 04       		.byte	0x4
 1974 0324 4201     		.2byte	0x142
 1975 0326 F2000000 		.4byte	0xf2
 1976 032a 08       		.byte	0x8
 1977 032b 11       		.uleb128 0x11
 1978 032c 3D030000 		.4byte	.LASF33
 1979 0330 04       		.byte	0x4
 1980 0331 4701     		.2byte	0x147
 1981 0333 6B000000 		.4byte	0x6b
 1982 0337 09       		.byte	0x9
 1983 0338 11       		.uleb128 0x11
 1984 0339 1A090000 		.4byte	.LASF34
 1985 033d 04       		.byte	0x4
 1986 033e 4E01     		.2byte	0x14e
 1987 0340 DA010000 		.4byte	0x1da
 1988 0344 0A       		.byte	0xa
 1989 0345 11       		.uleb128 0x11
 1990 0346 810A0000 		.4byte	.LASF35
 1991 034a 04       		.byte	0x4
 1992 034b 5501     		.2byte	0x155
 1993 034d 6B000000 		.4byte	0x6b
 1994 0351 0B       		.byte	0xb
 1995 0352 11       		.uleb128 0x11
 1996 0353 6A070000 		.4byte	.LASF36
 1997 0357 04       		.byte	0x4
 1998 0358 5A01     		.2byte	0x15a
 1999 035a 6B000000 		.4byte	0x6b
 2000 035e 0C       		.byte	0xc
 2001 035f 11       		.uleb128 0x11
ARM GAS  C:\Users\TB1014~1\AppData\Local\Temp\ccLG6s4V.s 			page 69


 2002 0360 A1080000 		.4byte	.LASF37
 2003 0364 04       		.byte	0x4
 2004 0365 6001     		.2byte	0x160
 2005 0367 77000000 		.4byte	0x77
 2006 036b 0E       		.byte	0xe
 2007 036c 11       		.uleb128 0x11
 2008 036d 71030000 		.4byte	.LASF38
 2009 0371 04       		.byte	0x4
 2010 0372 6501     		.2byte	0x165
 2011 0374 77000000 		.4byte	0x77
 2012 0378 10       		.byte	0x10
 2013 0379 00       		.byte	0
 2014 037a 04       		.uleb128 0x4
 2015 037b 6C090000 		.4byte	.LASF42
 2016 037f 04       		.byte	0x4
 2017 0380 6601     		.2byte	0x166
 2018 0382 C7020000 		.4byte	0x2c7
 2019 0386 12       		.uleb128 0x12
 2020 0387 A4       		.byte	0xa4
 2021 0388 04       		.byte	0x4
 2022 0389 6C01     		.2byte	0x16c
 2023 038b 05040000 		.4byte	0x405
 2024 038f 11       		.uleb128 0x11
 2025 0390 420A0000 		.4byte	.LASF43
 2026 0394 04       		.byte	0x4
 2027 0395 7101     		.2byte	0x171
 2028 0397 BB020000 		.4byte	0x2bb
 2029 039b 00       		.byte	0
 2030 039c 11       		.uleb128 0x11
 2031 039d 1D020000 		.4byte	.LASF44
 2032 03a1 04       		.byte	0x4
 2033 03a2 7601     		.2byte	0x176
 2034 03a4 7A030000 		.4byte	0x37a
 2035 03a8 14       		.byte	0x14
 2036 03a9 11       		.uleb128 0x11
 2037 03aa 22020000 		.4byte	.LASF45
 2038 03ae 04       		.byte	0x4
 2039 03af 7B01     		.2byte	0x17b
 2040 03b1 7A030000 		.4byte	0x37a
 2041 03b5 26       		.byte	0x26
 2042 03b6 11       		.uleb128 0x11
 2043 03b7 27020000 		.4byte	.LASF46
 2044 03bb 04       		.byte	0x4
 2045 03bc 8001     		.2byte	0x180
 2046 03be 7A030000 		.4byte	0x37a
 2047 03c2 38       		.byte	0x38
 2048 03c3 11       		.uleb128 0x11
 2049 03c4 2C020000 		.4byte	.LASF47
 2050 03c8 04       		.byte	0x4
 2051 03c9 8501     		.2byte	0x185
 2052 03cb 7A030000 		.4byte	0x37a
 2053 03cf 4A       		.byte	0x4a
 2054 03d0 11       		.uleb128 0x11
 2055 03d1 31020000 		.4byte	.LASF48
 2056 03d5 04       		.byte	0x4
 2057 03d6 8A01     		.2byte	0x18a
 2058 03d8 7A030000 		.4byte	0x37a
ARM GAS  C:\Users\TB1014~1\AppData\Local\Temp\ccLG6s4V.s 			page 70


 2059 03dc 5C       		.byte	0x5c
 2060 03dd 11       		.uleb128 0x11
 2061 03de 36020000 		.4byte	.LASF49
 2062 03e2 04       		.byte	0x4
 2063 03e3 8F01     		.2byte	0x18f
 2064 03e5 7A030000 		.4byte	0x37a
 2065 03e9 6E       		.byte	0x6e
 2066 03ea 11       		.uleb128 0x11
 2067 03eb 3B020000 		.4byte	.LASF50
 2068 03ef 04       		.byte	0x4
 2069 03f0 9401     		.2byte	0x194
 2070 03f2 7A030000 		.4byte	0x37a
 2071 03f6 80       		.byte	0x80
 2072 03f7 11       		.uleb128 0x11
 2073 03f8 58080000 		.4byte	.LASF51
 2074 03fc 04       		.byte	0x4
 2075 03fd 9901     		.2byte	0x199
 2076 03ff 7A030000 		.4byte	0x37a
 2077 0403 92       		.byte	0x92
 2078 0404 00       		.byte	0
 2079 0405 04       		.uleb128 0x4
 2080 0406 01020000 		.4byte	.LASF52
 2081 040a 04       		.byte	0x4
 2082 040b 9A01     		.2byte	0x19a
 2083 040d 86030000 		.4byte	0x386
 2084 0411 12       		.uleb128 0x12
 2085 0412 0A       		.byte	0xa
 2086 0413 04       		.byte	0x4
 2087 0414 A001     		.2byte	0x1a0
 2088 0416 69040000 		.4byte	0x469
 2089 041a 13       		.uleb128 0x13
 2090 041b 72617700 		.ascii	"raw\000"
 2091 041f 04       		.byte	0x4
 2092 0420 A501     		.2byte	0x1a5
 2093 0422 AB020000 		.4byte	0x2ab
 2094 0426 00       		.byte	0
 2095 0427 11       		.uleb128 0x11
 2096 0428 F50A0000 		.4byte	.LASF53
 2097 042c 04       		.byte	0x4
 2098 042d AA01     		.2byte	0x1aa
 2099 042f AB020000 		.4byte	0x2ab
 2100 0433 02       		.byte	0x2
 2101 0434 11       		.uleb128 0x11
 2102 0435 55090000 		.4byte	.LASF54
 2103 0439 04       		.byte	0x4
 2104 043a B001     		.2byte	0x1b0
 2105 043c DA010000 		.4byte	0x1da
 2106 0440 04       		.byte	0x4
 2107 0441 11       		.uleb128 0x11
 2108 0442 EC070000 		.4byte	.LASF55
 2109 0446 04       		.byte	0x4
 2110 0447 B501     		.2byte	0x1b5
 2111 0449 E7000000 		.4byte	0xe7
 2112 044d 06       		.byte	0x6
 2113 044e 11       		.uleb128 0x11
 2114 044f 570B0000 		.4byte	.LASF56
 2115 0453 04       		.byte	0x4
ARM GAS  C:\Users\TB1014~1\AppData\Local\Temp\ccLG6s4V.s 			page 71


 2116 0454 BA01     		.2byte	0x1ba
 2117 0456 69040000 		.4byte	0x469
 2118 045a 08       		.byte	0x8
 2119 045b 11       		.uleb128 0x11
 2120 045c 9B040000 		.4byte	.LASF57
 2121 0460 04       		.byte	0x4
 2122 0461 C001     		.2byte	0x1c0
 2123 0463 DA010000 		.4byte	0x1da
 2124 0467 09       		.byte	0x9
 2125 0468 00       		.byte	0
 2126 0469 0F       		.uleb128 0xf
 2127 046a F2000000 		.4byte	0xf2
 2128 046e 79040000 		.4byte	0x479
 2129 0472 10       		.uleb128 0x10
 2130 0473 DE000000 		.4byte	0xde
 2131 0477 00       		.byte	0
 2132 0478 00       		.byte	0
 2133 0479 04       		.uleb128 0x4
 2134 047a 25030000 		.4byte	.LASF58
 2135 047e 04       		.byte	0x4
 2136 047f C101     		.2byte	0x1c1
 2137 0481 11040000 		.4byte	0x411
 2138 0485 12       		.uleb128 0x12
 2139 0486 96       		.byte	0x96
 2140 0487 04       		.byte	0x4
 2141 0488 C701     		.2byte	0x1c7
 2142 048a 04050000 		.4byte	0x504
 2143 048e 11       		.uleb128 0x11
 2144 048f 420A0000 		.4byte	.LASF43
 2145 0493 04       		.byte	0x4
 2146 0494 CC01     		.2byte	0x1cc
 2147 0496 04050000 		.4byte	0x504
 2148 049a 00       		.byte	0
 2149 049b 11       		.uleb128 0x11
 2150 049c 1D020000 		.4byte	.LASF44
 2151 04a0 04       		.byte	0x4
 2152 04a1 D101     		.2byte	0x1d1
 2153 04a3 14050000 		.4byte	0x514
 2154 04a7 46       		.byte	0x46
 2155 04a8 11       		.uleb128 0x11
 2156 04a9 22020000 		.4byte	.LASF45
 2157 04ad 04       		.byte	0x4
 2158 04ae D601     		.2byte	0x1d6
 2159 04b0 14050000 		.4byte	0x514
 2160 04b4 50       		.byte	0x50
 2161 04b5 11       		.uleb128 0x11
 2162 04b6 27020000 		.4byte	.LASF46
 2163 04ba 04       		.byte	0x4
 2164 04bb DB01     		.2byte	0x1db
 2165 04bd 14050000 		.4byte	0x514
 2166 04c1 5A       		.byte	0x5a
 2167 04c2 11       		.uleb128 0x11
 2168 04c3 2C020000 		.4byte	.LASF47
 2169 04c7 04       		.byte	0x4
 2170 04c8 E001     		.2byte	0x1e0
 2171 04ca 14050000 		.4byte	0x514
 2172 04ce 64       		.byte	0x64
ARM GAS  C:\Users\TB1014~1\AppData\Local\Temp\ccLG6s4V.s 			page 72


 2173 04cf 11       		.uleb128 0x11
 2174 04d0 31020000 		.4byte	.LASF48
 2175 04d4 04       		.byte	0x4
 2176 04d5 E501     		.2byte	0x1e5
 2177 04d7 14050000 		.4byte	0x514
 2178 04db 6E       		.byte	0x6e
 2179 04dc 11       		.uleb128 0x11
 2180 04dd 36020000 		.4byte	.LASF49
 2181 04e1 04       		.byte	0x4
 2182 04e2 EA01     		.2byte	0x1ea
 2183 04e4 14050000 		.4byte	0x514
 2184 04e8 78       		.byte	0x78
 2185 04e9 11       		.uleb128 0x11
 2186 04ea 3B020000 		.4byte	.LASF50
 2187 04ee 04       		.byte	0x4
 2188 04ef EF01     		.2byte	0x1ef
 2189 04f1 14050000 		.4byte	0x514
 2190 04f5 82       		.byte	0x82
 2191 04f6 11       		.uleb128 0x11
 2192 04f7 58080000 		.4byte	.LASF51
 2193 04fb 04       		.byte	0x4
 2194 04fc F401     		.2byte	0x1f4
 2195 04fe 14050000 		.4byte	0x514
 2196 0502 8C       		.byte	0x8c
 2197 0503 00       		.byte	0
 2198 0504 0F       		.uleb128 0xf
 2199 0505 79040000 		.4byte	0x479
 2200 0509 14050000 		.4byte	0x514
 2201 050d 10       		.uleb128 0x10
 2202 050e DE000000 		.4byte	0xde
 2203 0512 06       		.byte	0x6
 2204 0513 00       		.byte	0
 2205 0514 0F       		.uleb128 0xf
 2206 0515 79040000 		.4byte	0x479
 2207 0519 24050000 		.4byte	0x524
 2208 051d 10       		.uleb128 0x10
 2209 051e DE000000 		.4byte	0xde
 2210 0522 00       		.byte	0
 2211 0523 00       		.byte	0
 2212 0524 04       		.uleb128 0x4
 2213 0525 AA0B0000 		.4byte	.LASF59
 2214 0529 04       		.byte	0x4
 2215 052a F501     		.2byte	0x1f5
 2216 052c 85040000 		.4byte	0x485
 2217 0530 14       		.uleb128 0x14
 2218 0531 6401     		.2byte	0x164
 2219 0533 04       		.byte	0x4
 2220 0534 FC01     		.2byte	0x1fc
 2221 0536 1C060000 		.4byte	0x61c
 2222 053a 11       		.uleb128 0x11
 2223 053b A1060000 		.4byte	.LASF60
 2224 053f 04       		.byte	0x4
 2225 0540 0202     		.2byte	0x202
 2226 0542 77000000 		.4byte	0x77
 2227 0546 00       		.byte	0
 2228 0547 11       		.uleb128 0x11
 2229 0548 7A0B0000 		.4byte	.LASF61
ARM GAS  C:\Users\TB1014~1\AppData\Local\Temp\ccLG6s4V.s 			page 73


 2230 054c 04       		.byte	0x4
 2231 054d 0702     		.2byte	0x207
 2232 054f 77000000 		.4byte	0x77
 2233 0553 02       		.byte	0x2
 2234 0554 11       		.uleb128 0x11
 2235 0555 09080000 		.4byte	.LASF62
 2236 0559 04       		.byte	0x4
 2237 055a 0D02     		.2byte	0x20d
 2238 055c 77000000 		.4byte	0x77
 2239 0560 04       		.byte	0x4
 2240 0561 11       		.uleb128 0x11
 2241 0562 8B010000 		.4byte	.LASF63
 2242 0566 04       		.byte	0x4
 2243 0567 1202     		.2byte	0x212
 2244 0569 77000000 		.4byte	0x77
 2245 056d 06       		.byte	0x6
 2246 056e 11       		.uleb128 0x11
 2247 056f 52040000 		.4byte	.LASF64
 2248 0573 04       		.byte	0x4
 2249 0574 1702     		.2byte	0x217
 2250 0576 83000000 		.4byte	0x83
 2251 057a 08       		.byte	0x8
 2252 057b 11       		.uleb128 0x11
 2253 057c E1070000 		.4byte	.LASF65
 2254 0580 04       		.byte	0x4
 2255 0581 1C02     		.2byte	0x21c
 2256 0583 1C060000 		.4byte	0x61c
 2257 0587 0C       		.byte	0xc
 2258 0588 11       		.uleb128 0x11
 2259 0589 AB080000 		.4byte	.LASF66
 2260 058d 04       		.byte	0x4
 2261 058e 2102     		.2byte	0x221
 2262 0590 1C060000 		.4byte	0x61c
 2263 0594 10       		.byte	0x10
 2264 0595 11       		.uleb128 0x11
 2265 0596 60070000 		.4byte	.LASF67
 2266 059a 04       		.byte	0x4
 2267 059b 2F02     		.2byte	0x22f
 2268 059d 2C060000 		.4byte	0x62c
 2269 05a1 14       		.byte	0x14
 2270 05a2 11       		.uleb128 0x11
 2271 05a3 62050000 		.4byte	.LASF68
 2272 05a7 04       		.byte	0x4
 2273 05a8 3402     		.2byte	0x234
 2274 05aa 77000000 		.4byte	0x77
 2275 05ae 1E       		.byte	0x1e
 2276 05af 11       		.uleb128 0x11
 2277 05b0 1B030000 		.4byte	.LASF69
 2278 05b4 04       		.byte	0x4
 2279 05b5 3902     		.2byte	0x239
 2280 05b7 6B000000 		.4byte	0x6b
 2281 05bb 20       		.byte	0x20
 2282 05bc 11       		.uleb128 0x11
 2283 05bd EF090000 		.4byte	.LASF70
 2284 05c1 04       		.byte	0x4
 2285 05c2 3E02     		.2byte	0x23e
 2286 05c4 6B000000 		.4byte	0x6b
ARM GAS  C:\Users\TB1014~1\AppData\Local\Temp\ccLG6s4V.s 			page 74


 2287 05c8 21       		.byte	0x21
 2288 05c9 11       		.uleb128 0x11
 2289 05ca F8040000 		.4byte	.LASF71
 2290 05ce 04       		.byte	0x4
 2291 05cf 4302     		.2byte	0x243
 2292 05d1 05040000 		.4byte	0x405
 2293 05d5 22       		.byte	0x22
 2294 05d6 11       		.uleb128 0x11
 2295 05d7 AA020000 		.4byte	.LASF72
 2296 05db 04       		.byte	0x4
 2297 05dc 4802     		.2byte	0x248
 2298 05de 24050000 		.4byte	0x524
 2299 05e2 C6       		.byte	0xc6
 2300 05e3 15       		.uleb128 0x15
 2301 05e4 31010000 		.4byte	.LASF73
 2302 05e8 04       		.byte	0x4
 2303 05e9 4D02     		.2byte	0x24d
 2304 05eb 6B000000 		.4byte	0x6b
 2305 05ef 5C01     		.2byte	0x15c
 2306 05f1 15       		.uleb128 0x15
 2307 05f2 E2020000 		.4byte	.LASF74
 2308 05f6 04       		.byte	0x4
 2309 05f7 5202     		.2byte	0x252
 2310 05f9 6B000000 		.4byte	0x6b
 2311 05fd 5D01     		.2byte	0x15d
 2312 05ff 15       		.uleb128 0x15
 2313 0600 8E060000 		.4byte	.LASF75
 2314 0604 04       		.byte	0x4
 2315 0605 5702     		.2byte	0x257
 2316 0607 77000000 		.4byte	0x77
 2317 060b 5E01     		.2byte	0x15e
 2318 060d 15       		.uleb128 0x15
 2319 060e 49050000 		.4byte	.LASF76
 2320 0612 04       		.byte	0x4
 2321 0613 5C02     		.2byte	0x25c
 2322 0615 AB020000 		.4byte	0x2ab
 2323 0619 6001     		.2byte	0x160
 2324 061b 00       		.byte	0
 2325 061c 0F       		.uleb128 0xf
 2326 061d 83000000 		.4byte	0x83
 2327 0621 2C060000 		.4byte	0x62c
 2328 0625 10       		.uleb128 0x10
 2329 0626 DE000000 		.4byte	0xde
 2330 062a 00       		.byte	0
 2331 062b 00       		.byte	0
 2332 062c 0F       		.uleb128 0xf
 2333 062d 6B000000 		.4byte	0x6b
 2334 0631 3C060000 		.4byte	0x63c
 2335 0635 10       		.uleb128 0x10
 2336 0636 DE000000 		.4byte	0xde
 2337 063a 08       		.byte	0x8
 2338 063b 00       		.byte	0
 2339 063c 04       		.uleb128 0x4
 2340 063d C4070000 		.4byte	.LASF77
 2341 0641 04       		.byte	0x4
 2342 0642 5D02     		.2byte	0x25d
 2343 0644 30050000 		.4byte	0x530
ARM GAS  C:\Users\TB1014~1\AppData\Local\Temp\ccLG6s4V.s 			page 75


 2344 0648 12       		.uleb128 0x12
 2345 0649 1C       		.byte	0x1c
 2346 064a 04       		.byte	0x4
 2347 064b 6302     		.2byte	0x263
 2348 064d C7060000 		.4byte	0x6c7
 2349 0651 11       		.uleb128 0x11
 2350 0652 A2050000 		.4byte	.LASF78
 2351 0656 04       		.byte	0x4
 2352 0657 6802     		.2byte	0x268
 2353 0659 C7060000 		.4byte	0x6c7
 2354 065d 00       		.byte	0
 2355 065e 11       		.uleb128 0x11
 2356 065f A4040000 		.4byte	.LASF79
 2357 0663 04       		.byte	0x4
 2358 0664 6D02     		.2byte	0x26d
 2359 0666 C7060000 		.4byte	0x6c7
 2360 066a 04       		.byte	0x4
 2361 066b 11       		.uleb128 0x11
 2362 066c 4E030000 		.4byte	.LASF80
 2363 0670 04       		.byte	0x4
 2364 0671 7202     		.2byte	0x272
 2365 0673 C7060000 		.4byte	0x6c7
 2366 0677 08       		.byte	0x8
 2367 0678 11       		.uleb128 0x11
 2368 0679 33080000 		.4byte	.LASF81
 2369 067d 04       		.byte	0x4
 2370 067e 7702     		.2byte	0x277
 2371 0680 C7060000 		.4byte	0x6c7
 2372 0684 0C       		.byte	0xc
 2373 0685 11       		.uleb128 0x11
 2374 0686 500A0000 		.4byte	.LASF82
 2375 068a 04       		.byte	0x4
 2376 068b 7C02     		.2byte	0x27c
 2377 068d 83000000 		.4byte	0x83
 2378 0691 10       		.byte	0x10
 2379 0692 11       		.uleb128 0x11
 2380 0693 F5050000 		.4byte	.LASF83
 2381 0697 04       		.byte	0x4
 2382 0698 8102     		.2byte	0x281
 2383 069a 83000000 		.4byte	0x83
 2384 069e 14       		.byte	0x14
 2385 069f 11       		.uleb128 0x11
 2386 06a0 35040000 		.4byte	.LASF84
 2387 06a4 04       		.byte	0x4
 2388 06a5 8602     		.2byte	0x286
 2389 06a7 6B000000 		.4byte	0x6b
 2390 06ab 18       		.byte	0x18
 2391 06ac 11       		.uleb128 0x11
 2392 06ad F9080000 		.4byte	.LASF85
 2393 06b1 04       		.byte	0x4
 2394 06b2 8B02     		.2byte	0x28b
 2395 06b4 6B000000 		.4byte	0x6b
 2396 06b8 19       		.byte	0x19
 2397 06b9 11       		.uleb128 0x11
 2398 06ba 74020000 		.4byte	.LASF86
 2399 06be 04       		.byte	0x4
 2400 06bf 9002     		.2byte	0x290
ARM GAS  C:\Users\TB1014~1\AppData\Local\Temp\ccLG6s4V.s 			page 76


 2401 06c1 6B000000 		.4byte	0x6b
 2402 06c5 1A       		.byte	0x1a
 2403 06c6 00       		.byte	0
 2404 06c7 06       		.uleb128 0x6
 2405 06c8 04       		.byte	0x4
 2406 06c9 BA000000 		.4byte	0xba
 2407 06cd 04       		.uleb128 0x4
 2408 06ce C9020000 		.4byte	.LASF87
 2409 06d2 04       		.byte	0x4
 2410 06d3 9102     		.2byte	0x291
 2411 06d5 48060000 		.4byte	0x648
 2412 06d9 12       		.uleb128 0x12
 2413 06da 28       		.byte	0x28
 2414 06db 04       		.byte	0x4
 2415 06dc BC02     		.2byte	0x2bc
 2416 06de 99070000 		.4byte	0x799
 2417 06e2 11       		.uleb128 0x11
 2418 06e3 3D0B0000 		.4byte	.LASF88
 2419 06e7 04       		.byte	0x4
 2420 06e8 C502     		.2byte	0x2c5
 2421 06ea 99070000 		.4byte	0x799
 2422 06ee 00       		.byte	0
 2423 06ef 11       		.uleb128 0x11
 2424 06f0 F9090000 		.4byte	.LASF89
 2425 06f4 04       		.byte	0x4
 2426 06f5 CB02     		.2byte	0x2cb
 2427 06f7 E5000000 		.4byte	0xe5
 2428 06fb 04       		.byte	0x4
 2429 06fc 11       		.uleb128 0x11
 2430 06fd AA060000 		.4byte	.LASF90
 2431 0701 04       		.byte	0x4
 2432 0702 D102     		.2byte	0x2d1
 2433 0704 A0070000 		.4byte	0x7a0
 2434 0708 08       		.byte	0x8
 2435 0709 11       		.uleb128 0x11
 2436 070a CD050000 		.4byte	.LASF91
 2437 070e 04       		.byte	0x4
 2438 070f D602     		.2byte	0x2d6
 2439 0711 E5000000 		.4byte	0xe5
 2440 0715 0C       		.byte	0xc
 2441 0716 11       		.uleb128 0x11
 2442 0717 28090000 		.4byte	.LASF92
 2443 071b 04       		.byte	0x4
 2444 071c DD02     		.2byte	0x2dd
 2445 071e 03010000 		.4byte	0x103
 2446 0722 10       		.byte	0x10
 2447 0723 11       		.uleb128 0x11
 2448 0724 D6090000 		.4byte	.LASF93
 2449 0728 04       		.byte	0x4
 2450 0729 E202     		.2byte	0x2e2
 2451 072b 77000000 		.4byte	0x77
 2452 072f 14       		.byte	0x14
 2453 0730 11       		.uleb128 0x11
 2454 0731 DD030000 		.4byte	.LASF94
 2455 0735 04       		.byte	0x4
 2456 0736 E902     		.2byte	0x2e9
 2457 0738 77000000 		.4byte	0x77
ARM GAS  C:\Users\TB1014~1\AppData\Local\Temp\ccLG6s4V.s 			page 77


 2458 073c 16       		.byte	0x16
 2459 073d 11       		.uleb128 0x11
 2460 073e 08030000 		.4byte	.LASF95
 2461 0742 04       		.byte	0x4
 2462 0743 F402     		.2byte	0x2f4
 2463 0745 6B000000 		.4byte	0x6b
 2464 0749 18       		.byte	0x18
 2465 074a 11       		.uleb128 0x11
 2466 074b E3090000 		.4byte	.LASF96
 2467 074f 04       		.byte	0x4
 2468 0750 F902     		.2byte	0x2f9
 2469 0752 6B000000 		.4byte	0x6b
 2470 0756 19       		.byte	0x19
 2471 0757 11       		.uleb128 0x11
 2472 0758 B8040000 		.4byte	.LASF97
 2473 075c 04       		.byte	0x4
 2474 075d 0103     		.2byte	0x301
 2475 075f 6B000000 		.4byte	0x6b
 2476 0763 1A       		.byte	0x1a
 2477 0764 11       		.uleb128 0x11
 2478 0765 3A0A0000 		.4byte	.LASF98
 2479 0769 04       		.byte	0x4
 2480 076a 0803     		.2byte	0x308
 2481 076c 6B000000 		.4byte	0x6b
 2482 0770 1B       		.byte	0x1b
 2483 0771 11       		.uleb128 0x11
 2484 0772 95070000 		.4byte	.LASF99
 2485 0776 04       		.byte	0x4
 2486 0777 0E03     		.2byte	0x30e
 2487 0779 77000000 		.4byte	0x77
 2488 077d 1C       		.byte	0x1c
 2489 077e 11       		.uleb128 0x11
 2490 077f 38090000 		.4byte	.LASF100
 2491 0783 04       		.byte	0x4
 2492 0784 1703     		.2byte	0x317
 2493 0786 83000000 		.4byte	0x83
 2494 078a 20       		.byte	0x20
 2495 078b 11       		.uleb128 0x11
 2496 078c 5D090000 		.4byte	.LASF101
 2497 0790 04       		.byte	0x4
 2498 0791 1C03     		.2byte	0x31c
 2499 0793 E5000000 		.4byte	0xe5
 2500 0797 24       		.byte	0x24
 2501 0798 00       		.byte	0
 2502 0799 06       		.uleb128 0x6
 2503 079a 04       		.byte	0x4
 2504 079b 9F070000 		.4byte	0x79f
 2505 079f 16       		.uleb128 0x16
 2506 07a0 06       		.uleb128 0x6
 2507 07a1 04       		.byte	0x4
 2508 07a2 79040000 		.4byte	0x479
 2509 07a6 04       		.uleb128 0x4
 2510 07a7 83030000 		.4byte	.LASF102
 2511 07ab 04       		.byte	0x4
 2512 07ac 1D03     		.2byte	0x31d
 2513 07ae D9060000 		.4byte	0x6d9
 2514 07b2 14       		.uleb128 0x14
ARM GAS  C:\Users\TB1014~1\AppData\Local\Temp\ccLG6s4V.s 			page 78


 2515 07b3 6801     		.2byte	0x168
 2516 07b5 04       		.byte	0x4
 2517 07b6 2303     		.2byte	0x323
 2518 07b8 CA070000 		.4byte	0x7ca
 2519 07bc 11       		.uleb128 0x11
 2520 07bd C70B0000 		.4byte	.LASF103
 2521 07c1 04       		.byte	0x4
 2522 07c2 2803     		.2byte	0x328
 2523 07c4 CA070000 		.4byte	0x7ca
 2524 07c8 00       		.byte	0
 2525 07c9 00       		.byte	0
 2526 07ca 0F       		.uleb128 0xf
 2527 07cb A6070000 		.4byte	0x7a6
 2528 07cf DA070000 		.4byte	0x7da
 2529 07d3 10       		.uleb128 0x10
 2530 07d4 DE000000 		.4byte	0xde
 2531 07d8 08       		.byte	0x8
 2532 07d9 00       		.byte	0
 2533 07da 04       		.uleb128 0x4
 2534 07db 16050000 		.4byte	.LASF104
 2535 07df 04       		.byte	0x4
 2536 07e0 2903     		.2byte	0x329
 2537 07e2 B2070000 		.4byte	0x7b2
 2538 07e6 17       		.uleb128 0x17
 2539 07e7 C9000000 		.4byte	.LASF173
 2540 07eb 01       		.byte	0x1
 2541 07ec 0D04     		.2byte	0x40d
 2542 07ee 00000000 		.4byte	.LFB8
 2543 07f2 38000000 		.4byte	.LFE8-.LFB8
 2544 07f6 01       		.uleb128 0x1
 2545 07f7 9C       		.byte	0x9c
 2546 07f8 18       		.uleb128 0x18
 2547 07f9 C0030000 		.4byte	.LASF174
 2548 07fd 01       		.byte	0x1
 2549 07fe BE05     		.2byte	0x5be
 2550 0800 77000000 		.4byte	0x77
 2551 0804 00000000 		.4byte	.LFB16
 2552 0808 0C000000 		.4byte	.LFE16-.LFB16
 2553 080c 01       		.uleb128 0x1
 2554 080d 9C       		.byte	0x9c
 2555 080e 33080000 		.4byte	0x833
 2556 0812 19       		.uleb128 0x19
 2557 0813 A1090000 		.4byte	.LASF115
 2558 0817 01       		.byte	0x1
 2559 0818 BE05     		.2byte	0x5be
 2560 081a 33080000 		.4byte	0x833
 2561 081e 00000000 		.4byte	.LLST0
 2562 0822 1A       		.uleb128 0x1a
 2563 0823 12080000 		.4byte	.LASF108
 2564 0827 01       		.byte	0x1
 2565 0828 C005     		.2byte	0x5c0
 2566 082a 83000000 		.4byte	0x83
 2567 082e 21000000 		.4byte	.LLST1
 2568 0832 00       		.byte	0
 2569 0833 06       		.uleb128 0x6
 2570 0834 04       		.byte	0x4
 2571 0835 39080000 		.4byte	0x839
ARM GAS  C:\Users\TB1014~1\AppData\Local\Temp\ccLG6s4V.s 			page 79


 2572 0839 0A       		.uleb128 0xa
 2573 083a EA010000 		.4byte	0x1ea
 2574 083e 1B       		.uleb128 0x1b
 2575 083f 6B060000 		.4byte	.LASF175
 2576 0843 01       		.byte	0x1
 2577 0844 3006     		.2byte	0x630
 2578 0846 03       		.byte	0x3
 2579 0847 70080000 		.4byte	0x870
 2580 084b 1C       		.uleb128 0x1c
 2581 084c 59040000 		.4byte	.LASF105
 2582 0850 01       		.byte	0x1
 2583 0851 3206     		.2byte	0x632
 2584 0853 83000000 		.4byte	0x83
 2585 0857 1C       		.uleb128 0x1c
 2586 0858 7A020000 		.4byte	.LASF106
 2587 085c 01       		.byte	0x1
 2588 085d 3306     		.2byte	0x633
 2589 085f 83000000 		.4byte	0x83
 2590 0863 1C       		.uleb128 0x1c
 2591 0864 2D060000 		.4byte	.LASF107
 2592 0868 01       		.byte	0x1
 2593 0869 3506     		.2byte	0x635
 2594 086b 83000000 		.4byte	0x83
 2595 086f 00       		.byte	0
 2596 0870 1D       		.uleb128 0x1d
 2597 0871 40020000 		.4byte	.LASF133
 2598 0875 01       		.byte	0x1
 2599 0876 C904     		.2byte	0x4c9
 2600 0878 00000000 		.4byte	.LFB10
 2601 087c 38010000 		.4byte	.LFE10-.LFB10
 2602 0880 01       		.uleb128 0x1
 2603 0881 9C       		.byte	0x9c
 2604 0882 CD080000 		.4byte	0x8cd
 2605 0886 1A       		.uleb128 0x1a
 2606 0887 660A0000 		.4byte	.LASF109
 2607 088b 01       		.byte	0x1
 2608 088c CB04     		.2byte	0x4cb
 2609 088e 83000000 		.4byte	0x83
 2610 0892 45000000 		.4byte	.LLST2
 2611 0896 1E       		.uleb128 0x1e
 2612 0897 3E080000 		.4byte	0x83e
 2613 089b 1C000000 		.4byte	.LBB4
 2614 089f B6000000 		.4byte	.LBE4-.LBB4
 2615 08a3 01       		.byte	0x1
 2616 08a4 D304     		.2byte	0x4d3
 2617 08a6 1F       		.uleb128 0x1f
 2618 08a7 1C000000 		.4byte	.LBB5
 2619 08ab B6000000 		.4byte	.LBE5-.LBB5
 2620 08af 20       		.uleb128 0x20
 2621 08b0 4B080000 		.4byte	0x84b
 2622 08b4 77000000 		.4byte	.LLST3
 2623 08b8 20       		.uleb128 0x20
 2624 08b9 57080000 		.4byte	0x857
 2625 08bd 8A000000 		.4byte	.LLST4
 2626 08c1 20       		.uleb128 0x20
 2627 08c2 63080000 		.4byte	0x863
 2628 08c6 AB000000 		.4byte	.LLST5
ARM GAS  C:\Users\TB1014~1\AppData\Local\Temp\ccLG6s4V.s 			page 80


 2629 08ca 00       		.byte	0
 2630 08cb 00       		.byte	0
 2631 08cc 00       		.byte	0
 2632 08cd 21       		.uleb128 0x21
 2633 08ce 1F040000 		.4byte	.LASF110
 2634 08d2 01       		.byte	0x1
 2635 08d3 EE05     		.2byte	0x5ee
 2636 08d5 00000000 		.4byte	.LFB17
 2637 08d9 90000000 		.4byte	.LFE17-.LFB17
 2638 08dd 01       		.uleb128 0x1
 2639 08de 9C       		.byte	0x9c
 2640 08df 06090000 		.4byte	0x906
 2641 08e3 22       		.uleb128 0x22
 2642 08e4 08000000 		.4byte	.LVL16
 2643 08e8 9D0E0000 		.4byte	0xe9d
 2644 08ec F6080000 		.4byte	0x8f6
 2645 08f0 23       		.uleb128 0x23
 2646 08f1 01       		.uleb128 0x1
 2647 08f2 50       		.byte	0x50
 2648 08f3 01       		.uleb128 0x1
 2649 08f4 3A       		.byte	0x3a
 2650 08f5 00       		.byte	0
 2651 08f6 24       		.uleb128 0x24
 2652 08f7 60000000 		.4byte	.LVL18
 2653 08fb AE0E0000 		.4byte	0xeae
 2654 08ff 23       		.uleb128 0x23
 2655 0900 01       		.uleb128 0x1
 2656 0901 50       		.byte	0x50
 2657 0902 01       		.uleb128 0x1
 2658 0903 3A       		.byte	0x3a
 2659 0904 00       		.byte	0
 2660 0905 00       		.byte	0
 2661 0906 25       		.uleb128 0x25
 2662 0907 06010000 		.4byte	.LASF111
 2663 090b 01       		.byte	0x1
 2664 090c 94       		.byte	0x94
 2665 090d 00000000 		.4byte	.LFB1
 2666 0911 A8010000 		.4byte	.LFE1-.LFB1
 2667 0915 01       		.uleb128 0x1
 2668 0916 9C       		.byte	0x9c
 2669 0917 A7090000 		.4byte	0x9a7
 2670 091b 26       		.uleb128 0x26
 2671 091c A6010000 		.4byte	.LASF112
 2672 0920 01       		.byte	0x1
 2673 0921 97       		.byte	0x97
 2674 0922 6B000000 		.4byte	0x6b
 2675 0926 BE000000 		.4byte	.LLST6
 2676 092a 26       		.uleb128 0x26
 2677 092b 660A0000 		.4byte	.LASF109
 2678 092f 01       		.byte	0x1
 2679 0930 98       		.byte	0x98
 2680 0931 83000000 		.4byte	0x83
 2681 0935 F2000000 		.4byte	.LLST7
 2682 0939 27       		.uleb128 0x27
 2683 093a AA000000 		.4byte	.LVL27
 2684 093e BF0E0000 		.4byte	0xebf
 2685 0942 27       		.uleb128 0x27
ARM GAS  C:\Users\TB1014~1\AppData\Local\Temp\ccLG6s4V.s 			page 81


 2686 0943 B8000000 		.4byte	.LVL30
 2687 0947 CA0E0000 		.4byte	0xeca
 2688 094b 27       		.uleb128 0x27
 2689 094c BC000000 		.4byte	.LVL31
 2690 0950 BF0E0000 		.4byte	0xebf
 2691 0954 27       		.uleb128 0x27
 2692 0955 C8000000 		.4byte	.LVL34
 2693 0959 CA0E0000 		.4byte	0xeca
 2694 095d 27       		.uleb128 0x27
 2695 095e CC000000 		.4byte	.LVL35
 2696 0962 BF0E0000 		.4byte	0xebf
 2697 0966 27       		.uleb128 0x27
 2698 0967 E0000000 		.4byte	.LVL39
 2699 096b CA0E0000 		.4byte	0xeca
 2700 096f 27       		.uleb128 0x27
 2701 0970 E4000000 		.4byte	.LVL40
 2702 0974 BF0E0000 		.4byte	0xebf
 2703 0978 27       		.uleb128 0x27
 2704 0979 F6000000 		.4byte	.LVL44
 2705 097d CA0E0000 		.4byte	0xeca
 2706 0981 27       		.uleb128 0x27
 2707 0982 00010000 		.4byte	.LVL45
 2708 0986 DB0E0000 		.4byte	0xedb
 2709 098a 27       		.uleb128 0x27
 2710 098b 04010000 		.4byte	.LVL46
 2711 098f EC0E0000 		.4byte	0xeec
 2712 0993 24       		.uleb128 0x24
 2713 0994 0A010000 		.4byte	.LVL47
 2714 0998 F30E0000 		.4byte	0xef3
 2715 099c 23       		.uleb128 0x23
 2716 099d 01       		.uleb128 0x1
 2717 099e 50       		.byte	0x50
 2718 099f 05       		.uleb128 0x5
 2719 09a0 03       		.byte	0x3
 2720 09a1 00000000 		.4byte	CapSense_SsCSXScanISR
 2721 09a5 00       		.byte	0
 2722 09a6 00       		.byte	0
 2723 09a7 28       		.uleb128 0x28
 2724 09a8 1D010000 		.4byte	.LASF113
 2725 09ac 01       		.byte	0x1
 2726 09ad E202     		.2byte	0x2e2
 2727 09af 00000000 		.4byte	.LFB6
 2728 09b3 18000000 		.4byte	.LFE6-.LFB6
 2729 09b7 01       		.uleb128 0x1
 2730 09b8 9C       		.byte	0x9c
 2731 09b9 C7090000 		.4byte	0x9c7
 2732 09bd 27       		.uleb128 0x27
 2733 09be 10000000 		.4byte	.LVL48
 2734 09c2 70080000 		.4byte	0x870
 2735 09c6 00       		.byte	0
 2736 09c7 21       		.uleb128 0x21
 2737 09c8 FA050000 		.4byte	.LASF114
 2738 09cc 01       		.byte	0x1
 2739 09cd 5304     		.2byte	0x453
 2740 09cf 00000000 		.4byte	.LFB9
 2741 09d3 B0000000 		.4byte	.LFE9-.LFB9
 2742 09d7 01       		.uleb128 0x1
ARM GAS  C:\Users\TB1014~1\AppData\Local\Temp\ccLG6s4V.s 			page 82


 2743 09d8 9C       		.byte	0x9c
 2744 09d9 A10A0000 		.4byte	0xaa1
 2745 09dd 19       		.uleb128 0x19
 2746 09de 96050000 		.4byte	.LASF116
 2747 09e2 01       		.byte	0x1
 2748 09e3 5304     		.2byte	0x453
 2749 09e5 83000000 		.4byte	0x83
 2750 09e9 83010000 		.4byte	.LLST8
 2751 09ed 19       		.uleb128 0x19
 2752 09ee 47030000 		.4byte	.LASF117
 2753 09f2 01       		.byte	0x1
 2754 09f3 5304     		.2byte	0x453
 2755 09f5 77000000 		.4byte	0x77
 2756 09f9 A2010000 		.4byte	.LLST9
 2757 09fd 1A       		.uleb128 0x1a
 2758 09fe 15040000 		.4byte	.LASF118
 2759 0a02 01       		.byte	0x1
 2760 0a03 5604     		.2byte	0x456
 2761 0a05 A0070000 		.4byte	0x7a0
 2762 0a09 C3010000 		.4byte	.LLST10
 2763 0a0d 1A       		.uleb128 0x1a
 2764 0a0e 5A020000 		.4byte	.LASF119
 2765 0a12 01       		.byte	0x1
 2766 0a13 5704     		.2byte	0x457
 2767 0a15 A10A0000 		.4byte	0xaa1
 2768 0a19 04020000 		.4byte	.LLST11
 2769 0a1d 1A       		.uleb128 0x1a
 2770 0a1e 62020000 		.4byte	.LASF120
 2771 0a22 01       		.byte	0x1
 2772 0a23 5D04     		.2byte	0x45d
 2773 0a25 6B000000 		.4byte	0x6b
 2774 0a29 18020000 		.4byte	.LLST12
 2775 0a2d 1A       		.uleb128 0x1a
 2776 0a2e 7E010000 		.4byte	.LASF121
 2777 0a32 01       		.byte	0x1
 2778 0a33 5E04     		.2byte	0x45e
 2779 0a35 6B000000 		.4byte	0x6b
 2780 0a39 4E020000 		.4byte	.LLST13
 2781 0a3d 1A       		.uleb128 0x1a
 2782 0a3e A9090000 		.4byte	.LASF122
 2783 0a42 01       		.byte	0x1
 2784 0a43 5F04     		.2byte	0x45f
 2785 0a45 83000000 		.4byte	0x83
 2786 0a49 84020000 		.4byte	.LLST14
 2787 0a4d 1A       		.uleb128 0x1a
 2788 0a4e E9030000 		.4byte	.LASF123
 2789 0a52 01       		.byte	0x1
 2790 0a53 5F04     		.2byte	0x45f
 2791 0a55 83000000 		.4byte	0x83
 2792 0a59 B9020000 		.4byte	.LLST15
 2793 0a5d 1A       		.uleb128 0x1a
 2794 0a5e 4E080000 		.4byte	.LASF124
 2795 0a62 01       		.byte	0x1
 2796 0a63 6004     		.2byte	0x460
 2797 0a65 83000000 		.4byte	0x83
 2798 0a69 CC020000 		.4byte	.LLST16
 2799 0a6d 22       		.uleb128 0x22
ARM GAS  C:\Users\TB1014~1\AppData\Local\Temp\ccLG6s4V.s 			page 83


 2800 0a6e 1C000000 		.4byte	.LVL52
 2801 0a72 F8070000 		.4byte	0x7f8
 2802 0a76 820A0000 		.4byte	0xa82
 2803 0a7a 23       		.uleb128 0x23
 2804 0a7b 01       		.uleb128 0x1
 2805 0a7c 50       		.byte	0x50
 2806 0a7d 03       		.uleb128 0x3
 2807 0a7e 76       		.byte	0x76
 2808 0a7f 04       		.sleb128 4
 2809 0a80 06       		.byte	0x6
 2810 0a81 00       		.byte	0
 2811 0a82 22       		.uleb128 0x22
 2812 0a83 6A000000 		.4byte	.LVL64
 2813 0a87 040F0000 		.4byte	0xf04
 2814 0a8b 970A0000 		.4byte	0xa97
 2815 0a8f 23       		.uleb128 0x23
 2816 0a90 01       		.uleb128 0x1
 2817 0a91 50       		.byte	0x50
 2818 0a92 03       		.uleb128 0x3
 2819 0a93 91       		.byte	0x91
 2820 0a94 64       		.sleb128 -28
 2821 0a95 06       		.byte	0x6
 2822 0a96 00       		.byte	0
 2823 0a97 27       		.uleb128 0x27
 2824 0a98 6E000000 		.4byte	.LVL65
 2825 0a9c 190F0000 		.4byte	0xf19
 2826 0aa0 00       		.byte	0
 2827 0aa1 06       		.uleb128 0x6
 2828 0aa2 04       		.byte	0x4
 2829 0aa3 EA010000 		.4byte	0x1ea
 2830 0aa7 28       		.uleb128 0x28
 2831 0aa8 F2020000 		.4byte	.LASF125
 2832 0aac 01       		.byte	0x1
 2833 0aad 0A05     		.2byte	0x50a
 2834 0aaf 00000000 		.4byte	.LFB11
 2835 0ab3 20000000 		.4byte	.LFE11-.LFB11
 2836 0ab7 01       		.uleb128 0x1
 2837 0ab8 9C       		.byte	0x9c
 2838 0ab9 DE0A0000 		.4byte	0xade
 2839 0abd 19       		.uleb128 0x19
 2840 0abe A0010000 		.4byte	.LASF126
 2841 0ac2 01       		.byte	0x1
 2842 0ac3 0A05     		.2byte	0x50a
 2843 0ac5 DE0A0000 		.4byte	0xade
 2844 0ac9 1B030000 		.4byte	.LLST17
 2845 0acd 1A       		.uleb128 0x1a
 2846 0ace 97010000 		.4byte	.LASF127
 2847 0ad2 01       		.byte	0x1
 2848 0ad3 0C05     		.2byte	0x50c
 2849 0ad5 83000000 		.4byte	0x83
 2850 0ad9 3C030000 		.4byte	.LLST18
 2851 0add 00       		.byte	0
 2852 0ade 06       		.uleb128 0x6
 2853 0adf 04       		.byte	0x4
 2854 0ae0 E40A0000 		.4byte	0xae4
 2855 0ae4 0A       		.uleb128 0xa
 2856 0ae5 CD060000 		.4byte	0x6cd
ARM GAS  C:\Users\TB1014~1\AppData\Local\Temp\ccLG6s4V.s 			page 84


 2857 0ae9 28       		.uleb128 0x28
 2858 0aea BD010000 		.4byte	.LASF128
 2859 0aee 01       		.byte	0x1
 2860 0aef 2C05     		.2byte	0x52c
 2861 0af1 00000000 		.4byte	.LFB12
 2862 0af5 20000000 		.4byte	.LFE12-.LFB12
 2863 0af9 01       		.uleb128 0x1
 2864 0afa 9C       		.byte	0x9c
 2865 0afb 200B0000 		.4byte	0xb20
 2866 0aff 19       		.uleb128 0x19
 2867 0b00 22090000 		.4byte	.LASF129
 2868 0b04 01       		.byte	0x1
 2869 0b05 2C05     		.2byte	0x52c
 2870 0b07 DE0A0000 		.4byte	0xade
 2871 0b0b 70030000 		.4byte	.LLST19
 2872 0b0f 1A       		.uleb128 0x1a
 2873 0b10 97010000 		.4byte	.LASF127
 2874 0b14 01       		.byte	0x1
 2875 0b15 2E05     		.2byte	0x52e
 2876 0b17 83000000 		.4byte	0x83
 2877 0b1b 91030000 		.4byte	.LLST20
 2878 0b1f 00       		.byte	0
 2879 0b20 28       		.uleb128 0x28
 2880 0b21 700A0000 		.4byte	.LASF130
 2881 0b25 01       		.byte	0x1
 2882 0b26 6902     		.2byte	0x269
 2883 0b28 00000000 		.4byte	.LFB5
 2884 0b2c 5C000000 		.4byte	.LFE5-.LFB5
 2885 0b30 01       		.uleb128 0x1
 2886 0b31 9C       		.byte	0x9c
 2887 0b32 520B0000 		.4byte	0xb52
 2888 0b36 27       		.uleb128 0x27
 2889 0b37 28000000 		.4byte	.LVL86
 2890 0b3b A70A0000 		.4byte	0xaa7
 2891 0b3f 27       		.uleb128 0x27
 2892 0b40 2E000000 		.4byte	.LVL87
 2893 0b44 E90A0000 		.4byte	0xae9
 2894 0b48 27       		.uleb128 0x27
 2895 0b49 42000000 		.4byte	.LVL88
 2896 0b4d 70080000 		.4byte	0x870
 2897 0b51 00       		.byte	0
 2898 0b52 28       		.uleb128 0x28
 2899 0b53 C0040000 		.4byte	.LASF131
 2900 0b57 01       		.byte	0x1
 2901 0b58 4F05     		.2byte	0x54f
 2902 0b5a 00000000 		.4byte	.LFB13
 2903 0b5e 0C000000 		.4byte	.LFE13-.LFB13
 2904 0b62 01       		.uleb128 0x1
 2905 0b63 9C       		.byte	0x9c
 2906 0b64 850B0000 		.4byte	0xb85
 2907 0b68 29       		.uleb128 0x29
 2908 0b69 A0010000 		.4byte	.LASF126
 2909 0b6d 01       		.byte	0x1
 2910 0b6e 4F05     		.2byte	0x54f
 2911 0b70 DE0A0000 		.4byte	0xade
 2912 0b74 01       		.uleb128 0x1
 2913 0b75 50       		.byte	0x50
ARM GAS  C:\Users\TB1014~1\AppData\Local\Temp\ccLG6s4V.s 			page 85


 2914 0b76 2A       		.uleb128 0x2a
 2915 0b77 97010000 		.4byte	.LASF127
 2916 0b7b 01       		.byte	0x1
 2917 0b7c 5105     		.2byte	0x551
 2918 0b7e 83000000 		.4byte	0x83
 2919 0b82 01       		.uleb128 0x1
 2920 0b83 53       		.byte	0x53
 2921 0b84 00       		.byte	0
 2922 0b85 28       		.uleb128 0x28
 2923 0b86 A7030000 		.4byte	.LASF132
 2924 0b8a 01       		.byte	0x1
 2925 0b8b 6E05     		.2byte	0x56e
 2926 0b8d 00000000 		.4byte	.LFB14
 2927 0b91 2E000000 		.4byte	.LFE14-.LFB14
 2928 0b95 01       		.uleb128 0x1
 2929 0b96 9C       		.byte	0x9c
 2930 0b97 BA0B0000 		.4byte	0xbba
 2931 0b9b 29       		.uleb128 0x29
 2932 0b9c 22090000 		.4byte	.LASF129
 2933 0ba0 01       		.byte	0x1
 2934 0ba1 6E05     		.2byte	0x56e
 2935 0ba3 DE0A0000 		.4byte	0xade
 2936 0ba7 01       		.uleb128 0x1
 2937 0ba8 50       		.byte	0x50
 2938 0ba9 1A       		.uleb128 0x1a
 2939 0baa 97010000 		.4byte	.LASF127
 2940 0bae 01       		.byte	0x1
 2941 0baf 7005     		.2byte	0x570
 2942 0bb1 83000000 		.4byte	0x83
 2943 0bb5 BA030000 		.4byte	.LLST21
 2944 0bb9 00       		.byte	0
 2945 0bba 2B       		.uleb128 0x2b
 2946 0bbb BA090000 		.4byte	.LASF134
 2947 0bbf 01       		.byte	0x1
 2948 0bc0 FA02     		.2byte	0x2fa
 2949 0bc2 00000000 		.4byte	.LFB7
 2950 0bc6 CC000000 		.4byte	.LFE7-.LFB7
 2951 0bca 01       		.uleb128 0x1
 2952 0bcb 9C       		.byte	0x9c
 2953 0bcc 220C0000 		.4byte	0xc22
 2954 0bd0 27       		.uleb128 0x27
 2955 0bd1 1C000000 		.4byte	.LVL101
 2956 0bd5 520B0000 		.4byte	0xb52
 2957 0bd9 27       		.uleb128 0x27
 2958 0bda 34000000 		.4byte	.LVL102
 2959 0bde A70A0000 		.4byte	0xaa7
 2960 0be2 27       		.uleb128 0x27
 2961 0be3 40000000 		.4byte	.LVL103
 2962 0be7 70080000 		.4byte	0x870
 2963 0beb 27       		.uleb128 0x27
 2964 0bec 58000000 		.4byte	.LVL104
 2965 0bf0 850B0000 		.4byte	0xb85
 2966 0bf4 27       		.uleb128 0x27
 2967 0bf5 62000000 		.4byte	.LVL105
 2968 0bf9 E90A0000 		.4byte	0xae9
 2969 0bfd 27       		.uleb128 0x27
 2970 0bfe 7E000000 		.4byte	.LVL106
ARM GAS  C:\Users\TB1014~1\AppData\Local\Temp\ccLG6s4V.s 			page 86


 2971 0c02 A70A0000 		.4byte	0xaa7
 2972 0c06 27       		.uleb128 0x27
 2973 0c07 8A000000 		.4byte	.LVL107
 2974 0c0b 70080000 		.4byte	0x870
 2975 0c0f 27       		.uleb128 0x27
 2976 0c10 94000000 		.4byte	.LVL108
 2977 0c14 850B0000 		.4byte	0xb85
 2978 0c18 27       		.uleb128 0x27
 2979 0c19 A0000000 		.4byte	.LVL109
 2980 0c1d 240F0000 		.4byte	0xf24
 2981 0c21 00       		.byte	0
 2982 0c22 28       		.uleb128 0x28
 2983 0c23 AB050000 		.4byte	.LASF135
 2984 0c27 01       		.byte	0x1
 2985 0c28 2C01     		.2byte	0x12c
 2986 0c2a 00000000 		.4byte	.LFB2
 2987 0c2e 24000000 		.4byte	.LFE2-.LFB2
 2988 0c32 01       		.uleb128 0x1
 2989 0c33 9C       		.byte	0x9c
 2990 0c34 4B0C0000 		.4byte	0xc4b
 2991 0c38 27       		.uleb128 0x27
 2992 0c39 12000000 		.4byte	.LVL110
 2993 0c3d 520B0000 		.4byte	0xb52
 2994 0c41 27       		.uleb128 0x27
 2995 0c42 18000000 		.4byte	.LVL111
 2996 0c46 850B0000 		.4byte	0xb85
 2997 0c4a 00       		.byte	0
 2998 0c4b 28       		.uleb128 0x28
 2999 0c4c 92020000 		.4byte	.LASF136
 3000 0c50 01       		.byte	0x1
 3001 0c51 8901     		.2byte	0x189
 3002 0c53 00000000 		.4byte	.LFB3
 3003 0c57 70000000 		.4byte	.LFE3-.LFB3
 3004 0c5b 01       		.uleb128 0x1
 3005 0c5c 9C       		.byte	0x9c
 3006 0c5d DB0C0000 		.4byte	0xcdb
 3007 0c61 19       		.uleb128 0x19
 3008 0c62 96050000 		.4byte	.LASF116
 3009 0c66 01       		.byte	0x1
 3010 0c67 8901     		.2byte	0x189
 3011 0c69 83000000 		.4byte	0x83
 3012 0c6d E3030000 		.4byte	.LLST22
 3013 0c71 1A       		.uleb128 0x1a
 3014 0c72 0D0B0000 		.4byte	.LASF137
 3015 0c76 01       		.byte	0x1
 3016 0c77 8C01     		.2byte	0x18c
 3017 0c79 A10A0000 		.4byte	0xaa1
 3018 0c7d 0F040000 		.4byte	.LLST23
 3019 0c81 1A       		.uleb128 0x1a
 3020 0c82 660A0000 		.4byte	.LASF109
 3021 0c86 01       		.byte	0x1
 3022 0c87 8F01     		.2byte	0x18f
 3023 0c89 83000000 		.4byte	0x83
 3024 0c8d 22040000 		.4byte	.LLST24
 3025 0c91 1A       		.uleb128 0x1a
 3026 0c92 11030000 		.4byte	.LASF138
 3027 0c96 01       		.byte	0x1
ARM GAS  C:\Users\TB1014~1\AppData\Local\Temp\ccLG6s4V.s 			page 87


 3028 0c97 9001     		.2byte	0x190
 3029 0c99 83000000 		.4byte	0x83
 3030 0c9d 40040000 		.4byte	.LLST25
 3031 0ca1 22       		.uleb128 0x22
 3032 0ca2 0A000000 		.4byte	.LVL114
 3033 0ca6 2B0F0000 		.4byte	0xf2b
 3034 0caa B40C0000 		.4byte	0xcb4
 3035 0cae 23       		.uleb128 0x23
 3036 0caf 01       		.uleb128 0x1
 3037 0cb0 50       		.byte	0x50
 3038 0cb1 01       		.uleb128 0x1
 3039 0cb2 32       		.byte	0x32
 3040 0cb3 00       		.byte	0
 3041 0cb4 27       		.uleb128 0x27
 3042 0cb5 0E000000 		.4byte	.LVL115
 3043 0cb9 220C0000 		.4byte	0xc22
 3044 0cbd 22       		.uleb128 0x22
 3045 0cbe 32000000 		.4byte	.LVL119
 3046 0cc2 F8070000 		.4byte	0x7f8
 3047 0cc6 D10C0000 		.4byte	0xcd1
 3048 0cca 23       		.uleb128 0x23
 3049 0ccb 01       		.uleb128 0x1
 3050 0ccc 50       		.byte	0x50
 3051 0ccd 02       		.uleb128 0x2
 3052 0cce 75       		.byte	0x75
 3053 0ccf 00       		.sleb128 0
 3054 0cd0 00       		.byte	0
 3055 0cd1 27       		.uleb128 0x27
 3056 0cd2 50000000 		.4byte	.LVL126
 3057 0cd6 DB0E0000 		.4byte	0xedb
 3058 0cda 00       		.byte	0
 3059 0cdb 21       		.uleb128 0x21
 3060 0cdc 3D060000 		.4byte	.LASF139
 3061 0ce0 01       		.byte	0x1
 3062 0ce1 FA01     		.2byte	0x1fa
 3063 0ce3 00000000 		.4byte	.LFB4
 3064 0ce7 78000000 		.4byte	.LFE4-.LFB4
 3065 0ceb 01       		.uleb128 0x1
 3066 0cec 9C       		.byte	0x9c
 3067 0ced 590D0000 		.4byte	0xd59
 3068 0cf1 19       		.uleb128 0x19
 3069 0cf2 96050000 		.4byte	.LASF116
 3070 0cf6 01       		.byte	0x1
 3071 0cf7 FA01     		.2byte	0x1fa
 3072 0cf9 83000000 		.4byte	0x83
 3073 0cfd 6B040000 		.4byte	.LLST26
 3074 0d01 19       		.uleb128 0x19
 3075 0d02 62060000 		.4byte	.LASF140
 3076 0d06 01       		.byte	0x1
 3077 0d07 FA01     		.2byte	0x1fa
 3078 0d09 83000000 		.4byte	0x83
 3079 0d0d 8C040000 		.4byte	.LLST27
 3080 0d11 1A       		.uleb128 0x1a
 3081 0d12 8A020000 		.4byte	.LASF141
 3082 0d16 01       		.byte	0x1
 3083 0d17 FC01     		.2byte	0x1fc
 3084 0d19 83000000 		.4byte	0x83
ARM GAS  C:\Users\TB1014~1\AppData\Local\Temp\ccLG6s4V.s 			page 88


 3085 0d1d B8040000 		.4byte	.LLST28
 3086 0d21 1A       		.uleb128 0x1a
 3087 0d22 B5010000 		.4byte	.LASF142
 3088 0d26 01       		.byte	0x1
 3089 0d27 FD01     		.2byte	0x1fd
 3090 0d29 83000000 		.4byte	0x83
 3091 0d2d CB040000 		.4byte	.LLST29
 3092 0d31 22       		.uleb128 0x22
 3093 0d32 08000000 		.4byte	.LVL130
 3094 0d36 4B0C0000 		.4byte	0xc4b
 3095 0d3a 460D0000 		.4byte	0xd46
 3096 0d3e 23       		.uleb128 0x23
 3097 0d3f 01       		.uleb128 0x1
 3098 0d40 50       		.byte	0x50
 3099 0d41 03       		.uleb128 0x3
 3100 0d42 F3       		.byte	0xf3
 3101 0d43 01       		.uleb128 0x1
 3102 0d44 50       		.byte	0x50
 3103 0d45 00       		.byte	0
 3104 0d46 27       		.uleb128 0x27
 3105 0d47 52000000 		.4byte	.LVL136
 3106 0d4b A70A0000 		.4byte	0xaa7
 3107 0d4f 27       		.uleb128 0x27
 3108 0d50 58000000 		.4byte	.LVL137
 3109 0d54 E90A0000 		.4byte	0xae9
 3110 0d58 00       		.byte	0
 3111 0d59 2C       		.uleb128 0x2c
 3112 0d5a 77070000 		.4byte	.LASF176
 3113 0d5e 01       		.byte	0x1
 3114 0d5f 9505     		.2byte	0x595
 3115 0d61 83000000 		.4byte	0x83
 3116 0d65 00000000 		.4byte	.LFB15
 3117 0d69 14000000 		.4byte	.LFE15-.LFB15
 3118 0d6d 01       		.uleb128 0x1
 3119 0d6e 9C       		.byte	0x9c
 3120 0d6f A00D0000 		.4byte	0xda0
 3121 0d73 19       		.uleb128 0x19
 3122 0d74 58060000 		.4byte	.LASF143
 3123 0d78 01       		.byte	0x1
 3124 0d79 9505     		.2byte	0x595
 3125 0d7b 83000000 		.4byte	0x83
 3126 0d7f E9040000 		.4byte	.LLST30
 3127 0d83 2A       		.uleb128 0x2a
 3128 0d84 13090000 		.4byte	.LASF144
 3129 0d88 01       		.byte	0x1
 3130 0d89 9705     		.2byte	0x597
 3131 0d8b 83000000 		.4byte	0x83
 3132 0d8f 01       		.uleb128 0x1
 3133 0d90 50       		.byte	0x50
 3134 0d91 2A       		.uleb128 0x2a
 3135 0d92 5A020000 		.4byte	.LASF119
 3136 0d96 01       		.byte	0x1
 3137 0d97 9B05     		.2byte	0x59b
 3138 0d99 A10A0000 		.4byte	0xaa1
 3139 0d9d 01       		.uleb128 0x1
 3140 0d9e 53       		.byte	0x53
 3141 0d9f 00       		.byte	0
ARM GAS  C:\Users\TB1014~1\AppData\Local\Temp\ccLG6s4V.s 			page 89


 3142 0da0 2D       		.uleb128 0x2d
 3143 0da1 B5060000 		.4byte	.LASF145
 3144 0da5 01       		.byte	0x1
 3145 0da6 63       		.byte	0x63
 3146 0da7 DE0A0000 		.4byte	0xade
 3147 0dab 05       		.uleb128 0x5
 3148 0dac 03       		.byte	0x3
 3149 0dad 0C000000 		.4byte	CapSense_curTxIOPtr
 3150 0db1 2D       		.uleb128 0x2d
 3151 0db2 E4040000 		.4byte	.LASF146
 3152 0db6 01       		.byte	0x1
 3153 0db7 65       		.byte	0x65
 3154 0db8 DE0A0000 		.4byte	0xade
 3155 0dbc 05       		.uleb128 0x5
 3156 0dbd 03       		.byte	0x3
 3157 0dbe 08000000 		.4byte	CapSense_curRxIOPtr
 3158 0dc2 2D       		.uleb128 0x2d
 3159 0dc3 DD050000 		.4byte	.LASF147
 3160 0dc7 01       		.byte	0x1
 3161 0dc8 6A       		.byte	0x6a
 3162 0dc9 77000000 		.4byte	0x77
 3163 0dcd 05       		.uleb128 0x5
 3164 0dce 03       		.byte	0x3
 3165 0dcf 06000000 		.4byte	CapSense_curWdgtTotalRx
 3166 0dd3 2D       		.uleb128 0x2d
 3167 0dd4 F1070000 		.4byte	.LASF148
 3168 0dd8 01       		.byte	0x1
 3169 0dd9 6C       		.byte	0x6c
 3170 0dda 77000000 		.4byte	0x77
 3171 0dde 05       		.uleb128 0x5
 3172 0ddf 03       		.byte	0x3
 3173 0de0 04000000 		.4byte	CapSense_curWdgtTotalTx
 3174 0de4 2D       		.uleb128 0x2d
 3175 0de5 AB000000 		.4byte	.LASF149
 3176 0de9 01       		.byte	0x1
 3177 0dea 6E       		.byte	0x6e
 3178 0deb 77000000 		.4byte	0x77
 3179 0def 05       		.uleb128 0x5
 3180 0df0 03       		.byte	0x3
 3181 0df1 10000000 		.4byte	CapSense_eleCsxDisconnectFlag
 3182 0df5 2E       		.uleb128 0x2e
 3183 0df6 3A050000 		.4byte	.LASF150
 3184 0dfa 04       		.byte	0x4
 3185 0dfb 8004     		.2byte	0x480
 3186 0dfd 3C060000 		.4byte	0x63c
 3187 0e01 2E       		.uleb128 0x2e
 3188 0e02 90080000 		.4byte	.LASF151
 3189 0e06 04       		.byte	0x4
 3190 0e07 8104     		.2byte	0x481
 3191 0e09 0D0E0000 		.4byte	0xe0d
 3192 0e0d 0A       		.uleb128 0xa
 3193 0e0e DA070000 		.4byte	0x7da
 3194 0e12 2F       		.uleb128 0x2f
 3195 0e13 16060000 		.4byte	.LASF152
 3196 0e17 01       		.byte	0x1
 3197 0e18 52       		.byte	0x52
 3198 0e19 B5000000 		.4byte	0xb5
ARM GAS  C:\Users\TB1014~1\AppData\Local\Temp\ccLG6s4V.s 			page 90


 3199 0e1d 05       		.uleb128 0x5
 3200 0e1e 03       		.byte	0x3
 3201 0e1f 00000000 		.4byte	CapSense_csxScanPeriod
 3202 0e23 2F       		.uleb128 0x2f
 3203 0e24 01050000 		.4byte	.LASF153
 3204 0e28 01       		.byte	0x1
 3205 0e29 54       		.byte	0x54
 3206 0e2a B5000000 		.4byte	0xb5
 3207 0e2e 05       		.uleb128 0x5
 3208 0e2f 03       		.byte	0x3
 3209 0e30 00000000 		.4byte	CapSense_csxRawCount
 3210 0e34 2F       		.uleb128 0x2f
 3211 0e35 54030000 		.4byte	.LASF154
 3212 0e39 01       		.byte	0x1
 3213 0e3a 57       		.byte	0x57
 3214 0e3b C6000000 		.4byte	0xc6
 3215 0e3f 05       		.uleb128 0x5
 3216 0e40 03       		.byte	0x3
 3217 0e41 00000000 		.4byte	CapSense_resamplingCyclesCnt
 3218 0e45 2F       		.uleb128 0x2f
 3219 0e46 63010000 		.4byte	.LASF155
 3220 0e4a 01       		.byte	0x1
 3221 0e4b 67       		.byte	0x67
 3222 0e4c D7000000 		.4byte	0xd7
 3223 0e50 05       		.uleb128 0x5
 3224 0e51 03       		.byte	0x3
 3225 0e52 00000000 		.4byte	CapSense_CSXPostScanApiPtr
 3226 0e56 2E       		.uleb128 0x2e
 3227 0e57 DE0A0000 		.4byte	.LASF156
 3228 0e5b 05       		.byte	0x5
 3229 0e5c 4905     		.2byte	0x549
 3230 0e5e FE000000 		.4byte	0xfe
 3231 0e62 2E       		.uleb128 0x2e
 3232 0e63 650B0000 		.4byte	.LASF157
 3233 0e67 05       		.byte	0x5
 3234 0e68 5105     		.2byte	0x551
 3235 0e6a B0000000 		.4byte	0xb0
 3236 0e6e 2E       		.uleb128 0x2e
 3237 0e6f 830B0000 		.4byte	.LASF158
 3238 0e73 05       		.byte	0x5
 3239 0e74 5405     		.2byte	0x554
 3240 0e76 6B000000 		.4byte	0x6b
 3241 0e7a 2E       		.uleb128 0x2e
 3242 0e7b BC0A0000 		.4byte	.LASF159
 3243 0e7f 05       		.byte	0x5
 3244 0e80 5905     		.2byte	0x559
 3245 0e82 A0070000 		.4byte	0x7a0
 3246 0e86 2E       		.uleb128 0x2e
 3247 0e87 00000000 		.4byte	.LASF160
 3248 0e8b 05       		.byte	0x5
 3249 0e8c 6105     		.2byte	0x561
 3250 0e8e 920E0000 		.4byte	0xe92
 3251 0e92 06       		.uleb128 0x6
 3252 0e93 04       		.byte	0x4
 3253 0e94 980E0000 		.4byte	0xe98
 3254 0e98 0A       		.uleb128 0xa
 3255 0e99 A6070000 		.4byte	0x7a6
ARM GAS  C:\Users\TB1014~1\AppData\Local\Temp\ccLG6s4V.s 			page 91


 3256 0e9d 30       		.uleb128 0x30
 3257 0e9e D3010000 		.4byte	.LASF161
 3258 0ea2 06       		.byte	0x6
 3259 0ea3 C5       		.byte	0xc5
 3260 0ea4 AE0E0000 		.4byte	0xeae
 3261 0ea8 31       		.uleb128 0x31
 3262 0ea9 6B000000 		.4byte	0x6b
 3263 0ead 00       		.byte	0
 3264 0eae 30       		.uleb128 0x30
 3265 0eaf 5A0A0000 		.4byte	.LASF162
 3266 0eb3 06       		.byte	0x6
 3267 0eb4 C3       		.byte	0xc3
 3268 0eb5 BF0E0000 		.4byte	0xebf
 3269 0eb9 31       		.uleb128 0x31
 3270 0eba 6B000000 		.4byte	0x6b
 3271 0ebe 00       		.byte	0
 3272 0ebf 32       		.uleb128 0x32
 3273 0ec0 A50A0000 		.4byte	.LASF166
 3274 0ec4 06       		.byte	0x6
 3275 0ec5 E5       		.byte	0xe5
 3276 0ec6 6B000000 		.4byte	0x6b
 3277 0eca 30       		.uleb128 0x30
 3278 0ecb FF030000 		.4byte	.LASF163
 3279 0ecf 06       		.byte	0x6
 3280 0ed0 E6       		.byte	0xe6
 3281 0ed1 DB0E0000 		.4byte	0xedb
 3282 0ed5 31       		.uleb128 0x31
 3283 0ed6 6B000000 		.4byte	0x6b
 3284 0eda 00       		.byte	0
 3285 0edb 30       		.uleb128 0x30
 3286 0edc E0010000 		.4byte	.LASF164
 3287 0ee0 05       		.byte	0x5
 3288 0ee1 7A       		.byte	0x7a
 3289 0ee2 EC0E0000 		.4byte	0xeec
 3290 0ee6 31       		.uleb128 0x31
 3291 0ee7 83000000 		.4byte	0x83
 3292 0eeb 00       		.byte	0
 3293 0eec 33       		.uleb128 0x33
 3294 0eed E6000000 		.4byte	.LASF168
 3295 0ef1 05       		.byte	0x5
 3296 0ef2 92       		.byte	0x92
 3297 0ef3 30       		.uleb128 0x30
 3298 0ef4 A1070000 		.4byte	.LASF165
 3299 0ef8 05       		.byte	0x5
 3300 0ef9 7D       		.byte	0x7d
 3301 0efa 040F0000 		.4byte	0xf04
 3302 0efe 31       		.uleb128 0x31
 3303 0eff CB000000 		.4byte	0xcb
 3304 0f03 00       		.byte	0
 3305 0f04 34       		.uleb128 0x34
 3306 0f05 39080000 		.4byte	.LASF177
 3307 0f09 05       		.byte	0x5
 3308 0f0a 5A       		.byte	0x5a
 3309 0f0b A4000000 		.4byte	0xa4
 3310 0f0f 190F0000 		.4byte	0xf19
 3311 0f13 31       		.uleb128 0x31
 3312 0f14 83000000 		.4byte	0x83
ARM GAS  C:\Users\TB1014~1\AppData\Local\Temp\ccLG6s4V.s 			page 92


 3313 0f18 00       		.byte	0
 3314 0f19 32       		.uleb128 0x32
 3315 0f1a 2C050000 		.4byte	.LASF167
 3316 0f1e 05       		.byte	0x5
 3317 0f1f 5B       		.byte	0x5b
 3318 0f20 A4000000 		.4byte	0xa4
 3319 0f24 33       		.uleb128 0x33
 3320 0f25 1F0B0000 		.4byte	.LASF169
 3321 0f29 05       		.byte	0x5
 3322 0f2a 7E       		.byte	0x7e
 3323 0f2b 35       		.uleb128 0x35
 3324 0f2c 880A0000 		.4byte	.LASF178
 3325 0f30 05       		.byte	0x5
 3326 0f31 82       		.byte	0x82
 3327 0f32 31       		.uleb128 0x31
 3328 0f33 2A010000 		.4byte	0x12a
 3329 0f37 00       		.byte	0
 3330 0f38 00       		.byte	0
 3331              		.section	.debug_abbrev,"",%progbits
 3332              	.Ldebug_abbrev0:
 3333 0000 01       		.uleb128 0x1
 3334 0001 11       		.uleb128 0x11
 3335 0002 01       		.byte	0x1
 3336 0003 25       		.uleb128 0x25
 3337 0004 0E       		.uleb128 0xe
 3338 0005 13       		.uleb128 0x13
 3339 0006 0B       		.uleb128 0xb
 3340 0007 03       		.uleb128 0x3
 3341 0008 0E       		.uleb128 0xe
 3342 0009 1B       		.uleb128 0x1b
 3343 000a 0E       		.uleb128 0xe
 3344 000b 55       		.uleb128 0x55
 3345 000c 17       		.uleb128 0x17
 3346 000d 11       		.uleb128 0x11
 3347 000e 01       		.uleb128 0x1
 3348 000f 10       		.uleb128 0x10
 3349 0010 17       		.uleb128 0x17
 3350 0011 00       		.byte	0
 3351 0012 00       		.byte	0
 3352 0013 02       		.uleb128 0x2
 3353 0014 24       		.uleb128 0x24
 3354 0015 00       		.byte	0
 3355 0016 0B       		.uleb128 0xb
 3356 0017 0B       		.uleb128 0xb
 3357 0018 3E       		.uleb128 0x3e
 3358 0019 0B       		.uleb128 0xb
 3359 001a 03       		.uleb128 0x3
 3360 001b 0E       		.uleb128 0xe
 3361 001c 00       		.byte	0
 3362 001d 00       		.byte	0
 3363 001e 03       		.uleb128 0x3
 3364 001f 24       		.uleb128 0x24
 3365 0020 00       		.byte	0
 3366 0021 0B       		.uleb128 0xb
 3367 0022 0B       		.uleb128 0xb
 3368 0023 3E       		.uleb128 0x3e
 3369 0024 0B       		.uleb128 0xb
ARM GAS  C:\Users\TB1014~1\AppData\Local\Temp\ccLG6s4V.s 			page 93


 3370 0025 03       		.uleb128 0x3
 3371 0026 08       		.uleb128 0x8
 3372 0027 00       		.byte	0
 3373 0028 00       		.byte	0
 3374 0029 04       		.uleb128 0x4
 3375 002a 16       		.uleb128 0x16
 3376 002b 00       		.byte	0
 3377 002c 03       		.uleb128 0x3
 3378 002d 0E       		.uleb128 0xe
 3379 002e 3A       		.uleb128 0x3a
 3380 002f 0B       		.uleb128 0xb
 3381 0030 3B       		.uleb128 0x3b
 3382 0031 05       		.uleb128 0x5
 3383 0032 49       		.uleb128 0x49
 3384 0033 13       		.uleb128 0x13
 3385 0034 00       		.byte	0
 3386 0035 00       		.byte	0
 3387 0036 05       		.uleb128 0x5
 3388 0037 35       		.uleb128 0x35
 3389 0038 00       		.byte	0
 3390 0039 49       		.uleb128 0x49
 3391 003a 13       		.uleb128 0x13
 3392 003b 00       		.byte	0
 3393 003c 00       		.byte	0
 3394 003d 06       		.uleb128 0x6
 3395 003e 0F       		.uleb128 0xf
 3396 003f 00       		.byte	0
 3397 0040 0B       		.uleb128 0xb
 3398 0041 0B       		.uleb128 0xb
 3399 0042 49       		.uleb128 0x49
 3400 0043 13       		.uleb128 0x13
 3401 0044 00       		.byte	0
 3402 0045 00       		.byte	0
 3403 0046 07       		.uleb128 0x7
 3404 0047 15       		.uleb128 0x15
 3405 0048 00       		.byte	0
 3406 0049 27       		.uleb128 0x27
 3407 004a 19       		.uleb128 0x19
 3408 004b 00       		.byte	0
 3409 004c 00       		.byte	0
 3410 004d 08       		.uleb128 0x8
 3411 004e 0F       		.uleb128 0xf
 3412 004f 00       		.byte	0
 3413 0050 0B       		.uleb128 0xb
 3414 0051 0B       		.uleb128 0xb
 3415 0052 00       		.byte	0
 3416 0053 00       		.byte	0
 3417 0054 09       		.uleb128 0x9
 3418 0055 16       		.uleb128 0x16
 3419 0056 00       		.byte	0
 3420 0057 03       		.uleb128 0x3
 3421 0058 0E       		.uleb128 0xe
 3422 0059 3A       		.uleb128 0x3a
 3423 005a 0B       		.uleb128 0xb
 3424 005b 3B       		.uleb128 0x3b
 3425 005c 0B       		.uleb128 0xb
 3426 005d 49       		.uleb128 0x49
ARM GAS  C:\Users\TB1014~1\AppData\Local\Temp\ccLG6s4V.s 			page 94


 3427 005e 13       		.uleb128 0x13
 3428 005f 00       		.byte	0
 3429 0060 00       		.byte	0
 3430 0061 0A       		.uleb128 0xa
 3431 0062 26       		.uleb128 0x26
 3432 0063 00       		.byte	0
 3433 0064 49       		.uleb128 0x49
 3434 0065 13       		.uleb128 0x13
 3435 0066 00       		.byte	0
 3436 0067 00       		.byte	0
 3437 0068 0B       		.uleb128 0xb
 3438 0069 04       		.uleb128 0x4
 3439 006a 01       		.byte	0x1
 3440 006b 0B       		.uleb128 0xb
 3441 006c 0B       		.uleb128 0xb
 3442 006d 3A       		.uleb128 0x3a
 3443 006e 0B       		.uleb128 0xb
 3444 006f 3B       		.uleb128 0x3b
 3445 0070 0B       		.uleb128 0xb
 3446 0071 01       		.uleb128 0x1
 3447 0072 13       		.uleb128 0x13
 3448 0073 00       		.byte	0
 3449 0074 00       		.byte	0
 3450 0075 0C       		.uleb128 0xc
 3451 0076 28       		.uleb128 0x28
 3452 0077 00       		.byte	0
 3453 0078 03       		.uleb128 0x3
 3454 0079 0E       		.uleb128 0xe
 3455 007a 1C       		.uleb128 0x1c
 3456 007b 0D       		.uleb128 0xd
 3457 007c 00       		.byte	0
 3458 007d 00       		.byte	0
 3459 007e 0D       		.uleb128 0xd
 3460 007f 13       		.uleb128 0x13
 3461 0080 01       		.byte	0x1
 3462 0081 0B       		.uleb128 0xb
 3463 0082 0B       		.uleb128 0xb
 3464 0083 3A       		.uleb128 0x3a
 3465 0084 0B       		.uleb128 0xb
 3466 0085 3B       		.uleb128 0x3b
 3467 0086 0B       		.uleb128 0xb
 3468 0087 01       		.uleb128 0x1
 3469 0088 13       		.uleb128 0x13
 3470 0089 00       		.byte	0
 3471 008a 00       		.byte	0
 3472 008b 0E       		.uleb128 0xe
 3473 008c 0D       		.uleb128 0xd
 3474 008d 00       		.byte	0
 3475 008e 03       		.uleb128 0x3
 3476 008f 0E       		.uleb128 0xe
 3477 0090 3A       		.uleb128 0x3a
 3478 0091 0B       		.uleb128 0xb
 3479 0092 3B       		.uleb128 0x3b
 3480 0093 0B       		.uleb128 0xb
 3481 0094 49       		.uleb128 0x49
 3482 0095 13       		.uleb128 0x13
 3483 0096 38       		.uleb128 0x38
ARM GAS  C:\Users\TB1014~1\AppData\Local\Temp\ccLG6s4V.s 			page 95


 3484 0097 0B       		.uleb128 0xb
 3485 0098 00       		.byte	0
 3486 0099 00       		.byte	0
 3487 009a 0F       		.uleb128 0xf
 3488 009b 01       		.uleb128 0x1
 3489 009c 01       		.byte	0x1
 3490 009d 49       		.uleb128 0x49
 3491 009e 13       		.uleb128 0x13
 3492 009f 01       		.uleb128 0x1
 3493 00a0 13       		.uleb128 0x13
 3494 00a1 00       		.byte	0
 3495 00a2 00       		.byte	0
 3496 00a3 10       		.uleb128 0x10
 3497 00a4 21       		.uleb128 0x21
 3498 00a5 00       		.byte	0
 3499 00a6 49       		.uleb128 0x49
 3500 00a7 13       		.uleb128 0x13
 3501 00a8 2F       		.uleb128 0x2f
 3502 00a9 0B       		.uleb128 0xb
 3503 00aa 00       		.byte	0
 3504 00ab 00       		.byte	0
 3505 00ac 11       		.uleb128 0x11
 3506 00ad 0D       		.uleb128 0xd
 3507 00ae 00       		.byte	0
 3508 00af 03       		.uleb128 0x3
 3509 00b0 0E       		.uleb128 0xe
 3510 00b1 3A       		.uleb128 0x3a
 3511 00b2 0B       		.uleb128 0xb
 3512 00b3 3B       		.uleb128 0x3b
 3513 00b4 05       		.uleb128 0x5
 3514 00b5 49       		.uleb128 0x49
 3515 00b6 13       		.uleb128 0x13
 3516 00b7 38       		.uleb128 0x38
 3517 00b8 0B       		.uleb128 0xb
 3518 00b9 00       		.byte	0
 3519 00ba 00       		.byte	0
 3520 00bb 12       		.uleb128 0x12
 3521 00bc 13       		.uleb128 0x13
 3522 00bd 01       		.byte	0x1
 3523 00be 0B       		.uleb128 0xb
 3524 00bf 0B       		.uleb128 0xb
 3525 00c0 3A       		.uleb128 0x3a
 3526 00c1 0B       		.uleb128 0xb
 3527 00c2 3B       		.uleb128 0x3b
 3528 00c3 05       		.uleb128 0x5
 3529 00c4 01       		.uleb128 0x1
 3530 00c5 13       		.uleb128 0x13
 3531 00c6 00       		.byte	0
 3532 00c7 00       		.byte	0
 3533 00c8 13       		.uleb128 0x13
 3534 00c9 0D       		.uleb128 0xd
 3535 00ca 00       		.byte	0
 3536 00cb 03       		.uleb128 0x3
 3537 00cc 08       		.uleb128 0x8
 3538 00cd 3A       		.uleb128 0x3a
 3539 00ce 0B       		.uleb128 0xb
 3540 00cf 3B       		.uleb128 0x3b
ARM GAS  C:\Users\TB1014~1\AppData\Local\Temp\ccLG6s4V.s 			page 96


 3541 00d0 05       		.uleb128 0x5
 3542 00d1 49       		.uleb128 0x49
 3543 00d2 13       		.uleb128 0x13
 3544 00d3 38       		.uleb128 0x38
 3545 00d4 0B       		.uleb128 0xb
 3546 00d5 00       		.byte	0
 3547 00d6 00       		.byte	0
 3548 00d7 14       		.uleb128 0x14
 3549 00d8 13       		.uleb128 0x13
 3550 00d9 01       		.byte	0x1
 3551 00da 0B       		.uleb128 0xb
 3552 00db 05       		.uleb128 0x5
 3553 00dc 3A       		.uleb128 0x3a
 3554 00dd 0B       		.uleb128 0xb
 3555 00de 3B       		.uleb128 0x3b
 3556 00df 05       		.uleb128 0x5
 3557 00e0 01       		.uleb128 0x1
 3558 00e1 13       		.uleb128 0x13
 3559 00e2 00       		.byte	0
 3560 00e3 00       		.byte	0
 3561 00e4 15       		.uleb128 0x15
 3562 00e5 0D       		.uleb128 0xd
 3563 00e6 00       		.byte	0
 3564 00e7 03       		.uleb128 0x3
 3565 00e8 0E       		.uleb128 0xe
 3566 00e9 3A       		.uleb128 0x3a
 3567 00ea 0B       		.uleb128 0xb
 3568 00eb 3B       		.uleb128 0x3b
 3569 00ec 05       		.uleb128 0x5
 3570 00ed 49       		.uleb128 0x49
 3571 00ee 13       		.uleb128 0x13
 3572 00ef 38       		.uleb128 0x38
 3573 00f0 05       		.uleb128 0x5
 3574 00f1 00       		.byte	0
 3575 00f2 00       		.byte	0
 3576 00f3 16       		.uleb128 0x16
 3577 00f4 26       		.uleb128 0x26
 3578 00f5 00       		.byte	0
 3579 00f6 00       		.byte	0
 3580 00f7 00       		.byte	0
 3581 00f8 17       		.uleb128 0x17
 3582 00f9 2E       		.uleb128 0x2e
 3583 00fa 00       		.byte	0
 3584 00fb 03       		.uleb128 0x3
 3585 00fc 0E       		.uleb128 0xe
 3586 00fd 3A       		.uleb128 0x3a
 3587 00fe 0B       		.uleb128 0xb
 3588 00ff 3B       		.uleb128 0x3b
 3589 0100 05       		.uleb128 0x5
 3590 0101 27       		.uleb128 0x27
 3591 0102 19       		.uleb128 0x19
 3592 0103 11       		.uleb128 0x11
 3593 0104 01       		.uleb128 0x1
 3594 0105 12       		.uleb128 0x12
 3595 0106 06       		.uleb128 0x6
 3596 0107 40       		.uleb128 0x40
 3597 0108 18       		.uleb128 0x18
ARM GAS  C:\Users\TB1014~1\AppData\Local\Temp\ccLG6s4V.s 			page 97


 3598 0109 9742     		.uleb128 0x2117
 3599 010b 19       		.uleb128 0x19
 3600 010c 00       		.byte	0
 3601 010d 00       		.byte	0
 3602 010e 18       		.uleb128 0x18
 3603 010f 2E       		.uleb128 0x2e
 3604 0110 01       		.byte	0x1
 3605 0111 03       		.uleb128 0x3
 3606 0112 0E       		.uleb128 0xe
 3607 0113 3A       		.uleb128 0x3a
 3608 0114 0B       		.uleb128 0xb
 3609 0115 3B       		.uleb128 0x3b
 3610 0116 05       		.uleb128 0x5
 3611 0117 27       		.uleb128 0x27
 3612 0118 19       		.uleb128 0x19
 3613 0119 49       		.uleb128 0x49
 3614 011a 13       		.uleb128 0x13
 3615 011b 11       		.uleb128 0x11
 3616 011c 01       		.uleb128 0x1
 3617 011d 12       		.uleb128 0x12
 3618 011e 06       		.uleb128 0x6
 3619 011f 40       		.uleb128 0x40
 3620 0120 18       		.uleb128 0x18
 3621 0121 9742     		.uleb128 0x2117
 3622 0123 19       		.uleb128 0x19
 3623 0124 01       		.uleb128 0x1
 3624 0125 13       		.uleb128 0x13
 3625 0126 00       		.byte	0
 3626 0127 00       		.byte	0
 3627 0128 19       		.uleb128 0x19
 3628 0129 05       		.uleb128 0x5
 3629 012a 00       		.byte	0
 3630 012b 03       		.uleb128 0x3
 3631 012c 0E       		.uleb128 0xe
 3632 012d 3A       		.uleb128 0x3a
 3633 012e 0B       		.uleb128 0xb
 3634 012f 3B       		.uleb128 0x3b
 3635 0130 05       		.uleb128 0x5
 3636 0131 49       		.uleb128 0x49
 3637 0132 13       		.uleb128 0x13
 3638 0133 02       		.uleb128 0x2
 3639 0134 17       		.uleb128 0x17
 3640 0135 00       		.byte	0
 3641 0136 00       		.byte	0
 3642 0137 1A       		.uleb128 0x1a
 3643 0138 34       		.uleb128 0x34
 3644 0139 00       		.byte	0
 3645 013a 03       		.uleb128 0x3
 3646 013b 0E       		.uleb128 0xe
 3647 013c 3A       		.uleb128 0x3a
 3648 013d 0B       		.uleb128 0xb
 3649 013e 3B       		.uleb128 0x3b
 3650 013f 05       		.uleb128 0x5
 3651 0140 49       		.uleb128 0x49
 3652 0141 13       		.uleb128 0x13
 3653 0142 02       		.uleb128 0x2
 3654 0143 17       		.uleb128 0x17
ARM GAS  C:\Users\TB1014~1\AppData\Local\Temp\ccLG6s4V.s 			page 98


 3655 0144 00       		.byte	0
 3656 0145 00       		.byte	0
 3657 0146 1B       		.uleb128 0x1b
 3658 0147 2E       		.uleb128 0x2e
 3659 0148 01       		.byte	0x1
 3660 0149 03       		.uleb128 0x3
 3661 014a 0E       		.uleb128 0xe
 3662 014b 3A       		.uleb128 0x3a
 3663 014c 0B       		.uleb128 0xb
 3664 014d 3B       		.uleb128 0x3b
 3665 014e 05       		.uleb128 0x5
 3666 014f 27       		.uleb128 0x27
 3667 0150 19       		.uleb128 0x19
 3668 0151 20       		.uleb128 0x20
 3669 0152 0B       		.uleb128 0xb
 3670 0153 01       		.uleb128 0x1
 3671 0154 13       		.uleb128 0x13
 3672 0155 00       		.byte	0
 3673 0156 00       		.byte	0
 3674 0157 1C       		.uleb128 0x1c
 3675 0158 34       		.uleb128 0x34
 3676 0159 00       		.byte	0
 3677 015a 03       		.uleb128 0x3
 3678 015b 0E       		.uleb128 0xe
 3679 015c 3A       		.uleb128 0x3a
 3680 015d 0B       		.uleb128 0xb
 3681 015e 3B       		.uleb128 0x3b
 3682 015f 05       		.uleb128 0x5
 3683 0160 49       		.uleb128 0x49
 3684 0161 13       		.uleb128 0x13
 3685 0162 00       		.byte	0
 3686 0163 00       		.byte	0
 3687 0164 1D       		.uleb128 0x1d
 3688 0165 2E       		.uleb128 0x2e
 3689 0166 01       		.byte	0x1
 3690 0167 03       		.uleb128 0x3
 3691 0168 0E       		.uleb128 0xe
 3692 0169 3A       		.uleb128 0x3a
 3693 016a 0B       		.uleb128 0xb
 3694 016b 3B       		.uleb128 0x3b
 3695 016c 05       		.uleb128 0x5
 3696 016d 27       		.uleb128 0x27
 3697 016e 19       		.uleb128 0x19
 3698 016f 11       		.uleb128 0x11
 3699 0170 01       		.uleb128 0x1
 3700 0171 12       		.uleb128 0x12
 3701 0172 06       		.uleb128 0x6
 3702 0173 40       		.uleb128 0x40
 3703 0174 18       		.uleb128 0x18
 3704 0175 9642     		.uleb128 0x2116
 3705 0177 19       		.uleb128 0x19
 3706 0178 01       		.uleb128 0x1
 3707 0179 13       		.uleb128 0x13
 3708 017a 00       		.byte	0
 3709 017b 00       		.byte	0
 3710 017c 1E       		.uleb128 0x1e
 3711 017d 1D       		.uleb128 0x1d
ARM GAS  C:\Users\TB1014~1\AppData\Local\Temp\ccLG6s4V.s 			page 99


 3712 017e 01       		.byte	0x1
 3713 017f 31       		.uleb128 0x31
 3714 0180 13       		.uleb128 0x13
 3715 0181 11       		.uleb128 0x11
 3716 0182 01       		.uleb128 0x1
 3717 0183 12       		.uleb128 0x12
 3718 0184 06       		.uleb128 0x6
 3719 0185 58       		.uleb128 0x58
 3720 0186 0B       		.uleb128 0xb
 3721 0187 59       		.uleb128 0x59
 3722 0188 05       		.uleb128 0x5
 3723 0189 00       		.byte	0
 3724 018a 00       		.byte	0
 3725 018b 1F       		.uleb128 0x1f
 3726 018c 0B       		.uleb128 0xb
 3727 018d 01       		.byte	0x1
 3728 018e 11       		.uleb128 0x11
 3729 018f 01       		.uleb128 0x1
 3730 0190 12       		.uleb128 0x12
 3731 0191 06       		.uleb128 0x6
 3732 0192 00       		.byte	0
 3733 0193 00       		.byte	0
 3734 0194 20       		.uleb128 0x20
 3735 0195 34       		.uleb128 0x34
 3736 0196 00       		.byte	0
 3737 0197 31       		.uleb128 0x31
 3738 0198 13       		.uleb128 0x13
 3739 0199 02       		.uleb128 0x2
 3740 019a 17       		.uleb128 0x17
 3741 019b 00       		.byte	0
 3742 019c 00       		.byte	0
 3743 019d 21       		.uleb128 0x21
 3744 019e 2E       		.uleb128 0x2e
 3745 019f 01       		.byte	0x1
 3746 01a0 3F       		.uleb128 0x3f
 3747 01a1 19       		.uleb128 0x19
 3748 01a2 03       		.uleb128 0x3
 3749 01a3 0E       		.uleb128 0xe
 3750 01a4 3A       		.uleb128 0x3a
 3751 01a5 0B       		.uleb128 0xb
 3752 01a6 3B       		.uleb128 0x3b
 3753 01a7 05       		.uleb128 0x5
 3754 01a8 27       		.uleb128 0x27
 3755 01a9 19       		.uleb128 0x19
 3756 01aa 11       		.uleb128 0x11
 3757 01ab 01       		.uleb128 0x1
 3758 01ac 12       		.uleb128 0x12
 3759 01ad 06       		.uleb128 0x6
 3760 01ae 40       		.uleb128 0x40
 3761 01af 18       		.uleb128 0x18
 3762 01b0 9642     		.uleb128 0x2116
 3763 01b2 19       		.uleb128 0x19
 3764 01b3 01       		.uleb128 0x1
 3765 01b4 13       		.uleb128 0x13
 3766 01b5 00       		.byte	0
 3767 01b6 00       		.byte	0
 3768 01b7 22       		.uleb128 0x22
ARM GAS  C:\Users\TB1014~1\AppData\Local\Temp\ccLG6s4V.s 			page 100


 3769 01b8 898201   		.uleb128 0x4109
 3770 01bb 01       		.byte	0x1
 3771 01bc 11       		.uleb128 0x11
 3772 01bd 01       		.uleb128 0x1
 3773 01be 31       		.uleb128 0x31
 3774 01bf 13       		.uleb128 0x13
 3775 01c0 01       		.uleb128 0x1
 3776 01c1 13       		.uleb128 0x13
 3777 01c2 00       		.byte	0
 3778 01c3 00       		.byte	0
 3779 01c4 23       		.uleb128 0x23
 3780 01c5 8A8201   		.uleb128 0x410a
 3781 01c8 00       		.byte	0
 3782 01c9 02       		.uleb128 0x2
 3783 01ca 18       		.uleb128 0x18
 3784 01cb 9142     		.uleb128 0x2111
 3785 01cd 18       		.uleb128 0x18
 3786 01ce 00       		.byte	0
 3787 01cf 00       		.byte	0
 3788 01d0 24       		.uleb128 0x24
 3789 01d1 898201   		.uleb128 0x4109
 3790 01d4 01       		.byte	0x1
 3791 01d5 11       		.uleb128 0x11
 3792 01d6 01       		.uleb128 0x1
 3793 01d7 31       		.uleb128 0x31
 3794 01d8 13       		.uleb128 0x13
 3795 01d9 00       		.byte	0
 3796 01da 00       		.byte	0
 3797 01db 25       		.uleb128 0x25
 3798 01dc 2E       		.uleb128 0x2e
 3799 01dd 01       		.byte	0x1
 3800 01de 3F       		.uleb128 0x3f
 3801 01df 19       		.uleb128 0x19
 3802 01e0 03       		.uleb128 0x3
 3803 01e1 0E       		.uleb128 0xe
 3804 01e2 3A       		.uleb128 0x3a
 3805 01e3 0B       		.uleb128 0xb
 3806 01e4 3B       		.uleb128 0x3b
 3807 01e5 0B       		.uleb128 0xb
 3808 01e6 27       		.uleb128 0x27
 3809 01e7 19       		.uleb128 0x19
 3810 01e8 11       		.uleb128 0x11
 3811 01e9 01       		.uleb128 0x1
 3812 01ea 12       		.uleb128 0x12
 3813 01eb 06       		.uleb128 0x6
 3814 01ec 40       		.uleb128 0x40
 3815 01ed 18       		.uleb128 0x18
 3816 01ee 9742     		.uleb128 0x2117
 3817 01f0 19       		.uleb128 0x19
 3818 01f1 01       		.uleb128 0x1
 3819 01f2 13       		.uleb128 0x13
 3820 01f3 00       		.byte	0
 3821 01f4 00       		.byte	0
 3822 01f5 26       		.uleb128 0x26
 3823 01f6 34       		.uleb128 0x34
 3824 01f7 00       		.byte	0
 3825 01f8 03       		.uleb128 0x3
ARM GAS  C:\Users\TB1014~1\AppData\Local\Temp\ccLG6s4V.s 			page 101


 3826 01f9 0E       		.uleb128 0xe
 3827 01fa 3A       		.uleb128 0x3a
 3828 01fb 0B       		.uleb128 0xb
 3829 01fc 3B       		.uleb128 0x3b
 3830 01fd 0B       		.uleb128 0xb
 3831 01fe 49       		.uleb128 0x49
 3832 01ff 13       		.uleb128 0x13
 3833 0200 02       		.uleb128 0x2
 3834 0201 17       		.uleb128 0x17
 3835 0202 00       		.byte	0
 3836 0203 00       		.byte	0
 3837 0204 27       		.uleb128 0x27
 3838 0205 898201   		.uleb128 0x4109
 3839 0208 00       		.byte	0
 3840 0209 11       		.uleb128 0x11
 3841 020a 01       		.uleb128 0x1
 3842 020b 31       		.uleb128 0x31
 3843 020c 13       		.uleb128 0x13
 3844 020d 00       		.byte	0
 3845 020e 00       		.byte	0
 3846 020f 28       		.uleb128 0x28
 3847 0210 2E       		.uleb128 0x2e
 3848 0211 01       		.byte	0x1
 3849 0212 3F       		.uleb128 0x3f
 3850 0213 19       		.uleb128 0x19
 3851 0214 03       		.uleb128 0x3
 3852 0215 0E       		.uleb128 0xe
 3853 0216 3A       		.uleb128 0x3a
 3854 0217 0B       		.uleb128 0xb
 3855 0218 3B       		.uleb128 0x3b
 3856 0219 05       		.uleb128 0x5
 3857 021a 27       		.uleb128 0x27
 3858 021b 19       		.uleb128 0x19
 3859 021c 11       		.uleb128 0x11
 3860 021d 01       		.uleb128 0x1
 3861 021e 12       		.uleb128 0x12
 3862 021f 06       		.uleb128 0x6
 3863 0220 40       		.uleb128 0x40
 3864 0221 18       		.uleb128 0x18
 3865 0222 9742     		.uleb128 0x2117
 3866 0224 19       		.uleb128 0x19
 3867 0225 01       		.uleb128 0x1
 3868 0226 13       		.uleb128 0x13
 3869 0227 00       		.byte	0
 3870 0228 00       		.byte	0
 3871 0229 29       		.uleb128 0x29
 3872 022a 05       		.uleb128 0x5
 3873 022b 00       		.byte	0
 3874 022c 03       		.uleb128 0x3
 3875 022d 0E       		.uleb128 0xe
 3876 022e 3A       		.uleb128 0x3a
 3877 022f 0B       		.uleb128 0xb
 3878 0230 3B       		.uleb128 0x3b
 3879 0231 05       		.uleb128 0x5
 3880 0232 49       		.uleb128 0x49
 3881 0233 13       		.uleb128 0x13
 3882 0234 02       		.uleb128 0x2
ARM GAS  C:\Users\TB1014~1\AppData\Local\Temp\ccLG6s4V.s 			page 102


 3883 0235 18       		.uleb128 0x18
 3884 0236 00       		.byte	0
 3885 0237 00       		.byte	0
 3886 0238 2A       		.uleb128 0x2a
 3887 0239 34       		.uleb128 0x34
 3888 023a 00       		.byte	0
 3889 023b 03       		.uleb128 0x3
 3890 023c 0E       		.uleb128 0xe
 3891 023d 3A       		.uleb128 0x3a
 3892 023e 0B       		.uleb128 0xb
 3893 023f 3B       		.uleb128 0x3b
 3894 0240 05       		.uleb128 0x5
 3895 0241 49       		.uleb128 0x49
 3896 0242 13       		.uleb128 0x13
 3897 0243 02       		.uleb128 0x2
 3898 0244 18       		.uleb128 0x18
 3899 0245 00       		.byte	0
 3900 0246 00       		.byte	0
 3901 0247 2B       		.uleb128 0x2b
 3902 0248 2E       		.uleb128 0x2e
 3903 0249 01       		.byte	0x1
 3904 024a 03       		.uleb128 0x3
 3905 024b 0E       		.uleb128 0xe
 3906 024c 3A       		.uleb128 0x3a
 3907 024d 0B       		.uleb128 0xb
 3908 024e 3B       		.uleb128 0x3b
 3909 024f 05       		.uleb128 0x5
 3910 0250 27       		.uleb128 0x27
 3911 0251 19       		.uleb128 0x19
 3912 0252 11       		.uleb128 0x11
 3913 0253 01       		.uleb128 0x1
 3914 0254 12       		.uleb128 0x12
 3915 0255 06       		.uleb128 0x6
 3916 0256 40       		.uleb128 0x40
 3917 0257 18       		.uleb128 0x18
 3918 0258 9742     		.uleb128 0x2117
 3919 025a 19       		.uleb128 0x19
 3920 025b 01       		.uleb128 0x1
 3921 025c 13       		.uleb128 0x13
 3922 025d 00       		.byte	0
 3923 025e 00       		.byte	0
 3924 025f 2C       		.uleb128 0x2c
 3925 0260 2E       		.uleb128 0x2e
 3926 0261 01       		.byte	0x1
 3927 0262 3F       		.uleb128 0x3f
 3928 0263 19       		.uleb128 0x19
 3929 0264 03       		.uleb128 0x3
 3930 0265 0E       		.uleb128 0xe
 3931 0266 3A       		.uleb128 0x3a
 3932 0267 0B       		.uleb128 0xb
 3933 0268 3B       		.uleb128 0x3b
 3934 0269 05       		.uleb128 0x5
 3935 026a 27       		.uleb128 0x27
 3936 026b 19       		.uleb128 0x19
 3937 026c 49       		.uleb128 0x49
 3938 026d 13       		.uleb128 0x13
 3939 026e 11       		.uleb128 0x11
ARM GAS  C:\Users\TB1014~1\AppData\Local\Temp\ccLG6s4V.s 			page 103


 3940 026f 01       		.uleb128 0x1
 3941 0270 12       		.uleb128 0x12
 3942 0271 06       		.uleb128 0x6
 3943 0272 40       		.uleb128 0x40
 3944 0273 18       		.uleb128 0x18
 3945 0274 9742     		.uleb128 0x2117
 3946 0276 19       		.uleb128 0x19
 3947 0277 01       		.uleb128 0x1
 3948 0278 13       		.uleb128 0x13
 3949 0279 00       		.byte	0
 3950 027a 00       		.byte	0
 3951 027b 2D       		.uleb128 0x2d
 3952 027c 34       		.uleb128 0x34
 3953 027d 00       		.byte	0
 3954 027e 03       		.uleb128 0x3
 3955 027f 0E       		.uleb128 0xe
 3956 0280 3A       		.uleb128 0x3a
 3957 0281 0B       		.uleb128 0xb
 3958 0282 3B       		.uleb128 0x3b
 3959 0283 0B       		.uleb128 0xb
 3960 0284 49       		.uleb128 0x49
 3961 0285 13       		.uleb128 0x13
 3962 0286 02       		.uleb128 0x2
 3963 0287 18       		.uleb128 0x18
 3964 0288 00       		.byte	0
 3965 0289 00       		.byte	0
 3966 028a 2E       		.uleb128 0x2e
 3967 028b 34       		.uleb128 0x34
 3968 028c 00       		.byte	0
 3969 028d 03       		.uleb128 0x3
 3970 028e 0E       		.uleb128 0xe
 3971 028f 3A       		.uleb128 0x3a
 3972 0290 0B       		.uleb128 0xb
 3973 0291 3B       		.uleb128 0x3b
 3974 0292 05       		.uleb128 0x5
 3975 0293 49       		.uleb128 0x49
 3976 0294 13       		.uleb128 0x13
 3977 0295 3F       		.uleb128 0x3f
 3978 0296 19       		.uleb128 0x19
 3979 0297 3C       		.uleb128 0x3c
 3980 0298 19       		.uleb128 0x19
 3981 0299 00       		.byte	0
 3982 029a 00       		.byte	0
 3983 029b 2F       		.uleb128 0x2f
 3984 029c 34       		.uleb128 0x34
 3985 029d 00       		.byte	0
 3986 029e 03       		.uleb128 0x3
 3987 029f 0E       		.uleb128 0xe
 3988 02a0 3A       		.uleb128 0x3a
 3989 02a1 0B       		.uleb128 0xb
 3990 02a2 3B       		.uleb128 0x3b
 3991 02a3 0B       		.uleb128 0xb
 3992 02a4 49       		.uleb128 0x49
 3993 02a5 13       		.uleb128 0x13
 3994 02a6 3F       		.uleb128 0x3f
 3995 02a7 19       		.uleb128 0x19
 3996 02a8 02       		.uleb128 0x2
ARM GAS  C:\Users\TB1014~1\AppData\Local\Temp\ccLG6s4V.s 			page 104


 3997 02a9 18       		.uleb128 0x18
 3998 02aa 00       		.byte	0
 3999 02ab 00       		.byte	0
 4000 02ac 30       		.uleb128 0x30
 4001 02ad 2E       		.uleb128 0x2e
 4002 02ae 01       		.byte	0x1
 4003 02af 3F       		.uleb128 0x3f
 4004 02b0 19       		.uleb128 0x19
 4005 02b1 03       		.uleb128 0x3
 4006 02b2 0E       		.uleb128 0xe
 4007 02b3 3A       		.uleb128 0x3a
 4008 02b4 0B       		.uleb128 0xb
 4009 02b5 3B       		.uleb128 0x3b
 4010 02b6 0B       		.uleb128 0xb
 4011 02b7 27       		.uleb128 0x27
 4012 02b8 19       		.uleb128 0x19
 4013 02b9 3C       		.uleb128 0x3c
 4014 02ba 19       		.uleb128 0x19
 4015 02bb 01       		.uleb128 0x1
 4016 02bc 13       		.uleb128 0x13
 4017 02bd 00       		.byte	0
 4018 02be 00       		.byte	0
 4019 02bf 31       		.uleb128 0x31
 4020 02c0 05       		.uleb128 0x5
 4021 02c1 00       		.byte	0
 4022 02c2 49       		.uleb128 0x49
 4023 02c3 13       		.uleb128 0x13
 4024 02c4 00       		.byte	0
 4025 02c5 00       		.byte	0
 4026 02c6 32       		.uleb128 0x32
 4027 02c7 2E       		.uleb128 0x2e
 4028 02c8 00       		.byte	0
 4029 02c9 3F       		.uleb128 0x3f
 4030 02ca 19       		.uleb128 0x19
 4031 02cb 03       		.uleb128 0x3
 4032 02cc 0E       		.uleb128 0xe
 4033 02cd 3A       		.uleb128 0x3a
 4034 02ce 0B       		.uleb128 0xb
 4035 02cf 3B       		.uleb128 0x3b
 4036 02d0 0B       		.uleb128 0xb
 4037 02d1 27       		.uleb128 0x27
 4038 02d2 19       		.uleb128 0x19
 4039 02d3 49       		.uleb128 0x49
 4040 02d4 13       		.uleb128 0x13
 4041 02d5 3C       		.uleb128 0x3c
 4042 02d6 19       		.uleb128 0x19
 4043 02d7 00       		.byte	0
 4044 02d8 00       		.byte	0
 4045 02d9 33       		.uleb128 0x33
 4046 02da 2E       		.uleb128 0x2e
 4047 02db 00       		.byte	0
 4048 02dc 3F       		.uleb128 0x3f
 4049 02dd 19       		.uleb128 0x19
 4050 02de 03       		.uleb128 0x3
 4051 02df 0E       		.uleb128 0xe
 4052 02e0 3A       		.uleb128 0x3a
 4053 02e1 0B       		.uleb128 0xb
ARM GAS  C:\Users\TB1014~1\AppData\Local\Temp\ccLG6s4V.s 			page 105


 4054 02e2 3B       		.uleb128 0x3b
 4055 02e3 0B       		.uleb128 0xb
 4056 02e4 27       		.uleb128 0x27
 4057 02e5 19       		.uleb128 0x19
 4058 02e6 3C       		.uleb128 0x3c
 4059 02e7 19       		.uleb128 0x19
 4060 02e8 00       		.byte	0
 4061 02e9 00       		.byte	0
 4062 02ea 34       		.uleb128 0x34
 4063 02eb 2E       		.uleb128 0x2e
 4064 02ec 01       		.byte	0x1
 4065 02ed 3F       		.uleb128 0x3f
 4066 02ee 19       		.uleb128 0x19
 4067 02ef 03       		.uleb128 0x3
 4068 02f0 0E       		.uleb128 0xe
 4069 02f1 3A       		.uleb128 0x3a
 4070 02f2 0B       		.uleb128 0xb
 4071 02f3 3B       		.uleb128 0x3b
 4072 02f4 0B       		.uleb128 0xb
 4073 02f5 27       		.uleb128 0x27
 4074 02f6 19       		.uleb128 0x19
 4075 02f7 49       		.uleb128 0x49
 4076 02f8 13       		.uleb128 0x13
 4077 02f9 3C       		.uleb128 0x3c
 4078 02fa 19       		.uleb128 0x19
 4079 02fb 01       		.uleb128 0x1
 4080 02fc 13       		.uleb128 0x13
 4081 02fd 00       		.byte	0
 4082 02fe 00       		.byte	0
 4083 02ff 35       		.uleb128 0x35
 4084 0300 2E       		.uleb128 0x2e
 4085 0301 01       		.byte	0x1
 4086 0302 3F       		.uleb128 0x3f
 4087 0303 19       		.uleb128 0x19
 4088 0304 03       		.uleb128 0x3
 4089 0305 0E       		.uleb128 0xe
 4090 0306 3A       		.uleb128 0x3a
 4091 0307 0B       		.uleb128 0xb
 4092 0308 3B       		.uleb128 0x3b
 4093 0309 0B       		.uleb128 0xb
 4094 030a 27       		.uleb128 0x27
 4095 030b 19       		.uleb128 0x19
 4096 030c 3C       		.uleb128 0x3c
 4097 030d 19       		.uleb128 0x19
 4098 030e 00       		.byte	0
 4099 030f 00       		.byte	0
 4100 0310 00       		.byte	0
 4101              		.section	.debug_loc,"",%progbits
 4102              	.Ldebug_loc0:
 4103              	.LLST0:
 4104 0000 00000000 		.4byte	.LVL0
 4105 0004 06000000 		.4byte	.LVL2
 4106 0008 0100     		.2byte	0x1
 4107 000a 50       		.byte	0x50
 4108 000b 06000000 		.4byte	.LVL2
 4109 000f 0C000000 		.4byte	.LFE16
 4110 0013 0400     		.2byte	0x4
ARM GAS  C:\Users\TB1014~1\AppData\Local\Temp\ccLG6s4V.s 			page 106


 4111 0015 F3       		.byte	0xf3
 4112 0016 01       		.uleb128 0x1
 4113 0017 50       		.byte	0x50
 4114 0018 9F       		.byte	0x9f
 4115 0019 00000000 		.4byte	0
 4116 001d 00000000 		.4byte	0
 4117              	.LLST1:
 4118 0021 02000000 		.4byte	.LVL1
 4119 0025 0A000000 		.4byte	.LVL3
 4120 0029 0100     		.2byte	0x1
 4121 002b 53       		.byte	0x53
 4122 002c 0A000000 		.4byte	.LVL3
 4123 0030 0C000000 		.4byte	.LFE16
 4124 0034 0700     		.2byte	0x7
 4125 0036 70       		.byte	0x70
 4126 0037 00       		.sleb128 0
 4127 0038 0A       		.byte	0xa
 4128 0039 FFFF     		.2byte	0xffff
 4129 003b 1A       		.byte	0x1a
 4130 003c 9F       		.byte	0x9f
 4131 003d 00000000 		.4byte	0
 4132 0041 00000000 		.4byte	0
 4133              	.LLST2:
 4134 0045 0E000000 		.4byte	.LVL4
 4135 0049 12000000 		.4byte	.LVL5
 4136 004d 0600     		.2byte	0x6
 4137 004f 73       		.byte	0x73
 4138 0050 00       		.sleb128 0
 4139 0051 08       		.byte	0x8
 4140 0052 FF       		.byte	0xff
 4141 0053 1A       		.byte	0x1a
 4142 0054 9F       		.byte	0x9f
 4143 0055 12000000 		.4byte	.LVL5
 4144 0059 1A000000 		.4byte	.LVL6
 4145 005d 0100     		.2byte	0x1
 4146 005f 53       		.byte	0x53
 4147 0060 1A000000 		.4byte	.LVL6
 4148 0064 1C000000 		.4byte	.LVL7
 4149 0068 0500     		.2byte	0x5
 4150 006a 0C       		.byte	0xc
 4151 006b C0010B40 		.4byte	0x400b01c0
 4152 006f 00000000 		.4byte	0
 4153 0073 00000000 		.4byte	0
 4154              	.LLST3:
 4155 0077 98000000 		.4byte	.LVL13
 4156 007b 9C000000 		.4byte	.LVL14
 4157 007f 0100     		.2byte	0x1
 4158 0081 53       		.byte	0x53
 4159 0082 00000000 		.4byte	0
 4160 0086 00000000 		.4byte	0
 4161              	.LLST4:
 4162 008a 52000000 		.4byte	.LVL8
 4163 008e 58000000 		.4byte	.LVL9
 4164 0092 0400     		.2byte	0x4
 4165 0094 0A       		.byte	0xa
 4166 0095 E001     		.2byte	0x1e0
 4167 0097 9F       		.byte	0x9f
ARM GAS  C:\Users\TB1014~1\AppData\Local\Temp\ccLG6s4V.s 			page 107


 4168 0098 58000000 		.4byte	.LVL9
 4169 009c 68000000 		.4byte	.LVL11
 4170 00a0 0100     		.2byte	0x1
 4171 00a2 53       		.byte	0x53
 4172 00a3 00000000 		.4byte	0
 4173 00a7 00000000 		.4byte	0
 4174              	.LLST5:
 4175 00ab 82000000 		.4byte	.LVL12
 4176 00af B6000000 		.4byte	.LVL15
 4177 00b3 0100     		.2byte	0x1
 4178 00b5 50       		.byte	0x50
 4179 00b6 00000000 		.4byte	0
 4180 00ba 00000000 		.4byte	0
 4181              	.LLST6:
 4182 00be AA000000 		.4byte	.LVL27
 4183 00c2 B7000000 		.4byte	.LVL30-1
 4184 00c6 0100     		.2byte	0x1
 4185 00c8 50       		.byte	0x50
 4186 00c9 BC000000 		.4byte	.LVL31
 4187 00cd C7000000 		.4byte	.LVL34-1
 4188 00d1 0100     		.2byte	0x1
 4189 00d3 50       		.byte	0x50
 4190 00d4 CC000000 		.4byte	.LVL35
 4191 00d8 DF000000 		.4byte	.LVL39-1
 4192 00dc 0100     		.2byte	0x1
 4193 00de 50       		.byte	0x50
 4194 00df E4000000 		.4byte	.LVL40
 4195 00e3 F5000000 		.4byte	.LVL44-1
 4196 00e7 0100     		.2byte	0x1
 4197 00e9 50       		.byte	0x50
 4198 00ea 00000000 		.4byte	0
 4199 00ee 00000000 		.4byte	0
 4200              	.LLST7:
 4201 00f2 5A000000 		.4byte	.LVL19
 4202 00f6 66000000 		.4byte	.LVL21
 4203 00fa 0100     		.2byte	0x1
 4204 00fc 52       		.byte	0x52
 4205 00fd 66000000 		.4byte	.LVL21
 4206 0101 68000000 		.4byte	.LVL22
 4207 0105 0500     		.2byte	0x5
 4208 0107 0C       		.byte	0xc
 4209 0108 94020B40 		.4byte	0x400b0294
 4210 010c 74000000 		.4byte	.LVL23
 4211 0110 7E000000 		.4byte	.LVL25
 4212 0114 0100     		.2byte	0x1
 4213 0116 52       		.byte	0x52
 4214 0117 7E000000 		.4byte	.LVL25
 4215 011b 80000000 		.4byte	.LVL26
 4216 011f 0200     		.2byte	0x2
 4217 0121 71       		.byte	0x71
 4218 0122 00       		.sleb128 0
 4219 0123 AE000000 		.4byte	.LVL28
 4220 0127 B2000000 		.4byte	.LVL29
 4221 012b 0100     		.2byte	0x1
 4222 012d 52       		.byte	0x52
 4223 012e B2000000 		.4byte	.LVL29
 4224 0132 B7000000 		.4byte	.LVL30-1
ARM GAS  C:\Users\TB1014~1\AppData\Local\Temp\ccLG6s4V.s 			page 108


 4225 0136 0100     		.2byte	0x1
 4226 0138 53       		.byte	0x53
 4227 0139 BE000000 		.4byte	.LVL32
 4228 013d C2000000 		.4byte	.LVL33
 4229 0141 0100     		.2byte	0x1
 4230 0143 52       		.byte	0x52
 4231 0144 C2000000 		.4byte	.LVL33
 4232 0148 C7000000 		.4byte	.LVL34-1
 4233 014c 0100     		.2byte	0x1
 4234 014e 53       		.byte	0x53
 4235 014f D0000000 		.4byte	.LVL36
 4236 0153 D4000000 		.4byte	.LVL37
 4237 0157 0100     		.2byte	0x1
 4238 0159 52       		.byte	0x52
 4239 015a D4000000 		.4byte	.LVL37
 4240 015e DF000000 		.4byte	.LVL39-1
 4241 0162 0100     		.2byte	0x1
 4242 0164 53       		.byte	0x53
 4243 0165 E6000000 		.4byte	.LVL41
 4244 0169 EA000000 		.4byte	.LVL42
 4245 016d 0100     		.2byte	0x1
 4246 016f 52       		.byte	0x52
 4247 0170 EA000000 		.4byte	.LVL42
 4248 0174 F5000000 		.4byte	.LVL44-1
 4249 0178 0100     		.2byte	0x1
 4250 017a 53       		.byte	0x53
 4251 017b 00000000 		.4byte	0
 4252 017f 00000000 		.4byte	0
 4253              	.LLST8:
 4254 0183 00000000 		.4byte	.LVL49
 4255 0187 18000000 		.4byte	.LVL51
 4256 018b 0100     		.2byte	0x1
 4257 018d 50       		.byte	0x50
 4258 018e 18000000 		.4byte	.LVL51
 4259 0192 B0000000 		.4byte	.LFE9
 4260 0196 0200     		.2byte	0x2
 4261 0198 91       		.byte	0x91
 4262 0199 64       		.sleb128 -28
 4263 019a 00000000 		.4byte	0
 4264 019e 00000000 		.4byte	0
 4265              	.LLST9:
 4266 01a2 00000000 		.4byte	.LVL49
 4267 01a6 1B000000 		.4byte	.LVL52-1
 4268 01aa 0100     		.2byte	0x1
 4269 01ac 51       		.byte	0x51
 4270 01ad 1B000000 		.4byte	.LVL52-1
 4271 01b1 B0000000 		.4byte	.LFE9
 4272 01b5 0400     		.2byte	0x4
 4273 01b7 F3       		.byte	0xf3
 4274 01b8 01       		.uleb128 0x1
 4275 01b9 51       		.byte	0x51
 4276 01ba 9F       		.byte	0x9f
 4277 01bb 00000000 		.4byte	0
 4278 01bf 00000000 		.4byte	0
 4279              	.LLST10:
 4280 01c3 16000000 		.4byte	.LVL50
 4281 01c7 1B000000 		.4byte	.LVL52-1
ARM GAS  C:\Users\TB1014~1\AppData\Local\Temp\ccLG6s4V.s 			page 109


 4282 01cb 0100     		.2byte	0x1
 4283 01cd 53       		.byte	0x53
 4284 01ce 1B000000 		.4byte	.LVL52-1
 4285 01d2 4C000000 		.4byte	.LVL58
 4286 01d6 0200     		.2byte	0x2
 4287 01d8 7D       		.byte	0x7d
 4288 01d9 00       		.sleb128 0
 4289 01da 4C000000 		.4byte	.LVL58
 4290 01de 62000000 		.4byte	.LVL62
 4291 01e2 0100     		.2byte	0x1
 4292 01e4 53       		.byte	0x53
 4293 01e5 64000000 		.4byte	.LVL63
 4294 01e9 7E000000 		.4byte	.LVL66
 4295 01ed 0200     		.2byte	0x2
 4296 01ef 7D       		.byte	0x7d
 4297 01f0 00       		.sleb128 0
 4298 01f1 7E000000 		.4byte	.LVL66
 4299 01f5 9A000000 		.4byte	.LVL70
 4300 01f9 0100     		.2byte	0x1
 4301 01fb 53       		.byte	0x53
 4302 01fc 00000000 		.4byte	0
 4303 0200 00000000 		.4byte	0
 4304              	.LLST11:
 4305 0204 16000000 		.4byte	.LVL50
 4306 0208 5E000000 		.4byte	.LVL61
 4307 020c 0200     		.2byte	0x2
 4308 020e 76       		.byte	0x76
 4309 020f 04       		.sleb128 4
 4310 0210 00000000 		.4byte	0
 4311 0214 00000000 		.4byte	0
 4312              	.LLST12:
 4313 0218 16000000 		.4byte	.LVL50
 4314 021c 62000000 		.4byte	.LVL62
 4315 0220 0300     		.2byte	0x3
 4316 0222 08       		.byte	0x8
 4317 0223 40       		.byte	0x40
 4318 0224 9F       		.byte	0x9f
 4319 0225 62000000 		.4byte	.LVL62
 4320 0229 64000000 		.4byte	.LVL63
 4321 022d 0100     		.2byte	0x1
 4322 022f 56       		.byte	0x56
 4323 0230 64000000 		.4byte	.LVL63
 4324 0234 98000000 		.4byte	.LVL69
 4325 0238 0100     		.2byte	0x1
 4326 023a 55       		.byte	0x55
 4327 023b 98000000 		.4byte	.LVL69
 4328 023f A0000000 		.4byte	.LVL72
 4329 0243 0100     		.2byte	0x1
 4330 0245 56       		.byte	0x56
 4331 0246 00000000 		.4byte	0
 4332 024a 00000000 		.4byte	0
 4333              	.LLST13:
 4334 024e 16000000 		.4byte	.LVL50
 4335 0252 62000000 		.4byte	.LVL62
 4336 0256 0300     		.2byte	0x3
 4337 0258 08       		.byte	0x8
 4338 0259 20       		.byte	0x20
ARM GAS  C:\Users\TB1014~1\AppData\Local\Temp\ccLG6s4V.s 			page 110


 4339 025a 9F       		.byte	0x9f
 4340 025b 62000000 		.4byte	.LVL62
 4341 025f 64000000 		.4byte	.LVL63
 4342 0263 0100     		.2byte	0x1
 4343 0265 53       		.byte	0x53
 4344 0266 64000000 		.4byte	.LVL63
 4345 026a 9C000000 		.4byte	.LVL71
 4346 026e 0100     		.2byte	0x1
 4347 0270 56       		.byte	0x56
 4348 0271 9C000000 		.4byte	.LVL71
 4349 0275 A0000000 		.4byte	.LVL72
 4350 0279 0100     		.2byte	0x1
 4351 027b 53       		.byte	0x53
 4352 027c 00000000 		.4byte	0
 4353 0280 00000000 		.4byte	0
 4354              	.LLST14:
 4355 0284 46000000 		.4byte	.LVL57
 4356 0288 4C000000 		.4byte	.LVL58
 4357 028c 0200     		.2byte	0x2
 4358 028e 30       		.byte	0x30
 4359 028f 9F       		.byte	0x9f
 4360 0290 4C000000 		.4byte	.LVL58
 4361 0294 62000000 		.4byte	.LVL62
 4362 0298 0100     		.2byte	0x1
 4363 029a 52       		.byte	0x52
 4364 029b 62000000 		.4byte	.LVL62
 4365 029f 64000000 		.4byte	.LVL63
 4366 02a3 0100     		.2byte	0x1
 4367 02a5 51       		.byte	0x51
 4368 02a6 7E000000 		.4byte	.LVL66
 4369 02aa A0000000 		.4byte	.LVL72
 4370 02ae 0100     		.2byte	0x1
 4371 02b0 51       		.byte	0x51
 4372 02b1 00000000 		.4byte	0
 4373 02b5 00000000 		.4byte	0
 4374              	.LLST15:
 4375 02b9 46000000 		.4byte	.LVL57
 4376 02bd A0000000 		.4byte	.LVL72
 4377 02c1 0100     		.2byte	0x1
 4378 02c3 57       		.byte	0x57
 4379 02c4 00000000 		.4byte	0
 4380 02c8 00000000 		.4byte	0
 4381              	.LLST16:
 4382 02cc 16000000 		.4byte	.LVL50
 4383 02d0 1B000000 		.4byte	.LVL52-1
 4384 02d4 0B00     		.2byte	0xb
 4385 02d6 76       		.byte	0x76
 4386 02d7 04       		.sleb128 4
 4387 02d8 06       		.byte	0x6
 4388 02d9 23       		.byte	0x23
 4389 02da 0B       		.uleb128 0xb
 4390 02db 94       		.byte	0x94
 4391 02dc 01       		.byte	0x1
 4392 02dd 08       		.byte	0x8
 4393 02de FF       		.byte	0xff
 4394 02df 1A       		.byte	0x1a
 4395 02e0 9F       		.byte	0x9f
ARM GAS  C:\Users\TB1014~1\AppData\Local\Temp\ccLG6s4V.s 			page 111


 4396 02e1 22000000 		.4byte	.LVL53
 4397 02e5 24000000 		.4byte	.LVL54
 4398 02e9 0700     		.2byte	0x7
 4399 02eb 70       		.byte	0x70
 4400 02ec 00       		.sleb128 0
 4401 02ed 0A       		.byte	0xa
 4402 02ee FFFF     		.2byte	0xffff
 4403 02f0 1A       		.byte	0x1a
 4404 02f1 9F       		.byte	0x9f
 4405 02f2 24000000 		.4byte	.LVL54
 4406 02f6 29000000 		.4byte	.LVL55-1
 4407 02fa 0100     		.2byte	0x1
 4408 02fc 50       		.byte	0x50
 4409 02fd 2C000000 		.4byte	.LVL56
 4410 0301 62000000 		.4byte	.LVL62
 4411 0305 0100     		.2byte	0x1
 4412 0307 50       		.byte	0x50
 4413 0308 62000000 		.4byte	.LVL62
 4414 030c A2000000 		.4byte	.LVL73
 4415 0310 0100     		.2byte	0x1
 4416 0312 54       		.byte	0x54
 4417 0313 00000000 		.4byte	0
 4418 0317 00000000 		.4byte	0
 4419              	.LLST17:
 4420 031b 00000000 		.4byte	.LVL74
 4421 031f 16000000 		.4byte	.LVL78
 4422 0323 0100     		.2byte	0x1
 4423 0325 50       		.byte	0x50
 4424 0326 16000000 		.4byte	.LVL78
 4425 032a 20000000 		.4byte	.LFE11
 4426 032e 0400     		.2byte	0x4
 4427 0330 F3       		.byte	0xf3
 4428 0331 01       		.uleb128 0x1
 4429 0332 50       		.byte	0x50
 4430 0333 9F       		.byte	0x9f
 4431 0334 00000000 		.4byte	0
 4432 0338 00000000 		.4byte	0
 4433              	.LLST18:
 4434 033c 06000000 		.4byte	.LVL75
 4435 0340 0E000000 		.4byte	.LVL76
 4436 0344 0100     		.2byte	0x1
 4437 0346 52       		.byte	0x52
 4438 0347 0E000000 		.4byte	.LVL76
 4439 034b 14000000 		.4byte	.LVL77
 4440 034f 0100     		.2byte	0x1
 4441 0351 53       		.byte	0x53
 4442 0352 14000000 		.4byte	.LVL77
 4443 0356 1C000000 		.4byte	.LVL79
 4444 035a 0100     		.2byte	0x1
 4445 035c 52       		.byte	0x52
 4446 035d 1C000000 		.4byte	.LVL79
 4447 0361 20000000 		.4byte	.LFE11
 4448 0365 0100     		.2byte	0x1
 4449 0367 53       		.byte	0x53
 4450 0368 00000000 		.4byte	0
 4451 036c 00000000 		.4byte	0
 4452              	.LLST19:
ARM GAS  C:\Users\TB1014~1\AppData\Local\Temp\ccLG6s4V.s 			page 112


 4453 0370 00000000 		.4byte	.LVL80
 4454 0374 16000000 		.4byte	.LVL84
 4455 0378 0100     		.2byte	0x1
 4456 037a 50       		.byte	0x50
 4457 037b 16000000 		.4byte	.LVL84
 4458 037f 20000000 		.4byte	.LFE12
 4459 0383 0400     		.2byte	0x4
 4460 0385 F3       		.byte	0xf3
 4461 0386 01       		.uleb128 0x1
 4462 0387 50       		.byte	0x50
 4463 0388 9F       		.byte	0x9f
 4464 0389 00000000 		.4byte	0
 4465 038d 00000000 		.4byte	0
 4466              	.LLST20:
 4467 0391 06000000 		.4byte	.LVL81
 4468 0395 14000000 		.4byte	.LVL83
 4469 0399 0100     		.2byte	0x1
 4470 039b 53       		.byte	0x53
 4471 039c 14000000 		.4byte	.LVL83
 4472 03a0 1C000000 		.4byte	.LVL85
 4473 03a4 0100     		.2byte	0x1
 4474 03a6 52       		.byte	0x52
 4475 03a7 1C000000 		.4byte	.LVL85
 4476 03ab 20000000 		.4byte	.LFE12
 4477 03af 0100     		.2byte	0x1
 4478 03b1 53       		.byte	0x53
 4479 03b2 00000000 		.4byte	0
 4480 03b6 00000000 		.4byte	0
 4481              	.LLST21:
 4482 03ba 06000000 		.4byte	.LVL93
 4483 03be 18000000 		.4byte	.LVL96
 4484 03c2 0100     		.2byte	0x1
 4485 03c4 53       		.byte	0x53
 4486 03c5 1A000000 		.4byte	.LVL97
 4487 03c9 20000000 		.4byte	.LVL98
 4488 03cd 0100     		.2byte	0x1
 4489 03cf 52       		.byte	0x52
 4490 03d0 20000000 		.4byte	.LVL98
 4491 03d4 2E000000 		.4byte	.LFE14
 4492 03d8 0100     		.2byte	0x1
 4493 03da 53       		.byte	0x53
 4494 03db 00000000 		.4byte	0
 4495 03df 00000000 		.4byte	0
 4496              	.LLST22:
 4497 03e3 00000000 		.4byte	.LVL112
 4498 03e7 06000000 		.4byte	.LVL113
 4499 03eb 0100     		.2byte	0x1
 4500 03ed 50       		.byte	0x50
 4501 03ee 06000000 		.4byte	.LVL113
 4502 03f2 18000000 		.4byte	.LVL116
 4503 03f6 0100     		.2byte	0x1
 4504 03f8 54       		.byte	0x54
 4505 03f9 18000000 		.4byte	.LVL116
 4506 03fd 70000000 		.4byte	.LFE3
 4507 0401 0400     		.2byte	0x4
 4508 0403 F3       		.byte	0xf3
 4509 0404 01       		.uleb128 0x1
ARM GAS  C:\Users\TB1014~1\AppData\Local\Temp\ccLG6s4V.s 			page 113


 4510 0405 50       		.byte	0x50
 4511 0406 9F       		.byte	0x9f
 4512 0407 00000000 		.4byte	0
 4513 040b 00000000 		.4byte	0
 4514              	.LLST23:
 4515 040f 24000000 		.4byte	.LVL117
 4516 0413 50000000 		.4byte	.LVL128
 4517 0417 0100     		.2byte	0x1
 4518 0419 55       		.byte	0x55
 4519 041a 00000000 		.4byte	0
 4520 041e 00000000 		.4byte	0
 4521              	.LLST24:
 4522 0422 38000000 		.4byte	.LVL120
 4523 0426 42000000 		.4byte	.LVL124
 4524 042a 0100     		.2byte	0x1
 4525 042c 52       		.byte	0x52
 4526 042d 42000000 		.4byte	.LVL124
 4527 0431 50000000 		.4byte	.LVL127
 4528 0435 0100     		.2byte	0x1
 4529 0437 54       		.byte	0x54
 4530 0438 00000000 		.4byte	0
 4531 043c 00000000 		.4byte	0
 4532              	.LLST25:
 4533 0440 26000000 		.4byte	.LVL118
 4534 0444 3A000000 		.4byte	.LVL121
 4535 0448 0100     		.2byte	0x1
 4536 044a 54       		.byte	0x54
 4537 044b 3A000000 		.4byte	.LVL121
 4538 044f 3C000000 		.4byte	.LVL122
 4539 0453 0300     		.2byte	0x3
 4540 0455 74       		.byte	0x74
 4541 0456 01       		.sleb128 1
 4542 0457 9F       		.byte	0x9f
 4543 0458 3E000000 		.4byte	.LVL123
 4544 045c 44000000 		.4byte	.LVL125
 4545 0460 0100     		.2byte	0x1
 4546 0462 53       		.byte	0x53
 4547 0463 00000000 		.4byte	0
 4548 0467 00000000 		.4byte	0
 4549              	.LLST26:
 4550 046b 00000000 		.4byte	.LVL129
 4551 046f 07000000 		.4byte	.LVL130-1
 4552 0473 0100     		.2byte	0x1
 4553 0475 50       		.byte	0x50
 4554 0476 07000000 		.4byte	.LVL130-1
 4555 047a 78000000 		.4byte	.LFE4
 4556 047e 0400     		.2byte	0x4
 4557 0480 F3       		.byte	0xf3
 4558 0481 01       		.uleb128 0x1
 4559 0482 50       		.byte	0x50
 4560 0483 9F       		.byte	0x9f
 4561 0484 00000000 		.4byte	0
 4562 0488 00000000 		.4byte	0
 4563              	.LLST27:
 4564 048c 00000000 		.4byte	.LVL129
 4565 0490 07000000 		.4byte	.LVL130-1
 4566 0494 0100     		.2byte	0x1
ARM GAS  C:\Users\TB1014~1\AppData\Local\Temp\ccLG6s4V.s 			page 114


 4567 0496 51       		.byte	0x51
 4568 0497 07000000 		.4byte	.LVL130-1
 4569 049b 34000000 		.4byte	.LVL135
 4570 049f 0100     		.2byte	0x1
 4571 04a1 54       		.byte	0x54
 4572 04a2 34000000 		.4byte	.LVL135
 4573 04a6 78000000 		.4byte	.LFE4
 4574 04aa 0400     		.2byte	0x4
 4575 04ac F3       		.byte	0xf3
 4576 04ad 01       		.uleb128 0x1
 4577 04ae 51       		.byte	0x51
 4578 04af 9F       		.byte	0x9f
 4579 04b0 00000000 		.4byte	0
 4580 04b4 00000000 		.4byte	0
 4581              	.LLST28:
 4582 04b8 30000000 		.4byte	.LVL134
 4583 04bc 51000000 		.4byte	.LVL136-1
 4584 04c0 0100     		.2byte	0x1
 4585 04c2 51       		.byte	0x51
 4586 04c3 00000000 		.4byte	0
 4587 04c7 00000000 		.4byte	0
 4588              	.LLST29:
 4589 04cb 28000000 		.4byte	.LVL132
 4590 04cf 2A000000 		.4byte	.LVL133
 4591 04d3 0100     		.2byte	0x1
 4592 04d5 50       		.byte	0x50
 4593 04d6 2A000000 		.4byte	.LVL133
 4594 04da 62000000 		.4byte	.LVL138
 4595 04de 0100     		.2byte	0x1
 4596 04e0 56       		.byte	0x56
 4597 04e1 00000000 		.4byte	0
 4598 04e5 00000000 		.4byte	0
 4599              	.LLST30:
 4600 04e9 00000000 		.4byte	.LVL139
 4601 04ed 04000000 		.4byte	.LVL140
 4602 04f1 0100     		.2byte	0x1
 4603 04f3 50       		.byte	0x50
 4604 04f4 04000000 		.4byte	.LVL140
 4605 04f8 14000000 		.4byte	.LFE15
 4606 04fc 0400     		.2byte	0x4
 4607 04fe F3       		.byte	0xf3
 4608 04ff 01       		.uleb128 0x1
 4609 0500 50       		.byte	0x50
 4610 0501 9F       		.byte	0x9f
 4611 0502 00000000 		.4byte	0
 4612 0506 00000000 		.4byte	0
 4613              		.section	.debug_aranges,"",%progbits
 4614 0000 9C000000 		.4byte	0x9c
 4615 0004 0200     		.2byte	0x2
 4616 0006 00000000 		.4byte	.Ldebug_info0
 4617 000a 04       		.byte	0x4
 4618 000b 00       		.byte	0
 4619 000c 0000     		.2byte	0
 4620 000e 0000     		.2byte	0
 4621 0010 00000000 		.4byte	.LFB8
 4622 0014 38000000 		.4byte	.LFE8-.LFB8
 4623 0018 00000000 		.4byte	.LFB16
ARM GAS  C:\Users\TB1014~1\AppData\Local\Temp\ccLG6s4V.s 			page 115


 4624 001c 0C000000 		.4byte	.LFE16-.LFB16
 4625 0020 00000000 		.4byte	.LFB10
 4626 0024 38010000 		.4byte	.LFE10-.LFB10
 4627 0028 00000000 		.4byte	.LFB17
 4628 002c 90000000 		.4byte	.LFE17-.LFB17
 4629 0030 00000000 		.4byte	.LFB1
 4630 0034 A8010000 		.4byte	.LFE1-.LFB1
 4631 0038 00000000 		.4byte	.LFB6
 4632 003c 18000000 		.4byte	.LFE6-.LFB6
 4633 0040 00000000 		.4byte	.LFB9
 4634 0044 B0000000 		.4byte	.LFE9-.LFB9
 4635 0048 00000000 		.4byte	.LFB11
 4636 004c 20000000 		.4byte	.LFE11-.LFB11
 4637 0050 00000000 		.4byte	.LFB12
 4638 0054 20000000 		.4byte	.LFE12-.LFB12
 4639 0058 00000000 		.4byte	.LFB5
 4640 005c 5C000000 		.4byte	.LFE5-.LFB5
 4641 0060 00000000 		.4byte	.LFB13
 4642 0064 0C000000 		.4byte	.LFE13-.LFB13
 4643 0068 00000000 		.4byte	.LFB14
 4644 006c 2E000000 		.4byte	.LFE14-.LFB14
 4645 0070 00000000 		.4byte	.LFB7
 4646 0074 CC000000 		.4byte	.LFE7-.LFB7
 4647 0078 00000000 		.4byte	.LFB2
 4648 007c 24000000 		.4byte	.LFE2-.LFB2
 4649 0080 00000000 		.4byte	.LFB3
 4650 0084 70000000 		.4byte	.LFE3-.LFB3
 4651 0088 00000000 		.4byte	.LFB4
 4652 008c 78000000 		.4byte	.LFE4-.LFB4
 4653 0090 00000000 		.4byte	.LFB15
 4654 0094 14000000 		.4byte	.LFE15-.LFB15
 4655 0098 00000000 		.4byte	0
 4656 009c 00000000 		.4byte	0
 4657              		.section	.debug_ranges,"",%progbits
 4658              	.Ldebug_ranges0:
 4659 0000 00000000 		.4byte	.LFB8
 4660 0004 38000000 		.4byte	.LFE8
 4661 0008 00000000 		.4byte	.LFB16
 4662 000c 0C000000 		.4byte	.LFE16
 4663 0010 00000000 		.4byte	.LFB10
 4664 0014 38010000 		.4byte	.LFE10
 4665 0018 00000000 		.4byte	.LFB17
 4666 001c 90000000 		.4byte	.LFE17
 4667 0020 00000000 		.4byte	.LFB1
 4668 0024 A8010000 		.4byte	.LFE1
 4669 0028 00000000 		.4byte	.LFB6
 4670 002c 18000000 		.4byte	.LFE6
 4671 0030 00000000 		.4byte	.LFB9
 4672 0034 B0000000 		.4byte	.LFE9
 4673 0038 00000000 		.4byte	.LFB11
 4674 003c 20000000 		.4byte	.LFE11
 4675 0040 00000000 		.4byte	.LFB12
 4676 0044 20000000 		.4byte	.LFE12
 4677 0048 00000000 		.4byte	.LFB5
 4678 004c 5C000000 		.4byte	.LFE5
 4679 0050 00000000 		.4byte	.LFB13
 4680 0054 0C000000 		.4byte	.LFE13
ARM GAS  C:\Users\TB1014~1\AppData\Local\Temp\ccLG6s4V.s 			page 116


 4681 0058 00000000 		.4byte	.LFB14
 4682 005c 2E000000 		.4byte	.LFE14
 4683 0060 00000000 		.4byte	.LFB7
 4684 0064 CC000000 		.4byte	.LFE7
 4685 0068 00000000 		.4byte	.LFB2
 4686 006c 24000000 		.4byte	.LFE2
 4687 0070 00000000 		.4byte	.LFB3
 4688 0074 70000000 		.4byte	.LFE3
 4689 0078 00000000 		.4byte	.LFB4
 4690 007c 78000000 		.4byte	.LFE4
 4691 0080 00000000 		.4byte	.LFB15
 4692 0084 14000000 		.4byte	.LFE15
 4693 0088 00000000 		.4byte	0
 4694 008c 00000000 		.4byte	0
 4695              		.section	.debug_line,"",%progbits
 4696              	.Ldebug_line0:
 4697 0000 19030000 		.section	.debug_str,"MS",%progbits,1
 4697      0200A800 
 4697      00000201 
 4697      FB0E0D00 
 4697      01010101 
 4698              	.LASF160:
 4699 0000 43617053 		.ascii	"CapSense_curFlashWdgtPtr\000"
 4699      656E7365 
 4699      5F637572 
 4699      466C6173 
 4699      68576467 
 4700              	.LASF170:
 4701 0019 474E5520 		.ascii	"GNU C 4.9.3 20150303 (release) [ARM/embedded-4_9-br"
 4701      4320342E 
 4701      392E3320 
 4701      32303135 
 4701      30333033 
 4702 004c 616E6368 		.ascii	"anch revision 221220] -mcpu=cortex-m0plus -mthumb -"
 4702      20726576 
 4702      6973696F 
 4702      6E203232 
 4702      31323230 
 4703 007f 67202D4F 		.ascii	"g -Og -ffunction-sections -ffat-lto-objects\000"
 4703      67202D66 
 4703      66756E63 
 4703      74696F6E 
 4703      2D736563 
 4704              	.LASF149:
 4705 00ab 43617053 		.ascii	"CapSense_eleCsxDisconnectFlag\000"
 4705      656E7365 
 4705      5F656C65 
 4705      43737844 
 4705      6973636F 
 4706              	.LASF173:
 4707 00c9 43617053 		.ascii	"CapSense_SsCSXPostSingleScan\000"
 4707      656E7365 
 4707      5F537343 
 4707      5358506F 
 4707      73745369 
 4708              	.LASF168:
 4709 00e6 43617053 		.ascii	"CapSense_SsSetIOsInDefaultState\000"
ARM GAS  C:\Users\TB1014~1\AppData\Local\Temp\ccLG6s4V.s 			page 117


 4709      656E7365 
 4709      5F537353 
 4709      6574494F 
 4709      73496E44 
 4710              	.LASF111:
 4711 0106 43617053 		.ascii	"CapSense_CSXInitialize\000"
 4711      656E7365 
 4711      5F435358 
 4711      496E6974 
 4711      69616C69 
 4712              	.LASF113:
 4713 011d 43617053 		.ascii	"CapSense_CSXScanExt\000"
 4713      656E7365 
 4713      5F435358 
 4713      5363616E 
 4713      45787400 
 4714              	.LASF73:
 4715 0131 736E7254 		.ascii	"snrTestWidgetId\000"
 4715      65737457 
 4715      69646765 
 4715      74496400 
 4716              	.LASF21:
 4717 0141 43617053 		.ascii	"CapSense_UNDEFINED_E\000"
 4717      656E7365 
 4717      5F554E44 
 4717      4546494E 
 4717      45445F45 
 4718              	.LASF8:
 4719 0156 756E7369 		.ascii	"unsigned int\000"
 4719      676E6564 
 4719      20696E74 
 4719      00
 4720              	.LASF155:
 4721 0163 43617053 		.ascii	"CapSense_CSXPostScanApiPtr\000"
 4721      656E7365 
 4721      5F435358 
 4721      506F7374 
 4721      5363616E 
 4722              	.LASF121:
 4723 017e 6E657874 		.ascii	"nextIdacMask\000"
 4723      49646163 
 4723      4D61736B 
 4723      00
 4724              	.LASF63:
 4725 018b 7363616E 		.ascii	"scanCounter\000"
 4725      436F756E 
 4725      74657200 
 4726              	.LASF127:
 4727 0197 72656756 		.ascii	"regValue\000"
 4727      616C7565 
 4727      00
 4728              	.LASF126:
 4729 01a0 74785074 		.ascii	"txPtr\000"
 4729      7200
 4730              	.LASF112:
 4731 01a6 696E7465 		.ascii	"interruptState\000"
 4731      72727570 
ARM GAS  C:\Users\TB1014~1\AppData\Local\Temp\ccLG6s4V.s 			page 118


 4731      74537461 
 4731      746500
 4732              	.LASF142:
 4733 01b5 7278496E 		.ascii	"rxIndex\000"
 4733      64657800 
 4734              	.LASF128:
 4735 01bd 43617053 		.ascii	"CapSense_CSXConnectRx\000"
 4735      656E7365 
 4735      5F435358 
 4735      436F6E6E 
 4735      65637452 
 4736              	.LASF161:
 4737 01d3 4379496E 		.ascii	"CyIntDisable\000"
 4737      74446973 
 4737      61626C65 
 4737      00
 4738              	.LASF164:
 4739 01e0 43617053 		.ascii	"CapSense_SsSetModClkClockDivider\000"
 4739      656E7365 
 4739      5F537353 
 4739      65744D6F 
 4739      64436C6B 
 4740              	.LASF52:
 4741 0201 43617053 		.ascii	"CapSense_RAM_WD_LIST_STRUCT\000"
 4741      656E7365 
 4741      5F52414D 
 4741      5F57445F 
 4741      4C495354 
 4742              	.LASF44:
 4743 021d 62757430 		.ascii	"but0\000"
 4743      00
 4744              	.LASF45:
 4745 0222 62757431 		.ascii	"but1\000"
 4745      00
 4746              	.LASF46:
 4747 0227 62757433 		.ascii	"but3\000"
 4747      00
 4748              	.LASF47:
 4749 022c 62757434 		.ascii	"but4\000"
 4749      00
 4750              	.LASF48:
 4751 0231 62757435 		.ascii	"but5\000"
 4751      00
 4752              	.LASF49:
 4753 0236 62757436 		.ascii	"but6\000"
 4753      00
 4754              	.LASF50:
 4755 023b 62757438 		.ascii	"but8\000"
 4755      00
 4756              	.LASF133:
 4757 0240 43617053 		.ascii	"CapSense_SsCSXStartSample\000"
 4757      656E7365 
 4757      5F537343 
 4757      53585374 
 4757      61727453 
 4758              	.LASF119:
 4759 025a 70747257 		.ascii	"ptrWdgt\000"
ARM GAS  C:\Users\TB1014~1\AppData\Local\Temp\ccLG6s4V.s 			page 119


 4759      64677400 
 4760              	.LASF120:
 4761 0262 63757249 		.ascii	"curIdacMask\000"
 4761      6461634D 
 4761      61736B00 
 4762              	.LASF12:
 4763 026e 666C6F61 		.ascii	"float\000"
 4763      7400
 4764              	.LASF86:
 4765 0274 73686966 		.ascii	"shift\000"
 4765      7400
 4766              	.LASF106:
 4767 027a 77617463 		.ascii	"watchdogCounter\000"
 4767      68646F67 
 4767      436F756E 
 4767      74657200 
 4768              	.LASF141:
 4769 028a 7478496E 		.ascii	"txIndex\000"
 4769      64657800 
 4770              	.LASF136:
 4771 0292 43617053 		.ascii	"CapSense_CSXSetupWidget\000"
 4771      656E7365 
 4771      5F435358 
 4771      53657475 
 4771      70576964 
 4772              	.LASF72:
 4773 02aa 736E734C 		.ascii	"snsList\000"
 4773      69737400 
 4774              	.LASF7:
 4775 02b2 6C6F6E67 		.ascii	"long long unsigned int\000"
 4775      206C6F6E 
 4775      6720756E 
 4775      7369676E 
 4775      65642069 
 4776              	.LASF87:
 4777 02c9 43617053 		.ascii	"CapSense_FLASH_IO_STRUCT\000"
 4777      656E7365 
 4777      5F464C41 
 4777      53485F49 
 4777      4F5F5354 
 4778              	.LASF74:
 4779 02e2 736E7254 		.ascii	"snrTestSensorId\000"
 4779      65737453 
 4779      656E736F 
 4779      72496400 
 4780              	.LASF125:
 4781 02f2 43617053 		.ascii	"CapSense_CSXConnectTx\000"
 4781      656E7365 
 4781      5F435358 
 4781      436F6E6E 
 4781      65637454 
 4782              	.LASF95:
 4783 0308 77646774 		.ascii	"wdgtType\000"
 4783      54797065 
 4783      00
 4784              	.LASF138:
 4785 0311 736E7343 		.ascii	"snsClkVal\000"
ARM GAS  C:\Users\TB1014~1\AppData\Local\Temp\ccLG6s4V.s 			page 120


 4785      6C6B5661 
 4785      6C00
 4786              	.LASF69:
 4787 031b 6D6F6443 		.ascii	"modCsdClk\000"
 4787      7364436C 
 4787      6B00
 4788              	.LASF58:
 4789 0325 43617053 		.ascii	"CapSense_RAM_SNS_STRUCT\000"
 4789      656E7365 
 4789      5F52414D 
 4789      5F534E53 
 4789      5F535452 
 4790              	.LASF33:
 4791 033d 62736C6E 		.ascii	"bslnCoeff\000"
 4791      436F6566 
 4791      6600
 4792              	.LASF117:
 4793 0347 74617267 		.ascii	"target\000"
 4793      657400
 4794              	.LASF80:
 4795 034e 64725074 		.ascii	"drPtr\000"
 4795      7200
 4796              	.LASF154:
 4797 0354 43617053 		.ascii	"CapSense_resamplingCyclesCnt\000"
 4797      656E7365 
 4797      5F726573 
 4797      616D706C 
 4797      696E6743 
 4798              	.LASF38:
 4799 0371 73696750 		.ascii	"sigPFC\000"
 4799      464300
 4800              	.LASF30:
 4801 0378 68797374 		.ascii	"hysteresis\000"
 4801      65726573 
 4801      697300
 4802              	.LASF102:
 4803 0383 43617053 		.ascii	"CapSense_FLASH_WD_STRUCT\000"
 4803      656E7365 
 4803      5F464C41 
 4803      53485F57 
 4803      445F5354 
 4804              	.LASF32:
 4805 039c 6C6F7742 		.ascii	"lowBslnRst\000"
 4805      736C6E52 
 4805      737400
 4806              	.LASF132:
 4807 03a7 43617053 		.ascii	"CapSense_CSXDisconnectRx\000"
 4807      656E7365 
 4807      5F435358 
 4807      44697363 
 4807      6F6E6E65 
 4808              	.LASF174:
 4809 03c0 43617053 		.ascii	"CapSense_SsCalcCsxScanPeriod\000"
 4809      656E7365 
 4809      5F537343 
 4809      616C6343 
 4809      73785363 
ARM GAS  C:\Users\TB1014~1\AppData\Local\Temp\ccLG6s4V.s 			page 121


 4810              	.LASF94:
 4811 03dd 746F7461 		.ascii	"totalNumSns\000"
 4811      6C4E756D 
 4811      536E7300 
 4812              	.LASF123:
 4813 03e9 746F7461 		.ascii	"totalSns\000"
 4813      6C536E73 
 4813      00
 4814              	.LASF28:
 4815 03f2 6E6F6973 		.ascii	"noiseTh\000"
 4815      65546800 
 4816              	.LASF14:
 4817 03fa 63686172 		.ascii	"char\000"
 4817      00
 4818              	.LASF163:
 4819 03ff 43794578 		.ascii	"CyExitCriticalSection\000"
 4819      69744372 
 4819      69746963 
 4819      616C5365 
 4819      6374696F 
 4820              	.LASF118:
 4821 0415 736E7352 		.ascii	"snsRamPtr\000"
 4821      616D5074 
 4821      7200
 4822              	.LASF110:
 4823 041f 43617053 		.ascii	"CapSense_SsCSXScanISR\000"
 4823      656E7365 
 4823      5F537343 
 4823      53585363 
 4823      616E4953 
 4824              	.LASF84:
 4825 0435 6873696F 		.ascii	"hsiomShift\000"
 4825      6D536869 
 4825      667400
 4826              	.LASF10:
 4827 0440 75696E74 		.ascii	"uint16\000"
 4827      313600
 4828              	.LASF26:
 4829 0447 7265736F 		.ascii	"resolution\000"
 4829      6C757469 
 4829      6F6E00
 4830              	.LASF64:
 4831 0452 73746174 		.ascii	"status\000"
 4831      757300
 4832              	.LASF105:
 4833 0459 66696C74 		.ascii	"filterDelay\000"
 4833      65724465 
 4833      6C617900 
 4834              	.LASF20:
 4835 0465 43617053 		.ascii	"CapSense_LOW_BSLN_RST_TYPE\000"
 4835      656E7365 
 4835      5F4C4F57 
 4835      5F42534C 
 4835      4E5F5253 
 4836              	.LASF25:
 4837 0480 43617053 		.ascii	"CapSense_SENSE_METHOD_ENUM\000"
 4837      656E7365 
ARM GAS  C:\Users\TB1014~1\AppData\Local\Temp\ccLG6s4V.s 			page 122


 4837      5F53454E 
 4837      53455F4D 
 4837      4554484F 
 4838              	.LASF57:
 4839 049b 69646163 		.ascii	"idacComp\000"
 4839      436F6D70 
 4839      00
 4840              	.LASF79:
 4841 04a4 70635074 		.ascii	"pcPtr\000"
 4841      7200
 4842              	.LASF6:
 4843 04aa 6C6F6E67 		.ascii	"long long int\000"
 4843      206C6F6E 
 4843      6720696E 
 4843      7400
 4844              	.LASF97:
 4845 04b8 6E756D43 		.ascii	"numCols\000"
 4845      6F6C7300 
 4846              	.LASF131:
 4847 04c0 43617053 		.ascii	"CapSense_CSXDisconnectTx\000"
 4847      656E7365 
 4847      5F435358 
 4847      44697363 
 4847      6F6E6E65 
 4848              	.LASF31:
 4849 04d9 6F6E4465 		.ascii	"onDebounce\000"
 4849      626F756E 
 4849      636500
 4850              	.LASF146:
 4851 04e4 43617053 		.ascii	"CapSense_curRxIOPtr\000"
 4851      656E7365 
 4851      5F637572 
 4851      5278494F 
 4851      50747200 
 4852              	.LASF71:
 4853 04f8 77646774 		.ascii	"wdgtList\000"
 4853      4C697374 
 4853      00
 4854              	.LASF153:
 4855 0501 43617053 		.ascii	"CapSense_csxRawCount\000"
 4855      656E7365 
 4855      5F637378 
 4855      52617743 
 4855      6F756E74 
 4856              	.LASF104:
 4857 0516 43617053 		.ascii	"CapSense_FLASH_STRUCT\000"
 4857      656E7365 
 4857      5F464C41 
 4857      53485F53 
 4857      54525543 
 4858              	.LASF167:
 4859 052c 43617053 		.ascii	"CapSense_Scan\000"
 4859      656E7365 
 4859      5F536361 
 4859      6E00
 4860              	.LASF150:
 4861 053a 43617053 		.ascii	"CapSense_dsRam\000"
ARM GAS  C:\Users\TB1014~1\AppData\Local\Temp\ccLG6s4V.s 			page 123


 4861      656E7365 
 4861      5F647352 
 4861      616D00
 4862              	.LASF76:
 4863 0549 736E7254 		.ascii	"snrTestRawCount\000"
 4863      65737452 
 4863      6177436F 
 4863      756E7400 
 4864              	.LASF29:
 4865 0559 6E4E6F69 		.ascii	"nNoiseTh\000"
 4865      73655468 
 4865      00
 4866              	.LASF68:
 4867 0562 63736430 		.ascii	"csd0Config\000"
 4867      436F6E66 
 4867      696700
 4868              	.LASF17:
 4869 056d 63796973 		.ascii	"cyisraddress\000"
 4869      72616464 
 4869      72657373 
 4869      00
 4870              	.LASF39:
 4871 057a 43617053 		.ascii	"CapSense_RAM_WD_BASE_STRUCT\000"
 4871      656E7365 
 4871      5F52414D 
 4871      5F57445F 
 4871      42415345 
 4872              	.LASF116:
 4873 0596 77696467 		.ascii	"widgetIndex\000"
 4873      6574496E 
 4873      64657800 
 4874              	.LASF78:
 4875 05a2 6873696F 		.ascii	"hsiomPtr\000"
 4875      6D507472 
 4875      00
 4876              	.LASF135:
 4877 05ab 43617053 		.ascii	"CapSense_CSXElectrodeCheck\000"
 4877      656E7365 
 4877      5F435358 
 4877      456C6563 
 4877      74726F64 
 4878              	.LASF11:
 4879 05c6 75696E74 		.ascii	"uint32\000"
 4879      333200
 4880              	.LASF91:
 4881 05cd 70747232 		.ascii	"ptr2FltrHistory\000"
 4881      466C7472 
 4881      48697374 
 4881      6F727900 
 4882              	.LASF147:
 4883 05dd 43617053 		.ascii	"CapSense_curWdgtTotalRx\000"
 4883      656E7365 
 4883      5F637572 
 4883      57646774 
 4883      546F7461 
 4884              	.LASF83:
 4885 05f5 6D61736B 		.ascii	"mask\000"
ARM GAS  C:\Users\TB1014~1\AppData\Local\Temp\ccLG6s4V.s 			page 124


 4885      00
 4886              	.LASF114:
 4887 05fa 43617053 		.ascii	"CapSense_CSXCalibrateWidget\000"
 4887      656E7365 
 4887      5F435358 
 4887      43616C69 
 4887      62726174 
 4888              	.LASF152:
 4889 0616 43617053 		.ascii	"CapSense_csxScanPeriod\000"
 4889      656E7365 
 4889      5F637378 
 4889      5363616E 
 4889      50657269 
 4890              	.LASF107:
 4891 062d 73616D70 		.ascii	"sampleClkFreqHz\000"
 4891      6C65436C 
 4891      6B467265 
 4891      71487A00 
 4892              	.LASF139:
 4893 063d 43617053 		.ascii	"CapSense_CSXSetupWidgetExt\000"
 4893      656E7365 
 4893      5F435358 
 4893      53657475 
 4893      70576964 
 4894              	.LASF143:
 4895 0658 77646774 		.ascii	"wdgtIndex\000"
 4895      496E6465 
 4895      7800
 4896              	.LASF140:
 4897 0662 736E7349 		.ascii	"snsIndex\000"
 4897      6E646578 
 4897      00
 4898              	.LASF175:
 4899 066b 43617053 		.ascii	"CapSense_SsCSXStartSampleExt\000"
 4899      656E7365 
 4899      5F537343 
 4899      53585374 
 4899      61727453 
 4900              	.LASF16:
 4901 0688 72656733 		.ascii	"reg32\000"
 4901      3200
 4902              	.LASF75:
 4903 068e 736E7254 		.ascii	"snrTestScanCounter\000"
 4903      65737453 
 4903      63616E43 
 4903      6F756E74 
 4903      657200
 4904              	.LASF60:
 4905 06a1 636F6E66 		.ascii	"configId\000"
 4905      69674964 
 4905      00
 4906              	.LASF90:
 4907 06aa 70747232 		.ascii	"ptr2SnsRam\000"
 4907      536E7352 
 4907      616D00
 4908              	.LASF145:
 4909 06b5 43617053 		.ascii	"CapSense_curTxIOPtr\000"
ARM GAS  C:\Users\TB1014~1\AppData\Local\Temp\ccLG6s4V.s 			page 125


 4909      656E7365 
 4909      5F637572 
 4909      5478494F 
 4909      50747200 
 4910              	.LASF172:
 4911 06c9 433A5C55 		.ascii	"C:\\Users\\tb1014481\\Documents\\#PROJECTS#\\Eddie\\"
 4911      73657273 
 4911      5C746231 
 4911      30313434 
 4911      38315C44 
 4912 06f7 436F6465 		.ascii	"Code\\Cypress_PSoC\\Eddie_DP0.0\\Slider_WS.Bundle05"
 4912      5C437970 
 4912      72657373 
 4912      5F50536F 
 4912      435C4564 
 4913 0727 2E637977 		.ascii	".cywrk.Archive04_LEDs_DEMO\\Eddie_DP0_Slider\\Slide"
 4913      726B2E41 
 4913      72636869 
 4913      76653034 
 4913      5F4C4544 
 4914 0758 722E6379 		.ascii	"r.cydsn\000"
 4914      64736E00 
 4915              	.LASF67:
 4916 0760 736E7353 		.ascii	"snsStatus\000"
 4916      74617475 
 4916      7300
 4917              	.LASF36:
 4918 076a 736E7343 		.ascii	"snsClkSource\000"
 4918      6C6B536F 
 4918      75726365 
 4918      00
 4919              	.LASF176:
 4920 0777 43617053 		.ascii	"CapSense_SsCSXGetTxClkDivider\000"
 4920      656E7365 
 4920      5F537343 
 4920      53584765 
 4920      74547843 
 4921              	.LASF99:
 4922 0795 78526573 		.ascii	"xResolution\000"
 4922      6F6C7574 
 4922      696F6E00 
 4923              	.LASF165:
 4924 07a1 43617053 		.ascii	"CapSense_SsIsrInitialize\000"
 4924      656E7365 
 4924      5F537349 
 4924      7372496E 
 4924      69746961 
 4925              	.LASF2:
 4926 07ba 73686F72 		.ascii	"short int\000"
 4926      7420696E 
 4926      7400
 4927              	.LASF77:
 4928 07c4 43617053 		.ascii	"CapSense_RAM_STRUCT\000"
 4928      656E7365 
 4928      5F52414D 
 4928      5F535452 
 4928      55435400 
ARM GAS  C:\Users\TB1014~1\AppData\Local\Temp\ccLG6s4V.s 			page 126


 4929              	.LASF4:
 4930 07d8 6C6F6E67 		.ascii	"long int\000"
 4930      20696E74 
 4930      00
 4931              	.LASF65:
 4932 07e1 77646774 		.ascii	"wdgtEnable\000"
 4932      456E6162 
 4932      6C6500
 4933              	.LASF55:
 4934 07ec 64696666 		.ascii	"diff\000"
 4934      00
 4935              	.LASF148:
 4936 07f1 43617053 		.ascii	"CapSense_curWdgtTotalTx\000"
 4936      656E7365 
 4936      5F637572 
 4936      57646774 
 4936      546F7461 
 4937              	.LASF62:
 4938 0809 74756E65 		.ascii	"tunerCmd\000"
 4938      72436D64 
 4938      00
 4939              	.LASF108:
 4940 0812 74656D70 		.ascii	"temp\000"
 4940      00
 4941              	.LASF23:
 4942 0817 43617053 		.ascii	"CapSense_SENSE_METHOD_CSX_E\000"
 4942      656E7365 
 4942      5F53454E 
 4942      53455F4D 
 4942      4554484F 
 4943              	.LASF81:
 4944 0833 70735074 		.ascii	"psPtr\000"
 4944      7200
 4945              	.LASF177:
 4946 0839 43617053 		.ascii	"CapSense_SetupWidget\000"
 4946      656E7365 
 4946      5F536574 
 4946      75705769 
 4946      64676574 
 4947              	.LASF124:
 4948 084e 72617754 		.ascii	"rawTarget\000"
 4948      61726765 
 4948      7400
 4949              	.LASF51:
 4950 0858 62757474 		.ascii	"button0\000"
 4950      6F6E3000 
 4951              	.LASF171:
 4952 0860 47656E65 		.ascii	"Generated_Source\\PSoC4\\CapSense_SensingCSX_LL.c\000"
 4952      72617465 
 4952      645F536F 
 4952      75726365 
 4952      5C50536F 
 4953              	.LASF151:
 4954 0890 43617053 		.ascii	"CapSense_dsFlash\000"
 4954      656E7365 
 4954      5F647346 
 4954      6C617368 
ARM GAS  C:\Users\TB1014~1\AppData\Local\Temp\ccLG6s4V.s 			page 127


 4954      00
 4955              	.LASF37:
 4956 08a1 66696E67 		.ascii	"fingerCap\000"
 4956      65724361 
 4956      7000
 4957              	.LASF66:
 4958 08ab 77646774 		.ascii	"wdgtStatus\000"
 4958      53746174 
 4958      757300
 4959              	.LASF41:
 4960 08b6 43617053 		.ascii	"CapSense_RAM_WD_SLIDER_STRUCT\000"
 4960      656E7365 
 4960      5F52414D 
 4960      5F57445F 
 4960      534C4944 
 4961              	.LASF22:
 4962 08d4 43617053 		.ascii	"CapSense_SENSE_METHOD_CSD_E\000"
 4962      656E7365 
 4962      5F53454E 
 4962      53455F4D 
 4962      4554484F 
 4963              	.LASF18:
 4964 08f0 73697A65 		.ascii	"sizetype\000"
 4964      74797065 
 4964      00
 4965              	.LASF85:
 4966 08f9 64725368 		.ascii	"drShift\000"
 4966      69667400 
 4967              	.LASF5:
 4968 0901 6C6F6E67 		.ascii	"long unsigned int\000"
 4968      20756E73 
 4968      69676E65 
 4968      6420696E 
 4968      7400
 4969              	.LASF144:
 4970 0913 72657456 		.ascii	"retVal\000"
 4970      616C00
 4971              	.LASF34:
 4972 091a 69646163 		.ascii	"idacMod\000"
 4972      4D6F6400 
 4973              	.LASF129:
 4974 0922 72785074 		.ascii	"rxPtr\000"
 4974      7200
 4975              	.LASF92:
 4976 0928 70747232 		.ascii	"ptr2DebounceArr\000"
 4976      4465626F 
 4976      756E6365 
 4976      41727200 
 4977              	.LASF100:
 4978 0938 7843656E 		.ascii	"xCentroidMultiplier\000"
 4978      74726F69 
 4978      644D756C 
 4978      7469706C 
 4978      69657200 
 4979              	.LASF27:
 4980 094c 66696E67 		.ascii	"fingerTh\000"
 4980      65725468 
ARM GAS  C:\Users\TB1014~1\AppData\Local\Temp\ccLG6s4V.s 			page 128


 4980      00
 4981              	.LASF54:
 4982 0955 62736C6E 		.ascii	"bslnExt\000"
 4982      45787400 
 4983              	.LASF101:
 4984 095d 70747232 		.ascii	"ptr2PosHistory\000"
 4984      506F7348 
 4984      6973746F 
 4984      727900
 4985              	.LASF42:
 4986 096c 43617053 		.ascii	"CapSense_RAM_WD_BUTTON_STRUCT\000"
 4986      656E7365 
 4986      5F52414D 
 4986      5F57445F 
 4986      42555454 
 4987              	.LASF15:
 4988 098a 63797374 		.ascii	"cystatus\000"
 4988      61747573 
 4988      00
 4989              	.LASF1:
 4990 0993 756E7369 		.ascii	"unsigned char\000"
 4990      676E6564 
 4990      20636861 
 4990      7200
 4991              	.LASF115:
 4992 09a1 77646774 		.ascii	"wdgtPtr\000"
 4992      50747200 
 4993              	.LASF122:
 4994 09a9 63616C69 		.ascii	"calibrationIndex\000"
 4994      62726174 
 4994      696F6E49 
 4994      6E646578 
 4994      00
 4995              	.LASF134:
 4996 09ba 43617053 		.ascii	"CapSense_SsCSXPostMultiScan\000"
 4996      656E7365 
 4996      5F537343 
 4996      5358506F 
 4996      73744D75 
 4997              	.LASF93:
 4998 09d6 73746174 		.ascii	"staticConfig\000"
 4998      6963436F 
 4998      6E666967 
 4998      00
 4999              	.LASF96:
 5000 09e3 73656E73 		.ascii	"senseMethod\000"
 5000      654D6574 
 5000      686F6400 
 5001              	.LASF70:
 5002 09ef 6D6F6443 		.ascii	"modCsxClk\000"
 5002      7378436C 
 5002      6B00
 5003              	.LASF89:
 5004 09f9 70747232 		.ascii	"ptr2WdgtRam\000"
 5004      57646774 
 5004      52616D00 
 5005              	.LASF19:
ARM GAS  C:\Users\TB1014~1\AppData\Local\Temp\ccLG6s4V.s 			page 129


 5006 0a05 43617053 		.ascii	"CapSense_THRESHOLD_TYPE\000"
 5006      656E7365 
 5006      5F544852 
 5006      4553484F 
 5006      4C445F54 
 5007              	.LASF24:
 5008 0a1d 43617053 		.ascii	"CapSense_SENSE_METHOD_BIST_E\000"
 5008      656E7365 
 5008      5F53454E 
 5008      53455F4D 
 5008      4554484F 
 5009              	.LASF98:
 5010 0a3a 6E756D52 		.ascii	"numRows\000"
 5010      6F777300 
 5011              	.LASF43:
 5012 0a42 6C696E65 		.ascii	"linearslider0\000"
 5012      6172736C 
 5012      69646572 
 5012      3000
 5013              	.LASF82:
 5014 0a50 6873696F 		.ascii	"hsiomMask\000"
 5014      6D4D6173 
 5014      6B00
 5015              	.LASF162:
 5016 0a5a 4379496E 		.ascii	"CyIntEnable\000"
 5016      74456E61 
 5016      626C6500 
 5017              	.LASF109:
 5018 0a66 746D7052 		.ascii	"tmpRegVal\000"
 5018      65675661 
 5018      6C00
 5019              	.LASF130:
 5020 0a70 43617053 		.ascii	"CapSense_CSXScan\000"
 5020      656E7365 
 5020      5F435358 
 5020      5363616E 
 5020      00
 5021              	.LASF35:
 5022 0a81 736E7343 		.ascii	"snsClk\000"
 5022      6C6B00
 5023              	.LASF178:
 5024 0a88 43617053 		.ascii	"CapSense_SsSwitchSensingMode\000"
 5024      656E7365 
 5024      5F537353 
 5024      77697463 
 5024      6853656E 
 5025              	.LASF166:
 5026 0aa5 4379456E 		.ascii	"CyEnterCriticalSection\000"
 5026      74657243 
 5026      72697469 
 5026      63616C53 
 5026      65637469 
 5027              	.LASF159:
 5028 0abc 43617053 		.ascii	"CapSense_curRamSnsPtr\000"
 5028      656E7365 
 5028      5F637572 
 5028      52616D53 
ARM GAS  C:\Users\TB1014~1\AppData\Local\Temp\ccLG6s4V.s 			page 130


 5028      6E735074 
 5029              	.LASF0:
 5030 0ad2 7369676E 		.ascii	"signed char\000"
 5030      65642063 
 5030      68617200 
 5031              	.LASF156:
 5032 0ade 43617053 		.ascii	"CapSense_scanFreqIndex\000"
 5032      656E7365 
 5032      5F736361 
 5032      6E467265 
 5032      71496E64 
 5033              	.LASF53:
 5034 0af5 62736C6E 		.ascii	"bsln\000"
 5034      00
 5035              	.LASF3:
 5036 0afa 73686F72 		.ascii	"short unsigned int\000"
 5036      7420756E 
 5036      7369676E 
 5036      65642069 
 5036      6E7400
 5037              	.LASF137:
 5038 0b0d 63757252 		.ascii	"curRamWdgtBasePtr\000"
 5038      616D5764 
 5038      67744261 
 5038      73655074 
 5038      7200
 5039              	.LASF169:
 5040 0b1f 43617053 		.ascii	"CapSense_SsPostAllWidgetsScan\000"
 5040      656E7365 
 5040      5F537350 
 5040      6F737441 
 5040      6C6C5769 
 5041              	.LASF88:
 5042 0b3d 70747232 		.ascii	"ptr2SnsFlash\000"
 5042      536E7346 
 5042      6C617368 
 5042      00
 5043              	.LASF9:
 5044 0b4a 75696E74 		.ascii	"uint8\000"
 5044      3800
 5045              	.LASF13:
 5046 0b50 646F7562 		.ascii	"double\000"
 5046      6C6500
 5047              	.LASF56:
 5048 0b57 6E656742 		.ascii	"negBslnRstCnt\000"
 5048      736C6E52 
 5048      7374436E 
 5048      7400
 5049              	.LASF157:
 5050 0b65 43617053 		.ascii	"CapSense_widgetIndex\000"
 5050      656E7365 
 5050      5F776964 
 5050      67657449 
 5050      6E646578 
 5051              	.LASF61:
 5052 0b7a 64657669 		.ascii	"deviceId\000"
 5052      63654964 
ARM GAS  C:\Users\TB1014~1\AppData\Local\Temp\ccLG6s4V.s 			page 131


 5052      00
 5053              	.LASF158:
 5054 0b83 43617053 		.ascii	"CapSense_requestScanAllWidget\000"
 5054      656E7365 
 5054      5F726571 
 5054      75657374 
 5054      5363616E 
 5055              	.LASF40:
 5056 0ba1 706F7369 		.ascii	"position\000"
 5056      74696F6E 
 5056      00
 5057              	.LASF59:
 5058 0baa 43617053 		.ascii	"CapSense_RAM_SNS_LIST_STRUCT\000"
 5058      656E7365 
 5058      5F52414D 
 5058      5F534E53 
 5058      5F4C4953 
 5059              	.LASF103:
 5060 0bc7 77646774 		.ascii	"wdgtArray\000"
 5060      41727261 
 5060      7900
 5061              		.ident	"GCC: (GNU Tools for ARM Embedded Processors) 4.9.3 20150303 (release) [ARM/embedded-4_9-br
