ARM GAS  C:\Users\TB1014~1\AppData\Local\Temp\ccTzyt2s.s 			page 1


   1              		.cpu cortex-m0plus
   2              		.fpu softvfp
   3              		.eabi_attribute 20, 1
   4              		.eabi_attribute 21, 1
   5              		.eabi_attribute 23, 3
   6              		.eabi_attribute 24, 1
   7              		.eabi_attribute 25, 1
   8              		.eabi_attribute 26, 1
   9              		.eabi_attribute 30, 1
  10              		.eabi_attribute 34, 0
  11              		.eabi_attribute 18, 4
  12              		.code	16
  13              		.file	"CapSense_Processing.c"
  14              		.text
  15              	.Ltext0:
  16              		.cfi_sections	.debug_frame
  17              		.section	.text.CapSense_DpInitialize,"ax",%progbits
  18              		.align	2
  19              		.global	CapSense_DpInitialize
  20              		.code	16
  21              		.thumb_func
  22              		.type	CapSense_DpInitialize, %function
  23              	CapSense_DpInitialize:
  24              	.LFB2:
  25              		.file 1 "Generated_Source\\PSoC4\\CapSense_Processing.c"
   1:Generated_Source\PSoC4/CapSense_Processing.c **** /***************************************************************************//**
   2:Generated_Source\PSoC4/CapSense_Processing.c **** * \file CapSense_Processing.c
   3:Generated_Source\PSoC4/CapSense_Processing.c **** * \version 3.10
   4:Generated_Source\PSoC4/CapSense_Processing.c **** *
   5:Generated_Source\PSoC4/CapSense_Processing.c **** * \brief
   6:Generated_Source\PSoC4/CapSense_Processing.c **** * This file provides the source code for the Data Processing module APIs
   7:Generated_Source\PSoC4/CapSense_Processing.c **** * of the component. The Data Processing module is responsible for the
   8:Generated_Source\PSoC4/CapSense_Processing.c **** * low level raw counts processing provided by the sensing module, maintaining
   9:Generated_Source\PSoC4/CapSense_Processing.c **** * baseline and difference values and performing high-level widget processing
  10:Generated_Source\PSoC4/CapSense_Processing.c **** * like updating button status or calculating slider position.
  11:Generated_Source\PSoC4/CapSense_Processing.c **** *
  12:Generated_Source\PSoC4/CapSense_Processing.c **** * \see CapSense P4 v3.10 Datasheet
  13:Generated_Source\PSoC4/CapSense_Processing.c **** *
  14:Generated_Source\PSoC4/CapSense_Processing.c **** *//*****************************************************************************
  15:Generated_Source\PSoC4/CapSense_Processing.c **** * Copyright (2016), Cypress Semiconductor Corporation.
  16:Generated_Source\PSoC4/CapSense_Processing.c **** ********************************************************************************
  17:Generated_Source\PSoC4/CapSense_Processing.c **** * This software is owned by Cypress Semiconductor Corporation (Cypress) and is
  18:Generated_Source\PSoC4/CapSense_Processing.c **** * protected by and subject to worldwide patent protection (United States and
  19:Generated_Source\PSoC4/CapSense_Processing.c **** * foreign), United States copyright laws and international treaty provisions.
  20:Generated_Source\PSoC4/CapSense_Processing.c **** * Cypress hereby grants to licensee a personal, non-exclusive, non-transferable
  21:Generated_Source\PSoC4/CapSense_Processing.c **** * license to copy, use, modify, create derivative works of, and compile the
  22:Generated_Source\PSoC4/CapSense_Processing.c **** * Cypress Source Code and derivative works for the sole purpose of creating
  23:Generated_Source\PSoC4/CapSense_Processing.c **** * custom software in support of licensee product to be used only in conjunction
  24:Generated_Source\PSoC4/CapSense_Processing.c **** * with a Cypress integrated circuit as specified in the applicable agreement.
  25:Generated_Source\PSoC4/CapSense_Processing.c **** * Any reproduction, modification, translation, compilation, or representation of
  26:Generated_Source\PSoC4/CapSense_Processing.c **** * this software except as specified above is prohibited without the express
  27:Generated_Source\PSoC4/CapSense_Processing.c **** * written permission of Cypress.
  28:Generated_Source\PSoC4/CapSense_Processing.c **** *
  29:Generated_Source\PSoC4/CapSense_Processing.c **** * Disclaimer: CYPRESS MAKES NO WARRANTY OF ANY KIND, EXPRESS OR IMPLIED, WITH
  30:Generated_Source\PSoC4/CapSense_Processing.c **** * REGARD TO THIS MATERIAL, INCLUDING, BUT NOT LIMITED TO, THE IMPLIED
  31:Generated_Source\PSoC4/CapSense_Processing.c **** * WARRANTIES OF MERCHANTABILITY AND FITNESS FOR A PARTICULAR PURPOSE.
  32:Generated_Source\PSoC4/CapSense_Processing.c **** * Cypress reserves the right to make changes without further notice to the
ARM GAS  C:\Users\TB1014~1\AppData\Local\Temp\ccTzyt2s.s 			page 2


  33:Generated_Source\PSoC4/CapSense_Processing.c **** * materials described herein. Cypress does not assume any liability arising out
  34:Generated_Source\PSoC4/CapSense_Processing.c **** * of the application or use of any product or circuit described herein. Cypress
  35:Generated_Source\PSoC4/CapSense_Processing.c **** * does not authorize its products for use as critical components in life-support
  36:Generated_Source\PSoC4/CapSense_Processing.c **** * systems where a malfunction or failure may reasonably be expected to result in
  37:Generated_Source\PSoC4/CapSense_Processing.c **** * significant injury to the user. The inclusion of Cypress' product in a life-
  38:Generated_Source\PSoC4/CapSense_Processing.c **** * support systems application implies that the manufacturer assumes all risk of
  39:Generated_Source\PSoC4/CapSense_Processing.c **** * such use and in doing so indemnifies Cypress against all charges. Use may be
  40:Generated_Source\PSoC4/CapSense_Processing.c **** * limited by and subject to the applicable Cypress software license agreement.
  41:Generated_Source\PSoC4/CapSense_Processing.c **** *******************************************************************************/
  42:Generated_Source\PSoC4/CapSense_Processing.c **** 
  43:Generated_Source\PSoC4/CapSense_Processing.c **** #include "cytypes.h"
  44:Generated_Source\PSoC4/CapSense_Processing.c **** #include "CapSense_Configuration.h"
  45:Generated_Source\PSoC4/CapSense_Processing.c **** #include "CapSense_Processing.h"
  46:Generated_Source\PSoC4/CapSense_Processing.c **** #include "CapSense_Filter.h"
  47:Generated_Source\PSoC4/CapSense_Processing.c **** 
  48:Generated_Source\PSoC4/CapSense_Processing.c **** #if (0u != CapSense_CENTROID_EN)
  49:Generated_Source\PSoC4/CapSense_Processing.c ****     #include "CapSense_Centroid_LL.h"
  50:Generated_Source\PSoC4/CapSense_Processing.c **** #endif /* (0 != CapSense_CENTROID_EN) */
  51:Generated_Source\PSoC4/CapSense_Processing.c **** 
  52:Generated_Source\PSoC4/CapSense_Processing.c **** #if (0 != (CapSense_CSD_AUTOTUNE & CapSense_CSD_SS_TH_EN))
  53:Generated_Source\PSoC4/CapSense_Processing.c ****     #include "CapSense_SmartSense_LL.h"
  54:Generated_Source\PSoC4/CapSense_Processing.c **** #endif /* (0 != (CapSense_CSD_AUTOTUNE & CapSense_CSD_SS_TH_EN)) */
  55:Generated_Source\PSoC4/CapSense_Processing.c **** 
  56:Generated_Source\PSoC4/CapSense_Processing.c **** #if (CapSense_ENABLE == CapSense_SELF_TEST_EN)
  57:Generated_Source\PSoC4/CapSense_Processing.c ****     #include "CapSense_SelfTest.h"
  58:Generated_Source\PSoC4/CapSense_Processing.c **** #endif
  59:Generated_Source\PSoC4/CapSense_Processing.c **** 
  60:Generated_Source\PSoC4/CapSense_Processing.c **** #include "CyLib.h"
  61:Generated_Source\PSoC4/CapSense_Processing.c **** 
  62:Generated_Source\PSoC4/CapSense_Processing.c **** /**************************************************************************************************
  63:Generated_Source\PSoC4/CapSense_Processing.c **** * Local definition
  64:Generated_Source\PSoC4/CapSense_Processing.c **** ***************************************************************************************************
  65:Generated_Source\PSoC4/CapSense_Processing.c **** 
  66:Generated_Source\PSoC4/CapSense_Processing.c **** /* This definition resolves to TRUE if any of the FW filters for raw counts are enabled */
  67:Generated_Source\PSoC4/CapSense_Processing.c **** #define DP_FW_FILTER_EN                                 \
  68:Generated_Source\PSoC4/CapSense_Processing.c ****             (CapSense_REGULAR_RC_FILTER_EN |  \
  69:Generated_Source\PSoC4/CapSense_Processing.c ****              CapSense_PROX_RC_FILTER_EN)
  70:Generated_Source\PSoC4/CapSense_Processing.c **** 
  71:Generated_Source\PSoC4/CapSense_Processing.c **** /* This definition resolves to TRUE if any of the position filters are enabled */
  72:Generated_Source\PSoC4/CapSense_Processing.c **** #define DP_POSITION_FILTER_EN                           \
  73:Generated_Source\PSoC4/CapSense_Processing.c ****             (CapSense_POS_IIR_FILTER_EN      || \
  74:Generated_Source\PSoC4/CapSense_Processing.c ****              CapSense_POS_MEDIAN_FILTER_EN   || \
  75:Generated_Source\PSoC4/CapSense_Processing.c ****              CapSense_POS_AVERAGE_FILTER_EN  || \
  76:Generated_Source\PSoC4/CapSense_Processing.c ****              CapSense_POS_JITTER_FILTER_EN)
  77:Generated_Source\PSoC4/CapSense_Processing.c **** 
  78:Generated_Source\PSoC4/CapSense_Processing.c **** /* This definition resolves to TRUE if any of position filters are enabled and component has slider
  79:Generated_Source\PSoC4/CapSense_Processing.c ****  * The processing function of the CSD touchpad reuses the filtering function of the slider widget. 
  80:Generated_Source\PSoC4/CapSense_Processing.c **** #define DP_LINEAR_SLIDER_FILTER_EN                                             \
  81:Generated_Source\PSoC4/CapSense_Processing.c ****            (DP_POSITION_FILTER_EN && (CapSense_TOTAL_LINEAR_SLIDERS || \
  82:Generated_Source\PSoC4/CapSense_Processing.c ****                                       CapSense_CSD_TOUCHPAD_WIDGET_EN))
  83:Generated_Source\PSoC4/CapSense_Processing.c **** 
  84:Generated_Source\PSoC4/CapSense_Processing.c **** /* UINT32 constant with all odd bits set. It is used by the processing function of the Proximity wi
  85:Generated_Source\PSoC4/CapSense_Processing.c **** *  determine type of the status bit: odd bits report proximity status; even bits report touch statu
  86:Generated_Source\PSoC4/CapSense_Processing.c ****  */
  87:Generated_Source\PSoC4/CapSense_Processing.c **** #define UINT32_ODD_BITS_CONST       (0x55555555u)
  88:Generated_Source\PSoC4/CapSense_Processing.c **** 
  89:Generated_Source\PSoC4/CapSense_Processing.c **** /* Default value for the Off Debounce counter when the Off Debounce is disabled */
ARM GAS  C:\Users\TB1014~1\AppData\Local\Temp\ccTzyt2s.s 			page 3


  90:Generated_Source\PSoC4/CapSense_Processing.c **** #define DEFAULT_OFF_DEBOUNCE_VALUE  (1u)
  91:Generated_Source\PSoC4/CapSense_Processing.c **** #define PERCENTAGE_100              (0x00000064Lu)
  92:Generated_Source\PSoC4/CapSense_Processing.c **** #define TEMP_BUFFER_MSB_SHIFT       (16)
  93:Generated_Source\PSoC4/CapSense_Processing.c **** 
  94:Generated_Source\PSoC4/CapSense_Processing.c **** /**************************************************************************************************
  95:Generated_Source\PSoC4/CapSense_Processing.c **** * Local variables
  96:Generated_Source\PSoC4/CapSense_Processing.c **** ***************************************************************************************************
  97:Generated_Source\PSoC4/CapSense_Processing.c **** #if (0u != CapSense_CSX_MULTIPHASE_TX_EN)
  98:Generated_Source\PSoC4/CapSense_Processing.c ****     static uint16 deconvRowData[CapSense_CSX_MAX_TX_PHASE_LENGTH];
  99:Generated_Source\PSoC4/CapSense_Processing.c **** #endif
 100:Generated_Source\PSoC4/CapSense_Processing.c **** 
 101:Generated_Source\PSoC4/CapSense_Processing.c **** 
 102:Generated_Source\PSoC4/CapSense_Processing.c **** /**************************************************************************************************
 103:Generated_Source\PSoC4/CapSense_Processing.c **** * Static Function Prototypes
 104:Generated_Source\PSoC4/CapSense_Processing.c **** ***************************************************************************************************
 105:Generated_Source\PSoC4/CapSense_Processing.c **** /**
 106:Generated_Source\PSoC4/CapSense_Processing.c **** * \if SECTION_CAPSENSE_INTERNAL
 107:Generated_Source\PSoC4/CapSense_Processing.c **** * \addtogroup group_capsense_internal
 108:Generated_Source\PSoC4/CapSense_Processing.c **** * \{
 109:Generated_Source\PSoC4/CapSense_Processing.c **** */
 110:Generated_Source\PSoC4/CapSense_Processing.c **** #if (0u != CapSense_TOTAL_LINEAR_SLIDERS)
 111:Generated_Source\PSoC4/CapSense_Processing.c ****     static CY_INLINE void DpUpdateLinSlider(
 112:Generated_Source\PSoC4/CapSense_Processing.c ****                         const uint16 newPos[], uint32 numTouches,
 113:Generated_Source\PSoC4/CapSense_Processing.c ****                         CapSense_FLASH_WD_STRUCT const *ptrFlashWdgt,
 114:Generated_Source\PSoC4/CapSense_Processing.c ****                         CapSense_RAM_WD_SLIDER_STRUCT *ptrRamWdgt);
 115:Generated_Source\PSoC4/CapSense_Processing.c **** #endif /* #if (0u != CapSense_TOTAL_LINEAR_SLIDERS) */
 116:Generated_Source\PSoC4/CapSense_Processing.c **** 
 117:Generated_Source\PSoC4/CapSense_Processing.c **** #if (0u != DP_LINEAR_SLIDER_FILTER_EN)
 118:Generated_Source\PSoC4/CapSense_Processing.c ****     static CY_INLINE void DpFilterLinSlider(
 119:Generated_Source\PSoC4/CapSense_Processing.c ****                         uint16 newPos, uint32 staticConfig, uint16 *ptrCurrPos,
 120:Generated_Source\PSoC4/CapSense_Processing.c ****                         CapSense_SLIDER_POS_HISTORY_STRUCT *ptrHistory);
 121:Generated_Source\PSoC4/CapSense_Processing.c **** #endif /* #if (0u != DP_LINEAR_SLIDER_FILTER_EN) */
 122:Generated_Source\PSoC4/CapSense_Processing.c **** 
 123:Generated_Source\PSoC4/CapSense_Processing.c **** #if (0u != CapSense_TOTAL_RADIAL_SLIDERS)
 124:Generated_Source\PSoC4/CapSense_Processing.c ****     static CY_INLINE void DpUpdateRadSlider(
 125:Generated_Source\PSoC4/CapSense_Processing.c ****                         const uint16 newPos[], uint32 numTouches,
 126:Generated_Source\PSoC4/CapSense_Processing.c ****                         CapSense_FLASH_WD_STRUCT const * ptrFlashWdgt,
 127:Generated_Source\PSoC4/CapSense_Processing.c ****                         CapSense_RAM_WD_SLIDER_STRUCT *ptrRamWdgt);
 128:Generated_Source\PSoC4/CapSense_Processing.c **** #endif /* #if (0u != CapSense_TOTAL_RADIAL_SLIDERS) */
 129:Generated_Source\PSoC4/CapSense_Processing.c **** 
 130:Generated_Source\PSoC4/CapSense_Processing.c **** #if (0u != CapSense_CSD_TOUCHPAD_WIDGET_EN)
 131:Generated_Source\PSoC4/CapSense_Processing.c ****     static CY_INLINE void CapSense_DpInitCsdTouchpad(CapSense_FLASH_WD_STRUCT const * ptrFlashWdgt)
 132:Generated_Source\PSoC4/CapSense_Processing.c **** #endif /* #if (0u != CapSense_CSD_TOUCHPAD_WIDGET_EN) */
 133:Generated_Source\PSoC4/CapSense_Processing.c **** 
 134:Generated_Source\PSoC4/CapSense_Processing.c **** #if (0u != CapSense_CSX_TOUCHPAD_WIDGET_EN)
 135:Generated_Source\PSoC4/CapSense_Processing.c ****     static CY_INLINE void CapSense_DpInitCsxTouchpad(CapSense_FLASH_WD_STRUCT const * ptrFlashWdgt)
 136:Generated_Source\PSoC4/CapSense_Processing.c **** #endif /* #if (0u != CapSense_CSX_TOUCHPAD_WIDGET_EN) */
 137:Generated_Source\PSoC4/CapSense_Processing.c **** 
 138:Generated_Source\PSoC4/CapSense_Processing.c **** #if (0u != CapSense_SLIDER_WIDGET_EN)
 139:Generated_Source\PSoC4/CapSense_Processing.c ****     static CY_INLINE void CapSense_DpInitSlider(CapSense_FLASH_WD_STRUCT const * ptrFlashWdgt);
 140:Generated_Source\PSoC4/CapSense_Processing.c **** #endif /* #if (0u != CapSense_SLIDER_WIDGET_EN) */
 141:Generated_Source\PSoC4/CapSense_Processing.c **** 
 142:Generated_Source\PSoC4/CapSense_Processing.c **** #if (0u != CapSense_CSD_MATRIX_WIDGET_EN)
 143:Generated_Source\PSoC4/CapSense_Processing.c ****     static CY_INLINE void CapSense_DpInitCsdMatrix(CapSense_FLASH_WD_STRUCT const * ptrFlashWdgt);
 144:Generated_Source\PSoC4/CapSense_Processing.c **** #endif /* #if (0u != CapSense_CSD_MATRIX_WIDGET_EN) */
 145:Generated_Source\PSoC4/CapSense_Processing.c **** 
 146:Generated_Source\PSoC4/CapSense_Processing.c **** /** \}
ARM GAS  C:\Users\TB1014~1\AppData\Local\Temp\ccTzyt2s.s 			page 4


 147:Generated_Source\PSoC4/CapSense_Processing.c **** * \endif */
 148:Generated_Source\PSoC4/CapSense_Processing.c **** 
 149:Generated_Source\PSoC4/CapSense_Processing.c **** #if (0u != CapSense_CSD_TOUCHPAD_WIDGET_EN)
 150:Generated_Source\PSoC4/CapSense_Processing.c **** /*******************************************************************************
 151:Generated_Source\PSoC4/CapSense_Processing.c **** * Function Name: CapSense_DpInitCsdTouchpad
 152:Generated_Source\PSoC4/CapSense_Processing.c **** ****************************************************************************//**
 153:Generated_Source\PSoC4/CapSense_Processing.c **** *
 154:Generated_Source\PSoC4/CapSense_Processing.c **** * \brief
 155:Generated_Source\PSoC4/CapSense_Processing.c **** *  Performs initialization of the CSD touchpad widget.
 156:Generated_Source\PSoC4/CapSense_Processing.c **** *   - Resets the position data to NONE
 157:Generated_Source\PSoC4/CapSense_Processing.c **** *   - Initializes the median filter history if the appropriate position filter is enabled.
 158:Generated_Source\PSoC4/CapSense_Processing.c **** *
 159:Generated_Source\PSoC4/CapSense_Processing.c **** * \details
 160:Generated_Source\PSoC4/CapSense_Processing.c **** *  The position data is always reset to the CapSense_TOUCHPAD_POS_NONE value.
 161:Generated_Source\PSoC4/CapSense_Processing.c **** *  The same happens to the median filter history data if this type of filter is enabled.
 162:Generated_Source\PSoC4/CapSense_Processing.c **** *
 163:Generated_Source\PSoC4/CapSense_Processing.c **** *******************************************************************************/
 164:Generated_Source\PSoC4/CapSense_Processing.c **** static CY_INLINE void CapSense_DpInitCsdTouchpad(CapSense_FLASH_WD_STRUCT const * ptrFlashWdgt)
 165:Generated_Source\PSoC4/CapSense_Processing.c **** {
 166:Generated_Source\PSoC4/CapSense_Processing.c ****     CapSense_RAM_WD_CSD_TOUCHPAD_STRUCT *ptrWdTouchpad;
 167:Generated_Source\PSoC4/CapSense_Processing.c **** 
 168:Generated_Source\PSoC4/CapSense_Processing.c ****     #if (0u != CapSense_POS_MEDIAN_FILTER_EN)
 169:Generated_Source\PSoC4/CapSense_Processing.c ****         CapSense_TOUCHPAD_POS_HISTORY_STRUCT *ptrHistory;
 170:Generated_Source\PSoC4/CapSense_Processing.c ****     #endif  /* #if (0u != CapSense_POS_MEDIAN_FILTER_EN) */
 171:Generated_Source\PSoC4/CapSense_Processing.c **** 
 172:Generated_Source\PSoC4/CapSense_Processing.c ****     ptrWdTouchpad = ptrFlashWdgt->ptr2WdgtRam;
 173:Generated_Source\PSoC4/CapSense_Processing.c **** 
 174:Generated_Source\PSoC4/CapSense_Processing.c ****     /* Reset position data */
 175:Generated_Source\PSoC4/CapSense_Processing.c ****     ptrWdTouchpad->posX = CapSense_TOUCHPAD_POS_NONE;
 176:Generated_Source\PSoC4/CapSense_Processing.c ****     ptrWdTouchpad->posY = CapSense_TOUCHPAD_POS_NONE;
 177:Generated_Source\PSoC4/CapSense_Processing.c **** 
 178:Generated_Source\PSoC4/CapSense_Processing.c ****     /* Reset median filter */
 179:Generated_Source\PSoC4/CapSense_Processing.c ****     #if (0u != CapSense_POS_MEDIAN_FILTER_EN)
 180:Generated_Source\PSoC4/CapSense_Processing.c ****         ptrHistory = ptrFlashWdgt->ptr2PosHistory;
 181:Generated_Source\PSoC4/CapSense_Processing.c **** 
 182:Generated_Source\PSoC4/CapSense_Processing.c ****         if (NULL != ptrHistory)
 183:Generated_Source\PSoC4/CapSense_Processing.c ****         {
 184:Generated_Source\PSoC4/CapSense_Processing.c ****             ptrHistory->xPos.posMedianZ1 = CapSense_TOUCHPAD_POS_NONE;
 185:Generated_Source\PSoC4/CapSense_Processing.c ****             ptrHistory->xPos.posMedianZ2 = CapSense_TOUCHPAD_POS_NONE;
 186:Generated_Source\PSoC4/CapSense_Processing.c **** 
 187:Generated_Source\PSoC4/CapSense_Processing.c ****             ptrHistory->yPos.posMedianZ1 = CapSense_TOUCHPAD_POS_NONE;
 188:Generated_Source\PSoC4/CapSense_Processing.c ****             ptrHistory->yPos.posMedianZ2 = CapSense_TOUCHPAD_POS_NONE;
 189:Generated_Source\PSoC4/CapSense_Processing.c ****         }
 190:Generated_Source\PSoC4/CapSense_Processing.c ****     #endif /* #if (0u != CapSense_POS_MEDIAN_FILTER_EN) */
 191:Generated_Source\PSoC4/CapSense_Processing.c **** }
 192:Generated_Source\PSoC4/CapSense_Processing.c **** #endif /* #if (0u != CapSense_CSD_TOUCHPAD_WIDGET_EN) */
 193:Generated_Source\PSoC4/CapSense_Processing.c **** 
 194:Generated_Source\PSoC4/CapSense_Processing.c **** #if (0u != CapSense_CSX_TOUCHPAD_WIDGET_EN)
 195:Generated_Source\PSoC4/CapSense_Processing.c **** /*******************************************************************************
 196:Generated_Source\PSoC4/CapSense_Processing.c **** * Function Name: CapSense_DpInitCsxTouchpad
 197:Generated_Source\PSoC4/CapSense_Processing.c **** ****************************************************************************//**
 198:Generated_Source\PSoC4/CapSense_Processing.c **** *
 199:Generated_Source\PSoC4/CapSense_Processing.c **** * \brief
 200:Generated_Source\PSoC4/CapSense_Processing.c **** *  Performs initialization of the CSX touchpad widget i.e. Resets the position data to NONE.
 201:Generated_Source\PSoC4/CapSense_Processing.c **** *
 202:Generated_Source\PSoC4/CapSense_Processing.c **** * \details
 203:Generated_Source\PSoC4/CapSense_Processing.c **** *  The position data is always reset to the CapSense_TOUCHPAD_POS_NONE value.
ARM GAS  C:\Users\TB1014~1\AppData\Local\Temp\ccTzyt2s.s 			page 5


 204:Generated_Source\PSoC4/CapSense_Processing.c **** *
 205:Generated_Source\PSoC4/CapSense_Processing.c **** *******************************************************************************/
 206:Generated_Source\PSoC4/CapSense_Processing.c **** static CY_INLINE void CapSense_DpInitCsxTouchpad(CapSense_FLASH_WD_STRUCT const * ptrFlashWdgt)
 207:Generated_Source\PSoC4/CapSense_Processing.c **** {
 208:Generated_Source\PSoC4/CapSense_Processing.c ****     CapSense_RAM_WD_CSX_TOUCHPAD_STRUCT *ptrWdTouchpad;
 209:Generated_Source\PSoC4/CapSense_Processing.c **** 
 210:Generated_Source\PSoC4/CapSense_Processing.c ****     ptrWdTouchpad = ptrFlashWdgt->ptr2WdgtRam;
 211:Generated_Source\PSoC4/CapSense_Processing.c **** 
 212:Generated_Source\PSoC4/CapSense_Processing.c ****     /* Reset position data for finger */
 213:Generated_Source\PSoC4/CapSense_Processing.c ****     ptrWdTouchpad->touch[0u].x = CapSense_TOUCHPAD_POS_NONE;
 214:Generated_Source\PSoC4/CapSense_Processing.c ****     ptrWdTouchpad->touch[0u].y = CapSense_TOUCHPAD_POS_NONE;
 215:Generated_Source\PSoC4/CapSense_Processing.c ****     ptrWdTouchpad->touch[0u].z = LO8(CapSense_TOUCHPAD_POS_NONE);
 216:Generated_Source\PSoC4/CapSense_Processing.c **** 
 217:Generated_Source\PSoC4/CapSense_Processing.c ****     #if (CapSense_CSX_MAX_FINGERS > 1u)
 218:Generated_Source\PSoC4/CapSense_Processing.c ****         ptrWdTouchpad->touch[1u].x = CapSense_TOUCHPAD_POS_NONE;
 219:Generated_Source\PSoC4/CapSense_Processing.c ****         ptrWdTouchpad->touch[1u].y = CapSense_TOUCHPAD_POS_NONE;
 220:Generated_Source\PSoC4/CapSense_Processing.c ****         ptrWdTouchpad->touch[1u].z = LO8(CapSense_TOUCHPAD_POS_NONE);
 221:Generated_Source\PSoC4/CapSense_Processing.c ****     #endif /* #if (CapSense_CSX_MAX_FINGERS > 1u) */
 222:Generated_Source\PSoC4/CapSense_Processing.c **** 
 223:Generated_Source\PSoC4/CapSense_Processing.c ****     #if (CapSense_CSX_MAX_FINGERS > 2u)
 224:Generated_Source\PSoC4/CapSense_Processing.c ****         ptrWdTouchpad->touch[2u].x = CapSense_TOUCHPAD_POS_NONE;
 225:Generated_Source\PSoC4/CapSense_Processing.c ****         ptrWdTouchpad->touch[2u].y = CapSense_TOUCHPAD_POS_NONE;
 226:Generated_Source\PSoC4/CapSense_Processing.c ****         ptrWdTouchpad->touch[2u].z = LO8(CapSense_TOUCHPAD_POS_NONE);
 227:Generated_Source\PSoC4/CapSense_Processing.c ****     #endif /* #if (CapSense_CSX_MAX_FINGERS > 2u) */
 228:Generated_Source\PSoC4/CapSense_Processing.c **** }
 229:Generated_Source\PSoC4/CapSense_Processing.c **** #endif /* #if (0u != CapSense_CSX_TOUCHPAD_WIDGET_EN) */
 230:Generated_Source\PSoC4/CapSense_Processing.c **** 
 231:Generated_Source\PSoC4/CapSense_Processing.c **** #if (0u != CapSense_SLIDER_WIDGET_EN)
 232:Generated_Source\PSoC4/CapSense_Processing.c **** /*******************************************************************************
 233:Generated_Source\PSoC4/CapSense_Processing.c **** * Function Name: CapSense_DpInitSlider
 234:Generated_Source\PSoC4/CapSense_Processing.c **** ****************************************************************************//**
 235:Generated_Source\PSoC4/CapSense_Processing.c **** *
 236:Generated_Source\PSoC4/CapSense_Processing.c **** * \brief
 237:Generated_Source\PSoC4/CapSense_Processing.c **** *  Performs initialization of the Radial and Linear Slider widget.
 238:Generated_Source\PSoC4/CapSense_Processing.c **** *   - Resets the position data to NONE
 239:Generated_Source\PSoC4/CapSense_Processing.c **** *   - Initializes the median filter history to NONE if it is enabled.
 240:Generated_Source\PSoC4/CapSense_Processing.c **** *
 241:Generated_Source\PSoC4/CapSense_Processing.c **** * \details
 242:Generated_Source\PSoC4/CapSense_Processing.c **** *  Position data is always reset to the CapSense_SLIDER_POS_NONE value.
 243:Generated_Source\PSoC4/CapSense_Processing.c **** *  The same happens to the median filter history data.
 244:Generated_Source\PSoC4/CapSense_Processing.c **** *
 245:Generated_Source\PSoC4/CapSense_Processing.c **** *******************************************************************************/
 246:Generated_Source\PSoC4/CapSense_Processing.c **** static CY_INLINE void CapSense_DpInitSlider(CapSense_FLASH_WD_STRUCT const * ptrFlashWdgt)
 247:Generated_Source\PSoC4/CapSense_Processing.c **** {
 248:Generated_Source\PSoC4/CapSense_Processing.c ****     uint32 idx;
 249:Generated_Source\PSoC4/CapSense_Processing.c ****     CapSense_RAM_WD_SLIDER_STRUCT *ptrWdSlider;
 250:Generated_Source\PSoC4/CapSense_Processing.c **** 
 251:Generated_Source\PSoC4/CapSense_Processing.c ****     #if (0u != CapSense_POS_MEDIAN_FILTER_EN)
 252:Generated_Source\PSoC4/CapSense_Processing.c ****         CapSense_SLIDER_POS_HISTORY_STRUCT *ptrHistory;
 253:Generated_Source\PSoC4/CapSense_Processing.c ****     #endif /* #if (0u != CapSense_POS_MEDIAN_FILTER_EN) */
 254:Generated_Source\PSoC4/CapSense_Processing.c **** 
 255:Generated_Source\PSoC4/CapSense_Processing.c ****     ptrWdSlider = ptrFlashWdgt->ptr2WdgtRam;
 256:Generated_Source\PSoC4/CapSense_Processing.c **** 
 257:Generated_Source\PSoC4/CapSense_Processing.c ****     /* Reset slider position data to NONE */
 258:Generated_Source\PSoC4/CapSense_Processing.c ****     for (idx = 0u; idx < CapSense_NUM_CENTROIDS; idx++)
 259:Generated_Source\PSoC4/CapSense_Processing.c ****     {
 260:Generated_Source\PSoC4/CapSense_Processing.c ****         ptrWdSlider->position[idx] = CapSense_SLIDER_POS_NONE;
ARM GAS  C:\Users\TB1014~1\AppData\Local\Temp\ccTzyt2s.s 			page 6


 261:Generated_Source\PSoC4/CapSense_Processing.c **** 
 262:Generated_Source\PSoC4/CapSense_Processing.c ****         #if (0u != CapSense_POS_MEDIAN_FILTER_EN)
 263:Generated_Source\PSoC4/CapSense_Processing.c ****             ptrHistory = ptrFlashWdgt->ptr2PosHistory;
 264:Generated_Source\PSoC4/CapSense_Processing.c ****             
 265:Generated_Source\PSoC4/CapSense_Processing.c ****             if (NULL != ptrHistory)
 266:Generated_Source\PSoC4/CapSense_Processing.c ****             {
 267:Generated_Source\PSoC4/CapSense_Processing.c ****                 ptrHistory[idx].posMedianZ1 = CapSense_SLIDER_POS_NONE;
 268:Generated_Source\PSoC4/CapSense_Processing.c ****                 ptrHistory[idx].posMedianZ2 = CapSense_SLIDER_POS_NONE;
 269:Generated_Source\PSoC4/CapSense_Processing.c ****             }
 270:Generated_Source\PSoC4/CapSense_Processing.c ****         #endif /* #if (0u != CapSense_POS_MEDIAN_FILTER_EN) */
 271:Generated_Source\PSoC4/CapSense_Processing.c ****     }
 272:Generated_Source\PSoC4/CapSense_Processing.c **** }
 273:Generated_Source\PSoC4/CapSense_Processing.c **** #endif /* #if (0u != CapSense_SLIDER_WIDGET_EN) */
 274:Generated_Source\PSoC4/CapSense_Processing.c **** 
 275:Generated_Source\PSoC4/CapSense_Processing.c **** #if (0u != CapSense_CSD_MATRIX_WIDGET_EN)
 276:Generated_Source\PSoC4/CapSense_Processing.c **** /*******************************************************************************
 277:Generated_Source\PSoC4/CapSense_Processing.c **** * Function Name: CapSense_DpInitCsdMatrix
 278:Generated_Source\PSoC4/CapSense_Processing.c **** ****************************************************************************//**
 279:Generated_Source\PSoC4/CapSense_Processing.c **** *
 280:Generated_Source\PSoC4/CapSense_Processing.c **** * \brief
 281:Generated_Source\PSoC4/CapSense_Processing.c **** *  Performs initialization of the CSD Matrix Buttons widget.
 282:Generated_Source\PSoC4/CapSense_Processing.c **** *   - Resets the active button position data to NONE.
 283:Generated_Source\PSoC4/CapSense_Processing.c **** *
 284:Generated_Source\PSoC4/CapSense_Processing.c **** * \details
 285:Generated_Source\PSoC4/CapSense_Processing.c **** *  Position data is always reset to the CapSense_MATRIX_POS_NONE value.
 286:Generated_Source\PSoC4/CapSense_Processing.c **** *
 287:Generated_Source\PSoC4/CapSense_Processing.c **** *******************************************************************************/
 288:Generated_Source\PSoC4/CapSense_Processing.c **** static CY_INLINE void CapSense_DpInitCsdMatrix(CapSense_FLASH_WD_STRUCT const * ptrFlashWdgt)
 289:Generated_Source\PSoC4/CapSense_Processing.c **** {
 290:Generated_Source\PSoC4/CapSense_Processing.c ****     CapSense_RAM_WD_CSD_MATRIX_STRUCT *ptrRamWdgt;
 291:Generated_Source\PSoC4/CapSense_Processing.c **** 
 292:Generated_Source\PSoC4/CapSense_Processing.c ****     ptrRamWdgt = ptrFlashWdgt->ptr2WdgtRam;
 293:Generated_Source\PSoC4/CapSense_Processing.c **** 
 294:Generated_Source\PSoC4/CapSense_Processing.c ****     /* Reset sensor id, row and col registers in data structure */
 295:Generated_Source\PSoC4/CapSense_Processing.c ****     ptrRamWdgt->posRow   = CapSense_MATRIX_POS_NONE;
 296:Generated_Source\PSoC4/CapSense_Processing.c ****     ptrRamWdgt->posCol   = CapSense_MATRIX_POS_NONE;
 297:Generated_Source\PSoC4/CapSense_Processing.c ****     ptrRamWdgt->posSnsId = CapSense_MATRIX_POS_NONE;
 298:Generated_Source\PSoC4/CapSense_Processing.c **** }
 299:Generated_Source\PSoC4/CapSense_Processing.c **** #endif /* #if (0u != CapSense_CSD_MATRIX_WIDGET_EN) */
 300:Generated_Source\PSoC4/CapSense_Processing.c **** 
 301:Generated_Source\PSoC4/CapSense_Processing.c **** /*******************************************************************************
 302:Generated_Source\PSoC4/CapSense_Processing.c **** * Function Name: CapSense_DpInitialize
 303:Generated_Source\PSoC4/CapSense_Processing.c **** ****************************************************************************//**
 304:Generated_Source\PSoC4/CapSense_Processing.c **** *
 305:Generated_Source\PSoC4/CapSense_Processing.c **** * \brief
 306:Generated_Source\PSoC4/CapSense_Processing.c **** *  Performs initialization of the data processing FW module:
 307:Generated_Source\PSoC4/CapSense_Processing.c **** *   - Resets the de-bounce counters of all widgets
 308:Generated_Source\PSoC4/CapSense_Processing.c **** *   - Resets the position filter history for slider and touchpad widgets
 309:Generated_Source\PSoC4/CapSense_Processing.c **** *   - Clears widget and sensor statuses
 310:Generated_Source\PSoC4/CapSense_Processing.c **** *   - Enables all widgets.
 311:Generated_Source\PSoC4/CapSense_Processing.c **** *
 312:Generated_Source\PSoC4/CapSense_Processing.c **** * \details
 313:Generated_Source\PSoC4/CapSense_Processing.c **** *  The Button and Matrix Button widgets have individual de-bounce counter per
 314:Generated_Source\PSoC4/CapSense_Processing.c **** *  sensor for the CSD widgets and per node for the CSX widgets.
 315:Generated_Source\PSoC4/CapSense_Processing.c **** *
 316:Generated_Source\PSoC4/CapSense_Processing.c **** *  The Slider and Touchpad widgets have a single de-bounce counter per widget.
 317:Generated_Source\PSoC4/CapSense_Processing.c **** *
ARM GAS  C:\Users\TB1014~1\AppData\Local\Temp\ccTzyt2s.s 			page 7


 318:Generated_Source\PSoC4/CapSense_Processing.c **** *  The Proximity widget has two de-bounce counters per sensor. One for the
 319:Generated_Source\PSoC4/CapSense_Processing.c **** *  proximity event and second for the touch event.
 320:Generated_Source\PSoC4/CapSense_Processing.c **** *
 321:Generated_Source\PSoC4/CapSense_Processing.c **** *  All debounce counters during initialization are set to the value of the
 322:Generated_Source\PSoC4/CapSense_Processing.c **** *  onDebounce widget parameter.
 323:Generated_Source\PSoC4/CapSense_Processing.c **** *
 324:Generated_Source\PSoC4/CapSense_Processing.c **** *******************************************************************************/
 325:Generated_Source\PSoC4/CapSense_Processing.c **** void CapSense_DpInitialize(void)
 326:Generated_Source\PSoC4/CapSense_Processing.c **** {
  26              		.loc 1 326 0
  27              		.cfi_startproc
  28 0000 70B5     		push	{r4, r5, r6, lr}
  29              		.cfi_def_cfa_offset 16
  30              		.cfi_offset 4, -16
  31              		.cfi_offset 5, -12
  32              		.cfi_offset 6, -8
  33              		.cfi_offset 14, -4
  34              	.LVL0:
 327:Generated_Source\PSoC4/CapSense_Processing.c ****     uint32 wdgtId;
 328:Generated_Source\PSoC4/CapSense_Processing.c ****     CapSense_WD_TYPE_ENUM widgetType;
 329:Generated_Source\PSoC4/CapSense_Processing.c ****     CapSense_RAM_WD_BASE_STRUCT * ptrRamWdgt;
 330:Generated_Source\PSoC4/CapSense_Processing.c ****     CapSense_FLASH_WD_STRUCT const * ptrFlashWdgt;
 331:Generated_Source\PSoC4/CapSense_Processing.c **** 
 332:Generated_Source\PSoC4/CapSense_Processing.c ****     for (wdgtId = 0u; wdgtId < CapSense_WDGT_STATUS_WORDS; wdgtId++)
  35              		.loc 1 332 0
  36 0002 0023     		mov	r3, #0
  37 0004 0BE0     		b	.L2
  38              	.LVL1:
  39              	.L3:
 333:Generated_Source\PSoC4/CapSense_Processing.c ****     {
 334:Generated_Source\PSoC4/CapSense_Processing.c ****         /* Clear widget status */
 335:Generated_Source\PSoC4/CapSense_Processing.c ****         CapSense_dsRam.wdgtStatus[wdgtId] = 0u;
  40              		.loc 1 335 0 discriminator 3
  41 0006 1F48     		ldr	r0, .L13
  42 0008 191D     		add	r1, r3, #4
  43 000a 8900     		lsl	r1, r1, #2
  44 000c 0022     		mov	r2, #0
  45 000e 0A50     		str	r2, [r1, r0]
 336:Generated_Source\PSoC4/CapSense_Processing.c **** 
 337:Generated_Source\PSoC4/CapSense_Processing.c ****         /* Enable all widgets */
 338:Generated_Source\PSoC4/CapSense_Processing.c ****         CapSense_dsRam.wdgtEnable[wdgtId] = 0xFFFFFFFFLu;
  46              		.loc 1 338 0 discriminator 3
  47 0010 9A1C     		add	r2, r3, #2
  48 0012 9200     		lsl	r2, r2, #2
  49 0014 8218     		add	r2, r0, r2
  50 0016 0121     		mov	r1, #1
  51 0018 4942     		neg	r1, r1
  52 001a 5160     		str	r1, [r2, #4]
 332:Generated_Source\PSoC4/CapSense_Processing.c ****     {
  53              		.loc 1 332 0 discriminator 3
  54 001c 0133     		add	r3, r3, #1
  55              	.LVL2:
  56              	.L2:
 332:Generated_Source\PSoC4/CapSense_Processing.c ****     {
  57              		.loc 1 332 0 is_stmt 0 discriminator 1
  58 001e 002B     		cmp	r3, #0
  59 0020 F1D0     		beq	.L3
ARM GAS  C:\Users\TB1014~1\AppData\Local\Temp\ccTzyt2s.s 			page 8


  60 0022 194C     		ldr	r4, .L13+4
  61 0024 0823     		mov	r3, #8
  62              	.LVL3:
  63 0026 28E0     		b	.L4
  64              	.LVL4:
  65              	.L11:
 339:Generated_Source\PSoC4/CapSense_Processing.c **** 
 340:Generated_Source\PSoC4/CapSense_Processing.c ****         /* Set all widgets to working state if the Self-Test is not enabled */
 341:Generated_Source\PSoC4/CapSense_Processing.c ****         #if (0u != CapSense_SELF_TEST_EN)
 342:Generated_Source\PSoC4/CapSense_Processing.c ****             CapSense_dsRam.wdgtWorking[wdgtId] = 0xFFFFFFFFLu;
 343:Generated_Source\PSoC4/CapSense_Processing.c ****         #endif /* #if (0u == CapSense_SELF_TEST_EN) */
 344:Generated_Source\PSoC4/CapSense_Processing.c ****     }
 345:Generated_Source\PSoC4/CapSense_Processing.c **** 
 346:Generated_Source\PSoC4/CapSense_Processing.c ****     ptrFlashWdgt = CapSense_dsFlash.wdgtArray;
 347:Generated_Source\PSoC4/CapSense_Processing.c **** 
 348:Generated_Source\PSoC4/CapSense_Processing.c ****     for (wdgtId = CapSense_TOTAL_WIDGETS; wdgtId-- > 0u; )
 349:Generated_Source\PSoC4/CapSense_Processing.c ****     {
 350:Generated_Source\PSoC4/CapSense_Processing.c ****         ptrRamWdgt = ptrFlashWdgt->ptr2WdgtRam;
  66              		.loc 1 350 0 is_stmt 1
  67 0028 6668     		ldr	r6, [r4, #4]
  68              	.LVL5:
 351:Generated_Source\PSoC4/CapSense_Processing.c ****         widgetType = (CapSense_WD_TYPE_ENUM)ptrFlashWdgt->wdgtType;
  69              		.loc 1 351 0
  70 002a 227E     		ldrb	r2, [r4, #24]
  71              	.LVL6:
 352:Generated_Source\PSoC4/CapSense_Processing.c **** 
 353:Generated_Source\PSoC4/CapSense_Processing.c ****         /* Clear all sensor statuses */
 354:Generated_Source\PSoC4/CapSense_Processing.c ****         CapSense_dsRam.snsStatus[wdgtId] = 0u;
  72              		.loc 1 354 0
  73 002c 154B     		ldr	r3, .L13
  74 002e 5B19     		add	r3, r3, r5
  75 0030 0021     		mov	r1, #0
  76 0032 1975     		strb	r1, [r3, #20]
 355:Generated_Source\PSoC4/CapSense_Processing.c **** 
 356:Generated_Source\PSoC4/CapSense_Processing.c ****         /* Reset de-bounce counters */
 357:Generated_Source\PSoC4/CapSense_Processing.c ****         switch (widgetType)
  77              		.loc 1 357 0
  78 0034 012A     		cmp	r2, #1
  79 0036 04D0     		beq	.L6
  80 0038 002A     		cmp	r2, #0
  81 003a 1CD0     		beq	.L5
  82 003c 032A     		cmp	r2, #3
  83 003e 08D9     		bls	.L12
  84 0040 19E0     		b	.L5
  85              	.L6:
 358:Generated_Source\PSoC4/CapSense_Processing.c ****         {
 359:Generated_Source\PSoC4/CapSense_Processing.c ****         #if (0u != CapSense_MATRIX_WIDGET_EN)
 360:Generated_Source\PSoC4/CapSense_Processing.c ****             case CapSense_WD_MATRIX_BUTTON_E:
 361:Generated_Source\PSoC4/CapSense_Processing.c ****                 #if (0u != CapSense_CSD_MATRIX_WIDGET_EN)
 362:Generated_Source\PSoC4/CapSense_Processing.c ****                     if (CapSense_SENSE_METHOD_CSD_E == CapSense_GET_SENSE_METHOD(ptrFlashWdgt))
 363:Generated_Source\PSoC4/CapSense_Processing.c ****                     {
 364:Generated_Source\PSoC4/CapSense_Processing.c ****                         CapSense_DpInitCsdMatrix(ptrFlashWdgt);
 365:Generated_Source\PSoC4/CapSense_Processing.c ****                     }
 366:Generated_Source\PSoC4/CapSense_Processing.c ****                 #endif /* #if (0u != CapSense_CSD_MATRIX_WIDGET_EN) */
 367:Generated_Source\PSoC4/CapSense_Processing.c ****                 
 368:Generated_Source\PSoC4/CapSense_Processing.c ****                 if (NULL != ptrFlashWdgt->ptr2DebounceArr)
 369:Generated_Source\PSoC4/CapSense_Processing.c ****                 {
ARM GAS  C:\Users\TB1014~1\AppData\Local\Temp\ccTzyt2s.s 			page 9


 370:Generated_Source\PSoC4/CapSense_Processing.c ****                     /* Initialize array of debounce counters */
 371:Generated_Source\PSoC4/CapSense_Processing.c ****                     (void)memset(ptrFlashWdgt->ptr2DebounceArr, 
 372:Generated_Source\PSoC4/CapSense_Processing.c ****                                  (int32)ptrRamWdgt->onDebounce, 
 373:Generated_Source\PSoC4/CapSense_Processing.c ****                                  (size_t)ptrFlashWdgt->totalNumSns);
 374:Generated_Source\PSoC4/CapSense_Processing.c ****                 }
 375:Generated_Source\PSoC4/CapSense_Processing.c ****                 break;
 376:Generated_Source\PSoC4/CapSense_Processing.c ****         #endif /* #if (0u != CapSense_MATRIX_WIDGET_EN) */
 377:Generated_Source\PSoC4/CapSense_Processing.c ****         
 378:Generated_Source\PSoC4/CapSense_Processing.c ****         #if (0u != CapSense_BUTTON_WIDGET_EN)
 379:Generated_Source\PSoC4/CapSense_Processing.c ****             case CapSense_WD_BUTTON_E:
 380:Generated_Source\PSoC4/CapSense_Processing.c ****                 if (NULL != ptrFlashWdgt->ptr2DebounceArr)
  86              		.loc 1 380 0
  87 0042 2069     		ldr	r0, [r4, #16]
  88 0044 0028     		cmp	r0, #0
  89 0046 16D0     		beq	.L5
 381:Generated_Source\PSoC4/CapSense_Processing.c ****                 {
 382:Generated_Source\PSoC4/CapSense_Processing.c ****                     /* Initialize array of debounce counters */
 383:Generated_Source\PSoC4/CapSense_Processing.c ****                     (void)memset(ptrFlashWdgt->ptr2DebounceArr, 
 384:Generated_Source\PSoC4/CapSense_Processing.c ****                                  (int32)ptrRamWdgt->onDebounce, 
  90              		.loc 1 384 0
  91 0048 F179     		ldrb	r1, [r6, #7]
 385:Generated_Source\PSoC4/CapSense_Processing.c ****                                  (size_t)ptrFlashWdgt->totalNumSns);
  92              		.loc 1 385 0
  93 004a E28A     		ldrh	r2, [r4, #22]
  94              	.LVL7:
 383:Generated_Source\PSoC4/CapSense_Processing.c ****                                  (int32)ptrRamWdgt->onDebounce, 
  95              		.loc 1 383 0
  96 004c FFF7FEFF 		bl	memset
  97              	.LVL8:
  98 0050 11E0     		b	.L5
  99              	.LVL9:
 100              	.L12:
 386:Generated_Source\PSoC4/CapSense_Processing.c ****                 }
 387:Generated_Source\PSoC4/CapSense_Processing.c ****                 break;
 388:Generated_Source\PSoC4/CapSense_Processing.c ****         #endif /* #if (0u != CapSense_BUTTON_WIDGET_EN) */
 389:Generated_Source\PSoC4/CapSense_Processing.c **** 
 390:Generated_Source\PSoC4/CapSense_Processing.c ****         #if (0u != CapSense_SLIDER_WIDGET_EN)
 391:Generated_Source\PSoC4/CapSense_Processing.c ****             case CapSense_WD_LINEAR_SLIDER_E:
 392:Generated_Source\PSoC4/CapSense_Processing.c ****             case CapSense_WD_RADIAL_SLIDER_E:
 393:Generated_Source\PSoC4/CapSense_Processing.c ****                 if (NULL != ptrFlashWdgt->ptr2DebounceArr)
 101              		.loc 1 393 0
 102 0052 2369     		ldr	r3, [r4, #16]
 103 0054 002B     		cmp	r3, #0
 104 0056 01D0     		beq	.L8
 394:Generated_Source\PSoC4/CapSense_Processing.c ****                 {
 395:Generated_Source\PSoC4/CapSense_Processing.c ****                     /* Initialize single debounce counter of slider */
 396:Generated_Source\PSoC4/CapSense_Processing.c ****                     *(uint8 *)(ptrFlashWdgt->ptr2DebounceArr) = ptrRamWdgt->onDebounce;
 105              		.loc 1 396 0
 106 0058 F279     		ldrb	r2, [r6, #7]
 107              	.LVL10:
 108 005a 1A70     		strb	r2, [r3]
 109              	.L8:
 110              	.LVL11:
 111              	.LBB6:
 112              	.LBB7:
 255:Generated_Source\PSoC4/CapSense_Processing.c **** 
 113              		.loc 1 255 0
ARM GAS  C:\Users\TB1014~1\AppData\Local\Temp\ccTzyt2s.s 			page 10


 114 005c 6168     		ldr	r1, [r4, #4]
 115              	.LVL12:
 258:Generated_Source\PSoC4/CapSense_Processing.c ****     {
 116              		.loc 1 258 0
 117 005e 0023     		mov	r3, #0
 118 0060 07E0     		b	.L9
 119              	.LVL13:
 120              	.L10:
 260:Generated_Source\PSoC4/CapSense_Processing.c **** 
 121              		.loc 1 260 0
 122 0062 1A1C     		mov	r2, r3
 123 0064 0832     		add	r2, r2, #8
 124 0066 5200     		lsl	r2, r2, #1
 125 0068 8A18     		add	r2, r1, r2
 126 006a 0120     		mov	r0, #1
 127 006c 4042     		neg	r0, r0
 128 006e 5080     		strh	r0, [r2, #2]
 258:Generated_Source\PSoC4/CapSense_Processing.c ****     {
 129              		.loc 1 258 0
 130 0070 0133     		add	r3, r3, #1
 131              	.LVL14:
 132              	.L9:
 133 0072 002B     		cmp	r3, #0
 134 0074 F5D0     		beq	.L10
 135              	.LVL15:
 136              	.L5:
 137              	.LBE7:
 138              	.LBE6:
 397:Generated_Source\PSoC4/CapSense_Processing.c ****                 }
 398:Generated_Source\PSoC4/CapSense_Processing.c **** 
 399:Generated_Source\PSoC4/CapSense_Processing.c ****                 CapSense_DpInitSlider(ptrFlashWdgt);
 400:Generated_Source\PSoC4/CapSense_Processing.c **** 
 401:Generated_Source\PSoC4/CapSense_Processing.c ****                 break;
 402:Generated_Source\PSoC4/CapSense_Processing.c ****         #endif /* #if (0u != CapSense_SLIDER_WIDGET_EN) */
 403:Generated_Source\PSoC4/CapSense_Processing.c **** 
 404:Generated_Source\PSoC4/CapSense_Processing.c ****         #if (0u != CapSense_TOUCHPAD_WIDGET_EN)
 405:Generated_Source\PSoC4/CapSense_Processing.c ****             case CapSense_WD_TOUCHPAD_E:
 406:Generated_Source\PSoC4/CapSense_Processing.c ****                 if (NULL != ptrFlashWdgt->ptr2DebounceArr)
 407:Generated_Source\PSoC4/CapSense_Processing.c ****                 {
 408:Generated_Source\PSoC4/CapSense_Processing.c ****                     /* Initialize single debounce counter of touchpad */
 409:Generated_Source\PSoC4/CapSense_Processing.c ****                     *(uint8 *)(ptrFlashWdgt->ptr2DebounceArr) = ptrRamWdgt->onDebounce;
 410:Generated_Source\PSoC4/CapSense_Processing.c ****                 }
 411:Generated_Source\PSoC4/CapSense_Processing.c **** 
 412:Generated_Source\PSoC4/CapSense_Processing.c ****                 #if (0u != CapSense_CSD_TOUCHPAD_WIDGET_EN)
 413:Generated_Source\PSoC4/CapSense_Processing.c ****                     if (CapSense_SENSE_METHOD_CSD_E == CapSense_GET_SENSE_METHOD(ptrFlashWdgt))
 414:Generated_Source\PSoC4/CapSense_Processing.c ****                     {
 415:Generated_Source\PSoC4/CapSense_Processing.c ****                         CapSense_DpInitCsdTouchpad(ptrFlashWdgt);
 416:Generated_Source\PSoC4/CapSense_Processing.c ****                     }
 417:Generated_Source\PSoC4/CapSense_Processing.c ****                 #endif /* #if (0u != CapSense_CSD_TOUCHPAD_WIDGET_EN) */
 418:Generated_Source\PSoC4/CapSense_Processing.c **** 
 419:Generated_Source\PSoC4/CapSense_Processing.c ****                 #if (0u != CapSense_CSX_TOUCHPAD_WIDGET_EN)
 420:Generated_Source\PSoC4/CapSense_Processing.c ****                     if (CapSense_SENSE_METHOD_CSX_E == CapSense_GET_SENSE_METHOD(ptrFlashWdgt))
 421:Generated_Source\PSoC4/CapSense_Processing.c ****                     {
 422:Generated_Source\PSoC4/CapSense_Processing.c ****                         CapSense_DpInitCsxTouchpad(ptrFlashWdgt);
 423:Generated_Source\PSoC4/CapSense_Processing.c ****                     }
 424:Generated_Source\PSoC4/CapSense_Processing.c ****                 #endif /* #if (0u != CapSense_CSX_TOUCHPAD_WIDGET_EN) */
 425:Generated_Source\PSoC4/CapSense_Processing.c **** 
ARM GAS  C:\Users\TB1014~1\AppData\Local\Temp\ccTzyt2s.s 			page 11


 426:Generated_Source\PSoC4/CapSense_Processing.c ****                 break;
 427:Generated_Source\PSoC4/CapSense_Processing.c ****         #endif /* #if (0u != CapSense_TOUCHPAD_WIDGET_EN) */
 428:Generated_Source\PSoC4/CapSense_Processing.c **** 
 429:Generated_Source\PSoC4/CapSense_Processing.c ****         #if (0u != CapSense_PROXIMITY_WIDGET_EN)
 430:Generated_Source\PSoC4/CapSense_Processing.c ****             case CapSense_WD_PROXIMITY_E:
 431:Generated_Source\PSoC4/CapSense_Processing.c ****                 if (NULL != ptrFlashWdgt->ptr2DebounceArr)
 432:Generated_Source\PSoC4/CapSense_Processing.c ****                 {
 433:Generated_Source\PSoC4/CapSense_Processing.c ****                     /* Proximity widgets have 2 de-bounce counters per sensor. 
 434:Generated_Source\PSoC4/CapSense_Processing.c ****                      * Therefore the number of sensors is multiplied by 2. 
 435:Generated_Source\PSoC4/CapSense_Processing.c ****                      */
 436:Generated_Source\PSoC4/CapSense_Processing.c ****                    (void)memset(ptrFlashWdgt->ptr2DebounceArr, 
 437:Generated_Source\PSoC4/CapSense_Processing.c ****                                 (int32)ptrRamWdgt->onDebounce, 
 438:Generated_Source\PSoC4/CapSense_Processing.c ****                                 (size_t)ptrFlashWdgt->totalNumSns * 2u);
 439:Generated_Source\PSoC4/CapSense_Processing.c ****                 }
 440:Generated_Source\PSoC4/CapSense_Processing.c ****                 break;
 441:Generated_Source\PSoC4/CapSense_Processing.c ****         #endif /* #if (0u != CapSense_PROXIMITY_WIDGET_EN) */
 442:Generated_Source\PSoC4/CapSense_Processing.c ****                 
 443:Generated_Source\PSoC4/CapSense_Processing.c ****             default:
 444:Generated_Source\PSoC4/CapSense_Processing.c ****                 break;
 445:Generated_Source\PSoC4/CapSense_Processing.c ****         }
 446:Generated_Source\PSoC4/CapSense_Processing.c **** 
 447:Generated_Source\PSoC4/CapSense_Processing.c ****         /* Move to next widget */
 448:Generated_Source\PSoC4/CapSense_Processing.c ****         ptrFlashWdgt++;
 139              		.loc 1 448 0
 140 0076 2434     		add	r4, r4, #36
 141              	.LVL16:
 348:Generated_Source\PSoC4/CapSense_Processing.c ****     {
 142              		.loc 1 348 0
 143 0078 2B1C     		mov	r3, r5
 144              	.LVL17:
 145              	.L4:
 348:Generated_Source\PSoC4/CapSense_Processing.c ****     {
 146              		.loc 1 348 0 is_stmt 0 discriminator 1
 147 007a 5D1E     		sub	r5, r3, #1
 148              	.LVL18:
 149 007c 002B     		cmp	r3, #0
 150 007e D3D1     		bne	.L11
 449:Generated_Source\PSoC4/CapSense_Processing.c ****     }
 450:Generated_Source\PSoC4/CapSense_Processing.c **** }
 151              		.loc 1 450 0 is_stmt 1
 152              		@ sp needed
 153              	.LVL19:
 154              	.LVL20:
 155 0080 70BD     		pop	{r4, r5, r6, pc}
 156              	.L14:
 157 0082 C046     		.align	2
 158              	.L13:
 159 0084 00000000 		.word	CapSense_dsRam
 160 0088 00000000 		.word	CapSense_dsFlash
 161              		.cfi_endproc
 162              	.LFE2:
 163              		.size	CapSense_DpInitialize, .-CapSense_DpInitialize
 164              		.section	.text.CapSense_DpUpdateDifferences,"ax",%progbits
 165              		.align	2
 166              		.global	CapSense_DpUpdateDifferences
 167              		.code	16
 168              		.thumb_func
ARM GAS  C:\Users\TB1014~1\AppData\Local\Temp\ccTzyt2s.s 			page 12


 169              		.type	CapSense_DpUpdateDifferences, %function
 170              	CapSense_DpUpdateDifferences:
 171              	.LFB6:
 451:Generated_Source\PSoC4/CapSense_Processing.c **** 
 452:Generated_Source\PSoC4/CapSense_Processing.c **** #if (0u != CapSense_TOTAL_CSX_WIDGETS)
 453:Generated_Source\PSoC4/CapSense_Processing.c **** /*******************************************************************************
 454:Generated_Source\PSoC4/CapSense_Processing.c **** * Function Name: CapSense_DpProcessCsxWidgetRawCounts
 455:Generated_Source\PSoC4/CapSense_Processing.c **** ****************************************************************************//**
 456:Generated_Source\PSoC4/CapSense_Processing.c **** *
 457:Generated_Source\PSoC4/CapSense_Processing.c **** * \brief
 458:Generated_Source\PSoC4/CapSense_Processing.c **** *  Performs default processing of the CSX raw counts.
 459:Generated_Source\PSoC4/CapSense_Processing.c **** *
 460:Generated_Source\PSoC4/CapSense_Processing.c **** * \details
 461:Generated_Source\PSoC4/CapSense_Processing.c **** *  Performs default processing of the CSX raw counts:
 462:Generated_Source\PSoC4/CapSense_Processing.c **** *   - Run Filters
 463:Generated_Source\PSoC4/CapSense_Processing.c **** *   - Update Baselines
 464:Generated_Source\PSoC4/CapSense_Processing.c **** *   - Update Differences
 465:Generated_Source\PSoC4/CapSense_Processing.c **** *   - Update Status.
 466:Generated_Source\PSoC4/CapSense_Processing.c **** *  The same process is applied to all sensors of the specified widget.
 467:Generated_Source\PSoC4/CapSense_Processing.c **** *
 468:Generated_Source\PSoC4/CapSense_Processing.c **** * \param ptrFlashWdgt The pointer to the Flash widget structure.
 469:Generated_Source\PSoC4/CapSense_Processing.c **** *
 470:Generated_Source\PSoC4/CapSense_Processing.c **** * \return   
 471:Generated_Source\PSoC4/CapSense_Processing.c **** *  Returns the status of the specified widget processing operation:
 472:Generated_Source\PSoC4/CapSense_Processing.c **** *  - CYRET_SUCCESS if operation was successfully completed;
 473:Generated_Source\PSoC4/CapSense_Processing.c **** *  - CapSense_PROCESS_BASELINE_FAILED if baseline processing of any 
 474:Generated_Source\PSoC4/CapSense_Processing.c **** *    sensor of the specified widget failed. The result is concatenated with the index
 475:Generated_Source\PSoC4/CapSense_Processing.c **** *    of failed sensor.
 476:Generated_Source\PSoC4/CapSense_Processing.c **** *
 477:Generated_Source\PSoC4/CapSense_Processing.c **** *******************************************************************************/
 478:Generated_Source\PSoC4/CapSense_Processing.c **** uint32 CapSense_DpProcessCsxWidgetRawCounts(CapSense_FLASH_WD_STRUCT const *ptrFlashWdgt)
 479:Generated_Source\PSoC4/CapSense_Processing.c **** {
 480:Generated_Source\PSoC4/CapSense_Processing.c ****     uint32 result = CYRET_SUCCESS;
 481:Generated_Source\PSoC4/CapSense_Processing.c ****     uint32 widgetType;
 482:Generated_Source\PSoC4/CapSense_Processing.c ****     uint32 snsCount;
 483:Generated_Source\PSoC4/CapSense_Processing.c ****     CapSense_RAM_SNS_STRUCT *ptrSns;
 484:Generated_Source\PSoC4/CapSense_Processing.c ****     CapSense_RAM_WD_BASE_STRUCT *ptrRamWdgt;
 485:Generated_Source\PSoC4/CapSense_Processing.c **** 
 486:Generated_Source\PSoC4/CapSense_Processing.c ****     #if (0u != DP_FW_FILTER_EN)
 487:Generated_Source\PSoC4/CapSense_Processing.c ****         CapSense_PTR_FILTER_VARIANT fltrHistV;
 488:Generated_Source\PSoC4/CapSense_Processing.c ****         
 489:Generated_Source\PSoC4/CapSense_Processing.c ****         fltrHistV.ptr = ptrFlashWdgt->ptr2FltrHistory;
 490:Generated_Source\PSoC4/CapSense_Processing.c ****     #endif /* #if (0u != DP_FW_FILTER_EN) */
 491:Generated_Source\PSoC4/CapSense_Processing.c **** 
 492:Generated_Source\PSoC4/CapSense_Processing.c ****     ptrSns = ptrFlashWdgt->ptr2SnsRam;
 493:Generated_Source\PSoC4/CapSense_Processing.c ****     snsCount = ptrFlashWdgt->totalNumSns;
 494:Generated_Source\PSoC4/CapSense_Processing.c ****     ptrRamWdgt = ptrFlashWdgt->ptr2WdgtRam;
 495:Generated_Source\PSoC4/CapSense_Processing.c ****     widgetType = ptrFlashWdgt->wdgtType;
 496:Generated_Source\PSoC4/CapSense_Processing.c **** 
 497:Generated_Source\PSoC4/CapSense_Processing.c ****     /* Run deconvolution algorithm for the widgets with multiphase TX support */
 498:Generated_Source\PSoC4/CapSense_Processing.c ****     #if (0u != CapSense_CSX_MULTIPHASE_TX_EN)
 499:Generated_Source\PSoC4/CapSense_Processing.c ****         if (0u != (ptrFlashWdgt->staticConfig & CapSense_MULTIPHASE_TX_MASK))
 500:Generated_Source\PSoC4/CapSense_Processing.c ****         {
 501:Generated_Source\PSoC4/CapSense_Processing.c ****             CapSense_DpDeconvolution(ptrFlashWdgt);
 502:Generated_Source\PSoC4/CapSense_Processing.c ****         }
 503:Generated_Source\PSoC4/CapSense_Processing.c ****     #endif  /* #if (0u != CapSense_CSX_MULTIPHASE_TX_EN) */   
 504:Generated_Source\PSoC4/CapSense_Processing.c ****     
ARM GAS  C:\Users\TB1014~1\AppData\Local\Temp\ccTzyt2s.s 			page 13


 505:Generated_Source\PSoC4/CapSense_Processing.c ****     for (;snsCount-- > 0u;)
 506:Generated_Source\PSoC4/CapSense_Processing.c ****     {
 507:Generated_Source\PSoC4/CapSense_Processing.c ****         #if (0u != CapSense_CSX_SKIP_OVSMPL_SPECIFIC_NODES)
 508:Generated_Source\PSoC4/CapSense_Processing.c ****             if (0u != ptrSns->resolution)
 509:Generated_Source\PSoC4/CapSense_Processing.c ****         #endif
 510:Generated_Source\PSoC4/CapSense_Processing.c ****         {
 511:Generated_Source\PSoC4/CapSense_Processing.c ****             #if (0u != DP_FW_FILTER_EN)
 512:Generated_Source\PSoC4/CapSense_Processing.c ****                 CapSense_FtRunEnabledFiltersInternal(fltrHistV, ptrSns, widgetType);
 513:Generated_Source\PSoC4/CapSense_Processing.c ****             #endif /* #if (0u != DP_FW_FILTER_EN) */
 514:Generated_Source\PSoC4/CapSense_Processing.c **** 
 515:Generated_Source\PSoC4/CapSense_Processing.c ****             result = CapSense_FtUpdateBaseline(ptrRamWdgt, ptrSns, widgetType);
 516:Generated_Source\PSoC4/CapSense_Processing.c ****             
 517:Generated_Source\PSoC4/CapSense_Processing.c ****             #if (CapSense_ENABLE == CapSense_TST_BSLN_DUPLICATION_EN)
 518:Generated_Source\PSoC4/CapSense_Processing.c ****                 if (CYRET_SUCCESS != result)
 519:Generated_Source\PSoC4/CapSense_Processing.c ****                 {
 520:Generated_Source\PSoC4/CapSense_Processing.c ****                     result = snsCount | CapSense_PROCESS_BASELINE_FAILED;
 521:Generated_Source\PSoC4/CapSense_Processing.c ****                 }
 522:Generated_Source\PSoC4/CapSense_Processing.c ****             #endif /* (CapSense_ENABLE == CapSense_TST_BSLN_DUPLICATION_EN) */
 523:Generated_Source\PSoC4/CapSense_Processing.c **** 
 524:Generated_Source\PSoC4/CapSense_Processing.c ****             CapSense_DpUpdateDifferences(ptrRamWdgt, ptrSns);
 525:Generated_Source\PSoC4/CapSense_Processing.c ****         }
 526:Generated_Source\PSoC4/CapSense_Processing.c ****         /* Move pointers to the next sensor and filter history objects */
 527:Generated_Source\PSoC4/CapSense_Processing.c ****         ptrSns++;
 528:Generated_Source\PSoC4/CapSense_Processing.c ****             
 529:Generated_Source\PSoC4/CapSense_Processing.c ****         #if (0u != DP_FW_FILTER_EN)
 530:Generated_Source\PSoC4/CapSense_Processing.c ****             CapSense_INC_FLTR_OBJ_VARIANT(0u, fltrHistV);
 531:Generated_Source\PSoC4/CapSense_Processing.c ****         #endif /* #if (0u != DP_FW_FILTER_EN) */
 532:Generated_Source\PSoC4/CapSense_Processing.c ****     }
 533:Generated_Source\PSoC4/CapSense_Processing.c ****     return result;
 534:Generated_Source\PSoC4/CapSense_Processing.c **** }
 535:Generated_Source\PSoC4/CapSense_Processing.c **** 
 536:Generated_Source\PSoC4/CapSense_Processing.c **** /*******************************************************************************
 537:Generated_Source\PSoC4/CapSense_Processing.c **** * Function Name: CapSense_DpProcessCsxSensorRawCountsExt
 538:Generated_Source\PSoC4/CapSense_Processing.c **** ****************************************************************************//**
 539:Generated_Source\PSoC4/CapSense_Processing.c **** *
 540:Generated_Source\PSoC4/CapSense_Processing.c **** * \brief
 541:Generated_Source\PSoC4/CapSense_Processing.c **** *   Performs customized processing of the CSX sensor raw counts.
 542:Generated_Source\PSoC4/CapSense_Processing.c **** *
 543:Generated_Source\PSoC4/CapSense_Processing.c **** * \details
 544:Generated_Source\PSoC4/CapSense_Processing.c **** *   Performs customized processing of the CSX sensor raw counts.
 545:Generated_Source\PSoC4/CapSense_Processing.c **** *
 546:Generated_Source\PSoC4/CapSense_Processing.c **** *   If all bits are set at once the default processing order will take place.
 547:Generated_Source\PSoC4/CapSense_Processing.c **** *   For the custom order this API can be called multiple times and execute one task at a time.
 548:Generated_Source\PSoC4/CapSense_Processing.c **** *
 549:Generated_Source\PSoC4/CapSense_Processing.c **** * \param ptrFlashWdgt The pointer to the Flash Widget Object.
 550:Generated_Source\PSoC4/CapSense_Processing.c **** * \param ptrSns       The pointer to the specific RAM Sensor Object.
 551:Generated_Source\PSoC4/CapSense_Processing.c **** * \param fltrHistV    The pointer to the Filter History Object in RAM associated with specific sens
 552:Generated_Source\PSoC4/CapSense_Processing.c **** * \param mode         The bit-mask with the data processing tasks to be executed.
 553:Generated_Source\PSoC4/CapSense_Processing.c **** *   The mode parameters can take the following values:
 554:Generated_Source\PSoC4/CapSense_Processing.c **** *    - CapSense_PROCESS_FILTER     (0x01) Run Firmware Filter
 555:Generated_Source\PSoC4/CapSense_Processing.c **** *    - CapSense_PROCESS_BASELINE   (0x02) Update Baselines
 556:Generated_Source\PSoC4/CapSense_Processing.c **** *    - CapSense_PROCESS_DIFFCOUNTS (0x04) Update Difference Counts
 557:Generated_Source\PSoC4/CapSense_Processing.c **** *    - CapSense_PROCESS_ALL               Execute all tasks
 558:Generated_Source\PSoC4/CapSense_Processing.c **** *
 559:Generated_Source\PSoC4/CapSense_Processing.c **** * \return   
 560:Generated_Source\PSoC4/CapSense_Processing.c **** *  Returns the status of the specified sensor processing operation:
 561:Generated_Source\PSoC4/CapSense_Processing.c **** *  - CYRET_SUCCESS if operation was successfully completed;
ARM GAS  C:\Users\TB1014~1\AppData\Local\Temp\ccTzyt2s.s 			page 14


 562:Generated_Source\PSoC4/CapSense_Processing.c **** *  - CapSense_PROCESS_BASELINE_FAILED if baseline processing of any 
 563:Generated_Source\PSoC4/CapSense_Processing.c **** *    sensor of the specified widget failed. The result is concatenated with the index
 564:Generated_Source\PSoC4/CapSense_Processing.c **** *    of failed sensor.
 565:Generated_Source\PSoC4/CapSense_Processing.c **** *
 566:Generated_Source\PSoC4/CapSense_Processing.c **** *******************************************************************************/
 567:Generated_Source\PSoC4/CapSense_Processing.c **** uint32 CapSense_DpProcessCsxSensorRawCountsExt(
 568:Generated_Source\PSoC4/CapSense_Processing.c ****                 CapSense_FLASH_WD_STRUCT const *ptrFlashWdgt,
 569:Generated_Source\PSoC4/CapSense_Processing.c ****                 CapSense_RAM_SNS_STRUCT *ptrSns,
 570:Generated_Source\PSoC4/CapSense_Processing.c ****                 CapSense_PTR_FILTER_VARIANT fltrHistV,
 571:Generated_Source\PSoC4/CapSense_Processing.c ****                 uint32 mode)
 572:Generated_Source\PSoC4/CapSense_Processing.c **** {
 573:Generated_Source\PSoC4/CapSense_Processing.c ****     uint32  result = CYRET_SUCCESS;
 574:Generated_Source\PSoC4/CapSense_Processing.c ****     uint32  widgetType;
 575:Generated_Source\PSoC4/CapSense_Processing.c ****     CapSense_RAM_WD_BASE_STRUCT *ptrRamWdgt;
 576:Generated_Source\PSoC4/CapSense_Processing.c **** 
 577:Generated_Source\PSoC4/CapSense_Processing.c ****     widgetType = ptrFlashWdgt->wdgtType;
 578:Generated_Source\PSoC4/CapSense_Processing.c ****     ptrRamWdgt = ptrFlashWdgt->ptr2WdgtRam;
 579:Generated_Source\PSoC4/CapSense_Processing.c ****     
 580:Generated_Source\PSoC4/CapSense_Processing.c ****     #if (0u != DP_FW_FILTER_EN)
 581:Generated_Source\PSoC4/CapSense_Processing.c ****         if (0u != (mode & CapSense_PROCESS_FILTER))
 582:Generated_Source\PSoC4/CapSense_Processing.c ****         {
 583:Generated_Source\PSoC4/CapSense_Processing.c ****             CapSense_FtRunEnabledFiltersInternal(fltrHistV, ptrSns, widgetType);
 584:Generated_Source\PSoC4/CapSense_Processing.c ****         }
 585:Generated_Source\PSoC4/CapSense_Processing.c ****     #else
 586:Generated_Source\PSoC4/CapSense_Processing.c ****         (void)fltrHistV; /* This parameter is unused in such configurations */
 587:Generated_Source\PSoC4/CapSense_Processing.c ****     #endif /* #if (0u != DP_FW_FILTER_EN) */
 588:Generated_Source\PSoC4/CapSense_Processing.c **** 
 589:Generated_Source\PSoC4/CapSense_Processing.c ****     if (0u != (mode & CapSense_PROCESS_BASELINE))
 590:Generated_Source\PSoC4/CapSense_Processing.c ****     {
 591:Generated_Source\PSoC4/CapSense_Processing.c ****         result = CapSense_FtUpdateBaseline(ptrRamWdgt, ptrSns, widgetType);
 592:Generated_Source\PSoC4/CapSense_Processing.c ****     }
 593:Generated_Source\PSoC4/CapSense_Processing.c **** 
 594:Generated_Source\PSoC4/CapSense_Processing.c ****     if (0u != (mode & CapSense_PROCESS_DIFFCOUNTS))
 595:Generated_Source\PSoC4/CapSense_Processing.c ****     {
 596:Generated_Source\PSoC4/CapSense_Processing.c ****         CapSense_DpUpdateDifferences(ptrRamWdgt, ptrSns);
 597:Generated_Source\PSoC4/CapSense_Processing.c ****     }
 598:Generated_Source\PSoC4/CapSense_Processing.c ****     return result;
 599:Generated_Source\PSoC4/CapSense_Processing.c **** }
 600:Generated_Source\PSoC4/CapSense_Processing.c **** 
 601:Generated_Source\PSoC4/CapSense_Processing.c **** 
 602:Generated_Source\PSoC4/CapSense_Processing.c **** /*******************************************************************************
 603:Generated_Source\PSoC4/CapSense_Processing.c **** * Function Name: CapSense_DpProcessCsxWidgetStatus
 604:Generated_Source\PSoC4/CapSense_Processing.c **** ****************************************************************************//**
 605:Generated_Source\PSoC4/CapSense_Processing.c **** *
 606:Generated_Source\PSoC4/CapSense_Processing.c **** * \brief
 607:Generated_Source\PSoC4/CapSense_Processing.c **** *   Updates the status of the CSX widget in the Data Structure.
 608:Generated_Source\PSoC4/CapSense_Processing.c **** *
 609:Generated_Source\PSoC4/CapSense_Processing.c **** * \details
 610:Generated_Source\PSoC4/CapSense_Processing.c **** *  This API determines the type of widget and runs the appropriate function
 611:Generated_Source\PSoC4/CapSense_Processing.c **** *  that implements the status update algorithm for this type of widget.
 612:Generated_Source\PSoC4/CapSense_Processing.c **** *
 613:Generated_Source\PSoC4/CapSense_Processing.c **** *  When the widget-specific processing completes this API updates the snsStatus
 614:Generated_Source\PSoC4/CapSense_Processing.c **** *  and wdgtStatus registers in the data structure. The wdgtStatus register
 615:Generated_Source\PSoC4/CapSense_Processing.c **** *  is a bitmask were each bit corresponds to the specific widget identified by
 616:Generated_Source\PSoC4/CapSense_Processing.c **** *  the widget index. When the bit is set the widget is active (touched);
 617:Generated_Source\PSoC4/CapSense_Processing.c **** *
 618:Generated_Source\PSoC4/CapSense_Processing.c **** *  Depending on the type of widget the snsStatus register may contain either
ARM GAS  C:\Users\TB1014~1\AppData\Local\Temp\ccTzyt2s.s 			page 15


 619:Generated_Source\PSoC4/CapSense_Processing.c **** *  status of each widget node (active/non-active) or in case of the CSX Touchpad
 620:Generated_Source\PSoC4/CapSense_Processing.c **** *  is contains the number of touches. In both cases 0 means that widget is not
 621:Generated_Source\PSoC4/CapSense_Processing.c **** *  active.
 622:Generated_Source\PSoC4/CapSense_Processing.c **** *
 623:Generated_Source\PSoC4/CapSense_Processing.c **** * \param wdgtId       The widget index number.
 624:Generated_Source\PSoC4/CapSense_Processing.c **** * \param ptrFlashWdgt The pointer to the Flash Widget Object.
 625:Generated_Source\PSoC4/CapSense_Processing.c **** *
 626:Generated_Source\PSoC4/CapSense_Processing.c **** *******************************************************************************/
 627:Generated_Source\PSoC4/CapSense_Processing.c **** void CapSense_DpProcessCsxWidgetStatus(uint32 wdgtId, CapSense_FLASH_WD_STRUCT const *ptrFlashWdgt)
 628:Generated_Source\PSoC4/CapSense_Processing.c **** {
 629:Generated_Source\PSoC4/CapSense_Processing.c ****     uint32 sensorStatus;
 630:Generated_Source\PSoC4/CapSense_Processing.c ****     uint32 wdStatusIndex;
 631:Generated_Source\PSoC4/CapSense_Processing.c ****     uint32 wdStatusMask;
 632:Generated_Source\PSoC4/CapSense_Processing.c ****     CapSense_WD_TYPE_ENUM widgetType;
 633:Generated_Source\PSoC4/CapSense_Processing.c **** 
 634:Generated_Source\PSoC4/CapSense_Processing.c ****     widgetType = (CapSense_WD_TYPE_ENUM)ptrFlashWdgt->wdgtType;
 635:Generated_Source\PSoC4/CapSense_Processing.c ****     sensorStatus = CapSense_dsRam.snsStatus[wdgtId];
 636:Generated_Source\PSoC4/CapSense_Processing.c **** 
 637:Generated_Source\PSoC4/CapSense_Processing.c ****     switch (widgetType)
 638:Generated_Source\PSoC4/CapSense_Processing.c ****     {
 639:Generated_Source\PSoC4/CapSense_Processing.c ****     #if (0u != CapSense_BUTTON_WIDGET_EN)
 640:Generated_Source\PSoC4/CapSense_Processing.c ****         case CapSense_WD_BUTTON_E:
 641:Generated_Source\PSoC4/CapSense_Processing.c ****             sensorStatus = CapSense_DpProcessButton(sensorStatus, ptrFlashWdgt);
 642:Generated_Source\PSoC4/CapSense_Processing.c ****             break;
 643:Generated_Source\PSoC4/CapSense_Processing.c ****     #endif /* #if (0u != CapSense_BUTTON_WIDGET_EN) */
 644:Generated_Source\PSoC4/CapSense_Processing.c **** 
 645:Generated_Source\PSoC4/CapSense_Processing.c ****     #if (0u != CapSense_CSX_MATRIX_WIDGET_EN)
 646:Generated_Source\PSoC4/CapSense_Processing.c ****         case CapSense_WD_MATRIX_BUTTON_E:
 647:Generated_Source\PSoC4/CapSense_Processing.c ****             sensorStatus = CapSense_DpProcessButton(sensorStatus, ptrFlashWdgt);
 648:Generated_Source\PSoC4/CapSense_Processing.c ****             break;
 649:Generated_Source\PSoC4/CapSense_Processing.c ****     #endif /* #if (0u != CapSense_CSX_MATRIX_WIDGET_EN) */
 650:Generated_Source\PSoC4/CapSense_Processing.c **** 
 651:Generated_Source\PSoC4/CapSense_Processing.c ****     #if (0u != CapSense_CSX_TOUCHPAD_WIDGET_EN)
 652:Generated_Source\PSoC4/CapSense_Processing.c ****         case CapSense_WD_TOUCHPAD_E:
 653:Generated_Source\PSoC4/CapSense_Processing.c ****             sensorStatus = CapSense_DpProcessCsxTouchpad(sensorStatus, ptrFlashWdgt);
 654:Generated_Source\PSoC4/CapSense_Processing.c ****             break;
 655:Generated_Source\PSoC4/CapSense_Processing.c ****     #endif /* #if (0u != CapSense_CSX_TOUCHPAD_WIDGET_EN) */
 656:Generated_Source\PSoC4/CapSense_Processing.c **** 
 657:Generated_Source\PSoC4/CapSense_Processing.c ****     default:
 658:Generated_Source\PSoC4/CapSense_Processing.c ****         CYASSERT(0u);
 659:Generated_Source\PSoC4/CapSense_Processing.c ****         break;
 660:Generated_Source\PSoC4/CapSense_Processing.c ****     }
 661:Generated_Source\PSoC4/CapSense_Processing.c **** 
 662:Generated_Source\PSoC4/CapSense_Processing.c ****     /* Update sensor status in the data structure */
 663:Generated_Source\PSoC4/CapSense_Processing.c ****     CapSense_dsRam.snsStatus[wdgtId] = (CapSense_SNS_STS_TYPE)sensorStatus;
 664:Generated_Source\PSoC4/CapSense_Processing.c **** 
 665:Generated_Source\PSoC4/CapSense_Processing.c ****     /* The next two lines calculate index and bitmask of the widget status bit in the wdgtStatus ar
 666:Generated_Source\PSoC4/CapSense_Processing.c ****     wdStatusIndex = CapSense_GET_WDGT_STATUS_INDEX(wdgtId);
 667:Generated_Source\PSoC4/CapSense_Processing.c ****     wdStatusMask = CapSense_GET_WDGT_STATUS_MASK(wdgtId);
 668:Generated_Source\PSoC4/CapSense_Processing.c **** 
 669:Generated_Source\PSoC4/CapSense_Processing.c ****     /* Check if there are active sensors and update widget status accordingly */
 670:Generated_Source\PSoC4/CapSense_Processing.c ****     if (0u == sensorStatus)
 671:Generated_Source\PSoC4/CapSense_Processing.c ****     {
 672:Generated_Source\PSoC4/CapSense_Processing.c ****         CapSense_dsRam.wdgtStatus[wdStatusIndex] &= ~wdStatusMask;
 673:Generated_Source\PSoC4/CapSense_Processing.c ****     }
 674:Generated_Source\PSoC4/CapSense_Processing.c ****     else
 675:Generated_Source\PSoC4/CapSense_Processing.c ****     {
ARM GAS  C:\Users\TB1014~1\AppData\Local\Temp\ccTzyt2s.s 			page 16


 676:Generated_Source\PSoC4/CapSense_Processing.c ****         CapSense_dsRam.wdgtStatus[wdStatusIndex] |= wdStatusMask;
 677:Generated_Source\PSoC4/CapSense_Processing.c ****     }
 678:Generated_Source\PSoC4/CapSense_Processing.c **** }
 679:Generated_Source\PSoC4/CapSense_Processing.c **** #endif /* #if CapSense_TOTAL_CSX_WIDGETS */
 680:Generated_Source\PSoC4/CapSense_Processing.c **** 
 681:Generated_Source\PSoC4/CapSense_Processing.c **** #if (0u != CapSense_TOTAL_CSD_WIDGETS)
 682:Generated_Source\PSoC4/CapSense_Processing.c **** /*******************************************************************************
 683:Generated_Source\PSoC4/CapSense_Processing.c **** * Function Name: CapSense_DpProcessCsdWidgetRawCounts
 684:Generated_Source\PSoC4/CapSense_Processing.c **** ****************************************************************************//**
 685:Generated_Source\PSoC4/CapSense_Processing.c **** *
 686:Generated_Source\PSoC4/CapSense_Processing.c **** * \brief
 687:Generated_Source\PSoC4/CapSense_Processing.c **** *   Performs default processing for the CSD widget raw counts.
 688:Generated_Source\PSoC4/CapSense_Processing.c **** *
 689:Generated_Source\PSoC4/CapSense_Processing.c **** * \details
 690:Generated_Source\PSoC4/CapSense_Processing.c **** *   Performs default processing for the CSD widget raw counts:
 691:Generated_Source\PSoC4/CapSense_Processing.c **** *    - Run Filters
 692:Generated_Source\PSoC4/CapSense_Processing.c **** *    - Update Thresholds (FW Auto-tuning)
 693:Generated_Source\PSoC4/CapSense_Processing.c **** *    - Update Baselines
 694:Generated_Source\PSoC4/CapSense_Processing.c **** *    - Update Differences.
 695:Generated_Source\PSoC4/CapSense_Processing.c **** *   The process is applied to all widget's sensors.
 696:Generated_Source\PSoC4/CapSense_Processing.c **** *
 697:Generated_Source\PSoC4/CapSense_Processing.c **** * \param ptrFlashWdgt The pointer to the Flash Widget Object.
 698:Generated_Source\PSoC4/CapSense_Processing.c **** *
 699:Generated_Source\PSoC4/CapSense_Processing.c **** * \return   
 700:Generated_Source\PSoC4/CapSense_Processing.c **** *  Returns the status of the specified widget processing operation:
 701:Generated_Source\PSoC4/CapSense_Processing.c **** *  - CYRET_SUCCESS if operation was successfully completed;
 702:Generated_Source\PSoC4/CapSense_Processing.c **** *  - CapSense_PROCESS_BASELINE_FAILED if baseline processing of any 
 703:Generated_Source\PSoC4/CapSense_Processing.c **** *    sensor of the specified widget failed. The result is concatenated with the index
 704:Generated_Source\PSoC4/CapSense_Processing.c **** *    of failed sensor.
 705:Generated_Source\PSoC4/CapSense_Processing.c **** *
 706:Generated_Source\PSoC4/CapSense_Processing.c **** *******************************************************************************/
 707:Generated_Source\PSoC4/CapSense_Processing.c **** uint32 CapSense_DpProcessCsdWidgetRawCounts(CapSense_FLASH_WD_STRUCT const *ptrFlashWdgt)
 708:Generated_Source\PSoC4/CapSense_Processing.c **** {
 709:Generated_Source\PSoC4/CapSense_Processing.c ****     uint32  result = CYRET_SUCCESS;
 710:Generated_Source\PSoC4/CapSense_Processing.c ****     
 711:Generated_Source\PSoC4/CapSense_Processing.c ****     #if (CapSense_ENABLE == CapSense_TST_BSLN_DUPLICATION_EN)    
 712:Generated_Source\PSoC4/CapSense_Processing.c ****         uint32 bslnTstResult = CYRET_SUCCESS;
 713:Generated_Source\PSoC4/CapSense_Processing.c ****     #endif /* (CapSense_ENABLE == CapSense_TST_BSLN_DUPLICATION_EN) */
 714:Generated_Source\PSoC4/CapSense_Processing.c **** 
 715:Generated_Source\PSoC4/CapSense_Processing.c ****     uint32  widgetType;
 716:Generated_Source\PSoC4/CapSense_Processing.c ****     uint32  snsId;
 717:Generated_Source\PSoC4/CapSense_Processing.c ****     CapSense_RAM_SNS_STRUCT *ptrSns;
 718:Generated_Source\PSoC4/CapSense_Processing.c ****     CapSense_RAM_WD_BASE_STRUCT *ptrRamWdgt;
 719:Generated_Source\PSoC4/CapSense_Processing.c **** 
 720:Generated_Source\PSoC4/CapSense_Processing.c ****     #if (0u != (CapSense_CSD_AUTOTUNE & CapSense_CSD_SS_TH_EN))
 721:Generated_Source\PSoC4/CapSense_Processing.c ****         /* The noise envelope data is available only when Full CSD Auto-Tuning is enabled */
 722:Generated_Source\PSoC4/CapSense_Processing.c ****         SMARTSENSE_CSD_NOISE_ENVELOPE_STRUCT *ptrNoiseEnvelope;
 723:Generated_Source\PSoC4/CapSense_Processing.c ****         #if (CapSense_ENABLE == CapSense_PROXIMITY_WIDGET_EN)
 724:Generated_Source\PSoC4/CapSense_Processing.c ****             uint32  proximityThreshold;
 725:Generated_Source\PSoC4/CapSense_Processing.c ****         #endif /* (0 != CapSense_PROXIMITY_WIDGET_EN) */
 726:Generated_Source\PSoC4/CapSense_Processing.c ****     #endif /* #if (0u != (CapSense_CSD_AUTOTUNE & CapSense_CSD_SS_TH_EN)) */
 727:Generated_Source\PSoC4/CapSense_Processing.c **** 
 728:Generated_Source\PSoC4/CapSense_Processing.c ****     #if (0u != DP_FW_FILTER_EN)
 729:Generated_Source\PSoC4/CapSense_Processing.c ****         CapSense_PTR_FILTER_VARIANT fltrHistV;
 730:Generated_Source\PSoC4/CapSense_Processing.c ****     
 731:Generated_Source\PSoC4/CapSense_Processing.c ****         /* Determine if widget type is proximity */
 732:Generated_Source\PSoC4/CapSense_Processing.c ****         uint32 isProxWdgt = 
ARM GAS  C:\Users\TB1014~1\AppData\Local\Temp\ccTzyt2s.s 			page 17


 733:Generated_Source\PSoC4/CapSense_Processing.c ****                     (CapSense_GET_WIDGET_TYPE(ptrFlashWdgt) == CapSense_WD_PROXIMITY_E) ? 1u : 0u;
 734:Generated_Source\PSoC4/CapSense_Processing.c ****                     
 735:Generated_Source\PSoC4/CapSense_Processing.c ****         /* Get pointer to the filter history object */
 736:Generated_Source\PSoC4/CapSense_Processing.c ****         fltrHistV.ptr = ptrFlashWdgt->ptr2FltrHistory;
 737:Generated_Source\PSoC4/CapSense_Processing.c ****     #endif /* #if (0u != DP_FW_FILTER_EN) */
 738:Generated_Source\PSoC4/CapSense_Processing.c ****     
 739:Generated_Source\PSoC4/CapSense_Processing.c ****     ptrSns = ptrFlashWdgt->ptr2SnsRam;
 740:Generated_Source\PSoC4/CapSense_Processing.c ****     ptrRamWdgt = ptrFlashWdgt->ptr2WdgtRam;
 741:Generated_Source\PSoC4/CapSense_Processing.c ****     widgetType = ptrFlashWdgt->wdgtType;
 742:Generated_Source\PSoC4/CapSense_Processing.c **** 
 743:Generated_Source\PSoC4/CapSense_Processing.c ****     #if (0u != (CapSense_CSD_AUTOTUNE & CapSense_CSD_SS_TH_EN))
 744:Generated_Source\PSoC4/CapSense_Processing.c ****         ptrNoiseEnvelope = ptrFlashWdgt->ptr2NoiseEnvlp;
 745:Generated_Source\PSoC4/CapSense_Processing.c ****     #endif /* #if (0u != (CapSense_CSD_AUTOTUNE & CapSense_CSD_SS_TH_EN)) */
 746:Generated_Source\PSoC4/CapSense_Processing.c **** 
 747:Generated_Source\PSoC4/CapSense_Processing.c ****     /* Iterate through all widget's sensors */
 748:Generated_Source\PSoC4/CapSense_Processing.c ****     for(snsId = 0u; snsId < ptrFlashWdgt->totalNumSns; snsId++)
 749:Generated_Source\PSoC4/CapSense_Processing.c ****     {
 750:Generated_Source\PSoC4/CapSense_Processing.c ****         /* Run all enabled filter on specified widget's sensor */
 751:Generated_Source\PSoC4/CapSense_Processing.c ****         #if (0u != DP_FW_FILTER_EN)
 752:Generated_Source\PSoC4/CapSense_Processing.c ****             CapSense_FtRunEnabledFiltersInternal(fltrHistV, ptrSns, widgetType);
 753:Generated_Source\PSoC4/CapSense_Processing.c ****         #endif /* #if (0u != DP_FW_FILTER_EN) */
 754:Generated_Source\PSoC4/CapSense_Processing.c **** 
 755:Generated_Source\PSoC4/CapSense_Processing.c ****         /* Run auto-tuning activities */
 756:Generated_Source\PSoC4/CapSense_Processing.c ****         #if (0u != (CapSense_CSD_AUTOTUNE & CapSense_CSD_SS_TH_EN))
 757:Generated_Source\PSoC4/CapSense_Processing.c ****             SmartSense_RunNoiseEnvelope(ptrSns->raw[0u], ptrRamWdgt->sigPFC, ptrNoiseEnvelope);
 758:Generated_Source\PSoC4/CapSense_Processing.c ****             CapSense_DpUpdateThresholds(ptrRamWdgt, ptrNoiseEnvelope, snsId);
 759:Generated_Source\PSoC4/CapSense_Processing.c **** 
 760:Generated_Source\PSoC4/CapSense_Processing.c ****             /* Calculate Proximity Touch Threshold in SmartSense mode based on Finger Threshold and
 761:Generated_Source\PSoC4/CapSense_Processing.c ****             #if (CapSense_ENABLE == CapSense_PROXIMITY_WIDGET_EN)
 762:Generated_Source\PSoC4/CapSense_Processing.c ****                 if (CapSense_WD_PROXIMITY_E == CapSense_GET_WIDGET_TYPE(ptrFlashWdgt))
 763:Generated_Source\PSoC4/CapSense_Processing.c ****                 {
 764:Generated_Source\PSoC4/CapSense_Processing.c ****                     proximityThreshold = ((uint32)ptrRamWdgt->fingerTh * CapSense_PROX_TOUCH_COEFF)
 765:Generated_Source\PSoC4/CapSense_Processing.c ****                     if ((((1Lu) << CapSense_THRESHOLD_SIZE) - 1u) < proximityThreshold)
 766:Generated_Source\PSoC4/CapSense_Processing.c ****                     {
 767:Generated_Source\PSoC4/CapSense_Processing.c ****                         proximityThreshold = ((1Lu) << CapSense_THRESHOLD_SIZE) - 1u;
 768:Generated_Source\PSoC4/CapSense_Processing.c ****                     }
 769:Generated_Source\PSoC4/CapSense_Processing.c ****                     ((CapSense_RAM_WD_PROXIMITY_STRUCT *)ptrFlashWdgt->ptr2WdgtRam)->proxTouchTh = 
 770:Generated_Source\PSoC4/CapSense_Processing.c ****                         (CapSense_THRESHOLD_TYPE)proximityThreshold;
 771:Generated_Source\PSoC4/CapSense_Processing.c ****                 }
 772:Generated_Source\PSoC4/CapSense_Processing.c ****             #endif /* (0 != CapSense_PROXIMITY_WIDGET_EN) */
 773:Generated_Source\PSoC4/CapSense_Processing.c ****             
 774:Generated_Source\PSoC4/CapSense_Processing.c ****             /* Move to next noise-envelope object */
 775:Generated_Source\PSoC4/CapSense_Processing.c ****             ptrNoiseEnvelope++;
 776:Generated_Source\PSoC4/CapSense_Processing.c ****         #endif /* (0u != (CapSense_CSD_AUTOTUNE & CapSense_CSD_SS_TH_EN)) */
 777:Generated_Source\PSoC4/CapSense_Processing.c **** 
 778:Generated_Source\PSoC4/CapSense_Processing.c ****         #if (CapSense_ENABLE == CapSense_TST_BSLN_DUPLICATION_EN)
 779:Generated_Source\PSoC4/CapSense_Processing.c ****             bslnTstResult = CapSense_FtUpdateBaseline(ptrRamWdgt, ptrSns, widgetType);
 780:Generated_Source\PSoC4/CapSense_Processing.c ****             if (CYRET_SUCCESS != bslnTstResult)
 781:Generated_Source\PSoC4/CapSense_Processing.c ****             {
 782:Generated_Source\PSoC4/CapSense_Processing.c ****                 if (CYRET_SUCCESS == result)
 783:Generated_Source\PSoC4/CapSense_Processing.c ****                 {
 784:Generated_Source\PSoC4/CapSense_Processing.c ****                     result = snsId | CapSense_PROCESS_BASELINE_FAILED;
 785:Generated_Source\PSoC4/CapSense_Processing.c ****                 }
 786:Generated_Source\PSoC4/CapSense_Processing.c ****             }
 787:Generated_Source\PSoC4/CapSense_Processing.c ****         #else /* (CapSense_ENABLE == CapSense_TST_BSLN_DUPLICATION_EN) */
 788:Generated_Source\PSoC4/CapSense_Processing.c ****             result = CapSense_FtUpdateBaseline(ptrRamWdgt, ptrSns, widgetType);
 789:Generated_Source\PSoC4/CapSense_Processing.c ****         #endif /* (CapSense_ENABLE == CapSense_TST_BSLN_DUPLICATION_EN) */
ARM GAS  C:\Users\TB1014~1\AppData\Local\Temp\ccTzyt2s.s 			page 18


 790:Generated_Source\PSoC4/CapSense_Processing.c **** 
 791:Generated_Source\PSoC4/CapSense_Processing.c ****         CapSense_DpUpdateDifferences(ptrRamWdgt, ptrSns);
 792:Generated_Source\PSoC4/CapSense_Processing.c **** 
 793:Generated_Source\PSoC4/CapSense_Processing.c ****         /* Move to next sensor object */
 794:Generated_Source\PSoC4/CapSense_Processing.c ****         ptrSns++;
 795:Generated_Source\PSoC4/CapSense_Processing.c **** 
 796:Generated_Source\PSoC4/CapSense_Processing.c ****         #if (0u != DP_FW_FILTER_EN)
 797:Generated_Source\PSoC4/CapSense_Processing.c ****             /* Move to the next filter history object */
 798:Generated_Source\PSoC4/CapSense_Processing.c ****             CapSense_INC_FLTR_OBJ_VARIANT(isProxWdgt, fltrHistV);
 799:Generated_Source\PSoC4/CapSense_Processing.c ****         #endif /* #if (0u != DP_FW_FILTER_EN) */
 800:Generated_Source\PSoC4/CapSense_Processing.c ****     }
 801:Generated_Source\PSoC4/CapSense_Processing.c ****     return result;
 802:Generated_Source\PSoC4/CapSense_Processing.c **** }
 803:Generated_Source\PSoC4/CapSense_Processing.c **** 
 804:Generated_Source\PSoC4/CapSense_Processing.c **** 
 805:Generated_Source\PSoC4/CapSense_Processing.c **** /*******************************************************************************
 806:Generated_Source\PSoC4/CapSense_Processing.c **** * Function Name: CapSense_DpProcessCsdSensorRawCountsExt
 807:Generated_Source\PSoC4/CapSense_Processing.c **** ****************************************************************************//**
 808:Generated_Source\PSoC4/CapSense_Processing.c **** *
 809:Generated_Source\PSoC4/CapSense_Processing.c **** * \brief
 810:Generated_Source\PSoC4/CapSense_Processing.c **** *   Performs customized processing of the CSD sensor raw counts.
 811:Generated_Source\PSoC4/CapSense_Processing.c **** *
 812:Generated_Source\PSoC4/CapSense_Processing.c **** * \details
 813:Generated_Source\PSoC4/CapSense_Processing.c **** *   Performs customized processing of the CSD sensor raw counts.
 814:Generated_Source\PSoC4/CapSense_Processing.c **** *
 815:Generated_Source\PSoC4/CapSense_Processing.c **** *   Note that this API updates data associated only with the sensor. It cannot be used to update
 816:Generated_Source\PSoC4/CapSense_Processing.c **** *   widget status.
 817:Generated_Source\PSoC4/CapSense_Processing.c **** *
 818:Generated_Source\PSoC4/CapSense_Processing.c **** * \param ptrFlashWdgt The pointer to the Flash widget structure.
 819:Generated_Source\PSoC4/CapSense_Processing.c **** * \param ptrSns       The pointer to the sensor object in RAM.
 820:Generated_Source\PSoC4/CapSense_Processing.c **** * \param fltrHistV    The pointer to the Filter History Object in RAM.
 821:Generated_Source\PSoC4/CapSense_Processing.c **** * \param mode         The bit-mask with the data processing tasks to be executed.
 822:Generated_Source\PSoC4/CapSense_Processing.c **** *   The mode parameters can take the following values:
 823:Generated_Source\PSoC4/CapSense_Processing.c **** *    - CapSense_PROCESS_FILTER     (0x01) Run Firmware Filter
 824:Generated_Source\PSoC4/CapSense_Processing.c **** *    - CapSense_PROCESS_BASELINE   (0x02) Update Baselines
 825:Generated_Source\PSoC4/CapSense_Processing.c **** *    - CapSense_PROCESS_DIFFCOUNTS (0x04) Update Difference Counts
 826:Generated_Source\PSoC4/CapSense_Processing.c **** *    - CapSense_PROCESS_CALC_NOISE (0x08) Calculate Noise (only if FW Tuning is enabled)
 827:Generated_Source\PSoC4/CapSense_Processing.c **** *    - CapSense_PROCESS_THRESHOLDS (0x10) Update Thresholds (only if FW Tuning is enabled)
 828:Generated_Source\PSoC4/CapSense_Processing.c **** *    - CapSense_PROCESS_ALL               Execute all tasks
 829:Generated_Source\PSoC4/CapSense_Processing.c **** *
 830:Generated_Source\PSoC4/CapSense_Processing.c **** * \return   
 831:Generated_Source\PSoC4/CapSense_Processing.c **** *  Returns the status of the specified sensor processing operation:
 832:Generated_Source\PSoC4/CapSense_Processing.c **** *  - CYRET_SUCCESS if operation was successfully completed;
 833:Generated_Source\PSoC4/CapSense_Processing.c **** *  - CapSense_PROCESS_BASELINE_FAILED if baseline processing of any 
 834:Generated_Source\PSoC4/CapSense_Processing.c **** *    sensor of the specified widget failed. The result is concatenated with the index
 835:Generated_Source\PSoC4/CapSense_Processing.c **** *    of failed sensor.
 836:Generated_Source\PSoC4/CapSense_Processing.c **** *
 837:Generated_Source\PSoC4/CapSense_Processing.c **** *******************************************************************************/
 838:Generated_Source\PSoC4/CapSense_Processing.c **** uint32 CapSense_DpProcessCsdSensorRawCountsExt(
 839:Generated_Source\PSoC4/CapSense_Processing.c ****                 CapSense_FLASH_WD_STRUCT const *ptrFlashWdgt,
 840:Generated_Source\PSoC4/CapSense_Processing.c ****                 CapSense_RAM_SNS_STRUCT *ptrSns,
 841:Generated_Source\PSoC4/CapSense_Processing.c ****                 CapSense_PTR_FILTER_VARIANT fltrHistV,
 842:Generated_Source\PSoC4/CapSense_Processing.c ****                  uint32 mode)
 843:Generated_Source\PSoC4/CapSense_Processing.c **** {
 844:Generated_Source\PSoC4/CapSense_Processing.c ****     uint32 result = CYRET_SUCCESS;
 845:Generated_Source\PSoC4/CapSense_Processing.c ****     uint32  widgetType;
 846:Generated_Source\PSoC4/CapSense_Processing.c ****     CapSense_RAM_WD_BASE_STRUCT *ptrRamWdgt;
ARM GAS  C:\Users\TB1014~1\AppData\Local\Temp\ccTzyt2s.s 			page 19


 847:Generated_Source\PSoC4/CapSense_Processing.c **** 
 848:Generated_Source\PSoC4/CapSense_Processing.c ****     #if (0u != (CapSense_CSD_AUTOTUNE & CapSense_CSD_SS_TH_EN))
 849:Generated_Source\PSoC4/CapSense_Processing.c ****         SMARTSENSE_CSD_NOISE_ENVELOPE_STRUCT *ptrNoiseEnvelope;
 850:Generated_Source\PSoC4/CapSense_Processing.c ****         #if (CapSense_ENABLE == CapSense_PROXIMITY_WIDGET_EN)
 851:Generated_Source\PSoC4/CapSense_Processing.c ****             uint32  proximityThreshold;
 852:Generated_Source\PSoC4/CapSense_Processing.c ****         #endif /* (0 != CapSense_PROXIMITY_WIDGET_EN) */
 853:Generated_Source\PSoC4/CapSense_Processing.c **** 
 854:Generated_Source\PSoC4/CapSense_Processing.c ****         /* Need to specify pointer to corresponding sensor's noise-envelope object.*/
 855:Generated_Source\PSoC4/CapSense_Processing.c ****         ptrNoiseEnvelope = ptrFlashWdgt->ptr2NoiseEnvlp;
 856:Generated_Source\PSoC4/CapSense_Processing.c ****     #endif /* (0u != (CapSense_CSD_AUTOTUNE & CapSense_CSD_SS_TH_EN)) */
 857:Generated_Source\PSoC4/CapSense_Processing.c **** 
 858:Generated_Source\PSoC4/CapSense_Processing.c ****     widgetType = ptrFlashWdgt->wdgtType;
 859:Generated_Source\PSoC4/CapSense_Processing.c ****     ptrRamWdgt = ptrFlashWdgt->ptr2WdgtRam;
 860:Generated_Source\PSoC4/CapSense_Processing.c **** 
 861:Generated_Source\PSoC4/CapSense_Processing.c ****     #if (0u != DP_FW_FILTER_EN)
 862:Generated_Source\PSoC4/CapSense_Processing.c ****         if (0u != (mode & CapSense_PROCESS_FILTER))
 863:Generated_Source\PSoC4/CapSense_Processing.c ****         {
 864:Generated_Source\PSoC4/CapSense_Processing.c ****             CapSense_FtRunEnabledFiltersInternal(fltrHistV, ptrSns, widgetType);
 865:Generated_Source\PSoC4/CapSense_Processing.c ****         }
 866:Generated_Source\PSoC4/CapSense_Processing.c ****     #else
 867:Generated_Source\PSoC4/CapSense_Processing.c ****         (void)fltrHistV; /* This parameter is unused in such configurations */
 868:Generated_Source\PSoC4/CapSense_Processing.c ****     #endif /* #if (0u != DP_FW_FILTER_EN) */
 869:Generated_Source\PSoC4/CapSense_Processing.c **** 
 870:Generated_Source\PSoC4/CapSense_Processing.c ****     #if (0u != (CapSense_CSD_AUTOTUNE & CapSense_CSD_SS_TH_EN))
 871:Generated_Source\PSoC4/CapSense_Processing.c ****         if (0u != (mode & CapSense_PROCESS_CALC_NOISE))
 872:Generated_Source\PSoC4/CapSense_Processing.c ****         {
 873:Generated_Source\PSoC4/CapSense_Processing.c ****             SmartSense_RunNoiseEnvelope(ptrSns->raw[0u], ptrRamWdgt->sigPFC, ptrNoiseEnvelope);
 874:Generated_Source\PSoC4/CapSense_Processing.c ****         }
 875:Generated_Source\PSoC4/CapSense_Processing.c **** 
 876:Generated_Source\PSoC4/CapSense_Processing.c ****         if (0u != (mode & CapSense_PROCESS_THRESHOLDS))
 877:Generated_Source\PSoC4/CapSense_Processing.c ****         {            
 878:Generated_Source\PSoC4/CapSense_Processing.c ****             CapSense_DpUpdateThresholds(ptrRamWdgt, ptrNoiseEnvelope, 0u);
 879:Generated_Source\PSoC4/CapSense_Processing.c ****             
 880:Generated_Source\PSoC4/CapSense_Processing.c ****             /* Calculate Proximity Touch Threshold in SmartSense mode based on Finger Threshold and
 881:Generated_Source\PSoC4/CapSense_Processing.c ****             #if (CapSense_ENABLE == CapSense_PROXIMITY_WIDGET_EN)
 882:Generated_Source\PSoC4/CapSense_Processing.c ****                 if (CapSense_WD_PROXIMITY_E == CapSense_GET_WIDGET_TYPE(ptrFlashWdgt))
 883:Generated_Source\PSoC4/CapSense_Processing.c ****                 {
 884:Generated_Source\PSoC4/CapSense_Processing.c ****                     proximityThreshold = ((uint32)ptrRamWdgt->fingerTh * CapSense_PROX_TOUCH_COEFF)
 885:Generated_Source\PSoC4/CapSense_Processing.c ****                     if ((((1Lu) << CapSense_THRESHOLD_SIZE) - 1u) < proximityThreshold)
 886:Generated_Source\PSoC4/CapSense_Processing.c ****                     {
 887:Generated_Source\PSoC4/CapSense_Processing.c ****                         proximityThreshold = ((1Lu) << CapSense_THRESHOLD_SIZE) - 1u;
 888:Generated_Source\PSoC4/CapSense_Processing.c ****                     }
 889:Generated_Source\PSoC4/CapSense_Processing.c ****                     ((CapSense_RAM_WD_PROXIMITY_STRUCT *)ptrFlashWdgt->ptr2WdgtRam)->proxTouchTh = 
 890:Generated_Source\PSoC4/CapSense_Processing.c ****                         (CapSense_THRESHOLD_TYPE)proximityThreshold;
 891:Generated_Source\PSoC4/CapSense_Processing.c ****                 }
 892:Generated_Source\PSoC4/CapSense_Processing.c ****             #endif /* (0 != CapSense_PROXIMITY_WIDGET_EN) */
 893:Generated_Source\PSoC4/CapSense_Processing.c ****         }
 894:Generated_Source\PSoC4/CapSense_Processing.c ****     #endif /* #if (0u != (CapSense_CSD_AUTOTUNE & CapSense_CSD_SS_TH_EN)) */
 895:Generated_Source\PSoC4/CapSense_Processing.c **** 
 896:Generated_Source\PSoC4/CapSense_Processing.c ****     if (0u != (mode & CapSense_PROCESS_BASELINE))
 897:Generated_Source\PSoC4/CapSense_Processing.c ****     {
 898:Generated_Source\PSoC4/CapSense_Processing.c ****         result = CapSense_FtUpdateBaseline(ptrRamWdgt, ptrSns, widgetType);
 899:Generated_Source\PSoC4/CapSense_Processing.c ****     }
 900:Generated_Source\PSoC4/CapSense_Processing.c **** 
 901:Generated_Source\PSoC4/CapSense_Processing.c ****     if (0u != (mode & CapSense_PROCESS_DIFFCOUNTS))
 902:Generated_Source\PSoC4/CapSense_Processing.c ****     {
 903:Generated_Source\PSoC4/CapSense_Processing.c ****         CapSense_DpUpdateDifferences(ptrRamWdgt, ptrSns);
ARM GAS  C:\Users\TB1014~1\AppData\Local\Temp\ccTzyt2s.s 			page 20


 904:Generated_Source\PSoC4/CapSense_Processing.c ****     }
 905:Generated_Source\PSoC4/CapSense_Processing.c ****     return result;
 906:Generated_Source\PSoC4/CapSense_Processing.c **** }
 907:Generated_Source\PSoC4/CapSense_Processing.c **** 
 908:Generated_Source\PSoC4/CapSense_Processing.c **** /*******************************************************************************
 909:Generated_Source\PSoC4/CapSense_Processing.c **** * Function Name: CapSense_DpProcessCsdWidgetStatus
 910:Generated_Source\PSoC4/CapSense_Processing.c **** ****************************************************************************//**
 911:Generated_Source\PSoC4/CapSense_Processing.c **** *
 912:Generated_Source\PSoC4/CapSense_Processing.c **** * \brief
 913:Generated_Source\PSoC4/CapSense_Processing.c **** *  Runs the status processing of the CSD widget and updates it in the Data Structure.
 914:Generated_Source\PSoC4/CapSense_Processing.c **** *
 915:Generated_Source\PSoC4/CapSense_Processing.c **** * \details
 916:Generated_Source\PSoC4/CapSense_Processing.c **** *  This API determines the widget type and calls the appropriate low-level processing
 917:Generated_Source\PSoC4/CapSense_Processing.c **** *  function. Based on the returned results it updates the widget and sensor
 918:Generated_Source\PSoC4/CapSense_Processing.c **** *  status in the data structure. Any widget specific registers like the centroid
 919:Generated_Source\PSoC4/CapSense_Processing.c **** *  position are updated directly in the low-level processing function.
 920:Generated_Source\PSoC4/CapSense_Processing.c **** *
 921:Generated_Source\PSoC4/CapSense_Processing.c **** *  When the widget-specific processing completes this API updates the snsStatus
 922:Generated_Source\PSoC4/CapSense_Processing.c **** *  and wdgtStatus registers in the data structure. The wdgtStatus register
 923:Generated_Source\PSoC4/CapSense_Processing.c **** *  is a bitmask were each bit corresponds to the specific widget identified by
 924:Generated_Source\PSoC4/CapSense_Processing.c **** *  the widget index. When the bit is set the widget is active (touched);
 925:Generated_Source\PSoC4/CapSense_Processing.c **** *
 926:Generated_Source\PSoC4/CapSense_Processing.c **** *  The snsStatus register for CSD widgets contains status of each widget sensor
 927:Generated_Source\PSoC4/CapSense_Processing.c **** *  (active/non-active). Each bit corresponds to one sensor. In case of the
 928:Generated_Source\PSoC4/CapSense_Processing.c **** *  Proximity widget two bits are used per sensor: one for proximity status and
 929:Generated_Source\PSoC4/CapSense_Processing.c **** *  second for the touch status.
 930:Generated_Source\PSoC4/CapSense_Processing.c **** *
 931:Generated_Source\PSoC4/CapSense_Processing.c **** * \param wdgtId        The widget index number.
 932:Generated_Source\PSoC4/CapSense_Processing.c **** * \param ptrFlashWdgt  The pointer to the Flash widget structure.
 933:Generated_Source\PSoC4/CapSense_Processing.c **** *
 934:Generated_Source\PSoC4/CapSense_Processing.c **** *******************************************************************************/
 935:Generated_Source\PSoC4/CapSense_Processing.c **** void CapSense_DpProcessCsdWidgetStatus(uint32 wdgtId, CapSense_FLASH_WD_STRUCT const *ptrFlashWdgt)
 936:Generated_Source\PSoC4/CapSense_Processing.c **** {
 937:Generated_Source\PSoC4/CapSense_Processing.c ****     uint32 sensorStatus;
 938:Generated_Source\PSoC4/CapSense_Processing.c ****     uint32 wdStatusIndex;
 939:Generated_Source\PSoC4/CapSense_Processing.c ****     uint32 wdStatusMask;
 940:Generated_Source\PSoC4/CapSense_Processing.c ****     CapSense_WD_TYPE_ENUM widgetType;
 941:Generated_Source\PSoC4/CapSense_Processing.c **** 
 942:Generated_Source\PSoC4/CapSense_Processing.c ****     widgetType = (CapSense_WD_TYPE_ENUM)ptrFlashWdgt->wdgtType;
 943:Generated_Source\PSoC4/CapSense_Processing.c ****     sensorStatus = CapSense_dsRam.snsStatus[wdgtId];
 944:Generated_Source\PSoC4/CapSense_Processing.c **** 
 945:Generated_Source\PSoC4/CapSense_Processing.c ****     switch (widgetType)
 946:Generated_Source\PSoC4/CapSense_Processing.c ****     {
 947:Generated_Source\PSoC4/CapSense_Processing.c ****     #if (0u != CapSense_BUTTON_WIDGET_EN)
 948:Generated_Source\PSoC4/CapSense_Processing.c ****         case CapSense_WD_BUTTON_E:
 949:Generated_Source\PSoC4/CapSense_Processing.c ****             sensorStatus = CapSense_DpProcessButton(sensorStatus, ptrFlashWdgt);
 950:Generated_Source\PSoC4/CapSense_Processing.c ****             break;
 951:Generated_Source\PSoC4/CapSense_Processing.c ****     #endif /* #if (0u != CapSense_BUTTON_WIDGET_EN) */
 952:Generated_Source\PSoC4/CapSense_Processing.c **** 
 953:Generated_Source\PSoC4/CapSense_Processing.c ****     #if (0u != CapSense_SLIDER_WIDGET_EN)
 954:Generated_Source\PSoC4/CapSense_Processing.c ****         case CapSense_WD_LINEAR_SLIDER_E:
 955:Generated_Source\PSoC4/CapSense_Processing.c ****         case CapSense_WD_RADIAL_SLIDER_E:
 956:Generated_Source\PSoC4/CapSense_Processing.c ****             sensorStatus = CapSense_DpProcessSlider(sensorStatus, ptrFlashWdgt);
 957:Generated_Source\PSoC4/CapSense_Processing.c ****             break;
 958:Generated_Source\PSoC4/CapSense_Processing.c ****     #endif /* #if (0u != CapSense_SLIDER_WIDGET_EN) */
 959:Generated_Source\PSoC4/CapSense_Processing.c **** 
 960:Generated_Source\PSoC4/CapSense_Processing.c ****     #if (0u != CapSense_CSD_MATRIX_WIDGET_EN)
ARM GAS  C:\Users\TB1014~1\AppData\Local\Temp\ccTzyt2s.s 			page 21


 961:Generated_Source\PSoC4/CapSense_Processing.c ****         case CapSense_WD_MATRIX_BUTTON_E:
 962:Generated_Source\PSoC4/CapSense_Processing.c ****             sensorStatus = CapSense_DpProcessCsdMatrix(sensorStatus, ptrFlashWdgt);
 963:Generated_Source\PSoC4/CapSense_Processing.c ****             break;
 964:Generated_Source\PSoC4/CapSense_Processing.c ****     #endif /* #if (0u != CapSense_CSD_MATRIX_WIDGET_EN) */
 965:Generated_Source\PSoC4/CapSense_Processing.c **** 
 966:Generated_Source\PSoC4/CapSense_Processing.c ****     #if (0u != CapSense_CSD_TOUCHPAD_WIDGET_EN)
 967:Generated_Source\PSoC4/CapSense_Processing.c ****         case CapSense_WD_TOUCHPAD_E:
 968:Generated_Source\PSoC4/CapSense_Processing.c ****             sensorStatus = CapSense_DpProcessCsdTouchpad(sensorStatus, ptrFlashWdgt);
 969:Generated_Source\PSoC4/CapSense_Processing.c ****             break;
 970:Generated_Source\PSoC4/CapSense_Processing.c ****     #endif /* #if (0u != CapSense_CSD_TOUCHPAD_WIDGET_EN) */
 971:Generated_Source\PSoC4/CapSense_Processing.c **** 
 972:Generated_Source\PSoC4/CapSense_Processing.c ****     #if (0u != CapSense_PROXIMITY_WIDGET_EN)
 973:Generated_Source\PSoC4/CapSense_Processing.c ****         case CapSense_WD_PROXIMITY_E:
 974:Generated_Source\PSoC4/CapSense_Processing.c ****             sensorStatus = CapSense_DpProcessProximity(sensorStatus, ptrFlashWdgt);
 975:Generated_Source\PSoC4/CapSense_Processing.c ****             break;
 976:Generated_Source\PSoC4/CapSense_Processing.c ****     #endif /* #if (0u != CapSense_PROXIMITY_WIDGET_EN) */
 977:Generated_Source\PSoC4/CapSense_Processing.c **** 
 978:Generated_Source\PSoC4/CapSense_Processing.c ****     default:
 979:Generated_Source\PSoC4/CapSense_Processing.c ****         CYASSERT(0u);
 980:Generated_Source\PSoC4/CapSense_Processing.c ****         break;
 981:Generated_Source\PSoC4/CapSense_Processing.c ****     }
 982:Generated_Source\PSoC4/CapSense_Processing.c **** 
 983:Generated_Source\PSoC4/CapSense_Processing.c ****     CapSense_dsRam.snsStatus[wdgtId] = (CapSense_SNS_STS_TYPE)sensorStatus;
 984:Generated_Source\PSoC4/CapSense_Processing.c **** 
 985:Generated_Source\PSoC4/CapSense_Processing.c ****     /* The next two lines calculate index and bitmask of the widget status bit in the wdgtStatus ar
 986:Generated_Source\PSoC4/CapSense_Processing.c ****     wdStatusIndex = CapSense_GET_WDGT_STATUS_INDEX(wdgtId);
 987:Generated_Source\PSoC4/CapSense_Processing.c ****     wdStatusMask = CapSense_GET_WDGT_STATUS_MASK(wdgtId);
 988:Generated_Source\PSoC4/CapSense_Processing.c **** 
 989:Generated_Source\PSoC4/CapSense_Processing.c ****     /* Check if there are active sensors and update widget status accordingly */
 990:Generated_Source\PSoC4/CapSense_Processing.c ****     if (0u == sensorStatus)
 991:Generated_Source\PSoC4/CapSense_Processing.c ****     {
 992:Generated_Source\PSoC4/CapSense_Processing.c ****         CapSense_dsRam.wdgtStatus[wdStatusIndex] &= ~wdStatusMask;
 993:Generated_Source\PSoC4/CapSense_Processing.c ****     }
 994:Generated_Source\PSoC4/CapSense_Processing.c ****     else
 995:Generated_Source\PSoC4/CapSense_Processing.c ****     {
 996:Generated_Source\PSoC4/CapSense_Processing.c ****         CapSense_dsRam.wdgtStatus[wdStatusIndex] |= wdStatusMask;
 997:Generated_Source\PSoC4/CapSense_Processing.c ****     }
 998:Generated_Source\PSoC4/CapSense_Processing.c **** }
 999:Generated_Source\PSoC4/CapSense_Processing.c **** #endif /* #if (0u != CapSense_TOTAL_CSD_WIDGETS) */
1000:Generated_Source\PSoC4/CapSense_Processing.c **** 
1001:Generated_Source\PSoC4/CapSense_Processing.c **** 
1002:Generated_Source\PSoC4/CapSense_Processing.c **** #if (0 != (CapSense_CSD_AUTOTUNE & CapSense_CSD_SS_TH_EN))
1003:Generated_Source\PSoC4/CapSense_Processing.c **** /*******************************************************************************
1004:Generated_Source\PSoC4/CapSense_Processing.c **** * Function Name: CapSense_DpUpdateThresholds
1005:Generated_Source\PSoC4/CapSense_Processing.c **** ****************************************************************************//**
1006:Generated_Source\PSoC4/CapSense_Processing.c **** *
1007:Generated_Source\PSoC4/CapSense_Processing.c **** * \brief
1008:Generated_Source\PSoC4/CapSense_Processing.c **** *   Updates noise and finger thresholds for a specified widget.
1009:Generated_Source\PSoC4/CapSense_Processing.c **** *
1010:Generated_Source\PSoC4/CapSense_Processing.c **** * \details
1011:Generated_Source\PSoC4/CapSense_Processing.c **** *   Updates noise and finger thresholds for a specified widget.
1012:Generated_Source\PSoC4/CapSense_Processing.c **** *   This algorithm is a part of Auto-tuning feature.
1013:Generated_Source\PSoC4/CapSense_Processing.c **** *
1014:Generated_Source\PSoC4/CapSense_Processing.c **** * \param ptrRamWdgt       The pointer to the RAM widget object.
1015:Generated_Source\PSoC4/CapSense_Processing.c **** * \param ptrNoiseEnvelope The pointer to the noise-envelope object in RAM.
1016:Generated_Source\PSoC4/CapSense_Processing.c **** * \param startFlag        The flag indicates when new widget is processed.
1017:Generated_Source\PSoC4/CapSense_Processing.c **** *
ARM GAS  C:\Users\TB1014~1\AppData\Local\Temp\ccTzyt2s.s 			page 22


1018:Generated_Source\PSoC4/CapSense_Processing.c **** *******************************************************************************/
1019:Generated_Source\PSoC4/CapSense_Processing.c **** void CapSense_DpUpdateThresholds(CapSense_RAM_WD_BASE_STRUCT *ptrRamWdgt,
1020:Generated_Source\PSoC4/CapSense_Processing.c ****                                          SMARTSENSE_CSD_NOISE_ENVELOPE_STRUCT *ptrNoiseEnvelope,
1021:Generated_Source\PSoC4/CapSense_Processing.c ****                                          uint32 startFlag)
1022:Generated_Source\PSoC4/CapSense_Processing.c **** {
1023:Generated_Source\PSoC4/CapSense_Processing.c ****     SMARTSENSE_UPDATE_THRESHOLDS_STRUCT thresholds;    
1024:Generated_Source\PSoC4/CapSense_Processing.c ****     SMARTSENSE_UPDATE_THRESHOLDS_STRUCT *ptrThresholds = &thresholds;
1025:Generated_Source\PSoC4/CapSense_Processing.c ****     ptrThresholds->fingerTh = ptrRamWdgt->fingerTh;
1026:Generated_Source\PSoC4/CapSense_Processing.c **** 
1027:Generated_Source\PSoC4/CapSense_Processing.c ****     SmartSense_UpdateThresholds(ptrNoiseEnvelope, ptrThresholds, ptrRamWdgt->sigPFC, startFlag);
1028:Generated_Source\PSoC4/CapSense_Processing.c **** 
1029:Generated_Source\PSoC4/CapSense_Processing.c ****     ptrRamWdgt->fingerTh = ptrThresholds->fingerTh;
1030:Generated_Source\PSoC4/CapSense_Processing.c ****     ptrRamWdgt->noiseTh = ptrThresholds->noiseTh;
1031:Generated_Source\PSoC4/CapSense_Processing.c ****     ptrRamWdgt->nNoiseTh = ptrThresholds->nNoiseTh;
1032:Generated_Source\PSoC4/CapSense_Processing.c ****     ptrRamWdgt->hysteresis = ptrThresholds->hysteresis;    
1033:Generated_Source\PSoC4/CapSense_Processing.c **** }
1034:Generated_Source\PSoC4/CapSense_Processing.c **** #endif /* #if (0u != (CapSense_CSD_AUTOTUNE & CapSense_CSD_SS_TH_EN)) */
1035:Generated_Source\PSoC4/CapSense_Processing.c **** 
1036:Generated_Source\PSoC4/CapSense_Processing.c **** 
1037:Generated_Source\PSoC4/CapSense_Processing.c **** /*******************************************************************************
1038:Generated_Source\PSoC4/CapSense_Processing.c **** * Function Name: CapSense_DpUpdateDifferences
1039:Generated_Source\PSoC4/CapSense_Processing.c **** ****************************************************************************//**
1040:Generated_Source\PSoC4/CapSense_Processing.c **** *
1041:Generated_Source\PSoC4/CapSense_Processing.c **** * \brief
1042:Generated_Source\PSoC4/CapSense_Processing.c **** *   Calculates new difference values.
1043:Generated_Source\PSoC4/CapSense_Processing.c **** *   Also, executes the frequency hopping algorithm if it is enabled.
1044:Generated_Source\PSoC4/CapSense_Processing.c **** *
1045:Generated_Source\PSoC4/CapSense_Processing.c **** * \details
1046:Generated_Source\PSoC4/CapSense_Processing.c **** *   This API calculates the difference between the baseline and raw counts.
1047:Generated_Source\PSoC4/CapSense_Processing.c **** *   If the difference is positive (raw > baseline), and higher than the widget
1048:Generated_Source\PSoC4/CapSense_Processing.c **** *   noise threshold, it is saved into the data structure for further processing.
1049:Generated_Source\PSoC4/CapSense_Processing.c **** *   Otherwise the difference is set to zero. The final difference value is saved
1050:Generated_Source\PSoC4/CapSense_Processing.c **** *   with the subtracted noise threshold value.
1051:Generated_Source\PSoC4/CapSense_Processing.c **** *
1052:Generated_Source\PSoC4/CapSense_Processing.c **** *   If the frequency hopping algorithm is enabled, the difference is calculated
1053:Generated_Source\PSoC4/CapSense_Processing.c **** *   for the three sets of data available for each sensor. Then
1054:Generated_Source\PSoC4/CapSense_Processing.c **** *   the median filter selects the final difference value.
1055:Generated_Source\PSoC4/CapSense_Processing.c **** *
1056:Generated_Source\PSoC4/CapSense_Processing.c **** * \param ptrRamWdgt The pointer to the RAR Widget Object.
1057:Generated_Source\PSoC4/CapSense_Processing.c **** * \param ptrSns     The pointer to the sensor object in RAM.
1058:Generated_Source\PSoC4/CapSense_Processing.c **** *
1059:Generated_Source\PSoC4/CapSense_Processing.c **** *******************************************************************************/
1060:Generated_Source\PSoC4/CapSense_Processing.c **** void CapSense_DpUpdateDifferences(
1061:Generated_Source\PSoC4/CapSense_Processing.c ****                         CapSense_RAM_WD_BASE_STRUCT *ptrRamWdgt,
1062:Generated_Source\PSoC4/CapSense_Processing.c ****                         CapSense_RAM_SNS_STRUCT *ptrSns)
1063:Generated_Source\PSoC4/CapSense_Processing.c **** {
 172              		.loc 1 1063 0
 173              		.cfi_startproc
 174              	.LVL21:
1064:Generated_Source\PSoC4/CapSense_Processing.c ****     register int32 diffValue = 0;
1065:Generated_Source\PSoC4/CapSense_Processing.c **** 
1066:Generated_Source\PSoC4/CapSense_Processing.c ****     #if (0u != CapSense_MULTI_FREQ_SCAN_EN)
1067:Generated_Source\PSoC4/CapSense_Processing.c ****         register int32 diffValue_0 = 0;
1068:Generated_Source\PSoC4/CapSense_Processing.c ****         register int32 diffValue_2 = 0;
1069:Generated_Source\PSoC4/CapSense_Processing.c ****     #endif /* #if (0u != CapSense_MULTI_FREQ_SCAN_EN) */
1070:Generated_Source\PSoC4/CapSense_Processing.c **** 
1071:Generated_Source\PSoC4/CapSense_Processing.c ****     /* Calculate difference */
ARM GAS  C:\Users\TB1014~1\AppData\Local\Temp\ccTzyt2s.s 			page 23


1072:Generated_Source\PSoC4/CapSense_Processing.c ****     diffValue = (int32)ptrSns->raw[0u] - (int32)ptrSns->bsln[0u];
 175              		.loc 1 1072 0
 176 0000 0B88     		ldrh	r3, [r1]
 177 0002 4A88     		ldrh	r2, [r1, #2]
 178 0004 9B1A     		sub	r3, r3, r2
 179              	.LVL22:
1073:Generated_Source\PSoC4/CapSense_Processing.c **** 
1074:Generated_Source\PSoC4/CapSense_Processing.c ****     #if (0u != CapSense_MULTI_FREQ_SCAN_EN)
1075:Generated_Source\PSoC4/CapSense_Processing.c ****         diffValue_0 = (int32)ptrSns->raw[1u] - (int32)ptrSns->bsln[1u];
1076:Generated_Source\PSoC4/CapSense_Processing.c ****         diffValue_2 = (int32)ptrSns->raw[2u] - (int32)ptrSns->bsln[2u];
1077:Generated_Source\PSoC4/CapSense_Processing.c **** 
1078:Generated_Source\PSoC4/CapSense_Processing.c ****         /* Find median and put it into [0u] element */
1079:Generated_Source\PSoC4/CapSense_Processing.c ****         if (diffValue_0 > diffValue)
1080:Generated_Source\PSoC4/CapSense_Processing.c ****         {
1081:Generated_Source\PSoC4/CapSense_Processing.c ****             register int32 swapv = diffValue_0;
1082:Generated_Source\PSoC4/CapSense_Processing.c ****             diffValue_0 = diffValue;
1083:Generated_Source\PSoC4/CapSense_Processing.c ****             diffValue = swapv;
1084:Generated_Source\PSoC4/CapSense_Processing.c ****         }
1085:Generated_Source\PSoC4/CapSense_Processing.c **** 
1086:Generated_Source\PSoC4/CapSense_Processing.c ****         if (diffValue > diffValue_2)
1087:Generated_Source\PSoC4/CapSense_Processing.c ****         {
1088:Generated_Source\PSoC4/CapSense_Processing.c ****             register int32 swapv = diffValue;
1089:Generated_Source\PSoC4/CapSense_Processing.c ****             diffValue = diffValue_2;
1090:Generated_Source\PSoC4/CapSense_Processing.c ****             diffValue_2 = swapv;
1091:Generated_Source\PSoC4/CapSense_Processing.c ****         }
1092:Generated_Source\PSoC4/CapSense_Processing.c **** 
1093:Generated_Source\PSoC4/CapSense_Processing.c ****         if (diffValue_0 > diffValue)
1094:Generated_Source\PSoC4/CapSense_Processing.c ****         {
1095:Generated_Source\PSoC4/CapSense_Processing.c ****             register int32 swapv = diffValue_0;
1096:Generated_Source\PSoC4/CapSense_Processing.c ****             diffValue_0 = diffValue;
1097:Generated_Source\PSoC4/CapSense_Processing.c ****             diffValue = swapv;
1098:Generated_Source\PSoC4/CapSense_Processing.c ****         }
1099:Generated_Source\PSoC4/CapSense_Processing.c ****     #endif /* #if (0u != CapSense_MULTI_FREQ_SCAN_EN) */
1100:Generated_Source\PSoC4/CapSense_Processing.c **** 
1101:Generated_Source\PSoC4/CapSense_Processing.c ****     ptrSns->diff = 0u;
 180              		.loc 1 1101 0
 181 0006 0022     		mov	r2, #0
 182 0008 CA80     		strh	r2, [r1, #6]
1102:Generated_Source\PSoC4/CapSense_Processing.c **** 
1103:Generated_Source\PSoC4/CapSense_Processing.c ****     if (diffValue > (int32)ptrRamWdgt->noiseTh)
 183              		.loc 1 1103 0
 184 000a 0279     		ldrb	r2, [r0, #4]
 185 000c 9A42     		cmp	r2, r3
 186 000e 00DA     		bge	.L15
1104:Generated_Source\PSoC4/CapSense_Processing.c ****     {
1105:Generated_Source\PSoC4/CapSense_Processing.c ****         ptrSns->diff = (CapSense_THRESHOLD_TYPE) diffValue;
 187              		.loc 1 1105 0
 188 0010 CB80     		strh	r3, [r1, #6]
 189              	.L15:
1106:Generated_Source\PSoC4/CapSense_Processing.c ****     }
1107:Generated_Source\PSoC4/CapSense_Processing.c **** }
 190              		.loc 1 1107 0
 191              		@ sp needed
 192 0012 7047     		bx	lr
 193              		.cfi_endproc
 194              	.LFE6:
 195              		.size	CapSense_DpUpdateDifferences, .-CapSense_DpUpdateDifferences
ARM GAS  C:\Users\TB1014~1\AppData\Local\Temp\ccTzyt2s.s 			page 24


 196              		.section	.text.CapSense_DpProcessCsdWidgetRawCounts,"ax",%progbits
 197              		.align	2
 198              		.global	CapSense_DpProcessCsdWidgetRawCounts
 199              		.code	16
 200              		.thumb_func
 201              		.type	CapSense_DpProcessCsdWidgetRawCounts, %function
 202              	CapSense_DpProcessCsdWidgetRawCounts:
 203              	.LFB3:
 708:Generated_Source\PSoC4/CapSense_Processing.c ****     uint32  result = CYRET_SUCCESS;
 204              		.loc 1 708 0
 205              		.cfi_startproc
 206              	.LVL23:
 207 0000 F0B5     		push	{r4, r5, r6, r7, lr}
 208              		.cfi_def_cfa_offset 20
 209              		.cfi_offset 4, -20
 210              		.cfi_offset 5, -16
 211              		.cfi_offset 6, -12
 212              		.cfi_offset 7, -8
 213              		.cfi_offset 14, -4
 214 0002 5F46     		mov	r7, fp
 215 0004 80B4     		push	{r7}
 216              		.cfi_def_cfa_offset 24
 217              		.cfi_offset 11, -24
 218 0006 84B0     		sub	sp, sp, #16
 219              		.cfi_def_cfa_offset 40
 220 0008 061C     		mov	r6, r0
 221              	.LVL24:
 733:Generated_Source\PSoC4/CapSense_Processing.c ****                     
 222              		.loc 1 733 0
 223 000a 037E     		ldrb	r3, [r0, #24]
 732:Generated_Source\PSoC4/CapSense_Processing.c ****                     (CapSense_GET_WIDGET_TYPE(ptrFlashWdgt) == CapSense_WD_PROXIMITY_E) ? 1u : 0u;
 224              		.loc 1 732 0
 225 000c 062B     		cmp	r3, #6
 226 000e 02D1     		bne	.L22
 227 0010 0122     		mov	r2, #1
 228 0012 9346     		mov	fp, r2
 229 0014 01E0     		b	.L18
 230              	.L22:
 231 0016 0022     		mov	r2, #0
 232 0018 9346     		mov	fp, r2
 233              	.L18:
 234              	.LVL25:
 736:Generated_Source\PSoC4/CapSense_Processing.c ****     #endif /* #if (0u != DP_FW_FILTER_EN) */
 235              		.loc 1 736 0 discriminator 4
 236 001a F568     		ldr	r5, [r6, #12]
 237              	.LVL26:
 739:Generated_Source\PSoC4/CapSense_Processing.c ****     ptrRamWdgt = ptrFlashWdgt->ptr2WdgtRam;
 238              		.loc 1 739 0 discriminator 4
 239 001c B468     		ldr	r4, [r6, #8]
 240              	.LVL27:
 740:Generated_Source\PSoC4/CapSense_Processing.c ****     widgetType = ptrFlashWdgt->wdgtType;
 241              		.loc 1 740 0 discriminator 4
 242 001e 7268     		ldr	r2, [r6, #4]
 243 0020 0192     		str	r2, [sp, #4]
 244              	.LVL28:
 741:Generated_Source\PSoC4/CapSense_Processing.c **** 
 245              		.loc 1 741 0 discriminator 4
ARM GAS  C:\Users\TB1014~1\AppData\Local\Temp\ccTzyt2s.s 			page 25


 246 0022 0293     		str	r3, [sp, #8]
 247              	.LVL29:
 748:Generated_Source\PSoC4/CapSense_Processing.c ****     {
 248              		.loc 1 748 0 discriminator 4
 249 0024 0027     		mov	r7, #0
 709:Generated_Source\PSoC4/CapSense_Processing.c ****     
 250              		.loc 1 709 0 discriminator 4
 251 0026 0023     		mov	r3, #0
 252 0028 0393     		str	r3, [sp, #12]
 748:Generated_Source\PSoC4/CapSense_Processing.c ****     {
 253              		.loc 1 748 0 discriminator 4
 254 002a 14E0     		b	.L19
 255              	.LVL30:
 256              	.L21:
 752:Generated_Source\PSoC4/CapSense_Processing.c ****         #endif /* #if (0u != DP_FW_FILTER_EN) */
 257              		.loc 1 752 0
 258 002c 281C     		mov	r0, r5
 259 002e 211C     		mov	r1, r4
 260 0030 029A     		ldr	r2, [sp, #8]
 261 0032 FFF7FEFF 		bl	CapSense_FtRunEnabledFiltersInternal
 262              	.LVL31:
 788:Generated_Source\PSoC4/CapSense_Processing.c ****         #endif /* (CapSense_ENABLE == CapSense_TST_BSLN_DUPLICATION_EN) */
 263              		.loc 1 788 0
 264 0036 0198     		ldr	r0, [sp, #4]
 265 0038 211C     		mov	r1, r4
 266 003a 029A     		ldr	r2, [sp, #8]
 267 003c FFF7FEFF 		bl	CapSense_FtUpdateBaseline
 268              	.LVL32:
 269 0040 0390     		str	r0, [sp, #12]
 270              	.LVL33:
 791:Generated_Source\PSoC4/CapSense_Processing.c **** 
 271              		.loc 1 791 0
 272 0042 0198     		ldr	r0, [sp, #4]
 273              	.LVL34:
 274 0044 211C     		mov	r1, r4
 275 0046 FFF7FEFF 		bl	CapSense_DpUpdateDifferences
 276              	.LVL35:
 794:Generated_Source\PSoC4/CapSense_Processing.c **** 
 277              		.loc 1 794 0
 278 004a 0A34     		add	r4, r4, #10
 279              	.LVL36:
 798:Generated_Source\PSoC4/CapSense_Processing.c ****         #endif /* #if (0u != DP_FW_FILTER_EN) */
 280              		.loc 1 798 0
 281 004c 5B46     		mov	r3, fp
 282 004e 002B     		cmp	r3, #0
 283 0050 00D1     		bne	.L20
 284              	.LVL37:
 798:Generated_Source\PSoC4/CapSense_Processing.c ****         #endif /* #if (0u != DP_FW_FILTER_EN) */
 285              		.loc 1 798 0 is_stmt 0 discriminator 1
 286 0052 0235     		add	r5, r5, #2
 287              	.LVL38:
 288              	.L20:
 748:Generated_Source\PSoC4/CapSense_Processing.c ****     {
 289              		.loc 1 748 0 is_stmt 1 discriminator 2
 290 0054 0137     		add	r7, r7, #1
 291              	.LVL39:
 292              	.L19:
ARM GAS  C:\Users\TB1014~1\AppData\Local\Temp\ccTzyt2s.s 			page 26


 748:Generated_Source\PSoC4/CapSense_Processing.c ****     {
 293              		.loc 1 748 0 is_stmt 0 discriminator 1
 294 0056 F38A     		ldrh	r3, [r6, #22]
 295 0058 BB42     		cmp	r3, r7
 296 005a E7D8     		bhi	.L21
 802:Generated_Source\PSoC4/CapSense_Processing.c **** 
 297              		.loc 1 802 0 is_stmt 1
 298 005c 0398     		ldr	r0, [sp, #12]
 299 005e 04B0     		add	sp, sp, #16
 300              		@ sp needed
 301              	.LVL40:
 302              	.LVL41:
 303              	.LVL42:
 304              	.LVL43:
 305              	.LVL44:
 306 0060 04BC     		pop	{r2}
 307 0062 9346     		mov	fp, r2
 308 0064 F0BD     		pop	{r4, r5, r6, r7, pc}
 309              		.cfi_endproc
 310              	.LFE3:
 311              		.size	CapSense_DpProcessCsdWidgetRawCounts, .-CapSense_DpProcessCsdWidgetRawCounts
 312 0066 C046     		.section	.text.CapSense_DpProcessCsdSensorRawCountsExt,"ax",%progbits
 313              		.align	2
 314              		.global	CapSense_DpProcessCsdSensorRawCountsExt
 315              		.code	16
 316              		.thumb_func
 317              		.type	CapSense_DpProcessCsdSensorRawCountsExt, %function
 318              	CapSense_DpProcessCsdSensorRawCountsExt:
 319              	.LFB4:
 843:Generated_Source\PSoC4/CapSense_Processing.c ****     uint32 result = CYRET_SUCCESS;
 320              		.loc 1 843 0
 321              		.cfi_startproc
 322              	.LVL45:
 323 0000 F8B5     		push	{r3, r4, r5, r6, r7, lr}
 324              		.cfi_def_cfa_offset 24
 325              		.cfi_offset 3, -24
 326              		.cfi_offset 4, -20
 327              		.cfi_offset 5, -16
 328              		.cfi_offset 6, -12
 329              		.cfi_offset 7, -8
 330              		.cfi_offset 14, -4
 331 0002 0E1C     		mov	r6, r1
 332 0004 1C1C     		mov	r4, r3
 333              	.LVL46:
 858:Generated_Source\PSoC4/CapSense_Processing.c ****     ptrRamWdgt = ptrFlashWdgt->ptr2WdgtRam;
 334              		.loc 1 858 0
 335 0006 057E     		ldrb	r5, [r0, #24]
 336              	.LVL47:
 859:Generated_Source\PSoC4/CapSense_Processing.c **** 
 337              		.loc 1 859 0
 338 0008 4768     		ldr	r7, [r0, #4]
 339              	.LVL48:
 862:Generated_Source\PSoC4/CapSense_Processing.c ****         {
 340              		.loc 1 862 0
 341 000a E307     		lsl	r3, r4, #31
 342 000c 03D5     		bpl	.L24
 343              	.LVL49:
ARM GAS  C:\Users\TB1014~1\AppData\Local\Temp\ccTzyt2s.s 			page 27


 864:Generated_Source\PSoC4/CapSense_Processing.c ****         }
 344              		.loc 1 864 0
 345 000e 101C     		mov	r0, r2
 346              	.LVL50:
 347 0010 2A1C     		mov	r2, r5
 348              	.LVL51:
 349 0012 FFF7FEFF 		bl	CapSense_FtRunEnabledFiltersInternal
 350              	.LVL52:
 351              	.L24:
 896:Generated_Source\PSoC4/CapSense_Processing.c ****     {
 352              		.loc 1 896 0
 353 0016 A307     		lsl	r3, r4, #30
 354 0018 06D5     		bpl	.L27
 898:Generated_Source\PSoC4/CapSense_Processing.c ****     }
 355              		.loc 1 898 0
 356 001a 381C     		mov	r0, r7
 357 001c 311C     		mov	r1, r6
 358 001e 2A1C     		mov	r2, r5
 359              	.LVL53:
 360 0020 FFF7FEFF 		bl	CapSense_FtUpdateBaseline
 361              	.LVL54:
 362 0024 051C     		mov	r5, r0
 363              	.LVL55:
 364 0026 00E0     		b	.L25
 365              	.LVL56:
 366              	.L27:
 844:Generated_Source\PSoC4/CapSense_Processing.c ****     uint32  widgetType;
 367              		.loc 1 844 0
 368 0028 0025     		mov	r5, #0
 369              	.LVL57:
 370              	.L25:
 901:Generated_Source\PSoC4/CapSense_Processing.c ****     {
 371              		.loc 1 901 0
 372 002a 6307     		lsl	r3, r4, #29
 373 002c 03D5     		bpl	.L26
 903:Generated_Source\PSoC4/CapSense_Processing.c ****     }
 374              		.loc 1 903 0
 375 002e 381C     		mov	r0, r7
 376 0030 311C     		mov	r1, r6
 377 0032 FFF7FEFF 		bl	CapSense_DpUpdateDifferences
 378              	.LVL58:
 379              	.L26:
 906:Generated_Source\PSoC4/CapSense_Processing.c **** 
 380              		.loc 1 906 0
 381 0036 281C     		mov	r0, r5
 382              		@ sp needed
 383              	.LVL59:
 384              	.LVL60:
 385              	.LVL61:
 386              	.LVL62:
 387 0038 F8BD     		pop	{r3, r4, r5, r6, r7, pc}
 388              		.cfi_endproc
 389              	.LFE4:
 390              		.size	CapSense_DpProcessCsdSensorRawCountsExt, .-CapSense_DpProcessCsdSensorRawCountsExt
 391 003a C046     		.section	.text.CapSense_DpProcessButton,"ax",%progbits
 392              		.align	2
 393              		.global	CapSense_DpProcessButton
ARM GAS  C:\Users\TB1014~1\AppData\Local\Temp\ccTzyt2s.s 			page 28


 394              		.code	16
 395              		.thumb_func
 396              		.type	CapSense_DpProcessButton, %function
 397              	CapSense_DpProcessButton:
 398              	.LFB7:
1108:Generated_Source\PSoC4/CapSense_Processing.c **** 
1109:Generated_Source\PSoC4/CapSense_Processing.c **** 
1110:Generated_Source\PSoC4/CapSense_Processing.c **** #if ((0u != CapSense_BUTTON_WIDGET_EN) || (0u != CapSense_CSX_MATRIX_WIDGET_EN))
1111:Generated_Source\PSoC4/CapSense_Processing.c **** /*******************************************************************************
1112:Generated_Source\PSoC4/CapSense_Processing.c **** * Function Name: CapSense_DpProcessButton
1113:Generated_Source\PSoC4/CapSense_Processing.c **** ****************************************************************************//**
1114:Generated_Source\PSoC4/CapSense_Processing.c **** *
1115:Generated_Source\PSoC4/CapSense_Processing.c **** * \brief
1116:Generated_Source\PSoC4/CapSense_Processing.c **** *   Processes the status of the Button widget.
1117:Generated_Source\PSoC4/CapSense_Processing.c **** *
1118:Generated_Source\PSoC4/CapSense_Processing.c **** * \details
1119:Generated_Source\PSoC4/CapSense_Processing.c **** *   This API processes the status of the CSD/CSX Button widget and
1120:Generated_Source\PSoC4/CapSense_Processing.c **** *   CSX Matrix Button widget. It applies the hysteresis and de-bounce algorithm
1121:Generated_Source\PSoC4/CapSense_Processing.c **** *   to each sensor difference value. This API is expected to be called
1122:Generated_Source\PSoC4/CapSense_Processing.c **** *   after each new widget scan. If it is called multiple times for the same
1123:Generated_Source\PSoC4/CapSense_Processing.c **** *   scan data, the de-bounce algorithm will not work properly.
1124:Generated_Source\PSoC4/CapSense_Processing.c **** *
1125:Generated_Source\PSoC4/CapSense_Processing.c **** *   This API does not update any Data Structure registers
1126:Generated_Source\PSoC4/CapSense_Processing.c **** *   except the de-bounce counters.
1127:Generated_Source\PSoC4/CapSense_Processing.c **** *
1128:Generated_Source\PSoC4/CapSense_Processing.c **** * \param currStatus   The current status of the widget sensors.
1129:Generated_Source\PSoC4/CapSense_Processing.c **** * \param ptrFlashWdgt The pointer to the Flash Widget Object.
1130:Generated_Source\PSoC4/CapSense_Processing.c **** *
1131:Generated_Source\PSoC4/CapSense_Processing.c **** * \return Returns the status of the widget's sensors. Bit #0 - corresponds to Sensor #0.
1132:Generated_Source\PSoC4/CapSense_Processing.c **** *
1133:Generated_Source\PSoC4/CapSense_Processing.c **** *******************************************************************************/
1134:Generated_Source\PSoC4/CapSense_Processing.c **** uint32 CapSense_DpProcessButton(uint32 currStatus, CapSense_FLASH_WD_STRUCT const *ptrFlashWdgt)
1135:Generated_Source\PSoC4/CapSense_Processing.c **** {
 399              		.loc 1 1135 0
 400              		.cfi_startproc
 401              	.LVL63:
 402 0000 F0B5     		push	{r4, r5, r6, r7, lr}
 403              		.cfi_def_cfa_offset 20
 404              		.cfi_offset 4, -20
 405              		.cfi_offset 5, -16
 406              		.cfi_offset 6, -12
 407              		.cfi_offset 7, -8
 408              		.cfi_offset 14, -4
1136:Generated_Source\PSoC4/CapSense_Processing.c ****     uint32 snsCnt;
1137:Generated_Source\PSoC4/CapSense_Processing.c ****     uint32 snsMask;
1138:Generated_Source\PSoC4/CapSense_Processing.c ****     uint32 newStatus;
1139:Generated_Source\PSoC4/CapSense_Processing.c ****     uint32 touchTh;
1140:Generated_Source\PSoC4/CapSense_Processing.c ****     CapSense_RAM_SNS_STRUCT *ptrSns;
1141:Generated_Source\PSoC4/CapSense_Processing.c ****     CapSense_RAM_WD_BASE_STRUCT *ptrRamWdgt;
1142:Generated_Source\PSoC4/CapSense_Processing.c ****     uint8 * ptrDebounceCnt;
1143:Generated_Source\PSoC4/CapSense_Processing.c **** 
1144:Generated_Source\PSoC4/CapSense_Processing.c ****     snsCnt = ptrFlashWdgt->totalNumSns;
 409              		.loc 1 1144 0
 410 0002 CA8A     		ldrh	r2, [r1, #22]
 411              	.LVL64:
1145:Generated_Source\PSoC4/CapSense_Processing.c ****     ptrSns = ptrFlashWdgt->ptr2SnsRam;
 412              		.loc 1 1145 0
ARM GAS  C:\Users\TB1014~1\AppData\Local\Temp\ccTzyt2s.s 			page 29


 413 0004 8D68     		ldr	r5, [r1, #8]
 414              	.LVL65:
1146:Generated_Source\PSoC4/CapSense_Processing.c ****     ptrRamWdgt = ptrFlashWdgt->ptr2WdgtRam;
 415              		.loc 1 1146 0
 416 0006 4F68     		ldr	r7, [r1, #4]
 417              	.LVL66:
1147:Generated_Source\PSoC4/CapSense_Processing.c ****     ptrDebounceCnt = ptrFlashWdgt->ptr2DebounceArr;
 418              		.loc 1 1147 0
 419 0008 0B69     		ldr	r3, [r1, #16]
 420              	.LVL67:
1148:Generated_Source\PSoC4/CapSense_Processing.c **** 
1149:Generated_Source\PSoC4/CapSense_Processing.c ****     /* Go through all widget's sensors */
1150:Generated_Source\PSoC4/CapSense_Processing.c ****     snsMask = 1Lu;
 421              		.loc 1 1150 0
 422 000a 0121     		mov	r1, #1
 423              	.LVL68:
1151:Generated_Source\PSoC4/CapSense_Processing.c ****     for (; snsCnt-- > 0u; )
 424              		.loc 1 1151 0
 425 000c 25E0     		b	.L29
 426              	.LVL69:
 427              	.L37:
1152:Generated_Source\PSoC4/CapSense_Processing.c ****     {
1153:Generated_Source\PSoC4/CapSense_Processing.c ****         /* Calculate touch threshold taking into account hysteresis
1154:Generated_Source\PSoC4/CapSense_Processing.c ****            and current sensor state. */
1155:Generated_Source\PSoC4/CapSense_Processing.c ****         touchTh = (0u == (currStatus & snsMask)) ?
 428              		.loc 1 1155 0
 429 000e 0C1C     		mov	r4, r1
 430              	.LVL70:
 431 0010 0440     		and	r4, r0
1156:Generated_Source\PSoC4/CapSense_Processing.c ****                   ((uint32)ptrRamWdgt->fingerTh + ptrRamWdgt->hysteresis) :
 432              		.loc 1 1156 0
 433 0012 03D1     		bne	.L30
 434              		.loc 1 1156 0 is_stmt 0 discriminator 1
 435 0014 7E88     		ldrh	r6, [r7, #2]
 436 0016 BA79     		ldrb	r2, [r7, #6]
 437 0018 B218     		add	r2, r6, r2
 438 001a 02E0     		b	.L31
 439              	.L30:
1157:Generated_Source\PSoC4/CapSense_Processing.c ****                   ((uint32)ptrRamWdgt->fingerTh - ptrRamWdgt->hysteresis);
 440              		.loc 1 1157 0 is_stmt 1 discriminator 2
 441 001c 7A88     		ldrh	r2, [r7, #2]
 442 001e BE79     		ldrb	r6, [r7, #6]
1156:Generated_Source\PSoC4/CapSense_Processing.c ****                   ((uint32)ptrRamWdgt->fingerTh + ptrRamWdgt->hysteresis) :
 443              		.loc 1 1156 0 discriminator 2
 444 0020 921B     		sub	r2, r2, r6
 445              	.L31:
 446              	.LVL71:
1158:Generated_Source\PSoC4/CapSense_Processing.c **** 
1159:Generated_Source\PSoC4/CapSense_Processing.c ****         /* Determine new potential sensor state */
1160:Generated_Source\PSoC4/CapSense_Processing.c ****         newStatus = (ptrSns->diff > touchTh) ? snsMask : 0u;
 447              		.loc 1 1160 0
 448 0022 EE88     		ldrh	r6, [r5, #6]
 449 0024 B242     		cmp	r2, r6
 450 0026 01D3     		bcc	.L38
 451 0028 0022     		mov	r2, #0
 452              	.LVL72:
 453 002a 00E0     		b	.L32
ARM GAS  C:\Users\TB1014~1\AppData\Local\Temp\ccTzyt2s.s 			page 30


 454              	.LVL73:
 455              	.L38:
 456 002c 0A1C     		mov	r2, r1
 457              	.LVL74:
 458              	.L32:
1161:Generated_Source\PSoC4/CapSense_Processing.c **** 
1162:Generated_Source\PSoC4/CapSense_Processing.c ****         /* Sensor state changed ? */
1163:Generated_Source\PSoC4/CapSense_Processing.c ****         if (newStatus != (currStatus & snsMask))
 459              		.loc 1 1163 0 discriminator 4
 460 002e A242     		cmp	r2, r4
 461 0030 02D0     		beq	.L33
1164:Generated_Source\PSoC4/CapSense_Processing.c ****         {
1165:Generated_Source\PSoC4/CapSense_Processing.c ****             /* Decrement de-bounce counter */
1166:Generated_Source\PSoC4/CapSense_Processing.c ****             (*ptrDebounceCnt)--;
 462              		.loc 1 1166 0
 463 0032 1E78     		ldrb	r6, [r3]
 464 0034 013E     		sub	r6, r6, #1
 465 0036 1E70     		strb	r6, [r3]
 466              	.L33:
1167:Generated_Source\PSoC4/CapSense_Processing.c ****         }
1168:Generated_Source\PSoC4/CapSense_Processing.c **** 
1169:Generated_Source\PSoC4/CapSense_Processing.c ****         /* This piece of code has two objectives:
1170:Generated_Source\PSoC4/CapSense_Processing.c ****            1. Reset de-bounce counter if the sensor state did not change.
1171:Generated_Source\PSoC4/CapSense_Processing.c ****               (It is possible that during previous processing cycles sensor
1172:Generated_Source\PSoC4/CapSense_Processing.c ****                was active and de-bounce counter was decremented.)
1173:Generated_Source\PSoC4/CapSense_Processing.c ****            2. Set new sensor state after successful de-bounce.
1174:Generated_Source\PSoC4/CapSense_Processing.c ****          */
1175:Generated_Source\PSoC4/CapSense_Processing.c ****         if ((newStatus == (currStatus & snsMask)) || (0u == (*ptrDebounceCnt)))
 467              		.loc 1 1175 0
 468 0038 A242     		cmp	r2, r4
 469 003a 02D0     		beq	.L34
 470              		.loc 1 1175 0 is_stmt 0 discriminator 1
 471 003c 1C78     		ldrb	r4, [r3]
 472 003e 002C     		cmp	r4, #0
 473 0040 07D1     		bne	.L35
 474              	.L34:
1176:Generated_Source\PSoC4/CapSense_Processing.c ****         {
1177:Generated_Source\PSoC4/CapSense_Processing.c ****             /* Set new sensor status */
1178:Generated_Source\PSoC4/CapSense_Processing.c ****             currStatus &= ~snsMask;
 475              		.loc 1 1178 0 is_stmt 1
 476 0042 8843     		bic	r0, r1
 477              	.LVL75:
1179:Generated_Source\PSoC4/CapSense_Processing.c ****             currStatus |= newStatus;
 478              		.loc 1 1179 0
 479 0044 1043     		orr	r0, r2
 480              	.LVL76:
1180:Generated_Source\PSoC4/CapSense_Processing.c **** 
1181:Generated_Source\PSoC4/CapSense_Processing.c ****             /* Reset de-bounce counter */
1182:Generated_Source\PSoC4/CapSense_Processing.c ****             #if (0u != CapSense_OFF_DEBOUNCE_EN)
1183:Generated_Source\PSoC4/CapSense_Processing.c ****                 *ptrDebounceCnt = (0Lu == newStatus) ? ptrRamWdgt->onDebounce : ptrRamWdgt->offDebo
1184:Generated_Source\PSoC4/CapSense_Processing.c ****             #else
1185:Generated_Source\PSoC4/CapSense_Processing.c ****                 *ptrDebounceCnt = (0Lu == newStatus) ? ptrRamWdgt->onDebounce : DEFAULT_OFF_DEBOUNC
 481              		.loc 1 1185 0
 482 0046 002A     		cmp	r2, #0
 483 0048 01D1     		bne	.L39
 484              		.loc 1 1185 0 is_stmt 0 discriminator 1
 485 004a FA79     		ldrb	r2, [r7, #7]
ARM GAS  C:\Users\TB1014~1\AppData\Local\Temp\ccTzyt2s.s 			page 31


 486              	.LVL77:
 487 004c 00E0     		b	.L36
 488              	.LVL78:
 489              	.L39:
 490              		.loc 1 1185 0
 491 004e 0122     		mov	r2, #1
 492              	.LVL79:
 493              	.L36:
 494              		.loc 1 1185 0 discriminator 4
 495 0050 1A70     		strb	r2, [r3]
 496              	.L35:
1186:Generated_Source\PSoC4/CapSense_Processing.c ****             #endif /* #if (0u != CapSense_OFF_DEBOUNCE_EN) */
1187:Generated_Source\PSoC4/CapSense_Processing.c ****         }
1188:Generated_Source\PSoC4/CapSense_Processing.c ****         
1189:Generated_Source\PSoC4/CapSense_Processing.c ****         /* Move mask to the next sensor */
1190:Generated_Source\PSoC4/CapSense_Processing.c ****         snsMask <<= 1u;
 497              		.loc 1 1190 0 is_stmt 1
 498 0052 4900     		lsl	r1, r1, #1
 499              	.LVL80:
1191:Generated_Source\PSoC4/CapSense_Processing.c ****         
1192:Generated_Source\PSoC4/CapSense_Processing.c ****         ptrSns++;
 500              		.loc 1 1192 0
 501 0054 0A35     		add	r5, r5, #10
 502              	.LVL81:
1193:Generated_Source\PSoC4/CapSense_Processing.c ****         ptrDebounceCnt++;
 503              		.loc 1 1193 0
 504 0056 0133     		add	r3, r3, #1
 505              	.LVL82:
1151:Generated_Source\PSoC4/CapSense_Processing.c ****     {
 506              		.loc 1 1151 0
 507 0058 6246     		mov	r2, ip
 508              	.LVL83:
 509              	.L29:
 510 005a 541E     		sub	r4, r2, #1
 511 005c A446     		mov	ip, r4
 512              	.LVL84:
 513 005e 002A     		cmp	r2, #0
 514 0060 D5D1     		bne	.L37
1194:Generated_Source\PSoC4/CapSense_Processing.c ****     }
1195:Generated_Source\PSoC4/CapSense_Processing.c **** 
1196:Generated_Source\PSoC4/CapSense_Processing.c ****     return currStatus;
1197:Generated_Source\PSoC4/CapSense_Processing.c **** }
 515              		.loc 1 1197 0
 516              		@ sp needed
 517              	.LVL85:
 518              	.LVL86:
 519              	.LVL87:
 520 0062 F0BD     		pop	{r4, r5, r6, r7, pc}
 521              		.cfi_endproc
 522              	.LFE7:
 523              		.size	CapSense_DpProcessButton, .-CapSense_DpProcessButton
 524              		.section	.text.CapSense_DpProcessSlider,"ax",%progbits
 525              		.align	2
 526              		.global	CapSense_DpProcessSlider
 527              		.code	16
 528              		.thumb_func
 529              		.type	CapSense_DpProcessSlider, %function
ARM GAS  C:\Users\TB1014~1\AppData\Local\Temp\ccTzyt2s.s 			page 32


 530              	CapSense_DpProcessSlider:
 531              	.LFB8:
1198:Generated_Source\PSoC4/CapSense_Processing.c **** #endif /* #if ((0u != CapSense_BUTTON_WIDGET_EN) || (0u != CapSense_CSX_MATRIX_WIDGET_EN)) */
1199:Generated_Source\PSoC4/CapSense_Processing.c **** 
1200:Generated_Source\PSoC4/CapSense_Processing.c **** 
1201:Generated_Source\PSoC4/CapSense_Processing.c **** #if (0u != CapSense_PROXIMITY_WIDGET_EN)
1202:Generated_Source\PSoC4/CapSense_Processing.c **** /*******************************************************************************
1203:Generated_Source\PSoC4/CapSense_Processing.c **** * Function Name: CapSense_DpProcessProximity
1204:Generated_Source\PSoC4/CapSense_Processing.c **** ****************************************************************************//**
1205:Generated_Source\PSoC4/CapSense_Processing.c **** *
1206:Generated_Source\PSoC4/CapSense_Processing.c **** * \brief
1207:Generated_Source\PSoC4/CapSense_Processing.c **** *   Processes the status of the Proximity widget.
1208:Generated_Source\PSoC4/CapSense_Processing.c **** *
1209:Generated_Source\PSoC4/CapSense_Processing.c **** * \details
1210:Generated_Source\PSoC4/CapSense_Processing.c **** *   This API processes the status of the CSD Proximity widget. It applies the
1211:Generated_Source\PSoC4/CapSense_Processing.c **** *   hysteresis and debounce algorithm to each sensor difference value.
1212:Generated_Source\PSoC4/CapSense_Processing.c **** *   The proximity and touch events are considered independently so debounce and
1213:Generated_Source\PSoC4/CapSense_Processing.c **** *   hysteresis are also applied independently.
1214:Generated_Source\PSoC4/CapSense_Processing.c **** *
1215:Generated_Source\PSoC4/CapSense_Processing.c **** *   This API is expected to be called after each new widget scan. If it is
1216:Generated_Source\PSoC4/CapSense_Processing.c **** *   called multiple times for the same scan data the debounce algorithm
1217:Generated_Source\PSoC4/CapSense_Processing.c **** *   will not work properly.
1218:Generated_Source\PSoC4/CapSense_Processing.c **** *
1219:Generated_Source\PSoC4/CapSense_Processing.c **** *   This API does not update any Data Structure registers
1220:Generated_Source\PSoC4/CapSense_Processing.c **** *   except the debounce counters.
1221:Generated_Source\PSoC4/CapSense_Processing.c **** *
1222:Generated_Source\PSoC4/CapSense_Processing.c **** * \param currStatus   The value with the current widget status.
1223:Generated_Source\PSoC4/CapSense_Processing.c **** * \param ptrFlashWdgt The pointer to the Flash Widget Object.
1224:Generated_Source\PSoC4/CapSense_Processing.c **** *
1225:Generated_Source\PSoC4/CapSense_Processing.c **** * \return
1226:Generated_Source\PSoC4/CapSense_Processing.c **** *  Returns the status of the proximity sensors. Each sensor is represented by two bits
1227:Generated_Source\PSoC4/CapSense_Processing.c **** *  that can take the following values:
1228:Generated_Source\PSoC4/CapSense_Processing.c **** *   - 00b not active
1229:Generated_Source\PSoC4/CapSense_Processing.c **** *   - 01b proximity is detected (signal is above finger threshold)
1230:Generated_Source\PSoC4/CapSense_Processing.c **** *   - 11b finger touch is detected (signal is above the touch threshold)
1231:Generated_Source\PSoC4/CapSense_Processing.c **** *
1232:Generated_Source\PSoC4/CapSense_Processing.c **** *******************************************************************************/
1233:Generated_Source\PSoC4/CapSense_Processing.c **** uint32 CapSense_DpProcessProximity(uint32 currStatus, CapSense_FLASH_WD_STRUCT const *ptrFlashWdgt)
1234:Generated_Source\PSoC4/CapSense_Processing.c **** {
1235:Generated_Source\PSoC4/CapSense_Processing.c ****     uint32 currTh;
1236:Generated_Source\PSoC4/CapSense_Processing.c ****     uint32 snsCnt;
1237:Generated_Source\PSoC4/CapSense_Processing.c ****     uint32 snsMask;
1238:Generated_Source\PSoC4/CapSense_Processing.c ****     uint32 newStatus;
1239:Generated_Source\PSoC4/CapSense_Processing.c ****     uint32 difference;
1240:Generated_Source\PSoC4/CapSense_Processing.c **** 
1241:Generated_Source\PSoC4/CapSense_Processing.c ****     uint8 *ptrDebounceCnt;
1242:Generated_Source\PSoC4/CapSense_Processing.c ****     CapSense_RAM_SNS_STRUCT *ptrSns;
1243:Generated_Source\PSoC4/CapSense_Processing.c ****     CapSense_RAM_WD_PROXIMITY_STRUCT *ptrRamWdgt;
1244:Generated_Source\PSoC4/CapSense_Processing.c **** 
1245:Generated_Source\PSoC4/CapSense_Processing.c ****     /* Mask for proximity status bits. (All odd bits.) */
1246:Generated_Source\PSoC4/CapSense_Processing.c ****     const uint32 proxMask = UINT32_ODD_BITS_CONST;
1247:Generated_Source\PSoC4/CapSense_Processing.c **** 
1248:Generated_Source\PSoC4/CapSense_Processing.c ****     ptrSns = ptrFlashWdgt->ptr2SnsRam;
1249:Generated_Source\PSoC4/CapSense_Processing.c ****     ptrRamWdgt = ptrFlashWdgt->ptr2WdgtRam;
1250:Generated_Source\PSoC4/CapSense_Processing.c ****     ptrDebounceCnt = ptrFlashWdgt->ptr2DebounceArr;
1251:Generated_Source\PSoC4/CapSense_Processing.c **** 
1252:Generated_Source\PSoC4/CapSense_Processing.c ****     /* Get number of sensors and multiply it by 2 - proximity and touch statuses per sensor. */
ARM GAS  C:\Users\TB1014~1\AppData\Local\Temp\ccTzyt2s.s 			page 33


1253:Generated_Source\PSoC4/CapSense_Processing.c ****     snsCnt = (uint32)ptrFlashWdgt->totalNumSns << 1u;
1254:Generated_Source\PSoC4/CapSense_Processing.c **** 
1255:Generated_Source\PSoC4/CapSense_Processing.c ****     /* Go through all sensor's status bits */
1256:Generated_Source\PSoC4/CapSense_Processing.c ****     snsMask = 1Lu;
1257:Generated_Source\PSoC4/CapSense_Processing.c ****     for (; snsCnt-- > 0u;)
1258:Generated_Source\PSoC4/CapSense_Processing.c ****     {
1259:Generated_Source\PSoC4/CapSense_Processing.c ****         difference = ptrSns->diff;
1260:Generated_Source\PSoC4/CapSense_Processing.c **** 
1261:Generated_Source\PSoC4/CapSense_Processing.c ****         /* Determine current event (proximity - odd; touch - even) and get appropriate threshold. *
1262:Generated_Source\PSoC4/CapSense_Processing.c ****         currTh = ptrRamWdgt->fingerTh;
1263:Generated_Source\PSoC4/CapSense_Processing.c **** 
1264:Generated_Source\PSoC4/CapSense_Processing.c ****         if (0u == (snsMask & proxMask))
1265:Generated_Source\PSoC4/CapSense_Processing.c ****         {
1266:Generated_Source\PSoC4/CapSense_Processing.c ****             currTh = ptrRamWdgt->proxTouchTh;
1267:Generated_Source\PSoC4/CapSense_Processing.c ****             ptrSns++;
1268:Generated_Source\PSoC4/CapSense_Processing.c ****         }
1269:Generated_Source\PSoC4/CapSense_Processing.c **** 
1270:Generated_Source\PSoC4/CapSense_Processing.c ****         /* Calculate finger threshold applying hysteresis based on current sensor state. */
1271:Generated_Source\PSoC4/CapSense_Processing.c ****         currTh = (0u == (currStatus & snsMask)) ? (currTh + ptrRamWdgt->hysteresis) : (currTh - ptr
1272:Generated_Source\PSoC4/CapSense_Processing.c **** 
1273:Generated_Source\PSoC4/CapSense_Processing.c ****         /* Determine new potential sensor state before de-bounce */
1274:Generated_Source\PSoC4/CapSense_Processing.c ****         newStatus = (difference > currTh) ? snsMask : 0Lu;
1275:Generated_Source\PSoC4/CapSense_Processing.c **** 
1276:Generated_Source\PSoC4/CapSense_Processing.c ****         /* Sensor state changed ? */
1277:Generated_Source\PSoC4/CapSense_Processing.c ****         if (newStatus != (currStatus & snsMask))
1278:Generated_Source\PSoC4/CapSense_Processing.c ****         {
1279:Generated_Source\PSoC4/CapSense_Processing.c ****             /* Decrement de-bounce counter */
1280:Generated_Source\PSoC4/CapSense_Processing.c ****             (*ptrDebounceCnt)--;
1281:Generated_Source\PSoC4/CapSense_Processing.c ****         }
1282:Generated_Source\PSoC4/CapSense_Processing.c **** 
1283:Generated_Source\PSoC4/CapSense_Processing.c ****         /* This piece of code has two objectives:
1284:Generated_Source\PSoC4/CapSense_Processing.c ****            1. Reset de-bounce counter if new sensor state has not changed.
1285:Generated_Source\PSoC4/CapSense_Processing.c ****               (It is possible that during previous processing cycles the sensor
1286:Generated_Source\PSoC4/CapSense_Processing.c ****                state was different which caused de-bounce counter change.)
1287:Generated_Source\PSoC4/CapSense_Processing.c ****            2. Set new sensor state after successful de-bounce.
1288:Generated_Source\PSoC4/CapSense_Processing.c ****          */
1289:Generated_Source\PSoC4/CapSense_Processing.c ****         if ((newStatus == (currStatus & snsMask)) || (0u == (*ptrDebounceCnt)))
1290:Generated_Source\PSoC4/CapSense_Processing.c ****         {
1291:Generated_Source\PSoC4/CapSense_Processing.c ****             /* Set new sensor status */
1292:Generated_Source\PSoC4/CapSense_Processing.c ****             currStatus &= ~snsMask;
1293:Generated_Source\PSoC4/CapSense_Processing.c ****             currStatus |= newStatus;
1294:Generated_Source\PSoC4/CapSense_Processing.c **** 
1295:Generated_Source\PSoC4/CapSense_Processing.c ****             /* Reset de-bounce counter */
1296:Generated_Source\PSoC4/CapSense_Processing.c ****             #if (0u != CapSense_OFF_DEBOUNCE_EN)
1297:Generated_Source\PSoC4/CapSense_Processing.c ****                 *ptrDebounceCnt = (0Lu == newStatus) ? ptrRamWdgt->onDebounce : ptrRamWdgt->offDebo
1298:Generated_Source\PSoC4/CapSense_Processing.c ****             #else
1299:Generated_Source\PSoC4/CapSense_Processing.c ****                 *ptrDebounceCnt = (0Lu == newStatus) ? ptrRamWdgt->onDebounce : DEFAULT_OFF_DEBOUNC
1300:Generated_Source\PSoC4/CapSense_Processing.c ****             #endif /* #if (0u != CapSense_OFF_DEBOUNCE_EN) */
1301:Generated_Source\PSoC4/CapSense_Processing.c ****         }
1302:Generated_Source\PSoC4/CapSense_Processing.c **** 
1303:Generated_Source\PSoC4/CapSense_Processing.c ****         ptrDebounceCnt++;
1304:Generated_Source\PSoC4/CapSense_Processing.c ****         
1305:Generated_Source\PSoC4/CapSense_Processing.c ****         /* Move sensor mask to the next sensor */
1306:Generated_Source\PSoC4/CapSense_Processing.c ****         snsMask <<= 1u;
1307:Generated_Source\PSoC4/CapSense_Processing.c ****     }
1308:Generated_Source\PSoC4/CapSense_Processing.c **** 
1309:Generated_Source\PSoC4/CapSense_Processing.c ****     return currStatus;
ARM GAS  C:\Users\TB1014~1\AppData\Local\Temp\ccTzyt2s.s 			page 34


1310:Generated_Source\PSoC4/CapSense_Processing.c **** }
1311:Generated_Source\PSoC4/CapSense_Processing.c **** #endif /* #if (0u != CapSense_PROXIMITY_WIDGET_EN) */
1312:Generated_Source\PSoC4/CapSense_Processing.c **** 
1313:Generated_Source\PSoC4/CapSense_Processing.c **** 
1314:Generated_Source\PSoC4/CapSense_Processing.c **** #if (0u != CapSense_SLIDER_WIDGET_EN)
1315:Generated_Source\PSoC4/CapSense_Processing.c **** /*******************************************************************************
1316:Generated_Source\PSoC4/CapSense_Processing.c **** * Function Name: CapSense_DpProcessSlider
1317:Generated_Source\PSoC4/CapSense_Processing.c **** ****************************************************************************//**
1318:Generated_Source\PSoC4/CapSense_Processing.c **** *
1319:Generated_Source\PSoC4/CapSense_Processing.c **** * \brief
1320:Generated_Source\PSoC4/CapSense_Processing.c **** *   Processes the status of the Linear/Radial Slider widget.
1321:Generated_Source\PSoC4/CapSense_Processing.c **** *   The process involves running the Linear/Radial Centroid algorithm.
1322:Generated_Source\PSoC4/CapSense_Processing.c **** *
1323:Generated_Source\PSoC4/CapSense_Processing.c **** * \details
1324:Generated_Source\PSoC4/CapSense_Processing.c **** *   This API processes the status of the CSD Slider widget (Linear and Radial).
1325:Generated_Source\PSoC4/CapSense_Processing.c **** *   It applies the hysteresis and de-bounce algorithm to the widget ignoring
1326:Generated_Source\PSoC4/CapSense_Processing.c **** *   the individual states of the sensors.
1327:Generated_Source\PSoC4/CapSense_Processing.c **** *
1328:Generated_Source\PSoC4/CapSense_Processing.c **** *   This API is expected to be called after each new widget scan. If it is
1329:Generated_Source\PSoC4/CapSense_Processing.c **** *   called multiple times for the same scan data, the debounce algorithm
1330:Generated_Source\PSoC4/CapSense_Processing.c **** *   will not work properly.
1331:Generated_Source\PSoC4/CapSense_Processing.c **** *
1332:Generated_Source\PSoC4/CapSense_Processing.c **** *   Slider widgets do not support the ON to OFF debounce.
1333:Generated_Source\PSoC4/CapSense_Processing.c **** *
1334:Generated_Source\PSoC4/CapSense_Processing.c **** *   This API does not update any Data Structure registers
1335:Generated_Source\PSoC4/CapSense_Processing.c **** *   except the debounce counters.
1336:Generated_Source\PSoC4/CapSense_Processing.c **** *
1337:Generated_Source\PSoC4/CapSense_Processing.c **** * \param currStatus   The current sensor status of the Slider widget.
1338:Generated_Source\PSoC4/CapSense_Processing.c **** * \param ptrFlashWdgt The pointer to the Flash Widget Object.
1339:Generated_Source\PSoC4/CapSense_Processing.c **** *
1340:Generated_Source\PSoC4/CapSense_Processing.c **** * \return Returns the status of the widget's sensors. Bit #0 - corresponds to Sensor #0.
1341:Generated_Source\PSoC4/CapSense_Processing.c **** *
1342:Generated_Source\PSoC4/CapSense_Processing.c **** *******************************************************************************/
1343:Generated_Source\PSoC4/CapSense_Processing.c **** uint32 CapSense_DpProcessSlider(uint32 currStatus, CapSense_FLASH_WD_STRUCT const *ptrFlashWdgt)
1344:Generated_Source\PSoC4/CapSense_Processing.c **** {
 532              		.loc 1 1344 0
 533              		.cfi_startproc
 534              	.LVL88:
 535 0000 F0B5     		push	{r4, r5, r6, r7, lr}
 536              		.cfi_def_cfa_offset 20
 537              		.cfi_offset 4, -20
 538              		.cfi_offset 5, -16
 539              		.cfi_offset 6, -12
 540              		.cfi_offset 7, -8
 541              		.cfi_offset 14, -4
 542 0002 4746     		mov	r7, r8
 543 0004 80B4     		push	{r7}
 544              		.cfi_def_cfa_offset 24
 545              		.cfi_offset 8, -24
 546 0006 82B0     		sub	sp, sp, #8
 547              		.cfi_def_cfa_offset 32
 548 0008 8446     		mov	ip, r0
 549              	.LVL89:
1345:Generated_Source\PSoC4/CapSense_Processing.c ****     uint32 snsCnt;
1346:Generated_Source\PSoC4/CapSense_Processing.c ****     uint32 snsMask;
1347:Generated_Source\PSoC4/CapSense_Processing.c ****     uint32 touchTh;
1348:Generated_Source\PSoC4/CapSense_Processing.c ****     uint32 newStatus = 0Lu;
ARM GAS  C:\Users\TB1014~1\AppData\Local\Temp\ccTzyt2s.s 			page 35


1349:Generated_Source\PSoC4/CapSense_Processing.c ****     uint8 * ptrDebounceCnt;
1350:Generated_Source\PSoC4/CapSense_Processing.c ****     CapSense_RAM_SNS_STRUCT *ptrSns;
1351:Generated_Source\PSoC4/CapSense_Processing.c ****     CapSense_RAM_WD_SLIDER_STRUCT *ptrRamWdgt;
1352:Generated_Source\PSoC4/CapSense_Processing.c **** 
1353:Generated_Source\PSoC4/CapSense_Processing.c ****     #if (0u != CapSense_POS_MEDIAN_FILTER_EN)
1354:Generated_Source\PSoC4/CapSense_Processing.c ****         CapSense_SLIDER_POS_HISTORY_STRUCT *ptrHistory;
1355:Generated_Source\PSoC4/CapSense_Processing.c ****     #endif /* #if (0u != CapSense_POS_MEDIAN_FILTER_EN) */
1356:Generated_Source\PSoC4/CapSense_Processing.c **** 
1357:Generated_Source\PSoC4/CapSense_Processing.c ****     uint32 touchIdx;
1358:Generated_Source\PSoC4/CapSense_Processing.c ****     uint32 touchCnt = 0Lu;
1359:Generated_Source\PSoC4/CapSense_Processing.c ****     uint16 newPos[CapSense_NUM_CENTROIDS];
1360:Generated_Source\PSoC4/CapSense_Processing.c **** 
1361:Generated_Source\PSoC4/CapSense_Processing.c ****     snsCnt = ptrFlashWdgt->totalNumSns;
 550              		.loc 1 1361 0
 551 000a CB8A     		ldrh	r3, [r1, #22]
 552              	.LVL90:
1362:Generated_Source\PSoC4/CapSense_Processing.c ****     ptrSns = ptrFlashWdgt->ptr2SnsRam;
 553              		.loc 1 1362 0
 554 000c 8A68     		ldr	r2, [r1, #8]
 555              	.LVL91:
1363:Generated_Source\PSoC4/CapSense_Processing.c ****     ptrRamWdgt = ptrFlashWdgt->ptr2WdgtRam;
 556              		.loc 1 1363 0
 557 000e 4D68     		ldr	r5, [r1, #4]
 558              	.LVL92:
1364:Generated_Source\PSoC4/CapSense_Processing.c ****     ptrDebounceCnt = ptrFlashWdgt->ptr2DebounceArr;
 559              		.loc 1 1364 0
 560 0010 0869     		ldr	r0, [r1, #16]
 561              	.LVL93:
 562 0012 8046     		mov	r8, r0
 563              	.LVL94:
1365:Generated_Source\PSoC4/CapSense_Processing.c ****     
1366:Generated_Source\PSoC4/CapSense_Processing.c ****     #if (0u != CapSense_POS_MEDIAN_FILTER_EN)
1367:Generated_Source\PSoC4/CapSense_Processing.c ****         ptrHistory = ptrFlashWdgt->ptr2PosHistory;
1368:Generated_Source\PSoC4/CapSense_Processing.c ****     #endif /* #if (0u != CapSense_POS_MEDIAN_FILTER_EN) */
1369:Generated_Source\PSoC4/CapSense_Processing.c **** 
1370:Generated_Source\PSoC4/CapSense_Processing.c ****     /* Calculate touch threshold based on current slider state */
1371:Generated_Source\PSoC4/CapSense_Processing.c ****     touchTh = (0Lu == currStatus ) ?
1372:Generated_Source\PSoC4/CapSense_Processing.c ****               ((uint32)ptrRamWdgt->fingerTh + ptrRamWdgt->hysteresis) :
 564              		.loc 1 1372 0
 565 0014 6046     		mov	r0, ip
 566              	.LVL95:
 567 0016 0028     		cmp	r0, #0
 568 0018 03D1     		bne	.L41
 569              		.loc 1 1372 0 is_stmt 0 discriminator 1
 570 001a 6C88     		ldrh	r4, [r5, #2]
 571 001c A879     		ldrb	r0, [r5, #6]
 572 001e 2018     		add	r0, r4, r0
 573 0020 02E0     		b	.L42
 574              	.LVL96:
 575              	.L41:
1373:Generated_Source\PSoC4/CapSense_Processing.c ****               ((uint32)ptrRamWdgt->fingerTh - ptrRamWdgt->hysteresis);
 576              		.loc 1 1373 0 is_stmt 1 discriminator 2
 577 0022 6C88     		ldrh	r4, [r5, #2]
 578 0024 A879     		ldrb	r0, [r5, #6]
 579              	.LVL97:
1372:Generated_Source\PSoC4/CapSense_Processing.c ****               ((uint32)ptrRamWdgt->fingerTh - ptrRamWdgt->hysteresis);
 580              		.loc 1 1372 0 discriminator 2
ARM GAS  C:\Users\TB1014~1\AppData\Local\Temp\ccTzyt2s.s 			page 36


 581 0026 201A     		sub	r0, r4, r0
 582              	.L42:
 583              	.LVL98:
1348:Generated_Source\PSoC4/CapSense_Processing.c ****     uint8 * ptrDebounceCnt;
 584              		.loc 1 1348 0
 585 0028 0024     		mov	r4, #0
1374:Generated_Source\PSoC4/CapSense_Processing.c **** 
1375:Generated_Source\PSoC4/CapSense_Processing.c ****     /* Go through all widget's sensors */
1376:Generated_Source\PSoC4/CapSense_Processing.c ****     snsMask = 1Lu;
 586              		.loc 1 1376 0
 587 002a 0126     		mov	r6, #1
1377:Generated_Source\PSoC4/CapSense_Processing.c ****     for (; snsCnt-- > 0Lu; )
 588              		.loc 1 1377 0
 589 002c 09E0     		b	.L43
 590              	.LVL99:
 591              	.L45:
1378:Generated_Source\PSoC4/CapSense_Processing.c ****     {
1379:Generated_Source\PSoC4/CapSense_Processing.c ****         /* Determine new potential sensor state */
1380:Generated_Source\PSoC4/CapSense_Processing.c ****         newStatus |= (ptrSns->diff > touchTh) ? snsMask : 0Lu;
 592              		.loc 1 1380 0
 593 002e D388     		ldrh	r3, [r2, #6]
 594 0030 9842     		cmp	r0, r3
 595 0032 01D3     		bcc	.L54
 596 0034 0023     		mov	r3, #0
 597 0036 00E0     		b	.L44
 598              	.L54:
 599 0038 331C     		mov	r3, r6
 600              	.L44:
 601              		.loc 1 1380 0 is_stmt 0 discriminator 4
 602 003a 1C43     		orr	r4, r3
 603              	.LVL100:
1381:Generated_Source\PSoC4/CapSense_Processing.c ****         ptrSns++;
 604              		.loc 1 1381 0 is_stmt 1 discriminator 4
 605 003c 0A32     		add	r2, r2, #10
 606              	.LVL101:
1382:Generated_Source\PSoC4/CapSense_Processing.c **** 
1383:Generated_Source\PSoC4/CapSense_Processing.c ****         snsMask <<= 1u;
 607              		.loc 1 1383 0 discriminator 4
 608 003e 7600     		lsl	r6, r6, #1
 609              	.LVL102:
1377:Generated_Source\PSoC4/CapSense_Processing.c ****     {
 610              		.loc 1 1377 0 discriminator 4
 611 0040 3B1C     		mov	r3, r7
 612              	.LVL103:
 613              	.L43:
1377:Generated_Source\PSoC4/CapSense_Processing.c ****     {
 614              		.loc 1 1377 0 is_stmt 0
 615 0042 5F1E     		sub	r7, r3, #1
 616              	.LVL104:
 617 0044 002B     		cmp	r3, #0
 618 0046 F2D1     		bne	.L45
1384:Generated_Source\PSoC4/CapSense_Processing.c ****     }
1385:Generated_Source\PSoC4/CapSense_Processing.c **** 
1386:Generated_Source\PSoC4/CapSense_Processing.c ****     /* If widget is active, check whether debounce is needed */
1387:Generated_Source\PSoC4/CapSense_Processing.c ****     if (0Lu != newStatus)
 619              		.loc 1 1387 0 is_stmt 1
 620 0048 002C     		cmp	r4, #0
ARM GAS  C:\Users\TB1014~1\AppData\Local\Temp\ccTzyt2s.s 			page 37


 621 004a 0BD0     		beq	.L46
1388:Generated_Source\PSoC4/CapSense_Processing.c ****     {
1389:Generated_Source\PSoC4/CapSense_Processing.c ****         if (0u < (*ptrDebounceCnt))
 622              		.loc 1 1389 0
 623 004c 4346     		mov	r3, r8
 624 004e 1B78     		ldrb	r3, [r3]
 625 0050 002B     		cmp	r3, #0
 626 0052 02D0     		beq	.L47
1390:Generated_Source\PSoC4/CapSense_Processing.c ****         {
1391:Generated_Source\PSoC4/CapSense_Processing.c ****             /* Decrement debounce counter */
1392:Generated_Source\PSoC4/CapSense_Processing.c ****             (*ptrDebounceCnt)--;
 627              		.loc 1 1392 0
 628 0054 013B     		sub	r3, r3, #1
 629 0056 4246     		mov	r2, r8
 630              	.LVL105:
 631 0058 1370     		strb	r3, [r2]
 632              	.L47:
1393:Generated_Source\PSoC4/CapSense_Processing.c ****         }
1394:Generated_Source\PSoC4/CapSense_Processing.c **** 
1395:Generated_Source\PSoC4/CapSense_Processing.c ****         if (0u == (*ptrDebounceCnt))
 633              		.loc 1 1395 0
 634 005a 4346     		mov	r3, r8
 635 005c 1B78     		ldrb	r3, [r3]
 636 005e 002B     		cmp	r3, #0
 637 0060 04D1     		bne	.L55
 638 0062 04E0     		b	.L48
 639              	.LVL106:
 640              	.L46:
1396:Generated_Source\PSoC4/CapSense_Processing.c ****         {
1397:Generated_Source\PSoC4/CapSense_Processing.c ****             /* Update slider sensor state when debounce completes */
1398:Generated_Source\PSoC4/CapSense_Processing.c ****             currStatus = newStatus;
1399:Generated_Source\PSoC4/CapSense_Processing.c ****         }
1400:Generated_Source\PSoC4/CapSense_Processing.c ****     }
1401:Generated_Source\PSoC4/CapSense_Processing.c ****     else
1402:Generated_Source\PSoC4/CapSense_Processing.c ****     {
1403:Generated_Source\PSoC4/CapSense_Processing.c ****         /* Reset debounce counter */
1404:Generated_Source\PSoC4/CapSense_Processing.c ****         *ptrDebounceCnt = ptrRamWdgt->onDebounce;
 641              		.loc 1 1404 0
 642 0064 EB79     		ldrb	r3, [r5, #7]
 643 0066 4246     		mov	r2, r8
 644              	.LVL107:
 645 0068 1370     		strb	r3, [r2]
 646              	.LVL108:
 647 006a 00E0     		b	.L48
 648              	.LVL109:
 649              	.L55:
 650 006c 6446     		mov	r4, ip
 651              	.LVL110:
 652              	.L48:
1405:Generated_Source\PSoC4/CapSense_Processing.c **** 
1406:Generated_Source\PSoC4/CapSense_Processing.c ****         /* Clear slider sensor state */
1407:Generated_Source\PSoC4/CapSense_Processing.c ****         currStatus = 0Lu;
1408:Generated_Source\PSoC4/CapSense_Processing.c ****     }
1409:Generated_Source\PSoC4/CapSense_Processing.c **** 
1410:Generated_Source\PSoC4/CapSense_Processing.c ****     /* Centroid processing */
1411:Generated_Source\PSoC4/CapSense_Processing.c **** 
1412:Generated_Source\PSoC4/CapSense_Processing.c ****     /* If there are active sensors after debounce run the centroid algorithm */
ARM GAS  C:\Users\TB1014~1\AppData\Local\Temp\ccTzyt2s.s 			page 38


1413:Generated_Source\PSoC4/CapSense_Processing.c ****     if (0u != currStatus)
 653              		.loc 1 1413 0
 654 006e 002C     		cmp	r4, #0
 655 0070 23D0     		beq	.L56
 656 0072 0E1C     		mov	r6, r1
 657              	.LVL111:
1414:Generated_Source\PSoC4/CapSense_Processing.c ****     {
1415:Generated_Source\PSoC4/CapSense_Processing.c ****         /* Centroid always uses the lowest finger threshold (minus hysteresis)
1416:Generated_Source\PSoC4/CapSense_Processing.c ****          * to produce same results for first and all consecutive invocations */
1417:Generated_Source\PSoC4/CapSense_Processing.c ****         touchTh = (uint32)ptrRamWdgt->fingerTh - ptrRamWdgt->hysteresis;
 658              		.loc 1 1417 0
 659 0074 6B88     		ldrh	r3, [r5, #2]
 660 0076 AA79     		ldrb	r2, [r5, #6]
 661 0078 9A1A     		sub	r2, r3, r2
 662              	.LVL112:
1418:Generated_Source\PSoC4/CapSense_Processing.c ****         snsCnt = ptrFlashWdgt->totalNumSns;
 663              		.loc 1 1418 0
 664 007a CF8A     		ldrh	r7, [r1, #22]
 665              	.LVL113:
1419:Generated_Source\PSoC4/CapSense_Processing.c **** 
1420:Generated_Source\PSoC4/CapSense_Processing.c ****         #if (0u != CapSense_TOTAL_DIPLEXED_SLIDERS)
1421:Generated_Source\PSoC4/CapSense_Processing.c ****             if ((0u != (ptrFlashWdgt->staticConfig & CapSense_DIPLEXING_MASK)))
1422:Generated_Source\PSoC4/CapSense_Processing.c ****             {
1423:Generated_Source\PSoC4/CapSense_Processing.c ****                 /* Run local maximum search for duplexed slider */
1424:Generated_Source\PSoC4/CapSense_Processing.c ****                 touchCnt = CapSense_DpFindLocalMaxDiplex(
1425:Generated_Source\PSoC4/CapSense_Processing.c ****                                 ptrFlashWdgt->ptr2SnsRam, snsCnt, ptrFlashWdgt->ptr2DiplexTable, to
1426:Generated_Source\PSoC4/CapSense_Processing.c **** 
1427:Generated_Source\PSoC4/CapSense_Processing.c ****                 /* Centroid calculation API requires double sensor count for the diplexed sliders. 
1428:Generated_Source\PSoC4/CapSense_Processing.c ****                 snsCnt *= 2u;
1429:Generated_Source\PSoC4/CapSense_Processing.c ****             }
1430:Generated_Source\PSoC4/CapSense_Processing.c ****             else
1431:Generated_Source\PSoC4/CapSense_Processing.c ****             {
1432:Generated_Source\PSoC4/CapSense_Processing.c ****                 /* Run local maximum search for NON-duplexed slider */
1433:Generated_Source\PSoC4/CapSense_Processing.c ****                 touchCnt = CapSense_DpFindLocalMaxSd(ptrFlashWdgt->ptr2SnsRam, snsCnt, touchTh);
1434:Generated_Source\PSoC4/CapSense_Processing.c ****             }
1435:Generated_Source\PSoC4/CapSense_Processing.c ****         #else
1436:Generated_Source\PSoC4/CapSense_Processing.c ****             /* Run local maximum search for NON-duplexed slider */
1437:Generated_Source\PSoC4/CapSense_Processing.c ****             touchCnt = CapSense_DpFindLocalMaxSd(ptrFlashWdgt->ptr2SnsRam, snsCnt, touchTh);
 666              		.loc 1 1437 0
 667 007c 8868     		ldr	r0, [r1, #8]
 668 007e 391C     		mov	r1, r7
 669              	.LVL114:
 670 0080 FFF7FEFF 		bl	CapSense_DpFindLocalMaxSd
 671              	.LVL115:
1438:Generated_Source\PSoC4/CapSense_Processing.c ****         #endif /* #if (0u != CapSense_TOTAL_DIPLEXED_SLIDERS) */
1439:Generated_Source\PSoC4/CapSense_Processing.c ****         
1440:Generated_Source\PSoC4/CapSense_Processing.c ****         /* If at least one touch is detected */
1441:Generated_Source\PSoC4/CapSense_Processing.c ****         if (0u != touchCnt)
 672              		.loc 1 1441 0
 673 0084 0028     		cmp	r0, #0
 674 0086 22D0     		beq	.L52
1442:Generated_Source\PSoC4/CapSense_Processing.c ****         {
1443:Generated_Source\PSoC4/CapSense_Processing.c ****             /* Determine slider type and calculate new position(s) */
1444:Generated_Source\PSoC4/CapSense_Processing.c ****             #if (0u != CapSense_TOTAL_LINEAR_SLIDERS)
1445:Generated_Source\PSoC4/CapSense_Processing.c ****                 if ((CapSense_WD_TYPE_ENUM)ptrFlashWdgt->wdgtType == CapSense_WD_LINEAR_SLIDER_E)
 675              		.loc 1 1445 0
 676 0088 337E     		ldrb	r3, [r6, #24]
ARM GAS  C:\Users\TB1014~1\AppData\Local\Temp\ccTzyt2s.s 			page 39


 677 008a 022B     		cmp	r3, #2
 678 008c 1FD1     		bne	.L52
1446:Generated_Source\PSoC4/CapSense_Processing.c ****                 {
1447:Generated_Source\PSoC4/CapSense_Processing.c ****                     touchCnt = CapSense_DpCalcLinearCentroid(
 679              		.loc 1 1447 0
 680 008e F169     		ldr	r1, [r6, #28]
 681 0090 01A8     		add	r0, sp, #4
 682              	.LVL116:
 683 0092 3A1C     		mov	r2, r7
 684 0094 FFF7FEFF 		bl	CapSense_DpCalcLinearCentroid
 685              	.LVL117:
 686              	.LBB8:
 687              	.LBB9:
1448:Generated_Source\PSoC4/CapSense_Processing.c ****                                     newPos, (uint32)ptrFlashWdgt->xCentroidMultiplier, snsCnt);
1449:Generated_Source\PSoC4/CapSense_Processing.c **** 
1450:Generated_Source\PSoC4/CapSense_Processing.c ****                     DpUpdateLinSlider(newPos, touchCnt, ptrFlashWdgt, ptrRamWdgt);
1451:Generated_Source\PSoC4/CapSense_Processing.c ****                 }
1452:Generated_Source\PSoC4/CapSense_Processing.c ****             #endif /* #if (0u != CapSense_TOTAL_LINEAR_SLIDERS) */
1453:Generated_Source\PSoC4/CapSense_Processing.c **** 
1454:Generated_Source\PSoC4/CapSense_Processing.c ****             #if (0u != CapSense_TOTAL_RADIAL_SLIDERS)
1455:Generated_Source\PSoC4/CapSense_Processing.c ****                 if ((CapSense_WD_TYPE_ENUM)ptrFlashWdgt->wdgtType == CapSense_WD_RADIAL_SLIDER_E)
1456:Generated_Source\PSoC4/CapSense_Processing.c ****                 {
1457:Generated_Source\PSoC4/CapSense_Processing.c ****                     touchCnt = CapSense_DpCalcRadialCentroid(
1458:Generated_Source\PSoC4/CapSense_Processing.c ****                                     newPos, (uint32)ptrFlashWdgt->xCentroidMultiplier, snsCnt);
1459:Generated_Source\PSoC4/CapSense_Processing.c **** 
1460:Generated_Source\PSoC4/CapSense_Processing.c ****                     DpUpdateRadSlider(newPos, touchCnt, ptrFlashWdgt, ptrRamWdgt);
1461:Generated_Source\PSoC4/CapSense_Processing.c ****                 }
1462:Generated_Source\PSoC4/CapSense_Processing.c ****             #endif /* #if (0u != CapSense_TOTAL_RADIAL_SLIDERS) */
1463:Generated_Source\PSoC4/CapSense_Processing.c ****         }
1464:Generated_Source\PSoC4/CapSense_Processing.c ****     }
1465:Generated_Source\PSoC4/CapSense_Processing.c ****     
1466:Generated_Source\PSoC4/CapSense_Processing.c ****     /* Clear not active position data slots */
1467:Generated_Source\PSoC4/CapSense_Processing.c ****     for (touchIdx = touchCnt; touchIdx < CapSense_NUM_CENTROIDS; touchIdx++)
1468:Generated_Source\PSoC4/CapSense_Processing.c ****     {
1469:Generated_Source\PSoC4/CapSense_Processing.c ****         ptrRamWdgt->position[touchIdx] = CapSense_SLIDER_POS_NONE;
1470:Generated_Source\PSoC4/CapSense_Processing.c **** 
1471:Generated_Source\PSoC4/CapSense_Processing.c ****         #if (0u != CapSense_POS_MEDIAN_FILTER_EN)
1472:Generated_Source\PSoC4/CapSense_Processing.c ****             if (NULL != ptrHistory)
1473:Generated_Source\PSoC4/CapSense_Processing.c ****             {
1474:Generated_Source\PSoC4/CapSense_Processing.c ****                 ptrHistory[touchIdx].posMedianZ1 = CapSense_SLIDER_POS_NONE;
1475:Generated_Source\PSoC4/CapSense_Processing.c ****                 ptrHistory[touchIdx].posMedianZ2 = CapSense_SLIDER_POS_NONE;
1476:Generated_Source\PSoC4/CapSense_Processing.c ****             }
1477:Generated_Source\PSoC4/CapSense_Processing.c ****         #endif /* #if (0u != CapSense_POS_MEDIAN_FILTER_EN) */
1478:Generated_Source\PSoC4/CapSense_Processing.c ****     }
1479:Generated_Source\PSoC4/CapSense_Processing.c **** 
1480:Generated_Source\PSoC4/CapSense_Processing.c ****     return currStatus;
1481:Generated_Source\PSoC4/CapSense_Processing.c **** }
1482:Generated_Source\PSoC4/CapSense_Processing.c **** #endif /* #if (0u != CapSense_SLIDER_WIDGET_EN) */
1483:Generated_Source\PSoC4/CapSense_Processing.c **** 
1484:Generated_Source\PSoC4/CapSense_Processing.c **** #if (0u != CapSense_TOTAL_LINEAR_SLIDERS)
1485:Generated_Source\PSoC4/CapSense_Processing.c **** /*******************************************************************************
1486:Generated_Source\PSoC4/CapSense_Processing.c **** * Function Name: DpUpdateLinSlider
1487:Generated_Source\PSoC4/CapSense_Processing.c **** ****************************************************************************//**
1488:Generated_Source\PSoC4/CapSense_Processing.c **** *
1489:Generated_Source\PSoC4/CapSense_Processing.c **** * \brief
1490:Generated_Source\PSoC4/CapSense_Processing.c **** *   Updates the touch status of the Linear Slider widget.
1491:Generated_Source\PSoC4/CapSense_Processing.c **** *
ARM GAS  C:\Users\TB1014~1\AppData\Local\Temp\ccTzyt2s.s 			page 40


1492:Generated_Source\PSoC4/CapSense_Processing.c **** * \details
1493:Generated_Source\PSoC4/CapSense_Processing.c **** *   This function updates the position data of the Linear Slider
1494:Generated_Source\PSoC4/CapSense_Processing.c **** *   in the Data Structure. Also, this function runs position filters for the
1495:Generated_Source\PSoC4/CapSense_Processing.c **** *   position data if any enabled.
1496:Generated_Source\PSoC4/CapSense_Processing.c **** *
1497:Generated_Source\PSoC4/CapSense_Processing.c **** * \param newPos       The pointer to the array with the new finger position coordinates.
1498:Generated_Source\PSoC4/CapSense_Processing.c **** * \param numTouches   The number of the coordinates in the newPos array.
1499:Generated_Source\PSoC4/CapSense_Processing.c **** * \param ptrFlashWdgt The pointer to the Flash Widget Object.
1500:Generated_Source\PSoC4/CapSense_Processing.c **** * \param ptrRamWdgt   The pointer to the RAM Widget Object.
1501:Generated_Source\PSoC4/CapSense_Processing.c **** *
1502:Generated_Source\PSoC4/CapSense_Processing.c **** *******************************************************************************/
1503:Generated_Source\PSoC4/CapSense_Processing.c **** static CY_INLINE void DpUpdateLinSlider(
1504:Generated_Source\PSoC4/CapSense_Processing.c ****                         const uint16 newPos[],
1505:Generated_Source\PSoC4/CapSense_Processing.c ****                         uint32 numTouches,
1506:Generated_Source\PSoC4/CapSense_Processing.c ****                         CapSense_FLASH_WD_STRUCT const *ptrFlashWdgt,
1507:Generated_Source\PSoC4/CapSense_Processing.c ****                         CapSense_RAM_WD_SLIDER_STRUCT *ptrRamWdgt)
1508:Generated_Source\PSoC4/CapSense_Processing.c **** {
1509:Generated_Source\PSoC4/CapSense_Processing.c ****     uint32 touchIdx;
1510:Generated_Source\PSoC4/CapSense_Processing.c **** 
1511:Generated_Source\PSoC4/CapSense_Processing.c ****     #if (0u == DP_LINEAR_SLIDER_FILTER_EN)
1512:Generated_Source\PSoC4/CapSense_Processing.c ****         /* This parameter is unused in such configurations */
1513:Generated_Source\PSoC4/CapSense_Processing.c ****         (void)ptrFlashWdgt;
1514:Generated_Source\PSoC4/CapSense_Processing.c ****     #else
1515:Generated_Source\PSoC4/CapSense_Processing.c ****         /* Get bitmask with the enabled filters */
1516:Generated_Source\PSoC4/CapSense_Processing.c ****         uint32 filterConfig = (uint32)ptrFlashWdgt->staticConfig;
1517:Generated_Source\PSoC4/CapSense_Processing.c ****         
1518:Generated_Source\PSoC4/CapSense_Processing.c ****         #if (0u != CapSense_POS_MEDIAN_FILTER_EN)
1519:Generated_Source\PSoC4/CapSense_Processing.c ****             /* Get median filter history */
1520:Generated_Source\PSoC4/CapSense_Processing.c ****             CapSense_SLIDER_POS_HISTORY_STRUCT *ptrHistory = ptrFlashWdgt->ptr2PosHistory;
1521:Generated_Source\PSoC4/CapSense_Processing.c ****         #endif /* #if (0u != CapSense_POS_MEDIAN_FILTER_EN) */
1522:Generated_Source\PSoC4/CapSense_Processing.c ****     #endif /* #if (0u == DP_LINEAR_SLIDER_FILTER_EN) */
1523:Generated_Source\PSoC4/CapSense_Processing.c ****     
1524:Generated_Source\PSoC4/CapSense_Processing.c ****     /* Run Filter and update the position registers with the filtered data */
1525:Generated_Source\PSoC4/CapSense_Processing.c ****     for (touchIdx = 0u; touchIdx < numTouches; touchIdx++)
 688              		.loc 1 1525 0
 689 0098 0022     		mov	r2, #0
 690 009a 0BE0     		b	.L50
 691              	.LVL118:
 692              	.L51:
1526:Generated_Source\PSoC4/CapSense_Processing.c ****     {
1527:Generated_Source\PSoC4/CapSense_Processing.c ****         #if (0u == DP_LINEAR_SLIDER_FILTER_EN)
1528:Generated_Source\PSoC4/CapSense_Processing.c ****             /* If filters are not enabled just copy the position data */
1529:Generated_Source\PSoC4/CapSense_Processing.c ****             ptrRamWdgt->position[touchIdx] = newPos[touchIdx];
 693              		.loc 1 1529 0
 694 009c 5300     		lsl	r3, r2, #1
 695 009e 02A9     		add	r1, sp, #8
 696 00a0 8C46     		mov	ip, r1
 697 00a2 6344     		add	r3, r3, ip
 698 00a4 043B     		sub	r3, r3, #4
 699 00a6 1988     		ldrh	r1, [r3]
 700 00a8 131C     		mov	r3, r2
 701 00aa 0833     		add	r3, r3, #8
 702 00ac 5B00     		lsl	r3, r3, #1
 703 00ae EB18     		add	r3, r5, r3
 704 00b0 5980     		strh	r1, [r3, #2]
1525:Generated_Source\PSoC4/CapSense_Processing.c ****     {
 705              		.loc 1 1525 0
ARM GAS  C:\Users\TB1014~1\AppData\Local\Temp\ccTzyt2s.s 			page 41


 706 00b2 0132     		add	r2, r2, #1
 707              	.LVL119:
 708              	.L50:
 709 00b4 9042     		cmp	r0, r2
 710 00b6 F1D8     		bhi	.L51
 711 00b8 09E0     		b	.L52
 712              	.LVL120:
 713              	.L56:
 714              	.LBE9:
 715              	.LBE8:
1358:Generated_Source\PSoC4/CapSense_Processing.c ****     uint16 newPos[CapSense_NUM_CENTROIDS];
 716              		.loc 1 1358 0
 717 00ba 0020     		mov	r0, #0
 718              	.LVL121:
1467:Generated_Source\PSoC4/CapSense_Processing.c ****     {
 719              		.loc 1 1467 0
 720 00bc 07E0     		b	.L52
 721              	.LVL122:
 722              	.L53:
1469:Generated_Source\PSoC4/CapSense_Processing.c **** 
 723              		.loc 1 1469 0 discriminator 3
 724 00be 031C     		mov	r3, r0
 725 00c0 0833     		add	r3, r3, #8
 726 00c2 5B00     		lsl	r3, r3, #1
 727 00c4 EB18     		add	r3, r5, r3
 728 00c6 0122     		mov	r2, #1
 729 00c8 5242     		neg	r2, r2
 730 00ca 5A80     		strh	r2, [r3, #2]
1467:Generated_Source\PSoC4/CapSense_Processing.c ****     {
 731              		.loc 1 1467 0 discriminator 3
 732 00cc 0130     		add	r0, r0, #1
 733              	.LVL123:
 734              	.L52:
1467:Generated_Source\PSoC4/CapSense_Processing.c ****     {
 735              		.loc 1 1467 0 is_stmt 0 discriminator 1
 736 00ce 0028     		cmp	r0, #0
 737 00d0 F5D0     		beq	.L53
1481:Generated_Source\PSoC4/CapSense_Processing.c **** #endif /* #if (0u != CapSense_SLIDER_WIDGET_EN) */
 738              		.loc 1 1481 0 is_stmt 1
 739 00d2 201C     		mov	r0, r4
 740              	.LVL124:
 741 00d4 02B0     		add	sp, sp, #8
 742              		@ sp needed
 743              	.LVL125:
 744              	.LVL126:
 745              	.LVL127:
 746              	.LVL128:
 747 00d6 04BC     		pop	{r2}
 748 00d8 9046     		mov	r8, r2
 749 00da F0BD     		pop	{r4, r5, r6, r7, pc}
 750              		.cfi_endproc
 751              	.LFE8:
 752              		.size	CapSense_DpProcessSlider, .-CapSense_DpProcessSlider
 753              		.section	.text.CapSense_DpProcessCsdWidgetStatus,"ax",%progbits
 754              		.align	2
 755              		.global	CapSense_DpProcessCsdWidgetStatus
 756              		.code	16
ARM GAS  C:\Users\TB1014~1\AppData\Local\Temp\ccTzyt2s.s 			page 42


 757              		.thumb_func
 758              		.type	CapSense_DpProcessCsdWidgetStatus, %function
 759              	CapSense_DpProcessCsdWidgetStatus:
 760              	.LFB5:
 936:Generated_Source\PSoC4/CapSense_Processing.c ****     uint32 sensorStatus;
 761              		.loc 1 936 0
 762              		.cfi_startproc
 763              	.LVL129:
 764 0000 38B5     		push	{r3, r4, r5, lr}
 765              		.cfi_def_cfa_offset 16
 766              		.cfi_offset 3, -16
 767              		.cfi_offset 4, -12
 768              		.cfi_offset 5, -8
 769              		.cfi_offset 14, -4
 770 0002 041C     		mov	r4, r0
 942:Generated_Source\PSoC4/CapSense_Processing.c ****     sensorStatus = CapSense_dsRam.snsStatus[wdgtId];
 771              		.loc 1 942 0
 772 0004 0A7E     		ldrb	r2, [r1, #24]
 773              	.LVL130:
 943:Generated_Source\PSoC4/CapSense_Processing.c **** 
 774              		.loc 1 943 0
 775 0006 184B     		ldr	r3, .L65
 776 0008 1B18     		add	r3, r3, r0
 777 000a 1D7D     		ldrb	r5, [r3, #20]
 778              	.LVL131:
 945:Generated_Source\PSoC4/CapSense_Processing.c ****     {
 779              		.loc 1 945 0
 780 000c 012A     		cmp	r2, #1
 781 000e 04D0     		beq	.L59
 782 0010 002A     		cmp	r2, #0
 783 0012 0CD0     		beq	.L58
 784 0014 032A     		cmp	r2, #3
 785 0016 05D9     		bls	.L64
 786 0018 09E0     		b	.L58
 787              	.L59:
 949:Generated_Source\PSoC4/CapSense_Processing.c ****             break;
 788              		.loc 1 949 0
 789 001a 281C     		mov	r0, r5
 790              	.LVL132:
 791 001c FFF7FEFF 		bl	CapSense_DpProcessButton
 792              	.LVL133:
 793 0020 051C     		mov	r5, r0
 794              	.LVL134:
 950:Generated_Source\PSoC4/CapSense_Processing.c ****     #endif /* #if (0u != CapSense_BUTTON_WIDGET_EN) */
 795              		.loc 1 950 0
 796 0022 07E0     		b	.L61
 797              	.LVL135:
 798              	.L64:
 956:Generated_Source\PSoC4/CapSense_Processing.c ****             break;
 799              		.loc 1 956 0
 800 0024 281C     		mov	r0, r5
 801              	.LVL136:
 802 0026 FFF7FEFF 		bl	CapSense_DpProcessSlider
 803              	.LVL137:
 804 002a 051C     		mov	r5, r0
 805              	.LVL138:
 957:Generated_Source\PSoC4/CapSense_Processing.c ****     #endif /* #if (0u != CapSense_SLIDER_WIDGET_EN) */
ARM GAS  C:\Users\TB1014~1\AppData\Local\Temp\ccTzyt2s.s 			page 43


 806              		.loc 1 957 0
 807 002c 02E0     		b	.L61
 808              	.LVL139:
 809              	.L58:
 979:Generated_Source\PSoC4/CapSense_Processing.c ****         break;
 810              		.loc 1 979 0 discriminator 1
 811 002e 0020     		mov	r0, #0
 812              	.LVL140:
 813 0030 FFF7FEFF 		bl	CyHalt
 814              	.LVL141:
 815              	.L61:
 983:Generated_Source\PSoC4/CapSense_Processing.c **** 
 816              		.loc 1 983 0
 817 0034 0C4B     		ldr	r3, .L65
 818 0036 1B19     		add	r3, r3, r4
 819 0038 1D75     		strb	r5, [r3, #20]
 986:Generated_Source\PSoC4/CapSense_Processing.c ****     wdStatusMask = CapSense_GET_WDGT_STATUS_MASK(wdgtId);
 820              		.loc 1 986 0
 821 003a 6309     		lsr	r3, r4, #5
 822              	.LVL142:
 987:Generated_Source\PSoC4/CapSense_Processing.c **** 
 823              		.loc 1 987 0
 824 003c 1F22     		mov	r2, #31
 825 003e 1440     		and	r4, r2
 826              	.LVL143:
 827 0040 1E3A     		sub	r2, r2, #30
 828 0042 A240     		lsl	r2, r2, r4
 829 0044 141C     		mov	r4, r2
 830              	.LVL144:
 990:Generated_Source\PSoC4/CapSense_Processing.c ****     {
 831              		.loc 1 990 0
 832 0046 002D     		cmp	r5, #0
 833 0048 06D1     		bne	.L62
 992:Generated_Source\PSoC4/CapSense_Processing.c ****     }
 834              		.loc 1 992 0
 835 004a 0749     		ldr	r1, .L65
 836 004c 0433     		add	r3, r3, #4
 837              	.LVL145:
 838 004e 9B00     		lsl	r3, r3, #2
 839              	.LVL146:
 840 0050 5A58     		ldr	r2, [r3, r1]
 841              	.LVL147:
 842 0052 A243     		bic	r2, r4
 843 0054 5A50     		str	r2, [r3, r1]
 844 0056 05E0     		b	.L57
 845              	.LVL148:
 846              	.L62:
 996:Generated_Source\PSoC4/CapSense_Processing.c ****     }
 847              		.loc 1 996 0
 848 0058 034A     		ldr	r2, .L65
 849              	.LVL149:
 850 005a 0433     		add	r3, r3, #4
 851              	.LVL150:
 852 005c 9B00     		lsl	r3, r3, #2
 853              	.LVL151:
 854 005e 9958     		ldr	r1, [r3, r2]
 855 0060 0C43     		orr	r4, r1
ARM GAS  C:\Users\TB1014~1\AppData\Local\Temp\ccTzyt2s.s 			page 44


 856              	.LVL152:
 857 0062 9C50     		str	r4, [r3, r2]
 858              	.L57:
 998:Generated_Source\PSoC4/CapSense_Processing.c **** #endif /* #if (0u != CapSense_TOTAL_CSD_WIDGETS) */
 859              		.loc 1 998 0
 860              		@ sp needed
 861              	.LVL153:
 862 0064 38BD     		pop	{r3, r4, r5, pc}
 863              	.L66:
 864 0066 C046     		.align	2
 865              	.L65:
 866 0068 00000000 		.word	CapSense_dsRam
 867              		.cfi_endproc
 868              	.LFE5:
 869              		.size	CapSense_DpProcessCsdWidgetStatus, .-CapSense_DpProcessCsdWidgetStatus
 870              		.text
 871              	.Letext0:
 872              		.file 2 "Generated_Source\\PSoC4\\cytypes.h"
 873              		.file 3 "Generated_Source\\PSoC4\\CapSense_Configuration.h"
 874              		.file 4 "Generated_Source\\PSoC4\\CapSense_Structure.h"
 875              		.file 5 "c:\\program files (x86)\\cypress\\psoc creator\\4.0\\psoc creator\\import\\gnu\\arm\\4.9.
 876              		.file 6 "c:\\program files (x86)\\cypress\\psoc creator\\4.0\\psoc creator\\import\\gnu\\arm\\4.9.
 877              		.file 7 "Generated_Source\\PSoC4\\CapSense_Filter.h"
 878              		.file 8 "Generated_Source\\PSoC4\\CapSense_Centroid_LL.h"
 879              		.file 9 "Generated_Source\\PSoC4\\CyLib.h"