ARM GAS  C:\Users\TB1014~1\AppData\Local\Temp\ccn3i5XH.s 			page 1


   1              		.cpu cortex-m0plus
   2              		.fpu softvfp
   3              		.eabi_attribute 20, 1
   4              		.eabi_attribute 21, 1
   5              		.eabi_attribute 23, 3
   6              		.eabi_attribute 24, 1
   7              		.eabi_attribute 25, 1
   8              		.eabi_attribute 26, 1
   9              		.eabi_attribute 30, 1
  10              		.eabi_attribute 34, 0
  11              		.eabi_attribute 18, 4
  12              		.code	16
  13              		.file	"CapSense_Structure.c"
  14              		.text
  15              	.Ltext0:
  16              		.cfi_sections	.debug_frame
  17              		.section	.text.DsParseParamId,"ax",%progbits
  18              		.align	2
  19              		.code	16
  20              		.thumb_func
  21              		.type	DsParseParamId, %function
  22              	DsParseParamId:
  23              	.LFB2:
  24              		.file 1 "Generated_Source\\PSoC4\\CapSense_Structure.c"
   1:Generated_Source\PSoC4/CapSense_Structure.c **** /***************************************************************************//**
   2:Generated_Source\PSoC4/CapSense_Structure.c **** * \file CapSense_Structure.c
   3:Generated_Source\PSoC4/CapSense_Structure.c **** * \version 3.10
   4:Generated_Source\PSoC4/CapSense_Structure.c **** *
   5:Generated_Source\PSoC4/CapSense_Structure.c **** * \brief
   6:Generated_Source\PSoC4/CapSense_Structure.c **** *   This file defines the data structure global variables and provides implementation
   7:Generated_Source\PSoC4/CapSense_Structure.c **** *   for the high-level and low-level APIs of the Data Structure module.
   8:Generated_Source\PSoC4/CapSense_Structure.c **** *
   9:Generated_Source\PSoC4/CapSense_Structure.c **** * \see CapSense P4 v3.10 Datasheet
  10:Generated_Source\PSoC4/CapSense_Structure.c **** *
  11:Generated_Source\PSoC4/CapSense_Structure.c **** *//*****************************************************************************
  12:Generated_Source\PSoC4/CapSense_Structure.c **** * Copyright (2016), Cypress Semiconductor Corporation.
  13:Generated_Source\PSoC4/CapSense_Structure.c **** ********************************************************************************
  14:Generated_Source\PSoC4/CapSense_Structure.c **** * This software is owned by Cypress Semiconductor Corporation (Cypress) and is
  15:Generated_Source\PSoC4/CapSense_Structure.c **** * protected by and subject to worldwide patent protection (United States and
  16:Generated_Source\PSoC4/CapSense_Structure.c **** * foreign), United States copyright laws and international treaty provisions.
  17:Generated_Source\PSoC4/CapSense_Structure.c **** * Cypress hereby grants to licensee a personal, non-exclusive, non-transferable
  18:Generated_Source\PSoC4/CapSense_Structure.c **** * license to copy, use, modify, create derivative works of, and compile the
  19:Generated_Source\PSoC4/CapSense_Structure.c **** * Cypress Source Code and derivative works for the sole purpose of creating
  20:Generated_Source\PSoC4/CapSense_Structure.c **** * custom software in support of licensee product to be used only in conjunction
  21:Generated_Source\PSoC4/CapSense_Structure.c **** * with a Cypress integrated circuit as specified in the applicable agreement.
  22:Generated_Source\PSoC4/CapSense_Structure.c **** * Any reproduction, modification, translation, compilation, or representation of
  23:Generated_Source\PSoC4/CapSense_Structure.c **** * this software except as specified above is prohibited without the express
  24:Generated_Source\PSoC4/CapSense_Structure.c **** * written permission of Cypress.
  25:Generated_Source\PSoC4/CapSense_Structure.c **** *
  26:Generated_Source\PSoC4/CapSense_Structure.c **** * Disclaimer: CYPRESS MAKES NO WARRANTY OF ANY KIND, EXPRESS OR IMPLIED, WITH
  27:Generated_Source\PSoC4/CapSense_Structure.c **** * REGARD TO THIS MATERIAL, INCLUDING, BUT NOT LIMITED TO, THE IMPLIED
  28:Generated_Source\PSoC4/CapSense_Structure.c **** * WARRANTIES OF MERCHANTABILITY AND FITNESS FOR A PARTICULAR PURPOSE.
  29:Generated_Source\PSoC4/CapSense_Structure.c **** * Cypress reserves the right to make changes without further notice to the
  30:Generated_Source\PSoC4/CapSense_Structure.c **** * materials described herein. Cypress does not assume any liability arising out
  31:Generated_Source\PSoC4/CapSense_Structure.c **** * of the application or use of any product or circuit described herein. Cypress
  32:Generated_Source\PSoC4/CapSense_Structure.c **** * does not authorize its products for use as critical components in life-support
  33:Generated_Source\PSoC4/CapSense_Structure.c **** * systems where a malfunction or failure may reasonably be expected to result in
ARM GAS  C:\Users\TB1014~1\AppData\Local\Temp\ccn3i5XH.s 			page 2


  34:Generated_Source\PSoC4/CapSense_Structure.c **** * significant injury to the user. The inclusion of Cypress' product in a life-
  35:Generated_Source\PSoC4/CapSense_Structure.c **** * support systems application implies that the manufacturer assumes all risk of
  36:Generated_Source\PSoC4/CapSense_Structure.c **** * such use and in doing so indemnifies Cypress against all charges. Use may be
  37:Generated_Source\PSoC4/CapSense_Structure.c **** * limited by and subject to the applicable Cypress software license agreement.
  38:Generated_Source\PSoC4/CapSense_Structure.c **** *******************************************************************************/
  39:Generated_Source\PSoC4/CapSense_Structure.c **** 
  40:Generated_Source\PSoC4/CapSense_Structure.c **** #include <cytypes.h>
  41:Generated_Source\PSoC4/CapSense_Structure.c **** #include "CyLib.h"
  42:Generated_Source\PSoC4/CapSense_Structure.c **** #include "CapSense_Structure.h"
  43:Generated_Source\PSoC4/CapSense_Structure.c **** #include "CapSense_Configuration.h"
  44:Generated_Source\PSoC4/CapSense_Structure.c **** 
  45:Generated_Source\PSoC4/CapSense_Structure.c **** #if (0u != CapSense_ADC_EN)
  46:Generated_Source\PSoC4/CapSense_Structure.c ****     #include "CapSense_Adc.h"
  47:Generated_Source\PSoC4/CapSense_Structure.c **** #endif /* (0u != CapSense_ADC_EN) */
  48:Generated_Source\PSoC4/CapSense_Structure.c **** 
  49:Generated_Source\PSoC4/CapSense_Structure.c **** #if (CapSense_ENABLE == CapSense_SELF_TEST_EN)
  50:Generated_Source\PSoC4/CapSense_Structure.c ****     #include "CapSense_SelfTest.h"
  51:Generated_Source\PSoC4/CapSense_Structure.c **** #endif
  52:Generated_Source\PSoC4/CapSense_Structure.c **** 
  53:Generated_Source\PSoC4/CapSense_Structure.c **** /*******************************************************************************
  54:Generated_Source\PSoC4/CapSense_Structure.c **** * Define the RAM Data Structure variables and their init data in flash
  55:Generated_Source\PSoC4/CapSense_Structure.c **** *******************************************************************************/
  56:Generated_Source\PSoC4/CapSense_Structure.c **** /**
  57:Generated_Source\PSoC4/CapSense_Structure.c **** * \if SECTION_GLOBAL_VARIABLES
  58:Generated_Source\PSoC4/CapSense_Structure.c **** * \addtogroup group_global_variables
  59:Generated_Source\PSoC4/CapSense_Structure.c **** * \{
  60:Generated_Source\PSoC4/CapSense_Structure.c **** */
  61:Generated_Source\PSoC4/CapSense_Structure.c **** 
  62:Generated_Source\PSoC4/CapSense_Structure.c **** /**
  63:Generated_Source\PSoC4/CapSense_Structure.c **** * Variable that contains CapSense configuration, settings and scanning results.
  64:Generated_Source\PSoC4/CapSense_Structure.c **** * CapSense_dsRam represents RAM Data Structure.
  65:Generated_Source\PSoC4/CapSense_Structure.c **** */
  66:Generated_Source\PSoC4/CapSense_Structure.c **** CapSense_RAM_STRUCT CapSense_dsRam;
  67:Generated_Source\PSoC4/CapSense_Structure.c **** /** \}
  68:Generated_Source\PSoC4/CapSense_Structure.c **** * \endif */
  69:Generated_Source\PSoC4/CapSense_Structure.c **** 
  70:Generated_Source\PSoC4/CapSense_Structure.c **** /*******************************************************************************
  71:Generated_Source\PSoC4/CapSense_Structure.c **** * Declare Widget's De-bounce Counters
  72:Generated_Source\PSoC4/CapSense_Structure.c **** *******************************************************************************/
  73:Generated_Source\PSoC4/CapSense_Structure.c **** static uint8 CapSense_debounceLinearSlider0[1u];
  74:Generated_Source\PSoC4/CapSense_Structure.c **** static uint8 CapSense_debounceBUT0[CapSense_BUT0_NUM_SENSORS];
  75:Generated_Source\PSoC4/CapSense_Structure.c **** static uint8 CapSense_debounceBUT1[CapSense_BUT1_NUM_SENSORS];
  76:Generated_Source\PSoC4/CapSense_Structure.c **** static uint8 CapSense_debounceBUT3[CapSense_BUT3_NUM_SENSORS];
  77:Generated_Source\PSoC4/CapSense_Structure.c **** static uint8 CapSense_debounceBUT4[CapSense_BUT4_NUM_SENSORS];
  78:Generated_Source\PSoC4/CapSense_Structure.c **** static uint8 CapSense_debounceBUT5[CapSense_BUT5_NUM_SENSORS];
  79:Generated_Source\PSoC4/CapSense_Structure.c **** static uint8 CapSense_debounceBUT6[CapSense_BUT6_NUM_SENSORS];
  80:Generated_Source\PSoC4/CapSense_Structure.c **** static uint8 CapSense_debounceBUT8[CapSense_BUT8_NUM_SENSORS];
  81:Generated_Source\PSoC4/CapSense_Structure.c **** 
  82:Generated_Source\PSoC4/CapSense_Structure.c **** 
  83:Generated_Source\PSoC4/CapSense_Structure.c **** /***************************************************************************//**
  84:Generated_Source\PSoC4/CapSense_Structure.c **** * Declare Filter History Objects
  85:Generated_Source\PSoC4/CapSense_Structure.c **** *******************************************************************************/
  86:Generated_Source\PSoC4/CapSense_Structure.c **** static CapSense_REGULAR_FLTR_STRUCT CapSense_fltrHistoryLinearSlider0[CapSense_LINEARSLIDER0_NUM_SE
  87:Generated_Source\PSoC4/CapSense_Structure.c **** static CapSense_REGULAR_FLTR_STRUCT CapSense_fltrHistoryBUT0[CapSense_BUT0_NUM_SENSORS];
  88:Generated_Source\PSoC4/CapSense_Structure.c **** static CapSense_REGULAR_FLTR_STRUCT CapSense_fltrHistoryBUT1[CapSense_BUT1_NUM_SENSORS];
  89:Generated_Source\PSoC4/CapSense_Structure.c **** static CapSense_REGULAR_FLTR_STRUCT CapSense_fltrHistoryBUT3[CapSense_BUT3_NUM_SENSORS];
  90:Generated_Source\PSoC4/CapSense_Structure.c **** static CapSense_REGULAR_FLTR_STRUCT CapSense_fltrHistoryBUT4[CapSense_BUT4_NUM_SENSORS];
ARM GAS  C:\Users\TB1014~1\AppData\Local\Temp\ccn3i5XH.s 			page 3


  91:Generated_Source\PSoC4/CapSense_Structure.c **** static CapSense_REGULAR_FLTR_STRUCT CapSense_fltrHistoryBUT5[CapSense_BUT5_NUM_SENSORS];
  92:Generated_Source\PSoC4/CapSense_Structure.c **** static CapSense_REGULAR_FLTR_STRUCT CapSense_fltrHistoryBUT6[CapSense_BUT6_NUM_SENSORS];
  93:Generated_Source\PSoC4/CapSense_Structure.c **** static CapSense_REGULAR_FLTR_STRUCT CapSense_fltrHistoryBUT8[CapSense_BUT8_NUM_SENSORS];
  94:Generated_Source\PSoC4/CapSense_Structure.c **** 
  95:Generated_Source\PSoC4/CapSense_Structure.c **** /***************************************************************************//**
  96:Generated_Source\PSoC4/CapSense_Structure.c **** * Centroid positions history
  97:Generated_Source\PSoC4/CapSense_Structure.c **** *******************************************************************************/
  98:Generated_Source\PSoC4/CapSense_Structure.c **** static CapSense_SLIDER_POS_HISTORY_STRUCT CapSense_posHistoryLinearSlider0[CapSense_NUM_CENTROIDS];
  99:Generated_Source\PSoC4/CapSense_Structure.c **** 
 100:Generated_Source\PSoC4/CapSense_Structure.c **** /*******************************************************************************
 101:Generated_Source\PSoC4/CapSense_Structure.c **** * Define and initialize the Flash Data Structure
 102:Generated_Source\PSoC4/CapSense_Structure.c **** *******************************************************************************/
 103:Generated_Source\PSoC4/CapSense_Structure.c **** 
 104:Generated_Source\PSoC4/CapSense_Structure.c **** /**
 105:Generated_Source\PSoC4/CapSense_Structure.c **** * \if SECTION_API_CONSTANTS
 106:Generated_Source\PSoC4/CapSense_Structure.c **** * \addtogroup group_api_constants
 107:Generated_Source\PSoC4/CapSense_Structure.c **** * \{
 108:Generated_Source\PSoC4/CapSense_Structure.c **** */
 109:Generated_Source\PSoC4/CapSense_Structure.c **** 
 110:Generated_Source\PSoC4/CapSense_Structure.c **** /**
 111:Generated_Source\PSoC4/CapSense_Structure.c **** * Constant for the FLASH Data Structure
 112:Generated_Source\PSoC4/CapSense_Structure.c **** */
 113:Generated_Source\PSoC4/CapSense_Structure.c **** const CapSense_FLASH_STRUCT CapSense_dsFlash =
 114:Generated_Source\PSoC4/CapSense_Structure.c **** {
 115:Generated_Source\PSoC4/CapSense_Structure.c ****     /* Flash Widget Initialization Data */
 116:Generated_Source\PSoC4/CapSense_Structure.c ****     {
 117:Generated_Source\PSoC4/CapSense_Structure.c ****         { /* LinearSlider0 */
 118:Generated_Source\PSoC4/CapSense_Structure.c ****             &CapSense_ioList[0u],
 119:Generated_Source\PSoC4/CapSense_Structure.c ****             (void *)&CapSense_dsRam.wdgtList.linearslider0,
 120:Generated_Source\PSoC4/CapSense_Structure.c ****             CapSense_dsRam.snsList.linearslider0,
 121:Generated_Source\PSoC4/CapSense_Structure.c ****             (void *)CapSense_fltrHistoryLinearSlider0,
 122:Generated_Source\PSoC4/CapSense_Structure.c ****             CapSense_debounceLinearSlider0,
 123:Generated_Source\PSoC4/CapSense_Structure.c ****             CapSense_LINEARSLIDER0_STATIC_CONFIG,
 124:Generated_Source\PSoC4/CapSense_Structure.c ****             CapSense_LINEARSLIDER0_NUM_SENSORS,
 125:Generated_Source\PSoC4/CapSense_Structure.c ****             (uint8)CapSense_WD_LINEAR_SLIDER_E,
 126:Generated_Source\PSoC4/CapSense_Structure.c ****             CapSense_LINEARSLIDER0_NUM_SENSORS,
 127:Generated_Source\PSoC4/CapSense_Structure.c ****             CapSense_LINEARSLIDER0_X_RESOLUTION,
 128:Generated_Source\PSoC4/CapSense_Structure.c ****             CapSense_LINEARSLIDER0_X_CENT_MULT,
 129:Generated_Source\PSoC4/CapSense_Structure.c ****             (void *)&CapSense_posHistoryLinearSlider0,
 130:Generated_Source\PSoC4/CapSense_Structure.c ****         },
 131:Generated_Source\PSoC4/CapSense_Structure.c ****         { /* BUT0 */
 132:Generated_Source\PSoC4/CapSense_Structure.c ****             &CapSense_ioList[7u],
 133:Generated_Source\PSoC4/CapSense_Structure.c ****             (void *)&CapSense_dsRam.wdgtList.but0,
 134:Generated_Source\PSoC4/CapSense_Structure.c ****             CapSense_dsRam.snsList.but0,
 135:Generated_Source\PSoC4/CapSense_Structure.c ****             (void *)CapSense_fltrHistoryBUT0,
 136:Generated_Source\PSoC4/CapSense_Structure.c ****             CapSense_debounceBUT0,
 137:Generated_Source\PSoC4/CapSense_Structure.c ****             CapSense_BUT0_STATIC_CONFIG,
 138:Generated_Source\PSoC4/CapSense_Structure.c ****             CapSense_BUT0_NUM_SENSORS,
 139:Generated_Source\PSoC4/CapSense_Structure.c ****             (uint8)CapSense_WD_BUTTON_E,
 140:Generated_Source\PSoC4/CapSense_Structure.c ****             CapSense_BUT0_NUM_SENSORS,
 141:Generated_Source\PSoC4/CapSense_Structure.c ****             0u,
 142:Generated_Source\PSoC4/CapSense_Structure.c ****             0u,
 143:Generated_Source\PSoC4/CapSense_Structure.c ****             (void *)0u,
 144:Generated_Source\PSoC4/CapSense_Structure.c ****         },
 145:Generated_Source\PSoC4/CapSense_Structure.c ****         { /* BUT1 */
 146:Generated_Source\PSoC4/CapSense_Structure.c ****             &CapSense_ioList[8u],
 147:Generated_Source\PSoC4/CapSense_Structure.c ****             (void *)&CapSense_dsRam.wdgtList.but1,
ARM GAS  C:\Users\TB1014~1\AppData\Local\Temp\ccn3i5XH.s 			page 4


 148:Generated_Source\PSoC4/CapSense_Structure.c ****             CapSense_dsRam.snsList.but1,
 149:Generated_Source\PSoC4/CapSense_Structure.c ****             (void *)CapSense_fltrHistoryBUT1,
 150:Generated_Source\PSoC4/CapSense_Structure.c ****             CapSense_debounceBUT1,
 151:Generated_Source\PSoC4/CapSense_Structure.c ****             CapSense_BUT1_STATIC_CONFIG,
 152:Generated_Source\PSoC4/CapSense_Structure.c ****             CapSense_BUT1_NUM_SENSORS,
 153:Generated_Source\PSoC4/CapSense_Structure.c ****             (uint8)CapSense_WD_BUTTON_E,
 154:Generated_Source\PSoC4/CapSense_Structure.c ****             CapSense_BUT1_NUM_SENSORS,
 155:Generated_Source\PSoC4/CapSense_Structure.c ****             0u,
 156:Generated_Source\PSoC4/CapSense_Structure.c ****             0u,
 157:Generated_Source\PSoC4/CapSense_Structure.c ****             (void *)0u,
 158:Generated_Source\PSoC4/CapSense_Structure.c ****         },
 159:Generated_Source\PSoC4/CapSense_Structure.c ****         { /* BUT3 */
 160:Generated_Source\PSoC4/CapSense_Structure.c ****             &CapSense_ioList[9u],
 161:Generated_Source\PSoC4/CapSense_Structure.c ****             (void *)&CapSense_dsRam.wdgtList.but3,
 162:Generated_Source\PSoC4/CapSense_Structure.c ****             CapSense_dsRam.snsList.but3,
 163:Generated_Source\PSoC4/CapSense_Structure.c ****             (void *)CapSense_fltrHistoryBUT3,
 164:Generated_Source\PSoC4/CapSense_Structure.c ****             CapSense_debounceBUT3,
 165:Generated_Source\PSoC4/CapSense_Structure.c ****             CapSense_BUT3_STATIC_CONFIG,
 166:Generated_Source\PSoC4/CapSense_Structure.c ****             CapSense_BUT3_NUM_SENSORS,
 167:Generated_Source\PSoC4/CapSense_Structure.c ****             (uint8)CapSense_WD_BUTTON_E,
 168:Generated_Source\PSoC4/CapSense_Structure.c ****             CapSense_BUT3_NUM_SENSORS,
 169:Generated_Source\PSoC4/CapSense_Structure.c ****             0u,
 170:Generated_Source\PSoC4/CapSense_Structure.c ****             0u,
 171:Generated_Source\PSoC4/CapSense_Structure.c ****             (void *)0u,
 172:Generated_Source\PSoC4/CapSense_Structure.c ****         },
 173:Generated_Source\PSoC4/CapSense_Structure.c ****         { /* BUT4 */
 174:Generated_Source\PSoC4/CapSense_Structure.c ****             &CapSense_ioList[10u],
 175:Generated_Source\PSoC4/CapSense_Structure.c ****             (void *)&CapSense_dsRam.wdgtList.but4,
 176:Generated_Source\PSoC4/CapSense_Structure.c ****             CapSense_dsRam.snsList.but4,
 177:Generated_Source\PSoC4/CapSense_Structure.c ****             (void *)CapSense_fltrHistoryBUT4,
 178:Generated_Source\PSoC4/CapSense_Structure.c ****             CapSense_debounceBUT4,
 179:Generated_Source\PSoC4/CapSense_Structure.c ****             CapSense_BUT4_STATIC_CONFIG,
 180:Generated_Source\PSoC4/CapSense_Structure.c ****             CapSense_BUT4_NUM_SENSORS,
 181:Generated_Source\PSoC4/CapSense_Structure.c ****             (uint8)CapSense_WD_BUTTON_E,
 182:Generated_Source\PSoC4/CapSense_Structure.c ****             CapSense_BUT4_NUM_SENSORS,
 183:Generated_Source\PSoC4/CapSense_Structure.c ****             0u,
 184:Generated_Source\PSoC4/CapSense_Structure.c ****             0u,
 185:Generated_Source\PSoC4/CapSense_Structure.c ****             (void *)0u,
 186:Generated_Source\PSoC4/CapSense_Structure.c ****         },
 187:Generated_Source\PSoC4/CapSense_Structure.c ****         { /* BUT5 */
 188:Generated_Source\PSoC4/CapSense_Structure.c ****             &CapSense_ioList[11u],
 189:Generated_Source\PSoC4/CapSense_Structure.c ****             (void *)&CapSense_dsRam.wdgtList.but5,
 190:Generated_Source\PSoC4/CapSense_Structure.c ****             CapSense_dsRam.snsList.but5,
 191:Generated_Source\PSoC4/CapSense_Structure.c ****             (void *)CapSense_fltrHistoryBUT5,
 192:Generated_Source\PSoC4/CapSense_Structure.c ****             CapSense_debounceBUT5,
 193:Generated_Source\PSoC4/CapSense_Structure.c ****             CapSense_BUT5_STATIC_CONFIG,
 194:Generated_Source\PSoC4/CapSense_Structure.c ****             CapSense_BUT5_NUM_SENSORS,
 195:Generated_Source\PSoC4/CapSense_Structure.c ****             (uint8)CapSense_WD_BUTTON_E,
 196:Generated_Source\PSoC4/CapSense_Structure.c ****             CapSense_BUT5_NUM_SENSORS,
 197:Generated_Source\PSoC4/CapSense_Structure.c ****             0u,
 198:Generated_Source\PSoC4/CapSense_Structure.c ****             0u,
 199:Generated_Source\PSoC4/CapSense_Structure.c ****             (void *)0u,
 200:Generated_Source\PSoC4/CapSense_Structure.c ****         },
 201:Generated_Source\PSoC4/CapSense_Structure.c ****         { /* BUT6 */
 202:Generated_Source\PSoC4/CapSense_Structure.c ****             &CapSense_ioList[12u],
 203:Generated_Source\PSoC4/CapSense_Structure.c ****             (void *)&CapSense_dsRam.wdgtList.but6,
 204:Generated_Source\PSoC4/CapSense_Structure.c ****             CapSense_dsRam.snsList.but6,
ARM GAS  C:\Users\TB1014~1\AppData\Local\Temp\ccn3i5XH.s 			page 5


 205:Generated_Source\PSoC4/CapSense_Structure.c ****             (void *)CapSense_fltrHistoryBUT6,
 206:Generated_Source\PSoC4/CapSense_Structure.c ****             CapSense_debounceBUT6,
 207:Generated_Source\PSoC4/CapSense_Structure.c ****             CapSense_BUT6_STATIC_CONFIG,
 208:Generated_Source\PSoC4/CapSense_Structure.c ****             CapSense_BUT6_NUM_SENSORS,
 209:Generated_Source\PSoC4/CapSense_Structure.c ****             (uint8)CapSense_WD_BUTTON_E,
 210:Generated_Source\PSoC4/CapSense_Structure.c ****             CapSense_BUT6_NUM_SENSORS,
 211:Generated_Source\PSoC4/CapSense_Structure.c ****             0u,
 212:Generated_Source\PSoC4/CapSense_Structure.c ****             0u,
 213:Generated_Source\PSoC4/CapSense_Structure.c ****             (void *)0u,
 214:Generated_Source\PSoC4/CapSense_Structure.c ****         },
 215:Generated_Source\PSoC4/CapSense_Structure.c ****         { /* BUT8 */
 216:Generated_Source\PSoC4/CapSense_Structure.c ****             &CapSense_ioList[13u],
 217:Generated_Source\PSoC4/CapSense_Structure.c ****             (void *)&CapSense_dsRam.wdgtList.but8,
 218:Generated_Source\PSoC4/CapSense_Structure.c ****             CapSense_dsRam.snsList.but8,
 219:Generated_Source\PSoC4/CapSense_Structure.c ****             (void *)CapSense_fltrHistoryBUT8,
 220:Generated_Source\PSoC4/CapSense_Structure.c ****             CapSense_debounceBUT8,
 221:Generated_Source\PSoC4/CapSense_Structure.c ****             CapSense_BUT8_STATIC_CONFIG,
 222:Generated_Source\PSoC4/CapSense_Structure.c ****             CapSense_BUT8_NUM_SENSORS,
 223:Generated_Source\PSoC4/CapSense_Structure.c ****             (uint8)CapSense_WD_BUTTON_E,
 224:Generated_Source\PSoC4/CapSense_Structure.c ****             CapSense_BUT8_NUM_SENSORS,
 225:Generated_Source\PSoC4/CapSense_Structure.c ****             0u,
 226:Generated_Source\PSoC4/CapSense_Structure.c ****             0u,
 227:Generated_Source\PSoC4/CapSense_Structure.c ****             (void *)0u,
 228:Generated_Source\PSoC4/CapSense_Structure.c ****         },
 229:Generated_Source\PSoC4/CapSense_Structure.c ****     },
 230:Generated_Source\PSoC4/CapSense_Structure.c **** };
 231:Generated_Source\PSoC4/CapSense_Structure.c **** 
 232:Generated_Source\PSoC4/CapSense_Structure.c **** 
 233:Generated_Source\PSoC4/CapSense_Structure.c **** /**
 234:Generated_Source\PSoC4/CapSense_Structure.c **** * Array of pointers to the electrode specific register
 235:Generated_Source\PSoC4/CapSense_Structure.c **** */
 236:Generated_Source\PSoC4/CapSense_Structure.c **** const CapSense_FLASH_IO_STRUCT CapSense_ioList[CapSense_TOTAL_ELECTRODES] =
 237:Generated_Source\PSoC4/CapSense_Structure.c **** {
 238:Generated_Source\PSoC4/CapSense_Structure.c ****     { /* 0: LinearSlider0_Sns0 */
 239:Generated_Source\PSoC4/CapSense_Structure.c ****         (reg32 *)CapSense_Sns__0__HSIOM,
 240:Generated_Source\PSoC4/CapSense_Structure.c ****         (reg32 *)CapSense_Sns__0__PC,
 241:Generated_Source\PSoC4/CapSense_Structure.c ****         (reg32 *)CapSense_Sns__0__DR,
 242:Generated_Source\PSoC4/CapSense_Structure.c ****         (reg32 *)CapSense_Sns__0__PS,
 243:Generated_Source\PSoC4/CapSense_Structure.c ****         CapSense_Sns__0__HSIOM_MASK,
 244:Generated_Source\PSoC4/CapSense_Structure.c ****         CapSense_Sns__0__MASK,
 245:Generated_Source\PSoC4/CapSense_Structure.c ****         CapSense_Sns__0__HSIOM_SHIFT,
 246:Generated_Source\PSoC4/CapSense_Structure.c ****         (uint8)CapSense_Sns__0__SHIFT,
 247:Generated_Source\PSoC4/CapSense_Structure.c ****         (uint8)CapSense_Sns__0__SHIFT * 3u,
 248:Generated_Source\PSoC4/CapSense_Structure.c ****     },
 249:Generated_Source\PSoC4/CapSense_Structure.c ****     { /* 1: LinearSlider0_Sns1 */
 250:Generated_Source\PSoC4/CapSense_Structure.c ****         (reg32 *)CapSense_Sns__1__HSIOM,
 251:Generated_Source\PSoC4/CapSense_Structure.c ****         (reg32 *)CapSense_Sns__1__PC,
 252:Generated_Source\PSoC4/CapSense_Structure.c ****         (reg32 *)CapSense_Sns__1__DR,
 253:Generated_Source\PSoC4/CapSense_Structure.c ****         (reg32 *)CapSense_Sns__1__PS,
 254:Generated_Source\PSoC4/CapSense_Structure.c ****         CapSense_Sns__1__HSIOM_MASK,
 255:Generated_Source\PSoC4/CapSense_Structure.c ****         CapSense_Sns__1__MASK,
 256:Generated_Source\PSoC4/CapSense_Structure.c ****         CapSense_Sns__1__HSIOM_SHIFT,
 257:Generated_Source\PSoC4/CapSense_Structure.c ****         (uint8)CapSense_Sns__1__SHIFT,
 258:Generated_Source\PSoC4/CapSense_Structure.c ****         (uint8)CapSense_Sns__1__SHIFT * 3u,
 259:Generated_Source\PSoC4/CapSense_Structure.c ****     },
 260:Generated_Source\PSoC4/CapSense_Structure.c ****     { /* 2: LinearSlider0_Sns2 */
 261:Generated_Source\PSoC4/CapSense_Structure.c ****         (reg32 *)CapSense_Sns__2__HSIOM,
ARM GAS  C:\Users\TB1014~1\AppData\Local\Temp\ccn3i5XH.s 			page 6


 262:Generated_Source\PSoC4/CapSense_Structure.c ****         (reg32 *)CapSense_Sns__2__PC,
 263:Generated_Source\PSoC4/CapSense_Structure.c ****         (reg32 *)CapSense_Sns__2__DR,
 264:Generated_Source\PSoC4/CapSense_Structure.c ****         (reg32 *)CapSense_Sns__2__PS,
 265:Generated_Source\PSoC4/CapSense_Structure.c ****         CapSense_Sns__2__HSIOM_MASK,
 266:Generated_Source\PSoC4/CapSense_Structure.c ****         CapSense_Sns__2__MASK,
 267:Generated_Source\PSoC4/CapSense_Structure.c ****         CapSense_Sns__2__HSIOM_SHIFT,
 268:Generated_Source\PSoC4/CapSense_Structure.c ****         (uint8)CapSense_Sns__2__SHIFT,
 269:Generated_Source\PSoC4/CapSense_Structure.c ****         (uint8)CapSense_Sns__2__SHIFT * 3u,
 270:Generated_Source\PSoC4/CapSense_Structure.c ****     },
 271:Generated_Source\PSoC4/CapSense_Structure.c ****     { /* 3: LinearSlider0_Sns3 */
 272:Generated_Source\PSoC4/CapSense_Structure.c ****         (reg32 *)CapSense_Sns__3__HSIOM,
 273:Generated_Source\PSoC4/CapSense_Structure.c ****         (reg32 *)CapSense_Sns__3__PC,
 274:Generated_Source\PSoC4/CapSense_Structure.c ****         (reg32 *)CapSense_Sns__3__DR,
 275:Generated_Source\PSoC4/CapSense_Structure.c ****         (reg32 *)CapSense_Sns__3__PS,
 276:Generated_Source\PSoC4/CapSense_Structure.c ****         CapSense_Sns__3__HSIOM_MASK,
 277:Generated_Source\PSoC4/CapSense_Structure.c ****         CapSense_Sns__3__MASK,
 278:Generated_Source\PSoC4/CapSense_Structure.c ****         CapSense_Sns__3__HSIOM_SHIFT,
 279:Generated_Source\PSoC4/CapSense_Structure.c ****         (uint8)CapSense_Sns__3__SHIFT,
 280:Generated_Source\PSoC4/CapSense_Structure.c ****         (uint8)CapSense_Sns__3__SHIFT * 3u,
 281:Generated_Source\PSoC4/CapSense_Structure.c ****     },
 282:Generated_Source\PSoC4/CapSense_Structure.c ****     { /* 4: LinearSlider0_Sns4 */
 283:Generated_Source\PSoC4/CapSense_Structure.c ****         (reg32 *)CapSense_Sns__4__HSIOM,
 284:Generated_Source\PSoC4/CapSense_Structure.c ****         (reg32 *)CapSense_Sns__4__PC,
 285:Generated_Source\PSoC4/CapSense_Structure.c ****         (reg32 *)CapSense_Sns__4__DR,
 286:Generated_Source\PSoC4/CapSense_Structure.c ****         (reg32 *)CapSense_Sns__4__PS,
 287:Generated_Source\PSoC4/CapSense_Structure.c ****         CapSense_Sns__4__HSIOM_MASK,
 288:Generated_Source\PSoC4/CapSense_Structure.c ****         CapSense_Sns__4__MASK,
 289:Generated_Source\PSoC4/CapSense_Structure.c ****         CapSense_Sns__4__HSIOM_SHIFT,
 290:Generated_Source\PSoC4/CapSense_Structure.c ****         (uint8)CapSense_Sns__4__SHIFT,
 291:Generated_Source\PSoC4/CapSense_Structure.c ****         (uint8)CapSense_Sns__4__SHIFT * 3u,
 292:Generated_Source\PSoC4/CapSense_Structure.c ****     },
 293:Generated_Source\PSoC4/CapSense_Structure.c ****     { /* 5: LinearSlider0_Sns5 */
 294:Generated_Source\PSoC4/CapSense_Structure.c ****         (reg32 *)CapSense_Sns__5__HSIOM,
 295:Generated_Source\PSoC4/CapSense_Structure.c ****         (reg32 *)CapSense_Sns__5__PC,
 296:Generated_Source\PSoC4/CapSense_Structure.c ****         (reg32 *)CapSense_Sns__5__DR,
 297:Generated_Source\PSoC4/CapSense_Structure.c ****         (reg32 *)CapSense_Sns__5__PS,
 298:Generated_Source\PSoC4/CapSense_Structure.c ****         CapSense_Sns__5__HSIOM_MASK,
 299:Generated_Source\PSoC4/CapSense_Structure.c ****         CapSense_Sns__5__MASK,
 300:Generated_Source\PSoC4/CapSense_Structure.c ****         CapSense_Sns__5__HSIOM_SHIFT,
 301:Generated_Source\PSoC4/CapSense_Structure.c ****         (uint8)CapSense_Sns__5__SHIFT,
 302:Generated_Source\PSoC4/CapSense_Structure.c ****         (uint8)CapSense_Sns__5__SHIFT * 3u,
 303:Generated_Source\PSoC4/CapSense_Structure.c ****     },
 304:Generated_Source\PSoC4/CapSense_Structure.c ****     { /* 6: LinearSlider0_Sns6 */
 305:Generated_Source\PSoC4/CapSense_Structure.c ****         (reg32 *)CapSense_Sns__6__HSIOM,
 306:Generated_Source\PSoC4/CapSense_Structure.c ****         (reg32 *)CapSense_Sns__6__PC,
 307:Generated_Source\PSoC4/CapSense_Structure.c ****         (reg32 *)CapSense_Sns__6__DR,
 308:Generated_Source\PSoC4/CapSense_Structure.c ****         (reg32 *)CapSense_Sns__6__PS,
 309:Generated_Source\PSoC4/CapSense_Structure.c ****         CapSense_Sns__6__HSIOM_MASK,
 310:Generated_Source\PSoC4/CapSense_Structure.c ****         CapSense_Sns__6__MASK,
 311:Generated_Source\PSoC4/CapSense_Structure.c ****         CapSense_Sns__6__HSIOM_SHIFT,
 312:Generated_Source\PSoC4/CapSense_Structure.c ****         (uint8)CapSense_Sns__6__SHIFT,
 313:Generated_Source\PSoC4/CapSense_Structure.c ****         (uint8)CapSense_Sns__6__SHIFT * 3u,
 314:Generated_Source\PSoC4/CapSense_Structure.c ****     },
 315:Generated_Source\PSoC4/CapSense_Structure.c ****     { /* 7: BUT0_Sns0 */
 316:Generated_Source\PSoC4/CapSense_Structure.c ****         (reg32 *)CapSense_Sns__7__HSIOM,
 317:Generated_Source\PSoC4/CapSense_Structure.c ****         (reg32 *)CapSense_Sns__7__PC,
 318:Generated_Source\PSoC4/CapSense_Structure.c ****         (reg32 *)CapSense_Sns__7__DR,
ARM GAS  C:\Users\TB1014~1\AppData\Local\Temp\ccn3i5XH.s 			page 7


 319:Generated_Source\PSoC4/CapSense_Structure.c ****         (reg32 *)CapSense_Sns__7__PS,
 320:Generated_Source\PSoC4/CapSense_Structure.c ****         CapSense_Sns__7__HSIOM_MASK,
 321:Generated_Source\PSoC4/CapSense_Structure.c ****         CapSense_Sns__7__MASK,
 322:Generated_Source\PSoC4/CapSense_Structure.c ****         CapSense_Sns__7__HSIOM_SHIFT,
 323:Generated_Source\PSoC4/CapSense_Structure.c ****         (uint8)CapSense_Sns__7__SHIFT,
 324:Generated_Source\PSoC4/CapSense_Structure.c ****         (uint8)CapSense_Sns__7__SHIFT * 3u,
 325:Generated_Source\PSoC4/CapSense_Structure.c ****     },
 326:Generated_Source\PSoC4/CapSense_Structure.c ****     { /* 8: BUT1_Sns0 */
 327:Generated_Source\PSoC4/CapSense_Structure.c ****         (reg32 *)CapSense_Sns__8__HSIOM,
 328:Generated_Source\PSoC4/CapSense_Structure.c ****         (reg32 *)CapSense_Sns__8__PC,
 329:Generated_Source\PSoC4/CapSense_Structure.c ****         (reg32 *)CapSense_Sns__8__DR,
 330:Generated_Source\PSoC4/CapSense_Structure.c ****         (reg32 *)CapSense_Sns__8__PS,
 331:Generated_Source\PSoC4/CapSense_Structure.c ****         CapSense_Sns__8__HSIOM_MASK,
 332:Generated_Source\PSoC4/CapSense_Structure.c ****         CapSense_Sns__8__MASK,
 333:Generated_Source\PSoC4/CapSense_Structure.c ****         CapSense_Sns__8__HSIOM_SHIFT,
 334:Generated_Source\PSoC4/CapSense_Structure.c ****         (uint8)CapSense_Sns__8__SHIFT,
 335:Generated_Source\PSoC4/CapSense_Structure.c ****         (uint8)CapSense_Sns__8__SHIFT * 3u,
 336:Generated_Source\PSoC4/CapSense_Structure.c ****     },
 337:Generated_Source\PSoC4/CapSense_Structure.c ****     { /* 9: BUT3_Sns0 */
 338:Generated_Source\PSoC4/CapSense_Structure.c ****         (reg32 *)CapSense_Sns__9__HSIOM,
 339:Generated_Source\PSoC4/CapSense_Structure.c ****         (reg32 *)CapSense_Sns__9__PC,
 340:Generated_Source\PSoC4/CapSense_Structure.c ****         (reg32 *)CapSense_Sns__9__DR,
 341:Generated_Source\PSoC4/CapSense_Structure.c ****         (reg32 *)CapSense_Sns__9__PS,
 342:Generated_Source\PSoC4/CapSense_Structure.c ****         CapSense_Sns__9__HSIOM_MASK,
 343:Generated_Source\PSoC4/CapSense_Structure.c ****         CapSense_Sns__9__MASK,
 344:Generated_Source\PSoC4/CapSense_Structure.c ****         CapSense_Sns__9__HSIOM_SHIFT,
 345:Generated_Source\PSoC4/CapSense_Structure.c ****         (uint8)CapSense_Sns__9__SHIFT,
 346:Generated_Source\PSoC4/CapSense_Structure.c ****         (uint8)CapSense_Sns__9__SHIFT * 3u,
 347:Generated_Source\PSoC4/CapSense_Structure.c ****     },
 348:Generated_Source\PSoC4/CapSense_Structure.c ****     { /* 10: BUT4_Sns0 */
 349:Generated_Source\PSoC4/CapSense_Structure.c ****         (reg32 *)CapSense_Sns__10__HSIOM,
 350:Generated_Source\PSoC4/CapSense_Structure.c ****         (reg32 *)CapSense_Sns__10__PC,
 351:Generated_Source\PSoC4/CapSense_Structure.c ****         (reg32 *)CapSense_Sns__10__DR,
 352:Generated_Source\PSoC4/CapSense_Structure.c ****         (reg32 *)CapSense_Sns__10__PS,
 353:Generated_Source\PSoC4/CapSense_Structure.c ****         CapSense_Sns__10__HSIOM_MASK,
 354:Generated_Source\PSoC4/CapSense_Structure.c ****         CapSense_Sns__10__MASK,
 355:Generated_Source\PSoC4/CapSense_Structure.c ****         CapSense_Sns__10__HSIOM_SHIFT,
 356:Generated_Source\PSoC4/CapSense_Structure.c ****         (uint8)CapSense_Sns__10__SHIFT,
 357:Generated_Source\PSoC4/CapSense_Structure.c ****         (uint8)CapSense_Sns__10__SHIFT * 3u,
 358:Generated_Source\PSoC4/CapSense_Structure.c ****     },
 359:Generated_Source\PSoC4/CapSense_Structure.c ****     { /* 11: BUT5_Sns0 */
 360:Generated_Source\PSoC4/CapSense_Structure.c ****         (reg32 *)CapSense_Sns__11__HSIOM,
 361:Generated_Source\PSoC4/CapSense_Structure.c ****         (reg32 *)CapSense_Sns__11__PC,
 362:Generated_Source\PSoC4/CapSense_Structure.c ****         (reg32 *)CapSense_Sns__11__DR,
 363:Generated_Source\PSoC4/CapSense_Structure.c ****         (reg32 *)CapSense_Sns__11__PS,
 364:Generated_Source\PSoC4/CapSense_Structure.c ****         CapSense_Sns__11__HSIOM_MASK,
 365:Generated_Source\PSoC4/CapSense_Structure.c ****         CapSense_Sns__11__MASK,
 366:Generated_Source\PSoC4/CapSense_Structure.c ****         CapSense_Sns__11__HSIOM_SHIFT,
 367:Generated_Source\PSoC4/CapSense_Structure.c ****         (uint8)CapSense_Sns__11__SHIFT,
 368:Generated_Source\PSoC4/CapSense_Structure.c ****         (uint8)CapSense_Sns__11__SHIFT * 3u,
 369:Generated_Source\PSoC4/CapSense_Structure.c ****     },
 370:Generated_Source\PSoC4/CapSense_Structure.c ****     { /* 12: BUT6_Sns0 */
 371:Generated_Source\PSoC4/CapSense_Structure.c ****         (reg32 *)CapSense_Sns__12__HSIOM,
 372:Generated_Source\PSoC4/CapSense_Structure.c ****         (reg32 *)CapSense_Sns__12__PC,
 373:Generated_Source\PSoC4/CapSense_Structure.c ****         (reg32 *)CapSense_Sns__12__DR,
 374:Generated_Source\PSoC4/CapSense_Structure.c ****         (reg32 *)CapSense_Sns__12__PS,
 375:Generated_Source\PSoC4/CapSense_Structure.c ****         CapSense_Sns__12__HSIOM_MASK,
ARM GAS  C:\Users\TB1014~1\AppData\Local\Temp\ccn3i5XH.s 			page 8


 376:Generated_Source\PSoC4/CapSense_Structure.c ****         CapSense_Sns__12__MASK,
 377:Generated_Source\PSoC4/CapSense_Structure.c ****         CapSense_Sns__12__HSIOM_SHIFT,
 378:Generated_Source\PSoC4/CapSense_Structure.c ****         (uint8)CapSense_Sns__12__SHIFT,
 379:Generated_Source\PSoC4/CapSense_Structure.c ****         (uint8)CapSense_Sns__12__SHIFT * 3u,
 380:Generated_Source\PSoC4/CapSense_Structure.c ****     },
 381:Generated_Source\PSoC4/CapSense_Structure.c ****     { /* 13: BUT8_Sns0 */
 382:Generated_Source\PSoC4/CapSense_Structure.c ****         (reg32 *)CapSense_Sns__13__HSIOM,
 383:Generated_Source\PSoC4/CapSense_Structure.c ****         (reg32 *)CapSense_Sns__13__PC,
 384:Generated_Source\PSoC4/CapSense_Structure.c ****         (reg32 *)CapSense_Sns__13__DR,
 385:Generated_Source\PSoC4/CapSense_Structure.c ****         (reg32 *)CapSense_Sns__13__PS,
 386:Generated_Source\PSoC4/CapSense_Structure.c ****         CapSense_Sns__13__HSIOM_MASK,
 387:Generated_Source\PSoC4/CapSense_Structure.c ****         CapSense_Sns__13__MASK,
 388:Generated_Source\PSoC4/CapSense_Structure.c ****         CapSense_Sns__13__HSIOM_SHIFT,
 389:Generated_Source\PSoC4/CapSense_Structure.c ****         (uint8)CapSense_Sns__13__SHIFT,
 390:Generated_Source\PSoC4/CapSense_Structure.c ****         (uint8)CapSense_Sns__13__SHIFT * 3u,
 391:Generated_Source\PSoC4/CapSense_Structure.c ****     },
 392:Generated_Source\PSoC4/CapSense_Structure.c **** };
 393:Generated_Source\PSoC4/CapSense_Structure.c **** 
 394:Generated_Source\PSoC4/CapSense_Structure.c **** 
 395:Generated_Source\PSoC4/CapSense_Structure.c **** 
 396:Generated_Source\PSoC4/CapSense_Structure.c **** /** \}
 397:Generated_Source\PSoC4/CapSense_Structure.c **** * \endif */
 398:Generated_Source\PSoC4/CapSense_Structure.c **** 
 399:Generated_Source\PSoC4/CapSense_Structure.c **** /* Initialization data for RAM widget list */
 400:Generated_Source\PSoC4/CapSense_Structure.c **** static const CapSense_RAM_WD_LIST_STRUCT CapSense_ramWidgetInit =
 401:Generated_Source\PSoC4/CapSense_Structure.c **** {
 402:Generated_Source\PSoC4/CapSense_Structure.c ****     { /* LinearSlider0 */
 403:Generated_Source\PSoC4/CapSense_Structure.c ****         CapSense_LINEARSLIDER0_RESOLUTION,
 404:Generated_Source\PSoC4/CapSense_Structure.c ****         CapSense_LINEARSLIDER0_FINGER_TH,
 405:Generated_Source\PSoC4/CapSense_Structure.c ****         CapSense_LINEARSLIDER0_NOISE_TH,
 406:Generated_Source\PSoC4/CapSense_Structure.c ****         CapSense_LINEARSLIDER0_NNOISE_TH,
 407:Generated_Source\PSoC4/CapSense_Structure.c ****         CapSense_LINEARSLIDER0_HYSTERESIS,
 408:Generated_Source\PSoC4/CapSense_Structure.c ****         CapSense_LINEARSLIDER0_ON_DEBOUNCE,
 409:Generated_Source\PSoC4/CapSense_Structure.c ****         CapSense_LINEARSLIDER0_LOW_BSLN_RST,
 410:Generated_Source\PSoC4/CapSense_Structure.c ****         CapSense_LINEARSLIDER0_BSLN_COEFF,
 411:Generated_Source\PSoC4/CapSense_Structure.c ****         {
 412:Generated_Source\PSoC4/CapSense_Structure.c ****             CapSense_LINEARSLIDER0_IDAC_MOD0,
 413:Generated_Source\PSoC4/CapSense_Structure.c ****         },
 414:Generated_Source\PSoC4/CapSense_Structure.c ****         CapSense_LINEARSLIDER0_SNS_CLK,
 415:Generated_Source\PSoC4/CapSense_Structure.c ****         CapSense_LINEARSLIDER0_SNS_CLK_SOURCE,
 416:Generated_Source\PSoC4/CapSense_Structure.c ****         CapSense_LINEARSLIDER0_FINGER_CAP,
 417:Generated_Source\PSoC4/CapSense_Structure.c ****         CapSense_LINEARSLIDER0_SIGPFC,
 418:Generated_Source\PSoC4/CapSense_Structure.c ****         {
 419:Generated_Source\PSoC4/CapSense_Structure.c ****             CapSense_LINEARSLIDER0_POSITION,
 420:Generated_Source\PSoC4/CapSense_Structure.c ****         },
 421:Generated_Source\PSoC4/CapSense_Structure.c ****     },
 422:Generated_Source\PSoC4/CapSense_Structure.c ****     { /* BUT0 */
 423:Generated_Source\PSoC4/CapSense_Structure.c ****         CapSense_BUT0_RESOLUTION,
 424:Generated_Source\PSoC4/CapSense_Structure.c ****         CapSense_BUT0_FINGER_TH,
 425:Generated_Source\PSoC4/CapSense_Structure.c ****         CapSense_BUT0_NOISE_TH,
 426:Generated_Source\PSoC4/CapSense_Structure.c ****         CapSense_BUT0_NNOISE_TH,
 427:Generated_Source\PSoC4/CapSense_Structure.c ****         CapSense_BUT0_HYSTERESIS,
 428:Generated_Source\PSoC4/CapSense_Structure.c ****         CapSense_BUT0_ON_DEBOUNCE,
 429:Generated_Source\PSoC4/CapSense_Structure.c ****         CapSense_BUT0_LOW_BSLN_RST,
 430:Generated_Source\PSoC4/CapSense_Structure.c ****         CapSense_BUT0_BSLN_COEFF,
 431:Generated_Source\PSoC4/CapSense_Structure.c ****         {
 432:Generated_Source\PSoC4/CapSense_Structure.c ****             CapSense_BUT0_IDAC_MOD0,
ARM GAS  C:\Users\TB1014~1\AppData\Local\Temp\ccn3i5XH.s 			page 9


 433:Generated_Source\PSoC4/CapSense_Structure.c ****         },
 434:Generated_Source\PSoC4/CapSense_Structure.c ****         CapSense_BUT0_SNS_CLK,
 435:Generated_Source\PSoC4/CapSense_Structure.c ****         CapSense_BUT0_SNS_CLK_SOURCE,
 436:Generated_Source\PSoC4/CapSense_Structure.c ****         CapSense_BUT0_FINGER_CAP,
 437:Generated_Source\PSoC4/CapSense_Structure.c ****         CapSense_BUT0_SIGPFC,
 438:Generated_Source\PSoC4/CapSense_Structure.c ****     },
 439:Generated_Source\PSoC4/CapSense_Structure.c ****     { /* BUT1 */
 440:Generated_Source\PSoC4/CapSense_Structure.c ****         CapSense_BUT1_RESOLUTION,
 441:Generated_Source\PSoC4/CapSense_Structure.c ****         CapSense_BUT1_FINGER_TH,
 442:Generated_Source\PSoC4/CapSense_Structure.c ****         CapSense_BUT1_NOISE_TH,
 443:Generated_Source\PSoC4/CapSense_Structure.c ****         CapSense_BUT1_NNOISE_TH,
 444:Generated_Source\PSoC4/CapSense_Structure.c ****         CapSense_BUT1_HYSTERESIS,
 445:Generated_Source\PSoC4/CapSense_Structure.c ****         CapSense_BUT1_ON_DEBOUNCE,
 446:Generated_Source\PSoC4/CapSense_Structure.c ****         CapSense_BUT1_LOW_BSLN_RST,
 447:Generated_Source\PSoC4/CapSense_Structure.c ****         CapSense_BUT1_BSLN_COEFF,
 448:Generated_Source\PSoC4/CapSense_Structure.c ****         {
 449:Generated_Source\PSoC4/CapSense_Structure.c ****             CapSense_BUT1_IDAC_MOD0,
 450:Generated_Source\PSoC4/CapSense_Structure.c ****         },
 451:Generated_Source\PSoC4/CapSense_Structure.c ****         CapSense_BUT1_SNS_CLK,
 452:Generated_Source\PSoC4/CapSense_Structure.c ****         CapSense_BUT1_SNS_CLK_SOURCE,
 453:Generated_Source\PSoC4/CapSense_Structure.c ****         CapSense_BUT1_FINGER_CAP,
 454:Generated_Source\PSoC4/CapSense_Structure.c ****         CapSense_BUT1_SIGPFC,
 455:Generated_Source\PSoC4/CapSense_Structure.c ****     },
 456:Generated_Source\PSoC4/CapSense_Structure.c ****     { /* BUT3 */
 457:Generated_Source\PSoC4/CapSense_Structure.c ****         CapSense_BUT3_RESOLUTION,
 458:Generated_Source\PSoC4/CapSense_Structure.c ****         CapSense_BUT3_FINGER_TH,
 459:Generated_Source\PSoC4/CapSense_Structure.c ****         CapSense_BUT3_NOISE_TH,
 460:Generated_Source\PSoC4/CapSense_Structure.c ****         CapSense_BUT3_NNOISE_TH,
 461:Generated_Source\PSoC4/CapSense_Structure.c ****         CapSense_BUT3_HYSTERESIS,
 462:Generated_Source\PSoC4/CapSense_Structure.c ****         CapSense_BUT3_ON_DEBOUNCE,
 463:Generated_Source\PSoC4/CapSense_Structure.c ****         CapSense_BUT3_LOW_BSLN_RST,
 464:Generated_Source\PSoC4/CapSense_Structure.c ****         CapSense_BUT3_BSLN_COEFF,
 465:Generated_Source\PSoC4/CapSense_Structure.c ****         {
 466:Generated_Source\PSoC4/CapSense_Structure.c ****             CapSense_BUT3_IDAC_MOD0,
 467:Generated_Source\PSoC4/CapSense_Structure.c ****         },
 468:Generated_Source\PSoC4/CapSense_Structure.c ****         CapSense_BUT3_SNS_CLK,
 469:Generated_Source\PSoC4/CapSense_Structure.c ****         CapSense_BUT3_SNS_CLK_SOURCE,
 470:Generated_Source\PSoC4/CapSense_Structure.c ****         CapSense_BUT3_FINGER_CAP,
 471:Generated_Source\PSoC4/CapSense_Structure.c ****         CapSense_BUT3_SIGPFC,
 472:Generated_Source\PSoC4/CapSense_Structure.c ****     },
 473:Generated_Source\PSoC4/CapSense_Structure.c ****     { /* BUT4 */
 474:Generated_Source\PSoC4/CapSense_Structure.c ****         CapSense_BUT4_RESOLUTION,
 475:Generated_Source\PSoC4/CapSense_Structure.c ****         CapSense_BUT4_FINGER_TH,
 476:Generated_Source\PSoC4/CapSense_Structure.c ****         CapSense_BUT4_NOISE_TH,
 477:Generated_Source\PSoC4/CapSense_Structure.c ****         CapSense_BUT4_NNOISE_TH,
 478:Generated_Source\PSoC4/CapSense_Structure.c ****         CapSense_BUT4_HYSTERESIS,
 479:Generated_Source\PSoC4/CapSense_Structure.c ****         CapSense_BUT4_ON_DEBOUNCE,
 480:Generated_Source\PSoC4/CapSense_Structure.c ****         CapSense_BUT4_LOW_BSLN_RST,
 481:Generated_Source\PSoC4/CapSense_Structure.c ****         CapSense_BUT4_BSLN_COEFF,
 482:Generated_Source\PSoC4/CapSense_Structure.c ****         {
 483:Generated_Source\PSoC4/CapSense_Structure.c ****             CapSense_BUT4_IDAC_MOD0,
 484:Generated_Source\PSoC4/CapSense_Structure.c ****         },
 485:Generated_Source\PSoC4/CapSense_Structure.c ****         CapSense_BUT4_SNS_CLK,
 486:Generated_Source\PSoC4/CapSense_Structure.c ****         CapSense_BUT4_SNS_CLK_SOURCE,
 487:Generated_Source\PSoC4/CapSense_Structure.c ****         CapSense_BUT4_FINGER_CAP,
 488:Generated_Source\PSoC4/CapSense_Structure.c ****         CapSense_BUT4_SIGPFC,
 489:Generated_Source\PSoC4/CapSense_Structure.c ****     },
ARM GAS  C:\Users\TB1014~1\AppData\Local\Temp\ccn3i5XH.s 			page 10


 490:Generated_Source\PSoC4/CapSense_Structure.c ****     { /* BUT5 */
 491:Generated_Source\PSoC4/CapSense_Structure.c ****         CapSense_BUT5_RESOLUTION,
 492:Generated_Source\PSoC4/CapSense_Structure.c ****         CapSense_BUT5_FINGER_TH,
 493:Generated_Source\PSoC4/CapSense_Structure.c ****         CapSense_BUT5_NOISE_TH,
 494:Generated_Source\PSoC4/CapSense_Structure.c ****         CapSense_BUT5_NNOISE_TH,
 495:Generated_Source\PSoC4/CapSense_Structure.c ****         CapSense_BUT5_HYSTERESIS,
 496:Generated_Source\PSoC4/CapSense_Structure.c ****         CapSense_BUT5_ON_DEBOUNCE,
 497:Generated_Source\PSoC4/CapSense_Structure.c ****         CapSense_BUT5_LOW_BSLN_RST,
 498:Generated_Source\PSoC4/CapSense_Structure.c ****         CapSense_BUT5_BSLN_COEFF,
 499:Generated_Source\PSoC4/CapSense_Structure.c ****         {
 500:Generated_Source\PSoC4/CapSense_Structure.c ****             CapSense_BUT5_IDAC_MOD0,
 501:Generated_Source\PSoC4/CapSense_Structure.c ****         },
 502:Generated_Source\PSoC4/CapSense_Structure.c ****         CapSense_BUT5_SNS_CLK,
 503:Generated_Source\PSoC4/CapSense_Structure.c ****         CapSense_BUT5_SNS_CLK_SOURCE,
 504:Generated_Source\PSoC4/CapSense_Structure.c ****         CapSense_BUT5_FINGER_CAP,
 505:Generated_Source\PSoC4/CapSense_Structure.c ****         CapSense_BUT5_SIGPFC,
 506:Generated_Source\PSoC4/CapSense_Structure.c ****     },
 507:Generated_Source\PSoC4/CapSense_Structure.c ****     { /* BUT6 */
 508:Generated_Source\PSoC4/CapSense_Structure.c ****         CapSense_BUT6_RESOLUTION,
 509:Generated_Source\PSoC4/CapSense_Structure.c ****         CapSense_BUT6_FINGER_TH,
 510:Generated_Source\PSoC4/CapSense_Structure.c ****         CapSense_BUT6_NOISE_TH,
 511:Generated_Source\PSoC4/CapSense_Structure.c ****         CapSense_BUT6_NNOISE_TH,
 512:Generated_Source\PSoC4/CapSense_Structure.c ****         CapSense_BUT6_HYSTERESIS,
 513:Generated_Source\PSoC4/CapSense_Structure.c ****         CapSense_BUT6_ON_DEBOUNCE,
 514:Generated_Source\PSoC4/CapSense_Structure.c ****         CapSense_BUT6_LOW_BSLN_RST,
 515:Generated_Source\PSoC4/CapSense_Structure.c ****         CapSense_BUT6_BSLN_COEFF,
 516:Generated_Source\PSoC4/CapSense_Structure.c ****         {
 517:Generated_Source\PSoC4/CapSense_Structure.c ****             CapSense_BUT6_IDAC_MOD0,
 518:Generated_Source\PSoC4/CapSense_Structure.c ****         },
 519:Generated_Source\PSoC4/CapSense_Structure.c ****         CapSense_BUT6_SNS_CLK,
 520:Generated_Source\PSoC4/CapSense_Structure.c ****         CapSense_BUT6_SNS_CLK_SOURCE,
 521:Generated_Source\PSoC4/CapSense_Structure.c ****         CapSense_BUT6_FINGER_CAP,
 522:Generated_Source\PSoC4/CapSense_Structure.c ****         CapSense_BUT6_SIGPFC,
 523:Generated_Source\PSoC4/CapSense_Structure.c ****     },
 524:Generated_Source\PSoC4/CapSense_Structure.c ****     { /* BUT8 */
 525:Generated_Source\PSoC4/CapSense_Structure.c ****         CapSense_BUT8_RESOLUTION,
 526:Generated_Source\PSoC4/CapSense_Structure.c ****         CapSense_BUT8_FINGER_TH,
 527:Generated_Source\PSoC4/CapSense_Structure.c ****         CapSense_BUT8_NOISE_TH,
 528:Generated_Source\PSoC4/CapSense_Structure.c ****         CapSense_BUT8_NNOISE_TH,
 529:Generated_Source\PSoC4/CapSense_Structure.c ****         CapSense_BUT8_HYSTERESIS,
 530:Generated_Source\PSoC4/CapSense_Structure.c ****         CapSense_BUT8_ON_DEBOUNCE,
 531:Generated_Source\PSoC4/CapSense_Structure.c ****         CapSense_BUT8_LOW_BSLN_RST,
 532:Generated_Source\PSoC4/CapSense_Structure.c ****         CapSense_BUT8_BSLN_COEFF,
 533:Generated_Source\PSoC4/CapSense_Structure.c ****         {
 534:Generated_Source\PSoC4/CapSense_Structure.c ****             CapSense_BUT8_IDAC_MOD0,
 535:Generated_Source\PSoC4/CapSense_Structure.c ****         },
 536:Generated_Source\PSoC4/CapSense_Structure.c ****         CapSense_BUT8_SNS_CLK,
 537:Generated_Source\PSoC4/CapSense_Structure.c ****         CapSense_BUT8_SNS_CLK_SOURCE,
 538:Generated_Source\PSoC4/CapSense_Structure.c ****         CapSense_BUT8_FINGER_CAP,
 539:Generated_Source\PSoC4/CapSense_Structure.c ****         CapSense_BUT8_SIGPFC,
 540:Generated_Source\PSoC4/CapSense_Structure.c ****     },
 541:Generated_Source\PSoC4/CapSense_Structure.c **** };
 542:Generated_Source\PSoC4/CapSense_Structure.c **** 
 543:Generated_Source\PSoC4/CapSense_Structure.c **** 
 544:Generated_Source\PSoC4/CapSense_Structure.c **** /* IDAC Initialization Data */
 545:Generated_Source\PSoC4/CapSense_Structure.c **** static const uint8 CapSense_ramIdacInit[CapSense_TOTAL_SENSORS] =
 546:Generated_Source\PSoC4/CapSense_Structure.c **** {
ARM GAS  C:\Users\TB1014~1\AppData\Local\Temp\ccn3i5XH.s 			page 11


 547:Generated_Source\PSoC4/CapSense_Structure.c ****     /* LinearSlider0 */
 548:Generated_Source\PSoC4/CapSense_Structure.c ****     CapSense_LINEARSLIDER0_SNS0_IDAC_COMP0,
 549:Generated_Source\PSoC4/CapSense_Structure.c ****     CapSense_LINEARSLIDER0_SNS1_IDAC_COMP0,
 550:Generated_Source\PSoC4/CapSense_Structure.c ****     CapSense_LINEARSLIDER0_SNS2_IDAC_COMP0,
 551:Generated_Source\PSoC4/CapSense_Structure.c ****     CapSense_LINEARSLIDER0_SNS3_IDAC_COMP0,
 552:Generated_Source\PSoC4/CapSense_Structure.c ****     CapSense_LINEARSLIDER0_SNS4_IDAC_COMP0,
 553:Generated_Source\PSoC4/CapSense_Structure.c ****     CapSense_LINEARSLIDER0_SNS5_IDAC_COMP0,
 554:Generated_Source\PSoC4/CapSense_Structure.c ****     CapSense_LINEARSLIDER0_SNS6_IDAC_COMP0,
 555:Generated_Source\PSoC4/CapSense_Structure.c **** 
 556:Generated_Source\PSoC4/CapSense_Structure.c ****     /* BUT0 */
 557:Generated_Source\PSoC4/CapSense_Structure.c ****     CapSense_BUT0_SNS0_IDAC_COMP0,
 558:Generated_Source\PSoC4/CapSense_Structure.c **** 
 559:Generated_Source\PSoC4/CapSense_Structure.c ****     /* BUT1 */
 560:Generated_Source\PSoC4/CapSense_Structure.c ****     CapSense_BUT1_SNS0_IDAC_COMP0,
 561:Generated_Source\PSoC4/CapSense_Structure.c **** 
 562:Generated_Source\PSoC4/CapSense_Structure.c ****     /* BUT3 */
 563:Generated_Source\PSoC4/CapSense_Structure.c ****     CapSense_BUT3_SNS0_IDAC_COMP0,
 564:Generated_Source\PSoC4/CapSense_Structure.c **** 
 565:Generated_Source\PSoC4/CapSense_Structure.c ****     /* BUT4 */
 566:Generated_Source\PSoC4/CapSense_Structure.c ****     CapSense_BUT4_SNS0_IDAC_COMP0,
 567:Generated_Source\PSoC4/CapSense_Structure.c **** 
 568:Generated_Source\PSoC4/CapSense_Structure.c ****     /* BUT5 */
 569:Generated_Source\PSoC4/CapSense_Structure.c ****     CapSense_BUT5_SNS0_IDAC_COMP0,
 570:Generated_Source\PSoC4/CapSense_Structure.c **** 
 571:Generated_Source\PSoC4/CapSense_Structure.c ****     /* BUT6 */
 572:Generated_Source\PSoC4/CapSense_Structure.c ****     CapSense_BUT6_SNS0_IDAC_COMP0,
 573:Generated_Source\PSoC4/CapSense_Structure.c **** 
 574:Generated_Source\PSoC4/CapSense_Structure.c ****     /* BUT8 */
 575:Generated_Source\PSoC4/CapSense_Structure.c ****     CapSense_BUT8_SNS0_IDAC_COMP0,
 576:Generated_Source\PSoC4/CapSense_Structure.c **** };
 577:Generated_Source\PSoC4/CapSense_Structure.c **** 
 578:Generated_Source\PSoC4/CapSense_Structure.c **** 
 579:Generated_Source\PSoC4/CapSense_Structure.c **** /*******************************************************************************
 580:Generated_Source\PSoC4/CapSense_Structure.c **** * Define internal data types and statements
 581:Generated_Source\PSoC4/CapSense_Structure.c **** *******************************************************************************/
 582:Generated_Source\PSoC4/CapSense_Structure.c **** #define PARAM_TYPE_OFFSET       (30u)
 583:Generated_Source\PSoC4/CapSense_Structure.c **** #define PARAM_TYPE_MASK         (3Lu << PARAM_TYPE_OFFSET)
 584:Generated_Source\PSoC4/CapSense_Structure.c **** #define PARAM_RWBIT_OFFSET      (29u)
 585:Generated_Source\PSoC4/CapSense_Structure.c **** #define PARAM_RWBIT_MASK        (1Lu << PARAM_RWBIT_OFFSET)
 586:Generated_Source\PSoC4/CapSense_Structure.c **** #define PARAM_FBIT_OFFSET       (28u)
 587:Generated_Source\PSoC4/CapSense_Structure.c **** #define PARAM_FBIT_MASK         (1Lu << PARAM_FBIT_OFFSET)
 588:Generated_Source\PSoC4/CapSense_Structure.c **** #define PARAM_UBIT_OFFSET       (23u)
 589:Generated_Source\PSoC4/CapSense_Structure.c **** #define PARAM_UBIT_MASK         (1Lu << PARAM_UBIT_OFFSET)
 590:Generated_Source\PSoC4/CapSense_Structure.c **** #define PARAM_WDID_OFFSET       (16u)
 591:Generated_Source\PSoC4/CapSense_Structure.c **** #define PARAM_WDID_MASK         (0x7FLu << PARAM_WDID_OFFSET)
 592:Generated_Source\PSoC4/CapSense_Structure.c **** #define PARAM_CRC_OFFSET        (24u)
 593:Generated_Source\PSoC4/CapSense_Structure.c **** #define PARAM_CRC_MASK          (0x0FLu << PARAM_CRC_OFFSET)
 594:Generated_Source\PSoC4/CapSense_Structure.c **** 
 595:Generated_Source\PSoC4/CapSense_Structure.c **** /* Define align masks for uint16 and uint32 */
 596:Generated_Source\PSoC4/CapSense_Structure.c **** #define UINT16_ALIGN_MASK       (1Lu)
 597:Generated_Source\PSoC4/CapSense_Structure.c **** #define UINT32_ALIGN_MASK       (3Lu)
 598:Generated_Source\PSoC4/CapSense_Structure.c **** 
 599:Generated_Source\PSoC4/CapSense_Structure.c **** /* Define supported parameter types */
 600:Generated_Source\PSoC4/CapSense_Structure.c **** #define DS_PARAM_TYPE_UINT8     (0x01u)
 601:Generated_Source\PSoC4/CapSense_Structure.c **** #define DS_PARAM_TYPE_UINT16    (0x02u)
 602:Generated_Source\PSoC4/CapSense_Structure.c **** #define DS_PARAM_TYPE_UINT32    (0x03u)
 603:Generated_Source\PSoC4/CapSense_Structure.c **** 
ARM GAS  C:\Users\TB1014~1\AppData\Local\Temp\ccn3i5XH.s 			page 12


 604:Generated_Source\PSoC4/CapSense_Structure.c **** 
 605:Generated_Source\PSoC4/CapSense_Structure.c **** /* Define PARAM_ID structure */
 606:Generated_Source\PSoC4/CapSense_Structure.c **** typedef struct
 607:Generated_Source\PSoC4/CapSense_Structure.c **** {
 608:Generated_Source\PSoC4/CapSense_Structure.c ****     uint16 offset;      /* parameter offset                     */
 609:Generated_Source\PSoC4/CapSense_Structure.c ****     uint8  widgetId;    /* widget Id parameter belongs to       */
 610:Generated_Source\PSoC4/CapSense_Structure.c ****     uint8  affectsCrc;  /* parameter affects widget CRC         */
 611:Generated_Source\PSoC4/CapSense_Structure.c ****     uint8  crc;         /* parameter CRC                        */
 612:Generated_Source\PSoC4/CapSense_Structure.c ****     uint8  flash;       /* parameter located in FLASH flag      */
 613:Generated_Source\PSoC4/CapSense_Structure.c ****     uint8  rw;          /* parameter is read/write flag         */
 614:Generated_Source\PSoC4/CapSense_Structure.c ****     uint8  type;        /* parameter type: uint8/uint16/uint32  */
 615:Generated_Source\PSoC4/CapSense_Structure.c **** } PARAM_ID_STRUCT;
 616:Generated_Source\PSoC4/CapSense_Structure.c **** 
 617:Generated_Source\PSoC4/CapSense_Structure.c **** 
 618:Generated_Source\PSoC4/CapSense_Structure.c **** /*******************************************************************************
 619:Generated_Source\PSoC4/CapSense_Structure.c **** * Static Function Prototypes
 620:Generated_Source\PSoC4/CapSense_Structure.c **** *******************************************************************************/
 621:Generated_Source\PSoC4/CapSense_Structure.c **** /**
 622:Generated_Source\PSoC4/CapSense_Structure.c **** * \if SECTION_CAPSENSE_INTERNAL
 623:Generated_Source\PSoC4/CapSense_Structure.c **** * \addtogroup group_capsense_internal
 624:Generated_Source\PSoC4/CapSense_Structure.c **** * \{
 625:Generated_Source\PSoC4/CapSense_Structure.c **** */
 626:Generated_Source\PSoC4/CapSense_Structure.c **** 
 627:Generated_Source\PSoC4/CapSense_Structure.c **** static cystatus DsParseParamId(uint32 paramId, PARAM_ID_STRUCT *pData);
 628:Generated_Source\PSoC4/CapSense_Structure.c **** 
 629:Generated_Source\PSoC4/CapSense_Structure.c **** /** \}
 630:Generated_Source\PSoC4/CapSense_Structure.c **** * \endif */
 631:Generated_Source\PSoC4/CapSense_Structure.c **** 
 632:Generated_Source\PSoC4/CapSense_Structure.c **** 
 633:Generated_Source\PSoC4/CapSense_Structure.c **** /*******************************************************************************
 634:Generated_Source\PSoC4/CapSense_Structure.c **** * Function Name: CapSense_DsInitialize
 635:Generated_Source\PSoC4/CapSense_Structure.c **** ****************************************************************************//**
 636:Generated_Source\PSoC4/CapSense_Structure.c **** *
 637:Generated_Source\PSoC4/CapSense_Structure.c **** * \brief
 638:Generated_Source\PSoC4/CapSense_Structure.c **** *   This function initializes the Data Structure storage.
 639:Generated_Source\PSoC4/CapSense_Structure.c **** *
 640:Generated_Source\PSoC4/CapSense_Structure.c **** * \details
 641:Generated_Source\PSoC4/CapSense_Structure.c **** *   This function copies the default widget configuration parameters 
 642:Generated_Source\PSoC4/CapSense_Structure.c **** *   from the Flash storage into the RAM Data Structure.
 643:Generated_Source\PSoC4/CapSense_Structure.c **** *
 644:Generated_Source\PSoC4/CapSense_Structure.c **** *******************************************************************************/
 645:Generated_Source\PSoC4/CapSense_Structure.c **** void CapSense_DsInitialize(void)
 646:Generated_Source\PSoC4/CapSense_Structure.c **** {
 647:Generated_Source\PSoC4/CapSense_Structure.c ****     #if (0u != CapSense_CSX_EN) || (0 != CapSense_CSD_IDAC_COMP_EN)
 648:Generated_Source\PSoC4/CapSense_Structure.c ****         uint32 snsId;
 649:Generated_Source\PSoC4/CapSense_Structure.c ****         uint32 wdgtId;
 650:Generated_Source\PSoC4/CapSense_Structure.c ****     
 651:Generated_Source\PSoC4/CapSense_Structure.c ****         CapSense_RAM_SNS_STRUCT * ptrSns;
 652:Generated_Source\PSoC4/CapSense_Structure.c ****         CapSense_FLASH_WD_STRUCT const * ptrFlashWdgt;
 653:Generated_Source\PSoC4/CapSense_Structure.c ****         uint8 const * ptrIdacInit = CapSense_ramIdacInit;
 654:Generated_Source\PSoC4/CapSense_Structure.c ****     #endif        
 655:Generated_Source\PSoC4/CapSense_Structure.c ****     
 656:Generated_Source\PSoC4/CapSense_Structure.c ****     /* Reset RAM data structure content */
 657:Generated_Source\PSoC4/CapSense_Structure.c ****     (void)memset(&CapSense_dsRam, 0, sizeof(CapSense_dsRam));
 658:Generated_Source\PSoC4/CapSense_Structure.c ****     
 659:Generated_Source\PSoC4/CapSense_Structure.c ****     /* Initialize configId and deviceId registers */
 660:Generated_Source\PSoC4/CapSense_Structure.c ****     CapSense_dsRam.configId = CapSense_CONFIG_ID;
ARM GAS  C:\Users\TB1014~1\AppData\Local\Temp\ccn3i5XH.s 			page 13


 661:Generated_Source\PSoC4/CapSense_Structure.c ****     CapSense_dsRam.deviceId = CapSense_DEVICE_ID;
 662:Generated_Source\PSoC4/CapSense_Structure.c ****     
 663:Generated_Source\PSoC4/CapSense_Structure.c ****     /* Initialize global RAM data */
 664:Generated_Source\PSoC4/CapSense_Structure.c ****     CapSense_dsRam.csd0Config = CapSense_CSD0_CONFIG;
 665:Generated_Source\PSoC4/CapSense_Structure.c **** 
 666:Generated_Source\PSoC4/CapSense_Structure.c ****     #if ((0u != CapSense_CSD2X_EN) || (0u != CapSense_CSX2X_EN))
 667:Generated_Source\PSoC4/CapSense_Structure.c ****         CapSense_dsRam.csd1Config = CapSense_CSD1_CONFIG;
 668:Generated_Source\PSoC4/CapSense_Structure.c ****     #endif /* #if ((0u != CapSense_CSD2X_EN) || (0u != CapSense_CSX2X_EN)) */
 669:Generated_Source\PSoC4/CapSense_Structure.c ****     
 670:Generated_Source\PSoC4/CapSense_Structure.c ****     #if (0u != CapSense_TOTAL_CSD_WIDGETS)
 671:Generated_Source\PSoC4/CapSense_Structure.c ****         CapSense_dsRam.modCsdClk = CapSense_CSD_SCANSPEED_DIVIDER;
 672:Generated_Source\PSoC4/CapSense_Structure.c ****         
 673:Generated_Source\PSoC4/CapSense_Structure.c ****         #if (0u != CapSense_CSD_COMMON_SNS_CLK_EN)
 674:Generated_Source\PSoC4/CapSense_Structure.c ****             CapSense_dsRam.snsCsdClk = CapSense_CSD_SNS_CLK_DIVIDER;
 675:Generated_Source\PSoC4/CapSense_Structure.c ****         #endif /* #if (0u != CapSense_CSD_COMMON_SNS_CLK_EN) */
 676:Generated_Source\PSoC4/CapSense_Structure.c ****     #endif /* #if (0u != CapSense_TOTAL_CSD_WIDGETS) */
 677:Generated_Source\PSoC4/CapSense_Structure.c ****     
 678:Generated_Source\PSoC4/CapSense_Structure.c ****     #if (0u != CapSense_CSX_EN)
 679:Generated_Source\PSoC4/CapSense_Structure.c ****         CapSense_dsRam.modCsxClk = CapSense_CSX_SCANSPEED_DIVIDER;
 680:Generated_Source\PSoC4/CapSense_Structure.c ****         
 681:Generated_Source\PSoC4/CapSense_Structure.c ****         #if (0u != CapSense_CSX_COMMON_TX_CLK_EN)
 682:Generated_Source\PSoC4/CapSense_Structure.c ****             CapSense_dsRam.snsCsxClk = CapSense_CSX_TX_CLK_DIVIDER;
 683:Generated_Source\PSoC4/CapSense_Structure.c ****         #endif /* #if (0u != CapSense_CSX_COMMON_TX_CLK_EN) */
 684:Generated_Source\PSoC4/CapSense_Structure.c ****     #endif /* #if (0u != CapSense_CSX_EN) */
 685:Generated_Source\PSoC4/CapSense_Structure.c ****     
 686:Generated_Source\PSoC4/CapSense_Structure.c ****     #if (0u != CapSense_SELF_TEST_EN)
 687:Generated_Source\PSoC4/CapSense_Structure.c ****         CapSense_dsRam.glbCrc = CapSense_GLB_CRC;
 688:Generated_Source\PSoC4/CapSense_Structure.c ****     #endif /* #if (0u != CapSense_SELF_TEST_EN) */
 689:Generated_Source\PSoC4/CapSense_Structure.c ****    
 690:Generated_Source\PSoC4/CapSense_Structure.c ****     /* Initialize RAM widget data */
 691:Generated_Source\PSoC4/CapSense_Structure.c ****     CapSense_dsRam.wdgtList = CapSense_ramWidgetInit;
 692:Generated_Source\PSoC4/CapSense_Structure.c ****     
 693:Generated_Source\PSoC4/CapSense_Structure.c ****     #if (0u != CapSense_CSX_EN) || (0 != CapSense_CSD_IDAC_COMP_EN)
 694:Generated_Source\PSoC4/CapSense_Structure.c ****         /* Initialize IDAC data */
 695:Generated_Source\PSoC4/CapSense_Structure.c ****         ptrFlashWdgt = CapSense_dsFlash.wdgtArray;
 696:Generated_Source\PSoC4/CapSense_Structure.c ****         
 697:Generated_Source\PSoC4/CapSense_Structure.c ****         for (wdgtId = CapSense_TOTAL_WIDGETS; wdgtId-- > 0u; )
 698:Generated_Source\PSoC4/CapSense_Structure.c ****         {
 699:Generated_Source\PSoC4/CapSense_Structure.c ****             ptrSns = ptrFlashWdgt->ptr2SnsRam;
 700:Generated_Source\PSoC4/CapSense_Structure.c ****                 
 701:Generated_Source\PSoC4/CapSense_Structure.c ****             for (snsId = CapSense_GET_SNS_CNT_BY_PTR(ptrFlashWdgt); snsId-- > 0u;)
 702:Generated_Source\PSoC4/CapSense_Structure.c ****             {
 703:Generated_Source\PSoC4/CapSense_Structure.c ****                 ptrSns->idacComp[0u] = *ptrIdacInit;
 704:Generated_Source\PSoC4/CapSense_Structure.c ****                 ptrIdacInit++;
 705:Generated_Source\PSoC4/CapSense_Structure.c ****                 
 706:Generated_Source\PSoC4/CapSense_Structure.c ****                 #if (0u != CapSense_MULTI_FREQ_SCAN_EN)
 707:Generated_Source\PSoC4/CapSense_Structure.c ****                     ptrSns->idacComp[1u] = *ptrIdacInit;
 708:Generated_Source\PSoC4/CapSense_Structure.c ****                     ptrIdacInit++;
 709:Generated_Source\PSoC4/CapSense_Structure.c ****                     
 710:Generated_Source\PSoC4/CapSense_Structure.c ****                     ptrSns->idacComp[2u] = *ptrIdacInit;
 711:Generated_Source\PSoC4/CapSense_Structure.c ****                     ptrIdacInit++;
 712:Generated_Source\PSoC4/CapSense_Structure.c ****                 #endif /* #if (0u != CapSense_MULTI_FREQ_SCAN_EN) */
 713:Generated_Source\PSoC4/CapSense_Structure.c ****                 
 714:Generated_Source\PSoC4/CapSense_Structure.c ****                 ptrSns++;
 715:Generated_Source\PSoC4/CapSense_Structure.c ****             }
 716:Generated_Source\PSoC4/CapSense_Structure.c ****             
 717:Generated_Source\PSoC4/CapSense_Structure.c ****             ptrFlashWdgt++; /* Move to next widget */
ARM GAS  C:\Users\TB1014~1\AppData\Local\Temp\ccn3i5XH.s 			page 14


 718:Generated_Source\PSoC4/CapSense_Structure.c ****         }
 719:Generated_Source\PSoC4/CapSense_Structure.c ****     #endif /*(0u != CapSense_CSX_EN) || (0 != CapSense_CSD_IDAC_COMP_EN)*/
 720:Generated_Source\PSoC4/CapSense_Structure.c ****     
 721:Generated_Source\PSoC4/CapSense_Structure.c ****     #if (0u != CapSense_ADC_EN)
 722:Generated_Source\PSoC4/CapSense_Structure.c ****         CapSense_AdcDsInitialize();
 723:Generated_Source\PSoC4/CapSense_Structure.c ****     #endif /* (0u != CapSense_ADC_EN) */
 724:Generated_Source\PSoC4/CapSense_Structure.c **** }
 725:Generated_Source\PSoC4/CapSense_Structure.c **** 
 726:Generated_Source\PSoC4/CapSense_Structure.c **** 
 727:Generated_Source\PSoC4/CapSense_Structure.c **** #if (0u != CapSense_ADC_EN)
 728:Generated_Source\PSoC4/CapSense_Structure.c ****     /*******************************************************************************
 729:Generated_Source\PSoC4/CapSense_Structure.c ****     * Function Name: CapSense_AdcDsInitialize
 730:Generated_Source\PSoC4/CapSense_Structure.c ****     ****************************************************************************//**
 731:Generated_Source\PSoC4/CapSense_Structure.c ****     *
 732:Generated_Source\PSoC4/CapSense_Structure.c ****     * \brief
 733:Generated_Source\PSoC4/CapSense_Structure.c ****     *   Configures the initial Adc datastructure members.
 734:Generated_Source\PSoC4/CapSense_Structure.c ****     *
 735:Generated_Source\PSoC4/CapSense_Structure.c ****     *******************************************************************************/
 736:Generated_Source\PSoC4/CapSense_Structure.c ****     void CapSense_AdcDsInitialize(void)
 737:Generated_Source\PSoC4/CapSense_Structure.c ****     {
 738:Generated_Source\PSoC4/CapSense_Structure.c ****         CapSense_dsRam.adcResolution = CapSense_ADC_RESOLUTION;
 739:Generated_Source\PSoC4/CapSense_Structure.c ****         CapSense_dsRam.adcIdac = (uint8)(CapSense_ADC_IDACVAL);
 740:Generated_Source\PSoC4/CapSense_Structure.c ****     }
 741:Generated_Source\PSoC4/CapSense_Structure.c **** #endif /* (0u != CapSense_ADC_EN) */
 742:Generated_Source\PSoC4/CapSense_Structure.c **** 
 743:Generated_Source\PSoC4/CapSense_Structure.c **** 
 744:Generated_Source\PSoC4/CapSense_Structure.c **** /*******************************************************************************
 745:Generated_Source\PSoC4/CapSense_Structure.c **** * Function Name: DsParseParamId
 746:Generated_Source\PSoC4/CapSense_Structure.c **** ****************************************************************************//**
 747:Generated_Source\PSoC4/CapSense_Structure.c **** *
 748:Generated_Source\PSoC4/CapSense_Structure.c **** * \brief
 749:Generated_Source\PSoC4/CapSense_Structure.c **** *   This function parses the parameter ID and checks its correctness.
 750:Generated_Source\PSoC4/CapSense_Structure.c **** *
 751:Generated_Source\PSoC4/CapSense_Structure.c **** * \details
 752:Generated_Source\PSoC4/CapSense_Structure.c **** *   This function checks the parameter CRC if the self-test is enabled, 
 753:Generated_Source\PSoC4/CapSense_Structure.c **** *   validates the offset value and parameter type.
 754:Generated_Source\PSoC4/CapSense_Structure.c **** *
 755:Generated_Source\PSoC4/CapSense_Structure.c **** * \param paramId The parameter to parse.
 756:Generated_Source\PSoC4/CapSense_Structure.c **** * \param pData   The pointer to the structure that will hold parsed data.
 757:Generated_Source\PSoC4/CapSense_Structure.c **** *
 758:Generated_Source\PSoC4/CapSense_Structure.c **** * \return CYRET_SUCCESS     If the parameter is valid
 759:Generated_Source\PSoC4/CapSense_Structure.c **** *         CYRET_BAD_PARAM   If  the parameter is invalid
 760:Generated_Source\PSoC4/CapSense_Structure.c **** *
 761:Generated_Source\PSoC4/CapSense_Structure.c **** *******************************************************************************/
 762:Generated_Source\PSoC4/CapSense_Structure.c **** static cystatus DsParseParamId(uint32 paramId, PARAM_ID_STRUCT *pData)
 763:Generated_Source\PSoC4/CapSense_Structure.c **** {
  25              		.loc 1 763 0
  26              		.cfi_startproc
  27              	.LVL0:
  28 0000 30B5     		push	{r4, r5, lr}
  29              		.cfi_def_cfa_offset 12
  30              		.cfi_offset 4, -12
  31              		.cfi_offset 5, -8
  32              		.cfi_offset 14, -4
  33              	.LVL1:
 764:Generated_Source\PSoC4/CapSense_Structure.c ****     cystatus result = CYRET_SUCCESS;
 765:Generated_Source\PSoC4/CapSense_Structure.c ****     
ARM GAS  C:\Users\TB1014~1\AppData\Local\Temp\ccn3i5XH.s 			page 15


 766:Generated_Source\PSoC4/CapSense_Structure.c ****     #if (0u != CapSense_SELF_TEST_EN)
 767:Generated_Source\PSoC4/CapSense_Structure.c ****         const uint8 crcTable[] =
 768:Generated_Source\PSoC4/CapSense_Structure.c ****         {
 769:Generated_Source\PSoC4/CapSense_Structure.c ****             0x00u, 0x09u, 0x0Bu, 0x02u, 0x0Fu, 0x06u, 0x04u, 0x0Du,
 770:Generated_Source\PSoC4/CapSense_Structure.c ****             0x07u, 0x0Eu, 0x0Cu, 0x05u, 0x08u, 0x01u, 0x03u, 0x0Au
 771:Generated_Source\PSoC4/CapSense_Structure.c ****         };
 772:Generated_Source\PSoC4/CapSense_Structure.c ****         
 773:Generated_Source\PSoC4/CapSense_Structure.c ****         uint32 i;
 774:Generated_Source\PSoC4/CapSense_Structure.c ****         uint32 actualCrc = 0u;
 775:Generated_Source\PSoC4/CapSense_Structure.c ****         uint32 crcIndex;
 776:Generated_Source\PSoC4/CapSense_Structure.c ****     #endif /* #if (0u != CapSense_SELF_TEST_EN) */
 777:Generated_Source\PSoC4/CapSense_Structure.c ****             
 778:Generated_Source\PSoC4/CapSense_Structure.c ****     /* Extract parameter data */
 779:Generated_Source\PSoC4/CapSense_Structure.c ****     pData->offset     = LO16(paramId);
  34              		.loc 1 779 0
  35 0002 84B2     		uxth	r4, r0
  36 0004 0C80     		strh	r4, [r1]
 780:Generated_Source\PSoC4/CapSense_Structure.c ****     pData->affectsCrc = LO8((paramId & PARAM_UBIT_MASK)  >> PARAM_UBIT_OFFSET);
  37              		.loc 1 780 0
  38 0006 0302     		lsl	r3, r0, #8
  39 0008 DB0F     		lsr	r3, r3, #31
  40 000a CB70     		strb	r3, [r1, #3]
 781:Generated_Source\PSoC4/CapSense_Structure.c ****     pData->widgetId   = LO8((paramId & PARAM_WDID_MASK)  >> PARAM_WDID_OFFSET);
  41              		.loc 1 781 0
  42 000c 4302     		lsl	r3, r0, #9
  43 000e 5B0E     		lsr	r3, r3, #25
  44 0010 8B70     		strb	r3, [r1, #2]
 782:Generated_Source\PSoC4/CapSense_Structure.c ****     pData->type       = LO8((paramId & PARAM_TYPE_MASK)  >> PARAM_TYPE_OFFSET);
  45              		.loc 1 782 0
  46 0012 850F     		lsr	r5, r0, #30
  47 0014 CD71     		strb	r5, [r1, #7]
 783:Generated_Source\PSoC4/CapSense_Structure.c ****     pData->flash      = LO8((paramId & PARAM_FBIT_MASK)  >> PARAM_FBIT_OFFSET);
  48              		.loc 1 783 0
  49 0016 C300     		lsl	r3, r0, #3
  50 0018 DB0F     		lsr	r3, r3, #31
  51 001a 4B71     		strb	r3, [r1, #5]
 784:Generated_Source\PSoC4/CapSense_Structure.c ****     pData->rw         = LO8((paramId & PARAM_RWBIT_MASK) >> PARAM_RWBIT_OFFSET);
  52              		.loc 1 784 0
  53 001c 8200     		lsl	r2, r0, #2
  54 001e D20F     		lsr	r2, r2, #31
  55 0020 8A71     		strb	r2, [r1, #6]
 785:Generated_Source\PSoC4/CapSense_Structure.c ****     pData->crc        = LO8((paramId & PARAM_CRC_MASK)   >> PARAM_CRC_OFFSET);
  56              		.loc 1 785 0
  57 0022 0001     		lsl	r0, r0, #4
  58              	.LVL2:
  59 0024 000F     		lsr	r0, r0, #28
  60 0026 0871     		strb	r0, [r1, #4]
 786:Generated_Source\PSoC4/CapSense_Structure.c ****     
 787:Generated_Source\PSoC4/CapSense_Structure.c ****     /* Check parameter CRC if self-test is enabled */
 788:Generated_Source\PSoC4/CapSense_Structure.c ****     #if (0u != CapSense_SELF_TEST_EN)
 789:Generated_Source\PSoC4/CapSense_Structure.c ****  
 790:Generated_Source\PSoC4/CapSense_Structure.c ****         /* Calculate CRC for bits 0..24.
 791:Generated_Source\PSoC4/CapSense_Structure.c ****          * The CRC is calculated using nibbles (4-bits). 
 792:Generated_Source\PSoC4/CapSense_Structure.c ****          * So for 0..24 bits there are in total 6 nibbles. */
 793:Generated_Source\PSoC4/CapSense_Structure.c ****         for (i = 6u; i > 0u; i--)
 794:Generated_Source\PSoC4/CapSense_Structure.c ****         {
 795:Generated_Source\PSoC4/CapSense_Structure.c ****             crcIndex = actualCrc ^ (paramId & 0x0Fu);
ARM GAS  C:\Users\TB1014~1\AppData\Local\Temp\ccn3i5XH.s 			page 16


 796:Generated_Source\PSoC4/CapSense_Structure.c ****             actualCrc = crcTable[crcIndex];
 797:Generated_Source\PSoC4/CapSense_Structure.c ****             paramId >>= 4u;
 798:Generated_Source\PSoC4/CapSense_Structure.c ****         }
 799:Generated_Source\PSoC4/CapSense_Structure.c **** 
 800:Generated_Source\PSoC4/CapSense_Structure.c ****         /* Add bits 28..32 */
 801:Generated_Source\PSoC4/CapSense_Structure.c ****         crcIndex = actualCrc ^ ((paramId >> 4u) & 0x0Fu);
 802:Generated_Source\PSoC4/CapSense_Structure.c ****         actualCrc = crcTable[crcIndex];
 803:Generated_Source\PSoC4/CapSense_Structure.c **** 
 804:Generated_Source\PSoC4/CapSense_Structure.c ****         /* Add bits 24..28 (CRC) */
 805:Generated_Source\PSoC4/CapSense_Structure.c ****         crcIndex = actualCrc ^ (paramId & 0x0Fu);
 806:Generated_Source\PSoC4/CapSense_Structure.c ****         actualCrc = crcTable[crcIndex];
 807:Generated_Source\PSoC4/CapSense_Structure.c ****         
 808:Generated_Source\PSoC4/CapSense_Structure.c ****         if (0u != actualCrc)
 809:Generated_Source\PSoC4/CapSense_Structure.c ****         {
 810:Generated_Source\PSoC4/CapSense_Structure.c ****             /* CRC mismatch */
 811:Generated_Source\PSoC4/CapSense_Structure.c ****             result = CYRET_BAD_PARAM;
 812:Generated_Source\PSoC4/CapSense_Structure.c ****         }
 813:Generated_Source\PSoC4/CapSense_Structure.c ****         
 814:Generated_Source\PSoC4/CapSense_Structure.c ****         if ((CYRET_SUCCESS == result) && 
 815:Generated_Source\PSoC4/CapSense_Structure.c ****             (0u != pData->affectsCrc) && (pData->widgetId >= CapSense_TOTAL_WIDGETS ))
 816:Generated_Source\PSoC4/CapSense_Structure.c ****         {
 817:Generated_Source\PSoC4/CapSense_Structure.c ****             /* Wrong widgetId for protected parameter */
 818:Generated_Source\PSoC4/CapSense_Structure.c ****             result = CYRET_BAD_PARAM;
 819:Generated_Source\PSoC4/CapSense_Structure.c ****         }
 820:Generated_Source\PSoC4/CapSense_Structure.c ****         
 821:Generated_Source\PSoC4/CapSense_Structure.c ****         /* Check offset value range */
 822:Generated_Source\PSoC4/CapSense_Structure.c ****         if (CYRET_SUCCESS == result)
 823:Generated_Source\PSoC4/CapSense_Structure.c ****         {
 824:Generated_Source\PSoC4/CapSense_Structure.c ****             if (0u == pData->flash)
 825:Generated_Source\PSoC4/CapSense_Structure.c ****             {
 826:Generated_Source\PSoC4/CapSense_Structure.c ****                 /* Check offset for RAM Data Structure range */
 827:Generated_Source\PSoC4/CapSense_Structure.c ****                 if (pData->offset >= sizeof(CapSense_dsRam))
 828:Generated_Source\PSoC4/CapSense_Structure.c ****                 {
 829:Generated_Source\PSoC4/CapSense_Structure.c ****                     result = CYRET_BAD_PARAM;
 830:Generated_Source\PSoC4/CapSense_Structure.c ****                 }
 831:Generated_Source\PSoC4/CapSense_Structure.c ****             }
 832:Generated_Source\PSoC4/CapSense_Structure.c ****             else
 833:Generated_Source\PSoC4/CapSense_Structure.c ****             {
 834:Generated_Source\PSoC4/CapSense_Structure.c ****                 /* Check offset for Flash Data Structure range */
 835:Generated_Source\PSoC4/CapSense_Structure.c ****                 if (pData->offset >= sizeof(CapSense_dsFlash))
 836:Generated_Source\PSoC4/CapSense_Structure.c ****                 {
 837:Generated_Source\PSoC4/CapSense_Structure.c ****                     result = CYRET_BAD_PARAM;
 838:Generated_Source\PSoC4/CapSense_Structure.c ****                 }
 839:Generated_Source\PSoC4/CapSense_Structure.c ****                 
 840:Generated_Source\PSoC4/CapSense_Structure.c ****                 /* Check if it is marked as Read Only */
 841:Generated_Source\PSoC4/CapSense_Structure.c ****                 if (0u != pData->rw)
 842:Generated_Source\PSoC4/CapSense_Structure.c ****                 {
 843:Generated_Source\PSoC4/CapSense_Structure.c ****                     result = CYRET_BAD_PARAM;
 844:Generated_Source\PSoC4/CapSense_Structure.c ****                 }
 845:Generated_Source\PSoC4/CapSense_Structure.c ****             }
 846:Generated_Source\PSoC4/CapSense_Structure.c ****         }
 847:Generated_Source\PSoC4/CapSense_Structure.c ****     #else /* #if (0u != CapSense_SELF_TEST_EN) */
 848:Generated_Source\PSoC4/CapSense_Structure.c ****         /* Check offset value range */
 849:Generated_Source\PSoC4/CapSense_Structure.c ****         if (0u == pData->flash)
  61              		.loc 1 849 0
  62 0028 002B     		cmp	r3, #0
  63 002a 05D1     		bne	.L2
ARM GAS  C:\Users\TB1014~1\AppData\Local\Temp\ccn3i5XH.s 			page 17


 850:Generated_Source\PSoC4/CapSense_Structure.c ****         {
 851:Generated_Source\PSoC4/CapSense_Structure.c ****             /* Check offset for RAM Data Structure range */
 852:Generated_Source\PSoC4/CapSense_Structure.c ****             if (pData->offset >= sizeof(CapSense_dsRam))
  64              		.loc 1 852 0
  65 002c 4423     		mov	r3, #68
  66 002e FF33     		add	r3, r3, #255
  67 0030 9C42     		cmp	r4, r3
  68 0032 0BD8     		bhi	.L9
 764:Generated_Source\PSoC4/CapSense_Structure.c ****     
  69              		.loc 1 764 0
  70 0034 0020     		mov	r0, #0
  71 0036 0CE0     		b	.L3
  72              	.L2:
 853:Generated_Source\PSoC4/CapSense_Structure.c ****             {
 854:Generated_Source\PSoC4/CapSense_Structure.c ****                 result = CYRET_BAD_PARAM;
 855:Generated_Source\PSoC4/CapSense_Structure.c ****             }
 856:Generated_Source\PSoC4/CapSense_Structure.c ****         }
 857:Generated_Source\PSoC4/CapSense_Structure.c ****         else
 858:Generated_Source\PSoC4/CapSense_Structure.c ****         {
 859:Generated_Source\PSoC4/CapSense_Structure.c ****             /* Check offset for Flash Data Structure range */
 860:Generated_Source\PSoC4/CapSense_Structure.c ****             if (pData->offset >= sizeof(CapSense_dsFlash))
  73              		.loc 1 860 0
  74 0038 2023     		mov	r3, #32
  75 003a FF33     		add	r3, r3, #255
  76 003c 9C42     		cmp	r4, r3
  77 003e 01D8     		bhi	.L10
 764:Generated_Source\PSoC4/CapSense_Structure.c ****     
  78              		.loc 1 764 0
  79 0040 0020     		mov	r0, #0
  80 0042 00E0     		b	.L4
  81              	.L10:
 861:Generated_Source\PSoC4/CapSense_Structure.c ****             {
 862:Generated_Source\PSoC4/CapSense_Structure.c ****                 result = CYRET_BAD_PARAM;
  82              		.loc 1 862 0
  83 0044 0120     		mov	r0, #1
  84              	.L4:
  85              	.LVL3:
 863:Generated_Source\PSoC4/CapSense_Structure.c ****             }
 864:Generated_Source\PSoC4/CapSense_Structure.c ****             
 865:Generated_Source\PSoC4/CapSense_Structure.c ****             /* Check if it is marked as Read Only */
 866:Generated_Source\PSoC4/CapSense_Structure.c ****             if (0u != pData->rw)
  86              		.loc 1 866 0
  87 0046 002A     		cmp	r2, #0
  88 0048 02D1     		bne	.L11
  89 004a 02E0     		b	.L3
  90              	.LVL4:
  91              	.L9:
 854:Generated_Source\PSoC4/CapSense_Structure.c ****             }
  92              		.loc 1 854 0
  93 004c 0120     		mov	r0, #1
  94 004e 00E0     		b	.L3
  95              	.LVL5:
  96              	.L11:
 867:Generated_Source\PSoC4/CapSense_Structure.c ****             {
 868:Generated_Source\PSoC4/CapSense_Structure.c ****                 result = CYRET_BAD_PARAM;
  97              		.loc 1 868 0
  98 0050 0120     		mov	r0, #1
ARM GAS  C:\Users\TB1014~1\AppData\Local\Temp\ccn3i5XH.s 			page 18


  99              	.LVL6:
 100              	.L3:
 869:Generated_Source\PSoC4/CapSense_Structure.c ****             }
 870:Generated_Source\PSoC4/CapSense_Structure.c ****         }
 871:Generated_Source\PSoC4/CapSense_Structure.c ****     #endif /* #if (0u != CapSense_SELF_TEST_EN) */
 872:Generated_Source\PSoC4/CapSense_Structure.c **** 
 873:Generated_Source\PSoC4/CapSense_Structure.c ****     if (CYRET_SUCCESS == result)
 101              		.loc 1 873 0
 102 0052 0028     		cmp	r0, #0
 103 0054 11D1     		bne	.L5
 874:Generated_Source\PSoC4/CapSense_Structure.c ****     {
 875:Generated_Source\PSoC4/CapSense_Structure.c ****         /* Check parameter type, offset alignment */
 876:Generated_Source\PSoC4/CapSense_Structure.c ****         switch (pData->type)
 104              		.loc 1 876 0
 105 0056 022D     		cmp	r5, #2
 106 0058 04D0     		beq	.L6
 107 005a 032D     		cmp	r5, #3
 108 005c 05D0     		beq	.L7
 109 005e 012D     		cmp	r5, #1
 110 0060 06D1     		bne	.L15
 111 0062 0AE0     		b	.L5
 112              	.L6:
 877:Generated_Source\PSoC4/CapSense_Structure.c ****         {
 878:Generated_Source\PSoC4/CapSense_Structure.c ****         case DS_PARAM_TYPE_UINT16:
 879:Generated_Source\PSoC4/CapSense_Structure.c ****             if (0u != (pData->offset & UINT16_ALIGN_MASK))
 113              		.loc 1 879 0
 114 0064 E307     		lsl	r3, r4, #31
 115 0066 05D4     		bmi	.L13
 116 0068 07E0     		b	.L5
 117              	.L7:
 880:Generated_Source\PSoC4/CapSense_Structure.c ****             {
 881:Generated_Source\PSoC4/CapSense_Structure.c ****                 result = CYRET_BAD_PARAM;
 882:Generated_Source\PSoC4/CapSense_Structure.c ****             }
 883:Generated_Source\PSoC4/CapSense_Structure.c ****             break;
 884:Generated_Source\PSoC4/CapSense_Structure.c ****             
 885:Generated_Source\PSoC4/CapSense_Structure.c ****         case DS_PARAM_TYPE_UINT32:
 886:Generated_Source\PSoC4/CapSense_Structure.c ****             if (0u != (pData->offset & UINT32_ALIGN_MASK))
 118              		.loc 1 886 0
 119 006a A307     		lsl	r3, r4, #30
 120 006c 04D1     		bne	.L14
 121 006e 04E0     		b	.L5
 122              	.L15:
 887:Generated_Source\PSoC4/CapSense_Structure.c ****             {
 888:Generated_Source\PSoC4/CapSense_Structure.c ****                 result = CYRET_BAD_PARAM;
 889:Generated_Source\PSoC4/CapSense_Structure.c ****             }
 890:Generated_Source\PSoC4/CapSense_Structure.c ****             break;
 891:Generated_Source\PSoC4/CapSense_Structure.c ****             
 892:Generated_Source\PSoC4/CapSense_Structure.c ****         case DS_PARAM_TYPE_UINT8:
 893:Generated_Source\PSoC4/CapSense_Structure.c ****             break;
 894:Generated_Source\PSoC4/CapSense_Structure.c ****             
 895:Generated_Source\PSoC4/CapSense_Structure.c ****         default:
 896:Generated_Source\PSoC4/CapSense_Structure.c ****             result = CYRET_BAD_PARAM;
 123              		.loc 1 896 0
 124 0070 0120     		mov	r0, #1
 125              	.LVL7:
 126 0072 02E0     		b	.L5
 127              	.LVL8:
ARM GAS  C:\Users\TB1014~1\AppData\Local\Temp\ccn3i5XH.s 			page 19


 128              	.L13:
 881:Generated_Source\PSoC4/CapSense_Structure.c ****             }
 129              		.loc 1 881 0
 130 0074 0120     		mov	r0, #1
 131              	.LVL9:
 132 0076 00E0     		b	.L5
 133              	.LVL10:
 134              	.L14:
 888:Generated_Source\PSoC4/CapSense_Structure.c ****             }
 135              		.loc 1 888 0
 136 0078 0120     		mov	r0, #1
 137              	.LVL11:
 138              	.L5:
 897:Generated_Source\PSoC4/CapSense_Structure.c ****             break;
 898:Generated_Source\PSoC4/CapSense_Structure.c ****         }
 899:Generated_Source\PSoC4/CapSense_Structure.c ****     }
 900:Generated_Source\PSoC4/CapSense_Structure.c **** 
 901:Generated_Source\PSoC4/CapSense_Structure.c ****     return result;
 902:Generated_Source\PSoC4/CapSense_Structure.c **** }
 139              		.loc 1 902 0
 140              		@ sp needed
 141 007a 30BD     		pop	{r4, r5, pc}
 142              		.cfi_endproc
 143              	.LFE2:
 144              		.size	DsParseParamId, .-DsParseParamId
 145              		.section	.text.CapSense_DsInitialize,"ax",%progbits
 146              		.align	2
 147              		.global	CapSense_DsInitialize
 148              		.code	16
 149              		.thumb_func
 150              		.type	CapSense_DsInitialize, %function
 151              	CapSense_DsInitialize:
 152              	.LFB1:
 646:Generated_Source\PSoC4/CapSense_Structure.c ****     #if (0u != CapSense_CSX_EN) || (0 != CapSense_CSD_IDAC_COMP_EN)
 153              		.loc 1 646 0
 154              		.cfi_startproc
 155 0000 38B5     		push	{r3, r4, r5, lr}
 156              		.cfi_def_cfa_offset 16
 157              		.cfi_offset 3, -16
 158              		.cfi_offset 4, -12
 159              		.cfi_offset 5, -8
 160              		.cfi_offset 14, -4
 161              	.LVL12:
 657:Generated_Source\PSoC4/CapSense_Structure.c ****     
 162              		.loc 1 657 0
 163 0002 174C     		ldr	r4, .L21
 164 0004 201C     		mov	r0, r4
 165 0006 0021     		mov	r1, #0
 166 0008 A222     		mov	r2, #162
 167 000a 5200     		lsl	r2, r2, #1
 168 000c FFF7FEFF 		bl	memset
 169              	.LVL13:
 660:Generated_Source\PSoC4/CapSense_Structure.c ****     CapSense_dsRam.deviceId = CapSense_DEVICE_ID;
 170              		.loc 1 660 0
 171 0010 144B     		ldr	r3, .L21+4
 172 0012 2380     		strh	r3, [r4]
 661:Generated_Source\PSoC4/CapSense_Structure.c ****     
ARM GAS  C:\Users\TB1014~1\AppData\Local\Temp\ccn3i5XH.s 			page 20


 173              		.loc 1 661 0
 174 0014 B023     		mov	r3, #176
 175 0016 5B00     		lsl	r3, r3, #1
 176 0018 6380     		strh	r3, [r4, #2]
 664:Generated_Source\PSoC4/CapSense_Structure.c **** 
 177              		.loc 1 664 0
 178 001a 593B     		sub	r3, r3, #89
 179 001c FF3B     		sub	r3, r3, #255
 180 001e A383     		strh	r3, [r4, #28]
 671:Generated_Source\PSoC4/CapSense_Structure.c ****         
 181              		.loc 1 671 0
 182 0020 073B     		sub	r3, r3, #7
 183 0022 A377     		strb	r3, [r4, #30]
 691:Generated_Source\PSoC4/CapSense_Structure.c ****     
 184              		.loc 1 691 0
 185 0024 201C     		mov	r0, r4
 186 0026 2030     		add	r0, r0, #32
 187 0028 0F49     		ldr	r1, .L21+8
 188 002a 3031     		add	r1, r1, #48
 189 002c 9222     		mov	r2, #146
 190 002e FFF7FEFF 		bl	memcpy
 191              	.LVL14:
 653:Generated_Source\PSoC4/CapSense_Structure.c ****     #endif        
 192              		.loc 1 653 0
 193 0032 0E49     		ldr	r1, .L21+12
 695:Generated_Source\PSoC4/CapSense_Structure.c ****         
 194              		.loc 1 695 0
 195 0034 0C1C     		mov	r4, r1
 196 0036 1034     		add	r4, r4, #16
 697:Generated_Source\PSoC4/CapSense_Structure.c ****         {
 197              		.loc 1 697 0
 198 0038 0823     		mov	r3, #8
 199 003a 0CE0     		b	.L17
 200              	.LVL15:
 201              	.L20:
 699:Generated_Source\PSoC4/CapSense_Structure.c ****                 
 202              		.loc 1 699 0
 203 003c A268     		ldr	r2, [r4, #8]
 204              	.LVL16:
 701:Generated_Source\PSoC4/CapSense_Structure.c ****             {
 205              		.loc 1 701 0
 206 003e E38A     		ldrh	r3, [r4, #22]
 207              	.LVL17:
 208 0040 04E0     		b	.L18
 209              	.LVL18:
 210              	.L19:
 703:Generated_Source\PSoC4/CapSense_Structure.c ****                 ptrIdacInit++;
 211              		.loc 1 703 0
 212 0042 0B78     		ldrb	r3, [r1]
 213 0044 5372     		strb	r3, [r2, #9]
 704:Generated_Source\PSoC4/CapSense_Structure.c ****                 
 214              		.loc 1 704 0
 215 0046 0131     		add	r1, r1, #1
 216              	.LVL19:
 714:Generated_Source\PSoC4/CapSense_Structure.c ****             }
 217              		.loc 1 714 0
 218 0048 0A32     		add	r2, r2, #10
ARM GAS  C:\Users\TB1014~1\AppData\Local\Temp\ccn3i5XH.s 			page 21


 219              	.LVL20:
 701:Generated_Source\PSoC4/CapSense_Structure.c ****             {
 220              		.loc 1 701 0
 221 004a 031C     		mov	r3, r0
 222              	.LVL21:
 223              	.L18:
 701:Generated_Source\PSoC4/CapSense_Structure.c ****             {
 224              		.loc 1 701 0 is_stmt 0 discriminator 1
 225 004c 581E     		sub	r0, r3, #1
 226              	.LVL22:
 227 004e 002B     		cmp	r3, #0
 228 0050 F7D1     		bne	.L19
 717:Generated_Source\PSoC4/CapSense_Structure.c ****         }
 229              		.loc 1 717 0 is_stmt 1
 230 0052 2434     		add	r4, r4, #36
 231              	.LVL23:
 697:Generated_Source\PSoC4/CapSense_Structure.c ****         {
 232              		.loc 1 697 0
 233 0054 2B1C     		mov	r3, r5
 234              	.LVL24:
 235              	.L17:
 697:Generated_Source\PSoC4/CapSense_Structure.c ****         {
 236              		.loc 1 697 0 is_stmt 0 discriminator 1
 237 0056 5D1E     		sub	r5, r3, #1
 238              	.LVL25:
 239 0058 002B     		cmp	r3, #0
 240 005a EFD1     		bne	.L20
 724:Generated_Source\PSoC4/CapSense_Structure.c **** 
 241              		.loc 1 724 0 is_stmt 1
 242              		@ sp needed
 243              	.LVL26:
 244              	.LVL27:
 245 005c 38BD     		pop	{r3, r4, r5, pc}
 246              	.L22:
 247 005e C046     		.align	2
 248              	.L21:
 249 0060 00000000 		.word	CapSense_dsRam
 250 0064 38310000 		.word	12600
 251 0068 00010000 		.word	.LANCHOR1
 252 006c 00000000 		.word	.LANCHOR0
 253              		.cfi_endproc
 254              	.LFE1:
 255              		.size	CapSense_DsInitialize, .-CapSense_DsInitialize
 256              		.section	.text.CapSense_GetParam,"ax",%progbits
 257              		.align	2
 258              		.global	CapSense_GetParam
 259              		.code	16
 260              		.thumb_func
 261              		.type	CapSense_GetParam, %function
 262              	CapSense_GetParam:
 263              	.LFB3:
 903:Generated_Source\PSoC4/CapSense_Structure.c **** 
 904:Generated_Source\PSoC4/CapSense_Structure.c **** /*******************************************************************************
 905:Generated_Source\PSoC4/CapSense_Structure.c **** * Function Name: CapSense_GetParam
 906:Generated_Source\PSoC4/CapSense_Structure.c **** ****************************************************************************//**
 907:Generated_Source\PSoC4/CapSense_Structure.c **** *
 908:Generated_Source\PSoC4/CapSense_Structure.c **** * \brief
ARM GAS  C:\Users\TB1014~1\AppData\Local\Temp\ccn3i5XH.s 			page 22


 909:Generated_Source\PSoC4/CapSense_Structure.c **** *  Gets the specified parameter value from the \ref group_structures.
 910:Generated_Source\PSoC4/CapSense_Structure.c **** *
 911:Generated_Source\PSoC4/CapSense_Structure.c **** * \details
 912:Generated_Source\PSoC4/CapSense_Structure.c **** *  This function gets the value of the specified parameter by the paramId 
 913:Generated_Source\PSoC4/CapSense_Structure.c **** *  argument. The paramId for each register is available in the 
 914:Generated_Source\PSoC4/CapSense_Structure.c **** *  CapSense RegisterMap header file as 
 915:Generated_Source\PSoC4/CapSense_Structure.c **** *  CapSense_<ParameterName>_PARAM_ID. The paramId is a special 
 916:Generated_Source\PSoC4/CapSense_Structure.c **** *  enumerated value generated by the customizer. The format of paramId is as 
 917:Generated_Source\PSoC4/CapSense_Structure.c **** *  follows:
 918:Generated_Source\PSoC4/CapSense_Structure.c **** *    1. [ byte 3 byte 2 byte 1 byte 0 ] 
 919:Generated_Source\PSoC4/CapSense_Structure.c **** *    2. [ TTWFCCCC UIIIIIII MMMMMMMM LLLLLLLL ]
 920:Generated_Source\PSoC4/CapSense_Structure.c **** *    3. T - encodes the parameter type:
 921:Generated_Source\PSoC4/CapSense_Structure.c **** *      - 01b: uint8
 922:Generated_Source\PSoC4/CapSense_Structure.c **** *      - 10b: uint16
 923:Generated_Source\PSoC4/CapSense_Structure.c **** *      - 11b: uint32
 924:Generated_Source\PSoC4/CapSense_Structure.c **** *    4. W - indicates whether the parameter is writable:
 925:Generated_Source\PSoC4/CapSense_Structure.c **** *      - 0: ReadOnly
 926:Generated_Source\PSoC4/CapSense_Structure.c **** *      - 1: Read/Write
 927:Generated_Source\PSoC4/CapSense_Structure.c **** *    5. C - 4 bit CRC (X^3 + 1) of the whole paramId word, the C bits are 
 928:Generated_Source\PSoC4/CapSense_Structure.c **** *       filled with 0s when the CRC is calculated.
 929:Generated_Source\PSoC4/CapSense_Structure.c **** *    6. U - indicates if the parameter affects the RAM Widget Object CRC.
 930:Generated_Source\PSoC4/CapSense_Structure.c **** *    7. I - specifies that the widgetID parameter belongs to
 931:Generated_Source\PSoC4/CapSense_Structure.c **** *    8. M,L - the parameter offset MSB and LSB accordingly in:
 932:Generated_Source\PSoC4/CapSense_Structure.c **** *      - Flash Data Structure if W bit is 0.
 933:Generated_Source\PSoC4/CapSense_Structure.c **** *      - RAM Data Structure if W bit is 1.
 934:Generated_Source\PSoC4/CapSense_Structure.c **** *
 935:Generated_Source\PSoC4/CapSense_Structure.c **** *  Refer to the \ref group_structures section for details of the data structure 
 936:Generated_Source\PSoC4/CapSense_Structure.c **** *  organization and examples of its register access.
 937:Generated_Source\PSoC4/CapSense_Structure.c **** *
 938:Generated_Source\PSoC4/CapSense_Structure.c **** * \param  paramId 
 939:Generated_Source\PSoC4/CapSense_Structure.c **** *  Specify the ID of parameter to get its value.
 940:Generated_Source\PSoC4/CapSense_Structure.c **** *  A macro for the parameter ID can be found in the CapSense RegisterMap header 
 941:Generated_Source\PSoC4/CapSense_Structure.c **** *  file defined as CapSense_<ParameterName>_PARAM_ID.
 942:Generated_Source\PSoC4/CapSense_Structure.c **** *
 943:Generated_Source\PSoC4/CapSense_Structure.c **** * \param  value   
 944:Generated_Source\PSoC4/CapSense_Structure.c **** *  The pointer to a variable that should be updated with the got value.
 945:Generated_Source\PSoC4/CapSense_Structure.c **** *
 946:Generated_Source\PSoC4/CapSense_Structure.c **** * \return
 947:Generated_Source\PSoC4/CapSense_Structure.c **** *  Returns the status of operation:
 948:Generated_Source\PSoC4/CapSense_Structure.c **** *    - CYRET_SUCCESS if the operation is successfully completed.
 949:Generated_Source\PSoC4/CapSense_Structure.c **** *    - CYRET_BAD_PARAM if the input parameter is invalid. 
 950:Generated_Source\PSoC4/CapSense_Structure.c **** *
 951:Generated_Source\PSoC4/CapSense_Structure.c **** *******************************************************************************/
 952:Generated_Source\PSoC4/CapSense_Structure.c **** cystatus CapSense_GetParam(uint32 paramId, uint32 *value)
 953:Generated_Source\PSoC4/CapSense_Structure.c **** {
 264              		.loc 1 953 0
 265              		.cfi_startproc
 266              	.LVL28:
 267 0000 30B5     		push	{r4, r5, lr}
 268              		.cfi_def_cfa_offset 12
 269              		.cfi_offset 4, -12
 270              		.cfi_offset 5, -8
 271              		.cfi_offset 14, -4
 272 0002 83B0     		sub	sp, sp, #12
 273              		.cfi_def_cfa_offset 24
 274 0004 0D1C     		mov	r5, r1
 954:Generated_Source\PSoC4/CapSense_Structure.c ****     PARAM_ID_STRUCT pData;
ARM GAS  C:\Users\TB1014~1\AppData\Local\Temp\ccn3i5XH.s 			page 23


 955:Generated_Source\PSoC4/CapSense_Structure.c ****     cystatus result;
 956:Generated_Source\PSoC4/CapSense_Structure.c ****     
 957:Generated_Source\PSoC4/CapSense_Structure.c ****     union
 958:Generated_Source\PSoC4/CapSense_Structure.c ****     {
 959:Generated_Source\PSoC4/CapSense_Structure.c ****         volatile void   const * ptr;
 960:Generated_Source\PSoC4/CapSense_Structure.c ****         volatile uint8  const * ptrUint8;
 961:Generated_Source\PSoC4/CapSense_Structure.c ****         volatile uint16 const * ptrUint16;
 962:Generated_Source\PSoC4/CapSense_Structure.c ****         volatile uint32 const * ptrUint32;
 963:Generated_Source\PSoC4/CapSense_Structure.c ****     } ptrData;
 964:Generated_Source\PSoC4/CapSense_Structure.c ****     
 965:Generated_Source\PSoC4/CapSense_Structure.c ****     result = DsParseParamId(paramId, &pData);
 275              		.loc 1 965 0
 276 0006 6946     		mov	r1, sp
 277              	.LVL29:
 278 0008 FFF7FEFF 		bl	DsParseParamId
 279              	.LVL30:
 280 000c 041E     		sub	r4, r0, #0
 281              	.LVL31:
 966:Generated_Source\PSoC4/CapSense_Structure.c ****     
 967:Generated_Source\PSoC4/CapSense_Structure.c ****     /* Parse and validate paramId */
 968:Generated_Source\PSoC4/CapSense_Structure.c ****     if (CYRET_SUCCESS == result)
 282              		.loc 1 968 0
 283 000e 1FD1     		bne	.L24
 969:Generated_Source\PSoC4/CapSense_Structure.c ****     {
 970:Generated_Source\PSoC4/CapSense_Structure.c ****         /* Get base address of parameter */
 971:Generated_Source\PSoC4/CapSense_Structure.c ****         if (0u == pData.flash)
 284              		.loc 1 971 0
 285 0010 6B46     		mov	r3, sp
 286 0012 5B79     		ldrb	r3, [r3, #5]
 287 0014 002B     		cmp	r3, #0
 288 0016 01D1     		bne	.L25
 972:Generated_Source\PSoC4/CapSense_Structure.c ****         {
 973:Generated_Source\PSoC4/CapSense_Structure.c ****             ptrData.ptr = &CapSense_dsRam;
 289              		.loc 1 973 0
 290 0018 0F4A     		ldr	r2, .L30
 291              	.LVL32:
 292 001a 02E0     		b	.L26
 293              	.L25:
 974:Generated_Source\PSoC4/CapSense_Structure.c ****         }
 975:Generated_Source\PSoC4/CapSense_Structure.c ****         else
 976:Generated_Source\PSoC4/CapSense_Structure.c ****         {
 977:Generated_Source\PSoC4/CapSense_Structure.c ****             ptrData.ptr = &CapSense_dsFlash;
 294              		.loc 1 977 0
 295 001c 0F4B     		ldr	r3, .L30+4
 296              	.LVL33:
 297 001e 1033     		add	r3, r3, #16
 298              	.LVL34:
 299 0020 1A1C     		mov	r2, r3
 300              	.L26:
 978:Generated_Source\PSoC4/CapSense_Structure.c ****         }
 979:Generated_Source\PSoC4/CapSense_Structure.c ****         
 980:Generated_Source\PSoC4/CapSense_Structure.c ****         /* Add offset to base address */
 981:Generated_Source\PSoC4/CapSense_Structure.c ****         ptrData.ptrUint8 += pData.offset;
 301              		.loc 1 981 0
 302 0022 6B46     		mov	r3, sp
 303              	.LVL35:
 304 0024 1B88     		ldrh	r3, [r3]
ARM GAS  C:\Users\TB1014~1\AppData\Local\Temp\ccn3i5XH.s 			page 24


 305              	.LVL36:
 306 0026 D318     		add	r3, r2, r3
 982:Generated_Source\PSoC4/CapSense_Structure.c ****         
 983:Generated_Source\PSoC4/CapSense_Structure.c ****         /* Read data */
 984:Generated_Source\PSoC4/CapSense_Structure.c ****         if (DS_PARAM_TYPE_UINT8 == pData.type)
 307              		.loc 1 984 0
 308 0028 6A46     		mov	r2, sp
 309              	.LVL37:
 310 002a D279     		ldrb	r2, [r2, #7]
 311 002c 012A     		cmp	r2, #1
 312 002e 02D1     		bne	.L27
 985:Generated_Source\PSoC4/CapSense_Structure.c ****         {
 986:Generated_Source\PSoC4/CapSense_Structure.c ****             *value = (uint32) (*ptrData.ptrUint8);
 313              		.loc 1 986 0
 314 0030 1B78     		ldrb	r3, [r3]
 315 0032 2B60     		str	r3, [r5]
 316 0034 0CE0     		b	.L24
 317              	.L27:
 987:Generated_Source\PSoC4/CapSense_Structure.c ****         }
 988:Generated_Source\PSoC4/CapSense_Structure.c ****         else if (DS_PARAM_TYPE_UINT16 == pData.type)
 318              		.loc 1 988 0
 319 0036 022A     		cmp	r2, #2
 320 0038 02D1     		bne	.L28
 989:Generated_Source\PSoC4/CapSense_Structure.c ****         {
 990:Generated_Source\PSoC4/CapSense_Structure.c ****             *value = (uint32) (*ptrData.ptrUint16);
 321              		.loc 1 990 0
 322 003a 1B88     		ldrh	r3, [r3]
 323 003c 2B60     		str	r3, [r5]
 324 003e 07E0     		b	.L24
 325              	.L28:
 991:Generated_Source\PSoC4/CapSense_Structure.c ****         }
 992:Generated_Source\PSoC4/CapSense_Structure.c ****         else if (DS_PARAM_TYPE_UINT32 == pData.type)
 326              		.loc 1 992 0
 327 0040 032A     		cmp	r2, #3
 328 0042 02D1     		bne	.L29
 993:Generated_Source\PSoC4/CapSense_Structure.c ****         {
 994:Generated_Source\PSoC4/CapSense_Structure.c ****             *value = *ptrData.ptrUint32;
 329              		.loc 1 994 0
 330 0044 1B68     		ldr	r3, [r3]
 331 0046 2B60     		str	r3, [r5]
 332 0048 02E0     		b	.L24
 333              	.L29:
 995:Generated_Source\PSoC4/CapSense_Structure.c ****         }
 996:Generated_Source\PSoC4/CapSense_Structure.c ****         else
 997:Generated_Source\PSoC4/CapSense_Structure.c ****         {
 998:Generated_Source\PSoC4/CapSense_Structure.c ****             /* Parameter comes here already validated. */
 999:Generated_Source\PSoC4/CapSense_Structure.c ****             CYASSERT(0u);
 334              		.loc 1 999 0 discriminator 1
 335 004a 0020     		mov	r0, #0
 336              	.LVL38:
 337 004c FFF7FEFF 		bl	CyHalt
 338              	.LVL39:
 339              	.L24:
1000:Generated_Source\PSoC4/CapSense_Structure.c ****         }
1001:Generated_Source\PSoC4/CapSense_Structure.c ****     }
1002:Generated_Source\PSoC4/CapSense_Structure.c ****     
1003:Generated_Source\PSoC4/CapSense_Structure.c ****     return result;
ARM GAS  C:\Users\TB1014~1\AppData\Local\Temp\ccn3i5XH.s 			page 25


1004:Generated_Source\PSoC4/CapSense_Structure.c **** }
 340              		.loc 1 1004 0
 341 0050 201C     		mov	r0, r4
 342 0052 03B0     		add	sp, sp, #12
 343              		@ sp needed
 344              	.LVL40:
 345              	.LVL41:
 346 0054 30BD     		pop	{r4, r5, pc}
 347              	.L31:
 348 0056 C046     		.align	2
 349              	.L30:
 350 0058 00000000 		.word	CapSense_dsRam
 351 005c 00000000 		.word	.LANCHOR0
 352              		.cfi_endproc
 353              	.LFE3:
 354              		.size	CapSense_GetParam, .-CapSense_GetParam
 355              		.section	.text.CapSense_SetParam,"ax",%progbits
 356              		.align	2
 357              		.global	CapSense_SetParam
 358              		.code	16
 359              		.thumb_func
 360              		.type	CapSense_SetParam, %function
 361              	CapSense_SetParam:
 362              	.LFB4:
1005:Generated_Source\PSoC4/CapSense_Structure.c **** 
1006:Generated_Source\PSoC4/CapSense_Structure.c **** 
1007:Generated_Source\PSoC4/CapSense_Structure.c **** /*******************************************************************************
1008:Generated_Source\PSoC4/CapSense_Structure.c **** * Function Name: CapSense_SetParam
1009:Generated_Source\PSoC4/CapSense_Structure.c **** ****************************************************************************//**
1010:Generated_Source\PSoC4/CapSense_Structure.c **** *
1011:Generated_Source\PSoC4/CapSense_Structure.c **** * \brief
1012:Generated_Source\PSoC4/CapSense_Structure.c **** *  Sets a new value for the specified parameter in the \ref group_structures.
1013:Generated_Source\PSoC4/CapSense_Structure.c **** *
1014:Generated_Source\PSoC4/CapSense_Structure.c **** * \details
1015:Generated_Source\PSoC4/CapSense_Structure.c **** *  This function sets the value of the specified parameter by the paramId 
1016:Generated_Source\PSoC4/CapSense_Structure.c **** *  argument. The paramId for each register is available in the 
1017:Generated_Source\PSoC4/CapSense_Structure.c **** *  CapSense RegisterMap header file as 
1018:Generated_Source\PSoC4/CapSense_Structure.c **** *  CapSense_<ParameterName>_PARAM_ID. The paramId is a special 
1019:Generated_Source\PSoC4/CapSense_Structure.c **** *  enumerated value generated by the customizer. The format of paramId is as 
1020:Generated_Source\PSoC4/CapSense_Structure.c **** *  follows:
1021:Generated_Source\PSoC4/CapSense_Structure.c **** *    1. [ byte 3 byte 2 byte 1 byte 0 ] 
1022:Generated_Source\PSoC4/CapSense_Structure.c **** *    2. [ TTWFCCCC UIIIIIII MMMMMMMM LLLLLLLL ]
1023:Generated_Source\PSoC4/CapSense_Structure.c **** *    3. T - encodes the parameter type:
1024:Generated_Source\PSoC4/CapSense_Structure.c **** *      - 01b: uint8
1025:Generated_Source\PSoC4/CapSense_Structure.c **** *      - 10b: uint16
1026:Generated_Source\PSoC4/CapSense_Structure.c **** *      - 11b: uint32
1027:Generated_Source\PSoC4/CapSense_Structure.c **** *    4. W - indicates whether the parameter is writable:
1028:Generated_Source\PSoC4/CapSense_Structure.c **** *      - 0: ReadOnly
1029:Generated_Source\PSoC4/CapSense_Structure.c **** *      - 1: Read/Write
1030:Generated_Source\PSoC4/CapSense_Structure.c **** *    5. C - 4 bit CRC (X^3 + 1) of the whole paramId word, the C bits are 
1031:Generated_Source\PSoC4/CapSense_Structure.c **** *       filled with 0s when the CRC is calculated.
1032:Generated_Source\PSoC4/CapSense_Structure.c **** *    6. U - indicates if the parameter affects the RAM Widget Object CRC.
1033:Generated_Source\PSoC4/CapSense_Structure.c **** *    7. I - specifies that the widgetID parameter belongs to
1034:Generated_Source\PSoC4/CapSense_Structure.c **** *    8. M,L - the parameter offset MSB and LSB accordingly in:
1035:Generated_Source\PSoC4/CapSense_Structure.c **** *      - Flash Data Structure if W bit is 0.
1036:Generated_Source\PSoC4/CapSense_Structure.c **** *      - RAM Data Structure if W bit is 1.
1037:Generated_Source\PSoC4/CapSense_Structure.c **** *
ARM GAS  C:\Users\TB1014~1\AppData\Local\Temp\ccn3i5XH.s 			page 26


1038:Generated_Source\PSoC4/CapSense_Structure.c **** *  Refer to the \ref group_structures section for details of the data structure 
1039:Generated_Source\PSoC4/CapSense_Structure.c **** *  organization and examples of its register access.
1040:Generated_Source\PSoC4/CapSense_Structure.c **** *
1041:Generated_Source\PSoC4/CapSense_Structure.c **** * \param paramId  
1042:Generated_Source\PSoC4/CapSense_Structure.c **** *  Specify the ID of parameter to set its value.
1043:Generated_Source\PSoC4/CapSense_Structure.c **** *  A macro for the parameter ID can be found in the CapSense RegisterMap header
1044:Generated_Source\PSoC4/CapSense_Structure.c **** *  file defined as CapSense_<ParameterName>_PARAM_ID.
1045:Generated_Source\PSoC4/CapSense_Structure.c **** 
1046:Generated_Source\PSoC4/CapSense_Structure.c **** * \param value    
1047:Generated_Source\PSoC4/CapSense_Structure.c **** *  Specify the new parameter's value.
1048:Generated_Source\PSoC4/CapSense_Structure.c **** *
1049:Generated_Source\PSoC4/CapSense_Structure.c **** * \return
1050:Generated_Source\PSoC4/CapSense_Structure.c **** *  Returns the status of operation:
1051:Generated_Source\PSoC4/CapSense_Structure.c **** *    - CYRET_SUCCESS if the operation is successfully completed.
1052:Generated_Source\PSoC4/CapSense_Structure.c **** *    - CYRET_BAD_PARAM if the input parameter is invalid. 
1053:Generated_Source\PSoC4/CapSense_Structure.c **** *
1054:Generated_Source\PSoC4/CapSense_Structure.c **** *******************************************************************************/
1055:Generated_Source\PSoC4/CapSense_Structure.c **** cystatus CapSense_SetParam(uint32 paramId, uint32 value)
1056:Generated_Source\PSoC4/CapSense_Structure.c **** {
 363              		.loc 1 1056 0
 364              		.cfi_startproc
 365              	.LVL42:
 366 0000 30B5     		push	{r4, r5, lr}
 367              		.cfi_def_cfa_offset 12
 368              		.cfi_offset 4, -12
 369              		.cfi_offset 5, -8
 370              		.cfi_offset 14, -4
 371 0002 83B0     		sub	sp, sp, #12
 372              		.cfi_def_cfa_offset 24
 373 0004 0D1C     		mov	r5, r1
1057:Generated_Source\PSoC4/CapSense_Structure.c ****     cystatus result;
1058:Generated_Source\PSoC4/CapSense_Structure.c ****     PARAM_ID_STRUCT pData;
1059:Generated_Source\PSoC4/CapSense_Structure.c ****     
1060:Generated_Source\PSoC4/CapSense_Structure.c ****     union
1061:Generated_Source\PSoC4/CapSense_Structure.c ****     {
1062:Generated_Source\PSoC4/CapSense_Structure.c ****         volatile void   * ptr;
1063:Generated_Source\PSoC4/CapSense_Structure.c ****         volatile uint8  * ptrUint8;
1064:Generated_Source\PSoC4/CapSense_Structure.c ****         volatile uint16 * ptrUint16;
1065:Generated_Source\PSoC4/CapSense_Structure.c ****         volatile uint32 * ptrUint32;
1066:Generated_Source\PSoC4/CapSense_Structure.c ****     } ptrData;
1067:Generated_Source\PSoC4/CapSense_Structure.c ****     
1068:Generated_Source\PSoC4/CapSense_Structure.c ****     result = DsParseParamId(paramId, &pData);
 374              		.loc 1 1068 0
 375 0006 6946     		mov	r1, sp
 376              	.LVL43:
 377 0008 FFF7FEFF 		bl	DsParseParamId
 378              	.LVL44:
 379 000c 041E     		sub	r4, r0, #0
 380              	.LVL45:
1069:Generated_Source\PSoC4/CapSense_Structure.c ****     
1070:Generated_Source\PSoC4/CapSense_Structure.c ****     /* verify if parameter is writable */
1071:Generated_Source\PSoC4/CapSense_Structure.c ****     if (CYRET_SUCCESS == result)
 381              		.loc 1 1071 0
 382 000e 04D1     		bne	.L33
1072:Generated_Source\PSoC4/CapSense_Structure.c ****     {
1073:Generated_Source\PSoC4/CapSense_Structure.c ****         if (0u == pData.rw)
 383              		.loc 1 1073 0
ARM GAS  C:\Users\TB1014~1\AppData\Local\Temp\ccn3i5XH.s 			page 27


 384 0010 6B46     		mov	r3, sp
 385 0012 9B79     		ldrb	r3, [r3, #6]
 386 0014 002B     		cmp	r3, #0
 387 0016 00D1     		bne	.L33
1074:Generated_Source\PSoC4/CapSense_Structure.c ****         {
1075:Generated_Source\PSoC4/CapSense_Structure.c ****             result = CYRET_BAD_PARAM;
 388              		.loc 1 1075 0
 389 0018 0134     		add	r4, r4, #1
 390              	.L33:
 391              	.LVL46:
1076:Generated_Source\PSoC4/CapSense_Structure.c ****         }
1077:Generated_Source\PSoC4/CapSense_Structure.c ****     }
1078:Generated_Source\PSoC4/CapSense_Structure.c ****     
1079:Generated_Source\PSoC4/CapSense_Structure.c ****     /* Parse and validate paramId */
1080:Generated_Source\PSoC4/CapSense_Structure.c ****     if (CYRET_SUCCESS == result)
 392              		.loc 1 1080 0
 393 001a 002C     		cmp	r4, #0
 394 001c 16D1     		bne	.L34
1081:Generated_Source\PSoC4/CapSense_Structure.c ****     {
1082:Generated_Source\PSoC4/CapSense_Structure.c ****         /* Get base address of parameter */
1083:Generated_Source\PSoC4/CapSense_Structure.c ****         ptrData.ptr = &CapSense_dsRam;
1084:Generated_Source\PSoC4/CapSense_Structure.c ****         
1085:Generated_Source\PSoC4/CapSense_Structure.c ****         /* Add offset to base address */
1086:Generated_Source\PSoC4/CapSense_Structure.c ****         ptrData.ptrUint8 += pData.offset;
 395              		.loc 1 1086 0
 396 001e 6B46     		mov	r3, sp
 397 0020 1A88     		ldrh	r2, [r3]
 398 0022 0C4B     		ldr	r3, .L39
 399 0024 D318     		add	r3, r2, r3
1087:Generated_Source\PSoC4/CapSense_Structure.c ****         
1088:Generated_Source\PSoC4/CapSense_Structure.c ****         /* Write data */
1089:Generated_Source\PSoC4/CapSense_Structure.c ****         if (DS_PARAM_TYPE_UINT8 == pData.type)
 400              		.loc 1 1089 0
 401 0026 6A46     		mov	r2, sp
 402 0028 D279     		ldrb	r2, [r2, #7]
 403 002a 012A     		cmp	r2, #1
 404 002c 02D1     		bne	.L35
1090:Generated_Source\PSoC4/CapSense_Structure.c ****         {
1091:Generated_Source\PSoC4/CapSense_Structure.c ****             *ptrData.ptrUint8 = LO8(value);
 405              		.loc 1 1091 0
 406 002e EDB2     		uxtb	r5, r5
 407              	.LVL47:
 408 0030 1D70     		strb	r5, [r3]
 409 0032 0BE0     		b	.L34
 410              	.LVL48:
 411              	.L35:
1092:Generated_Source\PSoC4/CapSense_Structure.c ****         }
1093:Generated_Source\PSoC4/CapSense_Structure.c ****         else if (DS_PARAM_TYPE_UINT16 == pData.type)
 412              		.loc 1 1093 0
 413 0034 022A     		cmp	r2, #2
 414 0036 02D1     		bne	.L36
1094:Generated_Source\PSoC4/CapSense_Structure.c ****         {
1095:Generated_Source\PSoC4/CapSense_Structure.c ****             *ptrData.ptrUint16 = LO16(value);
 415              		.loc 1 1095 0
 416 0038 ADB2     		uxth	r5, r5
 417              	.LVL49:
 418 003a 1D80     		strh	r5, [r3]
ARM GAS  C:\Users\TB1014~1\AppData\Local\Temp\ccn3i5XH.s 			page 28


 419 003c 06E0     		b	.L34
 420              	.LVL50:
 421              	.L36:
1096:Generated_Source\PSoC4/CapSense_Structure.c ****         }
1097:Generated_Source\PSoC4/CapSense_Structure.c ****         else if (DS_PARAM_TYPE_UINT32 == pData.type)
 422              		.loc 1 1097 0
 423 003e 032A     		cmp	r2, #3
 424 0040 01D1     		bne	.L37
1098:Generated_Source\PSoC4/CapSense_Structure.c ****         {
1099:Generated_Source\PSoC4/CapSense_Structure.c ****             *ptrData.ptrUint32 = value;
 425              		.loc 1 1099 0
 426 0042 1D60     		str	r5, [r3]
 427 0044 02E0     		b	.L34
 428              	.L37:
1100:Generated_Source\PSoC4/CapSense_Structure.c ****         }
1101:Generated_Source\PSoC4/CapSense_Structure.c ****         else
1102:Generated_Source\PSoC4/CapSense_Structure.c ****         {
1103:Generated_Source\PSoC4/CapSense_Structure.c ****             /* Parameter comes here already validated. */
1104:Generated_Source\PSoC4/CapSense_Structure.c ****             CYASSERT(0u);
 429              		.loc 1 1104 0 discriminator 1
 430 0046 0020     		mov	r0, #0
 431 0048 FFF7FEFF 		bl	CyHalt
 432              	.LVL51:
 433              	.L34:
1105:Generated_Source\PSoC4/CapSense_Structure.c ****         }
1106:Generated_Source\PSoC4/CapSense_Structure.c ****         
1107:Generated_Source\PSoC4/CapSense_Structure.c ****         #if (CapSense_ENABLE == (CapSense_TST_WDGT_CRC_EN || CapSense_TST_GLOBAL_CRC_EN))
1108:Generated_Source\PSoC4/CapSense_Structure.c ****             /* Update widget or global CRC if self-test is enabled and parameter affects it */
1109:Generated_Source\PSoC4/CapSense_Structure.c ****             if (0u != pData.affectsCrc)
1110:Generated_Source\PSoC4/CapSense_Structure.c ****             {
1111:Generated_Source\PSoC4/CapSense_Structure.c ****                 if ((ptrData.ptrUint16 >= &CapSense_dsRam.csd0Config) &&
1112:Generated_Source\PSoC4/CapSense_Structure.c ****                     (ptrData.ptrUint16 <  &CapSense_dsRam.glbCrc))
1113:Generated_Source\PSoC4/CapSense_Structure.c ****                 {
1114:Generated_Source\PSoC4/CapSense_Structure.c ****                     
1115:Generated_Source\PSoC4/CapSense_Structure.c ****                     #if (CapSense_ENABLE == CapSense_TST_GLOBAL_CRC_EN)
1116:Generated_Source\PSoC4/CapSense_Structure.c ****                         CapSense_DsUpdateGlobalCrc();
1117:Generated_Source\PSoC4/CapSense_Structure.c ****                     #endif /* (CapSense_ENABLE == CapSense_TST_GLOBAL_CRC_EN) */
1118:Generated_Source\PSoC4/CapSense_Structure.c **** 
1119:Generated_Source\PSoC4/CapSense_Structure.c ****                 }
1120:Generated_Source\PSoC4/CapSense_Structure.c ****                 else
1121:Generated_Source\PSoC4/CapSense_Structure.c ****                 {
1122:Generated_Source\PSoC4/CapSense_Structure.c ****                     #if (CapSense_ENABLE == CapSense_TST_WDGT_CRC_EN)
1123:Generated_Source\PSoC4/CapSense_Structure.c ****                         CapSense_DsUpdateWidgetCrc((uint32)pData.widgetId);
1124:Generated_Source\PSoC4/CapSense_Structure.c ****                     #endif /* (CapSense_ENABLE == CapSense_TST_WDGT_CRC_EN) */
1125:Generated_Source\PSoC4/CapSense_Structure.c ****                 }
1126:Generated_Source\PSoC4/CapSense_Structure.c ****             }
1127:Generated_Source\PSoC4/CapSense_Structure.c ****         #endif /* (CapSense_ENABLE == (CapSense_TST_WDGT_CRC_EN || CapSense_TST_GLOBAL_CRC_EN)) */
1128:Generated_Source\PSoC4/CapSense_Structure.c ****     }
1129:Generated_Source\PSoC4/CapSense_Structure.c ****     
1130:Generated_Source\PSoC4/CapSense_Structure.c ****     return result;
1131:Generated_Source\PSoC4/CapSense_Structure.c **** }
 434              		.loc 1 1131 0
 435 004c 201C     		mov	r0, r4
 436 004e 03B0     		add	sp, sp, #12
 437              		@ sp needed
 438              	.LVL52:
 439 0050 30BD     		pop	{r4, r5, pc}
ARM GAS  C:\Users\TB1014~1\AppData\Local\Temp\ccn3i5XH.s 			page 29


 440              	.L40:
 441 0052 C046     		.align	2
 442              	.L39:
 443 0054 00000000 		.word	CapSense_dsRam
 444              		.cfi_endproc
 445              	.LFE4:
 446              		.size	CapSense_SetParam, .-CapSense_SetParam
 447              		.section	.text.CapSense_IsAnyWidgetActive,"ax",%progbits
 448              		.align	2
 449              		.global	CapSense_IsAnyWidgetActive
 450              		.code	16
 451              		.thumb_func
 452              		.type	CapSense_IsAnyWidgetActive, %function
 453              	CapSense_IsAnyWidgetActive:
 454              	.LFB5:
1132:Generated_Source\PSoC4/CapSense_Structure.c **** 
1133:Generated_Source\PSoC4/CapSense_Structure.c **** /*******************************************************************************
1134:Generated_Source\PSoC4/CapSense_Structure.c **** * Function Name: CapSense_IsAnyWidgetActive
1135:Generated_Source\PSoC4/CapSense_Structure.c **** ****************************************************************************//**
1136:Generated_Source\PSoC4/CapSense_Structure.c **** *
1137:Generated_Source\PSoC4/CapSense_Structure.c **** * \brief
1138:Generated_Source\PSoC4/CapSense_Structure.c **** *  Reports if any widget has detected a touch.
1139:Generated_Source\PSoC4/CapSense_Structure.c **** *
1140:Generated_Source\PSoC4/CapSense_Structure.c **** * \details
1141:Generated_Source\PSoC4/CapSense_Structure.c **** *  This function reports if any widget has detected a touch or not by extracting 
1142:Generated_Source\PSoC4/CapSense_Structure.c **** *  the information from the wdgtStatus registers 
1143:Generated_Source\PSoC4/CapSense_Structure.c **** *  (CapSense_WDGT_STATUS<X>_VALUE). This function does not process any 
1144:Generated_Source\PSoC4/CapSense_Structure.c **** *  widget but extracts the processed results from the \ref group_structures.
1145:Generated_Source\PSoC4/CapSense_Structure.c **** *
1146:Generated_Source\PSoC4/CapSense_Structure.c **** * \return 
1147:Generated_Source\PSoC4/CapSense_Structure.c **** *   Returns the touch detection status of all widgets:
1148:Generated_Source\PSoC4/CapSense_Structure.c **** *     - Zero if no touch is detected in all widgets or sensors.
1149:Generated_Source\PSoC4/CapSense_Structure.c **** *     - Non-zero if at least one widget or sensor detected a touch.
1150:Generated_Source\PSoC4/CapSense_Structure.c **** *
1151:Generated_Source\PSoC4/CapSense_Structure.c **** *******************************************************************************/
1152:Generated_Source\PSoC4/CapSense_Structure.c **** uint32 CapSense_IsAnyWidgetActive(void)
1153:Generated_Source\PSoC4/CapSense_Structure.c **** {
 455              		.loc 1 1153 0
 456              		.cfi_startproc
 457              	.LVL53:
1154:Generated_Source\PSoC4/CapSense_Structure.c ****     uint32 result = 0Lu;
1155:Generated_Source\PSoC4/CapSense_Structure.c ****     uint32 wdWord;
1156:Generated_Source\PSoC4/CapSense_Structure.c ****     
1157:Generated_Source\PSoC4/CapSense_Structure.c ****     for (wdWord = CapSense_WDGT_STATUS_WORDS; wdWord-- > 0u;)
 458              		.loc 1 1157 0
 459 0000 0123     		mov	r3, #1
1154:Generated_Source\PSoC4/CapSense_Structure.c ****     uint32 result = 0Lu;
 460              		.loc 1 1154 0
 461 0002 0020     		mov	r0, #0
 462              		.loc 1 1157 0
 463 0004 05E0     		b	.L42
 464              	.LVL54:
 465              	.L43:
1158:Generated_Source\PSoC4/CapSense_Structure.c ****     {
1159:Generated_Source\PSoC4/CapSense_Structure.c ****         result |= CapSense_dsRam.wdgtStatus[wdWord];
 466              		.loc 1 1159 0
 467 0006 131D     		add	r3, r2, #4
ARM GAS  C:\Users\TB1014~1\AppData\Local\Temp\ccn3i5XH.s 			page 30


 468 0008 9B00     		lsl	r3, r3, #2
 469 000a 0449     		ldr	r1, .L44
 470 000c 5B58     		ldr	r3, [r3, r1]
 471 000e 1843     		orr	r0, r3
 472              	.LVL55:
1157:Generated_Source\PSoC4/CapSense_Structure.c ****     {
 473              		.loc 1 1157 0
 474 0010 131C     		mov	r3, r2
 475              	.LVL56:
 476              	.L42:
1157:Generated_Source\PSoC4/CapSense_Structure.c ****     {
 477              		.loc 1 1157 0 is_stmt 0 discriminator 1
 478 0012 5A1E     		sub	r2, r3, #1
 479              	.LVL57:
 480 0014 002B     		cmp	r3, #0
 481 0016 F6D1     		bne	.L43
1160:Generated_Source\PSoC4/CapSense_Structure.c ****     }
1161:Generated_Source\PSoC4/CapSense_Structure.c ****     
1162:Generated_Source\PSoC4/CapSense_Structure.c ****     return result;
1163:Generated_Source\PSoC4/CapSense_Structure.c **** }
 482              		.loc 1 1163 0 is_stmt 1
 483              		@ sp needed
 484 0018 7047     		bx	lr
 485              	.L45:
 486 001a C046     		.align	2
 487              	.L44:
 488 001c 00000000 		.word	CapSense_dsRam
 489              		.cfi_endproc
 490              	.LFE5:
 491              		.size	CapSense_IsAnyWidgetActive, .-CapSense_IsAnyWidgetActive
 492              		.section	.text.CapSense_IsWidgetActive,"ax",%progbits
 493              		.align	2
 494              		.global	CapSense_IsWidgetActive
 495              		.code	16
 496              		.thumb_func
 497              		.type	CapSense_IsWidgetActive, %function
 498              	CapSense_IsWidgetActive:
 499              	.LFB6:
1164:Generated_Source\PSoC4/CapSense_Structure.c **** 
1165:Generated_Source\PSoC4/CapSense_Structure.c **** 
1166:Generated_Source\PSoC4/CapSense_Structure.c **** /*******************************************************************************
1167:Generated_Source\PSoC4/CapSense_Structure.c **** * Function Name: CapSense_IsWidgetActive
1168:Generated_Source\PSoC4/CapSense_Structure.c **** ****************************************************************************//**
1169:Generated_Source\PSoC4/CapSense_Structure.c **** *
1170:Generated_Source\PSoC4/CapSense_Structure.c **** * \brief
1171:Generated_Source\PSoC4/CapSense_Structure.c **** *  Reports if the specified widget detects a touch on any of its sensors.
1172:Generated_Source\PSoC4/CapSense_Structure.c **** *
1173:Generated_Source\PSoC4/CapSense_Structure.c **** * \details
1174:Generated_Source\PSoC4/CapSense_Structure.c **** *  This function reports if the specified widget has detected a touch or not by 
1175:Generated_Source\PSoC4/CapSense_Structure.c **** *  extracting the information from the wdgtStatus registers 
1176:Generated_Source\PSoC4/CapSense_Structure.c **** *  (CapSense_WDGT_STATUS<X>_VALUE). This function does not process the 
1177:Generated_Source\PSoC4/CapSense_Structure.c **** *  widget, but extracts the processed results from the \ref group_structures.
1178:Generated_Source\PSoC4/CapSense_Structure.c **** *
1179:Generated_Source\PSoC4/CapSense_Structure.c **** * \param widgetId  
1180:Generated_Source\PSoC4/CapSense_Structure.c **** *  Specify the ID number of the widget to get its status.
1181:Generated_Source\PSoC4/CapSense_Structure.c **** *  A macro for the widget ID can be found in the CapSense Configuration header 
1182:Generated_Source\PSoC4/CapSense_Structure.c **** *  file defined as CapSense_<WidgetName>_WDGT_ID.
ARM GAS  C:\Users\TB1014~1\AppData\Local\Temp\ccn3i5XH.s 			page 31


1183:Generated_Source\PSoC4/CapSense_Structure.c **** *
1184:Generated_Source\PSoC4/CapSense_Structure.c **** * \return 
1185:Generated_Source\PSoC4/CapSense_Structure.c **** *  Returns the touch detection status of the specified widgets:
1186:Generated_Source\PSoC4/CapSense_Structure.c **** *    - Zero if no touch is detected in the specified widget or a wrong widgetId
1187:Generated_Source\PSoC4/CapSense_Structure.c **** *      is specified
1188:Generated_Source\PSoC4/CapSense_Structure.c **** *    - Non-zero if at least one sensor of the specified widget is active i.e. 
1189:Generated_Source\PSoC4/CapSense_Structure.c **** *      touch is detected
1190:Generated_Source\PSoC4/CapSense_Structure.c **** *
1191:Generated_Source\PSoC4/CapSense_Structure.c **** *******************************************************************************/
1192:Generated_Source\PSoC4/CapSense_Structure.c **** uint32 CapSense_IsWidgetActive(uint32 widgetId)
1193:Generated_Source\PSoC4/CapSense_Structure.c **** {
 500              		.loc 1 1193 0
 501              		.cfi_startproc
 502              	.LVL58:
1194:Generated_Source\PSoC4/CapSense_Structure.c ****     uint32 result = 0Lu;
1195:Generated_Source\PSoC4/CapSense_Structure.c ****    
1196:Generated_Source\PSoC4/CapSense_Structure.c ****     if (widgetId < CapSense_TOTAL_WIDGETS)
 503              		.loc 1 1196 0
 504 0000 0728     		cmp	r0, #7
 505 0002 0BD8     		bhi	.L48
1197:Generated_Source\PSoC4/CapSense_Structure.c ****     {
1198:Generated_Source\PSoC4/CapSense_Structure.c ****         result = CapSense_GET_WIDGET_ACTIVE_STATUS(widgetId);
 506              		.loc 1 1198 0
 507 0004 1F22     		mov	r2, #31
 508 0006 0240     		and	r2, r0
 509 0008 0123     		mov	r3, #1
 510 000a 9340     		lsl	r3, r3, r2
 511 000c 1A1C     		mov	r2, r3
 512 000e 4309     		lsr	r3, r0, #5
 513 0010 0433     		add	r3, r3, #4
 514 0012 9B00     		lsl	r3, r3, #2
 515 0014 0249     		ldr	r1, .L49
 516 0016 5858     		ldr	r0, [r3, r1]
 517              	.LVL59:
 518 0018 1040     		and	r0, r2
 519              	.LVL60:
 520 001a 00E0     		b	.L47
 521              	.LVL61:
 522              	.L48:
1194:Generated_Source\PSoC4/CapSense_Structure.c ****     uint32 result = 0Lu;
 523              		.loc 1 1194 0
 524 001c 0020     		mov	r0, #0
 525              	.LVL62:
 526              	.L47:
1199:Generated_Source\PSoC4/CapSense_Structure.c ****     }
1200:Generated_Source\PSoC4/CapSense_Structure.c ****     return result;
1201:Generated_Source\PSoC4/CapSense_Structure.c **** }
 527              		.loc 1 1201 0
 528              		@ sp needed
 529 001e 7047     		bx	lr
 530              	.L50:
 531              		.align	2
 532              	.L49:
 533 0020 00000000 		.word	CapSense_dsRam
 534              		.cfi_endproc
 535              	.LFE6:
 536              		.size	CapSense_IsWidgetActive, .-CapSense_IsWidgetActive
ARM GAS  C:\Users\TB1014~1\AppData\Local\Temp\ccn3i5XH.s 			page 32


 537              		.section	.text.CapSense_IsSensorActive,"ax",%progbits
 538              		.align	2
 539              		.global	CapSense_IsSensorActive
 540              		.code	16
 541              		.thumb_func
 542              		.type	CapSense_IsSensorActive, %function
 543              	CapSense_IsSensorActive:
 544              	.LFB7:
1202:Generated_Source\PSoC4/CapSense_Structure.c **** 
1203:Generated_Source\PSoC4/CapSense_Structure.c **** 
1204:Generated_Source\PSoC4/CapSense_Structure.c **** /*******************************************************************************
1205:Generated_Source\PSoC4/CapSense_Structure.c **** * Function Name: CapSense_IsSensorActive
1206:Generated_Source\PSoC4/CapSense_Structure.c **** ****************************************************************************//**
1207:Generated_Source\PSoC4/CapSense_Structure.c **** *
1208:Generated_Source\PSoC4/CapSense_Structure.c **** * \brief
1209:Generated_Source\PSoC4/CapSense_Structure.c **** *  Reports if the specified sensor in the widget detects a touch.
1210:Generated_Source\PSoC4/CapSense_Structure.c **** *
1211:Generated_Source\PSoC4/CapSense_Structure.c **** * \details 
1212:Generated_Source\PSoC4/CapSense_Structure.c **** *  This function reports if the specified sensor in the widget has detected a 
1213:Generated_Source\PSoC4/CapSense_Structure.c **** *  touch or not by extracting the information from wdgtStatus registers 
1214:Generated_Source\PSoC4/CapSense_Structure.c **** *  (CapSense_WDGT_STATUS<X>_VALUE). This function does not process the
1215:Generated_Source\PSoC4/CapSense_Structure.c **** *  widget or sensor, but extracts the processed results from the \ref group_structures.
1216:Generated_Source\PSoC4/CapSense_Structure.c **** *   
1217:Generated_Source\PSoC4/CapSense_Structure.c **** *  For Proximity sensors this function returns proximity detection status. To 
1218:Generated_Source\PSoC4/CapSense_Structure.c **** *  get finger touch status of proximity sensors, use the 
1219:Generated_Source\PSoC4/CapSense_Structure.c **** *  CapSense_IsProximitySensorActive() function. 
1220:Generated_Source\PSoC4/CapSense_Structure.c **** *
1221:Generated_Source\PSoC4/CapSense_Structure.c **** * \param widgetId  
1222:Generated_Source\PSoC4/CapSense_Structure.c **** *  Specify the ID number of the widget.
1223:Generated_Source\PSoC4/CapSense_Structure.c **** *  A macro for the widget ID can be found in the CapSense Configuration header 
1224:Generated_Source\PSoC4/CapSense_Structure.c **** *  file defined as CapSense_<WidgetName>_WDGT_ID 
1225:Generated_Source\PSoC4/CapSense_Structure.c **** 
1226:Generated_Source\PSoC4/CapSense_Structure.c **** * \param sensorId  
1227:Generated_Source\PSoC4/CapSense_Structure.c **** *  Specify the ID number of the sensor within the widget to get its touch 
1228:Generated_Source\PSoC4/CapSense_Structure.c **** *  detection status.
1229:Generated_Source\PSoC4/CapSense_Structure.c **** *  A macro for the sensor ID within specified widget can be found in the 
1230:Generated_Source\PSoC4/CapSense_Structure.c **** *  CapSense Configuration header file defined as 
1231:Generated_Source\PSoC4/CapSense_Structure.c **** *  CapSense_<WidgetName>_SNS<SensorNumber>_ID 
1232:Generated_Source\PSoC4/CapSense_Structure.c **** *
1233:Generated_Source\PSoC4/CapSense_Structure.c **** * \return 
1234:Generated_Source\PSoC4/CapSense_Structure.c **** *  Returns the touch detection status of the specified sensor / widget:
1235:Generated_Source\PSoC4/CapSense_Structure.c **** *    - Zero if no touch is detected in the specified sensor / widget or a wrong
1236:Generated_Source\PSoC4/CapSense_Structure.c **** *      widget ID / sensor ID is specified
1237:Generated_Source\PSoC4/CapSense_Structure.c **** *    - Non-zero if the specified sensor is active i.e. touch is detected. If the
1238:Generated_Source\PSoC4/CapSense_Structure.c **** *      specific sensor belongs to a proximity widget, the proximity detection 
1239:Generated_Source\PSoC4/CapSense_Structure.c **** *      status is returned.
1240:Generated_Source\PSoC4/CapSense_Structure.c **** *
1241:Generated_Source\PSoC4/CapSense_Structure.c **** *******************************************************************************/
1242:Generated_Source\PSoC4/CapSense_Structure.c **** uint32 CapSense_IsSensorActive(uint32 widgetId, uint32 sensorId)
1243:Generated_Source\PSoC4/CapSense_Structure.c **** {
 545              		.loc 1 1243 0
 546              		.cfi_startproc
 547              	.LVL63:
1244:Generated_Source\PSoC4/CapSense_Structure.c ****     uint32 result = 0Lu;
1245:Generated_Source\PSoC4/CapSense_Structure.c ****     
1246:Generated_Source\PSoC4/CapSense_Structure.c ****     if ((widgetId < CapSense_TOTAL_WIDGETS) &&
 548              		.loc 1 1246 0
ARM GAS  C:\Users\TB1014~1\AppData\Local\Temp\ccn3i5XH.s 			page 33


 549 0000 0728     		cmp	r0, #7
 550 0002 0ED8     		bhi	.L53
1247:Generated_Source\PSoC4/CapSense_Structure.c ****         (sensorId < CapSense_GET_SENSOR_COUNT(widgetId)))
 551              		.loc 1 1247 0 discriminator 1
 552 0004 C300     		lsl	r3, r0, #3
 553 0006 1B18     		add	r3, r3, r0
 554 0008 9B00     		lsl	r3, r3, #2
 555 000a 084A     		ldr	r2, .L55
 556 000c D318     		add	r3, r2, r3
 557 000e DB8C     		ldrh	r3, [r3, #38]
1246:Generated_Source\PSoC4/CapSense_Structure.c ****         (sensorId < CapSense_GET_SENSOR_COUNT(widgetId)))
 558              		.loc 1 1246 0 discriminator 1
 559 0010 8B42     		cmp	r3, r1
 560 0012 08D9     		bls	.L54
1248:Generated_Source\PSoC4/CapSense_Structure.c ****     {
1249:Generated_Source\PSoC4/CapSense_Structure.c ****         #if (CapSense_ENABLE == CapSense_PROXIMITY_WIDGET_EN)
1250:Generated_Source\PSoC4/CapSense_Structure.c ****             if (CapSense_WD_PROXIMITY_E == 
1251:Generated_Source\PSoC4/CapSense_Structure.c **** 				(CapSense_WD_TYPE_ENUM)CapSense_dsFlash.wdgtArray[widgetId].wdgtType)
1252:Generated_Source\PSoC4/CapSense_Structure.c ****             {
1253:Generated_Source\PSoC4/CapSense_Structure.c ****                 sensorId = CapSense_PROX_STS_OFFSET(sensorId);
1254:Generated_Source\PSoC4/CapSense_Structure.c ****             }
1255:Generated_Source\PSoC4/CapSense_Structure.c ****         #endif /* (CapSense_ENABLE != CapSense_PROXIMITY_WIDGET_EN) */
1256:Generated_Source\PSoC4/CapSense_Structure.c ****         result = CapSense_dsRam.snsStatus[widgetId] & (1Lu << sensorId);
 561              		.loc 1 1256 0
 562 0014 064B     		ldr	r3, .L55+4
 563 0016 1818     		add	r0, r3, r0
 564              	.LVL64:
 565 0018 037D     		ldrb	r3, [r0, #20]
 566 001a 0120     		mov	r0, #1
 567 001c 8840     		lsl	r0, r0, r1
 568 001e 1840     		and	r0, r3
 569              	.LVL65:
 570 0020 02E0     		b	.L52
 571              	.LVL66:
 572              	.L53:
1244:Generated_Source\PSoC4/CapSense_Structure.c ****     
 573              		.loc 1 1244 0
 574 0022 0020     		mov	r0, #0
 575              	.LVL67:
 576 0024 00E0     		b	.L52
 577              	.LVL68:
 578              	.L54:
 579 0026 0020     		mov	r0, #0
 580              	.LVL69:
 581              	.L52:
1257:Generated_Source\PSoC4/CapSense_Structure.c ****     }
1258:Generated_Source\PSoC4/CapSense_Structure.c ****     
1259:Generated_Source\PSoC4/CapSense_Structure.c ****     return result;
1260:Generated_Source\PSoC4/CapSense_Structure.c **** }
 582              		.loc 1 1260 0
 583              		@ sp needed
 584 0028 7047     		bx	lr
 585              	.L56:
 586 002a C046     		.align	2
 587              	.L55:
 588 002c 00000000 		.word	.LANCHOR0
 589 0030 00000000 		.word	CapSense_dsRam
ARM GAS  C:\Users\TB1014~1\AppData\Local\Temp\ccn3i5XH.s 			page 34


 590              		.cfi_endproc
 591              	.LFE7:
 592              		.size	CapSense_IsSensorActive, .-CapSense_IsSensorActive
 593              		.section	.text.CapSense_GetCentroidPos,"ax",%progbits
 594              		.align	2
 595              		.global	CapSense_GetCentroidPos
 596              		.code	16
 597              		.thumb_func
 598              		.type	CapSense_GetCentroidPos, %function
 599              	CapSense_GetCentroidPos:
 600              	.LFB8:
1261:Generated_Source\PSoC4/CapSense_Structure.c **** 
1262:Generated_Source\PSoC4/CapSense_Structure.c **** #if (0u != CapSense_MATRIX_WIDGET_EN)
1263:Generated_Source\PSoC4/CapSense_Structure.c **** /*******************************************************************************
1264:Generated_Source\PSoC4/CapSense_Structure.c **** * Function Name: CapSense_IsMatrixButtonsActive
1265:Generated_Source\PSoC4/CapSense_Structure.c **** ****************************************************************************//**
1266:Generated_Source\PSoC4/CapSense_Structure.c **** *
1267:Generated_Source\PSoC4/CapSense_Structure.c **** * \brief
1268:Generated_Source\PSoC4/CapSense_Structure.c **** *  Reports the status of the specified matrix button widget.
1269:Generated_Source\PSoC4/CapSense_Structure.c **** *
1270:Generated_Source\PSoC4/CapSense_Structure.c **** * \details 
1271:Generated_Source\PSoC4/CapSense_Structure.c **** *  This function reports if the specified matrix widget has detected a touch or
1272:Generated_Source\PSoC4/CapSense_Structure.c **** *  not by extracting the information from the wdgtStatus registers 
1273:Generated_Source\PSoC4/CapSense_Structure.c **** *  (CapSense_WDGT_STATUS<X>_VALUE for the CSD widgets and 
1274:Generated_Source\PSoC4/CapSense_Structure.c **** *  CapSense_SNS_STATUS<WidgetId>_VALUE for CSX widget). In addition, the
1275:Generated_Source\PSoC4/CapSense_Structure.c **** *  function provides details of the active sensor including active rows/columns 
1276:Generated_Source\PSoC4/CapSense_Structure.c **** *  for the CSD widgets. This function should be used only with the matrix button
1277:Generated_Source\PSoC4/CapSense_Structure.c **** *  widgets. This function does not process the widget, but extracts the 
1278:Generated_Source\PSoC4/CapSense_Structure.c **** *  processed results from the \ref group_structures.
1279:Generated_Source\PSoC4/CapSense_Structure.c **** *
1280:Generated_Source\PSoC4/CapSense_Structure.c **** * \param widgetId 
1281:Generated_Source\PSoC4/CapSense_Structure.c **** *  Specify the ID number of the matrix button widget to check status of its 
1282:Generated_Source\PSoC4/CapSense_Structure.c **** *  sensors. 
1283:Generated_Source\PSoC4/CapSense_Structure.c **** *  A macro for widget ID can be found in the CapSense Configuration header file 
1284:Generated_Source\PSoC4/CapSense_Structure.c **** *  defined as CapSense_<WidgetName>_WDGT_ID
1285:Generated_Source\PSoC4/CapSense_Structure.c **** *
1286:Generated_Source\PSoC4/CapSense_Structure.c **** * \return 
1287:Generated_Source\PSoC4/CapSense_Structure.c **** *  Returns the touch detection status of sensors in the specified matrix 
1288:Generated_Source\PSoC4/CapSense_Structure.c **** *  buttons widget. Zero indicates that no touch is detected in the specified 
1289:Generated_Source\PSoC4/CapSense_Structure.c **** *  widget or a wrong widgetId is specified.
1290:Generated_Source\PSoC4/CapSense_Structure.c **** *    1. For the matrix buttons widgets with the CSD sensing mode:
1291:Generated_Source\PSoC4/CapSense_Structure.c **** *      - Bit [31] if set, indicates that one or more sensors in the widget 
1292:Generated_Source\PSoC4/CapSense_Structure.c **** *        detected a touch.
1293:Generated_Source\PSoC4/CapSense_Structure.c **** *      - Bits [30..24] is reserved
1294:Generated_Source\PSoC4/CapSense_Structure.c **** *      - Bits [23..16] indicates the logical sensor number of the sensor that 
1295:Generated_Source\PSoC4/CapSense_Structure.c **** *        detected a touch. If more than one sensor detected a touch for the CSD
1296:Generated_Source\PSoC4/CapSense_Structure.c **** *        widget, no status is reported as more than one touch is invalid for the
1297:Generated_Source\PSoC4/CapSense_Structure.c **** *        CSD matrix buttons widgets.
1298:Generated_Source\PSoC4/CapSense_Structure.c **** *      - Bits [15..8] indicates the active row number.
1299:Generated_Source\PSoC4/CapSense_Structure.c **** *      - Bits [7..0] indicates the active column number.
1300:Generated_Source\PSoC4/CapSense_Structure.c **** *    2. For the matrix buttons widgets with the CSX widgets, each bit (31..0)
1301:Generated_Source\PSoC4/CapSense_Structure.c **** *      corresponds to the TX/RX intersection.
1302:Generated_Source\PSoC4/CapSense_Structure.c **** *
1303:Generated_Source\PSoC4/CapSense_Structure.c **** *******************************************************************************/
1304:Generated_Source\PSoC4/CapSense_Structure.c **** uint32 CapSense_IsMatrixButtonsActive(uint32 widgetId)
1305:Generated_Source\PSoC4/CapSense_Structure.c **** {
1306:Generated_Source\PSoC4/CapSense_Structure.c ****     uint32 result = 0Lu;
ARM GAS  C:\Users\TB1014~1\AppData\Local\Temp\ccn3i5XH.s 			page 35


1307:Generated_Source\PSoC4/CapSense_Structure.c ****     cystatus state = CYRET_SUCCESS;
1308:Generated_Source\PSoC4/CapSense_Structure.c ****     CapSense_FLASH_WD_STRUCT const *ptrFlashWdgt = 0u;
1309:Generated_Source\PSoC4/CapSense_Structure.c ****     
1310:Generated_Source\PSoC4/CapSense_Structure.c ****     #if (0u != CapSense_CSD_MATRIX_WIDGET_EN)
1311:Generated_Source\PSoC4/CapSense_Structure.c ****         CapSense_RAM_WD_CSD_MATRIX_STRUCT *wdCsdMatrix;
1312:Generated_Source\PSoC4/CapSense_Structure.c ****     #endif
1313:Generated_Source\PSoC4/CapSense_Structure.c ****   
1314:Generated_Source\PSoC4/CapSense_Structure.c ****     if (widgetId >= CapSense_TOTAL_WIDGETS)
1315:Generated_Source\PSoC4/CapSense_Structure.c ****     {
1316:Generated_Source\PSoC4/CapSense_Structure.c ****         state = CYRET_BAD_PARAM;
1317:Generated_Source\PSoC4/CapSense_Structure.c ****     }
1318:Generated_Source\PSoC4/CapSense_Structure.c ****     else
1319:Generated_Source\PSoC4/CapSense_Structure.c ****     {
1320:Generated_Source\PSoC4/CapSense_Structure.c ****         ptrFlashWdgt = &CapSense_dsFlash.wdgtArray[widgetId];
1321:Generated_Source\PSoC4/CapSense_Structure.c ****         
1322:Generated_Source\PSoC4/CapSense_Structure.c ****         if ((CapSense_WD_TYPE_ENUM)ptrFlashWdgt->wdgtType != CapSense_WD_MATRIX_BUTTON_E)
1323:Generated_Source\PSoC4/CapSense_Structure.c ****         {
1324:Generated_Source\PSoC4/CapSense_Structure.c ****             state = CYRET_BAD_PARAM;
1325:Generated_Source\PSoC4/CapSense_Structure.c ****         }
1326:Generated_Source\PSoC4/CapSense_Structure.c ****         else if (0u == CapSense_GET_WIDGET_ACTIVE_STATUS(widgetId))
1327:Generated_Source\PSoC4/CapSense_Structure.c ****         {
1328:Generated_Source\PSoC4/CapSense_Structure.c ****             state = CYRET_BAD_PARAM;
1329:Generated_Source\PSoC4/CapSense_Structure.c ****         }
1330:Generated_Source\PSoC4/CapSense_Structure.c ****         else
1331:Generated_Source\PSoC4/CapSense_Structure.c ****         {
1332:Generated_Source\PSoC4/CapSense_Structure.c ****             /* input parameters are OK */
1333:Generated_Source\PSoC4/CapSense_Structure.c ****         }
1334:Generated_Source\PSoC4/CapSense_Structure.c ****     }
1335:Generated_Source\PSoC4/CapSense_Structure.c ****        
1336:Generated_Source\PSoC4/CapSense_Structure.c ****     if (CYRET_SUCCESS == state)
1337:Generated_Source\PSoC4/CapSense_Structure.c ****     {
1338:Generated_Source\PSoC4/CapSense_Structure.c ****         switch(CapSense_GET_SENSE_METHOD(ptrFlashWdgt))
1339:Generated_Source\PSoC4/CapSense_Structure.c ****         {
1340:Generated_Source\PSoC4/CapSense_Structure.c ****         #if (0u != CapSense_CSD_MATRIX_WIDGET_EN)
1341:Generated_Source\PSoC4/CapSense_Structure.c ****             case CapSense_SENSE_METHOD_CSD_E:
1342:Generated_Source\PSoC4/CapSense_Structure.c ****                 wdCsdMatrix = ptrFlashWdgt->ptr2WdgtRam;
1343:Generated_Source\PSoC4/CapSense_Structure.c ****                 
1344:Generated_Source\PSoC4/CapSense_Structure.c ****                 result = CapSense_MATRIX_BUTTONS_TOUCHED | 
1345:Generated_Source\PSoC4/CapSense_Structure.c ****                          ((uint32)wdCsdMatrix->posSnsId << 16u)  |
1346:Generated_Source\PSoC4/CapSense_Structure.c ****                          ((uint32)wdCsdMatrix->posRow   << 8u)   |
1347:Generated_Source\PSoC4/CapSense_Structure.c ****                          (uint32)wdCsdMatrix->posCol;
1348:Generated_Source\PSoC4/CapSense_Structure.c ****                 break;
1349:Generated_Source\PSoC4/CapSense_Structure.c ****         #endif /* #if (0u != CapSense_CSD_MATRIX_WIDGET_EN) */
1350:Generated_Source\PSoC4/CapSense_Structure.c ****         
1351:Generated_Source\PSoC4/CapSense_Structure.c ****         #if (0u != CapSense_CSX_MATRIX_WIDGET_EN)
1352:Generated_Source\PSoC4/CapSense_Structure.c ****             case CapSense_SENSE_METHOD_CSX_E:
1353:Generated_Source\PSoC4/CapSense_Structure.c ****                 result = CapSense_dsRam.snsStatus[widgetId];
1354:Generated_Source\PSoC4/CapSense_Structure.c ****                 break;
1355:Generated_Source\PSoC4/CapSense_Structure.c ****         #endif /* #if (0u != CapSense_CSX_MATRIX_WIDGET_EN) */
1356:Generated_Source\PSoC4/CapSense_Structure.c ****         
1357:Generated_Source\PSoC4/CapSense_Structure.c ****         default:
1358:Generated_Source\PSoC4/CapSense_Structure.c ****             CYASSERT(0u);
1359:Generated_Source\PSoC4/CapSense_Structure.c ****             break;
1360:Generated_Source\PSoC4/CapSense_Structure.c ****         }
1361:Generated_Source\PSoC4/CapSense_Structure.c ****     }
1362:Generated_Source\PSoC4/CapSense_Structure.c ****     
1363:Generated_Source\PSoC4/CapSense_Structure.c ****     return result;
ARM GAS  C:\Users\TB1014~1\AppData\Local\Temp\ccn3i5XH.s 			page 36


1364:Generated_Source\PSoC4/CapSense_Structure.c **** }
1365:Generated_Source\PSoC4/CapSense_Structure.c **** #endif /* #if (0u != CapSense_MATRIX_WIDGET_EN) */
1366:Generated_Source\PSoC4/CapSense_Structure.c **** 
1367:Generated_Source\PSoC4/CapSense_Structure.c **** #if (0u != CapSense_PROXIMITY_WIDGET_EN)
1368:Generated_Source\PSoC4/CapSense_Structure.c **** /*******************************************************************************
1369:Generated_Source\PSoC4/CapSense_Structure.c **** * Function Name: CapSense_IsProximitySensorActive
1370:Generated_Source\PSoC4/CapSense_Structure.c **** ****************************************************************************//**
1371:Generated_Source\PSoC4/CapSense_Structure.c **** *
1372:Generated_Source\PSoC4/CapSense_Structure.c **** * \brief
1373:Generated_Source\PSoC4/CapSense_Structure.c **** *  Reports the finger detection status of the specified proximity widget/sensor.
1374:Generated_Source\PSoC4/CapSense_Structure.c **** *
1375:Generated_Source\PSoC4/CapSense_Structure.c **** * \details 
1376:Generated_Source\PSoC4/CapSense_Structure.c **** *  This function reports if the specified proximity sensor has detected a touch
1377:Generated_Source\PSoC4/CapSense_Structure.c **** *  or not by extracting the information from the wdgtStatus registers 
1378:Generated_Source\PSoC4/CapSense_Structure.c **** *  (CapSense_SNS_STATUS<WidgetId>_VALUE). This function should be used 
1379:Generated_Source\PSoC4/CapSense_Structure.c **** *  only with the proximity sensor widgets. This function does not process the 
1380:Generated_Source\PSoC4/CapSense_Structure.c **** *  widget but extracts the processed results from the \ref group_structures.
1381:Generated_Source\PSoC4/CapSense_Structure.c **** *
1382:Generated_Source\PSoC4/CapSense_Structure.c **** * \param widgetId  
1383:Generated_Source\PSoC4/CapSense_Structure.c **** *  Specify the ID number of the proximity widget.
1384:Generated_Source\PSoC4/CapSense_Structure.c **** *  A macro for the widget ID can be found in the CapSense Configuration header 
1385:Generated_Source\PSoC4/CapSense_Structure.c **** *  file defined as CapSense_<WidgetName>_WDGT_ID
1386:Generated_Source\PSoC4/CapSense_Structure.c **** *  
1387:Generated_Source\PSoC4/CapSense_Structure.c **** * \param proxId    
1388:Generated_Source\PSoC4/CapSense_Structure.c **** *  Specify the ID number of the proximity sensor within the proximity widget to 
1389:Generated_Source\PSoC4/CapSense_Structure.c **** *  get its touch detection status.
1390:Generated_Source\PSoC4/CapSense_Structure.c **** *  A macro for the proximity ID within a specified widget can be found in the
1391:Generated_Source\PSoC4/CapSense_Structure.c **** *  CapSense Configuration header file defined as 
1392:Generated_Source\PSoC4/CapSense_Structure.c **** *  CapSense_<WidgetName>_SNS<SensorNumber>_ID
1393:Generated_Source\PSoC4/CapSense_Structure.c **** *
1394:Generated_Source\PSoC4/CapSense_Structure.c **** * \return 
1395:Generated_Source\PSoC4/CapSense_Structure.c **** *  Returns the status of the specified sensor of proximity widget. Zero 
1396:Generated_Source\PSoC4/CapSense_Structure.c **** *  indicates that no touch is detected in the specified sensor / widget or a 
1397:Generated_Source\PSoC4/CapSense_Structure.c **** *  wrong widgetId / proxId is specified.
1398:Generated_Source\PSoC4/CapSense_Structure.c **** *    - Bits [31..2] is reserved.
1399:Generated_Source\PSoC4/CapSense_Structure.c **** *    - Bit [1] indicates that a touch is detected.
1400:Generated_Source\PSoC4/CapSense_Structure.c **** *    - Bit [0] indicates that a proximity is detected.
1401:Generated_Source\PSoC4/CapSense_Structure.c **** *
1402:Generated_Source\PSoC4/CapSense_Structure.c **** *******************************************************************************/
1403:Generated_Source\PSoC4/CapSense_Structure.c **** uint32 CapSense_IsProximitySensorActive(uint32 widgetId, uint32 proxId)
1404:Generated_Source\PSoC4/CapSense_Structure.c **** {
1405:Generated_Source\PSoC4/CapSense_Structure.c ****     uint32 result = 0Lu;
1406:Generated_Source\PSoC4/CapSense_Structure.c ****     
1407:Generated_Source\PSoC4/CapSense_Structure.c ****     if ((widgetId < CapSense_TOTAL_WIDGETS) && (proxId < CapSense_GET_SENSOR_COUNT(widgetId)) &&
1408:Generated_Source\PSoC4/CapSense_Structure.c ****         (CapSense_WD_PROXIMITY_E == 
1409:Generated_Source\PSoC4/CapSense_Structure.c ****             (CapSense_WD_TYPE_ENUM)CapSense_dsFlash.wdgtArray[widgetId].wdgtType))
1410:Generated_Source\PSoC4/CapSense_Structure.c ****     {
1411:Generated_Source\PSoC4/CapSense_Structure.c ****         result = CapSense_dsRam.snsStatus[widgetId];
1412:Generated_Source\PSoC4/CapSense_Structure.c ****         result >>= CapSense_PROX_STS_OFFSET(proxId);
1413:Generated_Source\PSoC4/CapSense_Structure.c ****         result &=  CapSense_PROX_STS_MASK;
1414:Generated_Source\PSoC4/CapSense_Structure.c ****     }
1415:Generated_Source\PSoC4/CapSense_Structure.c ****     
1416:Generated_Source\PSoC4/CapSense_Structure.c ****     return result;
1417:Generated_Source\PSoC4/CapSense_Structure.c **** }
1418:Generated_Source\PSoC4/CapSense_Structure.c **** #endif /* #if (0u != CapSense_PROXIMITY_WIDGET_EN) */
1419:Generated_Source\PSoC4/CapSense_Structure.c **** 
1420:Generated_Source\PSoC4/CapSense_Structure.c **** 
ARM GAS  C:\Users\TB1014~1\AppData\Local\Temp\ccn3i5XH.s 			page 37


1421:Generated_Source\PSoC4/CapSense_Structure.c **** #if (0u != CapSense_SLIDER_WIDGET_EN)
1422:Generated_Source\PSoC4/CapSense_Structure.c **** /*******************************************************************************
1423:Generated_Source\PSoC4/CapSense_Structure.c **** * Function Name: CapSense_GetCentroidPos
1424:Generated_Source\PSoC4/CapSense_Structure.c **** ****************************************************************************//**
1425:Generated_Source\PSoC4/CapSense_Structure.c **** *
1426:Generated_Source\PSoC4/CapSense_Structure.c **** * \brief
1427:Generated_Source\PSoC4/CapSense_Structure.c **** *  Reports the centroid position for the specified slider widget.
1428:Generated_Source\PSoC4/CapSense_Structure.c **** *
1429:Generated_Source\PSoC4/CapSense_Structure.c **** * \details 
1430:Generated_Source\PSoC4/CapSense_Structure.c **** *  This function reports the centrode value of a specified radial or linear 
1431:Generated_Source\PSoC4/CapSense_Structure.c **** *  slider widget by extracting the information from the wdgtStatus registers 
1432:Generated_Source\PSoC4/CapSense_Structure.c **** *  (CapSense_<WidgetName>_POSITION<X>_VALUE). This function should be 
1433:Generated_Source\PSoC4/CapSense_Structure.c **** *  used only with the radial or linear slider widgets. This function does not 
1434:Generated_Source\PSoC4/CapSense_Structure.c **** *  process the widget but extracts the processed results from the \ref group_structures.
1435:Generated_Source\PSoC4/CapSense_Structure.c **** *
1436:Generated_Source\PSoC4/CapSense_Structure.c **** * \param widgetId 
1437:Generated_Source\PSoC4/CapSense_Structure.c **** *  Specify the ID number of the slider widget to get the centroid of the 
1438:Generated_Source\PSoC4/CapSense_Structure.c **** *  detected touch.
1439:Generated_Source\PSoC4/CapSense_Structure.c **** *  A macro for the widget ID can be found in the 
1440:Generated_Source\PSoC4/CapSense_Structure.c **** *  CapSense Configuration header file defined as 
1441:Generated_Source\PSoC4/CapSense_Structure.c **** *  CapSense_<WidgetName>_WDGT_ID
1442:Generated_Source\PSoC4/CapSense_Structure.c **** *
1443:Generated_Source\PSoC4/CapSense_Structure.c **** * \return 
1444:Generated_Source\PSoC4/CapSense_Structure.c **** *  Returns the centroid position of a specified slider widget:
1445:Generated_Source\PSoC4/CapSense_Structure.c **** *    - The centroid position if a touch is detected.
1446:Generated_Source\PSoC4/CapSense_Structure.c **** *    - CapSense_SLIDER_NO_TOUCH if no touch is detected or a wrong 
1447:Generated_Source\PSoC4/CapSense_Structure.c **** *      widgetId is specified.
1448:Generated_Source\PSoC4/CapSense_Structure.c **** *
1449:Generated_Source\PSoC4/CapSense_Structure.c **** *******************************************************************************/
1450:Generated_Source\PSoC4/CapSense_Structure.c **** uint32 CapSense_GetCentroidPos(uint32 widgetId)
1451:Generated_Source\PSoC4/CapSense_Structure.c **** {
 601              		.loc 1 1451 0
 602              		.cfi_startproc
 603              	.LVL70:
1452:Generated_Source\PSoC4/CapSense_Structure.c ****     uint32 result = CapSense_SLIDER_NO_TOUCH;
1453:Generated_Source\PSoC4/CapSense_Structure.c ****     CapSense_RAM_WD_SLIDER_STRUCT *wdSlider;
1454:Generated_Source\PSoC4/CapSense_Structure.c ****     
1455:Generated_Source\PSoC4/CapSense_Structure.c ****     if ((widgetId < CapSense_TOTAL_WIDGETS) && 
 604              		.loc 1 1455 0
 605 0000 0728     		cmp	r0, #7
 606 0002 10D8     		bhi	.L59
1456:Generated_Source\PSoC4/CapSense_Structure.c ****         ((CapSense_WD_LINEAR_SLIDER_E == 
1457:Generated_Source\PSoC4/CapSense_Structure.c ****             (CapSense_WD_TYPE_ENUM)CapSense_dsFlash.wdgtArray[widgetId].wdgtType) ||
 607              		.loc 1 1457 0 discriminator 1
 608 0004 C300     		lsl	r3, r0, #3
 609 0006 1B18     		add	r3, r3, r0
 610 0008 9B00     		lsl	r3, r3, #2
 611 000a 094A     		ldr	r2, .L61
 612 000c D318     		add	r3, r2, r3
 613 000e 2833     		add	r3, r3, #40
 614 0010 1B78     		ldrb	r3, [r3]
 615 0012 023B     		sub	r3, r3, #2
1455:Generated_Source\PSoC4/CapSense_Structure.c ****         ((CapSense_WD_LINEAR_SLIDER_E == 
 616              		.loc 1 1455 0 discriminator 1
 617 0014 012B     		cmp	r3, #1
 618 0016 08D8     		bhi	.L60
1458:Generated_Source\PSoC4/CapSense_Structure.c ****          (CapSense_WD_RADIAL_SLIDER_E == 
ARM GAS  C:\Users\TB1014~1\AppData\Local\Temp\ccn3i5XH.s 			page 38


1459:Generated_Source\PSoC4/CapSense_Structure.c ****             (CapSense_WD_TYPE_ENUM)CapSense_dsFlash.wdgtArray[widgetId].wdgtType)))
1460:Generated_Source\PSoC4/CapSense_Structure.c ****     {
1461:Generated_Source\PSoC4/CapSense_Structure.c ****         wdSlider = CapSense_dsFlash.wdgtArray[widgetId].ptr2WdgtRam;
 619              		.loc 1 1461 0
 620 0018 C300     		lsl	r3, r0, #3
 621 001a 1818     		add	r0, r3, r0
 622              	.LVL71:
 623 001c 8000     		lsl	r0, r0, #2
 624 001e 1018     		add	r0, r2, r0
 625 0020 4369     		ldr	r3, [r0, #20]
 626              	.LVL72:
1462:Generated_Source\PSoC4/CapSense_Structure.c ****         result = (uint32)wdSlider->position[0u];
 627              		.loc 1 1462 0
 628 0022 588A     		ldrh	r0, [r3, #18]
 629              	.LVL73:
 630 0024 02E0     		b	.L58
 631              	.LVL74:
 632              	.L59:
1452:Generated_Source\PSoC4/CapSense_Structure.c ****     CapSense_RAM_WD_SLIDER_STRUCT *wdSlider;
 633              		.loc 1 1452 0
 634 0026 0348     		ldr	r0, .L61+4
 635              	.LVL75:
 636 0028 00E0     		b	.L58
 637              	.LVL76:
 638              	.L60:
 639 002a 0248     		ldr	r0, .L61+4
 640              	.LVL77:
 641              	.L58:
1463:Generated_Source\PSoC4/CapSense_Structure.c ****     }
1464:Generated_Source\PSoC4/CapSense_Structure.c ****     
1465:Generated_Source\PSoC4/CapSense_Structure.c ****     return result;
1466:Generated_Source\PSoC4/CapSense_Structure.c **** }
 642              		.loc 1 1466 0
 643              		@ sp needed
 644 002c 7047     		bx	lr
 645              	.L62:
 646 002e C046     		.align	2
 647              	.L61:
 648 0030 00000000 		.word	.LANCHOR0
 649 0034 FFFF0000 		.word	65535
 650              		.cfi_endproc
 651              	.LFE8:
 652              		.size	CapSense_GetCentroidPos, .-CapSense_GetCentroidPos
 653              		.global	CapSense_ioList
 654              		.global	CapSense_dsFlash
 655              		.comm	CapSense_dsRam,324,4
 656              		.section	.rodata
 657              		.align	2
 658              		.set	.LANCHOR0,. + 0
 659              		.set	.LANCHOR1,. + 256
 660              		.type	CapSense_ramIdacInit, %object
 661              		.size	CapSense_ramIdacInit, 14
 662              	CapSense_ramIdacInit:
 663 0000 20       		.byte	32
 664 0001 20       		.byte	32
 665 0002 20       		.byte	32
 666 0003 20       		.byte	32
ARM GAS  C:\Users\TB1014~1\AppData\Local\Temp\ccn3i5XH.s 			page 39


 667 0004 20       		.byte	32
 668 0005 20       		.byte	32
 669 0006 20       		.byte	32
 670 0007 20       		.byte	32
 671 0008 20       		.byte	32
 672 0009 20       		.byte	32
 673 000a 20       		.byte	32
 674 000b 20       		.byte	32
 675 000c 20       		.byte	32
 676 000d 20       		.byte	32
 677 000e 0000     		.space	2
 678              		.type	CapSense_dsFlash, %object
 679              		.size	CapSense_dsFlash, 288
 680              	CapSense_dsFlash:
 681 0010 00000000 		.word	CapSense_ioList
 682 0014 20000000 		.word	CapSense_dsRam+32
 683 0018 B2000000 		.word	CapSense_dsRam+178
 684 001c 20000000 		.word	CapSense_fltrHistoryLinearSlider0
 685 0020 4C000000 		.word	CapSense_debounceLinearSlider0
 686 0024 0100     		.short	1
 687 0026 0700     		.short	7
 688 0028 02       		.byte	2
 689 0029 07       		.byte	7
 690 002a 5802     		.short	600
 691 002c 00640000 		.word	25600
 692 0030 00000000 		.word	CapSense_posHistoryLinearSlider0
 693 0034 C4000000 		.word	CapSense_ioList+196
 694 0038 34000000 		.word	CapSense_dsRam+52
 695 003c F8000000 		.word	CapSense_dsRam+248
 696 0040 1C000000 		.word	CapSense_fltrHistoryBUT0
 697 0044 48000000 		.word	CapSense_debounceBUT0
 698 0048 0100     		.short	1
 699 004a 0100     		.short	1
 700 004c 01       		.byte	1
 701 004d 01       		.byte	1
 702 004e 0000     		.short	0
 703 0050 00000000 		.word	0
 704 0054 00000000 		.word	0
 705 0058 E0000000 		.word	CapSense_ioList+224
 706 005c 46000000 		.word	CapSense_dsRam+70
 707 0060 02010000 		.word	CapSense_dsRam+258
 708 0064 18000000 		.word	CapSense_fltrHistoryBUT1
 709 0068 44000000 		.word	CapSense_debounceBUT1
 710 006c 0100     		.short	1
 711 006e 0100     		.short	1
 712 0070 01       		.byte	1
 713 0071 01       		.byte	1
 714 0072 0000     		.short	0
 715 0074 00000000 		.word	0
 716 0078 00000000 		.word	0
 717 007c FC000000 		.word	CapSense_ioList+252
 718 0080 58000000 		.word	CapSense_dsRam+88
 719 0084 0C010000 		.word	CapSense_dsRam+268
 720 0088 14000000 		.word	CapSense_fltrHistoryBUT3
 721 008c 40000000 		.word	CapSense_debounceBUT3
 722 0090 0100     		.short	1
 723 0092 0100     		.short	1
ARM GAS  C:\Users\TB1014~1\AppData\Local\Temp\ccn3i5XH.s 			page 40


 724 0094 01       		.byte	1
 725 0095 01       		.byte	1
 726 0096 0000     		.short	0
 727 0098 00000000 		.word	0
 728 009c 00000000 		.word	0
 729 00a0 18010000 		.word	CapSense_ioList+280
 730 00a4 6A000000 		.word	CapSense_dsRam+106
 731 00a8 16010000 		.word	CapSense_dsRam+278
 732 00ac 10000000 		.word	CapSense_fltrHistoryBUT4
 733 00b0 3C000000 		.word	CapSense_debounceBUT4
 734 00b4 0100     		.short	1
 735 00b6 0100     		.short	1
 736 00b8 01       		.byte	1
 737 00b9 01       		.byte	1
 738 00ba 0000     		.short	0
 739 00bc 00000000 		.word	0
 740 00c0 00000000 		.word	0
 741 00c4 34010000 		.word	CapSense_ioList+308
 742 00c8 7C000000 		.word	CapSense_dsRam+124
 743 00cc 20010000 		.word	CapSense_dsRam+288
 744 00d0 0C000000 		.word	CapSense_fltrHistoryBUT5
 745 00d4 38000000 		.word	CapSense_debounceBUT5
 746 00d8 0100     		.short	1
 747 00da 0100     		.short	1
 748 00dc 01       		.byte	1
 749 00dd 01       		.byte	1
 750 00de 0000     		.short	0
 751 00e0 00000000 		.word	0
 752 00e4 00000000 		.word	0
 753 00e8 50010000 		.word	CapSense_ioList+336
 754 00ec 8E000000 		.word	CapSense_dsRam+142
 755 00f0 2A010000 		.word	CapSense_dsRam+298
 756 00f4 08000000 		.word	CapSense_fltrHistoryBUT6
 757 00f8 34000000 		.word	CapSense_debounceBUT6
 758 00fc 0100     		.short	1
 759 00fe 0100     		.short	1
 760 0100 01       		.byte	1
 761 0101 01       		.byte	1
 762 0102 0000     		.short	0
 763 0104 00000000 		.word	0
 764 0108 00000000 		.word	0
 765 010c 6C010000 		.word	CapSense_ioList+364
 766 0110 A0000000 		.word	CapSense_dsRam+160
 767 0114 34010000 		.word	CapSense_dsRam+308
 768 0118 04000000 		.word	CapSense_fltrHistoryBUT8
 769 011c 30000000 		.word	CapSense_debounceBUT8
 770 0120 0100     		.short	1
 771 0122 0100     		.short	1
 772 0124 01       		.byte	1
 773 0125 01       		.byte	1
 774 0126 0000     		.short	0
 775 0128 00000000 		.word	0
 776 012c 00000000 		.word	0
 777              		.type	CapSense_ramWidgetInit, %object
 778              		.size	CapSense_ramWidgetInit, 146
 779              	CapSense_ramWidgetInit:
 780 0130 0D00     		.short	13
ARM GAS  C:\Users\TB1014~1\AppData\Local\Temp\ccn3i5XH.s 			page 41


 781 0132 2800     		.short	40
 782 0134 19       		.byte	25
 783 0135 19       		.byte	25
 784 0136 0A       		.byte	10
 785 0137 03       		.byte	3
 786 0138 14       		.byte	20
 787 0139 64       		.byte	100
 788 013a 20       		.byte	32
 789 013b 04       		.byte	4
 790 013c 00       		.byte	0
 791 013d 00       		.space	1
 792 013e A000     		.short	160
 793 0140 0000     		.short	0
 794 0142 FFFF     		.short	-1
 795 0144 0D00     		.short	13
 796 0146 5000     		.short	80
 797 0148 28       		.byte	40
 798 0149 28       		.byte	40
 799 014a 0A       		.byte	10
 800 014b 03       		.byte	3
 801 014c 1E       		.byte	30
 802 014d 64       		.byte	100
 803 014e 20       		.byte	32
 804 014f 04       		.byte	4
 805 0150 00       		.byte	0
 806 0151 00       		.space	1
 807 0152 A000     		.short	160
 808 0154 0000     		.short	0
 809 0156 0D00     		.short	13
 810 0158 5000     		.short	80
 811 015a 28       		.byte	40
 812 015b 28       		.byte	40
 813 015c 0A       		.byte	10
 814 015d 03       		.byte	3
 815 015e 1E       		.byte	30
 816 015f 64       		.byte	100
 817 0160 20       		.byte	32
 818 0161 04       		.byte	4
 819 0162 00       		.byte	0
 820 0163 00       		.space	1
 821 0164 A000     		.short	160
 822 0166 0000     		.short	0
 823 0168 0C00     		.short	12
 824 016a 6400     		.short	100
 825 016c 28       		.byte	40
 826 016d 28       		.byte	40
 827 016e 0A       		.byte	10
 828 016f 03       		.byte	3
 829 0170 1E       		.byte	30
 830 0171 64       		.byte	100
 831 0172 20       		.byte	32
 832 0173 04       		.byte	4
 833 0174 00       		.byte	0
 834 0175 00       		.space	1
 835 0176 A000     		.short	160
 836 0178 0000     		.short	0
 837 017a 0D00     		.short	13
ARM GAS  C:\Users\TB1014~1\AppData\Local\Temp\ccn3i5XH.s 			page 42


 838 017c 6400     		.short	100
 839 017e 28       		.byte	40
 840 017f 28       		.byte	40
 841 0180 0A       		.byte	10
 842 0181 03       		.byte	3
 843 0182 1E       		.byte	30
 844 0183 64       		.byte	100
 845 0184 20       		.byte	32
 846 0185 04       		.byte	4
 847 0186 00       		.byte	0
 848 0187 00       		.space	1
 849 0188 A000     		.short	160
 850 018a 0000     		.short	0
 851 018c 0C00     		.short	12
 852 018e 6400     		.short	100
 853 0190 28       		.byte	40
 854 0191 28       		.byte	40
 855 0192 0A       		.byte	10
 856 0193 03       		.byte	3
 857 0194 1E       		.byte	30
 858 0195 64       		.byte	100
 859 0196 20       		.byte	32
 860 0197 04       		.byte	4
 861 0198 00       		.byte	0
 862 0199 00       		.space	1
 863 019a A000     		.short	160
 864 019c 0000     		.short	0
 865 019e 0C00     		.short	12
 866 01a0 6400     		.short	100
 867 01a2 28       		.byte	40
 868 01a3 28       		.byte	40
 869 01a4 0A       		.byte	10
 870 01a5 03       		.byte	3
 871 01a6 1E       		.byte	30
 872 01a7 64       		.byte	100
 873 01a8 20       		.byte	32
 874 01a9 04       		.byte	4
 875 01aa 00       		.byte	0
 876 01ab 00       		.space	1
 877 01ac A000     		.short	160
 878 01ae 0000     		.short	0
 879 01b0 0C00     		.short	12
 880 01b2 6400     		.short	100
 881 01b4 28       		.byte	40
 882 01b5 28       		.byte	40
 883 01b6 0A       		.byte	10
 884 01b7 03       		.byte	3
 885 01b8 1E       		.byte	30
 886 01b9 64       		.byte	100
 887 01ba 20       		.byte	32
 888 01bb 04       		.byte	4
 889 01bc 00       		.byte	0
 890 01bd 00       		.space	1
 891 01be A000     		.short	160
 892 01c0 0000     		.short	0
 893 01c2 0000     		.space	2
 894              		.type	CapSense_ioList, %object
ARM GAS  C:\Users\TB1014~1\AppData\Local\Temp\ccn3i5XH.s 			page 43


 895              		.size	CapSense_ioList, 392
 896              	CapSense_ioList:
 897 01c4 00020240 		.word	1073873408
 898 01c8 08020440 		.word	1074004488
 899 01cc 00020440 		.word	1074004480
 900 01d0 04020440 		.word	1074004484
 901 01d4 000F0000 		.word	3840
 902 01d8 04000000 		.word	4
 903 01dc 08       		.byte	8
 904 01dd 02       		.byte	2
 905 01de 06       		.byte	6
 906 01df 00       		.space	1
 907 01e0 00020240 		.word	1073873408
 908 01e4 08020440 		.word	1074004488
 909 01e8 00020440 		.word	1074004480
 910 01ec 04020440 		.word	1074004484
 911 01f0 00F00000 		.word	61440
 912 01f4 08000000 		.word	8
 913 01f8 0C       		.byte	12
 914 01f9 03       		.byte	3
 915 01fa 09       		.byte	9
 916 01fb 00       		.space	1
 917 01fc 00020240 		.word	1073873408
 918 0200 08020440 		.word	1074004488
 919 0204 00020440 		.word	1074004480
 920 0208 04020440 		.word	1074004484
 921 020c 0000F000 		.word	15728640
 922 0210 20000000 		.word	32
 923 0214 14       		.byte	20
 924 0215 05       		.byte	5
 925 0216 0F       		.byte	15
 926 0217 00       		.space	1
 927 0218 00020240 		.word	1073873408
 928 021c 08020440 		.word	1074004488
 929 0220 00020440 		.word	1074004480
 930 0224 04020440 		.word	1074004484
 931 0228 0000000F 		.word	251658240
 932 022c 40000000 		.word	64
 933 0230 18       		.byte	24
 934 0231 06       		.byte	6
 935 0232 12       		.byte	18
 936 0233 00       		.space	1
 937 0234 00020240 		.word	1073873408
 938 0238 08020440 		.word	1074004488
 939 023c 00020440 		.word	1074004480
 940 0240 04020440 		.word	1074004484
 941 0244 000000F0 		.word	-268435456
 942 0248 80000000 		.word	128
 943 024c 1C       		.byte	28
 944 024d 07       		.byte	7
 945 024e 15       		.byte	21
 946 024f 00       		.space	1
 947 0250 00010240 		.word	1073873152
 948 0254 08010440 		.word	1074004232
 949 0258 00010440 		.word	1074004224
 950 025c 04010440 		.word	1074004228
 951 0260 000000F0 		.word	-268435456
ARM GAS  C:\Users\TB1014~1\AppData\Local\Temp\ccn3i5XH.s 			page 44


 952 0264 80000000 		.word	128
 953 0268 1C       		.byte	28
 954 0269 07       		.byte	7
 955 026a 15       		.byte	21
 956 026b 00       		.space	1
 957 026c 00010240 		.word	1073873152
 958 0270 08010440 		.word	1074004232
 959 0274 00010440 		.word	1074004224
 960 0278 04010440 		.word	1074004228
 961 027c 00F00000 		.word	61440
 962 0280 08000000 		.word	8
 963 0284 0C       		.byte	12
 964 0285 03       		.byte	3
 965 0286 09       		.byte	9
 966 0287 00       		.space	1
 967 0288 00000240 		.word	1073872896
 968 028c 08000440 		.word	1074003976
 969 0290 00000440 		.word	1074003968
 970 0294 04000440 		.word	1074003972
 971 0298 0000000F 		.word	251658240
 972 029c 40000000 		.word	64
 973 02a0 18       		.byte	24
 974 02a1 06       		.byte	6
 975 02a2 12       		.byte	18
 976 02a3 00       		.space	1
 977 02a4 00000240 		.word	1073872896
 978 02a8 08000440 		.word	1074003976
 979 02ac 00000440 		.word	1074003968
 980 02b0 04000440 		.word	1074003972
 981 02b4 0000F000 		.word	15728640
 982 02b8 20000000 		.word	32
 983 02bc 14       		.byte	20
 984 02bd 05       		.byte	5
 985 02be 0F       		.byte	15
 986 02bf 00       		.space	1
 987 02c0 00000240 		.word	1073872896
 988 02c4 08000440 		.word	1074003976
 989 02c8 00000440 		.word	1074003968
 990 02cc 04000440 		.word	1074003972
 991 02d0 00F00000 		.word	61440
 992 02d4 08000000 		.word	8
 993 02d8 0C       		.byte	12
 994 02d9 03       		.byte	3
 995 02da 09       		.byte	9
 996 02db 00       		.space	1
 997 02dc 00000240 		.word	1073872896
 998 02e0 08000440 		.word	1074003976
 999 02e4 00000440 		.word	1074003968
 1000 02e8 04000440 		.word	1074003972
 1001 02ec 000F0000 		.word	3840
 1002 02f0 04000000 		.word	4
 1003 02f4 08       		.byte	8
 1004 02f5 02       		.byte	2
 1005 02f6 06       		.byte	6
 1006 02f7 00       		.space	1
 1007 02f8 00000240 		.word	1073872896
 1008 02fc 08000440 		.word	1074003976
ARM GAS  C:\Users\TB1014~1\AppData\Local\Temp\ccn3i5XH.s 			page 45


 1009 0300 00000440 		.word	1074003968
 1010 0304 04000440 		.word	1074003972
 1011 0308 F0000000 		.word	240
 1012 030c 02000000 		.word	2
 1013 0310 04       		.byte	4
 1014 0311 01       		.byte	1
 1015 0312 03       		.byte	3
 1016 0313 00       		.space	1
 1017 0314 00000240 		.word	1073872896
 1018 0318 08000440 		.word	1074003976
 1019 031c 00000440 		.word	1074003968
 1020 0320 04000440 		.word	1074003972
 1021 0324 0F000000 		.word	15
 1022 0328 01000000 		.word	1
 1023 032c 00       		.byte	0
 1024 032d 00       		.byte	0
 1025 032e 00       		.byte	0
 1026 032f 00       		.space	1
 1027 0330 00010240 		.word	1073873152
 1028 0334 08010440 		.word	1074004232
 1029 0338 00010440 		.word	1074004224
 1030 033c 04010440 		.word	1074004228
 1031 0340 000F0000 		.word	3840
 1032 0344 04000000 		.word	4
 1033 0348 08       		.byte	8
 1034 0349 02       		.byte	2
 1035 034a 06       		.byte	6
 1036 034b 00       		.space	1
 1037              		.bss
 1038              		.align	2
 1039              		.type	CapSense_posHistoryLinearSlider0, %object
 1040              		.size	CapSense_posHistoryLinearSlider0, 4
 1041              	CapSense_posHistoryLinearSlider0:
 1042 0000 00000000 		.space	4
 1043              		.type	CapSense_fltrHistoryBUT8, %object
 1044              		.size	CapSense_fltrHistoryBUT8, 2
 1045              	CapSense_fltrHistoryBUT8:
 1046 0004 0000     		.space	2
 1047 0006 0000     		.space	2
 1048              		.type	CapSense_fltrHistoryBUT6, %object
 1049              		.size	CapSense_fltrHistoryBUT6, 2
 1050              	CapSense_fltrHistoryBUT6:
 1051 0008 0000     		.space	2
 1052 000a 0000     		.space	2
 1053              		.type	CapSense_fltrHistoryBUT5, %object
 1054              		.size	CapSense_fltrHistoryBUT5, 2
 1055              	CapSense_fltrHistoryBUT5:
 1056 000c 0000     		.space	2
 1057 000e 0000     		.space	2
 1058              		.type	CapSense_fltrHistoryBUT4, %object
 1059              		.size	CapSense_fltrHistoryBUT4, 2
 1060              	CapSense_fltrHistoryBUT4:
 1061 0010 0000     		.space	2
 1062 0012 0000     		.space	2
 1063              		.type	CapSense_fltrHistoryBUT3, %object
 1064              		.size	CapSense_fltrHistoryBUT3, 2
 1065              	CapSense_fltrHistoryBUT3:
ARM GAS  C:\Users\TB1014~1\AppData\Local\Temp\ccn3i5XH.s 			page 46


 1066 0014 0000     		.space	2
 1067 0016 0000     		.space	2
 1068              		.type	CapSense_fltrHistoryBUT1, %object
 1069              		.size	CapSense_fltrHistoryBUT1, 2
 1070              	CapSense_fltrHistoryBUT1:
 1071 0018 0000     		.space	2
 1072 001a 0000     		.space	2
 1073              		.type	CapSense_fltrHistoryBUT0, %object
 1074              		.size	CapSense_fltrHistoryBUT0, 2
 1075              	CapSense_fltrHistoryBUT0:
 1076 001c 0000     		.space	2
 1077 001e 0000     		.space	2
 1078              		.type	CapSense_fltrHistoryLinearSlider0, %object
 1079              		.size	CapSense_fltrHistoryLinearSlider0, 14
 1080              	CapSense_fltrHistoryLinearSlider0:
 1081 0020 00000000 		.space	14
 1081      00000000 
 1081      00000000 
 1081      0000
 1082 002e 0000     		.space	2
 1083              		.type	CapSense_debounceBUT8, %object
 1084              		.size	CapSense_debounceBUT8, 1
 1085              	CapSense_debounceBUT8:
 1086 0030 00       		.space	1
 1087 0031 000000   		.space	3
 1088              		.type	CapSense_debounceBUT6, %object
 1089              		.size	CapSense_debounceBUT6, 1
 1090              	CapSense_debounceBUT6:
 1091 0034 00       		.space	1
 1092 0035 000000   		.space	3
 1093              		.type	CapSense_debounceBUT5, %object
 1094              		.size	CapSense_debounceBUT5, 1
 1095              	CapSense_debounceBUT5:
 1096 0038 00       		.space	1
 1097 0039 000000   		.space	3
 1098              		.type	CapSense_debounceBUT4, %object
 1099              		.size	CapSense_debounceBUT4, 1
 1100              	CapSense_debounceBUT4:
 1101 003c 00       		.space	1
 1102 003d 000000   		.space	3
 1103              		.type	CapSense_debounceBUT3, %object
 1104              		.size	CapSense_debounceBUT3, 1
 1105              	CapSense_debounceBUT3:
 1106 0040 00       		.space	1
 1107 0041 000000   		.space	3
 1108              		.type	CapSense_debounceBUT1, %object
 1109              		.size	CapSense_debounceBUT1, 1
 1110              	CapSense_debounceBUT1:
 1111 0044 00       		.space	1
 1112 0045 000000   		.space	3
 1113              		.type	CapSense_debounceBUT0, %object
 1114              		.size	CapSense_debounceBUT0, 1
 1115              	CapSense_debounceBUT0:
 1116 0048 00       		.space	1
 1117 0049 000000   		.space	3
 1118              		.type	CapSense_debounceLinearSlider0, %object
 1119              		.size	CapSense_debounceLinearSlider0, 1
ARM GAS  C:\Users\TB1014~1\AppData\Local\Temp\ccn3i5XH.s 			page 47


 1120              	CapSense_debounceLinearSlider0:
 1121 004c 00       		.space	1
 1122 004d 000000   		.text
 1123              	.Letext0:
 1124              		.file 2 "Generated_Source\\PSoC4/cytypes.h"
 1125              		.file 3 "Generated_Source\\PSoC4\\CapSense_Configuration.h"
 1126              		.file 4 "Generated_Source\\PSoC4\\CapSense_Structure.h"
 1127              		.file 5 "Generated_Source\\PSoC4\\CyLib.h"