ARM GAS  C:\Users\TB1014~1\AppData\Local\Temp\ccTzyt2s.s 			page 1


   1              		.cpu cortex-m0plus
   2              		.fpu softvfp
   3              		.eabi_attribute 20, 1
   4              		.eabi_attribute 21, 1
   5              		.eabi_attribute 23, 3
   6              		.eabi_attribute 24, 1
   7              		.eabi_attribute 25, 1
   8              		.eabi_attribute 26, 1
   9              		.eabi_attribute 30, 1
  10              		.eabi_attribute 34, 0
  11              		.eabi_attribute 18, 4
  12              		.code	16
  13              		.file	"CapSense_Processing.c"
  14              		.text
  15              	.Ltext0:
  16              		.cfi_sections	.debug_frame
  17              		.section	.text.CapSense_DpInitialize,"ax",%progbits
  18              		.align	2
  19              		.global	CapSense_DpInitialize
  20              		.code	16
  21              		.thumb_func
  22              		.type	CapSense_DpInitialize, %function
  23              	CapSense_DpInitialize:
  24              	.LFB2:
  25              		.file 1 "Generated_Source\\PSoC4\\CapSense_Processing.c"
   1:Generated_Source\PSoC4/CapSense_Processing.c **** /***************************************************************************//**
   2:Generated_Source\PSoC4/CapSense_Processing.c **** * \file CapSense_Processing.c
   3:Generated_Source\PSoC4/CapSense_Processing.c **** * \version 3.10
   4:Generated_Source\PSoC4/CapSense_Processing.c **** *
   5:Generated_Source\PSoC4/CapSense_Processing.c **** * \brief
   6:Generated_Source\PSoC4/CapSense_Processing.c **** * This file provides the source code for the Data Processing module APIs
   7:Generated_Source\PSoC4/CapSense_Processing.c **** * of the component. The Data Processing module is responsible for the
   8:Generated_Source\PSoC4/CapSense_Processing.c **** * low level raw counts processing provided by the sensing module, maintaining
   9:Generated_Source\PSoC4/CapSense_Processing.c **** * baseline and difference values and performing high-level widget processing
  10:Generated_Source\PSoC4/CapSense_Processing.c **** * like updating button status or calculating slider position.
  11:Generated_Source\PSoC4/CapSense_Processing.c **** *
  12:Generated_Source\PSoC4/CapSense_Processing.c **** * \see CapSense P4 v3.10 Datasheet
  13:Generated_Source\PSoC4/CapSense_Processing.c **** *
  14:Generated_Source\PSoC4/CapSense_Processing.c **** *//*****************************************************************************
  15:Generated_Source\PSoC4/CapSense_Processing.c **** * Copyright (2016), Cypress Semiconductor Corporation.
  16:Generated_Source\PSoC4/CapSense_Processing.c **** ********************************************************************************
  17:Generated_Source\PSoC4/CapSense_Processing.c **** * This software is owned by Cypress Semiconductor Corporation (Cypress) and is
  18:Generated_Source\PSoC4/CapSense_Processing.c **** * protected by and subject to worldwide patent protection (United States and
  19:Generated_Source\PSoC4/CapSense_Processing.c **** * foreign), United States copyright laws and international treaty provisions.
  20:Generated_Source\PSoC4/CapSense_Processing.c **** * Cypress hereby grants to licensee a personal, non-exclusive, non-transferable
  21:Generated_Source\PSoC4/CapSense_Processing.c **** * license to copy, use, modify, create derivative works of, and compile the
  22:Generated_Source\PSoC4/CapSense_Processing.c **** * Cypress Source Code and derivative works for the sole purpose of creating
  23:Generated_Source\PSoC4/CapSense_Processing.c **** * custom software in support of licensee product to be used only in conjunction
  24:Generated_Source\PSoC4/CapSense_Processing.c **** * with a Cypress integrated circuit as specified in the applicable agreement.
  25:Generated_Source\PSoC4/CapSense_Processing.c **** * Any reproduction, modification, translation, compilation, or representation of
  26:Generated_Source\PSoC4/CapSense_Processing.c **** * this software except as specified above is prohibited without the express
  27:Generated_Source\PSoC4/CapSense_Processing.c **** * written permission of Cypress.
  28:Generated_Source\PSoC4/CapSense_Processing.c **** *
  29:Generated_Source\PSoC4/CapSense_Processing.c **** * Disclaimer: CYPRESS MAKES NO WARRANTY OF ANY KIND, EXPRESS OR IMPLIED, WITH
  30:Generated_Source\PSoC4/CapSense_Processing.c **** * REGARD TO THIS MATERIAL, INCLUDING, BUT NOT LIMITED TO, THE IMPLIED
  31:Generated_Source\PSoC4/CapSense_Processing.c **** * WARRANTIES OF MERCHANTABILITY AND FITNESS FOR A PARTICULAR PURPOSE.
  32:Generated_Source\PSoC4/CapSense_Processing.c **** * Cypress reserves the right to make changes without further notice to the
ARM GAS  C:\Users\TB1014~1\AppData\Local\Temp\ccTzyt2s.s 			page 2


  33:Generated_Source\PSoC4/CapSense_Processing.c **** * materials described herein. Cypress does not assume any liability arising out
  34:Generated_Source\PSoC4/CapSense_Processing.c **** * of the application or use of any product or circuit described herein. Cypress
  35:Generated_Source\PSoC4/CapSense_Processing.c **** * does not authorize its products for use as critical components in life-support
  36:Generated_Source\PSoC4/CapSense_Processing.c **** * systems where a malfunction or failure may reasonably be expected to result in
  37:Generated_Source\PSoC4/CapSense_Processing.c **** * significant injury to the user. The inclusion of Cypress' product in a life-
  38:Generated_Source\PSoC4/CapSense_Processing.c **** * support systems application implies that the manufacturer assumes all risk of
  39:Generated_Source\PSoC4/CapSense_Processing.c **** * such use and in doing so indemnifies Cypress against all charges. Use may be
  40:Generated_Source\PSoC4/CapSense_Processing.c **** * limited by and subject to the applicable Cypress software license agreement.
  41:Generated_Source\PSoC4/CapSense_Processing.c **** *******************************************************************************/
  42:Generated_Source\PSoC4/CapSense_Processing.c **** 
  43:Generated_Source\PSoC4/CapSense_Processing.c **** #include "cytypes.h"
  44:Generated_Source\PSoC4/CapSense_Processing.c **** #include "CapSense_Configuration.h"
  45:Generated_Source\PSoC4/CapSense_Processing.c **** #include "CapSense_Processing.h"
  46:Generated_Source\PSoC4/CapSense_Processing.c **** #include "CapSense_Filter.h"
  47:Generated_Source\PSoC4/CapSense_Processing.c **** 
  48:Generated_Source\PSoC4/CapSense_Processing.c **** #if (0u != CapSense_CENTROID_EN)
  49:Generated_Source\PSoC4/CapSense_Processing.c ****     #include "CapSense_Centroid_LL.h"
  50:Generated_Source\PSoC4/CapSense_Processing.c **** #endif /* (0 != CapSense_CENTROID_EN) */
  51:Generated_Source\PSoC4/CapSense_Processing.c **** 
  52:Generated_Source\PSoC4/CapSense_Processing.c **** #if (0 != (CapSense_CSD_AUTOTUNE & CapSense_CSD_SS_TH_EN))
  53:Generated_Source\PSoC4/CapSense_Processing.c ****     #include "CapSense_SmartSense_LL.h"
  54:Generated_Source\PSoC4/CapSense_Processing.c **** #endif /* (0 != (CapSense_CSD_AUTOTUNE & CapSense_CSD_SS_TH_EN)) */
  55:Generated_Source\PSoC4/CapSense_Processing.c **** 
  56:Generated_Source\PSoC4/CapSense_Processing.c **** #if (CapSense_ENABLE == CapSense_SELF_TEST_EN)
  57:Generated_Source\PSoC4/CapSense_Processing.c ****     #include "CapSense_SelfTest.h"
  58:Generated_Source\PSoC4/CapSense_Processing.c **** #endif
  59:Generated_Source\PSoC4/CapSense_Processing.c **** 
  60:Generated_Source\PSoC4/CapSense_Processing.c **** #include "CyLib.h"
  61:Generated_Source\PSoC4/CapSense_Processing.c **** 
  62:Generated_Source\PSoC4/CapSense_Processing.c **** /**************************************************************************************************
  63:Generated_Source\PSoC4/CapSense_Processing.c **** * Local definition
  64:Generated_Source\PSoC4/CapSense_Processing.c **** ***************************************************************************************************
  65:Generated_Source\PSoC4/CapSense_Processing.c **** 
  66:Generated_Source\PSoC4/CapSense_Processing.c **** /* This definition resolves to TRUE if any of the FW filters for raw counts are enabled */
  67:Generated_Source\PSoC4/CapSense_Processing.c **** #define DP_FW_FILTER_EN                                 \
  68:Generated_Source\PSoC4/CapSense_Processing.c ****             (CapSense_REGULAR_RC_FILTER_EN |  \
  69:Generated_Source\PSoC4/CapSense_Processing.c ****              CapSense_PROX_RC_FILTER_EN)
  70:Generated_Source\PSoC4/CapSense_Processing.c **** 
  71:Generated_Source\PSoC4/CapSense_Processing.c **** /* This definition resolves to TRUE if any of the position filters are enabled */
  72:Generated_Source\PSoC4/CapSense_Processing.c **** #define DP_POSITION_FILTER_EN                           \
  73:Generated_Source\PSoC4/CapSense_Processing.c ****             (CapSense_POS_IIR_FILTER_EN      || \
  74:Generated_Source\PSoC4/CapSense_Processing.c ****              CapSense_POS_MEDIAN_FILTER_EN   || \
  75:Generated_Source\PSoC4/CapSense_Processing.c ****              CapSense_POS_AVERAGE_FILTER_EN  || \
  76:Generated_Source\PSoC4/CapSense_Processing.c ****              CapSense_POS_JITTER_FILTER_EN)
  77:Generated_Source\PSoC4/CapSense_Processing.c **** 
  78:Generated_Source\PSoC4/CapSense_Processing.c **** /* This definition resolves to TRUE if any of position filters are enabled and component has slider
  79:Generated_Source\PSoC4/CapSense_Processing.c ****  * The processing function of the CSD touchpad reuses the filtering function of the slider widget. 
  80:Generated_Source\PSoC4/CapSense_Processing.c **** #define DP_LINEAR_SLIDER_FILTER_EN                                             \
  81:Generated_Source\PSoC4/CapSense_Processing.c ****            (DP_POSITION_FILTER_EN && (CapSense_TOTAL_LINEAR_SLIDERS || \
  82:Generated_Source\PSoC4/CapSense_Processing.c ****                                       CapSense_CSD_TOUCHPAD_WIDGET_EN))
  83:Generated_Source\PSoC4/CapSense_Processing.c **** 
  84:Generated_Source\PSoC4/CapSense_Processing.c **** /* UINT32 constant with all odd bits set. It is used by the processing function of the Proximity wi
  85:Generated_Source\PSoC4/CapSense_Processing.c **** *  determine type of the status bit: odd bits report proximity status; even bits report touch statu
  86:Generated_Source\PSoC4/CapSense_Processing.c ****  */
  87:Generated_Source\PSoC4/CapSense_Processing.c **** #define UINT32_ODD_BITS_CONST       (0x55555555u)
  88:Generated_Source\PSoC4/CapSense_Processing.c **** 
  89:Generated_Source\PSoC4/CapSense_Processing.c **** /* Default value for the Off Debounce counter when the Off Debounce is disabled */
ARM GAS  C:\Users\TB1014~1\AppData\Local\Temp\ccTzyt2s.s 			page 3


  90:Generated_Source\PSoC4/CapSense_Processing.c **** #define DEFAULT_OFF_DEBOUNCE_VALUE  (1u)
  91:Generated_Source\PSoC4/CapSense_Processing.c **** #define PERCENTAGE_100              (0x00000064Lu)
  92:Generated_Source\PSoC4/CapSense_Processing.c **** #define TEMP_BUFFER_MSB_SHIFT       (16)
  93:Generated_Source\PSoC4/CapSense_Processing.c **** 
  94:Generated_Source\PSoC4/CapSense_Processing.c **** /**************************************************************************************************
  95:Generated_Source\PSoC4/CapSense_Processing.c **** * Local variables
  96:Generated_Source\PSoC4/CapSense_Processing.c **** ***************************************************************************************************
  97:Generated_Source\PSoC4/CapSense_Processing.c **** #if (0u != CapSense_CSX_MULTIPHASE_TX_EN)
  98:Generated_Source\PSoC4/CapSense_Processing.c ****     static uint16 deconvRowData[CapSense_CSX_MAX_TX_PHASE_LENGTH];
  99:Generated_Source\PSoC4/CapSense_Processing.c **** #endif
 100:Generated_Source\PSoC4/CapSense_Processing.c **** 
 101:Generated_Source\PSoC4/CapSense_Processing.c **** 
 102:Generated_Source\PSoC4/CapSense_Processing.c **** /**************************************************************************************************
 103:Generated_Source\PSoC4/CapSense_Processing.c **** * Static Function Prototypes
 104:Generated_Source\PSoC4/CapSense_Processing.c **** ***************************************************************************************************
 105:Generated_Source\PSoC4/CapSense_Processing.c **** /**
 106:Generated_Source\PSoC4/CapSense_Processing.c **** * \if SECTION_CAPSENSE_INTERNAL
 107:Generated_Source\PSoC4/CapSense_Processing.c **** * \addtogroup group_capsense_internal
 108:Generated_Source\PSoC4/CapSense_Processing.c **** * \{
 109:Generated_Source\PSoC4/CapSense_Processing.c **** */
 110:Generated_Source\PSoC4/CapSense_Processing.c **** #if (0u != CapSense_TOTAL_LINEAR_SLIDERS)
 111:Generated_Source\PSoC4/CapSense_Processing.c ****     static CY_INLINE void DpUpdateLinSlider(
 112:Generated_Source\PSoC4/CapSense_Processing.c ****                         const uint16 newPos[], uint32 numTouches,
 113:Generated_Source\PSoC4/CapSense_Processing.c ****                         CapSense_FLASH_WD_STRUCT const *ptrFlashWdgt,
 114:Generated_Source\PSoC4/CapSense_Processing.c ****                         CapSense_RAM_WD_SLIDER_STRUCT *ptrRamWdgt);
 115:Generated_Source\PSoC4/CapSense_Processing.c **** #endif /* #if (0u != CapSense_TOTAL_LINEAR_SLIDERS) */
 116:Generated_Source\PSoC4/CapSense_Processing.c **** 
 117:Generated_Source\PSoC4/CapSense_Processing.c **** #if (0u != DP_LINEAR_SLIDER_FILTER_EN)
 118:Generated_Source\PSoC4/CapSense_Processing.c ****     static CY_INLINE void DpFilterLinSlider(
 119:Generated_Source\PSoC4/CapSense_Processing.c ****                         uint16 newPos, uint32 staticConfig, uint16 *ptrCurrPos,
 120:Generated_Source\PSoC4/CapSense_Processing.c ****                         CapSense_SLIDER_POS_HISTORY_STRUCT *ptrHistory);
 121:Generated_Source\PSoC4/CapSense_Processing.c **** #endif /* #if (0u != DP_LINEAR_SLIDER_FILTER_EN) */
 122:Generated_Source\PSoC4/CapSense_Processing.c **** 
 123:Generated_Source\PSoC4/CapSense_Processing.c **** #if (0u != CapSense_TOTAL_RADIAL_SLIDERS)
 124:Generated_Source\PSoC4/CapSense_Processing.c ****     static CY_INLINE void DpUpdateRadSlider(
 125:Generated_Source\PSoC4/CapSense_Processing.c ****                         const uint16 newPos[], uint32 numTouches,
 126:Generated_Source\PSoC4/CapSense_Processing.c ****                         CapSense_FLASH_WD_STRUCT const * ptrFlashWdgt,
 127:Generated_Source\PSoC4/CapSense_Processing.c ****                         CapSense_RAM_WD_SLIDER_STRUCT *ptrRamWdgt);
 128:Generated_Source\PSoC4/CapSense_Processing.c **** #endif /* #if (0u != CapSense_TOTAL_RADIAL_SLIDERS) */
 129:Generated_Source\PSoC4/CapSense_Processing.c **** 
 130:Generated_Source\PSoC4/CapSense_Processing.c **** #if (0u != CapSense_CSD_TOUCHPAD_WIDGET_EN)
 131:Generated_Source\PSoC4/CapSense_Processing.c ****     static CY_INLINE void CapSense_DpInitCsdTouchpad(CapSense_FLASH_WD_STRUCT const * ptrFlashWdgt)
 132:Generated_Source\PSoC4/CapSense_Processing.c **** #endif /* #if (0u != CapSense_CSD_TOUCHPAD_WIDGET_EN) */
 133:Generated_Source\PSoC4/CapSense_Processing.c **** 
 134:Generated_Source\PSoC4/CapSense_Processing.c **** #if (0u != CapSense_CSX_TOUCHPAD_WIDGET_EN)
 135:Generated_Source\PSoC4/CapSense_Processing.c ****     static CY_INLINE void CapSense_DpInitCsxTouchpad(CapSense_FLASH_WD_STRUCT const * ptrFlashWdgt)
 136:Generated_Source\PSoC4/CapSense_Processing.c **** #endif /* #if (0u != CapSense_CSX_TOUCHPAD_WIDGET_EN) */
 137:Generated_Source\PSoC4/CapSense_Processing.c **** 
 138:Generated_Source\PSoC4/CapSense_Processing.c **** #if (0u != CapSense_SLIDER_WIDGET_EN)
 139:Generated_Source\PSoC4/CapSense_Processing.c ****     static CY_INLINE void CapSense_DpInitSlider(CapSense_FLASH_WD_STRUCT const * ptrFlashWdgt);
 140:Generated_Source\PSoC4/CapSense_Processing.c **** #endif /* #if (0u != CapSense_SLIDER_WIDGET_EN) */
 141:Generated_Source\PSoC4/CapSense_Processing.c **** 
 142:Generated_Source\PSoC4/CapSense_Processing.c **** #if (0u != CapSense_CSD_MATRIX_WIDGET_EN)
 143:Generated_Source\PSoC4/CapSense_Processing.c ****     static CY_INLINE void CapSense_DpInitCsdMatrix(CapSense_FLASH_WD_STRUCT const * ptrFlashWdgt);
 144:Generated_Source\PSoC4/CapSense_Processing.c **** #endif /* #if (0u != CapSense_CSD_MATRIX_WIDGET_EN) */
 145:Generated_Source\PSoC4/CapSense_Processing.c **** 
 146:Generated_Source\PSoC4/CapSense_Processing.c **** /** \}
ARM GAS  C:\Users\TB1014~1\AppData\Local\Temp\ccTzyt2s.s 			page 4


 147:Generated_Source\PSoC4/CapSense_Processing.c **** * \endif */
 148:Generated_Source\PSoC4/CapSense_Processing.c **** 
 149:Generated_Source\PSoC4/CapSense_Processing.c **** #if (0u != CapSense_CSD_TOUCHPAD_WIDGET_EN)
 150:Generated_Source\PSoC4/CapSense_Processing.c **** /*******************************************************************************
 151:Generated_Source\PSoC4/CapSense_Processing.c **** * Function Name: CapSense_DpInitCsdTouchpad
 152:Generated_Source\PSoC4/CapSense_Processing.c **** ****************************************************************************//**
 153:Generated_Source\PSoC4/CapSense_Processing.c **** *
 154:Generated_Source\PSoC4/CapSense_Processing.c **** * \brief
 155:Generated_Source\PSoC4/CapSense_Processing.c **** *  Performs initialization of the CSD touchpad widget.
 156:Generated_Source\PSoC4/CapSense_Processing.c **** *   - Resets the position data to NONE
 157:Generated_Source\PSoC4/CapSense_Processing.c **** *   - Initializes the median filter history if the appropriate position filter is enabled.
 158:Generated_Source\PSoC4/CapSense_Processing.c **** *
 159:Generated_Source\PSoC4/CapSense_Processing.c **** * \details
 160:Generated_Source\PSoC4/CapSense_Processing.c **** *  The position data is always reset to the CapSense_TOUCHPAD_POS_NONE value.
 161:Generated_Source\PSoC4/CapSense_Processing.c **** *  The same happens to the median filter history data if this type of filter is enabled.
 162:Generated_Source\PSoC4/CapSense_Processing.c **** *
 163:Generated_Source\PSoC4/CapSense_Processing.c **** *******************************************************************************/
 164:Generated_Source\PSoC4/CapSense_Processing.c **** static CY_INLINE void CapSense_DpInitCsdTouchpad(CapSense_FLASH_WD_STRUCT const * ptrFlashWdgt)
 165:Generated_Source\PSoC4/CapSense_Processing.c **** {
 166:Generated_Source\PSoC4/CapSense_Processing.c ****     CapSense_RAM_WD_CSD_TOUCHPAD_STRUCT *ptrWdTouchpad;
 167:Generated_Source\PSoC4/CapSense_Processing.c **** 
 168:Generated_Source\PSoC4/CapSense_Processing.c ****     #if (0u != CapSense_POS_MEDIAN_FILTER_EN)
 169:Generated_Source\PSoC4/CapSense_Processing.c ****         CapSense_TOUCHPAD_POS_HISTORY_STRUCT *ptrHistory;
 170:Generated_Source\PSoC4/CapSense_Processing.c ****     #endif  /* #if (0u != CapSense_POS_MEDIAN_FILTER_EN) */
 171:Generated_Source\PSoC4/CapSense_Processing.c **** 
 172:Generated_Source\PSoC4/CapSense_Processing.c ****     ptrWdTouchpad = ptrFlashWdgt->ptr2WdgtRam;
 173:Generated_Source\PSoC4/CapSense_Processing.c **** 
 174:Generated_Source\PSoC4/CapSense_Processing.c ****     /* Reset position data */
 175:Generated_Source\PSoC4/CapSense_Processing.c ****     ptrWdTouchpad->posX = CapSense_TOUCHPAD_POS_NONE;
 176:Generated_Source\PSoC4/CapSense_Processing.c ****     ptrWdTouchpad->posY = CapSense_TOUCHPAD_POS_NONE;
 177:Generated_Source\PSoC4/CapSense_Processing.c **** 
 178:Generated_Source\PSoC4/CapSense_Processing.c ****     /* Reset median filter */
 179:Generated_Source\PSoC4/CapSense_Processing.c ****     #if (0u != CapSense_POS_MEDIAN_FILTER_EN)
 180:Generated_Source\PSoC4/CapSense_Processing.c ****         ptrHistory = ptrFlashWdgt->ptr2PosHistory;
 181:Generated_Source\PSoC4/CapSense_Processing.c **** 
 182:Generated_Source\PSoC4/CapSense_Processing.c ****         if (NULL != ptrHistory)
 183:Generated_Source\PSoC4/CapSense_Processing.c ****         {
 184:Generated_Source\PSoC4/CapSense_Processing.c ****             ptrHistory->xPos.posMedianZ1 = CapSense_TOUCHPAD_POS_NONE;
 185:Generated_Source\PSoC4/CapSense_Processing.c ****             ptrHistory->xPos.posMedianZ2 = CapSense_TOUCHPAD_POS_NONE;
 186:Generated_Source\PSoC4/CapSense_Processing.c **** 
 187:Generated_Source\PSoC4/CapSense_Processing.c ****             ptrHistory->yPos.posMedianZ1 = CapSense_TOUCHPAD_POS_NONE;
 188:Generated_Source\PSoC4/CapSense_Processing.c ****             ptrHistory->yPos.posMedianZ2 = CapSense_TOUCHPAD_POS_NONE;
 189:Generated_Source\PSoC4/CapSense_Processing.c ****         }
 190:Generated_Source\PSoC4/CapSense_Processing.c ****     #endif /* #if (0u != CapSense_POS_MEDIAN_FILTER_EN) */
 191:Generated_Source\PSoC4/CapSense_Processing.c **** }
 192:Generated_Source\PSoC4/CapSense_Processing.c **** #endif /* #if (0u != CapSense_CSD_TOUCHPAD_WIDGET_EN) */
 193:Generated_Source\PSoC4/CapSense_Processing.c **** 
 194:Generated_Source\PSoC4/CapSense_Processing.c **** #if (0u != CapSense_CSX_TOUCHPAD_WIDGET_EN)
 195:Generated_Source\PSoC4/CapSense_Processing.c **** /*******************************************************************************
 196:Generated_Source\PSoC4/CapSense_Processing.c **** * Function Name: CapSense_DpInitCsxTouchpad
 197:Generated_Source\PSoC4/CapSense_Processing.c **** ****************************************************************************//**
 198:Generated_Source\PSoC4/CapSense_Processing.c **** *
 199:Generated_Source\PSoC4/CapSense_Processing.c **** * \brief
 200:Generated_Source\PSoC4/CapSense_Processing.c **** *  Performs initialization of the CSX touchpad widget i.e. Resets the position data to NONE.
 201:Generated_Source\PSoC4/CapSense_Processing.c **** *
 202:Generated_Source\PSoC4/CapSense_Processing.c **** * \details
 203:Generated_Source\PSoC4/CapSense_Processing.c **** *  The position data is always reset to the CapSense_TOUCHPAD_POS_NONE value.
ARM GAS  C:\Users\TB1014~1\AppData\Local\Temp\ccTzyt2s.s 			page 5


 204:Generated_Source\PSoC4/CapSense_Processing.c **** *
 205:Generated_Source\PSoC4/CapSense_Processing.c **** *******************************************************************************/
 206:Generated_Source\PSoC4/CapSense_Processing.c **** static CY_INLINE void CapSense_DpInitCsxTouchpad(CapSense_FLASH_WD_STRUCT const * ptrFlashWdgt)
 207:Generated_Source\PSoC4/CapSense_Processing.c **** {
 208:Generated_Source\PSoC4/CapSense_Processing.c ****     CapSense_RAM_WD_CSX_TOUCHPAD_STRUCT *ptrWdTouchpad;
 209:Generated_Source\PSoC4/CapSense_Processing.c **** 
 210:Generated_Source\PSoC4/CapSense_Processing.c ****     ptrWdTouchpad = ptrFlashWdgt->ptr2WdgtRam;
 211:Generated_Source\PSoC4/CapSense_Processing.c **** 
 212:Generated_Source\PSoC4/CapSense_Processing.c ****     /* Reset position data for finger */
 213:Generated_Source\PSoC4/CapSense_Processing.c ****     ptrWdTouchpad->touch[0u].x = CapSense_TOUCHPAD_POS_NONE;
 214:Generated_Source\PSoC4/CapSense_Processing.c ****     ptrWdTouchpad->touch[0u].y = CapSense_TOUCHPAD_POS_NONE;
 215:Generated_Source\PSoC4/CapSense_Processing.c ****     ptrWdTouchpad->touch[0u].z = LO8(CapSense_TOUCHPAD_POS_NONE);
 216:Generated_Source\PSoC4/CapSense_Processing.c **** 
 217:Generated_Source\PSoC4/CapSense_Processing.c ****     #if (CapSense_CSX_MAX_FINGERS > 1u)
 218:Generated_Source\PSoC4/CapSense_Processing.c ****         ptrWdTouchpad->touch[1u].x = CapSense_TOUCHPAD_POS_NONE;
 219:Generated_Source\PSoC4/CapSense_Processing.c ****         ptrWdTouchpad->touch[1u].y = CapSense_TOUCHPAD_POS_NONE;
 220:Generated_Source\PSoC4/CapSense_Processing.c ****         ptrWdTouchpad->touch[1u].z = LO8(CapSense_TOUCHPAD_POS_NONE);
 221:Generated_Source\PSoC4/CapSense_Processing.c ****     #endif /* #if (CapSense_CSX_MAX_FINGERS > 1u) */
 222:Generated_Source\PSoC4/CapSense_Processing.c **** 
 223:Generated_Source\PSoC4/CapSense_Processing.c ****     #if (CapSense_CSX_MAX_FINGERS > 2u)
 224:Generated_Source\PSoC4/CapSense_Processing.c ****         ptrWdTouchpad->touch[2u].x = CapSense_TOUCHPAD_POS_NONE;
 225:Generated_Source\PSoC4/CapSense_Processing.c ****         ptrWdTouchpad->touch[2u].y = CapSense_TOUCHPAD_POS_NONE;
 226:Generated_Source\PSoC4/CapSense_Processing.c ****         ptrWdTouchpad->touch[2u].z = LO8(CapSense_TOUCHPAD_POS_NONE);
 227:Generated_Source\PSoC4/CapSense_Processing.c ****     #endif /* #if (CapSense_CSX_MAX_FINGERS > 2u) */
 228:Generated_Source\PSoC4/CapSense_Processing.c **** }
 229:Generated_Source\PSoC4/CapSense_Processing.c **** #endif /* #if (0u != CapSense_CSX_TOUCHPAD_WIDGET_EN) */
 230:Generated_Source\PSoC4/CapSense_Processing.c **** 
 231:Generated_Source\PSoC4/CapSense_Processing.c **** #if (0u != CapSense_SLIDER_WIDGET_EN)
 232:Generated_Source\PSoC4/CapSense_Processing.c **** /*******************************************************************************
 233:Generated_Source\PSoC4/CapSense_Processing.c **** * Function Name: CapSense_DpInitSlider
 234:Generated_Source\PSoC4/CapSense_Processing.c **** ****************************************************************************//**
 235:Generated_Source\PSoC4/CapSense_Processing.c **** *
 236:Generated_Source\PSoC4/CapSense_Processing.c **** * \brief
 237:Generated_Source\PSoC4/CapSense_Processing.c **** *  Performs initialization of the Radial and Linear Slider widget.
 238:Generated_Source\PSoC4/CapSense_Processing.c **** *   - Resets the position data to NONE
 239:Generated_Source\PSoC4/CapSense_Processing.c **** *   - Initializes the median filter history to NONE if it is enabled.
 240:Generated_Source\PSoC4/CapSense_Processing.c **** *
 241:Generated_Source\PSoC4/CapSense_Processing.c **** * \details
 242:Generated_Source\PSoC4/CapSense_Processing.c **** *  Position data is always reset to the CapSense_SLIDER_POS_NONE value.
 243:Generated_Source\PSoC4/CapSense_Processing.c **** *  The same happens to the median filter history data.
 244:Generated_Source\PSoC4/CapSense_Processing.c **** *
 245:Generated_Source\PSoC4/CapSense_Processing.c **** *******************************************************************************/
 246:Generated_Source\PSoC4/CapSense_Processing.c **** static CY_INLINE void CapSense_DpInitSlider(CapSense_FLASH_WD_STRUCT const * ptrFlashWdgt)
 247:Generated_Source\PSoC4/CapSense_Processing.c **** {
 248:Generated_Source\PSoC4/CapSense_Processing.c ****     uint32 idx;
 249:Generated_Source\PSoC4/CapSense_Processing.c ****     CapSense_RAM_WD_SLIDER_STRUCT *ptrWdSlider;
 250:Generated_Source\PSoC4/CapSense_Processing.c **** 
 251:Generated_Source\PSoC4/CapSense_Processing.c ****     #if (0u != CapSense_POS_MEDIAN_FILTER_EN)
 252:Generated_Source\PSoC4/CapSense_Processing.c ****         CapSense_SLIDER_POS_HISTORY_STRUCT *ptrHistory;
 253:Generated_Source\PSoC4/CapSense_Processing.c ****     #endif /* #if (0u != CapSense_POS_MEDIAN_FILTER_EN) */
 254:Generated_Source\PSoC4/CapSense_Processing.c **** 
 255:Generated_Source\PSoC4/CapSense_Processing.c ****     ptrWdSlider = ptrFlashWdgt->ptr2WdgtRam;
 256:Generated_Source\PSoC4/CapSense_Processing.c **** 
 257:Generated_Source\PSoC4/CapSense_Processing.c ****     /* Reset slider position data to NONE */
 258:Generated_Source\PSoC4/CapSense_Processing.c ****     for (idx = 0u; idx < CapSense_NUM_CENTROIDS; idx++)
 259:Generated_Source\PSoC4/CapSense_Processing.c ****     {
 260:Generated_Source\PSoC4/CapSense_Processing.c ****         ptrWdSlider->position[idx] = CapSense_SLIDER_POS_NONE;
ARM GAS  C:\Users\TB1014~1\AppData\Local\Temp\ccTzyt2s.s 			page 6


 261:Generated_Source\PSoC4/CapSense_Processing.c **** 
 262:Generated_Source\PSoC4/CapSense_Processing.c ****         #if (0u != CapSense_POS_MEDIAN_FILTER_EN)
 263:Generated_Source\PSoC4/CapSense_Processing.c ****             ptrHistory = ptrFlashWdgt->ptr2PosHistory;
 264:Generated_Source\PSoC4/CapSense_Processing.c ****             
 265:Generated_Source\PSoC4/CapSense_Processing.c ****             if (NULL != ptrHistory)
 266:Generated_Source\PSoC4/CapSense_Processing.c ****             {
 267:Generated_Source\PSoC4/CapSense_Processing.c ****                 ptrHistory[idx].posMedianZ1 = CapSense_SLIDER_POS_NONE;
 268:Generated_Source\PSoC4/CapSense_Processing.c ****                 ptrHistory[idx].posMedianZ2 = CapSense_SLIDER_POS_NONE;
 269:Generated_Source\PSoC4/CapSense_Processing.c ****             }
 270:Generated_Source\PSoC4/CapSense_Processing.c ****         #endif /* #if (0u != CapSense_POS_MEDIAN_FILTER_EN) */
 271:Generated_Source\PSoC4/CapSense_Processing.c ****     }
 272:Generated_Source\PSoC4/CapSense_Processing.c **** }
 273:Generated_Source\PSoC4/CapSense_Processing.c **** #endif /* #if (0u != CapSense_SLIDER_WIDGET_EN) */
 274:Generated_Source\PSoC4/CapSense_Processing.c **** 
 275:Generated_Source\PSoC4/CapSense_Processing.c **** #if (0u != CapSense_CSD_MATRIX_WIDGET_EN)
 276:Generated_Source\PSoC4/CapSense_Processing.c **** /*******************************************************************************
 277:Generated_Source\PSoC4/CapSense_Processing.c **** * Function Name: CapSense_DpInitCsdMatrix
 278:Generated_Source\PSoC4/CapSense_Processing.c **** ****************************************************************************//**
 279:Generated_Source\PSoC4/CapSense_Processing.c **** *
 280:Generated_Source\PSoC4/CapSense_Processing.c **** * \brief
 281:Generated_Source\PSoC4/CapSense_Processing.c **** *  Performs initialization of the CSD Matrix Buttons widget.
 282:Generated_Source\PSoC4/CapSense_Processing.c **** *   - Resets the active button position data to NONE.
 283:Generated_Source\PSoC4/CapSense_Processing.c **** *
 284:Generated_Source\PSoC4/CapSense_Processing.c **** * \details
 285:Generated_Source\PSoC4/CapSense_Processing.c **** *  Position data is always reset to the CapSense_MATRIX_POS_NONE value.
 286:Generated_Source\PSoC4/CapSense_Processing.c **** *
 287:Generated_Source\PSoC4/CapSense_Processing.c **** *******************************************************************************/
 288:Generated_Source\PSoC4/CapSense_Processing.c **** static CY_INLINE void CapSense_DpInitCsdMatrix(CapSense_FLASH_WD_STRUCT const * ptrFlashWdgt)
 289:Generated_Source\PSoC4/CapSense_Processing.c **** {
 290:Generated_Source\PSoC4/CapSense_Processing.c ****     CapSense_RAM_WD_CSD_MATRIX_STRUCT *ptrRamWdgt;
 291:Generated_Source\PSoC4/CapSense_Processing.c **** 
 292:Generated_Source\PSoC4/CapSense_Processing.c ****     ptrRamWdgt = ptrFlashWdgt->ptr2WdgtRam;
 293:Generated_Source\PSoC4/CapSense_Processing.c **** 
 294:Generated_Source\PSoC4/CapSense_Processing.c ****     /* Reset sensor id, row and col registers in data structure */
 295:Generated_Source\PSoC4/CapSense_Processing.c ****     ptrRamWdgt->posRow   = CapSense_MATRIX_POS_NONE;
 296:Generated_Source\PSoC4/CapSense_Processing.c ****     ptrRamWdgt->posCol   = CapSense_MATRIX_POS_NONE;
 297:Generated_Source\PSoC4/CapSense_Processing.c ****     ptrRamWdgt->posSnsId = CapSense_MATRIX_POS_NONE;
 298:Generated_Source\PSoC4/CapSense_Processing.c **** }
 299:Generated_Source\PSoC4/CapSense_Processing.c **** #endif /* #if (0u != CapSense_CSD_MATRIX_WIDGET_EN) */
 300:Generated_Source\PSoC4/CapSense_Processing.c **** 
 301:Generated_Source\PSoC4/CapSense_Processing.c **** /*******************************************************************************
 302:Generated_Source\PSoC4/CapSense_Processing.c **** * Function Name: CapSense_DpInitialize
 303:Generated_Source\PSoC4/CapSense_Processing.c **** ****************************************************************************//**
 304:Generated_Source\PSoC4/CapSense_Processing.c **** *
 305:Generated_Source\PSoC4/CapSense_Processing.c **** * \brief
 306:Generated_Source\PSoC4/CapSense_Processing.c **** *  Performs initialization of the data processing FW module:
 307:Generated_Source\PSoC4/CapSense_Processing.c **** *   - Resets the de-bounce counters of all widgets
 308:Generated_Source\PSoC4/CapSense_Processing.c **** *   - Resets the position filter history for slider and touchpad widgets
 309:Generated_Source\PSoC4/CapSense_Processing.c **** *   - Clears widget and sensor statuses
 310:Generated_Source\PSoC4/CapSense_Processing.c **** *   - Enables all widgets.
 311:Generated_Source\PSoC4/CapSense_Processing.c **** *
 312:Generated_Source\PSoC4/CapSense_Processing.c **** * \details
 313:Generated_Source\PSoC4/CapSense_Processing.c **** *  The Button and Matrix Button widgets have individual de-bounce counter per
 314:Generated_Source\PSoC4/CapSense_Processing.c **** *  sensor for the CSD widgets and per node for the CSX widgets.
 315:Generated_Source\PSoC4/CapSense_Processing.c **** *
 316:Generated_Source\PSoC4/CapSense_Processing.c **** *  The Slider and Touchpad widgets have a single de-bounce counter per widget.
 317:Generated_Source\PSoC4/CapSense_Processing.c **** *
ARM GAS  C:\Users\TB1014~1\AppData\Local\Temp\ccTzyt2s.s 			page 7


 318:Generated_Source\PSoC4/CapSense_Processing.c **** *  The Proximity widget has two de-bounce counters per sensor. One for the
 319:Generated_Source\PSoC4/CapSense_Processing.c **** *  proximity event and second for the touch event.
 320:Generated_Source\PSoC4/CapSense_Processing.c **** *
 321:Generated_Source\PSoC4/CapSense_Processing.c **** *  All debounce counters during initialization are set to the value of the
 322:Generated_Source\PSoC4/CapSense_Processing.c **** *  onDebounce widget parameter.
 323:Generated_Source\PSoC4/CapSense_Processing.c **** *
 324:Generated_Source\PSoC4/CapSense_Processing.c **** *******************************************************************************/
 325:Generated_Source\PSoC4/CapSense_Processing.c **** void CapSense_DpInitialize(void)
 326:Generated_Source\PSoC4/CapSense_Processing.c **** {
  26              		.loc 1 326 0
  27              		.cfi_startproc
  28 0000 70B5     		push	{r4, r5, r6, lr}
  29              		.cfi_def_cfa_offset 16
  30              		.cfi_offset 4, -16
  31              		.cfi_offset 5, -12
  32              		.cfi_offset 6, -8
  33              		.cfi_offset 14, -4
  34              	.LVL0:
 327:Generated_Source\PSoC4/CapSense_Processing.c ****     uint32 wdgtId;
 328:Generated_Source\PSoC4/CapSense_Processing.c ****     CapSense_WD_TYPE_ENUM widgetType;
 329:Generated_Source\PSoC4/CapSense_Processing.c ****     CapSense_RAM_WD_BASE_STRUCT * ptrRamWdgt;
 330:Generated_Source\PSoC4/CapSense_Processing.c ****     CapSense_FLASH_WD_STRUCT const * ptrFlashWdgt;
 331:Generated_Source\PSoC4/CapSense_Processing.c **** 
 332:Generated_Source\PSoC4/CapSense_Processing.c ****     for (wdgtId = 0u; wdgtId < CapSense_WDGT_STATUS_WORDS; wdgtId++)
  35              		.loc 1 332 0
  36 0002 0023     		mov	r3, #0
  37 0004 0BE0     		b	.L2
  38              	.LVL1:
  39              	.L3:
 333:Generated_Source\PSoC4/CapSense_Processing.c ****     {
 334:Generated_Source\PSoC4/CapSense_Processing.c ****         /* Clear widget status */
 335:Generated_Source\PSoC4/CapSense_Processing.c ****         CapSense_dsRam.wdgtStatus[wdgtId] = 0u;
  40              		.loc 1 335 0 discriminator 3
  41 0006 1F48     		ldr	r0, .L13
  42 0008 191D     		add	r1, r3, #4
  43 000a 8900     		lsl	r1, r1, #2
  44 000c 0022     		mov	r2, #0
  45 000e 0A50     		str	r2, [r1, r0]
 336:Generated_Source\PSoC4/CapSense_Processing.c **** 
 337:Generated_Source\PSoC4/CapSense_Processing.c ****         /* Enable all widgets */
 338:Generated_Source\PSoC4/CapSense_Processing.c ****         CapSense_dsRam.wdgtEnable[wdgtId] = 0xFFFFFFFFLu;
  46              		.loc 1 338 0 discriminator 3
  47 0010 9A1C     		add	r2, r3, #2
  48 0012 9200     		lsl	r2, r2, #2
  49 0014 8218     		add	r2, r0, r2
  50 0016 0121     		mov	r1, #1
  51 0018 4942     		neg	r1, r1
  52 001a 5160     		str	r1, [r2, #4]
 332:Generated_Source\PSoC4/CapSense_Processing.c ****     {
  53              		.loc 1 332 0 discriminator 3
  54 001c 0133     		add	r3, r3, #1
  55              	.LVL2:
  56              	.L2:
 332:Generated_Source\PSoC4/CapSense_Processing.c ****     {
  57              		.loc 1 332 0 is_stmt 0 discriminator 1
  58 001e 002B     		cmp	r3, #0
  59 0020 F1D0     		beq	.L3
ARM GAS  C:\Users\TB1014~1\AppData\Local\Temp\ccTzyt2s.s 			page 8


  60 0022 194C     		ldr	r4, .L13+4
  61 0024 0823     		mov	r3, #8
  62              	.LVL3:
  63 0026 28E0     		b	.L4
  64              	.LVL4:
  65              	.L11:
 339:Generated_Source\PSoC4/CapSense_Processing.c **** 
 340:Generated_Source\PSoC4/CapSense_Processing.c ****         /* Set all widgets to working state if the Self-Test is not enabled */
 341:Generated_Source\PSoC4/CapSense_Processing.c ****         #if (0u != CapSense_SELF_TEST_EN)
 342:Generated_Source\PSoC4/CapSense_Processing.c ****             CapSense_dsRam.wdgtWorking[wdgtId] = 0xFFFFFFFFLu;
 343:Generated_Source\PSoC4/CapSense_Processing.c ****         #endif /* #if (0u == CapSense_SELF_TEST_EN) */
 344:Generated_Source\PSoC4/CapSense_Processing.c ****     }
 345:Generated_Source\PSoC4/CapSense_Processing.c **** 
 346:Generated_Source\PSoC4/CapSense_Processing.c ****     ptrFlashWdgt = CapSense_dsFlash.wdgtArray;
 347:Generated_Source\PSoC4/CapSense_Processing.c **** 
 348:Generated_Source\PSoC4/CapSense_Processing.c ****     for (wdgtId = CapSense_TOTAL_WIDGETS; wdgtId-- > 0u; )
 349:Generated_Source\PSoC4/CapSense_Processing.c ****     {
 350:Generated_Source\PSoC4/CapSense_Processing.c ****         ptrRamWdgt = ptrFlashWdgt->ptr2WdgtRam;
  66              		.loc 1 350 0 is_stmt 1
  67 0028 6668     		ldr	r6, [r4, #4]
  68              	.LVL5:
 351:Generated_Source\PSoC4/CapSense_Processing.c ****         widgetType = (CapSense_WD_TYPE_ENUM)ptrFlashWdgt->wdgtType;
  69              		.loc 1 351 0
  70 002a 227E     		ldrb	r2, [r4, #24]
  71              	.LVL6:
 352:Generated_Source\PSoC4/CapSense_Processing.c **** 
 353:Generated_Source\PSoC4/CapSense_Processing.c ****         /* Clear all sensor statuses */
 354:Generated_Source\PSoC4/CapSense_Processing.c ****         CapSense_dsRam.snsStatus[wdgtId] = 0u;
  72              		.loc 1 354 0
  73 002c 154B     		ldr	r3, .L13
  74 002e 5B19     		add	r3, r3, r5
  75 0030 0021     		mov	r1, #0
  76 0032 1975     		strb	r1, [r3, #20]
 355:Generated_Source\PSoC4/CapSense_Processing.c **** 
 356:Generated_Source\PSoC4/CapSense_Processing.c ****         /* Reset de-bounce counters */
 357:Generated_Source\PSoC4/CapSense_Processing.c ****         switch (widgetType)
  77              		.loc 1 357 0
  78 0034 012A     		cmp	r2, #1
  79 0036 04D0     		beq	.L6
  80 0038 002A     		cmp	r2, #0
  81 003a 1CD0     		beq	.L5
  82 003c 032A     		cmp	r2, #3
  83 003e 08D9     		bls	.L12
  84 0040 19E0     		b	.L5
  85              	.L6:
 358:Generated_Source\PSoC4/CapSense_Processing.c ****         {
 359:Generated_Source\PSoC4/CapSense_Processing.c ****         #if (0u != CapSense_MATRIX_WIDGET_EN)
 360:Generated_Source\PSoC4/CapSense_Processing.c ****             case CapSense_WD_MATRIX_BUTTON_E:
 361:Generated_Source\PSoC4/CapSense_Processing.c ****                 #if (0u != CapSense_CSD_MATRIX_WIDGET_EN)
 362:Generated_Source\PSoC4/CapSense_Processing.c ****                     if (CapSense_SENSE_METHOD_CSD_E == CapSense_GET_SENSE_METHOD(ptrFlashWdgt))
 363:Generated_Source\PSoC4/CapSense_Processing.c ****                     {
 364:Generated_Source\PSoC4/CapSense_Processing.c ****                         CapSense_DpInitCsdMatrix(ptrFlashWdgt);
 365:Generated_Source\PSoC4/CapSense_Processing.c ****                     }
 366:Generated_Source\PSoC4/CapSense_Processing.c ****                 #endif /* #if (0u != CapSense_CSD_MATRIX_WIDGET_EN) */
 367:Generated_Source\PSoC4/CapSense_Processing.c ****                 
 368:Generated_Source\PSoC4/CapSense_Processing.c ****                 if (NULL != ptrFlashWdgt->ptr2DebounceArr)
 369:Generated_Source\PSoC4/CapSense_Processing.c ****                 {
ARM GAS  C:\Users\TB1014~1\AppData\Local\Temp\ccTzyt2s.s 			page 9


 370:Generated_Source\PSoC4/CapSense_Processing.c ****                     /* Initialize array of debounce counters */
 371:Generated_Source\PSoC4/CapSense_Processing.c ****                     (void)memset(ptrFlashWdgt->ptr2DebounceArr, 
 372:Generated_Source\PSoC4/CapSense_Processing.c ****                                  (int32)ptrRamWdgt->onDebounce, 
 373:Generated_Source\PSoC4/CapSense_Processing.c ****                                  (size_t)ptrFlashWdgt->totalNumSns);
 374:Generated_Source\PSoC4/CapSense_Processing.c ****                 }
 375:Generated_Source\PSoC4/CapSense_Processing.c ****                 break;
 376:Generated_Source\PSoC4/CapSense_Processing.c ****         #endif /* #if (0u != CapSense_MATRIX_WIDGET_EN) */
 377:Generated_Source\PSoC4/CapSense_Processing.c ****         
 378:Generated_Source\PSoC4/CapSense_Processing.c ****         #if (0u != CapSense_BUTTON_WIDGET_EN)
 379:Generated_Source\PSoC4/CapSense_Processing.c ****             case CapSense_WD_BUTTON_E:
 380:Generated_Source\PSoC4/CapSense_Processing.c ****                 if (NULL != ptrFlashWdgt->ptr2DebounceArr)
  86              		.loc 1 380 0
  87 0042 2069     		ldr	r0, [r4, #16]
  88 0044 0028     		cmp	r0, #0
  89 0046 16D0     		beq	.L5
 381:Generated_Source\PSoC4/CapSense_Processing.c ****                 {
 382:Generated_Source\PSoC4/CapSense_Processing.c ****                     /* Initialize array of debounce counters */
 383:Generated_Source\PSoC4/CapSense_Processing.c ****                     (void)memset(ptrFlashWdgt->ptr2DebounceArr, 
 384:Generated_Source\PSoC4/CapSense_Processing.c ****                                  (int32)ptrRamWdgt->onDebounce, 
  90              		.loc 1 384 0
  91 0048 F179     		ldrb	r1, [r6, #7]
 385:Generated_Source\PSoC4/CapSense_Processing.c ****                                  (size_t)ptrFlashWdgt->totalNumSns);
  92              		.loc 1 385 0
  93 004a E28A     		ldrh	r2, [r4, #22]
  94              	.LVL7:
 383:Generated_Source\PSoC4/CapSense_Processing.c ****                                  (int32)ptrRamWdgt->onDebounce, 
  95              		.loc 1 383 0
  96 004c FFF7FEFF 		bl	memset
  97              	.LVL8:
  98 0050 11E0     		b	.L5
  99              	.LVL9:
 100              	.L12:
 386:Generated_Source\PSoC4/CapSense_Processing.c ****                 }
 387:Generated_Source\PSoC4/CapSense_Processing.c ****                 break;
 388:Generated_Source\PSoC4/CapSense_Processing.c ****         #endif /* #if (0u != CapSense_BUTTON_WIDGET_EN) */
 389:Generated_Source\PSoC4/CapSense_Processing.c **** 
 390:Generated_Source\PSoC4/CapSense_Processing.c ****         #if (0u != CapSense_SLIDER_WIDGET_EN)
 391:Generated_Source\PSoC4/CapSense_Processing.c ****             case CapSense_WD_LINEAR_SLIDER_E:
 392:Generated_Source\PSoC4/CapSense_Processing.c ****             case CapSense_WD_RADIAL_SLIDER_E:
 393:Generated_Source\PSoC4/CapSense_Processing.c ****                 if (NULL != ptrFlashWdgt->ptr2DebounceArr)
 101              		.loc 1 393 0
 102 0052 2369     		ldr	r3, [r4, #16]
 103 0054 002B     		cmp	r3, #0
 104 0056 01D0     		beq	.L8
 394:Generated_Source\PSoC4/CapSense_Processing.c ****                 {
 395:Generated_Source\PSoC4/CapSense_Processing.c ****                     /* Initialize single debounce counter of slider */
 396:Generated_Source\PSoC4/CapSense_Processing.c ****                     *(uint8 *)(ptrFlashWdgt->ptr2DebounceArr) = ptrRamWdgt->onDebounce;
 105              		.loc 1 396 0
 106 0058 F279     		ldrb	r2, [r6, #7]
 107              	.LVL10:
 108 005a 1A70     		strb	r2, [r3]
 109              	.L8:
 110              	.LVL11:
 111              	.LBB6:
 112              	.LBB7:
 255:Generated_Source\PSoC4/CapSense_Processing.c **** 
 113              		.loc 1 255 0
ARM GAS  C:\Users\TB1014~1\AppData\Local\Temp\ccTzyt2s.s 			page 10


 114 005c 6168     		ldr	r1, [r4, #4]
 115              	.LVL12:
 258:Generated_Source\PSoC4/CapSense_Processing.c ****     {
 116              		.loc 1 258 0
 117 005e 0023     		mov	r3, #0
 118 0060 07E0     		b	.L9
 119              	.LVL13:
 120              	.L10:
 260:Generated_Source\PSoC4/CapSense_Processing.c **** 
 121              		.loc 1 260 0
 122 0062 1A1C     		mov	r2, r3
 123 0064 0832     		add	r2, r2, #8
 124 0066 5200     		lsl	r2, r2, #1
 125 0068 8A18     		add	r2, r1, r2
 126 006a 0120     		mov	r0, #1
 127 006c 4042     		neg	r0, r0
 128 006e 5080     		strh	r0, [r2, #2]
 258:Generated_Source\PSoC4/CapSense_Processing.c ****     {
 129              		.loc 1 258 0
 130 0070 0133     		add	r3, r3, #1
 131              	.LVL14:
 132              	.L9:
 133 0072 002B     		cmp	r3, #0
 134 0074 F5D0     		beq	.L10
 135              	.LVL15:
 136              	.L5:
 137              	.LBE7:
 138              	.LBE6:
 397:Generated_Source\PSoC4/CapSense_Processing.c ****                 }
 398:Generated_Source\PSoC4/CapSense_Processing.c **** 
 399:Generated_Source\PSoC4/CapSense_Processing.c ****                 CapSense_DpInitSlider(ptrFlashWdgt);
 400:Generated_Source\PSoC4/CapSense_Processing.c **** 
 401:Generated_Source\PSoC4/CapSense_Processing.c ****                 break;
 402:Generated_Source\PSoC4/CapSense_Processing.c ****         #endif /* #if (0u != CapSense_SLIDER_WIDGET_EN) */
 403:Generated_Source\PSoC4/CapSense_Processing.c **** 
 404:Generated_Source\PSoC4/CapSense_Processing.c ****         #if (0u != CapSense_TOUCHPAD_WIDGET_EN)
 405:Generated_Source\PSoC4/CapSense_Processing.c ****             case CapSense_WD_TOUCHPAD_E:
 406:Generated_Source\PSoC4/CapSense_Processing.c ****                 if (NULL != ptrFlashWdgt->ptr2DebounceArr)
 407:Generated_Source\PSoC4/CapSense_Processing.c ****                 {
 408:Generated_Source\PSoC4/CapSense_Processing.c ****                     /* Initialize single debounce counter of touchpad */
 409:Generated_Source\PSoC4/CapSense_Processing.c ****                     *(uint8 *)(ptrFlashWdgt->ptr2DebounceArr) = ptrRamWdgt->onDebounce;
 410:Generated_Source\PSoC4/CapSense_Processing.c ****                 }
 411:Generated_Source\PSoC4/CapSense_Processing.c **** 
 412:Generated_Source\PSoC4/CapSense_Processing.c ****                 #if (0u != CapSense_CSD_TOUCHPAD_WIDGET_EN)
 413:Generated_Source\PSoC4/CapSense_Processing.c ****                     if (CapSense_SENSE_METHOD_CSD_E == CapSense_GET_SENSE_METHOD(ptrFlashWdgt))
 414:Generated_Source\PSoC4/CapSense_Processing.c ****                     {
 415:Generated_Source\PSoC4/CapSense_Processing.c ****                         CapSense_DpInitCsdTouchpad(ptrFlashWdgt);
 416:Generated_Source\PSoC4/CapSense_Processing.c ****                     }
 417:Generated_Source\PSoC4/CapSense_Processing.c ****                 #endif /* #if (0u != CapSense_CSD_TOUCHPAD_WIDGET_EN) */
 418:Generated_Source\PSoC4/CapSense_Processing.c **** 
 419:Generated_Source\PSoC4/CapSense_Processing.c ****                 #if (0u != CapSense_CSX_TOUCHPAD_WIDGET_EN)
 420:Generated_Source\PSoC4/CapSense_Processing.c ****                     if (CapSense_SENSE_METHOD_CSX_E == CapSense_GET_SENSE_METHOD(ptrFlashWdgt))
 421:Generated_Source\PSoC4/CapSense_Processing.c ****                     {
 422:Generated_Source\PSoC4/CapSense_Processing.c ****                         CapSense_DpInitCsxTouchpad(ptrFlashWdgt);
 423:Generated_Source\PSoC4/CapSense_Processing.c ****                     }
 424:Generated_Source\PSoC4/CapSense_Processing.c ****                 #endif /* #if (0u != CapSense_CSX_TOUCHPAD_WIDGET_EN) */
 425:Generated_Source\PSoC4/CapSense_Processing.c **** 
ARM GAS  C:\Users\TB1014~1\AppData\Local\Temp\ccTzyt2s.s 			page 11


 426:Generated_Source\PSoC4/CapSense_Processing.c ****                 break;
 427:Generated_Source\PSoC4/CapSense_Processing.c ****         #endif /* #if (0u != CapSense_TOUCHPAD_WIDGET_EN) */
 428:Generated_Source\PSoC4/CapSense_Processing.c **** 
 429:Generated_Source\PSoC4/CapSense_Processing.c ****         #if (0u != CapSense_PROXIMITY_WIDGET_EN)
 430:Generated_Source\PSoC4/CapSense_Processing.c ****             case CapSense_WD_PROXIMITY_E:
 431:Generated_Source\PSoC4/CapSense_Processing.c ****                 if (NULL != ptrFlashWdgt->ptr2DebounceArr)
 432:Generated_Source\PSoC4/CapSense_Processing.c ****                 {
 433:Generated_Source\PSoC4/CapSense_Processing.c ****                     /* Proximity widgets have 2 de-bounce counters per sensor. 
 434:Generated_Source\PSoC4/CapSense_Processing.c ****                      * Therefore the number of sensors is multiplied by 2. 
 435:Generated_Source\PSoC4/CapSense_Processing.c ****                      */
 436:Generated_Source\PSoC4/CapSense_Processing.c ****                    (void)memset(ptrFlashWdgt->ptr2DebounceArr, 
 437:Generated_Source\PSoC4/CapSense_Processing.c ****                                 (int32)ptrRamWdgt->onDebounce, 
 438:Generated_Source\PSoC4/CapSense_Processing.c ****                                 (size_t)ptrFlashWdgt->totalNumSns * 2u);
 439:Generated_Source\PSoC4/CapSense_Processing.c ****                 }
 440:Generated_Source\PSoC4/CapSense_Processing.c ****                 break;
 441:Generated_Source\PSoC4/CapSense_Processing.c ****         #endif /* #if (0u != CapSense_PROXIMITY_WIDGET_EN) */
 442:Generated_Source\PSoC4/CapSense_Processing.c ****                 
 443:Generated_Source\PSoC4/CapSense_Processing.c ****             default:
 444:Generated_Source\PSoC4/CapSense_Processing.c ****                 break;
 445:Generated_Source\PSoC4/CapSense_Processing.c ****         }
 446:Generated_Source\PSoC4/CapSense_Processing.c **** 
 447:Generated_Source\PSoC4/CapSense_Processing.c ****         /* Move to next widget */
 448:Generated_Source\PSoC4/CapSense_Processing.c ****         ptrFlashWdgt++;
 139              		.loc 1 448 0
 140 0076 2434     		add	r4, r4, #36
 141              	.LVL16:
 348:Generated_Source\PSoC4/CapSense_Processing.c ****     {
 142              		.loc 1 348 0
 143 0078 2B1C     		mov	r3, r5
 144              	.LVL17:
 145              	.L4:
 348:Generated_Source\PSoC4/CapSense_Processing.c ****     {
 146              		.loc 1 348 0 is_stmt 0 discriminator 1
 147 007a 5D1E     		sub	r5, r3, #1
 148              	.LVL18:
 149 007c 002B     		cmp	r3, #0
 150 007e D3D1     		bne	.L11
 449:Generated_Source\PSoC4/CapSense_Processing.c ****     }
 450:Generated_Source\PSoC4/CapSense_Processing.c **** }
 151              		.loc 1 450 0 is_stmt 1
 152              		@ sp needed
 153              	.LVL19:
 154              	.LVL20:
 155 0080 70BD     		pop	{r4, r5, r6, pc}
 156              	.L14:
 157 0082 C046     		.align	2
 158              	.L13:
 159 0084 00000000 		.word	CapSense_dsRam
 160 0088 00000000 		.word	CapSense_dsFlash
 161              		.cfi_endproc
 162              	.LFE2:
 163              		.size	CapSense_DpInitialize, .-CapSense_DpInitialize
 164              		.section	.text.CapSense_DpUpdateDifferences,"ax",%progbits
 165              		.align	2
 166              		.global	CapSense_DpUpdateDifferences
 167              		.code	16
 168              		.thumb_func
ARM GAS  C:\Users\TB1014~1\AppData\Local\Temp\ccTzyt2s.s 			page 12


 169              		.type	CapSense_DpUpdateDifferences, %function
 170              	CapSense_DpUpdateDifferences:
 171              	.LFB6:
 451:Generated_Source\PSoC4/CapSense_Processing.c **** 
 452:Generated_Source\PSoC4/CapSense_Processing.c **** #if (0u != CapSense_TOTAL_CSX_WIDGETS)
 453:Generated_Source\PSoC4/CapSense_Processing.c **** /*******************************************************************************
 454:Generated_Source\PSoC4/CapSense_Processing.c **** * Function Name: CapSense_DpProcessCsxWidgetRawCounts
 455:Generated_Source\PSoC4/CapSense_Processing.c **** ****************************************************************************//**
 456:Generated_Source\PSoC4/CapSense_Processing.c **** *
 457:Generated_Source\PSoC4/CapSense_Processing.c **** * \brief
 458:Generated_Source\PSoC4/CapSense_Processing.c **** *  Performs default processing of the CSX raw counts.
 459:Generated_Source\PSoC4/CapSense_Processing.c **** *
 460:Generated_Source\PSoC4/CapSense_Processing.c **** * \details
 461:Generated_Source\PSoC4/CapSense_Processing.c **** *  Performs default processing of the CSX raw counts:
 462:Generated_Source\PSoC4/CapSense_Processing.c **** *   - Run Filters
 463:Generated_Source\PSoC4/CapSense_Processing.c **** *   - Update Baselines
 464:Generated_Source\PSoC4/CapSense_Processing.c **** *   - Update Differences
 465:Generated_Source\PSoC4/CapSense_Processing.c **** *   - Update Status.
 466:Generated_Source\PSoC4/CapSense_Processing.c **** *  The same process is applied to all sensors of the specified widget.
 467:Generated_Source\PSoC4/CapSense_Processing.c **** *
 468:Generated_Source\PSoC4/CapSense_Processing.c **** * \param ptrFlashWdgt The pointer to the Flash widget structure.
 469:Generated_Source\PSoC4/CapSense_Processing.c **** *
 470:Generated_Source\PSoC4/CapSense_Processing.c **** * \return   
 471:Generated_Source\PSoC4/CapSense_Processing.c **** *  Returns the status of the specified widget processing operation:
 472:Generated_Source\PSoC4/CapSense_Processing.c **** *  - CYRET_SUCCESS if operation was successfully completed;
 473:Generated_Source\PSoC4/CapSense_Processing.c **** *  - CapSense_PROCESS_BASELINE_FAILED if baseline processing of any 
 474:Generated_Source\PSoC4/CapSense_Processing.c **** *    sensor of the specified widget failed. The result is concatenated with the index
 475:Generated_Source\PSoC4/CapSense_Processing.c **** *    of failed sensor.
 476:Generated_Source\PSoC4/CapSense_Processing.c **** *
 477:Generated_Source\PSoC4/CapSense_Processing.c **** *******************************************************************************/
 478:Generated_Source\PSoC4/CapSense_Processing.c **** uint32 CapSense_DpProcessCsxWidgetRawCounts(CapSense_FLASH_WD_STRUCT const *ptrFlashWdgt)
 479:Generated_Source\PSoC4/CapSense_Processing.c **** {
 480:Generated_Source\PSoC4/CapSense_Processing.c ****     uint32 result = CYRET_SUCCESS;
 481:Generated_Source\PSoC4/CapSense_Processing.c ****     uint32 widgetType;
 482:Generated_Source\PSoC4/CapSense_Processing.c ****     uint32 snsCount;
 483:Generated_Source\PSoC4/CapSense_Processing.c ****     CapSense_RAM_SNS_STRUCT *ptrSns;
 484:Generated_Source\PSoC4/CapSense_Processing.c ****     CapSense_RAM_WD_BASE_STRUCT *ptrRamWdgt;
 485:Generated_Source\PSoC4/CapSense_Processing.c **** 
 486:Generated_Source\PSoC4/CapSense_Processing.c ****     #if (0u != DP_FW_FILTER_EN)
 487:Generated_Source\PSoC4/CapSense_Processing.c ****         CapSense_PTR_FILTER_VARIANT fltrHistV;
 488:Generated_Source\PSoC4/CapSense_Processing.c ****         
 489:Generated_Source\PSoC4/CapSense_Processing.c ****         fltrHistV.ptr = ptrFlashWdgt->ptr2FltrHistory;
 490:Generated_Source\PSoC4/CapSense_Processing.c ****     #endif /* #if (0u != DP_FW_FILTER_EN) */
 491:Generated_Source\PSoC4/CapSense_Processing.c **** 
 492:Generated_Source\PSoC4/CapSense_Processing.c ****     ptrSns = ptrFlashWdgt->ptr2SnsRam;
 493:Generated_Source\PSoC4/CapSense_Processing.c ****     snsCount = ptrFlashWdgt->totalNumSns;
 494:Generated_Source\PSoC4/CapSense_Processing.c ****     ptrRamWdgt = ptrFlashWdgt->ptr2WdgtRam;
 495:Generated_Source\PSoC4/CapSense_Processing.c ****     widgetType = ptrFlashWdgt->wdgtType;
 496:Generated_Source\PSoC4/CapSense_Processing.c **** 
 497:Generated_Source\PSoC4/CapSense_Processing.c ****     /* Run deconvolution algorithm for the widgets with multiphase TX support */
 498:Generated_Source\PSoC4/CapSense_Processing.c ****     #if (0u != CapSense_CSX_MULTIPHASE_TX_EN)
 499:Generated_Source\PSoC4/CapSense_Processing.c ****         if (0u != (ptrFlashWdgt->staticConfig & CapSense_MULTIPHASE_TX_MASK))
 500:Generated_Source\PSoC4/CapSense_Processing.c ****         {
 501:Generated_Source\PSoC4/CapSense_Processing.c ****             CapSense_DpDeconvolution(ptrFlashWdgt);
 502:Generated_Source\PSoC4/CapSense_Processing.c ****         }
 503:Generated_Source\PSoC4/CapSense_Processing.c ****     #endif  /* #if (0u != CapSense_CSX_MULTIPHASE_TX_EN) */   
 504:Generated_Source\PSoC4/CapSense_Processing.c ****     
ARM GAS  C:\Users\TB1014~1\AppData\Local\Temp\ccTzyt2s.s 			page 13


 505:Generated_Source\PSoC4/CapSense_Processing.c ****     for (;snsCount-- > 0u;)
 506:Generated_Source\PSoC4/CapSense_Processing.c ****     {
 507:Generated_Source\PSoC4/CapSense_Processing.c ****         #if (0u != CapSense_CSX_SKIP_OVSMPL_SPECIFIC_NODES)
 508:Generated_Source\PSoC4/CapSense_Processing.c ****             if (0u != ptrSns->resolution)
 509:Generated_Source\PSoC4/CapSense_Processing.c ****         #endif
 510:Generated_Source\PSoC4/CapSense_Processing.c ****         {
 511:Generated_Source\PSoC4/CapSense_Processing.c ****             #if (0u != DP_FW_FILTER_EN)
 512:Generated_Source\PSoC4/CapSense_Processing.c ****                 CapSense_FtRunEnabledFiltersInternal(fltrHistV, ptrSns, widgetType);
 513:Generated_Source\PSoC4/CapSense_Processing.c ****             #endif /* #if (0u != DP_FW_FILTER_EN) */
 514:Generated_Source\PSoC4/CapSense_Processing.c **** 
 515:Generated_Source\PSoC4/CapSense_Processing.c ****             result = CapSense_FtUpdateBaseline(ptrRamWdgt, ptrSns, widgetType);
 516:Generated_Source\PSoC4/CapSense_Processing.c ****             
 517:Generated_Source\PSoC4/CapSense_Processing.c ****             #if (CapSense_ENABLE == CapSense_TST_BSLN_DUPLICATION_EN)
 518:Generated_Source\PSoC4/CapSense_Processing.c ****                 if (CYRET_SUCCESS != result)
 519:Generated_Source\PSoC4/CapSense_Processing.c ****                 {
 520:Generated_Source\PSoC4/CapSense_Processing.c ****                     result = snsCount | CapSense_PROCESS_BASELINE_FAILED;
 521:Generated_Source\PSoC4/CapSense_Processing.c ****                 }
 522:Generated_Source\PSoC4/CapSense_Processing.c ****             #endif /* (CapSense_ENABLE == CapSense_TST_BSLN_DUPLICATION_EN) */
 523:Generated_Source\PSoC4/CapSense_Processing.c **** 
 524:Generated_Source\PSoC4/CapSense_Processing.c ****             CapSense_DpUpdateDifferences(ptrRamWdgt, ptrSns);
 525:Generated_Source\PSoC4/CapSense_Processing.c ****         }
 526:Generated_Source\PSoC4/CapSense_Processing.c ****         /* Move pointers to the next sensor and filter history objects */
 527:Generated_Source\PSoC4/CapSense_Processing.c ****         ptrSns++;
 528:Generated_Source\PSoC4/CapSense_Processing.c ****             
 529:Generated_Source\PSoC4/CapSense_Processing.c ****         #if (0u != DP_FW_FILTER_EN)
 530:Generated_Source\PSoC4/CapSense_Processing.c ****             CapSense_INC_FLTR_OBJ_VARIANT(0u, fltrHistV);
 531:Generated_Source\PSoC4/CapSense_Processing.c ****         #endif /* #if (0u != DP_FW_FILTER_EN) */
 532:Generated_Source\PSoC4/CapSense_Processing.c ****     }
 533:Generated_Source\PSoC4/CapSense_Processing.c ****     return result;
 534:Generated_Source\PSoC4/CapSense_Processing.c **** }
 535:Generated_Source\PSoC4/CapSense_Processing.c **** 
 536:Generated_Source\PSoC4/CapSense_Processing.c **** /*******************************************************************************
 537:Generated_Source\PSoC4/CapSense_Processing.c **** * Function Name: CapSense_DpProcessCsxSensorRawCountsExt
 538:Generated_Source\PSoC4/CapSense_Processing.c **** ****************************************************************************//**
 539:Generated_Source\PSoC4/CapSense_Processing.c **** *
 540:Generated_Source\PSoC4/CapSense_Processing.c **** * \brief
 541:Generated_Source\PSoC4/CapSense_Processing.c **** *   Performs customized processing of the CSX sensor raw counts.
 542:Generated_Source\PSoC4/CapSense_Processing.c **** *
 543:Generated_Source\PSoC4/CapSense_Processing.c **** * \details
 544:Generated_Source\PSoC4/CapSense_Processing.c **** *   Performs customized processing of the CSX sensor raw counts.
 545:Generated_Source\PSoC4/CapSense_Processing.c **** *
 546:Generated_Source\PSoC4/CapSense_Processing.c **** *   If all bits are set at once the default processing order will take place.
 547:Generated_Source\PSoC4/CapSense_Processing.c **** *   For the custom order this API can be called multiple times and execute one task at a time.
 548:Generated_Source\PSoC4/CapSense_Processing.c **** *
 549:Generated_Source\PSoC4/CapSense_Processing.c **** * \param ptrFlashWdgt The pointer to the Flash Widget Object.
 550:Generated_Source\PSoC4/CapSense_Processing.c **** * \param ptrSns       The pointer to the specific RAM Sensor Object.
 551:Generated_Source\PSoC4/CapSense_Processing.c **** * \param fltrHistV    The pointer to the Filter History Object in RAM associated with specific sens
 552:Generated_Source\PSoC4/CapSense_Processing.c **** * \param mode         The bit-mask with the data processing tasks to be executed.
 553:Generated_Source\PSoC4/CapSense_Processing.c **** *   The mode parameters can take the following values:
 554:Generated_Source\PSoC4/CapSense_Processing.c **** *    - CapSense_PROCESS_FILTER     (0x01) Run Firmware Filter
 555:Generated_Source\PSoC4/CapSense_Processing.c **** *    - CapSense_PROCESS_BASELINE   (0x02) Update Baselines
 556:Generated_Source\PSoC4/CapSense_Processing.c **** *    - CapSense_PROCESS_DIFFCOUNTS (0x04) Update Difference Counts
 557:Generated_Source\PSoC4/CapSense_Processing.c **** *    - CapSense_PROCESS_ALL               Execute all tasks
 558:Generated_Source\PSoC4/CapSense_Processing.c **** *
 559:Generated_Source\PSoC4/CapSense_Processing.c **** * \return   
 560:Generated_Source\PSoC4/CapSense_Processing.c **** *  Returns the status of the specified sensor processing operation:
 561:Generated_Source\PSoC4/CapSense_Processing.c **** *  - CYRET_SUCCESS if operation was successfully completed;
ARM GAS  C:\Users\TB1014~1\AppData\Local\Temp\ccTzyt2s.s 			page 14


 562:Generated_Source\PSoC4/CapSense_Processing.c **** *  - CapSense_PROCESS_BASELINE_FAILED if baseline processing of any 
 563:Generated_Source\PSoC4/CapSense_Processing.c **** *    sensor of the specified widget failed. The result is concatenated with the index
 564:Generated_Source\PSoC4/CapSense_Processing.c **** *    of failed sensor.
 565:Generated_Source\PSoC4/CapSense_Processing.c **** *
 566:Generated_Source\PSoC4/CapSense_Processing.c **** *******************************************************************************/
 567:Generated_Source\PSoC4/CapSense_Processing.c **** uint32 CapSense_DpProcessCsxSensorRawCountsExt(
 568:Generated_Source\PSoC4/CapSense_Processing.c ****                 CapSense_FLASH_WD_STRUCT const *ptrFlashWdgt,
 569:Generated_Source\PSoC4/CapSense_Processing.c ****                 CapSense_RAM_SNS_STRUCT *ptrSns,
 570:Generated_Source\PSoC4/CapSense_Processing.c ****                 CapSense_PTR_FILTER_VARIANT fltrHistV,
 571:Generated_Source\PSoC4/CapSense_Processing.c ****                 uint32 mode)
 572:Generated_Source\PSoC4/CapSense_Processing.c **** {
 573:Generated_Source\PSoC4/CapSense_Processing.c ****     uint32  result = CYRET_SUCCESS;
 574:Generated_Source\PSoC4/CapSense_Processing.c ****     uint32  widgetType;
 575:Generated_Source\PSoC4/CapSense_Processing.c ****     CapSense_RAM_WD_BASE_STRUCT *ptrRamWdgt;
 576:Generated_Source\PSoC4/CapSense_Processing.c **** 
 577:Generated_Source\PSoC4/CapSense_Processing.c ****     widgetType = ptrFlashWdgt->wdgtType;
 578:Generated_Source\PSoC4/CapSense_Processing.c ****     ptrRamWdgt = ptrFlashWdgt->ptr2WdgtRam;
 579:Generated_Source\PSoC4/CapSense_Processing.c ****     
 580:Generated_Source\PSoC4/CapSense_Processing.c ****     #if (0u != DP_FW_FILTER_EN)
 581:Generated_Source\PSoC4/CapSense_Processing.c ****         if (0u != (mode & CapSense_PROCESS_FILTER))
 582:Generated_Source\PSoC4/CapSense_Processing.c ****         {
 583:Generated_Source\PSoC4/CapSense_Processing.c ****             CapSense_FtRunEnabledFiltersInternal(fltrHistV, ptrSns, widgetType);
 584:Generated_Source\PSoC4/CapSense_Processing.c ****         }
 585:Generated_Source\PSoC4/CapSense_Processing.c ****     #else
 586:Generated_Source\PSoC4/CapSense_Processing.c ****         (void)fltrHistV; /* This parameter is unused in such configurations */
 587:Generated_Source\PSoC4/CapSense_Processing.c ****     #endif /* #if (0u != DP_FW_FILTER_EN) */
 588:Generated_Source\PSoC4/CapSense_Processing.c **** 
 589:Generated_Source\PSoC4/CapSense_Processing.c ****     if (0u != (mode & CapSense_PROCESS_BASELINE))
 590:Generated_Source\PSoC4/CapSense_Processing.c ****     {
 591:Generated_Source\PSoC4/CapSense_Processing.c ****         result = CapSense_FtUpdateBaseline(ptrRamWdgt, ptrSns, widgetType);
 592:Generated_Source\PSoC4/CapSense_Processing.c ****     }
 593:Generated_Source\PSoC4/CapSense_Processing.c **** 
 594:Generated_Source\PSoC4/CapSense_Processing.c ****     if (0u != (mode & CapSense_PROCESS_DIFFCOUNTS))
 595:Generated_Source\PSoC4/CapSense_Processing.c ****     {
 596:Generated_Source\PSoC4/CapSense_Processing.c ****         CapSense_DpUpdateDifferences(ptrRamWdgt, ptrSns);
 597:Generated_Source\PSoC4/CapSense_Processing.c ****     }
 598:Generated_Source\PSoC4/CapSense_Processing.c ****     return result;
 599:Generated_Source\PSoC4/CapSense_Processing.c **** }
 600:Generated_Source\PSoC4/CapSense_Processing.c **** 
 601:Generated_Source\PSoC4/CapSense_Processing.c **** 
 602:Generated_Source\PSoC4/CapSense_Processing.c **** /*******************************************************************************
 603:Generated_Source\PSoC4/CapSense_Processing.c **** * Function Name: CapSense_DpProcessCsxWidgetStatus
 604:Generated_Source\PSoC4/CapSense_Processing.c **** ****************************************************************************//**
 605:Generated_Source\PSoC4/CapSense_Processing.c **** *
 606:Generated_Source\PSoC4/CapSense_Processing.c **** * \brief
 607:Generated_Source\PSoC4/CapSense_Processing.c **** *   Updates the status of the CSX widget in the Data Structure.
 608:Generated_Source\PSoC4/CapSense_Processing.c **** *
 609:Generated_Source\PSoC4/CapSense_Processing.c **** * \details
 610:Generated_Source\PSoC4/CapSense_Processing.c **** *  This API determines the type of widget and runs the appropriate function
 611:Generated_Source\PSoC4/CapSense_Processing.c **** *  that implements the status update algorithm for this type of widget.
 612:Generated_Source\PSoC4/CapSense_Processing.c **** *
 613:Generated_Source\PSoC4/CapSense_Processing.c **** *  When the widget-specific processing completes this API updates the snsStatus
 614:Generated_Source\PSoC4/CapSense_Processing.c **** *  and wdgtStatus registers in the data structure. The wdgtStatus register
 615:Generated_Source\PSoC4/CapSense_Processing.c **** *  is a bitmask were each bit corresponds to the specific widget identified by
 616:Generated_Source\PSoC4/CapSense_Processing.c **** *  the widget index. When the bit is set the widget is active (touched);
 617:Generated_Source\PSoC4/CapSense_Processing.c **** *
 618:Generated_Source\PSoC4/CapSense_Processing.c **** *  Depending on the type of widget the snsStatus register may contain either
ARM GAS  C:\Users\TB1014~1\AppData\Local\Temp\ccTzyt2s.s 			page 15


 619:Generated_Source\PSoC4/CapSense_Processing.c **** *  status of each widget node (active/non-active) or in case of the CSX Touchpad
 620:Generated_Source\PSoC4/CapSense_Processing.c **** *  is contains the number of touches. In both cases 0 means that widget is not
 621:Generated_Source\PSoC4/CapSense_Processing.c **** *  active.
 622:Generated_Source\PSoC4/CapSense_Processing.c **** *
 623:Generated_Source\PSoC4/CapSense_Processing.c **** * \param wdgtId       The widget index number.
 624:Generated_Source\PSoC4/CapSense_Processing.c **** * \param ptrFlashWdgt The pointer to the Flash Widget Object.
 625:Generated_Source\PSoC4/CapSense_Processing.c **** *
 626:Generated_Source\PSoC4/CapSense_Processing.c **** *******************************************************************************/
 627:Generated_Source\PSoC4/CapSense_Processing.c **** void CapSense_DpProcessCsxWidgetStatus(uint32 wdgtId, CapSense_FLASH_WD_STRUCT const *ptrFlashWdgt)
 628:Generated_Source\PSoC4/CapSense_Processing.c **** {
 629:Generated_Source\PSoC4/CapSense_Processing.c ****     uint32 sensorStatus;
 630:Generated_Source\PSoC4/CapSense_Processing.c ****     uint32 wdStatusIndex;
 631:Generated_Source\PSoC4/CapSense_Processing.c ****     uint32 wdStatusMask;
 632:Generated_Source\PSoC4/CapSense_Processing.c ****     CapSense_WD_TYPE_ENUM widgetType;
 633:Generated_Source\PSoC4/CapSense_Processing.c **** 
 634:Generated_Source\PSoC4/CapSense_Processing.c ****     widgetType = (CapSense_WD_TYPE_ENUM)ptrFlashWdgt->wdgtType;
 635:Generated_Source\PSoC4/CapSense_Processing.c ****     sensorStatus = CapSense_dsRam.snsStatus[wdgtId];
 636:Generated_Source\PSoC4/CapSense_Processing.c **** 
 637:Generated_Source\PSoC4/CapSense_Processing.c ****     switch (widgetType)
 638:Generated_Source\PSoC4/CapSense_Processing.c ****     {
 639:Generated_Source\PSoC4/CapSense_Processing.c ****     #if (0u != CapSense_BUTTON_WIDGET_EN)
 640:Generated_Source\PSoC4/CapSense_Processing.c ****         case CapSense_WD_BUTTON_E:
 641:Generated_Source\PSoC4/CapSense_Processing.c ****             sensorStatus = CapSense_DpProcessButton(sensorStatus, ptrFlashWdgt);
 642:Generated_Source\PSoC4/CapSense_Processing.c ****             break;
 643:Generated_Source\PSoC4/CapSense_Processing.c ****     #endif /* #if (0u != CapSense_BUTTON_WIDGET_EN) */
 644:Generated_Source\PSoC4/CapSense_Processing.c **** 
 645:Generated_Source\PSoC4/CapSense_Processing.c ****     #if (0u != CapSense_CSX_MATRIX_WIDGET_EN)
 646:Generated_Source\PSoC4/CapSense_Processing.c ****         case CapSense_WD_MATRIX_BUTTON_E:
 647:Generated_Source\PSoC4/CapSense_Processing.c ****             sensorStatus = CapSense_DpProcessButton(sensorStatus, ptrFlashWdgt);
 648:Generated_Source\PSoC4/CapSense_Processing.c ****             break;
 649:Generated_Source\PSoC4/CapSense_Processing.c ****     #endif /* #if (0u != CapSense_CSX_MATRIX_WIDGET_EN) */
 650:Generated_Source\PSoC4/CapSense_Processing.c **** 
 651:Generated_Source\PSoC4/CapSense_Processing.c ****     #if (0u != CapSense_CSX_TOUCHPAD_WIDGET_EN)
 652:Generated_Source\PSoC4/CapSense_Processing.c ****         case CapSense_WD_TOUCHPAD_E:
 653:Generated_Source\PSoC4/CapSense_Processing.c ****             sensorStatus = CapSense_DpProcessCsxTouchpad(sensorStatus, ptrFlashWdgt);
 654:Generated_Source\PSoC4/CapSense_Processing.c ****             break;
 655:Generated_Source\PSoC4/CapSense_Processing.c ****     #endif /* #if (0u != CapSense_CSX_TOUCHPAD_WIDGET_EN) */
 656:Generated_Source\PSoC4/CapSense_Processing.c **** 
 657:Generated_Source\PSoC4/CapSense_Processing.c ****     default:
 658:Generated_Source\PSoC4/CapSense_Processing.c ****         CYASSERT(0u);
 659:Generated_Source\PSoC4/CapSense_Processing.c ****         break;
 660:Generated_Source\PSoC4/CapSense_Processing.c ****     }
 661:Generated_Source\PSoC4/CapSense_Processing.c **** 
 662:Generated_Source\PSoC4/CapSense_Processing.c ****     /* Update sensor status in the data structure */
 663:Generated_Source\PSoC4/CapSense_Processing.c ****     CapSense_dsRam.snsStatus[wdgtId] = (CapSense_SNS_STS_TYPE)sensorStatus;
 664:Generated_Source\PSoC4/CapSense_Processing.c **** 
 665:Generated_Source\PSoC4/CapSense_Processing.c ****     /* The next two lines calculate index and bitmask of the widget status bit in the wdgtStatus ar
 666:Generated_Source\PSoC4/CapSense_Processing.c ****     wdStatusIndex = CapSense_GET_WDGT_STATUS_INDEX(wdgtId);
 667:Generated_Source\PSoC4/CapSense_Processing.c ****     wdStatusMask = CapSense_GET_WDGT_STATUS_MASK(wdgtId);
 668:Generated_Source\PSoC4/CapSense_Processing.c **** 
 669:Generated_Source\PSoC4/CapSense_Processing.c ****     /* Check if there are active sensors and update widget status accordingly */
 670:Generated_Source\PSoC4/CapSense_Processing.c ****     if (0u == sensorStatus)
 671:Generated_Source\PSoC4/CapSense_Processing.c ****     {
 672:Generated_Source\PSoC4/CapSense_Processing.c ****         CapSense_dsRam.wdgtStatus[wdStatusIndex] &= ~wdStatusMask;
 673:Generated_Source\PSoC4/CapSense_Processing.c ****     }
 674:Generated_Source\PSoC4/CapSense_Processing.c ****     else
 675:Generated_Source\PSoC4/CapSense_Processing.c ****     {
ARM GAS  C:\Users\TB1014~1\AppData\Local\Temp\ccTzyt2s.s 			page 16


 676:Generated_Source\PSoC4/CapSense_Processing.c ****         CapSense_dsRam.wdgtStatus[wdStatusIndex] |= wdStatusMask;
 677:Generated_Source\PSoC4/CapSense_Processing.c ****     }
 678:Generated_Source\PSoC4/CapSense_Processing.c **** }
 679:Generated_Source\PSoC4/CapSense_Processing.c **** #endif /* #if CapSense_TOTAL_CSX_WIDGETS */
 680:Generated_Source\PSoC4/CapSense_Processing.c **** 
 681:Generated_Source\PSoC4/CapSense_Processing.c **** #if (0u != CapSense_TOTAL_CSD_WIDGETS)
 682:Generated_Source\PSoC4/CapSense_Processing.c **** /*******************************************************************************
 683:Generated_Source\PSoC4/CapSense_Processing.c **** * Function Name: CapSense_DpProcessCsdWidgetRawCounts
 684:Generated_Source\PSoC4/CapSense_Processing.c **** ****************************************************************************//**
 685:Generated_Source\PSoC4/CapSense_Processing.c **** *
 686:Generated_Source\PSoC4/CapSense_Processing.c **** * \brief
 687:Generated_Source\PSoC4/CapSense_Processing.c **** *   Performs default processing for the CSD widget raw counts.
 688:Generated_Source\PSoC4/CapSense_Processing.c **** *
 689:Generated_Source\PSoC4/CapSense_Processing.c **** * \details
 690:Generated_Source\PSoC4/CapSense_Processing.c **** *   Performs default processing for the CSD widget raw counts:
 691:Generated_Source\PSoC4/CapSense_Processing.c **** *    - Run Filters
 692:Generated_Source\PSoC4/CapSense_Processing.c **** *    - Update Thresholds (FW Auto-tuning)
 693:Generated_Source\PSoC4/CapSense_Processing.c **** *    - Update Baselines
 694:Generated_Source\PSoC4/CapSense_Processing.c **** *    - Update Differences.
 695:Generated_Source\PSoC4/CapSense_Processing.c **** *   The process is applied to all widget's sensors.
 696:Generated_Source\PSoC4/CapSense_Processing.c **** *
 697:Generated_Source\PSoC4/CapSense_Processing.c **** * \param ptrFlashWdgt The pointer to the Flash Widget Object.
 698:Generated_Source\PSoC4/CapSense_Processing.c **** *
 699:Generated_Source\PSoC4/CapSense_Processing.c **** * \return   
 700:Generated_Source\PSoC4/CapSense_Processing.c **** *  Returns the status of the specified widget processing operation:
 701:Generated_Source\PSoC4/CapSense_Processing.c **** *  - CYRET_SUCCESS if operation was successfully completed;
 702:Generated_Source\PSoC4/CapSense_Processing.c **** *  - CapSense_PROCESS_BASELINE_FAILED if baseline processing of any 
 703:Generated_Source\PSoC4/CapSense_Processing.c **** *    sensor of the specified widget failed. The result is concatenated with the index
 704:Generated_Source\PSoC4/CapSense_Processing.c **** *    of failed sensor.
 705:Generated_Source\PSoC4/CapSense_Processing.c **** *
 706:Generated_Source\PSoC4/CapSense_Processing.c **** *******************************************************************************/
 707:Generated_Source\PSoC4/CapSense_Processing.c **** uint32 CapSense_DpProcessCsdWidgetRawCounts(CapSense_FLASH_WD_STRUCT const *ptrFlashWdgt)
 708:Generated_Source\PSoC4/CapSense_Processing.c **** {
 709:Generated_Source\PSoC4/CapSense_Processing.c ****     uint32  result = CYRET_SUCCESS;
 710:Generated_Source\PSoC4/CapSense_Processing.c ****     
 711:Generated_Source\PSoC4/CapSense_Processing.c ****     #if (CapSense_ENABLE == CapSense_TST_BSLN_DUPLICATION_EN)    
 712:Generated_Source\PSoC4/CapSense_Processing.c ****         uint32 bslnTstResult = CYRET_SUCCESS;
 713:Generated_Source\PSoC4/CapSense_Processing.c ****     #endif /* (CapSense_ENABLE == CapSense_TST_BSLN_DUPLICATION_EN) */
 714:Generated_Source\PSoC4/CapSense_Processing.c **** 
 715:Generated_Source\PSoC4/CapSense_Processing.c ****     uint32  widgetType;
 716:Generated_Source\PSoC4/CapSense_Processing.c ****     uint32  snsId;
 717:Generated_Source\PSoC4/CapSense_Processing.c ****     CapSense_RAM_SNS_STRUCT *ptrSns;
 718:Generated_Source\PSoC4/CapSense_Processing.c ****     CapSense_RAM_WD_BASE_STRUCT *ptrRamWdgt;
 719:Generated_Source\PSoC4/CapSense_Processing.c **** 
 720:Generated_Source\PSoC4/CapSense_Processing.c ****     #if (0u != (CapSense_CSD_AUTOTUNE & CapSense_CSD_SS_TH_EN))
 721:Generated_Source\PSoC4/CapSense_Processing.c ****         /* The noise envelope data is available only when Full CSD Auto-Tuning is enabled */
 722:Generated_Source\PSoC4/CapSense_Processing.c ****         SMARTSENSE_CSD_NOISE_ENVELOPE_STRUCT *ptrNoiseEnvelope;
 723:Generated_Source\PSoC4/CapSense_Processing.c ****         #if (CapSense_ENABLE == CapSense_PROXIMITY_WIDGET_EN)
 724:Generated_Source\PSoC4/CapSense_Processing.c ****             uint32  proximityThreshold;
 725:Generated_Source\PSoC4/CapSense_Processing.c ****         #endif /* (0 != CapSense_PROXIMITY_WIDGET_EN) */
 726:Generated_Source\PSoC4/CapSense_Processing.c ****     #endif /* #if (0u != (CapSense_CSD_AUTOTUNE & CapSense_CSD_SS_TH_EN)) */
 727:Generated_Source\PSoC4/CapSense_Processing.c **** 
 728:Generated_Source\PSoC4/CapSense_Processing.c ****     #if (0u != DP_FW_FILTER_EN)
 729:Generated_Source\PSoC4/CapSense_Processing.c ****         CapSense_PTR_FILTER_VARIANT fltrHistV;
 730:Generated_Source\PSoC4/CapSense_Processing.c ****     
 731:Generated_Source\PSoC4/CapSense_Processing.c ****         /* Determine if widget type is proximity */
 732:Generated_Source\PSoC4/CapSense_Processing.c ****         uint32 isProxWdgt = 
ARM GAS  C:\Users\TB1014~1\AppData\Local\Temp\ccTzyt2s.s 			page 17


 733:Generated_Source\PSoC4/CapSense_Processing.c ****                     (CapSense_GET_WIDGET_TYPE(ptrFlashWdgt) == CapSense_WD_PROXIMITY_E) ? 1u : 0u;
 734:Generated_Source\PSoC4/CapSense_Processing.c ****                     
 735:Generated_Source\PSoC4/CapSense_Processing.c ****         /* Get pointer to the filter history object */
 736:Generated_Source\PSoC4/CapSense_Processing.c ****         fltrHistV.ptr = ptrFlashWdgt->ptr2FltrHistory;
 737:Generated_Source\PSoC4/CapSense_Processing.c ****     #endif /* #if (0u != DP_FW_FILTER_EN) */
 738:Generated_Source\PSoC4/CapSense_Processing.c ****     
 739:Generated_Source\PSoC4/CapSense_Processing.c ****     ptrSns = ptrFlashWdgt->ptr2SnsRam;
 740:Generated_Source\PSoC4/CapSense_Processing.c ****     ptrRamWdgt = ptrFlashWdgt->ptr2WdgtRam;
 741:Generated_Source\PSoC4/CapSense_Processing.c ****     widgetType = ptrFlashWdgt->wdgtType;
 742:Generated_Source\PSoC4/CapSense_Processing.c **** 
 743:Generated_Source\PSoC4/CapSense_Processing.c ****     #if (0u != (CapSense_CSD_AUTOTUNE & CapSense_CSD_SS_TH_EN))
 744:Generated_Source\PSoC4/CapSense_Processing.c ****         ptrNoiseEnvelope = ptrFlashWdgt->ptr2NoiseEnvlp;
 745:Generated_Source\PSoC4/CapSense_Processing.c ****     #endif /* #if (0u != (CapSense_CSD_AUTOTUNE & CapSense_CSD_SS_TH_EN)) */
 746:Generated_Source\PSoC4/CapSense_Processing.c **** 
 747:Generated_Source\PSoC4/CapSense_Processing.c ****     /* Iterate through all widget's sensors */
 748:Generated_Source\PSoC4/CapSense_Processing.c ****     for(snsId = 0u; snsId < ptrFlashWdgt->totalNumSns; snsId++)
 749:Generated_Source\PSoC4/CapSense_Processing.c ****     {
 750:Generated_Source\PSoC4/CapSense_Processing.c ****         /* Run all enabled filter on specified widget's sensor */
 751:Generated_Source\PSoC4/CapSense_Processing.c ****         #if (0u != DP_FW_FILTER_EN)
 752:Generated_Source\PSoC4/CapSense_Processing.c ****             CapSense_FtRunEnabledFiltersInternal(fltrHistV, ptrSns, widgetType);
 753:Generated_Source\PSoC4/CapSense_Processing.c ****         #endif /* #if (0u != DP_FW_FILTER_EN) */
 754:Generated_Source\PSoC4/CapSense_Processing.c **** 
 755:Generated_Source\PSoC4/CapSense_Processing.c ****         /* Run auto-tuning activities */
 756:Generated_Source\PSoC4/CapSense_Processing.c ****         #if (0u != (CapSense_CSD_AUTOTUNE & CapSense_CSD_SS_TH_EN))
 757:Generated_Source\PSoC4/CapSense_Processing.c ****             SmartSense_RunNoiseEnvelope(ptrSns->raw[0u], ptrRamWdgt->sigPFC, ptrNoiseEnvelope);
 758:Generated_Source\PSoC4/CapSense_Processing.c ****             CapSense_DpUpdateThresholds(ptrRamWdgt, ptrNoiseEnvelope, snsId);
 759:Generated_Source\PSoC4/CapSense_Processing.c **** 
 760:Generated_Source\PSoC4/CapSense_Processing.c ****             /* Calculate Proximity Touch Threshold in SmartSense mode based on Finger Threshold and
 761:Generated_Source\PSoC4/CapSense_Processing.c ****             #if (CapSense_ENABLE == CapSense_PROXIMITY_WIDGET_EN)
 762:Generated_Source\PSoC4/CapSense_Processing.c ****                 if (CapSense_WD_PROXIMITY_E == CapSense_GET_WIDGET_TYPE(ptrFlashWdgt))
 763:Generated_Source\PSoC4/CapSense_Processing.c ****                 {
 764:Generated_Source\PSoC4/CapSense_Processing.c ****                     proximityThreshold = ((uint32)ptrRamWdgt->fingerTh * CapSense_PROX_TOUCH_COEFF)
 765:Generated_Source\PSoC4/CapSense_Processing.c ****                     if ((((1Lu) << CapSense_THRESHOLD_SIZE) - 1u) < proximityThreshold)
 766:Generated_Source\PSoC4/CapSense_Processing.c ****                     {
 767:Generated_Source\PSoC4/CapSense_Processing.c ****                         proximityThreshold = ((1Lu) << CapSense_THRESHOLD_SIZE) - 1u;
 768:Generated_Source\PSoC4/CapSense_Processing.c ****                     }
 769:Generated_Source\PSoC4/CapSense_Processing.c ****                     ((CapSense_RAM_WD_PROXIMITY_STRUCT *)ptrFlashWdgt->ptr2WdgtRam)->proxTouchTh = 
 770:Generated_Source\PSoC4/CapSense_Processing.c ****                         (CapSense_THRESHOLD_TYPE)proximityThreshold;
 771:Generated_Source\PSoC4/CapSense_Processing.c ****                 }
 772:Generated_Source\PSoC4/CapSense_Processing.c ****             #endif /* (0 != CapSense_PROXIMITY_WIDGET_EN) */
 773:Generated_Source\PSoC4/CapSense_Processing.c ****             
 774:Generated_Source\PSoC4/CapSense_Processing.c ****             /* Move to next noise-envelope object */
 775:Generated_Source\PSoC4/CapSense_Processing.c ****             ptrNoiseEnvelope++;
 776:Generated_Source\PSoC4/CapSense_Processing.c ****         #endif /* (0u != (CapSense_CSD_AUTOTUNE & CapSense_CSD_SS_TH_EN)) */
 777:Generated_Source\PSoC4/CapSense_Processing.c **** 
 778:Generated_Source\PSoC4/CapSense_Processing.c ****         #if (CapSense_ENABLE == CapSense_TST_BSLN_DUPLICATION_EN)
 779:Generated_Source\PSoC4/CapSense_Processing.c ****             bslnTstResult = CapSense_FtUpdateBaseline(ptrRamWdgt, ptrSns, widgetType);
 780:Generated_Source\PSoC4/CapSense_Processing.c ****             if (CYRET_SUCCESS != bslnTstResult)
 781:Generated_Source\PSoC4/CapSense_Processing.c ****             {
 782:Generated_Source\PSoC4/CapSense_Processing.c ****                 if (CYRET_SUCCESS == result)
 783:Generated_Source\PSoC4/CapSense_Processing.c ****                 {
 784:Generated_Source\PSoC4/CapSense_Processing.c ****                     result = snsId | CapSense_PROCESS_BASELINE_FAILED;
 785:Generated_Source\PSoC4/CapSense_Processing.c ****                 }
 786:Generated_Source\PSoC4/CapSense_Processing.c ****             }
 787:Generated_Source\PSoC4/CapSense_Processing.c ****         #else /* (CapSense_ENABLE == CapSense_TST_BSLN_DUPLICATION_EN) */
 788:Generated_Source\PSoC4/CapSense_Processing.c ****             result = CapSense_FtUpdateBaseline(ptrRamWdgt, ptrSns, widgetType);
 789:Generated_Source\PSoC4/CapSense_Processing.c ****         #endif /* (CapSense_ENABLE == CapSense_TST_BSLN_DUPLICATION_EN) */
ARM GAS  C:\Users\TB1014~1\AppData\Local\Temp\ccTzyt2s.s 			page 18


 790:Generated_Source\PSoC4/CapSense_Processing.c **** 
 791:Generated_Source\PSoC4/CapSense_Processing.c ****         CapSense_DpUpdateDifferences(ptrRamWdgt, ptrSns);
 792:Generated_Source\PSoC4/CapSense_Processing.c **** 
 793:Generated_Source\PSoC4/CapSense_Processing.c ****         /* Move to next sensor object */
 794:Generated_Source\PSoC4/CapSense_Processing.c ****         ptrSns++;
 795:Generated_Source\PSoC4/CapSense_Processing.c **** 
 796:Generated_Source\PSoC4/CapSense_Processing.c ****         #if (0u != DP_FW_FILTER_EN)
 797:Generated_Source\PSoC4/CapSense_Processing.c ****             /* Move to the next filter history object */
 798:Generated_Source\PSoC4/CapSense_Processing.c ****             CapSense_INC_FLTR_OBJ_VARIANT(isProxWdgt, fltrHistV);
 799:Generated_Source\PSoC4/CapSense_Processing.c ****         #endif /* #if (0u != DP_FW_FILTER_EN) */
 800:Generated_Source\PSoC4/CapSense_Processing.c ****     }
 801:Generated_Source\PSoC4/CapSense_Processing.c ****     return result;
 802:Generated_Source\PSoC4/CapSense_Processing.c **** }
 803:Generated_Source\PSoC4/CapSense_Processing.c **** 
 804:Generated_Source\PSoC4/CapSense_Processing.c **** 
 805:Generated_Source\PSoC4/CapSense_Processing.c **** /*******************************************************************************
 806:Generated_Source\PSoC4/CapSense_Processing.c **** * Function Name: CapSense_DpProcessCsdSensorRawCountsExt
 807:Generated_Source\PSoC4/CapSense_Processing.c **** ****************************************************************************//**
 808:Generated_Source\PSoC4/CapSense_Processing.c **** *
 809:Generated_Source\PSoC4/CapSense_Processing.c **** * \brief
 810:Generated_Source\PSoC4/CapSense_Processing.c **** *   Performs customized processing of the CSD sensor raw counts.
 811:Generated_Source\PSoC4/CapSense_Processing.c **** *
 812:Generated_Source\PSoC4/CapSense_Processing.c **** * \details
 813:Generated_Source\PSoC4/CapSense_Processing.c **** *   Performs customized processing of the CSD sensor raw counts.
 814:Generated_Source\PSoC4/CapSense_Processing.c **** *
 815:Generated_Source\PSoC4/CapSense_Processing.c **** *   Note that this API updates data associated only with the sensor. It cannot be used to update
 816:Generated_Source\PSoC4/CapSense_Processing.c **** *   widget status.
 817:Generated_Source\PSoC4/CapSense_Processing.c **** *
 818:Generated_Source\PSoC4/CapSense_Processing.c **** * \param ptrFlashWdgt The pointer to the Flash widget structure.
 819:Generated_Source\PSoC4/CapSense_Processing.c **** * \param ptrSns       The pointer to the sensor object in RAM.
 820:Generated_Source\PSoC4/CapSense_Processing.c **** * \param fltrHistV    The pointer to the Filter History Object in RAM.
 821:Generated_Source\PSoC4/CapSense_Processing.c **** * \param mode         The bit-mask with the data processing tasks to be executed.
 822:Generated_Source\PSoC4/CapSense_Processing.c **** *   The mode parameters can take the following values:
 823:Generated_Source\PSoC4/CapSense_Processing.c **** *    - CapSense_PROCESS_FILTER     (0x01) Run Firmware Filter
 824:Generated_Source\PSoC4/CapSense_Processing.c **** *    - CapSense_PROCESS_BASELINE   (0x02) Update Baselines
 825:Generated_Source\PSoC4/CapSense_Processing.c **** *    - CapSense_PROCESS_DIFFCOUNTS (0x04) Update Difference Counts
 826:Generated_Source\PSoC4/CapSense_Processing.c **** *    - CapSense_PROCESS_CALC_NOISE (0x08) Calculate Noise (only if FW Tuning is enabled)
 827:Generated_Source\PSoC4/CapSense_Processing.c **** *    - CapSense_PROCESS_THRESHOLDS (0x10) Update Thresholds (only if FW Tuning is enabled)
 828:Generated_Source\PSoC4/CapSense_Processing.c **** *    - CapSense_PROCESS_ALL               Execute all tasks
 829:Generated_Source\PSoC4/CapSense_Processing.c **** *
 830:Generated_Source\PSoC4/CapSense_Processing.c **** * \return   
 831:Generated_Source\PSoC4/CapSense_Processing.c **** *  Returns the status of the specified sensor processing operation:
 832:Generated_Source\PSoC4/CapSense_Processing.c **** *  - CYRET_SUCCESS if operation was successfully completed;
 833:Generated_Source\PSoC4/CapSense_Processing.c **** *  - CapSense_PROCESS_BASELINE_FAILED if baseline processing of any 
 834:Generated_Source\PSoC4/CapSense_Processing.c **** *    sensor of the specified widget failed. The result is concatenated with the index
 835:Generated_Source\PSoC4/CapSense_Processing.c **** *    of failed sensor.
 836:Generated_Source\PSoC4/CapSense_Processing.c **** *
 837:Generated_Source\PSoC4/CapSense_Processing.c **** *******************************************************************************/
 838:Generated_Source\PSoC4/CapSense_Processing.c **** uint32 CapSense_DpProcessCsdSensorRawCountsExt(
 839:Generated_Source\PSoC4/CapSense_Processing.c ****                 CapSense_FLASH_WD_STRUCT const *ptrFlashWdgt,
 840:Generated_Source\PSoC4/CapSense_Processing.c ****                 CapSense_RAM_SNS_STRUCT *ptrSns,
 841:Generated_Source\PSoC4/CapSense_Processing.c ****                 CapSense_PTR_FILTER_VARIANT fltrHistV,
 842:Generated_Source\PSoC4/CapSense_Processing.c ****                  uint32 mode)
 843:Generated_Source\PSoC4/CapSense_Processing.c **** {
 844:Generated_Source\PSoC4/CapSense_Processing.c ****     uint32 result = CYRET_SUCCESS;
 845:Generated_Source\PSoC4/CapSense_Processing.c ****     uint32  widgetType;
 846:Generated_Source\PSoC4/CapSense_Processing.c ****     CapSense_RAM_WD_BASE_STRUCT *ptrRamWdgt;
ARM GAS  C:\Users\TB1014~1\AppData\Local\Temp\ccTzyt2s.s 			page 19


 847:Generated_Source\PSoC4/CapSense_Processing.c **** 
 848:Generated_Source\PSoC4/CapSense_Processing.c ****     #if (0u != (CapSense_CSD_AUTOTUNE & CapSense_CSD_SS_TH_EN))
 849:Generated_Source\PSoC4/CapSense_Processing.c ****         SMARTSENSE_CSD_NOISE_ENVELOPE_STRUCT *ptrNoiseEnvelope;
 850:Generated_Source\PSoC4/CapSense_Processing.c ****         #if (CapSense_ENABLE == CapSense_PROXIMITY_WIDGET_EN)
 851:Generated_Source\PSoC4/CapSense_Processing.c ****             uint32  proximityThreshold;
 852:Generated_Source\PSoC4/CapSense_Processing.c ****         #endif /* (0 != CapSense_PROXIMITY_WIDGET_EN) */
 853:Generated_Source\PSoC4/CapSense_Processing.c **** 
 854:Generated_Source\PSoC4/CapSense_Processing.c ****         /* Need to specify pointer to corresponding sensor's noise-envelope object.*/
 855:Generated_Source\PSoC4/CapSense_Processing.c ****         ptrNoiseEnvelope = ptrFlashWdgt->ptr2NoiseEnvlp;
 856:Generated_Source\PSoC4/CapSense_Processing.c ****     #endif /* (0u != (CapSense_CSD_AUTOTUNE & CapSense_CSD_SS_TH_EN)) */
 857:Generated_Source\PSoC4/CapSense_Processing.c **** 
 858:Generated_Source\PSoC4/CapSense_Processing.c ****     widgetType = ptrFlashWdgt->wdgtType;
 859:Generated_Source\PSoC4/CapSense_Processing.c ****     ptrRamWdgt = ptrFlashWdgt->ptr2WdgtRam;
 860:Generated_Source\PSoC4/CapSense_Processing.c **** 
 861:Generated_Source\PSoC4/CapSense_Processing.c ****     #if (0u != DP_FW_FILTER_EN)
 862:Generated_Source\PSoC4/CapSense_Processing.c ****         if (0u != (mode & CapSense_PROCESS_FILTER))
 863:Generated_Source\PSoC4/CapSense_Processing.c ****         {
 864:Generated_Source\PSoC4/CapSense_Processing.c ****             CapSense_FtRunEnabledFiltersInternal(fltrHistV, ptrSns, widgetType);
 865:Generated_Source\PSoC4/CapSense_Processing.c ****         }
 866:Generated_Source\PSoC4/CapSense_Processing.c ****     #else
 867:Generated_Source\PSoC4/CapSense_Processing.c ****         (void)fltrHistV; /* This parameter is unused in such configurations */
 868:Generated_Source\PSoC4/CapSense_Processing.c ****     #endif /* #if (0u != DP_FW_FILTER_EN) */
 869:Generated_Source\PSoC4/CapSense_Processing.c **** 
 870:Generated_Source\PSoC4/CapSense_Processing.c ****     #if (0u != (CapSense_CSD_AUTOTUNE & CapSense_CSD_SS_TH_EN))
 871:Generated_Source\PSoC4/CapSense_Processing.c ****         if (0u != (mode & CapSense_PROCESS_CALC_NOISE))
 872:Generated_Source\PSoC4/CapSense_Processing.c ****         {
 873:Generated_Source\PSoC4/CapSense_Processing.c ****             SmartSense_RunNoiseEnvelope(ptrSns->raw[0u], ptrRamWdgt->sigPFC, ptrNoiseEnvelope);
 874:Generated_Source\PSoC4/CapSense_Processing.c ****         }
 875:Generated_Source\PSoC4/CapSense_Processing.c **** 
 876:Generated_Source\PSoC4/CapSense_Processing.c ****         if (0u != (mode & CapSense_PROCESS_THRESHOLDS))
 877:Generated_Source\PSoC4/CapSense_Processing.c ****         {            
 878:Generated_Source\PSoC4/CapSense_Processing.c ****             CapSense_DpUpdateThresholds(ptrRamWdgt, ptrNoiseEnvelope, 0u);
 879:Generated_Source\PSoC4/CapSense_Processing.c ****             
 880:Generated_Source\PSoC4/CapSense_Processing.c ****             /* Calculate Proximity Touch Threshold in SmartSense mode based on Finger Threshold and
 881:Generated_Source\PSoC4/CapSense_Processing.c ****             #if (CapSense_ENABLE == CapSense_PROXIMITY_WIDGET_EN)
 882:Generated_Source\PSoC4/CapSense_Processing.c ****                 if (CapSense_WD_PROXIMITY_E == CapSense_GET_WIDGET_TYPE(ptrFlashWdgt))
 883:Generated_Source\PSoC4/CapSense_Processing.c ****                 {
 884:Generated_Source\PSoC4/CapSense_Processing.c ****                     proximityThreshold = ((uint32)ptrRamWdgt->fingerTh * CapSense_PROX_TOUCH_COEFF)
 885:Generated_Source\PSoC4/CapSense_Processing.c ****                     if ((((1Lu) << CapSense_THRESHOLD_SIZE) - 1u) < proximityThreshold)
 886:Generated_Source\PSoC4/CapSense_Processing.c ****                     {
 887:Generated_Source\PSoC4/CapSense_Processing.c ****                         proximityThreshold = ((1Lu) << CapSense_THRESHOLD_SIZE) - 1u;
 888:Generated_Source\PSoC4/CapSense_Processing.c ****                     }
 889:Generated_Source\PSoC4/CapSense_Processing.c ****                     ((CapSense_RAM_WD_PROXIMITY_STRUCT *)ptrFlashWdgt->ptr2WdgtRam)->proxTouchTh = 
 890:Generated_Source\PSoC4/CapSense_Processing.c ****                         (CapSense_THRESHOLD_TYPE)proximityThreshold;
 891:Generated_Source\PSoC4/CapSense_Processing.c ****                 }
 892:Generated_Source\PSoC4/CapSense_Processing.c ****             #endif /* (0 != CapSense_PROXIMITY_WIDGET_EN) */
 893:Generated_Source\PSoC4/CapSense_Processing.c ****         }
 894:Generated_Source\PSoC4/CapSense_Processing.c ****     #endif /* #if (0u != (CapSense_CSD_AUTOTUNE & CapSense_CSD_SS_TH_EN)) */
 895:Generated_Source\PSoC4/CapSense_Processing.c **** 
 896:Generated_Source\PSoC4/CapSense_Processing.c ****     if (0u != (mode & CapSense_PROCESS_BASELINE))
 897:Generated_Source\PSoC4/CapSense_Processing.c ****     {
 898:Generated_Source\PSoC4/CapSense_Processing.c ****         result = CapSense_FtUpdateBaseline(ptrRamWdgt, ptrSns, widgetType);
 899:Generated_Source\PSoC4/CapSense_Processing.c ****     }
 900:Generated_Source\PSoC4/CapSense_Processing.c **** 
 901:Generated_Source\PSoC4/CapSense_Processing.c ****     if (0u != (mode & CapSense_PROCESS_DIFFCOUNTS))
 902:Generated_Source\PSoC4/CapSense_Processing.c ****     {
 903:Generated_Source\PSoC4/CapSense_Processing.c ****         CapSense_DpUpdateDifferences(ptrRamWdgt, ptrSns);
ARM GAS  C:\Users\TB1014~1\AppData\Local\Temp\ccTzyt2s.s 			page 20


 904:Generated_Source\PSoC4/CapSense_Processing.c ****     }
 905:Generated_Source\PSoC4/CapSense_Processing.c ****     return result;
 906:Generated_Source\PSoC4/CapSense_Processing.c **** }
 907:Generated_Source\PSoC4/CapSense_Processing.c **** 
 908:Generated_Source\PSoC4/CapSense_Processing.c **** /*******************************************************************************
 909:Generated_Source\PSoC4/CapSense_Processing.c **** * Function Name: CapSense_DpProcessCsdWidgetStatus
 910:Generated_Source\PSoC4/CapSense_Processing.c **** ****************************************************************************//**
 911:Generated_Source\PSoC4/CapSense_Processing.c **** *
 912:Generated_Source\PSoC4/CapSense_Processing.c **** * \brief
 913:Generated_Source\PSoC4/CapSense_Processing.c **** *  Runs the status processing of the CSD widget and updates it in the Data Structure.
 914:Generated_Source\PSoC4/CapSense_Processing.c **** *
 915:Generated_Source\PSoC4/CapSense_Processing.c **** * \details
 916:Generated_Source\PSoC4/CapSense_Processing.c **** *  This API determines the widget type and calls the appropriate low-level processing
 917:Generated_Source\PSoC4/CapSense_Processing.c **** *  function. Based on the returned results it updates the widget and sensor
 918:Generated_Source\PSoC4/CapSense_Processing.c **** *  status in the data structure. Any widget specific registers like the centroid
 919:Generated_Source\PSoC4/CapSense_Processing.c **** *  position are updated directly in the low-level processing function.
 920:Generated_Source\PSoC4/CapSense_Processing.c **** *
 921:Generated_Source\PSoC4/CapSense_Processing.c **** *  When the widget-specific processing completes this API updates the snsStatus
 922:Generated_Source\PSoC4/CapSense_Processing.c **** *  and wdgtStatus registers in the data structure. The wdgtStatus register
 923:Generated_Source\PSoC4/CapSense_Processing.c **** *  is a bitmask were each bit corresponds to the specific widget identified by
 924:Generated_Source\PSoC4/CapSense_Processing.c **** *  the widget index. When the bit is set the widget is active (touched);
 925:Generated_Source\PSoC4/CapSense_Processing.c **** *
 926:Generated_Source\PSoC4/CapSense_Processing.c **** *  The snsStatus register for CSD widgets contains status of each widget sensor
 927:Generated_Source\PSoC4/CapSense_Processing.c **** *  (active/non-active). Each bit corresponds to one sensor. In case of the
 928:Generated_Source\PSoC4/CapSense_Processing.c **** *  Proximity widget two bits are used per sensor: one for proximity status and
 929:Generated_Source\PSoC4/CapSense_Processing.c **** *  second for the touch status.
 930:Generated_Source\PSoC4/CapSense_Processing.c **** *
 931:Generated_Source\PSoC4/CapSense_Processing.c **** * \param wdgtId        The widget index number.
 932:Generated_Source\PSoC4/CapSense_Processing.c **** * \param ptrFlashWdgt  The pointer to the Flash widget structure.
 933:Generated_Source\PSoC4/CapSense_Processing.c **** *
 934:Generated_Source\PSoC4/CapSense_Processing.c **** *******************************************************************************/
 935:Generated_Source\PSoC4/CapSense_Processing.c **** void CapSense_DpProcessCsdWidgetStatus(uint32 wdgtId, CapSense_FLASH_WD_STRUCT const *ptrFlashWdgt)
 936:Generated_Source\PSoC4/CapSense_Processing.c **** {
 937:Generated_Source\PSoC4/CapSense_Processing.c ****     uint32 sensorStatus;
 938:Generated_Source\PSoC4/CapSense_Processing.c ****     uint32 wdStatusIndex;
 939:Generated_Source\PSoC4/CapSense_Processing.c ****     uint32 wdStatusMask;
 940:Generated_Source\PSoC4/CapSense_Processing.c ****     CapSense_WD_TYPE_ENUM widgetType;
 941:Generated_Source\PSoC4/CapSense_Processing.c **** 
 942:Generated_Source\PSoC4/CapSense_Processing.c ****     widgetType = (CapSense_WD_TYPE_ENUM)ptrFlashWdgt->wdgtType;
 943:Generated_Source\PSoC4/CapSense_Processing.c ****     sensorStatus = CapSense_dsRam.snsStatus[wdgtId];
 944:Generated_Source\PSoC4/CapSense_Processing.c **** 
 945:Generated_Source\PSoC4/CapSense_Processing.c ****     switch (widgetType)
 946:Generated_Source\PSoC4/CapSense_Processing.c ****     {
 947:Generated_Source\PSoC4/CapSense_Processing.c ****     #if (0u != CapSense_BUTTON_WIDGET_EN)
 948:Generated_Source\PSoC4/CapSense_Processing.c ****         case CapSense_WD_BUTTON_E:
 949:Generated_Source\PSoC4/CapSense_Processing.c ****             sensorStatus = CapSense_DpProcessButton(sensorStatus, ptrFlashWdgt);
 950:Generated_Source\PSoC4/CapSense_Processing.c ****             break;
 951:Generated_Source\PSoC4/CapSense_Processing.c ****     #endif /* #if (0u != CapSense_BUTTON_WIDGET_EN) */
 952:Generated_Source\PSoC4/CapSense_Processing.c **** 
 953:Generated_Source\PSoC4/CapSense_Processing.c ****     #if (0u != CapSense_SLIDER_WIDGET_EN)
 954:Generated_Source\PSoC4/CapSense_Processing.c ****         case CapSense_WD_LINEAR_SLIDER_E:
 955:Generated_Source\PSoC4/CapSense_Processing.c ****         case CapSense_WD_RADIAL_SLIDER_E:
 956:Generated_Source\PSoC4/CapSense_Processing.c ****             sensorStatus = CapSense_DpProcessSlider(sensorStatus, ptrFlashWdgt);
 957:Generated_Source\PSoC4/CapSense_Processing.c ****             break;
 958:Generated_Source\PSoC4/CapSense_Processing.c ****     #endif /* #if (0u != CapSense_SLIDER_WIDGET_EN) */
 959:Generated_Source\PSoC4/CapSense_Processing.c **** 
 960:Generated_Source\PSoC4/CapSense_Processing.c ****     #if (0u != CapSense_CSD_MATRIX_WIDGET_EN)
ARM GAS  C:\Users\TB1014~1\AppData\Local\Temp\ccTzyt2s.s 			page 21


 961:Generated_Source\PSoC4/CapSense_Processing.c ****         case CapSense_WD_MATRIX_BUTTON_E:
 962:Generated_Source\PSoC4/CapSense_Processing.c ****             sensorStatus = CapSense_DpProcessCsdMatrix(sensorStatus, ptrFlashWdgt);
 963:Generated_Source\PSoC4/CapSense_Processing.c ****             break;
 964:Generated_Source\PSoC4/CapSense_Processing.c ****     #endif /* #if (0u != CapSense_CSD_MATRIX_WIDGET_EN) */
 965:Generated_Source\PSoC4/CapSense_Processing.c **** 
 966:Generated_Source\PSoC4/CapSense_Processing.c ****     #if (0u != CapSense_CSD_TOUCHPAD_WIDGET_EN)
 967:Generated_Source\PSoC4/CapSense_Processing.c ****         case CapSense_WD_TOUCHPAD_E:
 968:Generated_Source\PSoC4/CapSense_Processing.c ****             sensorStatus = CapSense_DpProcessCsdTouchpad(sensorStatus, ptrFlashWdgt);
 969:Generated_Source\PSoC4/CapSense_Processing.c ****             break;
 970:Generated_Source\PSoC4/CapSense_Processing.c ****     #endif /* #if (0u != CapSense_CSD_TOUCHPAD_WIDGET_EN) */
 971:Generated_Source\PSoC4/CapSense_Processing.c **** 
 972:Generated_Source\PSoC4/CapSense_Processing.c ****     #if (0u != CapSense_PROXIMITY_WIDGET_EN)
 973:Generated_Source\PSoC4/CapSense_Processing.c ****         case CapSense_WD_PROXIMITY_E:
 974:Generated_Source\PSoC4/CapSense_Processing.c ****             sensorStatus = CapSense_DpProcessProximity(sensorStatus, ptrFlashWdgt);
 975:Generated_Source\PSoC4/CapSense_Processing.c ****             break;
 976:Generated_Source\PSoC4/CapSense_Processing.c ****     #endif /* #if (0u != CapSense_PROXIMITY_WIDGET_EN) */
 977:Generated_Source\PSoC4/CapSense_Processing.c **** 
 978:Generated_Source\PSoC4/CapSense_Processing.c ****     default:
 979:Generated_Source\PSoC4/CapSense_Processing.c ****         CYASSERT(0u);
 980:Generated_Source\PSoC4/CapSense_Processing.c ****         break;
 981:Generated_Source\PSoC4/CapSense_Processing.c ****     }
 982:Generated_Source\PSoC4/CapSense_Processing.c **** 
 983:Generated_Source\PSoC4/CapSense_Processing.c ****     CapSense_dsRam.snsStatus[wdgtId] = (CapSense_SNS_STS_TYPE)sensorStatus;
 984:Generated_Source\PSoC4/CapSense_Processing.c **** 
 985:Generated_Source\PSoC4/CapSense_Processing.c ****     /* The next two lines calculate index and bitmask of the widget status bit in the wdgtStatus ar
 986:Generated_Source\PSoC4/CapSense_Processing.c ****     wdStatusIndex = CapSense_GET_WDGT_STATUS_INDEX(wdgtId);
 987:Generated_Source\PSoC4/CapSense_Processing.c ****     wdStatusMask = CapSense_GET_WDGT_STATUS_MASK(wdgtId);
 988:Generated_Source\PSoC4/CapSense_Processing.c **** 
 989:Generated_Source\PSoC4/CapSense_Processing.c ****     /* Check if there are active sensors and update widget status accordingly */
 990:Generated_Source\PSoC4/CapSense_Processing.c ****     if (0u == sensorStatus)
 991:Generated_Source\PSoC4/CapSense_Processing.c ****     {
 992:Generated_Source\PSoC4/CapSense_Processing.c ****         CapSense_dsRam.wdgtStatus[wdStatusIndex] &= ~wdStatusMask;
 993:Generated_Source\PSoC4/CapSense_Processing.c ****     }
 994:Generated_Source\PSoC4/CapSense_Processing.c ****     else
 995:Generated_Source\PSoC4/CapSense_Processing.c ****     {
 996:Generated_Source\PSoC4/CapSense_Processing.c ****         CapSense_dsRam.wdgtStatus[wdStatusIndex] |= wdStatusMask;
 997:Generated_Source\PSoC4/CapSense_Processing.c ****     }
 998:Generated_Source\PSoC4/CapSense_Processing.c **** }
 999:Generated_Source\PSoC4/CapSense_Processing.c **** #endif /* #if (0u != CapSense_TOTAL_CSD_WIDGETS) */
1000:Generated_Source\PSoC4/CapSense_Processing.c **** 
1001:Generated_Source\PSoC4/CapSense_Processing.c **** 
1002:Generated_Source\PSoC4/CapSense_Processing.c **** #if (0 != (CapSense_CSD_AUTOTUNE & CapSense_CSD_SS_TH_EN))
1003:Generated_Source\PSoC4/CapSense_Processing.c **** /*******************************************************************************
1004:Generated_Source\PSoC4/CapSense_Processing.c **** * Function Name: CapSense_DpUpdateThresholds
1005:Generated_Source\PSoC4/CapSense_Processing.c **** ****************************************************************************//**
1006:Generated_Source\PSoC4/CapSense_Processing.c **** *
1007:Generated_Source\PSoC4/CapSense_Processing.c **** * \brief
1008:Generated_Source\PSoC4/CapSense_Processing.c **** *   Updates noise and finger thresholds for a specified widget.
1009:Generated_Source\PSoC4/CapSense_Processing.c **** *
1010:Generated_Source\PSoC4/CapSense_Processing.c **** * \details
1011:Generated_Source\PSoC4/CapSense_Processing.c **** *   Updates noise and finger thresholds for a specified widget.
1012:Generated_Source\PSoC4/CapSense_Processing.c **** *   This algorithm is a part of Auto-tuning feature.
1013:Generated_Source\PSoC4/CapSense_Processing.c **** *
1014:Generated_Source\PSoC4/CapSense_Processing.c **** * \param ptrRamWdgt       The pointer to the RAM widget object.
1015:Generated_Source\PSoC4/CapSense_Processing.c **** * \param ptrNoiseEnvelope The pointer to the noise-envelope object in RAM.
1016:Generated_Source\PSoC4/CapSense_Processing.c **** * \param startFlag        The flag indicates when new widget is processed.
1017:Generated_Source\PSoC4/CapSense_Processing.c **** *
ARM GAS  C:\Users\TB1014~1\AppData\Local\Temp\ccTzyt2s.s 			page 22


1018:Generated_Source\PSoC4/CapSense_Processing.c **** *******************************************************************************/
1019:Generated_Source\PSoC4/CapSense_Processing.c **** void CapSense_DpUpdateThresholds(CapSense_RAM_WD_BASE_STRUCT *ptrRamWdgt,
1020:Generated_Source\PSoC4/CapSense_Processing.c ****                                          SMARTSENSE_CSD_NOISE_ENVELOPE_STRUCT *ptrNoiseEnvelope,
1021:Generated_Source\PSoC4/CapSense_Processing.c ****                                          uint32 startFlag)
1022:Generated_Source\PSoC4/CapSense_Processing.c **** {
1023:Generated_Source\PSoC4/CapSense_Processing.c ****     SMARTSENSE_UPDATE_THRESHOLDS_STRUCT thresholds;    
1024:Generated_Source\PSoC4/CapSense_Processing.c ****     SMARTSENSE_UPDATE_THRESHOLDS_STRUCT *ptrThresholds = &thresholds;
1025:Generated_Source\PSoC4/CapSense_Processing.c ****     ptrThresholds->fingerTh = ptrRamWdgt->fingerTh;
1026:Generated_Source\PSoC4/CapSense_Processing.c **** 
1027:Generated_Source\PSoC4/CapSense_Processing.c ****     SmartSense_UpdateThresholds(ptrNoiseEnvelope, ptrThresholds, ptrRamWdgt->sigPFC, startFlag);
1028:Generated_Source\PSoC4/CapSense_Processing.c **** 
1029:Generated_Source\PSoC4/CapSense_Processing.c ****     ptrRamWdgt->fingerTh = ptrThresholds->fingerTh;
1030:Generated_Source\PSoC4/CapSense_Processing.c ****     ptrRamWdgt->noiseTh = ptrThresholds->noiseTh;
1031:Generated_Source\PSoC4/CapSense_Processing.c ****     ptrRamWdgt->nNoiseTh = ptrThresholds->nNoiseTh;
1032:Generated_Source\PSoC4/CapSense_Processing.c ****     ptrRamWdgt->hysteresis = ptrThresholds->hysteresis;    
1033:Generated_Source\PSoC4/CapSense_Processing.c **** }
1034:Generated_Source\PSoC4/CapSense_Processing.c **** #endif /* #if (0u != (CapSense_CSD_AUTOTUNE & CapSense_CSD_SS_TH_EN)) */
1035:Generated_Source\PSoC4/CapSense_Processing.c **** 
1036:Generated_Source\PSoC4/CapSense_Processing.c **** 
1037:Generated_Source\PSoC4/CapSense_Processing.c **** /*******************************************************************************
1038:Generated_Source\PSoC4/CapSense_Processing.c **** * Function Name: CapSense_DpUpdateDifferences
1039:Generated_Source\PSoC4/CapSense_Processing.c **** ****************************************************************************//**
1040:Generated_Source\PSoC4/CapSense_Processing.c **** *
1041:Generated_Source\PSoC4/CapSense_Processing.c **** * \brief
1042:Generated_Source\PSoC4/CapSense_Processing.c **** *   Calculates new difference values.
1043:Generated_Source\PSoC4/CapSense_Processing.c **** *   Also, executes the frequency hopping algorithm if it is enabled.
1044:Generated_Source\PSoC4/CapSense_Processing.c **** *
1045:Generated_Source\PSoC4/CapSense_Processing.c **** * \details
1046:Generated_Source\PSoC4/CapSense_Processing.c **** *   This API calculates the difference between the baseline and raw counts.
1047:Generated_Source\PSoC4/CapSense_Processing.c **** *   If the difference is positive (raw > baseline), and higher than the widget
1048:Generated_Source\PSoC4/CapSense_Processing.c **** *   noise threshold, it is saved into the data structure for further processing.
1049:Generated_Source\PSoC4/CapSense_Processing.c **** *   Otherwise the difference is set to zero. The final difference value is saved
1050:Generated_Source\PSoC4/CapSense_Processing.c **** *   with the subtracted noise threshold value.
1051:Generated_Source\PSoC4/CapSense_Processing.c **** *
1052:Generated_Source\PSoC4/CapSense_Processing.c **** *   If the frequency hopping algorithm is enabled, the difference is calculated
1053:Generated_Source\PSoC4/CapSense_Processing.c **** *   for the three sets of data available for each sensor. Then
1054:Generated_Source\PSoC4/CapSense_Processing.c **** *   the median filter selects the final difference value.
1055:Generated_Source\PSoC4/CapSense_Processing.c **** *
1056:Generated_Source\PSoC4/CapSense_Processing.c **** * \param ptrRamWdgt The pointer to the RAR Widget Object.
1057:Generated_Source\PSoC4/CapSense_Processing.c **** * \param ptrSns     The pointer to the sensor object in RAM.
1058:Generated_Source\PSoC4/CapSense_Processing.c **** *
1059:Generated_Source\PSoC4/CapSense_Processing.c **** *******************************************************************************/
1060:Generated_Source\PSoC4/CapSense_Processing.c **** void CapSense_DpUpdateDifferences(
1061:Generated_Source\PSoC4/CapSense_Processing.c ****                         CapSense_RAM_WD_BASE_STRUCT *ptrRamWdgt,
1062:Generated_Source\PSoC4/CapSense_Processing.c ****                         CapSense_RAM_SNS_STRUCT *ptrSns)
1063:Generated_Source\PSoC4/CapSense_Processing.c **** {
 172              		.loc 1 1063 0
 173              		.cfi_startproc
 174              	.LVL21:
1064:Generated_Source\PSoC4/CapSense_Processing.c ****     register int32 diffValue = 0;
1065:Generated_Source\PSoC4/CapSense_Processing.c **** 
1066:Generated_Source\PSoC4/CapSense_Processing.c ****     #if (0u != CapSense_MULTI_FREQ_SCAN_EN)
1067:Generated_Source\PSoC4/CapSense_Processing.c ****         register int32 diffValue_0 = 0;
1068:Generated_Source\PSoC4/CapSense_Processing.c ****         register int32 diffValue_2 = 0;
1069:Generated_Source\PSoC4/CapSense_Processing.c ****     #endif /* #if (0u != CapSense_MULTI_FREQ_SCAN_EN) */
1070:Generated_Source\PSoC4/CapSense_Processing.c **** 
1071:Generated_Source\PSoC4/CapSense_Processing.c ****     /* Calculate difference */
ARM GAS  C:\Users\TB1014~1\AppData\Local\Temp\ccTzyt2s.s 			page 23


1072:Generated_Source\PSoC4/CapSense_Processing.c ****     diffValue = (int32)ptrSns->raw[0u] - (int32)ptrSns->bsln[0u];
 175              		.loc 1 1072 0
 176 0000 0B88     		ldrh	r3, [r1]
 177 0002 4A88     		ldrh	r2, [r1, #2]
 178 0004 9B1A     		sub	r3, r3, r2
 179              	.LVL22:
1073:Generated_Source\PSoC4/CapSense_Processing.c **** 
1074:Generated_Source\PSoC4/CapSense_Processing.c ****     #if (0u != CapSense_MULTI_FREQ_SCAN_EN)
1075:Generated_Source\PSoC4/CapSense_Processing.c ****         diffValue_0 = (int32)ptrSns->raw[1u] - (int32)ptrSns->bsln[1u];
1076:Generated_Source\PSoC4/CapSense_Processing.c ****         diffValue_2 = (int32)ptrSns->raw[2u] - (int32)ptrSns->bsln[2u];
1077:Generated_Source\PSoC4/CapSense_Processing.c **** 
1078:Generated_Source\PSoC4/CapSense_Processing.c ****         /* Find median and put it into [0u] element */
1079:Generated_Source\PSoC4/CapSense_Processing.c ****         if (diffValue_0 > diffValue)
1080:Generated_Source\PSoC4/CapSense_Processing.c ****         {
1081:Generated_Source\PSoC4/CapSense_Processing.c ****             register int32 swapv = diffValue_0;
1082:Generated_Source\PSoC4/CapSense_Processing.c ****             diffValue_0 = diffValue;
1083:Generated_Source\PSoC4/CapSense_Processing.c ****             diffValue = swapv;
1084:Generated_Source\PSoC4/CapSense_Processing.c ****         }
1085:Generated_Source\PSoC4/CapSense_Processing.c **** 
1086:Generated_Source\PSoC4/CapSense_Processing.c ****         if (diffValue > diffValue_2)
1087:Generated_Source\PSoC4/CapSense_Processing.c ****         {
1088:Generated_Source\PSoC4/CapSense_Processing.c ****             register int32 swapv = diffValue;
1089:Generated_Source\PSoC4/CapSense_Processing.c ****             diffValue = diffValue_2;
1090:Generated_Source\PSoC4/CapSense_Processing.c ****             diffValue_2 = swapv;
1091:Generated_Source\PSoC4/CapSense_Processing.c ****         }
1092:Generated_Source\PSoC4/CapSense_Processing.c **** 
1093:Generated_Source\PSoC4/CapSense_Processing.c ****         if (diffValue_0 > diffValue)
1094:Generated_Source\PSoC4/CapSense_Processing.c ****         {
1095:Generated_Source\PSoC4/CapSense_Processing.c ****             register int32 swapv = diffValue_0;
1096:Generated_Source\PSoC4/CapSense_Processing.c ****             diffValue_0 = diffValue;
1097:Generated_Source\PSoC4/CapSense_Processing.c ****             diffValue = swapv;
1098:Generated_Source\PSoC4/CapSense_Processing.c ****         }
1099:Generated_Source\PSoC4/CapSense_Processing.c ****     #endif /* #if (0u != CapSense_MULTI_FREQ_SCAN_EN) */
1100:Generated_Source\PSoC4/CapSense_Processing.c **** 
1101:Generated_Source\PSoC4/CapSense_Processing.c ****     ptrSns->diff = 0u;
 180              		.loc 1 1101 0
 181 0006 0022     		mov	r2, #0
 182 0008 CA80     		strh	r2, [r1, #6]
1102:Generated_Source\PSoC4/CapSense_Processing.c **** 
1103:Generated_Source\PSoC4/CapSense_Processing.c ****     if (diffValue > (int32)ptrRamWdgt->noiseTh)
 183              		.loc 1 1103 0
 184 000a 0279     		ldrb	r2, [r0, #4]
 185 000c 9A42     		cmp	r2, r3
 186 000e 00DA     		bge	.L15
1104:Generated_Source\PSoC4/CapSense_Processing.c ****     {
1105:Generated_Source\PSoC4/CapSense_Processing.c ****         ptrSns->diff = (CapSense_THRESHOLD_TYPE) diffValue;
 187              		.loc 1 1105 0
 188 0010 CB80     		strh	r3, [r1, #6]
 189              	.L15:
1106:Generated_Source\PSoC4/CapSense_Processing.c ****     }
1107:Generated_Source\PSoC4/CapSense_Processing.c **** }
 190              		.loc 1 1107 0
 191              		@ sp needed
 192 0012 7047     		bx	lr
 193              		.cfi_endproc
 194              	.LFE6:
 195              		.size	CapSense_DpUpdateDifferences, .-CapSense_DpUpdateDifferences
ARM GAS  C:\Users\TB1014~1\AppData\Local\Temp\ccTzyt2s.s 			page 24


 196              		.section	.text.CapSense_DpProcessCsdWidgetRawCounts,"ax",%progbits
 197              		.align	2
 198              		.global	CapSense_DpProcessCsdWidgetRawCounts
 199              		.code	16
 200              		.thumb_func
 201              		.type	CapSense_DpProcessCsdWidgetRawCounts, %function
 202              	CapSense_DpProcessCsdWidgetRawCounts:
 203              	.LFB3:
 708:Generated_Source\PSoC4/CapSense_Processing.c ****     uint32  result = CYRET_SUCCESS;
 204              		.loc 1 708 0
 205              		.cfi_startproc
 206              	.LVL23:
 207 0000 F0B5     		push	{r4, r5, r6, r7, lr}
 208              		.cfi_def_cfa_offset 20
 209              		.cfi_offset 4, -20
 210              		.cfi_offset 5, -16
 211              		.cfi_offset 6, -12
 212              		.cfi_offset 7, -8
 213              		.cfi_offset 14, -4
 214 0002 5F46     		mov	r7, fp
 215 0004 80B4     		push	{r7}
 216              		.cfi_def_cfa_offset 24
 217              		.cfi_offset 11, -24
 218 0006 84B0     		sub	sp, sp, #16
 219              		.cfi_def_cfa_offset 40
 220 0008 061C     		mov	r6, r0
 221              	.LVL24:
 733:Generated_Source\PSoC4/CapSense_Processing.c ****                     
 222              		.loc 1 733 0
 223 000a 037E     		ldrb	r3, [r0, #24]
 732:Generated_Source\PSoC4/CapSense_Processing.c ****                     (CapSense_GET_WIDGET_TYPE(ptrFlashWdgt) == CapSense_WD_PROXIMITY_E) ? 1u : 0u;
 224              		.loc 1 732 0
 225 000c 062B     		cmp	r3, #6
 226 000e 02D1     		bne	.L22
 227 0010 0122     		mov	r2, #1
 228 0012 9346     		mov	fp, r2
 229 0014 01E0     		b	.L18
 230              	.L22:
 231 0016 0022     		mov	r2, #0
 232 0018 9346     		mov	fp, r2
 233              	.L18:
 234              	.LVL25:
 736:Generated_Source\PSoC4/CapSense_Processing.c ****     #endif /* #if (0u != DP_FW_FILTER_EN) */
 235              		.loc 1 736 0 discriminator 4
 236 001a F568     		ldr	r5, [r6, #12]
 237              	.LVL26:
 739:Generated_Source\PSoC4/CapSense_Processing.c ****     ptrRamWdgt = ptrFlashWdgt->ptr2WdgtRam;
 238              		.loc 1 739 0 discriminator 4
 239 001c B468     		ldr	r4, [r6, #8]
 240              	.LVL27:
 740:Generated_Source\PSoC4/CapSense_Processing.c ****     widgetType = ptrFlashWdgt->wdgtType;
 241              		.loc 1 740 0 discriminator 4
 242 001e 7268     		ldr	r2, [r6, #4]
 243 0020 0192     		str	r2, [sp, #4]
 244              	.LVL28:
 741:Generated_Source\PSoC4/CapSense_Processing.c **** 
 245              		.loc 1 741 0 discriminator 4
ARM GAS  C:\Users\TB1014~1\AppData\Local\Temp\ccTzyt2s.s 			page 25


 246 0022 0293     		str	r3, [sp, #8]
 247              	.LVL29:
 748:Generated_Source\PSoC4/CapSense_Processing.c ****     {
 248              		.loc 1 748 0 discriminator 4
 249 0024 0027     		mov	r7, #0
 709:Generated_Source\PSoC4/CapSense_Processing.c ****     
 250              		.loc 1 709 0 discriminator 4
 251 0026 0023     		mov	r3, #0
 252 0028 0393     		str	r3, [sp, #12]
 748:Generated_Source\PSoC4/CapSense_Processing.c ****     {
 253              		.loc 1 748 0 discriminator 4
 254 002a 14E0     		b	.L19
 255              	.LVL30:
 256              	.L21:
 752:Generated_Source\PSoC4/CapSense_Processing.c ****         #endif /* #if (0u != DP_FW_FILTER_EN) */
 257              		.loc 1 752 0
 258 002c 281C     		mov	r0, r5
 259 002e 211C     		mov	r1, r4
 260 0030 029A     		ldr	r2, [sp, #8]
 261 0032 FFF7FEFF 		bl	CapSense_FtRunEnabledFiltersInternal
 262              	.LVL31:
 788:Generated_Source\PSoC4/CapSense_Processing.c ****         #endif /* (CapSense_ENABLE == CapSense_TST_BSLN_DUPLICATION_EN) */
 263              		.loc 1 788 0
 264 0036 0198     		ldr	r0, [sp, #4]
 265 0038 211C     		mov	r1, r4
 266 003a 029A     		ldr	r2, [sp, #8]
 267 003c FFF7FEFF 		bl	CapSense_FtUpdateBaseline
 268              	.LVL32:
 269 0040 0390     		str	r0, [sp, #12]
 270              	.LVL33:
 791:Generated_Source\PSoC4/CapSense_Processing.c **** 
 271              		.loc 1 791 0
 272 0042 0198     		ldr	r0, [sp, #4]
 273              	.LVL34:
 274 0044 211C     		mov	r1, r4
 275 0046 FFF7FEFF 		bl	CapSense_DpUpdateDifferences
 276              	.LVL35:
 794:Generated_Source\PSoC4/CapSense_Processing.c **** 
 277              		.loc 1 794 0
 278 004a 0A34     		add	r4, r4, #10
 279              	.LVL36:
 798:Generated_Source\PSoC4/CapSense_Processing.c ****         #endif /* #if (0u != DP_FW_FILTER_EN) */
 280              		.loc 1 798 0
 281 004c 5B46     		mov	r3, fp
 282 004e 002B     		cmp	r3, #0
 283 0050 00D1     		bne	.L20
 284              	.LVL37:
 798:Generated_Source\PSoC4/CapSense_Processing.c ****         #endif /* #if (0u != DP_FW_FILTER_EN) */
 285              		.loc 1 798 0 is_stmt 0 discriminator 1
 286 0052 0235     		add	r5, r5, #2
 287              	.LVL38:
 288              	.L20:
 748:Generated_Source\PSoC4/CapSense_Processing.c ****     {
 289              		.loc 1 748 0 is_stmt 1 discriminator 2
 290 0054 0137     		add	r7, r7, #1
 291              	.LVL39:
 292              	.L19:
ARM GAS  C:\Users\TB1014~1\AppData\Local\Temp\ccTzyt2s.s 			page 26


 748:Generated_Source\PSoC4/CapSense_Processing.c ****     {
 293              		.loc 1 748 0 is_stmt 0 discriminator 1
 294 0056 F38A     		ldrh	r3, [r6, #22]
 295 0058 BB42     		cmp	r3, r7
 296 005a E7D8     		bhi	.L21
 802:Generated_Source\PSoC4/CapSense_Processing.c **** 
 297              		.loc 1 802 0 is_stmt 1
 298 005c 0398     		ldr	r0, [sp, #12]
 299 005e 04B0     		add	sp, sp, #16
 300              		@ sp needed
 301              	.LVL40:
 302              	.LVL41:
 303              	.LVL42:
 304              	.LVL43:
 305              	.LVL44:
 306 0060 04BC     		pop	{r2}
 307 0062 9346     		mov	fp, r2
 308 0064 F0BD     		pop	{r4, r5, r6, r7, pc}
 309              		.cfi_endproc
 310              	.LFE3:
 311              		.size	CapSense_DpProcessCsdWidgetRawCounts, .-CapSense_DpProcessCsdWidgetRawCounts
 312 0066 C046     		.section	.text.CapSense_DpProcessCsdSensorRawCountsExt,"ax",%progbits
 313              		.align	2
 314              		.global	CapSense_DpProcessCsdSensorRawCountsExt
 315              		.code	16
 316              		.thumb_func
 317              		.type	CapSense_DpProcessCsdSensorRawCountsExt, %function
 318              	CapSense_DpProcessCsdSensorRawCountsExt:
 319              	.LFB4:
 843:Generated_Source\PSoC4/CapSense_Processing.c ****     uint32 result = CYRET_SUCCESS;
 320              		.loc 1 843 0
 321              		.cfi_startproc
 322              	.LVL45:
 323 0000 F8B5     		push	{r3, r4, r5, r6, r7, lr}
 324              		.cfi_def_cfa_offset 24
 325              		.cfi_offset 3, -24
 326              		.cfi_offset 4, -20
 327              		.cfi_offset 5, -16
 328              		.cfi_offset 6, -12
 329              		.cfi_offset 7, -8
 330              		.cfi_offset 14, -4
 331 0002 0E1C     		mov	r6, r1
 332 0004 1C1C     		mov	r4, r3
 333              	.LVL46:
 858:Generated_Source\PSoC4/CapSense_Processing.c ****     ptrRamWdgt = ptrFlashWdgt->ptr2WdgtRam;
 334              		.loc 1 858 0
 335 0006 057E     		ldrb	r5, [r0, #24]
 336              	.LVL47:
 859:Generated_Source\PSoC4/CapSense_Processing.c **** 
 337              		.loc 1 859 0
 338 0008 4768     		ldr	r7, [r0, #4]
 339              	.LVL48:
 862:Generated_Source\PSoC4/CapSense_Processing.c ****         {
 340              		.loc 1 862 0
 341 000a E307     		lsl	r3, r4, #31
 342 000c 03D5     		bpl	.L24
 343              	.LVL49:
ARM GAS  C:\Users\TB1014~1\AppData\Local\Temp\ccTzyt2s.s 			page 27


 864:Generated_Source\PSoC4/CapSense_Processing.c ****         }
 344              		.loc 1 864 0
 345 000e 101C     		mov	r0, r2
 346              	.LVL50:
 347 0010 2A1C     		mov	r2, r5
 348              	.LVL51:
 349 0012 FFF7FEFF 		bl	CapSense_FtRunEnabledFiltersInternal
 350              	.LVL52:
 351              	.L24:
 896:Generated_Source\PSoC4/CapSense_Processing.c ****     {
 352              		.loc 1 896 0
 353 0016 A307     		lsl	r3, r4, #30
 354 0018 06D5     		bpl	.L27
 898:Generated_Source\PSoC4/CapSense_Processing.c ****     }
 355              		.loc 1 898 0
 356 001a 381C     		mov	r0, r7
 357 001c 311C     		mov	r1, r6
 358 001e 2A1C     		mov	r2, r5
 359              	.LVL53:
 360 0020 FFF7FEFF 		bl	CapSense_FtUpdateBaseline
 361              	.LVL54:
 362 0024 051C     		mov	r5, r0
 363              	.LVL55:
 364 0026 00E0     		b	.L25
 365              	.LVL56:
 366              	.L27:
 844:Generated_Source\PSoC4/CapSense_Processing.c ****     uint32  widgetType;
 367              		.loc 1 844 0
 368 0028 0025     		mov	r5, #0
 369              	.LVL57:
 370              	.L25:
 901:Generated_Source\PSoC4/CapSense_Processing.c ****     {
 371              		.loc 1 901 0
 372 002a 6307     		lsl	r3, r4, #29
 373 002c 03D5     		bpl	.L26
 903:Generated_Source\PSoC4/CapSense_Processing.c ****     }
 374              		.loc 1 903 0
 375 002e 381C     		mov	r0, r7
 376 0030 311C     		mov	r1, r6
 377 0032 FFF7FEFF 		bl	CapSense_DpUpdateDifferences
 378              	.LVL58:
 379              	.L26:
 906:Generated_Source\PSoC4/CapSense_Processing.c **** 
 380              		.loc 1 906 0
 381 0036 281C     		mov	r0, r5
 382              		@ sp needed
 383              	.LVL59:
 384              	.LVL60:
 385              	.LVL61:
 386              	.LVL62:
 387 0038 F8BD     		pop	{r3, r4, r5, r6, r7, pc}
 388              		.cfi_endproc
 389              	.LFE4:
 390              		.size	CapSense_DpProcessCsdSensorRawCountsExt, .-CapSense_DpProcessCsdSensorRawCountsExt
 391 003a C046     		.section	.text.CapSense_DpProcessButton,"ax",%progbits
 392              		.align	2
 393              		.global	CapSense_DpProcessButton
ARM GAS  C:\Users\TB1014~1\AppData\Local\Temp\ccTzyt2s.s 			page 28


 394              		.code	16
 395              		.thumb_func
 396              		.type	CapSense_DpProcessButton, %function
 397              	CapSense_DpProcessButton:
 398              	.LFB7:
1108:Generated_Source\PSoC4/CapSense_Processing.c **** 
1109:Generated_Source\PSoC4/CapSense_Processing.c **** 
1110:Generated_Source\PSoC4/CapSense_Processing.c **** #if ((0u != CapSense_BUTTON_WIDGET_EN) || (0u != CapSense_CSX_MATRIX_WIDGET_EN))
1111:Generated_Source\PSoC4/CapSense_Processing.c **** /*******************************************************************************
1112:Generated_Source\PSoC4/CapSense_Processing.c **** * Function Name: CapSense_DpProcessButton
1113:Generated_Source\PSoC4/CapSense_Processing.c **** ****************************************************************************//**
1114:Generated_Source\PSoC4/CapSense_Processing.c **** *
1115:Generated_Source\PSoC4/CapSense_Processing.c **** * \brief
1116:Generated_Source\PSoC4/CapSense_Processing.c **** *   Processes the status of the Button widget.
1117:Generated_Source\PSoC4/CapSense_Processing.c **** *
1118:Generated_Source\PSoC4/CapSense_Processing.c **** * \details
1119:Generated_Source\PSoC4/CapSense_Processing.c **** *   This API processes the status of the CSD/CSX Button widget and
1120:Generated_Source\PSoC4/CapSense_Processing.c **** *   CSX Matrix Button widget. It applies the hysteresis and de-bounce algorithm
1121:Generated_Source\PSoC4/CapSense_Processing.c **** *   to each sensor difference value. This API is expected to be called
1122:Generated_Source\PSoC4/CapSense_Processing.c **** *   after each new widget scan. If it is called multiple times for the same
1123:Generated_Source\PSoC4/CapSense_Processing.c **** *   scan data, the de-bounce algorithm will not work properly.
1124:Generated_Source\PSoC4/CapSense_Processing.c **** *
1125:Generated_Source\PSoC4/CapSense_Processing.c **** *   This API does not update any Data Structure registers
1126:Generated_Source\PSoC4/CapSense_Processing.c **** *   except the de-bounce counters.
1127:Generated_Source\PSoC4/CapSense_Processing.c **** *
1128:Generated_Source\PSoC4/CapSense_Processing.c **** * \param currStatus   The current status of the widget sensors.
1129:Generated_Source\PSoC4/CapSense_Processing.c **** * \param ptrFlashWdgt The pointer to the Flash Widget Object.
1130:Generated_Source\PSoC4/CapSense_Processing.c **** *
1131:Generated_Source\PSoC4/CapSense_Processing.c **** * \return Returns the status of the widget's sensors. Bit #0 - corresponds to Sensor #0.
1132:Generated_Source\PSoC4/CapSense_Processing.c **** *
1133:Generated_Source\PSoC4/CapSense_Processing.c **** *******************************************************************************/
1134:Generated_Source\PSoC4/CapSense_Processing.c **** uint32 CapSense_DpProcessButton(uint32 currStatus, CapSense_FLASH_WD_STRUCT const *ptrFlashWdgt)
1135:Generated_Source\PSoC4/CapSense_Processing.c **** {
 399              		.loc 1 1135 0
 400              		.cfi_startproc
 401              	.LVL63:
 402 0000 F0B5     		push	{r4, r5, r6, r7, lr}
 403              		.cfi_def_cfa_offset 20
 404              		.cfi_offset 4, -20
 405              		.cfi_offset 5, -16
 406              		.cfi_offset 6, -12
 407              		.cfi_offset 7, -8
 408              		.cfi_offset 14, -4
1136:Generated_Source\PSoC4/CapSense_Processing.c ****     uint32 snsCnt;
1137:Generated_Source\PSoC4/CapSense_Processing.c ****     uint32 snsMask;
1138:Generated_Source\PSoC4/CapSense_Processing.c ****     uint32 newStatus;
1139:Generated_Source\PSoC4/CapSense_Processing.c ****     uint32 touchTh;
1140:Generated_Source\PSoC4/CapSense_Processing.c ****     CapSense_RAM_SNS_STRUCT *ptrSns;
1141:Generated_Source\PSoC4/CapSense_Processing.c ****     CapSense_RAM_WD_BASE_STRUCT *ptrRamWdgt;
1142:Generated_Source\PSoC4/CapSense_Processing.c ****     uint8 * ptrDebounceCnt;
1143:Generated_Source\PSoC4/CapSense_Processing.c **** 
1144:Generated_Source\PSoC4/CapSense_Processing.c ****     snsCnt = ptrFlashWdgt->totalNumSns;
 409              		.loc 1 1144 0
 410 0002 CA8A     		ldrh	r2, [r1, #22]
 411              	.LVL64:
1145:Generated_Source\PSoC4/CapSense_Processing.c ****     ptrSns = ptrFlashWdgt->ptr2SnsRam;
 412              		.loc 1 1145 0
ARM GAS  C:\Users\TB1014~1\AppData\Local\Temp\ccTzyt2s.s 			page 29


 413 0004 8D68     		ldr	r5, [r1, #8]
 414              	.LVL65:
1146:Generated_Source\PSoC4/CapSense_Processing.c ****     ptrRamWdgt = ptrFlashWdgt->ptr2WdgtRam;
 415              		.loc 1 1146 0
 416 0006 4F68     		ldr	r7, [r1, #4]
 417              	.LVL66:
1147:Generated_Source\PSoC4/CapSense_Processing.c ****     ptrDebounceCnt = ptrFlashWdgt->ptr2DebounceArr;
 418              		.loc 1 1147 0
 419 0008 0B69     		ldr	r3, [r1, #16]
 420              	.LVL67:
1148:Generated_Source\PSoC4/CapSense_Processing.c **** 
1149:Generated_Source\PSoC4/CapSense_Processing.c ****     /* Go through all widget's sensors */
1150:Generated_Source\PSoC4/CapSense_Processing.c ****     snsMask = 1Lu;
 421              		.loc 1 1150 0
 422 000a 0121     		mov	r1, #1
 423              	.LVL68:
1151:Generated_Source\PSoC4/CapSense_Processing.c ****     for (; snsCnt-- > 0u; )
 424              		.loc 1 1151 0
 425 000c 25E0     		b	.L29
 426              	.LVL69:
 427              	.L37:
1152:Generated_Source\PSoC4/CapSense_Processing.c ****     {
1153:Generated_Source\PSoC4/CapSense_Processing.c ****         /* Calculate touch threshold taking into account hysteresis
1154:Generated_Source\PSoC4/CapSense_Processing.c ****            and current sensor state. */
1155:Generated_Source\PSoC4/CapSense_Processing.c ****         touchTh = (0u == (currStatus & snsMask)) ?
 428              		.loc 1 1155 0
 429 000e 0C1C     		mov	r4, r1
 430              	.LVL70:
 431 0010 0440     		and	r4, r0
1156:Generated_Source\PSoC4/CapSense_Processing.c ****                   ((uint32)ptrRamWdgt->fingerTh + ptrRamWdgt->hysteresis) :
 432              		.loc 1 1156 0
 433 0012 03D1     		bne	.L30
 434              		.loc 1 1156 0 is_stmt 0 discriminator 1
 435 0014 7E88     		ldrh	r6, [r7, #2]
 436 0016 BA79     		ldrb	r2, [r7, #6]
 437 0018 B218     		add	r2, r6, r2
 438 001a 02E0     		b	.L31
 439              	.L30:
1157:Generated_Source\PSoC4/CapSense_Processing.c ****                   ((uint32)ptrRamWdgt->fingerTh - ptrRamWdgt->hysteresis);
 440              		.loc 1 1157 0 is_stmt 1 discriminator 2
 441 001c 7A88     		ldrh	r2, [r7, #2]
 442 001e BE79     		ldrb	r6, [r7, #6]
1156:Generated_Source\PSoC4/CapSense_Processing.c ****                   ((uint32)ptrRamWdgt->fingerTh + ptrRamWdgt->hysteresis) :
 443              		.loc 1 1156 0 discriminator 2
 444 0020 921B     		sub	r2, r2, r6
 445              	.L31:
 446              	.LVL71:
1158:Generated_Source\PSoC4/CapSense_Processing.c **** 
1159:Generated_Source\PSoC4/CapSense_Processing.c ****         /* Determine new potential sensor state */
1160:Generated_Source\PSoC4/CapSense_Processing.c ****         newStatus = (ptrSns->diff > touchTh) ? snsMask : 0u;
 447              		.loc 1 1160 0
 448 0022 EE88     		ldrh	r6, [r5, #6]
 449 0024 B242     		cmp	r2, r6
 450 0026 01D3     		bcc	.L38
 451 0028 0022     		mov	r2, #0
 452              	.LVL72:
 453 002a 00E0     		b	.L32
ARM GAS  C:\Users\TB1014~1\AppData\Local\Temp\ccTzyt2s.s 			page 30


 454              	.LVL73:
 455              	.L38:
 456 002c 0A1C     		mov	r2, r1
 457              	.LVL74:
 458              	.L32:
1161:Generated_Source\PSoC4/CapSense_Processing.c **** 
1162:Generated_Source\PSoC4/CapSense_Processing.c ****         /* Sensor state changed ? */
1163:Generated_Source\PSoC4/CapSense_Processing.c ****         if (newStatus != (currStatus & snsMask))
 459              		.loc 1 1163 0 discriminator 4
 460 002e A242     		cmp	r2, r4
 461 0030 02D0     		beq	.L33
1164:Generated_Source\PSoC4/CapSense_Processing.c ****         {
1165:Generated_Source\PSoC4/CapSense_Processing.c ****             /* Decrement de-bounce counter */
1166:Generated_Source\PSoC4/CapSense_Processing.c ****             (*ptrDebounceCnt)--;
 462              		.loc 1 1166 0
 463 0032 1E78     		ldrb	r6, [r3]
 464 0034 013E     		sub	r6, r6, #1
 465 0036 1E70     		strb	r6, [r3]
 466              	.L33:
1167:Generated_Source\PSoC4/CapSense_Processing.c ****         }
1168:Generated_Source\PSoC4/CapSense_Processing.c **** 
1169:Generated_Source\PSoC4/CapSense_Processing.c ****         /* This piece of code has two objectives:
1170:Generated_Source\PSoC4/CapSense_Processing.c ****            1. Reset de-bounce counter if the sensor state did not change.
1171:Generated_Source\PSoC4/CapSense_Processing.c ****               (It is possible that during previous processing cycles sensor
1172:Generated_Source\PSoC4/CapSense_Processing.c ****                was active and de-bounce counter was decremented.)
1173:Generated_Source\PSoC4/CapSense_Processing.c ****            2. Set new sensor state after successful de-bounce.
1174:Generated_Source\PSoC4/CapSense_Processing.c ****          */
1175:Generated_Source\PSoC4/CapSense_Processing.c ****         if ((newStatus == (currStatus & snsMask)) || (0u == (*ptrDebounceCnt)))
 467              		.loc 1 1175 0
 468 0038 A242     		cmp	r2, r4
 469 003a 02D0     		beq	.L34
 470              		.loc 1 1175 0 is_stmt 0 discriminator 1
 471 003c 1C78     		ldrb	r4, [r3]
 472 003e 002C     		cmp	r4, #0
 473 0040 07D1     		bne	.L35
 474              	.L34:
1176:Generated_Source\PSoC4/CapSense_Processing.c ****         {
1177:Generated_Source\PSoC4/CapSense_Processing.c ****             /* Set new sensor status */
1178:Generated_Source\PSoC4/CapSense_Processing.c ****             currStatus &= ~snsMask;
 475              		.loc 1 1178 0 is_stmt 1
 476 0042 8843     		bic	r0, r1
 477              	.LVL75:
1179:Generated_Source\PSoC4/CapSense_Processing.c ****             currStatus |= newStatus;
 478              		.loc 1 1179 0
 479 0044 1043     		orr	r0, r2
 480              	.LVL76:
1180:Generated_Source\PSoC4/CapSense_Processing.c **** 
1181:Generated_Source\PSoC4/CapSense_Processing.c ****             /* Reset de-bounce counter */
1182:Generated_Source\PSoC4/CapSense_Processing.c ****             #if (0u != CapSense_OFF_DEBOUNCE_EN)
1183:Generated_Source\PSoC4/CapSense_Processing.c ****                 *ptrDebounceCnt = (0Lu == newStatus) ? ptrRamWdgt->onDebounce : ptrRamWdgt->offDebo
1184:Generated_Source\PSoC4/CapSense_Processing.c ****             #else
1185:Generated_Source\PSoC4/CapSense_Processing.c ****                 *ptrDebounceCnt = (0Lu == newStatus) ? ptrRamWdgt->onDebounce : DEFAULT_OFF_DEBOUNC
 481              		.loc 1 1185 0
 482 0046 002A     		cmp	r2, #0
 483 0048 01D1     		bne	.L39
 484              		.loc 1 1185 0 is_stmt 0 discriminator 1
 485 004a FA79     		ldrb	r2, [r7, #7]
ARM GAS  C:\Users\TB1014~1\AppData\Local\Temp\ccTzyt2s.s 			page 31


 486              	.LVL77:
 487 004c 00E0     		b	.L36
 488              	.LVL78:
 489              	.L39:
 490              		.loc 1 1185 0
 491 004e 0122     		mov	r2, #1
 492              	.LVL79:
 493              	.L36:
 494              		.loc 1 1185 0 discriminator 4
 495 0050 1A70     		strb	r2, [r3]
 496              	.L35:
1186:Generated_Source\PSoC4/CapSense_Processing.c ****             #endif /* #if (0u != CapSense_OFF_DEBOUNCE_EN) */
1187:Generated_Source\PSoC4/CapSense_Processing.c ****         }
1188:Generated_Source\PSoC4/CapSense_Processing.c ****         
1189:Generated_Source\PSoC4/CapSense_Processing.c ****         /* Move mask to the next sensor */
1190:Generated_Source\PSoC4/CapSense_Processing.c ****         snsMask <<= 1u;
 497              		.loc 1 1190 0 is_stmt 1
 498 0052 4900     		lsl	r1, r1, #1
 499              	.LVL80:
1191:Generated_Source\PSoC4/CapSense_Processing.c ****         
1192:Generated_Source\PSoC4/CapSense_Processing.c ****         ptrSns++;
 500              		.loc 1 1192 0
 501 0054 0A35     		add	r5, r5, #10
 502              	.LVL81:
1193:Generated_Source\PSoC4/CapSense_Processing.c ****         ptrDebounceCnt++;
 503              		.loc 1 1193 0
 504 0056 0133     		add	r3, r3, #1
 505              	.LVL82:
1151:Generated_Source\PSoC4/CapSense_Processing.c ****     {
 506              		.loc 1 1151 0
 507 0058 6246     		mov	r2, ip
 508              	.LVL83:
 509              	.L29:
 510 005a 541E     		sub	r4, r2, #1
 511 005c A446     		mov	ip, r4
 512              	.LVL84:
 513 005e 002A     		cmp	r2, #0
 514 0060 D5D1     		bne	.L37
1194:Generated_Source\PSoC4/CapSense_Processing.c ****     }
1195:Generated_Source\PSoC4/CapSense_Processing.c **** 
1196:Generated_Source\PSoC4/CapSense_Processing.c ****     return currStatus;
1197:Generated_Source\PSoC4/CapSense_Processing.c **** }
 515              		.loc 1 1197 0
 516              		@ sp needed
 517              	.LVL85:
 518              	.LVL86:
 519              	.LVL87:
 520 0062 F0BD     		pop	{r4, r5, r6, r7, pc}
 521              		.cfi_endproc
 522              	.LFE7:
 523              		.size	CapSense_DpProcessButton, .-CapSense_DpProcessButton
 524              		.section	.text.CapSense_DpProcessSlider,"ax",%progbits
 525              		.align	2
 526              		.global	CapSense_DpProcessSlider
 527              		.code	16
 528              		.thumb_func
 529              		.type	CapSense_DpProcessSlider, %function
ARM GAS  C:\Users\TB1014~1\AppData\Local\Temp\ccTzyt2s.s 			page 32


 530              	CapSense_DpProcessSlider:
 531              	.LFB8:
1198:Generated_Source\PSoC4/CapSense_Processing.c **** #endif /* #if ((0u != CapSense_BUTTON_WIDGET_EN) || (0u != CapSense_CSX_MATRIX_WIDGET_EN)) */
1199:Generated_Source\PSoC4/CapSense_Processing.c **** 
1200:Generated_Source\PSoC4/CapSense_Processing.c **** 
1201:Generated_Source\PSoC4/CapSense_Processing.c **** #if (0u != CapSense_PROXIMITY_WIDGET_EN)
1202:Generated_Source\PSoC4/CapSense_Processing.c **** /*******************************************************************************
1203:Generated_Source\PSoC4/CapSense_Processing.c **** * Function Name: CapSense_DpProcessProximity
1204:Generated_Source\PSoC4/CapSense_Processing.c **** ****************************************************************************//**
1205:Generated_Source\PSoC4/CapSense_Processing.c **** *
1206:Generated_Source\PSoC4/CapSense_Processing.c **** * \brief
1207:Generated_Source\PSoC4/CapSense_Processing.c **** *   Processes the status of the Proximity widget.
1208:Generated_Source\PSoC4/CapSense_Processing.c **** *
1209:Generated_Source\PSoC4/CapSense_Processing.c **** * \details
1210:Generated_Source\PSoC4/CapSense_Processing.c **** *   This API processes the status of the CSD Proximity widget. It applies the
1211:Generated_Source\PSoC4/CapSense_Processing.c **** *   hysteresis and debounce algorithm to each sensor difference value.
1212:Generated_Source\PSoC4/CapSense_Processing.c **** *   The proximity and touch events are considered independently so debounce and
1213:Generated_Source\PSoC4/CapSense_Processing.c **** *   hysteresis are also applied independently.
1214:Generated_Source\PSoC4/CapSense_Processing.c **** *
1215:Generated_Source\PSoC4/CapSense_Processing.c **** *   This API is expected to be called after each new widget scan. If it is
1216:Generated_Source\PSoC4/CapSense_Processing.c **** *   called multiple times for the same scan data the debounce algorithm
1217:Generated_Source\PSoC4/CapSense_Processing.c **** *   will not work properly.
1218:Generated_Source\PSoC4/CapSense_Processing.c **** *
1219:Generated_Source\PSoC4/CapSense_Processing.c **** *   This API does not update any Data Structure registers
1220:Generated_Source\PSoC4/CapSense_Processing.c **** *   except the debounce counters.
1221:Generated_Source\PSoC4/CapSense_Processing.c **** *
1222:Generated_Source\PSoC4/CapSense_Processing.c **** * \param currStatus   The value with the current widget status.
1223:Generated_Source\PSoC4/CapSense_Processing.c **** * \param ptrFlashWdgt The pointer to the Flash Widget Object.
1224:Generated_Source\PSoC4/CapSense_Processing.c **** *
1225:Generated_Source\PSoC4/CapSense_Processing.c **** * \return
1226:Generated_Source\PSoC4/CapSense_Processing.c **** *  Returns the status of the proximity sensors. Each sensor is represented by two bits
1227:Generated_Source\PSoC4/CapSense_Processing.c **** *  that can take the following values:
1228:Generated_Source\PSoC4/CapSense_Processing.c **** *   - 00b not active
1229:Generated_Source\PSoC4/CapSense_Processing.c **** *   - 01b proximity is detected (signal is above finger threshold)
1230:Generated_Source\PSoC4/CapSense_Processing.c **** *   - 11b finger touch is detected (signal is above the touch threshold)
1231:Generated_Source\PSoC4/CapSense_Processing.c **** *
1232:Generated_Source\PSoC4/CapSense_Processing.c **** *******************************************************************************/
1233:Generated_Source\PSoC4/CapSense_Processing.c **** uint32 CapSense_DpProcessProximity(uint32 currStatus, CapSense_FLASH_WD_STRUCT const *ptrFlashWdgt)
1234:Generated_Source\PSoC4/CapSense_Processing.c **** {
1235:Generated_Source\PSoC4/CapSense_Processing.c ****     uint32 currTh;
1236:Generated_Source\PSoC4/CapSense_Processing.c ****     uint32 snsCnt;
1237:Generated_Source\PSoC4/CapSense_Processing.c ****     uint32 snsMask;
1238:Generated_Source\PSoC4/CapSense_Processing.c ****     uint32 newStatus;
1239:Generated_Source\PSoC4/CapSense_Processing.c ****     uint32 difference;
1240:Generated_Source\PSoC4/CapSense_Processing.c **** 
1241:Generated_Source\PSoC4/CapSense_Processing.c ****     uint8 *ptrDebounceCnt;
1242:Generated_Source\PSoC4/CapSense_Processing.c ****     CapSense_RAM_SNS_STRUCT *ptrSns;
1243:Generated_Source\PSoC4/CapSense_Processing.c ****     CapSense_RAM_WD_PROXIMITY_STRUCT *ptrRamWdgt;
1244:Generated_Source\PSoC4/CapSense_Processing.c **** 
1245:Generated_Source\PSoC4/CapSense_Processing.c ****     /* Mask for proximity status bits. (All odd bits.) */
1246:Generated_Source\PSoC4/CapSense_Processing.c ****     const uint32 proxMask = UINT32_ODD_BITS_CONST;
1247:Generated_Source\PSoC4/CapSense_Processing.c **** 
1248:Generated_Source\PSoC4/CapSense_Processing.c ****     ptrSns = ptrFlashWdgt->ptr2SnsRam;
1249:Generated_Source\PSoC4/CapSense_Processing.c ****     ptrRamWdgt = ptrFlashWdgt->ptr2WdgtRam;
1250:Generated_Source\PSoC4/CapSense_Processing.c ****     ptrDebounceCnt = ptrFlashWdgt->ptr2DebounceArr;
1251:Generated_Source\PSoC4/CapSense_Processing.c **** 
1252:Generated_Source\PSoC4/CapSense_Processing.c ****     /* Get number of sensors and multiply it by 2 - proximity and touch statuses per sensor. */
ARM GAS  C:\Users\TB1014~1\AppData\Local\Temp\ccTzyt2s.s 			page 33


1253:Generated_Source\PSoC4/CapSense_Processing.c ****     snsCnt = (uint32)ptrFlashWdgt->totalNumSns << 1u;
1254:Generated_Source\PSoC4/CapSense_Processing.c **** 
1255:Generated_Source\PSoC4/CapSense_Processing.c ****     /* Go through all sensor's status bits */
1256:Generated_Source\PSoC4/CapSense_Processing.c ****     snsMask = 1Lu;
1257:Generated_Source\PSoC4/CapSense_Processing.c ****     for (; snsCnt-- > 0u;)
1258:Generated_Source\PSoC4/CapSense_Processing.c ****     {
1259:Generated_Source\PSoC4/CapSense_Processing.c ****         difference = ptrSns->diff;
1260:Generated_Source\PSoC4/CapSense_Processing.c **** 
1261:Generated_Source\PSoC4/CapSense_Processing.c ****         /* Determine current event (proximity - odd; touch - even) and get appropriate threshold. *
1262:Generated_Source\PSoC4/CapSense_Processing.c ****         currTh = ptrRamWdgt->fingerTh;
1263:Generated_Source\PSoC4/CapSense_Processing.c **** 
1264:Generated_Source\PSoC4/CapSense_Processing.c ****         if (0u == (snsMask & proxMask))
1265:Generated_Source\PSoC4/CapSense_Processing.c ****         {
1266:Generated_Source\PSoC4/CapSense_Processing.c ****             currTh = ptrRamWdgt->proxTouchTh;
1267:Generated_Source\PSoC4/CapSense_Processing.c ****             ptrSns++;
1268:Generated_Source\PSoC4/CapSense_Processing.c ****         }
1269:Generated_Source\PSoC4/CapSense_Processing.c **** 
1270:Generated_Source\PSoC4/CapSense_Processing.c ****         /* Calculate finger threshold applying hysteresis based on current sensor state. */
1271:Generated_Source\PSoC4/CapSense_Processing.c ****         currTh = (0u == (currStatus & snsMask)) ? (currTh + ptrRamWdgt->hysteresis) : (currTh - ptr
1272:Generated_Source\PSoC4/CapSense_Processing.c **** 
1273:Generated_Source\PSoC4/CapSense_Processing.c ****         /* Determine new potential sensor state before de-bounce */
1274:Generated_Source\PSoC4/CapSense_Processing.c ****         newStatus = (difference > currTh) ? snsMask : 0Lu;
1275:Generated_Source\PSoC4/CapSense_Processing.c **** 
1276:Generated_Source\PSoC4/CapSense_Processing.c ****         /* Sensor state changed ? */
1277:Generated_Source\PSoC4/CapSense_Processing.c ****         if (newStatus != (currStatus & snsMask))
1278:Generated_Source\PSoC4/CapSense_Processing.c ****         {
1279:Generated_Source\PSoC4/CapSense_Processing.c ****             /* Decrement de-bounce counter */
1280:Generated_Source\PSoC4/CapSense_Processing.c ****             (*ptrDebounceCnt)--;
1281:Generated_Source\PSoC4/CapSense_Processing.c ****         }
1282:Generated_Source\PSoC4/CapSense_Processing.c **** 
1283:Generated_Source\PSoC4/CapSense_Processing.c ****         /* This piece of code has two objectives:
1284:Generated_Source\PSoC4/CapSense_Processing.c ****            1. Reset de-bounce counter if new sensor state has not changed.
1285:Generated_Source\PSoC4/CapSense_Processing.c ****               (It is possible that during previous processing cycles the sensor
1286:Generated_Source\PSoC4/CapSense_Processing.c ****                state was different which caused de-bounce counter change.)
1287:Generated_Source\PSoC4/CapSense_Processing.c ****            2. Set new sensor state after successful de-bounce.
1288:Generated_Source\PSoC4/CapSense_Processing.c ****          */
1289:Generated_Source\PSoC4/CapSense_Processing.c ****         if ((newStatus == (currStatus & snsMask)) || (0u == (*ptrDebounceCnt)))
1290:Generated_Source\PSoC4/CapSense_Processing.c ****         {
1291:Generated_Source\PSoC4/CapSense_Processing.c ****             /* Set new sensor status */
1292:Generated_Source\PSoC4/CapSense_Processing.c ****             currStatus &= ~snsMask;
1293:Generated_Source\PSoC4/CapSense_Processing.c ****             currStatus |= newStatus;
1294:Generated_Source\PSoC4/CapSense_Processing.c **** 
1295:Generated_Source\PSoC4/CapSense_Processing.c ****             /* Reset de-bounce counter */
1296:Generated_Source\PSoC4/CapSense_Processing.c ****             #if (0u != CapSense_OFF_DEBOUNCE_EN)
1297:Generated_Source\PSoC4/CapSense_Processing.c ****                 *ptrDebounceCnt = (0Lu == newStatus) ? ptrRamWdgt->onDebounce : ptrRamWdgt->offDebo
1298:Generated_Source\PSoC4/CapSense_Processing.c ****             #else
1299:Generated_Source\PSoC4/CapSense_Processing.c ****                 *ptrDebounceCnt = (0Lu == newStatus) ? ptrRamWdgt->onDebounce : DEFAULT_OFF_DEBOUNC
1300:Generated_Source\PSoC4/CapSense_Processing.c ****             #endif /* #if (0u != CapSense_OFF_DEBOUNCE_EN) */
1301:Generated_Source\PSoC4/CapSense_Processing.c ****         }
1302:Generated_Source\PSoC4/CapSense_Processing.c **** 
1303:Generated_Source\PSoC4/CapSense_Processing.c ****         ptrDebounceCnt++;
1304:Generated_Source\PSoC4/CapSense_Processing.c ****         
1305:Generated_Source\PSoC4/CapSense_Processing.c ****         /* Move sensor mask to the next sensor */
1306:Generated_Source\PSoC4/CapSense_Processing.c ****         snsMask <<= 1u;
1307:Generated_Source\PSoC4/CapSense_Processing.c ****     }
1308:Generated_Source\PSoC4/CapSense_Processing.c **** 
1309:Generated_Source\PSoC4/CapSense_Processing.c ****     return currStatus;
ARM GAS  C:\Users\TB1014~1\AppData\Local\Temp\ccTzyt2s.s 			page 34


1310:Generated_Source\PSoC4/CapSense_Processing.c **** }
1311:Generated_Source\PSoC4/CapSense_Processing.c **** #endif /* #if (0u != CapSense_PROXIMITY_WIDGET_EN) */
1312:Generated_Source\PSoC4/CapSense_Processing.c **** 
1313:Generated_Source\PSoC4/CapSense_Processing.c **** 
1314:Generated_Source\PSoC4/CapSense_Processing.c **** #if (0u != CapSense_SLIDER_WIDGET_EN)
1315:Generated_Source\PSoC4/CapSense_Processing.c **** /*******************************************************************************
1316:Generated_Source\PSoC4/CapSense_Processing.c **** * Function Name: CapSense_DpProcessSlider
1317:Generated_Source\PSoC4/CapSense_Processing.c **** ****************************************************************************//**
1318:Generated_Source\PSoC4/CapSense_Processing.c **** *
1319:Generated_Source\PSoC4/CapSense_Processing.c **** * \brief
1320:Generated_Source\PSoC4/CapSense_Processing.c **** *   Processes the status of the Linear/Radial Slider widget.
1321:Generated_Source\PSoC4/CapSense_Processing.c **** *   The process involves running the Linear/Radial Centroid algorithm.
1322:Generated_Source\PSoC4/CapSense_Processing.c **** *
1323:Generated_Source\PSoC4/CapSense_Processing.c **** * \details
1324:Generated_Source\PSoC4/CapSense_Processing.c **** *   This API processes the status of the CSD Slider widget (Linear and Radial).
1325:Generated_Source\PSoC4/CapSense_Processing.c **** *   It applies the hysteresis and de-bounce algorithm to the widget ignoring
1326:Generated_Source\PSoC4/CapSense_Processing.c **** *   the individual states of the sensors.
1327:Generated_Source\PSoC4/CapSense_Processing.c **** *
1328:Generated_Source\PSoC4/CapSense_Processing.c **** *   This API is expected to be called after each new widget scan. If it is
1329:Generated_Source\PSoC4/CapSense_Processing.c **** *   called multiple times for the same scan data, the debounce algorithm
1330:Generated_Source\PSoC4/CapSense_Processing.c **** *   will not work properly.
1331:Generated_Source\PSoC4/CapSense_Processing.c **** *
1332:Generated_Source\PSoC4/CapSense_Processing.c **** *   Slider widgets do not support the ON to OFF debounce.
1333:Generated_Source\PSoC4/CapSense_Processing.c **** *
1334:Generated_Source\PSoC4/CapSense_Processing.c **** *   This API does not update any Data Structure registers
1335:Generated_Source\PSoC4/CapSense_Processing.c **** *   except the debounce counters.
1336:Generated_Source\PSoC4/CapSense_Processing.c **** *
1337:Generated_Source\PSoC4/CapSense_Processing.c **** * \param currStatus   The current sensor status of the Slider widget.
1338:Generated_Source\PSoC4/CapSense_Processing.c **** * \param ptrFlashWdgt The pointer to the Flash Widget Object.
1339:Generated_Source\PSoC4/CapSense_Processing.c **** *
1340:Generated_Source\PSoC4/CapSense_Processing.c **** * \return Returns the status of the widget's sensors. Bit #0 - corresponds to Sensor #0.
1341:Generated_Source\PSoC4/CapSense_Processing.c **** *
1342:Generated_Source\PSoC4/CapSense_Processing.c **** *******************************************************************************/
1343:Generated_Source\PSoC4/CapSense_Processing.c **** uint32 CapSense_DpProcessSlider(uint32 currStatus, CapSense_FLASH_WD_STRUCT const *ptrFlashWdgt)
1344:Generated_Source\PSoC4/CapSense_Processing.c **** {
 532              		.loc 1 1344 0
 533              		.cfi_startproc
 534              	.LVL88:
 535 0000 F0B5     		push	{r4, r5, r6, r7, lr}
 536              		.cfi_def_cfa_offset 20
 537              		.cfi_offset 4, -20
 538              		.cfi_offset 5, -16
 539              		.cfi_offset 6, -12
 540              		.cfi_offset 7, -8
 541              		.cfi_offset 14, -4
 542 0002 4746     		mov	r7, r8
 543 0004 80B4     		push	{r7}
 544              		.cfi_def_cfa_offset 24
 545              		.cfi_offset 8, -24
 546 0006 82B0     		sub	sp, sp, #8
 547              		.cfi_def_cfa_offset 32
 548 0008 8446     		mov	ip, r0
 549              	.LVL89:
1345:Generated_Source\PSoC4/CapSense_Processing.c ****     uint32 snsCnt;
1346:Generated_Source\PSoC4/CapSense_Processing.c ****     uint32 snsMask;
1347:Generated_Source\PSoC4/CapSense_Processing.c ****     uint32 touchTh;
1348:Generated_Source\PSoC4/CapSense_Processing.c ****     uint32 newStatus = 0Lu;
ARM GAS  C:\Users\TB1014~1\AppData\Local\Temp\ccTzyt2s.s 			page 35


1349:Generated_Source\PSoC4/CapSense_Processing.c ****     uint8 * ptrDebounceCnt;
1350:Generated_Source\PSoC4/CapSense_Processing.c ****     CapSense_RAM_SNS_STRUCT *ptrSns;
1351:Generated_Source\PSoC4/CapSense_Processing.c ****     CapSense_RAM_WD_SLIDER_STRUCT *ptrRamWdgt;
1352:Generated_Source\PSoC4/CapSense_Processing.c **** 
1353:Generated_Source\PSoC4/CapSense_Processing.c ****     #if (0u != CapSense_POS_MEDIAN_FILTER_EN)
1354:Generated_Source\PSoC4/CapSense_Processing.c ****         CapSense_SLIDER_POS_HISTORY_STRUCT *ptrHistory;
1355:Generated_Source\PSoC4/CapSense_Processing.c ****     #endif /* #if (0u != CapSense_POS_MEDIAN_FILTER_EN) */
1356:Generated_Source\PSoC4/CapSense_Processing.c **** 
1357:Generated_Source\PSoC4/CapSense_Processing.c ****     uint32 touchIdx;
1358:Generated_Source\PSoC4/CapSense_Processing.c ****     uint32 touchCnt = 0Lu;
1359:Generated_Source\PSoC4/CapSense_Processing.c ****     uint16 newPos[CapSense_NUM_CENTROIDS];
1360:Generated_Source\PSoC4/CapSense_Processing.c **** 
1361:Generated_Source\PSoC4/CapSense_Processing.c ****     snsCnt = ptrFlashWdgt->totalNumSns;
 550              		.loc 1 1361 0
 551 000a CB8A     		ldrh	r3, [r1, #22]
 552              	.LVL90:
1362:Generated_Source\PSoC4/CapSense_Processing.c ****     ptrSns = ptrFlashWdgt->ptr2SnsRam;
 553              		.loc 1 1362 0
 554 000c 8A68     		ldr	r2, [r1, #8]
 555              	.LVL91:
1363:Generated_Source\PSoC4/CapSense_Processing.c ****     ptrRamWdgt = ptrFlashWdgt->ptr2WdgtRam;
 556              		.loc 1 1363 0
 557 000e 4D68     		ldr	r5, [r1, #4]
 558              	.LVL92:
1364:Generated_Source\PSoC4/CapSense_Processing.c ****     ptrDebounceCnt = ptrFlashWdgt->ptr2DebounceArr;
 559              		.loc 1 1364 0
 560 0010 0869     		ldr	r0, [r1, #16]
 561              	.LVL93:
 562 0012 8046     		mov	r8, r0
 563              	.LVL94:
1365:Generated_Source\PSoC4/CapSense_Processing.c ****     
1366:Generated_Source\PSoC4/CapSense_Processing.c ****     #if (0u != CapSense_POS_MEDIAN_FILTER_EN)
1367:Generated_Source\PSoC4/CapSense_Processing.c ****         ptrHistory = ptrFlashWdgt->ptr2PosHistory;
1368:Generated_Source\PSoC4/CapSense_Processing.c ****     #endif /* #if (0u != CapSense_POS_MEDIAN_FILTER_EN) */
1369:Generated_Source\PSoC4/CapSense_Processing.c **** 
1370:Generated_Source\PSoC4/CapSense_Processing.c ****     /* Calculate touch threshold based on current slider state */
1371:Generated_Source\PSoC4/CapSense_Processing.c ****     touchTh = (0Lu == currStatus ) ?
1372:Generated_Source\PSoC4/CapSense_Processing.c ****               ((uint32)ptrRamWdgt->fingerTh + ptrRamWdgt->hysteresis) :
 564              		.loc 1 1372 0
 565 0014 6046     		mov	r0, ip
 566              	.LVL95:
 567 0016 0028     		cmp	r0, #0
 568 0018 03D1     		bne	.L41
 569              		.loc 1 1372 0 is_stmt 0 discriminator 1
 570 001a 6C88     		ldrh	r4, [r5, #2]
 571 001c A879     		ldrb	r0, [r5, #6]
 572 001e 2018     		add	r0, r4, r0
 573 0020 02E0     		b	.L42
 574              	.LVL96:
 575              	.L41:
1373:Generated_Source\PSoC4/CapSense_Processing.c ****               ((uint32)ptrRamWdgt->fingerTh - ptrRamWdgt->hysteresis);
 576              		.loc 1 1373 0 is_stmt 1 discriminator 2
 577 0022 6C88     		ldrh	r4, [r5, #2]
 578 0024 A879     		ldrb	r0, [r5, #6]
 579              	.LVL97:
1372:Generated_Source\PSoC4/CapSense_Processing.c ****               ((uint32)ptrRamWdgt->fingerTh - ptrRamWdgt->hysteresis);
 580              		.loc 1 1372 0 discriminator 2
ARM GAS  C:\Users\TB1014~1\AppData\Local\Temp\ccTzyt2s.s 			page 36


 581 0026 201A     		sub	r0, r4, r0
 582              	.L42:
 583              	.LVL98:
1348:Generated_Source\PSoC4/CapSense_Processing.c ****     uint8 * ptrDebounceCnt;
 584              		.loc 1 1348 0
 585 0028 0024     		mov	r4, #0
1374:Generated_Source\PSoC4/CapSense_Processing.c **** 
1375:Generated_Source\PSoC4/CapSense_Processing.c ****     /* Go through all widget's sensors */
1376:Generated_Source\PSoC4/CapSense_Processing.c ****     snsMask = 1Lu;
 586              		.loc 1 1376 0
 587 002a 0126     		mov	r6, #1
1377:Generated_Source\PSoC4/CapSense_Processing.c ****     for (; snsCnt-- > 0Lu; )
 588              		.loc 1 1377 0
 589 002c 09E0     		b	.L43
 590              	.LVL99:
 591              	.L45:
1378:Generated_Source\PSoC4/CapSense_Processing.c ****     {
1379:Generated_Source\PSoC4/CapSense_Processing.c ****         /* Determine new potential sensor state */
1380:Generated_Source\PSoC4/CapSense_Processing.c ****         newStatus |= (ptrSns->diff > touchTh) ? snsMask : 0Lu;
 592              		.loc 1 1380 0
 593 002e D388     		ldrh	r3, [r2, #6]
 594 0030 9842     		cmp	r0, r3
 595 0032 01D3     		bcc	.L54
 596 0034 0023     		mov	r3, #0
 597 0036 00E0     		b	.L44
 598              	.L54:
 599 0038 331C     		mov	r3, r6
 600              	.L44:
 601              		.loc 1 1380 0 is_stmt 0 discriminator 4
 602 003a 1C43     		orr	r4, r3
 603              	.LVL100:
1381:Generated_Source\PSoC4/CapSense_Processing.c ****         ptrSns++;
 604              		.loc 1 1381 0 is_stmt 1 discriminator 4
 605 003c 0A32     		add	r2, r2, #10
 606              	.LVL101:
1382:Generated_Source\PSoC4/CapSense_Processing.c **** 
1383:Generated_Source\PSoC4/CapSense_Processing.c ****         snsMask <<= 1u;
 607              		.loc 1 1383 0 discriminator 4
 608 003e 7600     		lsl	r6, r6, #1
 609              	.LVL102:
1377:Generated_Source\PSoC4/CapSense_Processing.c ****     {
 610              		.loc 1 1377 0 discriminator 4
 611 0040 3B1C     		mov	r3, r7
 612              	.LVL103:
 613              	.L43:
1377:Generated_Source\PSoC4/CapSense_Processing.c ****     {
 614              		.loc 1 1377 0 is_stmt 0
 615 0042 5F1E     		sub	r7, r3, #1
 616              	.LVL104:
 617 0044 002B     		cmp	r3, #0
 618 0046 F2D1     		bne	.L45
1384:Generated_Source\PSoC4/CapSense_Processing.c ****     }
1385:Generated_Source\PSoC4/CapSense_Processing.c **** 
1386:Generated_Source\PSoC4/CapSense_Processing.c ****     /* If widget is active, check whether debounce is needed */
1387:Generated_Source\PSoC4/CapSense_Processing.c ****     if (0Lu != newStatus)
 619              		.loc 1 1387 0 is_stmt 1
 620 0048 002C     		cmp	r4, #0
ARM GAS  C:\Users\TB1014~1\AppData\Local\Temp\ccTzyt2s.s 			page 37


 621 004a 0BD0     		beq	.L46
1388:Generated_Source\PSoC4/CapSense_Processing.c ****     {
1389:Generated_Source\PSoC4/CapSense_Processing.c ****         if (0u < (*ptrDebounceCnt))
 622              		.loc 1 1389 0
 623 004c 4346     		mov	r3, r8
 624 004e 1B78     		ldrb	r3, [r3]
 625 0050 002B     		cmp	r3, #0
 626 0052 02D0     		beq	.L47
1390:Generated_Source\PSoC4/CapSense_Processing.c ****         {
1391:Generated_Source\PSoC4/CapSense_Processing.c ****             /* Decrement debounce counter */
1392:Generated_Source\PSoC4/CapSense_Processing.c ****             (*ptrDebounceCnt)--;
 627              		.loc 1 1392 0
 628 0054 013B     		sub	r3, r3, #1
 629 0056 4246     		mov	r2, r8
 630              	.LVL105:
 631 0058 1370     		strb	r3, [r2]
 632              	.L47:
1393:Generated_Source\PSoC4/CapSense_Processing.c ****         }
1394:Generated_Source\PSoC4/CapSense_Processing.c **** 
1395:Generated_Source\PSoC4/CapSense_Processing.c ****         if (0u == (*ptrDebounceCnt))
 633              		.loc 1 1395 0
 634 005a 4346     		mov	r3, r8
 635 005c 1B78     		ldrb	r3, [r3]
 636 005e 002B     		cmp	r3, #0
 637 0060 04D1     		bne	.L55
 638 0062 04E0     		b	.L48
 639              	.LVL106:
 640              	.L46:
1396:Generated_Source\PSoC4/CapSense_Processing.c ****         {
1397:Generated_Source\PSoC4/CapSense_Processing.c ****             /* Update slider sensor state when debounce completes */
1398:Generated_Source\PSoC4/CapSense_Processing.c ****             currStatus = newStatus;
1399:Generated_Source\PSoC4/CapSense_Processing.c ****         }
1400:Generated_Source\PSoC4/CapSense_Processing.c ****     }
1401:Generated_Source\PSoC4/CapSense_Processing.c ****     else
1402:Generated_Source\PSoC4/CapSense_Processing.c ****     {
1403:Generated_Source\PSoC4/CapSense_Processing.c ****         /* Reset debounce counter */
1404:Generated_Source\PSoC4/CapSense_Processing.c ****         *ptrDebounceCnt = ptrRamWdgt->onDebounce;
 641              		.loc 1 1404 0
 642 0064 EB79     		ldrb	r3, [r5, #7]
 643 0066 4246     		mov	r2, r8
 644              	.LVL107:
 645 0068 1370     		strb	r3, [r2]
 646              	.LVL108:
 647 006a 00E0     		b	.L48
 648              	.LVL109:
 649              	.L55:
 650 006c 6446     		mov	r4, ip
 651              	.LVL110:
 652              	.L48:
1405:Generated_Source\PSoC4/CapSense_Processing.c **** 
1406:Generated_Source\PSoC4/CapSense_Processing.c ****         /* Clear slider sensor state */
1407:Generated_Source\PSoC4/CapSense_Processing.c ****         currStatus = 0Lu;
1408:Generated_Source\PSoC4/CapSense_Processing.c ****     }
1409:Generated_Source\PSoC4/CapSense_Processing.c **** 
1410:Generated_Source\PSoC4/CapSense_Processing.c ****     /* Centroid processing */
1411:Generated_Source\PSoC4/CapSense_Processing.c **** 
1412:Generated_Source\PSoC4/CapSense_Processing.c ****     /* If there are active sensors after debounce run the centroid algorithm */
ARM GAS  C:\Users\TB1014~1\AppData\Local\Temp\ccTzyt2s.s 			page 38


1413:Generated_Source\PSoC4/CapSense_Processing.c ****     if (0u != currStatus)
 653              		.loc 1 1413 0
 654 006e 002C     		cmp	r4, #0
 655 0070 23D0     		beq	.L56
 656 0072 0E1C     		mov	r6, r1
 657              	.LVL111:
1414:Generated_Source\PSoC4/CapSense_Processing.c ****     {
1415:Generated_Source\PSoC4/CapSense_Processing.c ****         /* Centroid always uses the lowest finger threshold (minus hysteresis)
1416:Generated_Source\PSoC4/CapSense_Processing.c ****          * to produce same results for first and all consecutive invocations */
1417:Generated_Source\PSoC4/CapSense_Processing.c ****         touchTh = (uint32)ptrRamWdgt->fingerTh - ptrRamWdgt->hysteresis;
 658              		.loc 1 1417 0
 659 0074 6B88     		ldrh	r3, [r5, #2]
 660 0076 AA79     		ldrb	r2, [r5, #6]
 661 0078 9A1A     		sub	r2, r3, r2
 662              	.LVL112:
1418:Generated_Source\PSoC4/CapSense_Processing.c ****         snsCnt = ptrFlashWdgt->totalNumSns;
 663              		.loc 1 1418 0
 664 007a CF8A     		ldrh	r7, [r1, #22]
 665              	.LVL113:
1419:Generated_Source\PSoC4/CapSense_Processing.c **** 
1420:Generated_Source\PSoC4/CapSense_Processing.c ****         #if (0u != CapSense_TOTAL_DIPLEXED_SLIDERS)
1421:Generated_Source\PSoC4/CapSense_Processing.c ****             if ((0u != (ptrFlashWdgt->staticConfig & CapSense_DIPLEXING_MASK)))
1422:Generated_Source\PSoC4/CapSense_Processing.c ****             {
1423:Generated_Source\PSoC4/CapSense_Processing.c ****                 /* Run local maximum search for duplexed slider */
1424:Generated_Source\PSoC4/CapSense_Processing.c ****                 touchCnt = CapSense_DpFindLocalMaxDiplex(
1425:Generated_Source\PSoC4/CapSense_Processing.c ****                                 ptrFlashWdgt->ptr2SnsRam, snsCnt, ptrFlashWdgt->ptr2DiplexTable, to
1426:Generated_Source\PSoC4/CapSense_Processing.c **** 
1427:Generated_Source\PSoC4/CapSense_Processing.c ****                 /* Centroid calculation API requires double sensor count for the diplexed sliders. 
1428:Generated_Source\PSoC4/CapSense_Processing.c ****                 snsCnt *= 2u;
1429:Generated_Source\PSoC4/CapSense_Processing.c ****             }
1430:Generated_Source\PSoC4/CapSense_Processing.c ****             else
1431:Generated_Source\PSoC4/CapSense_Processing.c ****             {
1432:Generated_Source\PSoC4/CapSense_Processing.c ****                 /* Run local maximum search for NON-duplexed slider */
1433:Generated_Source\PSoC4/CapSense_Processing.c ****                 touchCnt = CapSense_DpFindLocalMaxSd(ptrFlashWdgt->ptr2SnsRam, snsCnt, touchTh);
1434:Generated_Source\PSoC4/CapSense_Processing.c ****             }
1435:Generated_Source\PSoC4/CapSense_Processing.c ****         #else
1436:Generated_Source\PSoC4/CapSense_Processing.c ****             /* Run local maximum search for NON-duplexed slider */
1437:Generated_Source\PSoC4/CapSense_Processing.c ****             touchCnt = CapSense_DpFindLocalMaxSd(ptrFlashWdgt->ptr2SnsRam, snsCnt, touchTh);
 666              		.loc 1 1437 0
 667 007c 8868     		ldr	r0, [r1, #8]
 668 007e 391C     		mov	r1, r7
 669              	.LVL114:
 670 0080 FFF7FEFF 		bl	CapSense_DpFindLocalMaxSd
 671              	.LVL115:
1438:Generated_Source\PSoC4/CapSense_Processing.c ****         #endif /* #if (0u != CapSense_TOTAL_DIPLEXED_SLIDERS) */
1439:Generated_Source\PSoC4/CapSense_Processing.c ****         
1440:Generated_Source\PSoC4/CapSense_Processing.c ****         /* If at least one touch is detected */
1441:Generated_Source\PSoC4/CapSense_Processing.c ****         if (0u != touchCnt)
 672              		.loc 1 1441 0
 673 0084 0028     		cmp	r0, #0
 674 0086 22D0     		beq	.L52
1442:Generated_Source\PSoC4/CapSense_Processing.c ****         {
1443:Generated_Source\PSoC4/CapSense_Processing.c ****             /* Determine slider type and calculate new position(s) */
1444:Generated_Source\PSoC4/CapSense_Processing.c ****             #if (0u != CapSense_TOTAL_LINEAR_SLIDERS)
1445:Generated_Source\PSoC4/CapSense_Processing.c ****                 if ((CapSense_WD_TYPE_ENUM)ptrFlashWdgt->wdgtType == CapSense_WD_LINEAR_SLIDER_E)
 675              		.loc 1 1445 0
 676 0088 337E     		ldrb	r3, [r6, #24]
ARM GAS  C:\Users\TB1014~1\AppData\Local\Temp\ccTzyt2s.s 			page 39


 677 008a 022B     		cmp	r3, #2
 678 008c 1FD1     		bne	.L52
1446:Generated_Source\PSoC4/CapSense_Processing.c ****                 {
1447:Generated_Source\PSoC4/CapSense_Processing.c ****                     touchCnt = CapSense_DpCalcLinearCentroid(
 679              		.loc 1 1447 0
 680 008e F169     		ldr	r1, [r6, #28]
 681 0090 01A8     		add	r0, sp, #4
 682              	.LVL116:
 683 0092 3A1C     		mov	r2, r7
 684 0094 FFF7FEFF 		bl	CapSense_DpCalcLinearCentroid
 685              	.LVL117:
 686              	.LBB8:
 687              	.LBB9:
1448:Generated_Source\PSoC4/CapSense_Processing.c ****                                     newPos, (uint32)ptrFlashWdgt->xCentroidMultiplier, snsCnt);
1449:Generated_Source\PSoC4/CapSense_Processing.c **** 
1450:Generated_Source\PSoC4/CapSense_Processing.c ****                     DpUpdateLinSlider(newPos, touchCnt, ptrFlashWdgt, ptrRamWdgt);
1451:Generated_Source\PSoC4/CapSense_Processing.c ****                 }
1452:Generated_Source\PSoC4/CapSense_Processing.c ****             #endif /* #if (0u != CapSense_TOTAL_LINEAR_SLIDERS) */
1453:Generated_Source\PSoC4/CapSense_Processing.c **** 
1454:Generated_Source\PSoC4/CapSense_Processing.c ****             #if (0u != CapSense_TOTAL_RADIAL_SLIDERS)
1455:Generated_Source\PSoC4/CapSense_Processing.c ****                 if ((CapSense_WD_TYPE_ENUM)ptrFlashWdgt->wdgtType == CapSense_WD_RADIAL_SLIDER_E)
1456:Generated_Source\PSoC4/CapSense_Processing.c ****                 {
1457:Generated_Source\PSoC4/CapSense_Processing.c ****                     touchCnt = CapSense_DpCalcRadialCentroid(
1458:Generated_Source\PSoC4/CapSense_Processing.c ****                                     newPos, (uint32)ptrFlashWdgt->xCentroidMultiplier, snsCnt);
1459:Generated_Source\PSoC4/CapSense_Processing.c **** 
1460:Generated_Source\PSoC4/CapSense_Processing.c ****                     DpUpdateRadSlider(newPos, touchCnt, ptrFlashWdgt, ptrRamWdgt);
1461:Generated_Source\PSoC4/CapSense_Processing.c ****                 }
1462:Generated_Source\PSoC4/CapSense_Processing.c ****             #endif /* #if (0u != CapSense_TOTAL_RADIAL_SLIDERS) */
1463:Generated_Source\PSoC4/CapSense_Processing.c ****         }
1464:Generated_Source\PSoC4/CapSense_Processing.c ****     }
1465:Generated_Source\PSoC4/CapSense_Processing.c ****     
1466:Generated_Source\PSoC4/CapSense_Processing.c ****     /* Clear not active position data slots */
1467:Generated_Source\PSoC4/CapSense_Processing.c ****     for (touchIdx = touchCnt; touchIdx < CapSense_NUM_CENTROIDS; touchIdx++)
1468:Generated_Source\PSoC4/CapSense_Processing.c ****     {
1469:Generated_Source\PSoC4/CapSense_Processing.c ****         ptrRamWdgt->position[touchIdx] = CapSense_SLIDER_POS_NONE;
1470:Generated_Source\PSoC4/CapSense_Processing.c **** 
1471:Generated_Source\PSoC4/CapSense_Processing.c ****         #if (0u != CapSense_POS_MEDIAN_FILTER_EN)
1472:Generated_Source\PSoC4/CapSense_Processing.c ****             if (NULL != ptrHistory)
1473:Generated_Source\PSoC4/CapSense_Processing.c ****             {
1474:Generated_Source\PSoC4/CapSense_Processing.c ****                 ptrHistory[touchIdx].posMedianZ1 = CapSense_SLIDER_POS_NONE;
1475:Generated_Source\PSoC4/CapSense_Processing.c ****                 ptrHistory[touchIdx].posMedianZ2 = CapSense_SLIDER_POS_NONE;
1476:Generated_Source\PSoC4/CapSense_Processing.c ****             }
1477:Generated_Source\PSoC4/CapSense_Processing.c ****         #endif /* #if (0u != CapSense_POS_MEDIAN_FILTER_EN) */
1478:Generated_Source\PSoC4/CapSense_Processing.c ****     }
1479:Generated_Source\PSoC4/CapSense_Processing.c **** 
1480:Generated_Source\PSoC4/CapSense_Processing.c ****     return currStatus;
1481:Generated_Source\PSoC4/CapSense_Processing.c **** }
1482:Generated_Source\PSoC4/CapSense_Processing.c **** #endif /* #if (0u != CapSense_SLIDER_WIDGET_EN) */
1483:Generated_Source\PSoC4/CapSense_Processing.c **** 
1484:Generated_Source\PSoC4/CapSense_Processing.c **** #if (0u != CapSense_TOTAL_LINEAR_SLIDERS)
1485:Generated_Source\PSoC4/CapSense_Processing.c **** /*******************************************************************************
1486:Generated_Source\PSoC4/CapSense_Processing.c **** * Function Name: DpUpdateLinSlider
1487:Generated_Source\PSoC4/CapSense_Processing.c **** ****************************************************************************//**
1488:Generated_Source\PSoC4/CapSense_Processing.c **** *
1489:Generated_Source\PSoC4/CapSense_Processing.c **** * \brief
1490:Generated_Source\PSoC4/CapSense_Processing.c **** *   Updates the touch status of the Linear Slider widget.
1491:Generated_Source\PSoC4/CapSense_Processing.c **** *
ARM GAS  C:\Users\TB1014~1\AppData\Local\Temp\ccTzyt2s.s 			page 40


1492:Generated_Source\PSoC4/CapSense_Processing.c **** * \details
1493:Generated_Source\PSoC4/CapSense_Processing.c **** *   This function updates the position data of the Linear Slider
1494:Generated_Source\PSoC4/CapSense_Processing.c **** *   in the Data Structure. Also, this function runs position filters for the
1495:Generated_Source\PSoC4/CapSense_Processing.c **** *   position data if any enabled.
1496:Generated_Source\PSoC4/CapSense_Processing.c **** *
1497:Generated_Source\PSoC4/CapSense_Processing.c **** * \param newPos       The pointer to the array with the new finger position coordinates.
1498:Generated_Source\PSoC4/CapSense_Processing.c **** * \param numTouches   The number of the coordinates in the newPos array.
1499:Generated_Source\PSoC4/CapSense_Processing.c **** * \param ptrFlashWdgt The pointer to the Flash Widget Object.
1500:Generated_Source\PSoC4/CapSense_Processing.c **** * \param ptrRamWdgt   The pointer to the RAM Widget Object.
1501:Generated_Source\PSoC4/CapSense_Processing.c **** *
1502:Generated_Source\PSoC4/CapSense_Processing.c **** *******************************************************************************/
1503:Generated_Source\PSoC4/CapSense_Processing.c **** static CY_INLINE void DpUpdateLinSlider(
1504:Generated_Source\PSoC4/CapSense_Processing.c ****                         const uint16 newPos[],
1505:Generated_Source\PSoC4/CapSense_Processing.c ****                         uint32 numTouches,
1506:Generated_Source\PSoC4/CapSense_Processing.c ****                         CapSense_FLASH_WD_STRUCT const *ptrFlashWdgt,
1507:Generated_Source\PSoC4/CapSense_Processing.c ****                         CapSense_RAM_WD_SLIDER_STRUCT *ptrRamWdgt)
1508:Generated_Source\PSoC4/CapSense_Processing.c **** {
1509:Generated_Source\PSoC4/CapSense_Processing.c ****     uint32 touchIdx;
1510:Generated_Source\PSoC4/CapSense_Processing.c **** 
1511:Generated_Source\PSoC4/CapSense_Processing.c ****     #if (0u == DP_LINEAR_SLIDER_FILTER_EN)
1512:Generated_Source\PSoC4/CapSense_Processing.c ****         /* This parameter is unused in such configurations */
1513:Generated_Source\PSoC4/CapSense_Processing.c ****         (void)ptrFlashWdgt;
1514:Generated_Source\PSoC4/CapSense_Processing.c ****     #else
1515:Generated_Source\PSoC4/CapSense_Processing.c ****         /* Get bitmask with the enabled filters */
1516:Generated_Source\PSoC4/CapSense_Processing.c ****         uint32 filterConfig = (uint32)ptrFlashWdgt->staticConfig;
1517:Generated_Source\PSoC4/CapSense_Processing.c ****         
1518:Generated_Source\PSoC4/CapSense_Processing.c ****         #if (0u != CapSense_POS_MEDIAN_FILTER_EN)
1519:Generated_Source\PSoC4/CapSense_Processing.c ****             /* Get median filter history */
1520:Generated_Source\PSoC4/CapSense_Processing.c ****             CapSense_SLIDER_POS_HISTORY_STRUCT *ptrHistory = ptrFlashWdgt->ptr2PosHistory;
1521:Generated_Source\PSoC4/CapSense_Processing.c ****         #endif /* #if (0u != CapSense_POS_MEDIAN_FILTER_EN) */
1522:Generated_Source\PSoC4/CapSense_Processing.c ****     #endif /* #if (0u == DP_LINEAR_SLIDER_FILTER_EN) */
1523:Generated_Source\PSoC4/CapSense_Processing.c ****     
1524:Generated_Source\PSoC4/CapSense_Processing.c ****     /* Run Filter and update the position registers with the filtered data */
1525:Generated_Source\PSoC4/CapSense_Processing.c ****     for (touchIdx = 0u; touchIdx < numTouches; touchIdx++)
 688              		.loc 1 1525 0
 689 0098 0022     		mov	r2, #0
 690 009a 0BE0     		b	.L50
 691              	.LVL118:
 692              	.L51:
1526:Generated_Source\PSoC4/CapSense_Processing.c ****     {
1527:Generated_Source\PSoC4/CapSense_Processing.c ****         #if (0u == DP_LINEAR_SLIDER_FILTER_EN)
1528:Generated_Source\PSoC4/CapSense_Processing.c ****             /* If filters are not enabled just copy the position data */
1529:Generated_Source\PSoC4/CapSense_Processing.c ****             ptrRamWdgt->position[touchIdx] = newPos[touchIdx];
 693              		.loc 1 1529 0
 694 009c 5300     		lsl	r3, r2, #1
 695 009e 02A9     		add	r1, sp, #8
 696 00a0 8C46     		mov	ip, r1
 697 00a2 6344     		add	r3, r3, ip
 698 00a4 043B     		sub	r3, r3, #4
 699 00a6 1988     		ldrh	r1, [r3]
 700 00a8 131C     		mov	r3, r2
 701 00aa 0833     		add	r3, r3, #8
 702 00ac 5B00     		lsl	r3, r3, #1
 703 00ae EB18     		add	r3, r5, r3
 704 00b0 5980     		strh	r1, [r3, #2]
1525:Generated_Source\PSoC4/CapSense_Processing.c ****     {
 705              		.loc 1 1525 0
ARM GAS  C:\Users\TB1014~1\AppData\Local\Temp\ccTzyt2s.s 			page 41


 706 00b2 0132     		add	r2, r2, #1
 707              	.LVL119:
 708              	.L50:
 709 00b4 9042     		cmp	r0, r2
 710 00b6 F1D8     		bhi	.L51
 711 00b8 09E0     		b	.L52
 712              	.LVL120:
 713              	.L56:
 714              	.LBE9:
 715              	.LBE8:
1358:Generated_Source\PSoC4/CapSense_Processing.c ****     uint16 newPos[CapSense_NUM_CENTROIDS];
 716              		.loc 1 1358 0
 717 00ba 0020     		mov	r0, #0
 718              	.LVL121:
1467:Generated_Source\PSoC4/CapSense_Processing.c ****     {
 719              		.loc 1 1467 0
 720 00bc 07E0     		b	.L52
 721              	.LVL122:
 722              	.L53:
1469:Generated_Source\PSoC4/CapSense_Processing.c **** 
 723              		.loc 1 1469 0 discriminator 3
 724 00be 031C     		mov	r3, r0
 725 00c0 0833     		add	r3, r3, #8
 726 00c2 5B00     		lsl	r3, r3, #1
 727 00c4 EB18     		add	r3, r5, r3
 728 00c6 0122     		mov	r2, #1
 729 00c8 5242     		neg	r2, r2
 730 00ca 5A80     		strh	r2, [r3, #2]
1467:Generated_Source\PSoC4/CapSense_Processing.c ****     {
 731              		.loc 1 1467 0 discriminator 3
 732 00cc 0130     		add	r0, r0, #1
 733              	.LVL123:
 734              	.L52:
1467:Generated_Source\PSoC4/CapSense_Processing.c ****     {
 735              		.loc 1 1467 0 is_stmt 0 discriminator 1
 736 00ce 0028     		cmp	r0, #0
 737 00d0 F5D0     		beq	.L53
1481:Generated_Source\PSoC4/CapSense_Processing.c **** #endif /* #if (0u != CapSense_SLIDER_WIDGET_EN) */
 738              		.loc 1 1481 0 is_stmt 1
 739 00d2 201C     		mov	r0, r4
 740              	.LVL124:
 741 00d4 02B0     		add	sp, sp, #8
 742              		@ sp needed
 743              	.LVL125:
 744              	.LVL126:
 745              	.LVL127:
 746              	.LVL128:
 747 00d6 04BC     		pop	{r2}
 748 00d8 9046     		mov	r8, r2
 749 00da F0BD     		pop	{r4, r5, r6, r7, pc}
 750              		.cfi_endproc
 751              	.LFE8:
 752              		.size	CapSense_DpProcessSlider, .-CapSense_DpProcessSlider
 753              		.section	.text.CapSense_DpProcessCsdWidgetStatus,"ax",%progbits
 754              		.align	2
 755              		.global	CapSense_DpProcessCsdWidgetStatus
 756              		.code	16
ARM GAS  C:\Users\TB1014~1\AppData\Local\Temp\ccTzyt2s.s 			page 42


 757              		.thumb_func
 758              		.type	CapSense_DpProcessCsdWidgetStatus, %function
 759              	CapSense_DpProcessCsdWidgetStatus:
 760              	.LFB5:
 936:Generated_Source\PSoC4/CapSense_Processing.c ****     uint32 sensorStatus;
 761              		.loc 1 936 0
 762              		.cfi_startproc
 763              	.LVL129:
 764 0000 38B5     		push	{r3, r4, r5, lr}
 765              		.cfi_def_cfa_offset 16
 766              		.cfi_offset 3, -16
 767              		.cfi_offset 4, -12
 768              		.cfi_offset 5, -8
 769              		.cfi_offset 14, -4
 770 0002 041C     		mov	r4, r0
 942:Generated_Source\PSoC4/CapSense_Processing.c ****     sensorStatus = CapSense_dsRam.snsStatus[wdgtId];
 771              		.loc 1 942 0
 772 0004 0A7E     		ldrb	r2, [r1, #24]
 773              	.LVL130:
 943:Generated_Source\PSoC4/CapSense_Processing.c **** 
 774              		.loc 1 943 0
 775 0006 184B     		ldr	r3, .L65
 776 0008 1B18     		add	r3, r3, r0
 777 000a 1D7D     		ldrb	r5, [r3, #20]
 778              	.LVL131:
 945:Generated_Source\PSoC4/CapSense_Processing.c ****     {
 779              		.loc 1 945 0
 780 000c 012A     		cmp	r2, #1
 781 000e 04D0     		beq	.L59
 782 0010 002A     		cmp	r2, #0
 783 0012 0CD0     		beq	.L58
 784 0014 032A     		cmp	r2, #3
 785 0016 05D9     		bls	.L64
 786 0018 09E0     		b	.L58
 787              	.L59:
 949:Generated_Source\PSoC4/CapSense_Processing.c ****             break;
 788              		.loc 1 949 0
 789 001a 281C     		mov	r0, r5
 790              	.LVL132:
 791 001c FFF7FEFF 		bl	CapSense_DpProcessButton
 792              	.LVL133:
 793 0020 051C     		mov	r5, r0
 794              	.LVL134:
 950:Generated_Source\PSoC4/CapSense_Processing.c ****     #endif /* #if (0u != CapSense_BUTTON_WIDGET_EN) */
 795              		.loc 1 950 0
 796 0022 07E0     		b	.L61
 797              	.LVL135:
 798              	.L64:
 956:Generated_Source\PSoC4/CapSense_Processing.c ****             break;
 799              		.loc 1 956 0
 800 0024 281C     		mov	r0, r5
 801              	.LVL136:
 802 0026 FFF7FEFF 		bl	CapSense_DpProcessSlider
 803              	.LVL137:
 804 002a 051C     		mov	r5, r0
 805              	.LVL138:
 957:Generated_Source\PSoC4/CapSense_Processing.c ****     #endif /* #if (0u != CapSense_SLIDER_WIDGET_EN) */
ARM GAS  C:\Users\TB1014~1\AppData\Local\Temp\ccTzyt2s.s 			page 43


 806              		.loc 1 957 0
 807 002c 02E0     		b	.L61
 808              	.LVL139:
 809              	.L58:
 979:Generated_Source\PSoC4/CapSense_Processing.c ****         break;
 810              		.loc 1 979 0 discriminator 1
 811 002e 0020     		mov	r0, #0
 812              	.LVL140:
 813 0030 FFF7FEFF 		bl	CyHalt
 814              	.LVL141:
 815              	.L61:
 983:Generated_Source\PSoC4/CapSense_Processing.c **** 
 816              		.loc 1 983 0
 817 0034 0C4B     		ldr	r3, .L65
 818 0036 1B19     		add	r3, r3, r4
 819 0038 1D75     		strb	r5, [r3, #20]
 986:Generated_Source\PSoC4/CapSense_Processing.c ****     wdStatusMask = CapSense_GET_WDGT_STATUS_MASK(wdgtId);
 820              		.loc 1 986 0
 821 003a 6309     		lsr	r3, r4, #5
 822              	.LVL142:
 987:Generated_Source\PSoC4/CapSense_Processing.c **** 
 823              		.loc 1 987 0
 824 003c 1F22     		mov	r2, #31
 825 003e 1440     		and	r4, r2
 826              	.LVL143:
 827 0040 1E3A     		sub	r2, r2, #30
 828 0042 A240     		lsl	r2, r2, r4
 829 0044 141C     		mov	r4, r2
 830              	.LVL144:
 990:Generated_Source\PSoC4/CapSense_Processing.c ****     {
 831              		.loc 1 990 0
 832 0046 002D     		cmp	r5, #0
 833 0048 06D1     		bne	.L62
 992:Generated_Source\PSoC4/CapSense_Processing.c ****     }
 834              		.loc 1 992 0
 835 004a 0749     		ldr	r1, .L65
 836 004c 0433     		add	r3, r3, #4
 837              	.LVL145:
 838 004e 9B00     		lsl	r3, r3, #2
 839              	.LVL146:
 840 0050 5A58     		ldr	r2, [r3, r1]
 841              	.LVL147:
 842 0052 A243     		bic	r2, r4
 843 0054 5A50     		str	r2, [r3, r1]
 844 0056 05E0     		b	.L57
 845              	.LVL148:
 846              	.L62:
 996:Generated_Source\PSoC4/CapSense_Processing.c ****     }
 847              		.loc 1 996 0
 848 0058 034A     		ldr	r2, .L65
 849              	.LVL149:
 850 005a 0433     		add	r3, r3, #4
 851              	.LVL150:
 852 005c 9B00     		lsl	r3, r3, #2
 853              	.LVL151:
 854 005e 9958     		ldr	r1, [r3, r2]
 855 0060 0C43     		orr	r4, r1
ARM GAS  C:\Users\TB1014~1\AppData\Local\Temp\ccTzyt2s.s 			page 44


 856              	.LVL152:
 857 0062 9C50     		str	r4, [r3, r2]
 858              	.L57:
 998:Generated_Source\PSoC4/CapSense_Processing.c **** #endif /* #if (0u != CapSense_TOTAL_CSD_WIDGETS) */
 859              		.loc 1 998 0
 860              		@ sp needed
 861              	.LVL153:
 862 0064 38BD     		pop	{r3, r4, r5, pc}
 863              	.L66:
 864 0066 C046     		.align	2
 865              	.L65:
 866 0068 00000000 		.word	CapSense_dsRam
 867              		.cfi_endproc
 868              	.LFE5:
 869              		.size	CapSense_DpProcessCsdWidgetStatus, .-CapSense_DpProcessCsdWidgetStatus
 870              		.text
 871              	.Letext0:
 872              		.file 2 "Generated_Source\\PSoC4\\cytypes.h"
 873              		.file 3 "Generated_Source\\PSoC4\\CapSense_Configuration.h"
 874              		.file 4 "Generated_Source\\PSoC4\\CapSense_Structure.h"
 875              		.file 5 "c:\\program files (x86)\\cypress\\psoc creator\\4.0\\psoc creator\\import\\gnu\\arm\\4.9.
 876              		.file 6 "c:\\program files (x86)\\cypress\\psoc creator\\4.0\\psoc creator\\import\\gnu\\arm\\4.9.
 877              		.file 7 "Generated_Source\\PSoC4\\CapSense_Filter.h"
 878              		.file 8 "Generated_Source\\PSoC4\\CapSense_Centroid_LL.h"
 879              		.file 9 "Generated_Source\\PSoC4\\CyLib.h"
 880              		.section	.debug_info,"",%progbits
 881              	.Ldebug_info0:
 882 0000 320E0000 		.4byte	0xe32
 883 0004 0400     		.2byte	0x4
 884 0006 00000000 		.4byte	.Ldebug_abbrev0
 885 000a 04       		.byte	0x4
 886 000b 01       		.uleb128 0x1
 887 000c 40000000 		.4byte	.LASF138
 888 0010 01       		.byte	0x1
 889 0011 F9030000 		.4byte	.LASF139
 890 0015 D7060000 		.4byte	.LASF140
 891 0019 00000000 		.4byte	.Ldebug_ranges0+0
 892 001d 00000000 		.4byte	0
 893 0021 00000000 		.4byte	.Ldebug_line0
 894 0025 02       		.uleb128 0x2
 895 0026 01       		.byte	0x1
 896 0027 06       		.byte	0x6
 897 0028 AE080000 		.4byte	.LASF0
 898 002c 02       		.uleb128 0x2
 899 002d 01       		.byte	0x1
 900 002e 08       		.byte	0x8
 901 002f 02080000 		.4byte	.LASF1
 902 0033 02       		.uleb128 0x2
 903 0034 02       		.byte	0x2
 904 0035 05       		.byte	0x5
 905 0036 F8050000 		.4byte	.LASF2
 906 003a 02       		.uleb128 0x2
 907 003b 02       		.byte	0x2
 908 003c 07       		.byte	0x7
 909 003d BF080000 		.4byte	.LASF3
 910 0041 02       		.uleb128 0x2
 911 0042 04       		.byte	0x4
ARM GAS  C:\Users\TB1014~1\AppData\Local\Temp\ccTzyt2s.s 			page 45


 912 0043 05       		.byte	0x5
 913 0044 33060000 		.4byte	.LASF4
 914 0048 02       		.uleb128 0x2
 915 0049 04       		.byte	0x4
 916 004a 07       		.byte	0x7
 917 004b 7B070000 		.4byte	.LASF5
 918 004f 02       		.uleb128 0x2
 919 0050 08       		.byte	0x8
 920 0051 05       		.byte	0x5
 921 0052 63040000 		.4byte	.LASF6
 922 0056 02       		.uleb128 0x2
 923 0057 08       		.byte	0x8
 924 0058 07       		.byte	0x7
 925 0059 65020000 		.4byte	.LASF7
 926 005d 03       		.uleb128 0x3
 927 005e 04       		.byte	0x4
 928 005f 05       		.byte	0x5
 929 0060 696E7400 		.ascii	"int\000"
 930 0064 02       		.uleb128 0x2
 931 0065 04       		.byte	0x4
 932 0066 07       		.byte	0x7
 933 0067 36010000 		.4byte	.LASF8
 934 006b 04       		.uleb128 0x4
 935 006c DF080000 		.4byte	.LASF9
 936 0070 02       		.byte	0x2
 937 0071 B901     		.2byte	0x1b9
 938 0073 2C000000 		.4byte	0x2c
 939 0077 04       		.uleb128 0x4
 940 0078 E0030000 		.4byte	.LASF10
 941 007c 02       		.byte	0x2
 942 007d BA01     		.2byte	0x1ba
 943 007f 3A000000 		.4byte	0x3a
 944 0083 04       		.uleb128 0x4
 945 0084 28050000 		.4byte	.LASF11
 946 0088 02       		.byte	0x2
 947 0089 BB01     		.2byte	0x1bb
 948 008b 48000000 		.4byte	0x48
 949 008f 04       		.uleb128 0x4
 950 0090 02020000 		.4byte	.LASF12
 951 0094 02       		.byte	0x2
 952 0095 BE01     		.2byte	0x1be
 953 0097 41000000 		.4byte	0x41
 954 009b 02       		.uleb128 0x2
 955 009c 04       		.byte	0x4
 956 009d 04       		.byte	0x4
 957 009e F3010000 		.4byte	.LASF13
 958 00a2 02       		.uleb128 0x2
 959 00a3 08       		.byte	0x8
 960 00a4 04       		.byte	0x4
 961 00a5 E5080000 		.4byte	.LASF14
 962 00a9 02       		.uleb128 0x2
 963 00aa 01       		.byte	0x1
 964 00ab 08       		.byte	0x8
 965 00ac AD030000 		.4byte	.LASF15
 966 00b0 05       		.uleb128 0x5
 967 00b1 4E080000 		.4byte	.LASF16
 968 00b5 03       		.byte	0x3
ARM GAS  C:\Users\TB1014~1\AppData\Local\Temp\ccTzyt2s.s 			page 46


 969 00b6 F9       		.byte	0xf9
 970 00b7 77000000 		.4byte	0x77
 971 00bb 05       		.uleb128 0x5
 972 00bc 26040000 		.4byte	.LASF17
 973 00c0 03       		.byte	0x3
 974 00c1 FD       		.byte	0xfd
 975 00c2 6B000000 		.4byte	0x6b
 976 00c6 06       		.uleb128 0x6
 977 00c7 04       		.byte	0x4
 978 00c8 6B000000 		.4byte	0x6b
 979 00cc 06       		.uleb128 0x6
 980 00cd 04       		.byte	0x4
 981 00ce 77000000 		.4byte	0x77
 982 00d2 07       		.uleb128 0x7
 983 00d3 01       		.byte	0x1
 984 00d4 04       		.byte	0x4
 985 00d5 4F       		.byte	0x4f
 986 00d6 FF000000 		.4byte	0xff
 987 00da 08       		.uleb128 0x8
 988 00db 5B060000 		.4byte	.LASF18
 989 00df 01       		.sleb128 1
 990 00e0 08       		.uleb128 0x8
 991 00e1 51050000 		.4byte	.LASF19
 992 00e5 02       		.sleb128 2
 993 00e6 08       		.uleb128 0x8
 994 00e7 51030000 		.4byte	.LASF20
 995 00eb 03       		.sleb128 3
 996 00ec 08       		.uleb128 0x8
 997 00ed 7C020000 		.4byte	.LASF21
 998 00f1 04       		.sleb128 4
 999 00f2 08       		.uleb128 0x8
 1000 00f3 82010000 		.4byte	.LASF22
 1001 00f7 05       		.sleb128 5
 1002 00f8 08       		.uleb128 0x8
 1003 00f9 00000000 		.4byte	.LASF23
 1004 00fd 06       		.sleb128 6
 1005 00fe 00       		.byte	0
 1006 00ff 05       		.uleb128 0x5
 1007 0100 05050000 		.4byte	.LASF24
 1008 0104 04       		.byte	0x4
 1009 0105 56       		.byte	0x56
 1010 0106 D2000000 		.4byte	0xd2
 1011 010a 09       		.uleb128 0x9
 1012 010b 12       		.byte	0x12
 1013 010c 04       		.byte	0x4
 1014 010d 7C       		.byte	0x7c
 1015 010e AF010000 		.4byte	0x1af
 1016 0112 0A       		.uleb128 0xa
 1017 0113 E7030000 		.4byte	.LASF25
 1018 0117 04       		.byte	0x4
 1019 0118 82       		.byte	0x82
 1020 0119 77000000 		.4byte	0x77
 1021 011d 00       		.byte	0
 1022 011e 0A       		.uleb128 0xa
 1023 011f B9070000 		.4byte	.LASF26
 1024 0123 04       		.byte	0x4
 1025 0124 87       		.byte	0x87
ARM GAS  C:\Users\TB1014~1\AppData\Local\Temp\ccTzyt2s.s 			page 47


 1026 0125 B0000000 		.4byte	0xb0
 1027 0129 02       		.byte	0x2
 1028 012a 0A       		.uleb128 0xa
 1029 012b A5030000 		.4byte	.LASF27
 1030 012f 04       		.byte	0x4
 1031 0130 8C       		.byte	0x8c
 1032 0131 6B000000 		.4byte	0x6b
 1033 0135 04       		.byte	0x4
 1034 0136 0A       		.uleb128 0xa
 1035 0137 D5040000 		.4byte	.LASF28
 1036 013b 04       		.byte	0x4
 1037 013c 91       		.byte	0x91
 1038 013d 6B000000 		.4byte	0x6b
 1039 0141 05       		.byte	0x5
 1040 0142 0A       		.uleb128 0xa
 1041 0143 46030000 		.4byte	.LASF29
 1042 0147 04       		.byte	0x4
 1043 0148 96       		.byte	0x96
 1044 0149 6B000000 		.4byte	0x6b
 1045 014d 06       		.byte	0x6
 1046 014e 0A       		.uleb128 0xa
 1047 014f 79040000 		.4byte	.LASF30
 1048 0153 04       		.byte	0x4
 1049 0154 9B       		.byte	0x9b
 1050 0155 6B000000 		.4byte	0x6b
 1051 0159 07       		.byte	0x7
 1052 015a 0A       		.uleb128 0xa
 1053 015b 86030000 		.4byte	.LASF31
 1054 015f 04       		.byte	0x4
 1055 0160 A1       		.byte	0xa1
 1056 0161 BB000000 		.4byte	0xbb
 1057 0165 08       		.byte	0x8
 1058 0166 0A       		.uleb128 0xa
 1059 0167 2E030000 		.4byte	.LASF32
 1060 016b 04       		.byte	0x4
 1061 016c A6       		.byte	0xa6
 1062 016d 6B000000 		.4byte	0x6b
 1063 0171 09       		.byte	0x9
 1064 0172 0A       		.uleb128 0xa
 1065 0173 8D070000 		.4byte	.LASF33
 1066 0177 04       		.byte	0x4
 1067 0178 AD       		.byte	0xad
 1068 0179 AF010000 		.4byte	0x1af
 1069 017d 0A       		.byte	0xa
 1070 017e 0A       		.uleb128 0xa
 1071 017f 8A080000 		.4byte	.LASF34
 1072 0183 04       		.byte	0x4
 1073 0184 B4       		.byte	0xb4
 1074 0185 6B000000 		.4byte	0x6b
 1075 0189 0B       		.byte	0xb
 1076 018a 0A       		.uleb128 0xa
 1077 018b DF050000 		.4byte	.LASF35
 1078 018f 04       		.byte	0x4
 1079 0190 B9       		.byte	0xb9
 1080 0191 6B000000 		.4byte	0x6b
 1081 0195 0C       		.byte	0xc
 1082 0196 0A       		.uleb128 0xa
ARM GAS  C:\Users\TB1014~1\AppData\Local\Temp\ccTzyt2s.s 			page 48


 1083 0197 A4060000 		.4byte	.LASF36
 1084 019b 04       		.byte	0x4
 1085 019c BF       		.byte	0xbf
 1086 019d 77000000 		.4byte	0x77
 1087 01a1 0E       		.byte	0xe
 1088 01a2 0A       		.uleb128 0xa
 1089 01a3 3F030000 		.4byte	.LASF37
 1090 01a7 04       		.byte	0x4
 1091 01a8 C4       		.byte	0xc4
 1092 01a9 77000000 		.4byte	0x77
 1093 01ad 10       		.byte	0x10
 1094 01ae 00       		.byte	0
 1095 01af 0B       		.uleb128 0xb
 1096 01b0 6B000000 		.4byte	0x6b
 1097 01b4 BF010000 		.4byte	0x1bf
 1098 01b8 0C       		.uleb128 0xc
 1099 01b9 BF010000 		.4byte	0x1bf
 1100 01bd 00       		.byte	0
 1101 01be 00       		.byte	0
 1102 01bf 02       		.uleb128 0x2
 1103 01c0 04       		.byte	0x4
 1104 01c1 07       		.byte	0x7
 1105 01c2 72070000 		.4byte	.LASF38
 1106 01c6 05       		.uleb128 0x5
 1107 01c7 E9040000 		.4byte	.LASF39
 1108 01cb 04       		.byte	0x4
 1109 01cc C5       		.byte	0xc5
 1110 01cd 0A010000 		.4byte	0x10a
 1111 01d1 09       		.uleb128 0x9
 1112 01d2 14       		.byte	0x14
 1113 01d3 04       		.byte	0x4
 1114 01d4 CA       		.byte	0xca
 1115 01d5 87020000 		.4byte	0x287
 1116 01d9 0A       		.uleb128 0xa
 1117 01da E7030000 		.4byte	.LASF25
 1118 01de 04       		.byte	0x4
 1119 01df D0       		.byte	0xd0
 1120 01e0 77000000 		.4byte	0x77
 1121 01e4 00       		.byte	0
 1122 01e5 0A       		.uleb128 0xa
 1123 01e6 B9070000 		.4byte	.LASF26
 1124 01ea 04       		.byte	0x4
 1125 01eb D5       		.byte	0xd5
 1126 01ec B0000000 		.4byte	0xb0
 1127 01f0 02       		.byte	0x2
 1128 01f1 0A       		.uleb128 0xa
 1129 01f2 A5030000 		.4byte	.LASF27
 1130 01f6 04       		.byte	0x4
 1131 01f7 DA       		.byte	0xda
 1132 01f8 6B000000 		.4byte	0x6b
 1133 01fc 04       		.byte	0x4
 1134 01fd 0A       		.uleb128 0xa
 1135 01fe D5040000 		.4byte	.LASF28
 1136 0202 04       		.byte	0x4
 1137 0203 DF       		.byte	0xdf
 1138 0204 6B000000 		.4byte	0x6b
 1139 0208 05       		.byte	0x5
ARM GAS  C:\Users\TB1014~1\AppData\Local\Temp\ccTzyt2s.s 			page 49


 1140 0209 0A       		.uleb128 0xa
 1141 020a 46030000 		.4byte	.LASF29
 1142 020e 04       		.byte	0x4
 1143 020f E4       		.byte	0xe4
 1144 0210 6B000000 		.4byte	0x6b
 1145 0214 06       		.byte	0x6
 1146 0215 0A       		.uleb128 0xa
 1147 0216 79040000 		.4byte	.LASF30
 1148 021a 04       		.byte	0x4
 1149 021b E9       		.byte	0xe9
 1150 021c 6B000000 		.4byte	0x6b
 1151 0220 07       		.byte	0x7
 1152 0221 0A       		.uleb128 0xa
 1153 0222 86030000 		.4byte	.LASF31
 1154 0226 04       		.byte	0x4
 1155 0227 EF       		.byte	0xef
 1156 0228 BB000000 		.4byte	0xbb
 1157 022c 08       		.byte	0x8
 1158 022d 0A       		.uleb128 0xa
 1159 022e 2E030000 		.4byte	.LASF32
 1160 0232 04       		.byte	0x4
 1161 0233 F4       		.byte	0xf4
 1162 0234 6B000000 		.4byte	0x6b
 1163 0238 09       		.byte	0x9
 1164 0239 0A       		.uleb128 0xa
 1165 023a 8D070000 		.4byte	.LASF33
 1166 023e 04       		.byte	0x4
 1167 023f FB       		.byte	0xfb
 1168 0240 AF010000 		.4byte	0x1af
 1169 0244 0A       		.byte	0xa
 1170 0245 0D       		.uleb128 0xd
 1171 0246 8A080000 		.4byte	.LASF34
 1172 024a 04       		.byte	0x4
 1173 024b 0201     		.2byte	0x102
 1174 024d 6B000000 		.4byte	0x6b
 1175 0251 0B       		.byte	0xb
 1176 0252 0D       		.uleb128 0xd
 1177 0253 DF050000 		.4byte	.LASF35
 1178 0257 04       		.byte	0x4
 1179 0258 0701     		.2byte	0x107
 1180 025a 6B000000 		.4byte	0x6b
 1181 025e 0C       		.byte	0xc
 1182 025f 0D       		.uleb128 0xd
 1183 0260 A4060000 		.4byte	.LASF36
 1184 0264 04       		.byte	0x4
 1185 0265 0D01     		.2byte	0x10d
 1186 0267 77000000 		.4byte	0x77
 1187 026b 0E       		.byte	0xe
 1188 026c 0D       		.uleb128 0xd
 1189 026d 3F030000 		.4byte	.LASF37
 1190 0271 04       		.byte	0x4
 1191 0272 1201     		.2byte	0x112
 1192 0274 77000000 		.4byte	0x77
 1193 0278 10       		.byte	0x10
 1194 0279 0D       		.uleb128 0xd
 1195 027a 0E090000 		.4byte	.LASF40
 1196 027e 04       		.byte	0x4
ARM GAS  C:\Users\TB1014~1\AppData\Local\Temp\ccTzyt2s.s 			page 50


 1197 027f 1701     		.2byte	0x117
 1198 0281 87020000 		.4byte	0x287
 1199 0285 12       		.byte	0x12
 1200 0286 00       		.byte	0
 1201 0287 0B       		.uleb128 0xb
 1202 0288 77000000 		.4byte	0x77
 1203 028c 97020000 		.4byte	0x297
 1204 0290 0C       		.uleb128 0xc
 1205 0291 BF010000 		.4byte	0x1bf
 1206 0295 00       		.byte	0
 1207 0296 00       		.byte	0
 1208 0297 04       		.uleb128 0x4
 1209 0298 B9060000 		.4byte	.LASF41
 1210 029c 04       		.byte	0x4
 1211 029d 1801     		.2byte	0x118
 1212 029f D1010000 		.4byte	0x1d1
 1213 02a3 0E       		.uleb128 0xe
 1214 02a4 12       		.byte	0x12
 1215 02a5 04       		.byte	0x4
 1216 02a6 1D01     		.2byte	0x11d
 1217 02a8 56030000 		.4byte	0x356
 1218 02ac 0D       		.uleb128 0xd
 1219 02ad E7030000 		.4byte	.LASF25
 1220 02b1 04       		.byte	0x4
 1221 02b2 2301     		.2byte	0x123
 1222 02b4 77000000 		.4byte	0x77
 1223 02b8 00       		.byte	0
 1224 02b9 0D       		.uleb128 0xd
 1225 02ba B9070000 		.4byte	.LASF26
 1226 02be 04       		.byte	0x4
 1227 02bf 2801     		.2byte	0x128
 1228 02c1 B0000000 		.4byte	0xb0
 1229 02c5 02       		.byte	0x2
 1230 02c6 0D       		.uleb128 0xd
 1231 02c7 A5030000 		.4byte	.LASF27
 1232 02cb 04       		.byte	0x4
 1233 02cc 2D01     		.2byte	0x12d
 1234 02ce 6B000000 		.4byte	0x6b
 1235 02d2 04       		.byte	0x4
 1236 02d3 0D       		.uleb128 0xd
 1237 02d4 D5040000 		.4byte	.LASF28
 1238 02d8 04       		.byte	0x4
 1239 02d9 3201     		.2byte	0x132
 1240 02db 6B000000 		.4byte	0x6b
 1241 02df 05       		.byte	0x5
 1242 02e0 0D       		.uleb128 0xd
 1243 02e1 46030000 		.4byte	.LASF29
 1244 02e5 04       		.byte	0x4
 1245 02e6 3701     		.2byte	0x137
 1246 02e8 6B000000 		.4byte	0x6b
 1247 02ec 06       		.byte	0x6
 1248 02ed 0D       		.uleb128 0xd
 1249 02ee 79040000 		.4byte	.LASF30
 1250 02f2 04       		.byte	0x4
 1251 02f3 3C01     		.2byte	0x13c
 1252 02f5 6B000000 		.4byte	0x6b
 1253 02f9 07       		.byte	0x7
ARM GAS  C:\Users\TB1014~1\AppData\Local\Temp\ccTzyt2s.s 			page 51


 1254 02fa 0D       		.uleb128 0xd
 1255 02fb 86030000 		.4byte	.LASF31
 1256 02ff 04       		.byte	0x4
 1257 0300 4201     		.2byte	0x142
 1258 0302 BB000000 		.4byte	0xbb
 1259 0306 08       		.byte	0x8
 1260 0307 0D       		.uleb128 0xd
 1261 0308 2E030000 		.4byte	.LASF32
 1262 030c 04       		.byte	0x4
 1263 030d 4701     		.2byte	0x147
 1264 030f 6B000000 		.4byte	0x6b
 1265 0313 09       		.byte	0x9
 1266 0314 0D       		.uleb128 0xd
 1267 0315 8D070000 		.4byte	.LASF33
 1268 0319 04       		.byte	0x4
 1269 031a 4E01     		.2byte	0x14e
 1270 031c AF010000 		.4byte	0x1af
 1271 0320 0A       		.byte	0xa
 1272 0321 0D       		.uleb128 0xd
 1273 0322 8A080000 		.4byte	.LASF34
 1274 0326 04       		.byte	0x4
 1275 0327 5501     		.2byte	0x155
 1276 0329 6B000000 		.4byte	0x6b
 1277 032d 0B       		.byte	0xb
 1278 032e 0D       		.uleb128 0xd
 1279 032f DF050000 		.4byte	.LASF35
 1280 0333 04       		.byte	0x4
 1281 0334 5A01     		.2byte	0x15a
 1282 0336 6B000000 		.4byte	0x6b
 1283 033a 0C       		.byte	0xc
 1284 033b 0D       		.uleb128 0xd
 1285 033c A4060000 		.4byte	.LASF36
 1286 0340 04       		.byte	0x4
 1287 0341 6001     		.2byte	0x160
 1288 0343 77000000 		.4byte	0x77
 1289 0347 0E       		.byte	0xe
 1290 0348 0D       		.uleb128 0xd
 1291 0349 3F030000 		.4byte	.LASF37
 1292 034d 04       		.byte	0x4
 1293 034e 6501     		.2byte	0x165
 1294 0350 77000000 		.4byte	0x77
 1295 0354 10       		.byte	0x10
 1296 0355 00       		.byte	0
 1297 0356 04       		.uleb128 0x4
 1298 0357 D9070000 		.4byte	.LASF42
 1299 035b 04       		.byte	0x4
 1300 035c 6601     		.2byte	0x166
 1301 035e A3020000 		.4byte	0x2a3
 1302 0362 0E       		.uleb128 0xe
 1303 0363 92       		.byte	0x92
 1304 0364 04       		.byte	0x4
 1305 0365 6C01     		.2byte	0x16c
 1306 0367 D4030000 		.4byte	0x3d4
 1307 036b 0D       		.uleb128 0xd
 1308 036c 71080000 		.4byte	.LASF43
 1309 0370 04       		.byte	0x4
 1310 0371 7101     		.2byte	0x171
ARM GAS  C:\Users\TB1014~1\AppData\Local\Temp\ccTzyt2s.s 			page 52


 1311 0373 97020000 		.4byte	0x297
 1312 0377 00       		.byte	0
 1313 0378 0D       		.uleb128 0xd
 1314 0379 B5010000 		.4byte	.LASF44
 1315 037d 04       		.byte	0x4
 1316 037e 7601     		.2byte	0x176
 1317 0380 56030000 		.4byte	0x356
 1318 0384 14       		.byte	0x14
 1319 0385 0D       		.uleb128 0xd
 1320 0386 BA010000 		.4byte	.LASF45
 1321 038a 04       		.byte	0x4
 1322 038b 7B01     		.2byte	0x17b
 1323 038d 56030000 		.4byte	0x356
 1324 0391 26       		.byte	0x26
 1325 0392 0D       		.uleb128 0xd
 1326 0393 BF010000 		.4byte	.LASF46
 1327 0397 04       		.byte	0x4
 1328 0398 8001     		.2byte	0x180
 1329 039a 56030000 		.4byte	0x356
 1330 039e 38       		.byte	0x38
 1331 039f 0D       		.uleb128 0xd
 1332 03a0 C4010000 		.4byte	.LASF47
 1333 03a4 04       		.byte	0x4
 1334 03a5 8501     		.2byte	0x185
 1335 03a7 56030000 		.4byte	0x356
 1336 03ab 4A       		.byte	0x4a
 1337 03ac 0D       		.uleb128 0xd
 1338 03ad C9010000 		.4byte	.LASF48
 1339 03b1 04       		.byte	0x4
 1340 03b2 8A01     		.2byte	0x18a
 1341 03b4 56030000 		.4byte	0x356
 1342 03b8 5C       		.byte	0x5c
 1343 03b9 0D       		.uleb128 0xd
 1344 03ba CE010000 		.4byte	.LASF49
 1345 03be 04       		.byte	0x4
 1346 03bf 8F01     		.2byte	0x18f
 1347 03c1 56030000 		.4byte	0x356
 1348 03c5 6E       		.byte	0x6e
 1349 03c6 0D       		.uleb128 0xd
 1350 03c7 D3010000 		.4byte	.LASF50
 1351 03cb 04       		.byte	0x4
 1352 03cc 9401     		.2byte	0x194
 1353 03ce 56030000 		.4byte	0x356
 1354 03d2 80       		.byte	0x80
 1355 03d3 00       		.byte	0
 1356 03d4 04       		.uleb128 0x4
 1357 03d5 99010000 		.4byte	.LASF51
 1358 03d9 04       		.byte	0x4
 1359 03da 9501     		.2byte	0x195
 1360 03dc 62030000 		.4byte	0x362
 1361 03e0 0E       		.uleb128 0xe
 1362 03e1 0A       		.byte	0xa
 1363 03e2 04       		.byte	0x4
 1364 03e3 9B01     		.2byte	0x19b
 1365 03e5 38040000 		.4byte	0x438
 1366 03e9 0F       		.uleb128 0xf
 1367 03ea 72617700 		.ascii	"raw\000"
ARM GAS  C:\Users\TB1014~1\AppData\Local\Temp\ccTzyt2s.s 			page 53


 1368 03ee 04       		.byte	0x4
 1369 03ef A001     		.2byte	0x1a0
 1370 03f1 87020000 		.4byte	0x287
 1371 03f5 00       		.byte	0
 1372 03f6 0D       		.uleb128 0xd
 1373 03f7 BA080000 		.4byte	.LASF52
 1374 03fb 04       		.byte	0x4
 1375 03fc A501     		.2byte	0x1a5
 1376 03fe 87020000 		.4byte	0x287
 1377 0402 02       		.byte	0x2
 1378 0403 0D       		.uleb128 0xd
 1379 0404 C2070000 		.4byte	.LASF53
 1380 0408 04       		.byte	0x4
 1381 0409 AB01     		.2byte	0x1ab
 1382 040b AF010000 		.4byte	0x1af
 1383 040f 04       		.byte	0x4
 1384 0410 0D       		.uleb128 0xd
 1385 0411 47060000 		.4byte	.LASF54
 1386 0415 04       		.byte	0x4
 1387 0416 B001     		.2byte	0x1b0
 1388 0418 B0000000 		.4byte	0xb0
 1389 041c 06       		.byte	0x6
 1390 041d 0D       		.uleb128 0xd
 1391 041e EC080000 		.4byte	.LASF55
 1392 0422 04       		.byte	0x4
 1393 0423 B501     		.2byte	0x1b5
 1394 0425 38040000 		.4byte	0x438
 1395 0429 08       		.byte	0x8
 1396 042a 0D       		.uleb128 0xd
 1397 042b 5A040000 		.4byte	.LASF56
 1398 042f 04       		.byte	0x4
 1399 0430 BB01     		.2byte	0x1bb
 1400 0432 AF010000 		.4byte	0x1af
 1401 0436 09       		.byte	0x9
 1402 0437 00       		.byte	0
 1403 0438 0B       		.uleb128 0xb
 1404 0439 BB000000 		.4byte	0xbb
 1405 043d 48040000 		.4byte	0x448
 1406 0441 0C       		.uleb128 0xc
 1407 0442 BF010000 		.4byte	0x1bf
 1408 0446 00       		.byte	0
 1409 0447 00       		.byte	0
 1410 0448 04       		.uleb128 0x4
 1411 0449 16030000 		.4byte	.LASF57
 1412 044d 04       		.byte	0x4
 1413 044e BC01     		.2byte	0x1bc
 1414 0450 E0030000 		.4byte	0x3e0
 1415 0454 0E       		.uleb128 0xe
 1416 0455 8C       		.byte	0x8c
 1417 0456 04       		.byte	0x4
 1418 0457 C201     		.2byte	0x1c2
 1419 0459 C6040000 		.4byte	0x4c6
 1420 045d 0D       		.uleb128 0xd
 1421 045e 71080000 		.4byte	.LASF43
 1422 0462 04       		.byte	0x4
 1423 0463 C701     		.2byte	0x1c7
 1424 0465 C6040000 		.4byte	0x4c6
ARM GAS  C:\Users\TB1014~1\AppData\Local\Temp\ccTzyt2s.s 			page 54


 1425 0469 00       		.byte	0
 1426 046a 0D       		.uleb128 0xd
 1427 046b B5010000 		.4byte	.LASF44
 1428 046f 04       		.byte	0x4
 1429 0470 CC01     		.2byte	0x1cc
 1430 0472 D6040000 		.4byte	0x4d6
 1431 0476 46       		.byte	0x46
 1432 0477 0D       		.uleb128 0xd
 1433 0478 BA010000 		.4byte	.LASF45
 1434 047c 04       		.byte	0x4
 1435 047d D101     		.2byte	0x1d1
 1436 047f D6040000 		.4byte	0x4d6
 1437 0483 50       		.byte	0x50
 1438 0484 0D       		.uleb128 0xd
 1439 0485 BF010000 		.4byte	.LASF46
 1440 0489 04       		.byte	0x4
 1441 048a D601     		.2byte	0x1d6
 1442 048c D6040000 		.4byte	0x4d6
 1443 0490 5A       		.byte	0x5a
 1444 0491 0D       		.uleb128 0xd
 1445 0492 C4010000 		.4byte	.LASF47
 1446 0496 04       		.byte	0x4
 1447 0497 DB01     		.2byte	0x1db
 1448 0499 D6040000 		.4byte	0x4d6
 1449 049d 64       		.byte	0x64
 1450 049e 0D       		.uleb128 0xd
 1451 049f C9010000 		.4byte	.LASF48
 1452 04a3 04       		.byte	0x4
 1453 04a4 E001     		.2byte	0x1e0
 1454 04a6 D6040000 		.4byte	0x4d6
 1455 04aa 6E       		.byte	0x6e
 1456 04ab 0D       		.uleb128 0xd
 1457 04ac CE010000 		.4byte	.LASF49
 1458 04b0 04       		.byte	0x4
 1459 04b1 E501     		.2byte	0x1e5
 1460 04b3 D6040000 		.4byte	0x4d6
 1461 04b7 78       		.byte	0x78
 1462 04b8 0D       		.uleb128 0xd
 1463 04b9 D3010000 		.4byte	.LASF50
 1464 04bd 04       		.byte	0x4
 1465 04be EA01     		.2byte	0x1ea
 1466 04c0 D6040000 		.4byte	0x4d6
 1467 04c4 82       		.byte	0x82
 1468 04c5 00       		.byte	0
 1469 04c6 0B       		.uleb128 0xb
 1470 04c7 48040000 		.4byte	0x448
 1471 04cb D6040000 		.4byte	0x4d6
 1472 04cf 0C       		.uleb128 0xc
 1473 04d0 BF010000 		.4byte	0x1bf
 1474 04d4 06       		.byte	0x6
 1475 04d5 00       		.byte	0
 1476 04d6 0B       		.uleb128 0xb
 1477 04d7 48040000 		.4byte	0x448
 1478 04db E6040000 		.4byte	0x4e6
 1479 04df 0C       		.uleb128 0xc
 1480 04e0 BF010000 		.4byte	0x1bf
 1481 04e4 00       		.byte	0
ARM GAS  C:\Users\TB1014~1\AppData\Local\Temp\ccTzyt2s.s 			page 55


 1482 04e5 00       		.byte	0
 1483 04e6 04       		.uleb128 0x4
 1484 04e7 17090000 		.4byte	.LASF58
 1485 04eb 04       		.byte	0x4
 1486 04ec EB01     		.2byte	0x1eb
 1487 04ee 54040000 		.4byte	0x454
 1488 04f2 10       		.uleb128 0x10
 1489 04f3 4401     		.2byte	0x144
 1490 04f5 04       		.byte	0x4
 1491 04f6 F201     		.2byte	0x1f2
 1492 04f8 D1050000 		.4byte	0x5d1
 1493 04fc 0D       		.uleb128 0xd
 1494 04fd C1050000 		.4byte	.LASF59
 1495 0501 04       		.byte	0x4
 1496 0502 F801     		.2byte	0x1f8
 1497 0504 77000000 		.4byte	0x77
 1498 0508 00       		.byte	0
 1499 0509 0D       		.uleb128 0xd
 1500 050a 05090000 		.4byte	.LASF60
 1501 050e 04       		.byte	0x4
 1502 050f FD01     		.2byte	0x1fd
 1503 0511 77000000 		.4byte	0x77
 1504 0515 02       		.byte	0x2
 1505 0516 0D       		.uleb128 0xd
 1506 0517 4C060000 		.4byte	.LASF61
 1507 051b 04       		.byte	0x4
 1508 051c 0302     		.2byte	0x203
 1509 051e 77000000 		.4byte	0x77
 1510 0522 04       		.byte	0x4
 1511 0523 0D       		.uleb128 0xd
 1512 0524 43010000 		.4byte	.LASF62
 1513 0528 04       		.byte	0x4
 1514 0529 0802     		.2byte	0x208
 1515 052b 77000000 		.4byte	0x77
 1516 052f 06       		.byte	0x6
 1517 0530 0D       		.uleb128 0xd
 1518 0531 F2030000 		.4byte	.LASF63
 1519 0535 04       		.byte	0x4
 1520 0536 0D02     		.2byte	0x20d
 1521 0538 83000000 		.4byte	0x83
 1522 053c 08       		.byte	0x8
 1523 053d 0D       		.uleb128 0xd
 1524 053e 3C060000 		.4byte	.LASF64
 1525 0542 04       		.byte	0x4
 1526 0543 1202     		.2byte	0x212
 1527 0545 D1050000 		.4byte	0x5d1
 1528 0549 0C       		.byte	0xc
 1529 054a 0D       		.uleb128 0xd
 1530 054b AE060000 		.4byte	.LASF65
 1531 054f 04       		.byte	0x4
 1532 0550 1702     		.2byte	0x217
 1533 0552 D1050000 		.4byte	0x5d1
 1534 0556 10       		.byte	0x10
 1535 0557 0D       		.uleb128 0xd
 1536 0558 D5050000 		.4byte	.LASF66
 1537 055c 04       		.byte	0x4
 1538 055d 2502     		.2byte	0x225
ARM GAS  C:\Users\TB1014~1\AppData\Local\Temp\ccTzyt2s.s 			page 56


 1539 055f E1050000 		.4byte	0x5e1
 1540 0563 14       		.byte	0x14
 1541 0564 0D       		.uleb128 0xd
 1542 0565 DE040000 		.4byte	.LASF67
 1543 0569 04       		.byte	0x4
 1544 056a 2A02     		.2byte	0x22a
 1545 056c 77000000 		.4byte	0x77
 1546 0570 1C       		.byte	0x1c
 1547 0571 0D       		.uleb128 0xd
 1548 0572 0C030000 		.4byte	.LASF68
 1549 0576 04       		.byte	0x4
 1550 0577 2F02     		.2byte	0x22f
 1551 0579 6B000000 		.4byte	0x6b
 1552 057d 1E       		.byte	0x1e
 1553 057e 0D       		.uleb128 0xd
 1554 057f 84040000 		.4byte	.LASF69
 1555 0583 04       		.byte	0x4
 1556 0584 3402     		.2byte	0x234
 1557 0586 D4030000 		.4byte	0x3d4
 1558 058a 20       		.byte	0x20
 1559 058b 0D       		.uleb128 0xd
 1560 058c 38020000 		.4byte	.LASF70
 1561 0590 04       		.byte	0x4
 1562 0591 3902     		.2byte	0x239
 1563 0593 E6040000 		.4byte	0x4e6
 1564 0597 B2       		.byte	0xb2
 1565 0598 11       		.uleb128 0x11
 1566 0599 EA000000 		.4byte	.LASF71
 1567 059d 04       		.byte	0x4
 1568 059e 3E02     		.2byte	0x23e
 1569 05a0 6B000000 		.4byte	0x6b
 1570 05a4 3E01     		.2byte	0x13e
 1571 05a6 11       		.uleb128 0x11
 1572 05a7 A3020000 		.4byte	.LASF72
 1573 05ab 04       		.byte	0x4
 1574 05ac 4302     		.2byte	0x243
 1575 05ae 6B000000 		.4byte	0x6b
 1576 05b2 3F01     		.2byte	0x13f
 1577 05b4 11       		.uleb128 0x11
 1578 05b5 AE050000 		.4byte	.LASF73
 1579 05b9 04       		.byte	0x4
 1580 05ba 4802     		.2byte	0x248
 1581 05bc 77000000 		.4byte	0x77
 1582 05c0 4001     		.2byte	0x140
 1583 05c2 11       		.uleb128 0x11
 1584 05c3 BE040000 		.4byte	.LASF74
 1585 05c7 04       		.byte	0x4
 1586 05c8 4D02     		.2byte	0x24d
 1587 05ca 87020000 		.4byte	0x287
 1588 05ce 4201     		.2byte	0x142
 1589 05d0 00       		.byte	0
 1590 05d1 0B       		.uleb128 0xb
 1591 05d2 83000000 		.4byte	0x83
 1592 05d6 E1050000 		.4byte	0x5e1
 1593 05da 0C       		.uleb128 0xc
 1594 05db BF010000 		.4byte	0x1bf
 1595 05df 00       		.byte	0
ARM GAS  C:\Users\TB1014~1\AppData\Local\Temp\ccTzyt2s.s 			page 57


 1596 05e0 00       		.byte	0
 1597 05e1 0B       		.uleb128 0xb
 1598 05e2 6B000000 		.4byte	0x6b
 1599 05e6 F1050000 		.4byte	0x5f1
 1600 05ea 0C       		.uleb128 0xc
 1601 05eb BF010000 		.4byte	0x1bf
 1602 05ef 07       		.byte	0x7
 1603 05f0 00       		.byte	0
 1604 05f1 04       		.uleb128 0x4
 1605 05f2 02060000 		.4byte	.LASF75
 1606 05f6 04       		.byte	0x4
 1607 05f7 4E02     		.2byte	0x24e
 1608 05f9 F2040000 		.4byte	0x4f2
 1609 05fd 0E       		.uleb128 0xe
 1610 05fe 24       		.byte	0x24
 1611 05ff 04       		.byte	0x4
 1612 0600 AD02     		.2byte	0x2ad
 1613 0602 A3060000 		.4byte	0x6a3
 1614 0606 0D       		.uleb128 0xd
 1615 0607 D2080000 		.4byte	.LASF76
 1616 060b 04       		.byte	0x4
 1617 060c B602     		.2byte	0x2b6
 1618 060e A3060000 		.4byte	0x6a3
 1619 0612 00       		.byte	0
 1620 0613 0D       		.uleb128 0xd
 1621 0614 42080000 		.4byte	.LASF77
 1622 0618 04       		.byte	0x4
 1623 0619 BC02     		.2byte	0x2bc
 1624 061b AA060000 		.4byte	0x6aa
 1625 061f 04       		.byte	0x4
 1626 0620 0D       		.uleb128 0xd
 1627 0621 CA050000 		.4byte	.LASF78
 1628 0625 04       		.byte	0x4
 1629 0626 C202     		.2byte	0x2c2
 1630 0628 AC060000 		.4byte	0x6ac
 1631 062c 08       		.byte	0x8
 1632 062d 0D       		.uleb128 0xd
 1633 062e 41050000 		.4byte	.LASF79
 1634 0632 04       		.byte	0x4
 1635 0633 C702     		.2byte	0x2c7
 1636 0635 AA060000 		.4byte	0x6aa
 1637 0639 0C       		.byte	0xc
 1638 063a 0D       		.uleb128 0xd
 1639 063b 95070000 		.4byte	.LASF80
 1640 063f 04       		.byte	0x4
 1641 0640 CE02     		.2byte	0x2ce
 1642 0642 C6000000 		.4byte	0xc6
 1643 0646 10       		.byte	0x10
 1644 0647 0D       		.uleb128 0xd
 1645 0648 35080000 		.4byte	.LASF81
 1646 064c 04       		.byte	0x4
 1647 064d D302     		.2byte	0x2d3
 1648 064f 77000000 		.4byte	0x77
 1649 0653 14       		.byte	0x14
 1650 0654 0D       		.uleb128 0xd
 1651 0655 99030000 		.4byte	.LASF82
 1652 0659 04       		.byte	0x4
ARM GAS  C:\Users\TB1014~1\AppData\Local\Temp\ccTzyt2s.s 			page 58


 1653 065a DA02     		.2byte	0x2da
 1654 065c 77000000 		.4byte	0x77
 1655 0660 16       		.byte	0x16
 1656 0661 0D       		.uleb128 0xd
 1657 0662 B3020000 		.4byte	.LASF83
 1658 0666 04       		.byte	0x4
 1659 0667 E502     		.2byte	0x2e5
 1660 0669 6B000000 		.4byte	0x6b
 1661 066d 18       		.byte	0x18
 1662 066e 0D       		.uleb128 0xd
 1663 066f 71040000 		.4byte	.LASF84
 1664 0673 04       		.byte	0x4
 1665 0674 ED02     		.2byte	0x2ed
 1666 0676 6B000000 		.4byte	0x6b
 1667 067a 19       		.byte	0x19
 1668 067b 0D       		.uleb128 0xd
 1669 067c EC050000 		.4byte	.LASF85
 1670 0680 04       		.byte	0x4
 1671 0681 F302     		.2byte	0x2f3
 1672 0683 77000000 		.4byte	0x77
 1673 0687 1A       		.byte	0x1a
 1674 0688 0D       		.uleb128 0xd
 1675 0689 A5070000 		.4byte	.LASF86
 1676 068d 04       		.byte	0x4
 1677 068e FC02     		.2byte	0x2fc
 1678 0690 83000000 		.4byte	0x83
 1679 0694 1C       		.byte	0x1c
 1680 0695 0D       		.uleb128 0xd
 1681 0696 CA070000 		.4byte	.LASF87
 1682 069a 04       		.byte	0x4
 1683 069b 0103     		.2byte	0x301
 1684 069d AA060000 		.4byte	0x6aa
 1685 06a1 20       		.byte	0x20
 1686 06a2 00       		.byte	0
 1687 06a3 06       		.uleb128 0x6
 1688 06a4 04       		.byte	0x4
 1689 06a5 A9060000 		.4byte	0x6a9
 1690 06a9 12       		.uleb128 0x12
 1691 06aa 13       		.uleb128 0x13
 1692 06ab 04       		.byte	0x4
 1693 06ac 06       		.uleb128 0x6
 1694 06ad 04       		.byte	0x4
 1695 06ae 48040000 		.4byte	0x448
 1696 06b2 04       		.uleb128 0x4
 1697 06b3 6D030000 		.4byte	.LASF88
 1698 06b7 04       		.byte	0x4
 1699 06b8 0203     		.2byte	0x302
 1700 06ba FD050000 		.4byte	0x5fd
 1701 06be 10       		.uleb128 0x10
 1702 06bf 2001     		.2byte	0x120
 1703 06c1 04       		.byte	0x4
 1704 06c2 0803     		.2byte	0x308
 1705 06c4 D6060000 		.4byte	0x6d6
 1706 06c8 0D       		.uleb128 0xd
 1707 06c9 34090000 		.4byte	.LASF89
 1708 06cd 04       		.byte	0x4
 1709 06ce 0D03     		.2byte	0x30d
ARM GAS  C:\Users\TB1014~1\AppData\Local\Temp\ccTzyt2s.s 			page 59


 1710 06d0 D6060000 		.4byte	0x6d6
 1711 06d4 00       		.byte	0
 1712 06d5 00       		.byte	0
 1713 06d6 0B       		.uleb128 0xb
 1714 06d7 B2060000 		.4byte	0x6b2
 1715 06db E6060000 		.4byte	0x6e6
 1716 06df 0C       		.uleb128 0xc
 1717 06e0 BF010000 		.4byte	0x1bf
 1718 06e4 07       		.byte	0x7
 1719 06e5 00       		.byte	0
 1720 06e6 04       		.uleb128 0x4
 1721 06e7 8D040000 		.4byte	.LASF90
 1722 06eb 04       		.byte	0x4
 1723 06ec 0E03     		.2byte	0x30e
 1724 06ee BE060000 		.4byte	0x6be
 1725 06f2 0E       		.uleb128 0xe
 1726 06f3 02       		.byte	0x2
 1727 06f4 04       		.byte	0x4
 1728 06f5 4303     		.2byte	0x343
 1729 06f7 09070000 		.4byte	0x709
 1730 06fb 0D       		.uleb128 0xd
 1731 06fc 66080000 		.4byte	.LASF91
 1732 0700 04       		.byte	0x4
 1733 0701 4803     		.2byte	0x348
 1734 0703 77000000 		.4byte	0x77
 1735 0707 00       		.byte	0
 1736 0708 00       		.byte	0
 1737 0709 04       		.uleb128 0x4
 1738 070a 70060000 		.4byte	.LASF92
 1739 070e 04       		.byte	0x4
 1740 070f 4903     		.2byte	0x349
 1741 0711 F2060000 		.4byte	0x6f2
 1742 0715 0E       		.uleb128 0xe
 1743 0716 02       		.byte	0x2
 1744 0717 04       		.byte	0x4
 1745 0718 4E03     		.2byte	0x34e
 1746 071a 2C070000 		.4byte	0x72c
 1747 071e 0D       		.uleb128 0xd
 1748 071f FD020000 		.4byte	.LASF93
 1749 0723 04       		.byte	0x4
 1750 0724 5303     		.2byte	0x353
 1751 0726 2C070000 		.4byte	0x72c
 1752 072a 00       		.byte	0
 1753 072b 00       		.byte	0
 1754 072c 0B       		.uleb128 0xb
 1755 072d 09070000 		.4byte	0x709
 1756 0731 3C070000 		.4byte	0x73c
 1757 0735 0C       		.uleb128 0xc
 1758 0736 BF010000 		.4byte	0x1bf
 1759 073a 00       		.byte	0
 1760 073b 00       		.byte	0
 1761 073c 04       		.uleb128 0x4
 1762 073d 16060000 		.4byte	.LASF94
 1763 0741 04       		.byte	0x4
 1764 0742 5403     		.2byte	0x354
 1765 0744 15070000 		.4byte	0x715
 1766 0748 14       		.uleb128 0x14
ARM GAS  C:\Users\TB1014~1\AppData\Local\Temp\ccTzyt2s.s 			page 60


 1767 0749 04       		.byte	0x4
 1768 074a 04       		.byte	0x4
 1769 074b 5903     		.2byte	0x359
 1770 074d 6A070000 		.4byte	0x76a
 1771 0751 15       		.uleb128 0x15
 1772 0752 70747200 		.ascii	"ptr\000"
 1773 0756 04       		.byte	0x4
 1774 0757 5E03     		.2byte	0x35e
 1775 0759 AA060000 		.4byte	0x6aa
 1776 075d 16       		.uleb128 0x16
 1777 075e 98020000 		.4byte	.LASF95
 1778 0762 04       		.byte	0x4
 1779 0763 6303     		.2byte	0x363
 1780 0765 6A070000 		.4byte	0x76a
 1781 0769 00       		.byte	0
 1782 076a 06       		.uleb128 0x6
 1783 076b 04       		.byte	0x4
 1784 076c 3C070000 		.4byte	0x73c
 1785 0770 04       		.uleb128 0x4
 1786 0771 E1020000 		.4byte	.LASF96
 1787 0775 04       		.byte	0x4
 1788 0776 6403     		.2byte	0x364
 1789 0778 48070000 		.4byte	0x748
 1790 077c 05       		.uleb128 0x5
 1791 077d 38030000 		.4byte	.LASF97
 1792 0781 05       		.byte	0x5
 1793 0782 D4       		.byte	0xd4
 1794 0783 64000000 		.4byte	0x64
 1795 0787 17       		.uleb128 0x17
 1796 0788 91080000 		.4byte	.LASF99
 1797 078c 01       		.byte	0x1
 1798 078d F6       		.byte	0xf6
 1799 078e 03       		.byte	0x3
 1800 078f B5070000 		.4byte	0x7b5
 1801 0793 18       		.uleb128 0x18
 1802 0794 28080000 		.4byte	.LASF101
 1803 0798 01       		.byte	0x1
 1804 0799 F6       		.byte	0xf6
 1805 079a B5070000 		.4byte	0x7b5
 1806 079e 19       		.uleb128 0x19
 1807 079f 69647800 		.ascii	"idx\000"
 1808 07a3 01       		.byte	0x1
 1809 07a4 F8       		.byte	0xf8
 1810 07a5 83000000 		.4byte	0x83
 1811 07a9 1A       		.uleb128 0x1a
 1812 07aa A3040000 		.4byte	.LASF98
 1813 07ae 01       		.byte	0x1
 1814 07af F9       		.byte	0xf9
 1815 07b0 C0070000 		.4byte	0x7c0
 1816 07b4 00       		.byte	0
 1817 07b5 06       		.uleb128 0x6
 1818 07b6 04       		.byte	0x4
 1819 07b7 BB070000 		.4byte	0x7bb
 1820 07bb 1B       		.uleb128 0x1b
 1821 07bc B2060000 		.4byte	0x6b2
 1822 07c0 06       		.uleb128 0x6
 1823 07c1 04       		.byte	0x4
ARM GAS  C:\Users\TB1014~1\AppData\Local\Temp\ccTzyt2s.s 			page 61


 1824 07c2 97020000 		.4byte	0x297
 1825 07c6 1C       		.uleb128 0x1c
 1826 07c7 2F050000 		.4byte	.LASF100
 1827 07cb 01       		.byte	0x1
 1828 07cc DF05     		.2byte	0x5df
 1829 07ce 03       		.byte	0x3
 1830 07cf 10080000 		.4byte	0x810
 1831 07d3 1D       		.uleb128 0x1d
 1832 07d4 94050000 		.4byte	.LASF102
 1833 07d8 01       		.byte	0x1
 1834 07d9 E005     		.2byte	0x5e0
 1835 07db 10080000 		.4byte	0x810
 1836 07df 1D       		.uleb128 0x1d
 1837 07e0 F7070000 		.4byte	.LASF103
 1838 07e4 01       		.byte	0x1
 1839 07e5 E105     		.2byte	0x5e1
 1840 07e7 83000000 		.4byte	0x83
 1841 07eb 1D       		.uleb128 0x1d
 1842 07ec 28080000 		.4byte	.LASF101
 1843 07f0 01       		.byte	0x1
 1844 07f1 E205     		.2byte	0x5e2
 1845 07f3 B5070000 		.4byte	0x7b5
 1846 07f7 1D       		.uleb128 0x1d
 1847 07f8 9B050000 		.4byte	.LASF104
 1848 07fc 01       		.byte	0x1
 1849 07fd E305     		.2byte	0x5e3
 1850 07ff C0070000 		.4byte	0x7c0
 1851 0803 1E       		.uleb128 0x1e
 1852 0804 D7030000 		.4byte	.LASF105
 1853 0808 01       		.byte	0x1
 1854 0809 E505     		.2byte	0x5e5
 1855 080b 83000000 		.4byte	0x83
 1856 080f 00       		.byte	0
 1857 0810 06       		.uleb128 0x6
 1858 0811 04       		.byte	0x4
 1859 0812 16080000 		.4byte	0x816
 1860 0816 1B       		.uleb128 0x1b
 1861 0817 77000000 		.4byte	0x77
 1862 081b 1F       		.uleb128 0x1f
 1863 081c 08020000 		.4byte	.LASF108
 1864 0820 01       		.byte	0x1
 1865 0821 4501     		.2byte	0x145
 1866 0823 00000000 		.4byte	.LFB2
 1867 0827 8C000000 		.4byte	.LFE2-.LFB2
 1868 082b 01       		.uleb128 0x1
 1869 082c 9C       		.byte	0x9c
 1870 082d B5080000 		.4byte	0x8b5
 1871 0831 20       		.uleb128 0x20
 1872 0832 D9000000 		.4byte	.LASF106
 1873 0836 01       		.byte	0x1
 1874 0837 4701     		.2byte	0x147
 1875 0839 83000000 		.4byte	0x83
 1876 083d 00000000 		.4byte	.LLST0
 1877 0841 20       		.uleb128 0x20
 1878 0842 FA080000 		.4byte	.LASF107
 1879 0846 01       		.byte	0x1
 1880 0847 4801     		.2byte	0x148
ARM GAS  C:\Users\TB1014~1\AppData\Local\Temp\ccTzyt2s.s 			page 62


 1881 0849 FF000000 		.4byte	0xff
 1882 084d 4D000000 		.4byte	.LLST1
 1883 0851 20       		.uleb128 0x20
 1884 0852 9B050000 		.4byte	.LASF104
 1885 0856 01       		.byte	0x1
 1886 0857 4901     		.2byte	0x149
 1887 0859 B5080000 		.4byte	0x8b5
 1888 085d 6B000000 		.4byte	.LLST2
 1889 0861 20       		.uleb128 0x20
 1890 0862 28080000 		.4byte	.LASF101
 1891 0866 01       		.byte	0x1
 1892 0867 4A01     		.2byte	0x14a
 1893 0869 B5070000 		.4byte	0x7b5
 1894 086d 7E000000 		.4byte	.LLST3
 1895 0871 21       		.uleb128 0x21
 1896 0872 87070000 		.4byte	0x787
 1897 0876 5C000000 		.4byte	.LBB6
 1898 087a 1A000000 		.4byte	.LBE6-.LBB6
 1899 087e 01       		.byte	0x1
 1900 087f 8F01     		.2byte	0x18f
 1901 0881 AB080000 		.4byte	0x8ab
 1902 0885 22       		.uleb128 0x22
 1903 0886 93070000 		.4byte	0x793
 1904 088a 91000000 		.4byte	.LLST4
 1905 088e 23       		.uleb128 0x23
 1906 088f 5C000000 		.4byte	.LBB7
 1907 0893 1A000000 		.4byte	.LBE7-.LBB7
 1908 0897 24       		.uleb128 0x24
 1909 0898 9E070000 		.4byte	0x79e
 1910 089c A4000000 		.4byte	.LLST5
 1911 08a0 24       		.uleb128 0x24
 1912 08a1 A9070000 		.4byte	0x7a9
 1913 08a5 C3000000 		.4byte	.LLST6
 1914 08a9 00       		.byte	0
 1915 08aa 00       		.byte	0
 1916 08ab 25       		.uleb128 0x25
 1917 08ac 50000000 		.4byte	.LVL8
 1918 08b0 910D0000 		.4byte	0xd91
 1919 08b4 00       		.byte	0
 1920 08b5 06       		.uleb128 0x6
 1921 08b6 04       		.byte	0x4
 1922 08b7 C6010000 		.4byte	0x1c6
 1923 08bb 1F       		.uleb128 0x1f
 1924 08bc 4F010000 		.4byte	.LASF109
 1925 08c0 01       		.byte	0x1
 1926 08c1 2404     		.2byte	0x424
 1927 08c3 00000000 		.4byte	.LFB6
 1928 08c7 14000000 		.4byte	.LFE6-.LFB6
 1929 08cb 01       		.uleb128 0x1
 1930 08cc 9C       		.byte	0x9c
 1931 08cd FE080000 		.4byte	0x8fe
 1932 08d1 26       		.uleb128 0x26
 1933 08d2 9B050000 		.4byte	.LASF104
 1934 08d6 01       		.byte	0x1
 1935 08d7 2504     		.2byte	0x425
 1936 08d9 B5080000 		.4byte	0x8b5
 1937 08dd 01       		.uleb128 0x1
ARM GAS  C:\Users\TB1014~1\AppData\Local\Temp\ccTzyt2s.s 			page 63


 1938 08de 50       		.byte	0x50
 1939 08df 26       		.uleb128 0x26
 1940 08e0 A7080000 		.4byte	.LASF110
 1941 08e4 01       		.byte	0x1
 1942 08e5 2604     		.2byte	0x426
 1943 08e7 AC060000 		.4byte	0x6ac
 1944 08eb 01       		.uleb128 0x1
 1945 08ec 51       		.byte	0x51
 1946 08ed 20       		.uleb128 0x20
 1947 08ee 73010000 		.4byte	.LASF111
 1948 08f2 01       		.byte	0x1
 1949 08f3 2804     		.2byte	0x428
 1950 08f5 8F000000 		.4byte	0x8f
 1951 08f9 D6000000 		.4byte	.LLST7
 1952 08fd 00       		.byte	0
 1953 08fe 27       		.uleb128 0x27
 1954 08ff B2030000 		.4byte	.LASF116
 1955 0903 01       		.byte	0x1
 1956 0904 C302     		.2byte	0x2c3
 1957 0906 83000000 		.4byte	0x83
 1958 090a 00000000 		.4byte	.LFB3
 1959 090e 66000000 		.4byte	.LFE3-.LFB3
 1960 0912 01       		.uleb128 0x1
 1961 0913 9C       		.byte	0x9c
 1962 0914 F2090000 		.4byte	0x9f2
 1963 0918 28       		.uleb128 0x28
 1964 0919 28080000 		.4byte	.LASF101
 1965 091d 01       		.byte	0x1
 1966 091e C302     		.2byte	0x2c3
 1967 0920 B5070000 		.4byte	0x7b5
 1968 0924 F5000000 		.4byte	.LLST8
 1969 0928 20       		.uleb128 0x20
 1970 0929 40020000 		.4byte	.LASF112
 1971 092d 01       		.byte	0x1
 1972 092e C502     		.2byte	0x2c5
 1973 0930 83000000 		.4byte	0x83
 1974 0934 21010000 		.4byte	.LLST9
 1975 0938 29       		.uleb128 0x29
 1976 0939 FA080000 		.4byte	.LASF107
 1977 093d 01       		.byte	0x1
 1978 093e CB02     		.2byte	0x2cb
 1979 0940 83000000 		.4byte	0x83
 1980 0944 02       		.uleb128 0x2
 1981 0945 91       		.byte	0x91
 1982 0946 60       		.sleb128 -32
 1983 0947 20       		.uleb128 0x20
 1984 0948 55060000 		.4byte	.LASF113
 1985 094c 01       		.byte	0x1
 1986 094d CC02     		.2byte	0x2cc
 1987 094f 83000000 		.4byte	0x83
 1988 0953 58010000 		.4byte	.LLST10
 1989 0957 20       		.uleb128 0x20
 1990 0958 A7080000 		.4byte	.LASF110
 1991 095c 01       		.byte	0x1
 1992 095d CD02     		.2byte	0x2cd
 1993 095f AC060000 		.4byte	0x6ac
 1994 0963 77010000 		.4byte	.LLST11
ARM GAS  C:\Users\TB1014~1\AppData\Local\Temp\ccTzyt2s.s 			page 64


 1995 0967 20       		.uleb128 0x20
 1996 0968 9B050000 		.4byte	.LASF104
 1997 096c 01       		.byte	0x1
 1998 096d CE02     		.2byte	0x2ce
 1999 096f B5080000 		.4byte	0x8b5
 2000 0973 8A010000 		.4byte	.LLST12
 2001 0977 20       		.uleb128 0x20
 2002 0978 E0000000 		.4byte	.LASF114
 2003 097c 01       		.byte	0x1
 2004 097d D902     		.2byte	0x2d9
 2005 097f 70070000 		.4byte	0x770
 2006 0983 A9010000 		.4byte	.LLST13
 2007 0987 20       		.uleb128 0x20
 2008 0988 1D080000 		.4byte	.LASF115
 2009 098c 01       		.byte	0x1
 2010 098d DC02     		.2byte	0x2dc
 2011 098f 83000000 		.4byte	0x83
 2012 0993 BC010000 		.4byte	.LLST14
 2013 0997 2A       		.uleb128 0x2a
 2014 0998 36000000 		.4byte	.LVL31
 2015 099c B00D0000 		.4byte	0xdb0
 2016 09a0 B8090000 		.4byte	0x9b8
 2017 09a4 2B       		.uleb128 0x2b
 2018 09a5 01       		.uleb128 0x1
 2019 09a6 52       		.byte	0x52
 2020 09a7 03       		.uleb128 0x3
 2021 09a8 91       		.byte	0x91
 2022 09a9 60       		.sleb128 -32
 2023 09aa 06       		.byte	0x6
 2024 09ab 2B       		.uleb128 0x2b
 2025 09ac 01       		.uleb128 0x1
 2026 09ad 51       		.byte	0x51
 2027 09ae 02       		.uleb128 0x2
 2028 09af 74       		.byte	0x74
 2029 09b0 00       		.sleb128 0
 2030 09b1 2B       		.uleb128 0x2b
 2031 09b2 01       		.uleb128 0x1
 2032 09b3 50       		.byte	0x50
 2033 09b4 02       		.uleb128 0x2
 2034 09b5 75       		.byte	0x75
 2035 09b6 00       		.sleb128 0
 2036 09b7 00       		.byte	0
 2037 09b8 2A       		.uleb128 0x2a
 2038 09b9 40000000 		.4byte	.LVL32
 2039 09bd CB0D0000 		.4byte	0xdcb
 2040 09c1 DA090000 		.4byte	0x9da
 2041 09c5 2B       		.uleb128 0x2b
 2042 09c6 01       		.uleb128 0x1
 2043 09c7 52       		.byte	0x52
 2044 09c8 03       		.uleb128 0x3
 2045 09c9 91       		.byte	0x91
 2046 09ca 60       		.sleb128 -32
 2047 09cb 06       		.byte	0x6
 2048 09cc 2B       		.uleb128 0x2b
 2049 09cd 01       		.uleb128 0x1
 2050 09ce 51       		.byte	0x51
 2051 09cf 02       		.uleb128 0x2
ARM GAS  C:\Users\TB1014~1\AppData\Local\Temp\ccTzyt2s.s 			page 65


 2052 09d0 74       		.byte	0x74
 2053 09d1 00       		.sleb128 0
 2054 09d2 2B       		.uleb128 0x2b
 2055 09d3 01       		.uleb128 0x1
 2056 09d4 50       		.byte	0x50
 2057 09d5 03       		.uleb128 0x3
 2058 09d6 91       		.byte	0x91
 2059 09d7 5C       		.sleb128 -36
 2060 09d8 06       		.byte	0x6
 2061 09d9 00       		.byte	0
 2062 09da 2C       		.uleb128 0x2c
 2063 09db 4A000000 		.4byte	.LVL35
 2064 09df BB080000 		.4byte	0x8bb
 2065 09e3 2B       		.uleb128 0x2b
 2066 09e4 01       		.uleb128 0x1
 2067 09e5 51       		.byte	0x51
 2068 09e6 02       		.uleb128 0x2
 2069 09e7 74       		.byte	0x74
 2070 09e8 00       		.sleb128 0
 2071 09e9 2B       		.uleb128 0x2b
 2072 09ea 01       		.uleb128 0x1
 2073 09eb 50       		.byte	0x50
 2074 09ec 03       		.uleb128 0x3
 2075 09ed 91       		.byte	0x91
 2076 09ee 5C       		.sleb128 -36
 2077 09ef 06       		.byte	0x6
 2078 09f0 00       		.byte	0
 2079 09f1 00       		.byte	0
 2080 09f2 27       		.uleb128 0x27
 2081 09f3 18000000 		.4byte	.LASF117
 2082 09f7 01       		.byte	0x1
 2083 09f8 4603     		.2byte	0x346
 2084 09fa 83000000 		.4byte	0x83
 2085 09fe 00000000 		.4byte	.LFB4
 2086 0a02 3A000000 		.4byte	.LFE4-.LFB4
 2087 0a06 01       		.uleb128 0x1
 2088 0a07 9C       		.byte	0x9c
 2089 0a08 CD0A0000 		.4byte	0xacd
 2090 0a0c 28       		.uleb128 0x28
 2091 0a0d 28080000 		.4byte	.LASF101
 2092 0a11 01       		.byte	0x1
 2093 0a12 4703     		.2byte	0x347
 2094 0a14 B5070000 		.4byte	0x7b5
 2095 0a18 E5010000 		.4byte	.LLST15
 2096 0a1c 28       		.uleb128 0x28
 2097 0a1d A7080000 		.4byte	.LASF110
 2098 0a21 01       		.byte	0x1
 2099 0a22 4803     		.2byte	0x348
 2100 0a24 AC060000 		.4byte	0x6ac
 2101 0a28 06020000 		.4byte	.LLST16
 2102 0a2c 28       		.uleb128 0x28
 2103 0a2d E0000000 		.4byte	.LASF114
 2104 0a31 01       		.byte	0x1
 2105 0a32 4903     		.2byte	0x349
 2106 0a34 70070000 		.4byte	0x770
 2107 0a38 32020000 		.4byte	.LLST17
 2108 0a3c 28       		.uleb128 0x28
ARM GAS  C:\Users\TB1014~1\AppData\Local\Temp\ccTzyt2s.s 			page 66


 2109 0a3d 7D010000 		.4byte	.LASF118
 2110 0a41 01       		.byte	0x1
 2111 0a42 4A03     		.2byte	0x34a
 2112 0a44 83000000 		.4byte	0x83
 2113 0a48 66020000 		.4byte	.LLST18
 2114 0a4c 20       		.uleb128 0x20
 2115 0a4d 40020000 		.4byte	.LASF112
 2116 0a51 01       		.byte	0x1
 2117 0a52 4C03     		.2byte	0x34c
 2118 0a54 83000000 		.4byte	0x83
 2119 0a58 92020000 		.4byte	.LLST19
 2120 0a5c 20       		.uleb128 0x20
 2121 0a5d FA080000 		.4byte	.LASF107
 2122 0a61 01       		.byte	0x1
 2123 0a62 4D03     		.2byte	0x34d
 2124 0a64 83000000 		.4byte	0x83
 2125 0a68 D3020000 		.4byte	.LLST20
 2126 0a6c 20       		.uleb128 0x20
 2127 0a6d 9B050000 		.4byte	.LASF104
 2128 0a71 01       		.byte	0x1
 2129 0a72 4E03     		.2byte	0x34e
 2130 0a74 B5080000 		.4byte	0x8b5
 2131 0a78 F1020000 		.4byte	.LLST21
 2132 0a7c 2A       		.uleb128 0x2a
 2133 0a7d 16000000 		.4byte	.LVL52
 2134 0a81 B00D0000 		.4byte	0xdb0
 2135 0a85 960A0000 		.4byte	0xa96
 2136 0a89 2B       		.uleb128 0x2b
 2137 0a8a 01       		.uleb128 0x1
 2138 0a8b 52       		.byte	0x52
 2139 0a8c 02       		.uleb128 0x2
 2140 0a8d 75       		.byte	0x75
 2141 0a8e 00       		.sleb128 0
 2142 0a8f 2B       		.uleb128 0x2b
 2143 0a90 01       		.uleb128 0x1
 2144 0a91 51       		.byte	0x51
 2145 0a92 02       		.uleb128 0x2
 2146 0a93 76       		.byte	0x76
 2147 0a94 00       		.sleb128 0
 2148 0a95 00       		.byte	0
 2149 0a96 2A       		.uleb128 0x2a
 2150 0a97 24000000 		.4byte	.LVL54
 2151 0a9b CB0D0000 		.4byte	0xdcb
 2152 0a9f B60A0000 		.4byte	0xab6
 2153 0aa3 2B       		.uleb128 0x2b
 2154 0aa4 01       		.uleb128 0x1
 2155 0aa5 52       		.byte	0x52
 2156 0aa6 02       		.uleb128 0x2
 2157 0aa7 75       		.byte	0x75
 2158 0aa8 00       		.sleb128 0
 2159 0aa9 2B       		.uleb128 0x2b
 2160 0aaa 01       		.uleb128 0x1
 2161 0aab 51       		.byte	0x51
 2162 0aac 02       		.uleb128 0x2
 2163 0aad 76       		.byte	0x76
 2164 0aae 00       		.sleb128 0
 2165 0aaf 2B       		.uleb128 0x2b
ARM GAS  C:\Users\TB1014~1\AppData\Local\Temp\ccTzyt2s.s 			page 67


 2166 0ab0 01       		.uleb128 0x1
 2167 0ab1 50       		.byte	0x50
 2168 0ab2 02       		.uleb128 0x2
 2169 0ab3 77       		.byte	0x77
 2170 0ab4 00       		.sleb128 0
 2171 0ab5 00       		.byte	0
 2172 0ab6 2C       		.uleb128 0x2c
 2173 0ab7 36000000 		.4byte	.LVL58
 2174 0abb BB080000 		.4byte	0x8bb
 2175 0abf 2B       		.uleb128 0x2b
 2176 0ac0 01       		.uleb128 0x1
 2177 0ac1 51       		.byte	0x51
 2178 0ac2 02       		.uleb128 0x2
 2179 0ac3 76       		.byte	0x76
 2180 0ac4 00       		.sleb128 0
 2181 0ac5 2B       		.uleb128 0x2b
 2182 0ac6 01       		.uleb128 0x1
 2183 0ac7 50       		.byte	0x50
 2184 0ac8 02       		.uleb128 0x2
 2185 0ac9 77       		.byte	0x77
 2186 0aca 00       		.sleb128 0
 2187 0acb 00       		.byte	0
 2188 0acc 00       		.byte	0
 2189 0acd 27       		.uleb128 0x27
 2190 0ace 41040000 		.4byte	.LASF119
 2191 0ad2 01       		.byte	0x1
 2192 0ad3 6E04     		.2byte	0x46e
 2193 0ad5 83000000 		.4byte	0x83
 2194 0ad9 00000000 		.4byte	.LFB7
 2195 0add 64000000 		.4byte	.LFE7-.LFB7
 2196 0ae1 01       		.uleb128 0x1
 2197 0ae2 9C       		.byte	0x9c
 2198 0ae3 760B0000 		.4byte	0xb76
 2199 0ae7 28       		.uleb128 0x28
 2200 0ae8 7F080000 		.4byte	.LASF120
 2201 0aec 01       		.byte	0x1
 2202 0aed 6E04     		.2byte	0x46e
 2203 0aef 83000000 		.4byte	0x83
 2204 0af3 04030000 		.4byte	.LLST22
 2205 0af7 28       		.uleb128 0x28
 2206 0af8 28080000 		.4byte	.LASF101
 2207 0afc 01       		.byte	0x1
 2208 0afd 6E04     		.2byte	0x46e
 2209 0aff B5070000 		.4byte	0x7b5
 2210 0b03 22030000 		.4byte	.LLST23
 2211 0b07 20       		.uleb128 0x20
 2212 0b08 D2000000 		.4byte	.LASF121
 2213 0b0c 01       		.byte	0x1
 2214 0b0d 7004     		.2byte	0x470
 2215 0b0f 83000000 		.4byte	0x83
 2216 0b13 43030000 		.4byte	.LLST24
 2217 0b17 20       		.uleb128 0x20
 2218 0b18 A6050000 		.4byte	.LASF122
 2219 0b1c 01       		.byte	0x1
 2220 0b1d 7104     		.2byte	0x471
 2221 0b1f 83000000 		.4byte	0x83
 2222 0b23 8D030000 		.4byte	.LLST25
ARM GAS  C:\Users\TB1014~1\AppData\Local\Temp\ccTzyt2s.s 			page 68


 2223 0b27 20       		.uleb128 0x20
 2224 0b28 E9010000 		.4byte	.LASF123
 2225 0b2c 01       		.byte	0x1
 2226 0b2d 7204     		.2byte	0x472
 2227 0b2f 83000000 		.4byte	0x83
 2228 0b33 AC030000 		.4byte	.LLST26
 2229 0b37 20       		.uleb128 0x20
 2230 0b38 91030000 		.4byte	.LASF124
 2231 0b3c 01       		.byte	0x1
 2232 0b3d 7304     		.2byte	0x473
 2233 0b3f 83000000 		.4byte	0x83
 2234 0b43 CA030000 		.4byte	.LLST27
 2235 0b47 20       		.uleb128 0x20
 2236 0b48 A7080000 		.4byte	.LASF110
 2237 0b4c 01       		.byte	0x1
 2238 0b4d 7404     		.2byte	0x474
 2239 0b4f AC060000 		.4byte	0x6ac
 2240 0b53 E8030000 		.4byte	.LLST28
 2241 0b57 20       		.uleb128 0x20
 2242 0b58 9B050000 		.4byte	.LASF104
 2243 0b5c 01       		.byte	0x1
 2244 0b5d 7504     		.2byte	0x475
 2245 0b5f B5080000 		.4byte	0x8b5
 2246 0b63 FB030000 		.4byte	.LLST29
 2247 0b67 29       		.uleb128 0x29
 2248 0b68 95060000 		.4byte	.LASF125
 2249 0b6c 01       		.byte	0x1
 2250 0b6d 7604     		.2byte	0x476
 2251 0b6f C6000000 		.4byte	0xc6
 2252 0b73 01       		.uleb128 0x1
 2253 0b74 53       		.byte	0x53
 2254 0b75 00       		.byte	0
 2255 0b76 27       		.uleb128 0x27
 2256 0b77 7B050000 		.4byte	.LASF126
 2257 0b7b 01       		.byte	0x1
 2258 0b7c 3F05     		.2byte	0x53f
 2259 0b7e 83000000 		.4byte	0x83
 2260 0b82 00000000 		.4byte	.LFB8
 2261 0b86 DC000000 		.4byte	.LFE8-.LFB8
 2262 0b8a 01       		.uleb128 0x1
 2263 0b8b 9C       		.byte	0x9c
 2264 0b8c C60C0000 		.4byte	0xcc6
 2265 0b90 28       		.uleb128 0x28
 2266 0b91 7F080000 		.4byte	.LASF120
 2267 0b95 01       		.byte	0x1
 2268 0b96 3F05     		.2byte	0x53f
 2269 0b98 83000000 		.4byte	0x83
 2270 0b9c 0E040000 		.4byte	.LLST30
 2271 0ba0 28       		.uleb128 0x28
 2272 0ba1 28080000 		.4byte	.LASF101
 2273 0ba5 01       		.byte	0x1
 2274 0ba6 3F05     		.2byte	0x53f
 2275 0ba8 B5070000 		.4byte	0x7b5
 2276 0bac 6F040000 		.4byte	.LLST31
 2277 0bb0 20       		.uleb128 0x20
 2278 0bb1 D2000000 		.4byte	.LASF121
 2279 0bb5 01       		.byte	0x1
ARM GAS  C:\Users\TB1014~1\AppData\Local\Temp\ccTzyt2s.s 			page 69


 2280 0bb6 4105     		.2byte	0x541
 2281 0bb8 83000000 		.4byte	0x83
 2282 0bbc A6040000 		.4byte	.LLST32
 2283 0bc0 20       		.uleb128 0x20
 2284 0bc1 A6050000 		.4byte	.LASF122
 2285 0bc5 01       		.byte	0x1
 2286 0bc6 4205     		.2byte	0x542
 2287 0bc8 83000000 		.4byte	0x83
 2288 0bcc DA040000 		.4byte	.LLST33
 2289 0bd0 20       		.uleb128 0x20
 2290 0bd1 91030000 		.4byte	.LASF124
 2291 0bd5 01       		.byte	0x1
 2292 0bd6 4305     		.2byte	0x543
 2293 0bd8 83000000 		.4byte	0x83
 2294 0bdc 04050000 		.4byte	.LLST34
 2295 0be0 20       		.uleb128 0x20
 2296 0be1 E9010000 		.4byte	.LASF123
 2297 0be5 01       		.byte	0x1
 2298 0be6 4405     		.2byte	0x544
 2299 0be8 83000000 		.4byte	0x83
 2300 0bec 2D050000 		.4byte	.LLST35
 2301 0bf0 20       		.uleb128 0x20
 2302 0bf1 95060000 		.4byte	.LASF125
 2303 0bf5 01       		.byte	0x1
 2304 0bf6 4505     		.2byte	0x545
 2305 0bf8 C6000000 		.4byte	0xc6
 2306 0bfc 4C050000 		.4byte	.LLST36
 2307 0c00 20       		.uleb128 0x20
 2308 0c01 A7080000 		.4byte	.LASF110
 2309 0c05 01       		.byte	0x1
 2310 0c06 4605     		.2byte	0x546
 2311 0c08 AC060000 		.4byte	0x6ac
 2312 0c0c 6A050000 		.4byte	.LLST37
 2313 0c10 20       		.uleb128 0x20
 2314 0c11 9B050000 		.4byte	.LASF104
 2315 0c15 01       		.byte	0x1
 2316 0c16 4705     		.2byte	0x547
 2317 0c18 C0070000 		.4byte	0x7c0
 2318 0c1c 88050000 		.4byte	.LLST38
 2319 0c20 20       		.uleb128 0x20
 2320 0c21 D7030000 		.4byte	.LASF105
 2321 0c25 01       		.byte	0x1
 2322 0c26 4D05     		.2byte	0x54d
 2323 0c28 83000000 		.4byte	0x83
 2324 0c2c 9B050000 		.4byte	.LLST39
 2325 0c30 20       		.uleb128 0x20
 2326 0c31 F9010000 		.4byte	.LASF127
 2327 0c35 01       		.byte	0x1
 2328 0c36 4E05     		.2byte	0x54e
 2329 0c38 83000000 		.4byte	0x83
 2330 0c3c AE050000 		.4byte	.LLST40
 2331 0c40 29       		.uleb128 0x29
 2332 0c41 94050000 		.4byte	.LASF102
 2333 0c45 01       		.byte	0x1
 2334 0c46 4F05     		.2byte	0x54f
 2335 0c48 87020000 		.4byte	0x287
 2336 0c4c 02       		.uleb128 0x2
ARM GAS  C:\Users\TB1014~1\AppData\Local\Temp\ccTzyt2s.s 			page 70


 2337 0c4d 91       		.byte	0x91
 2338 0c4e 64       		.sleb128 -28
 2339 0c4f 21       		.uleb128 0x21
 2340 0c50 C6070000 		.4byte	0x7c6
 2341 0c54 98000000 		.4byte	.LBB8
 2342 0c58 22000000 		.4byte	.LBE8-.LBB8
 2343 0c5c 01       		.byte	0x1
 2344 0c5d AA05     		.2byte	0x5aa
 2345 0c5f 9B0C0000 		.4byte	0xc9b
 2346 0c63 22       		.uleb128 0x22
 2347 0c64 F7070000 		.4byte	0x7f7
 2348 0c68 EF050000 		.4byte	.LLST41
 2349 0c6c 22       		.uleb128 0x22
 2350 0c6d EB070000 		.4byte	0x7eb
 2351 0c71 02060000 		.4byte	.LLST42
 2352 0c75 22       		.uleb128 0x22
 2353 0c76 DF070000 		.4byte	0x7df
 2354 0c7a 15060000 		.4byte	.LLST43
 2355 0c7e 22       		.uleb128 0x22
 2356 0c7f D3070000 		.4byte	0x7d3
 2357 0c83 28060000 		.4byte	.LLST44
 2358 0c87 23       		.uleb128 0x23
 2359 0c88 98000000 		.4byte	.LBB9
 2360 0c8c 22000000 		.4byte	.LBE9-.LBB9
 2361 0c90 24       		.uleb128 0x24
 2362 0c91 03080000 		.4byte	0x803
 2363 0c95 3D060000 		.4byte	.LLST45
 2364 0c99 00       		.byte	0
 2365 0c9a 00       		.byte	0
 2366 0c9b 2A       		.uleb128 0x2a
 2367 0c9c 84000000 		.4byte	.LVL115
 2368 0ca0 EA0D0000 		.4byte	0xdea
 2369 0ca4 AF0C0000 		.4byte	0xcaf
 2370 0ca8 2B       		.uleb128 0x2b
 2371 0ca9 01       		.uleb128 0x1
 2372 0caa 51       		.byte	0x51
 2373 0cab 02       		.uleb128 0x2
 2374 0cac 77       		.byte	0x77
 2375 0cad 00       		.sleb128 0
 2376 0cae 00       		.byte	0
 2377 0caf 2C       		.uleb128 0x2c
 2378 0cb0 98000000 		.4byte	.LVL117
 2379 0cb4 090E0000 		.4byte	0xe09
 2380 0cb8 2B       		.uleb128 0x2b
 2381 0cb9 01       		.uleb128 0x1
 2382 0cba 52       		.byte	0x52
 2383 0cbb 02       		.uleb128 0x2
 2384 0cbc 77       		.byte	0x77
 2385 0cbd 00       		.sleb128 0
 2386 0cbe 2B       		.uleb128 0x2b
 2387 0cbf 01       		.uleb128 0x1
 2388 0cc0 50       		.byte	0x50
 2389 0cc1 02       		.uleb128 0x2
 2390 0cc2 91       		.byte	0x91
 2391 0cc3 64       		.sleb128 -28
 2392 0cc4 00       		.byte	0
 2393 0cc5 00       		.byte	0
ARM GAS  C:\Users\TB1014~1\AppData\Local\Temp\ccTzyt2s.s 			page 71


 2394 0cc6 1F       		.uleb128 0x1f
 2395 0cc7 14010000 		.4byte	.LASF128
 2396 0ccb 01       		.byte	0x1
 2397 0ccc A703     		.2byte	0x3a7
 2398 0cce 00000000 		.4byte	.LFB5
 2399 0cd2 6C000000 		.4byte	.LFE5-.LFB5
 2400 0cd6 01       		.uleb128 0x1
 2401 0cd7 9C       		.byte	0x9c
 2402 0cd8 740D0000 		.4byte	0xd74
 2403 0cdc 28       		.uleb128 0x28
 2404 0cdd D9000000 		.4byte	.LASF106
 2405 0ce1 01       		.byte	0x1
 2406 0ce2 A703     		.2byte	0x3a7
 2407 0ce4 83000000 		.4byte	0x83
 2408 0ce8 5C060000 		.4byte	.LLST46
 2409 0cec 28       		.uleb128 0x28
 2410 0ced 28080000 		.4byte	.LASF101
 2411 0cf1 01       		.byte	0x1
 2412 0cf2 A703     		.2byte	0x3a7
 2413 0cf4 B5070000 		.4byte	0x7b5
 2414 0cf8 B4060000 		.4byte	.LLST47
 2415 0cfc 20       		.uleb128 0x20
 2416 0cfd 1B050000 		.4byte	.LASF129
 2417 0d01 01       		.byte	0x1
 2418 0d02 A903     		.2byte	0x3a9
 2419 0d04 83000000 		.4byte	0x83
 2420 0d08 07070000 		.4byte	.LLST48
 2421 0d0c 20       		.uleb128 0x20
 2422 0d0d 6D050000 		.4byte	.LASF130
 2423 0d11 01       		.byte	0x1
 2424 0d12 AA03     		.2byte	0x3aa
 2425 0d14 83000000 		.4byte	0x83
 2426 0d18 46070000 		.4byte	.LLST49
 2427 0d1c 20       		.uleb128 0x20
 2428 0d1d 10080000 		.4byte	.LASF131
 2429 0d21 01       		.byte	0x1
 2430 0d22 AB03     		.2byte	0x3ab
 2431 0d24 83000000 		.4byte	0x83
 2432 0d28 9E070000 		.4byte	.LLST50
 2433 0d2c 20       		.uleb128 0x20
 2434 0d2d FA080000 		.4byte	.LASF107
 2435 0d31 01       		.byte	0x1
 2436 0d32 AC03     		.2byte	0x3ac
 2437 0d34 FF000000 		.4byte	0xff
 2438 0d38 E4070000 		.4byte	.LLST51
 2439 0d3c 2A       		.uleb128 0x2a
 2440 0d3d 20000000 		.4byte	.LVL133
 2441 0d41 CD0A0000 		.4byte	0xacd
 2442 0d45 500D0000 		.4byte	0xd50
 2443 0d49 2B       		.uleb128 0x2b
 2444 0d4a 01       		.uleb128 0x1
 2445 0d4b 50       		.byte	0x50
 2446 0d4c 02       		.uleb128 0x2
 2447 0d4d 75       		.byte	0x75
 2448 0d4e 00       		.sleb128 0
 2449 0d4f 00       		.byte	0
 2450 0d50 2A       		.uleb128 0x2a
ARM GAS  C:\Users\TB1014~1\AppData\Local\Temp\ccTzyt2s.s 			page 72


 2451 0d51 2A000000 		.4byte	.LVL137
 2452 0d55 760B0000 		.4byte	0xb76
 2453 0d59 640D0000 		.4byte	0xd64
 2454 0d5d 2B       		.uleb128 0x2b
 2455 0d5e 01       		.uleb128 0x1
 2456 0d5f 50       		.byte	0x50
 2457 0d60 02       		.uleb128 0x2
 2458 0d61 75       		.byte	0x75
 2459 0d62 00       		.sleb128 0
 2460 0d63 00       		.byte	0
 2461 0d64 2C       		.uleb128 0x2c
 2462 0d65 34000000 		.4byte	.LVL141
 2463 0d69 280E0000 		.4byte	0xe28
 2464 0d6d 2B       		.uleb128 0x2b
 2465 0d6e 01       		.uleb128 0x1
 2466 0d6f 50       		.byte	0x50
 2467 0d70 01       		.uleb128 0x1
 2468 0d71 30       		.byte	0x30
 2469 0d72 00       		.byte	0
 2470 0d73 00       		.byte	0
 2471 0d74 2D       		.uleb128 0x2d
 2472 0d75 AF040000 		.4byte	.LASF132
 2473 0d79 04       		.byte	0x4
 2474 0d7a 6504     		.2byte	0x465
 2475 0d7c F1050000 		.4byte	0x5f1
 2476 0d80 2D       		.uleb128 0x2d
 2477 0d81 D8010000 		.4byte	.LASF133
 2478 0d85 04       		.byte	0x4
 2479 0d86 6604     		.2byte	0x466
 2480 0d88 8C0D0000 		.4byte	0xd8c
 2481 0d8c 1B       		.uleb128 0x1b
 2482 0d8d E6060000 		.4byte	0x6e6
 2483 0d91 2E       		.uleb128 0x2e
 2484 0d92 CE040000 		.4byte	.LASF134
 2485 0d96 06       		.byte	0x6
 2486 0d97 19       		.byte	0x19
 2487 0d98 AA060000 		.4byte	0x6aa
 2488 0d9c B00D0000 		.4byte	0xdb0
 2489 0da0 2F       		.uleb128 0x2f
 2490 0da1 AA060000 		.4byte	0x6aa
 2491 0da5 2F       		.uleb128 0x2f
 2492 0da6 5D000000 		.4byte	0x5d
 2493 0daa 2F       		.uleb128 0x2f
 2494 0dab 7C070000 		.4byte	0x77c
 2495 0daf 00       		.byte	0
 2496 0db0 30       		.uleb128 0x30
 2497 0db1 BC020000 		.4byte	.LASF141
 2498 0db5 07       		.byte	0x7
 2499 0db6 7D       		.byte	0x7d
 2500 0db7 CB0D0000 		.4byte	0xdcb
 2501 0dbb 2F       		.uleb128 0x2f
 2502 0dbc 70070000 		.4byte	0x770
 2503 0dc0 2F       		.uleb128 0x2f
 2504 0dc1 AC060000 		.4byte	0x6ac
 2505 0dc5 2F       		.uleb128 0x2f
 2506 0dc6 83000000 		.4byte	0x83
 2507 0dca 00       		.byte	0
ARM GAS  C:\Users\TB1014~1\AppData\Local\Temp\ccTzyt2s.s 			page 73


 2508 0dcb 2E       		.uleb128 0x2e
 2509 0dcc 1E020000 		.4byte	.LASF135
 2510 0dd0 07       		.byte	0x7
 2511 0dd1 6A       		.byte	0x6a
 2512 0dd2 83000000 		.4byte	0x83
 2513 0dd6 EA0D0000 		.4byte	0xdea
 2514 0dda 2F       		.uleb128 0x2f
 2515 0ddb B5080000 		.4byte	0x8b5
 2516 0ddf 2F       		.uleb128 0x2f
 2517 0de0 AC060000 		.4byte	0x6ac
 2518 0de4 2F       		.uleb128 0x2f
 2519 0de5 83000000 		.4byte	0x83
 2520 0de9 00       		.byte	0
 2521 0dea 2E       		.uleb128 0x2e
 2522 0deb FA000000 		.4byte	.LASF136
 2523 0def 08       		.byte	0x8
 2524 0df0 47       		.byte	0x47
 2525 0df1 83000000 		.4byte	0x83
 2526 0df5 090E0000 		.4byte	0xe09
 2527 0df9 2F       		.uleb128 0x2f
 2528 0dfa AC060000 		.4byte	0x6ac
 2529 0dfe 2F       		.uleb128 0x2f
 2530 0dff 83000000 		.4byte	0x83
 2531 0e03 2F       		.uleb128 0x2f
 2532 0e04 83000000 		.4byte	0x83
 2533 0e08 00       		.byte	0
 2534 0e09 2E       		.uleb128 0x2e
 2535 0e0a 47020000 		.4byte	.LASF137
 2536 0e0e 08       		.byte	0x8
 2537 0e0f 54       		.byte	0x54
 2538 0e10 83000000 		.4byte	0x83
 2539 0e14 280E0000 		.4byte	0xe28
 2540 0e18 2F       		.uleb128 0x2f
 2541 0e19 CC000000 		.4byte	0xcc
 2542 0e1d 2F       		.uleb128 0x2f
 2543 0e1e 83000000 		.4byte	0x83
 2544 0e22 2F       		.uleb128 0x2f
 2545 0e23 83000000 		.4byte	0x83
 2546 0e27 00       		.byte	0
 2547 0e28 31       		.uleb128 0x31
 2548 0e29 6C010000 		.4byte	.LASF142
 2549 0e2d 09       		.byte	0x9
 2550 0e2e E7       		.byte	0xe7
 2551 0e2f 2F       		.uleb128 0x2f
 2552 0e30 6B000000 		.4byte	0x6b
 2553 0e34 00       		.byte	0
 2554 0e35 00       		.byte	0
 2555              		.section	.debug_abbrev,"",%progbits
 2556              	.Ldebug_abbrev0:
 2557 0000 01       		.uleb128 0x1
 2558 0001 11       		.uleb128 0x11
 2559 0002 01       		.byte	0x1
 2560 0003 25       		.uleb128 0x25
 2561 0004 0E       		.uleb128 0xe
 2562 0005 13       		.uleb128 0x13
 2563 0006 0B       		.uleb128 0xb
 2564 0007 03       		.uleb128 0x3
ARM GAS  C:\Users\TB1014~1\AppData\Local\Temp\ccTzyt2s.s 			page 74


 2565 0008 0E       		.uleb128 0xe
 2566 0009 1B       		.uleb128 0x1b
 2567 000a 0E       		.uleb128 0xe
 2568 000b 55       		.uleb128 0x55
 2569 000c 17       		.uleb128 0x17
 2570 000d 11       		.uleb128 0x11
 2571 000e 01       		.uleb128 0x1
 2572 000f 10       		.uleb128 0x10
 2573 0010 17       		.uleb128 0x17
 2574 0011 00       		.byte	0
 2575 0012 00       		.byte	0
 2576 0013 02       		.uleb128 0x2
 2577 0014 24       		.uleb128 0x24
 2578 0015 00       		.byte	0
 2579 0016 0B       		.uleb128 0xb
 2580 0017 0B       		.uleb128 0xb
 2581 0018 3E       		.uleb128 0x3e
 2582 0019 0B       		.uleb128 0xb
 2583 001a 03       		.uleb128 0x3
 2584 001b 0E       		.uleb128 0xe
 2585 001c 00       		.byte	0
 2586 001d 00       		.byte	0
 2587 001e 03       		.uleb128 0x3
 2588 001f 24       		.uleb128 0x24
 2589 0020 00       		.byte	0
 2590 0021 0B       		.uleb128 0xb
 2591 0022 0B       		.uleb128 0xb
 2592 0023 3E       		.uleb128 0x3e
 2593 0024 0B       		.uleb128 0xb
 2594 0025 03       		.uleb128 0x3
 2595 0026 08       		.uleb128 0x8
 2596 0027 00       		.byte	0
 2597 0028 00       		.byte	0
 2598 0029 04       		.uleb128 0x4
 2599 002a 16       		.uleb128 0x16
 2600 002b 00       		.byte	0
 2601 002c 03       		.uleb128 0x3
 2602 002d 0E       		.uleb128 0xe
 2603 002e 3A       		.uleb128 0x3a
 2604 002f 0B       		.uleb128 0xb
 2605 0030 3B       		.uleb128 0x3b
 2606 0031 05       		.uleb128 0x5
 2607 0032 49       		.uleb128 0x49
 2608 0033 13       		.uleb128 0x13
 2609 0034 00       		.byte	0
 2610 0035 00       		.byte	0
 2611 0036 05       		.uleb128 0x5
 2612 0037 16       		.uleb128 0x16
 2613 0038 00       		.byte	0
 2614 0039 03       		.uleb128 0x3
 2615 003a 0E       		.uleb128 0xe
 2616 003b 3A       		.uleb128 0x3a
 2617 003c 0B       		.uleb128 0xb
 2618 003d 3B       		.uleb128 0x3b
 2619 003e 0B       		.uleb128 0xb
 2620 003f 49       		.uleb128 0x49
 2621 0040 13       		.uleb128 0x13
ARM GAS  C:\Users\TB1014~1\AppData\Local\Temp\ccTzyt2s.s 			page 75


 2622 0041 00       		.byte	0
 2623 0042 00       		.byte	0
 2624 0043 06       		.uleb128 0x6
 2625 0044 0F       		.uleb128 0xf
 2626 0045 00       		.byte	0
 2627 0046 0B       		.uleb128 0xb
 2628 0047 0B       		.uleb128 0xb
 2629 0048 49       		.uleb128 0x49
 2630 0049 13       		.uleb128 0x13
 2631 004a 00       		.byte	0
 2632 004b 00       		.byte	0
 2633 004c 07       		.uleb128 0x7
 2634 004d 04       		.uleb128 0x4
 2635 004e 01       		.byte	0x1
 2636 004f 0B       		.uleb128 0xb
 2637 0050 0B       		.uleb128 0xb
 2638 0051 3A       		.uleb128 0x3a
 2639 0052 0B       		.uleb128 0xb
 2640 0053 3B       		.uleb128 0x3b
 2641 0054 0B       		.uleb128 0xb
 2642 0055 01       		.uleb128 0x1
 2643 0056 13       		.uleb128 0x13
 2644 0057 00       		.byte	0
 2645 0058 00       		.byte	0
 2646 0059 08       		.uleb128 0x8
 2647 005a 28       		.uleb128 0x28
 2648 005b 00       		.byte	0
 2649 005c 03       		.uleb128 0x3
 2650 005d 0E       		.uleb128 0xe
 2651 005e 1C       		.uleb128 0x1c
 2652 005f 0D       		.uleb128 0xd
 2653 0060 00       		.byte	0
 2654 0061 00       		.byte	0
 2655 0062 09       		.uleb128 0x9
 2656 0063 13       		.uleb128 0x13
 2657 0064 01       		.byte	0x1
 2658 0065 0B       		.uleb128 0xb
 2659 0066 0B       		.uleb128 0xb
 2660 0067 3A       		.uleb128 0x3a
 2661 0068 0B       		.uleb128 0xb
 2662 0069 3B       		.uleb128 0x3b
 2663 006a 0B       		.uleb128 0xb
 2664 006b 01       		.uleb128 0x1
 2665 006c 13       		.uleb128 0x13
 2666 006d 00       		.byte	0
 2667 006e 00       		.byte	0
 2668 006f 0A       		.uleb128 0xa
 2669 0070 0D       		.uleb128 0xd
 2670 0071 00       		.byte	0
 2671 0072 03       		.uleb128 0x3
 2672 0073 0E       		.uleb128 0xe
 2673 0074 3A       		.uleb128 0x3a
 2674 0075 0B       		.uleb128 0xb
 2675 0076 3B       		.uleb128 0x3b
 2676 0077 0B       		.uleb128 0xb
 2677 0078 49       		.uleb128 0x49
 2678 0079 13       		.uleb128 0x13
ARM GAS  C:\Users\TB1014~1\AppData\Local\Temp\ccTzyt2s.s 			page 76


 2679 007a 38       		.uleb128 0x38
 2680 007b 0B       		.uleb128 0xb
 2681 007c 00       		.byte	0
 2682 007d 00       		.byte	0
 2683 007e 0B       		.uleb128 0xb
 2684 007f 01       		.uleb128 0x1
 2685 0080 01       		.byte	0x1
 2686 0081 49       		.uleb128 0x49
 2687 0082 13       		.uleb128 0x13
 2688 0083 01       		.uleb128 0x1
 2689 0084 13       		.uleb128 0x13
 2690 0085 00       		.byte	0
 2691 0086 00       		.byte	0
 2692 0087 0C       		.uleb128 0xc
 2693 0088 21       		.uleb128 0x21
 2694 0089 00       		.byte	0
 2695 008a 49       		.uleb128 0x49
 2696 008b 13       		.uleb128 0x13
 2697 008c 2F       		.uleb128 0x2f
 2698 008d 0B       		.uleb128 0xb
 2699 008e 00       		.byte	0
 2700 008f 00       		.byte	0
 2701 0090 0D       		.uleb128 0xd
 2702 0091 0D       		.uleb128 0xd
 2703 0092 00       		.byte	0
 2704 0093 03       		.uleb128 0x3
 2705 0094 0E       		.uleb128 0xe
 2706 0095 3A       		.uleb128 0x3a
 2707 0096 0B       		.uleb128 0xb
 2708 0097 3B       		.uleb128 0x3b
 2709 0098 05       		.uleb128 0x5
 2710 0099 49       		.uleb128 0x49
 2711 009a 13       		.uleb128 0x13
 2712 009b 38       		.uleb128 0x38
 2713 009c 0B       		.uleb128 0xb
 2714 009d 00       		.byte	0
 2715 009e 00       		.byte	0
 2716 009f 0E       		.uleb128 0xe
 2717 00a0 13       		.uleb128 0x13
 2718 00a1 01       		.byte	0x1
 2719 00a2 0B       		.uleb128 0xb
 2720 00a3 0B       		.uleb128 0xb
 2721 00a4 3A       		.uleb128 0x3a
 2722 00a5 0B       		.uleb128 0xb
 2723 00a6 3B       		.uleb128 0x3b
 2724 00a7 05       		.uleb128 0x5
 2725 00a8 01       		.uleb128 0x1
 2726 00a9 13       		.uleb128 0x13
 2727 00aa 00       		.byte	0
 2728 00ab 00       		.byte	0
 2729 00ac 0F       		.uleb128 0xf
 2730 00ad 0D       		.uleb128 0xd
 2731 00ae 00       		.byte	0
 2732 00af 03       		.uleb128 0x3
 2733 00b0 08       		.uleb128 0x8
 2734 00b1 3A       		.uleb128 0x3a
 2735 00b2 0B       		.uleb128 0xb
ARM GAS  C:\Users\TB1014~1\AppData\Local\Temp\ccTzyt2s.s 			page 77


 2736 00b3 3B       		.uleb128 0x3b
 2737 00b4 05       		.uleb128 0x5
 2738 00b5 49       		.uleb128 0x49
 2739 00b6 13       		.uleb128 0x13
 2740 00b7 38       		.uleb128 0x38
 2741 00b8 0B       		.uleb128 0xb
 2742 00b9 00       		.byte	0
 2743 00ba 00       		.byte	0
 2744 00bb 10       		.uleb128 0x10
 2745 00bc 13       		.uleb128 0x13
 2746 00bd 01       		.byte	0x1
 2747 00be 0B       		.uleb128 0xb
 2748 00bf 05       		.uleb128 0x5
 2749 00c0 3A       		.uleb128 0x3a
 2750 00c1 0B       		.uleb128 0xb
 2751 00c2 3B       		.uleb128 0x3b
 2752 00c3 05       		.uleb128 0x5
 2753 00c4 01       		.uleb128 0x1
 2754 00c5 13       		.uleb128 0x13
 2755 00c6 00       		.byte	0
 2756 00c7 00       		.byte	0
 2757 00c8 11       		.uleb128 0x11
 2758 00c9 0D       		.uleb128 0xd
 2759 00ca 00       		.byte	0
 2760 00cb 03       		.uleb128 0x3
 2761 00cc 0E       		.uleb128 0xe
 2762 00cd 3A       		.uleb128 0x3a
 2763 00ce 0B       		.uleb128 0xb
 2764 00cf 3B       		.uleb128 0x3b
 2765 00d0 05       		.uleb128 0x5
 2766 00d1 49       		.uleb128 0x49
 2767 00d2 13       		.uleb128 0x13
 2768 00d3 38       		.uleb128 0x38
 2769 00d4 05       		.uleb128 0x5
 2770 00d5 00       		.byte	0
 2771 00d6 00       		.byte	0
 2772 00d7 12       		.uleb128 0x12
 2773 00d8 26       		.uleb128 0x26
 2774 00d9 00       		.byte	0
 2775 00da 00       		.byte	0
 2776 00db 00       		.byte	0
 2777 00dc 13       		.uleb128 0x13
 2778 00dd 0F       		.uleb128 0xf
 2779 00de 00       		.byte	0
 2780 00df 0B       		.uleb128 0xb
 2781 00e0 0B       		.uleb128 0xb
 2782 00e1 00       		.byte	0
 2783 00e2 00       		.byte	0
 2784 00e3 14       		.uleb128 0x14
 2785 00e4 17       		.uleb128 0x17
 2786 00e5 01       		.byte	0x1
 2787 00e6 0B       		.uleb128 0xb
 2788 00e7 0B       		.uleb128 0xb
 2789 00e8 3A       		.uleb128 0x3a
 2790 00e9 0B       		.uleb128 0xb
 2791 00ea 3B       		.uleb128 0x3b
 2792 00eb 05       		.uleb128 0x5
ARM GAS  C:\Users\TB1014~1\AppData\Local\Temp\ccTzyt2s.s 			page 78


 2793 00ec 01       		.uleb128 0x1
 2794 00ed 13       		.uleb128 0x13
 2795 00ee 00       		.byte	0
 2796 00ef 00       		.byte	0
 2797 00f0 15       		.uleb128 0x15
 2798 00f1 0D       		.uleb128 0xd
 2799 00f2 00       		.byte	0
 2800 00f3 03       		.uleb128 0x3
 2801 00f4 08       		.uleb128 0x8
 2802 00f5 3A       		.uleb128 0x3a
 2803 00f6 0B       		.uleb128 0xb
 2804 00f7 3B       		.uleb128 0x3b
 2805 00f8 05       		.uleb128 0x5
 2806 00f9 49       		.uleb128 0x49
 2807 00fa 13       		.uleb128 0x13
 2808 00fb 00       		.byte	0
 2809 00fc 00       		.byte	0
 2810 00fd 16       		.uleb128 0x16
 2811 00fe 0D       		.uleb128 0xd
 2812 00ff 00       		.byte	0
 2813 0100 03       		.uleb128 0x3
 2814 0101 0E       		.uleb128 0xe
 2815 0102 3A       		.uleb128 0x3a
 2816 0103 0B       		.uleb128 0xb
 2817 0104 3B       		.uleb128 0x3b
 2818 0105 05       		.uleb128 0x5
 2819 0106 49       		.uleb128 0x49
 2820 0107 13       		.uleb128 0x13
 2821 0108 00       		.byte	0
 2822 0109 00       		.byte	0
 2823 010a 17       		.uleb128 0x17
 2824 010b 2E       		.uleb128 0x2e
 2825 010c 01       		.byte	0x1
 2826 010d 03       		.uleb128 0x3
 2827 010e 0E       		.uleb128 0xe
 2828 010f 3A       		.uleb128 0x3a
 2829 0110 0B       		.uleb128 0xb
 2830 0111 3B       		.uleb128 0x3b
 2831 0112 0B       		.uleb128 0xb
 2832 0113 27       		.uleb128 0x27
 2833 0114 19       		.uleb128 0x19
 2834 0115 20       		.uleb128 0x20
 2835 0116 0B       		.uleb128 0xb
 2836 0117 01       		.uleb128 0x1
 2837 0118 13       		.uleb128 0x13
 2838 0119 00       		.byte	0
 2839 011a 00       		.byte	0
 2840 011b 18       		.uleb128 0x18
 2841 011c 05       		.uleb128 0x5
 2842 011d 00       		.byte	0
 2843 011e 03       		.uleb128 0x3
 2844 011f 0E       		.uleb128 0xe
 2845 0120 3A       		.uleb128 0x3a
 2846 0121 0B       		.uleb128 0xb
 2847 0122 3B       		.uleb128 0x3b
 2848 0123 0B       		.uleb128 0xb
 2849 0124 49       		.uleb128 0x49
ARM GAS  C:\Users\TB1014~1\AppData\Local\Temp\ccTzyt2s.s 			page 79


 2850 0125 13       		.uleb128 0x13
 2851 0126 00       		.byte	0
 2852 0127 00       		.byte	0
 2853 0128 19       		.uleb128 0x19
 2854 0129 34       		.uleb128 0x34
 2855 012a 00       		.byte	0
 2856 012b 03       		.uleb128 0x3
 2857 012c 08       		.uleb128 0x8
 2858 012d 3A       		.uleb128 0x3a
 2859 012e 0B       		.uleb128 0xb
 2860 012f 3B       		.uleb128 0x3b
 2861 0130 0B       		.uleb128 0xb
 2862 0131 49       		.uleb128 0x49
 2863 0132 13       		.uleb128 0x13
 2864 0133 00       		.byte	0
 2865 0134 00       		.byte	0
 2866 0135 1A       		.uleb128 0x1a
 2867 0136 34       		.uleb128 0x34
 2868 0137 00       		.byte	0
 2869 0138 03       		.uleb128 0x3
 2870 0139 0E       		.uleb128 0xe
 2871 013a 3A       		.uleb128 0x3a
 2872 013b 0B       		.uleb128 0xb
 2873 013c 3B       		.uleb128 0x3b
 2874 013d 0B       		.uleb128 0xb
 2875 013e 49       		.uleb128 0x49
 2876 013f 13       		.uleb128 0x13
 2877 0140 00       		.byte	0
 2878 0141 00       		.byte	0
 2879 0142 1B       		.uleb128 0x1b
 2880 0143 26       		.uleb128 0x26
 2881 0144 00       		.byte	0
 2882 0145 49       		.uleb128 0x49
 2883 0146 13       		.uleb128 0x13
 2884 0147 00       		.byte	0
 2885 0148 00       		.byte	0
 2886 0149 1C       		.uleb128 0x1c
 2887 014a 2E       		.uleb128 0x2e
 2888 014b 01       		.byte	0x1
 2889 014c 03       		.uleb128 0x3
 2890 014d 0E       		.uleb128 0xe
 2891 014e 3A       		.uleb128 0x3a
 2892 014f 0B       		.uleb128 0xb
 2893 0150 3B       		.uleb128 0x3b
 2894 0151 05       		.uleb128 0x5
 2895 0152 27       		.uleb128 0x27
 2896 0153 19       		.uleb128 0x19
 2897 0154 20       		.uleb128 0x20
 2898 0155 0B       		.uleb128 0xb
 2899 0156 01       		.uleb128 0x1
 2900 0157 13       		.uleb128 0x13
 2901 0158 00       		.byte	0
 2902 0159 00       		.byte	0
 2903 015a 1D       		.uleb128 0x1d
 2904 015b 05       		.uleb128 0x5
 2905 015c 00       		.byte	0
 2906 015d 03       		.uleb128 0x3
ARM GAS  C:\Users\TB1014~1\AppData\Local\Temp\ccTzyt2s.s 			page 80


 2907 015e 0E       		.uleb128 0xe
 2908 015f 3A       		.uleb128 0x3a
 2909 0160 0B       		.uleb128 0xb
 2910 0161 3B       		.uleb128 0x3b
 2911 0162 05       		.uleb128 0x5
 2912 0163 49       		.uleb128 0x49
 2913 0164 13       		.uleb128 0x13
 2914 0165 00       		.byte	0
 2915 0166 00       		.byte	0
 2916 0167 1E       		.uleb128 0x1e
 2917 0168 34       		.uleb128 0x34
 2918 0169 00       		.byte	0
 2919 016a 03       		.uleb128 0x3
 2920 016b 0E       		.uleb128 0xe
 2921 016c 3A       		.uleb128 0x3a
 2922 016d 0B       		.uleb128 0xb
 2923 016e 3B       		.uleb128 0x3b
 2924 016f 05       		.uleb128 0x5
 2925 0170 49       		.uleb128 0x49
 2926 0171 13       		.uleb128 0x13
 2927 0172 00       		.byte	0
 2928 0173 00       		.byte	0
 2929 0174 1F       		.uleb128 0x1f
 2930 0175 2E       		.uleb128 0x2e
 2931 0176 01       		.byte	0x1
 2932 0177 3F       		.uleb128 0x3f
 2933 0178 19       		.uleb128 0x19
 2934 0179 03       		.uleb128 0x3
 2935 017a 0E       		.uleb128 0xe
 2936 017b 3A       		.uleb128 0x3a
 2937 017c 0B       		.uleb128 0xb
 2938 017d 3B       		.uleb128 0x3b
 2939 017e 05       		.uleb128 0x5
 2940 017f 27       		.uleb128 0x27
 2941 0180 19       		.uleb128 0x19
 2942 0181 11       		.uleb128 0x11
 2943 0182 01       		.uleb128 0x1
 2944 0183 12       		.uleb128 0x12
 2945 0184 06       		.uleb128 0x6
 2946 0185 40       		.uleb128 0x40
 2947 0186 18       		.uleb128 0x18
 2948 0187 9742     		.uleb128 0x2117
 2949 0189 19       		.uleb128 0x19
 2950 018a 01       		.uleb128 0x1
 2951 018b 13       		.uleb128 0x13
 2952 018c 00       		.byte	0
 2953 018d 00       		.byte	0
 2954 018e 20       		.uleb128 0x20
 2955 018f 34       		.uleb128 0x34
 2956 0190 00       		.byte	0
 2957 0191 03       		.uleb128 0x3
 2958 0192 0E       		.uleb128 0xe
 2959 0193 3A       		.uleb128 0x3a
 2960 0194 0B       		.uleb128 0xb
 2961 0195 3B       		.uleb128 0x3b
 2962 0196 05       		.uleb128 0x5
 2963 0197 49       		.uleb128 0x49
ARM GAS  C:\Users\TB1014~1\AppData\Local\Temp\ccTzyt2s.s 			page 81


 2964 0198 13       		.uleb128 0x13
 2965 0199 02       		.uleb128 0x2
 2966 019a 17       		.uleb128 0x17
 2967 019b 00       		.byte	0
 2968 019c 00       		.byte	0
 2969 019d 21       		.uleb128 0x21
 2970 019e 1D       		.uleb128 0x1d
 2971 019f 01       		.byte	0x1
 2972 01a0 31       		.uleb128 0x31
 2973 01a1 13       		.uleb128 0x13
 2974 01a2 11       		.uleb128 0x11
 2975 01a3 01       		.uleb128 0x1
 2976 01a4 12       		.uleb128 0x12
 2977 01a5 06       		.uleb128 0x6
 2978 01a6 58       		.uleb128 0x58
 2979 01a7 0B       		.uleb128 0xb
 2980 01a8 59       		.uleb128 0x59
 2981 01a9 05       		.uleb128 0x5
 2982 01aa 01       		.uleb128 0x1
 2983 01ab 13       		.uleb128 0x13
 2984 01ac 00       		.byte	0
 2985 01ad 00       		.byte	0
 2986 01ae 22       		.uleb128 0x22
 2987 01af 05       		.uleb128 0x5
 2988 01b0 00       		.byte	0
 2989 01b1 31       		.uleb128 0x31
 2990 01b2 13       		.uleb128 0x13
 2991 01b3 02       		.uleb128 0x2
 2992 01b4 17       		.uleb128 0x17
 2993 01b5 00       		.byte	0
 2994 01b6 00       		.byte	0
 2995 01b7 23       		.uleb128 0x23
 2996 01b8 0B       		.uleb128 0xb
 2997 01b9 01       		.byte	0x1
 2998 01ba 11       		.uleb128 0x11
 2999 01bb 01       		.uleb128 0x1
 3000 01bc 12       		.uleb128 0x12
 3001 01bd 06       		.uleb128 0x6
 3002 01be 00       		.byte	0
 3003 01bf 00       		.byte	0
 3004 01c0 24       		.uleb128 0x24
 3005 01c1 34       		.uleb128 0x34
 3006 01c2 00       		.byte	0
 3007 01c3 31       		.uleb128 0x31
 3008 01c4 13       		.uleb128 0x13
 3009 01c5 02       		.uleb128 0x2
 3010 01c6 17       		.uleb128 0x17
 3011 01c7 00       		.byte	0
 3012 01c8 00       		.byte	0
 3013 01c9 25       		.uleb128 0x25
 3014 01ca 898201   		.uleb128 0x4109
 3015 01cd 00       		.byte	0
 3016 01ce 11       		.uleb128 0x11
 3017 01cf 01       		.uleb128 0x1
 3018 01d0 31       		.uleb128 0x31
 3019 01d1 13       		.uleb128 0x13
 3020 01d2 00       		.byte	0
ARM GAS  C:\Users\TB1014~1\AppData\Local\Temp\ccTzyt2s.s 			page 82


 3021 01d3 00       		.byte	0
 3022 01d4 26       		.uleb128 0x26
 3023 01d5 05       		.uleb128 0x5
 3024 01d6 00       		.byte	0
 3025 01d7 03       		.uleb128 0x3
 3026 01d8 0E       		.uleb128 0xe
 3027 01d9 3A       		.uleb128 0x3a
 3028 01da 0B       		.uleb128 0xb
 3029 01db 3B       		.uleb128 0x3b
 3030 01dc 05       		.uleb128 0x5
 3031 01dd 49       		.uleb128 0x49
 3032 01de 13       		.uleb128 0x13
 3033 01df 02       		.uleb128 0x2
 3034 01e0 18       		.uleb128 0x18
 3035 01e1 00       		.byte	0
 3036 01e2 00       		.byte	0
 3037 01e3 27       		.uleb128 0x27
 3038 01e4 2E       		.uleb128 0x2e
 3039 01e5 01       		.byte	0x1
 3040 01e6 3F       		.uleb128 0x3f
 3041 01e7 19       		.uleb128 0x19
 3042 01e8 03       		.uleb128 0x3
 3043 01e9 0E       		.uleb128 0xe
 3044 01ea 3A       		.uleb128 0x3a
 3045 01eb 0B       		.uleb128 0xb
 3046 01ec 3B       		.uleb128 0x3b
 3047 01ed 05       		.uleb128 0x5
 3048 01ee 27       		.uleb128 0x27
 3049 01ef 19       		.uleb128 0x19
 3050 01f0 49       		.uleb128 0x49
 3051 01f1 13       		.uleb128 0x13
 3052 01f2 11       		.uleb128 0x11
 3053 01f3 01       		.uleb128 0x1
 3054 01f4 12       		.uleb128 0x12
 3055 01f5 06       		.uleb128 0x6
 3056 01f6 40       		.uleb128 0x40
 3057 01f7 18       		.uleb128 0x18
 3058 01f8 9742     		.uleb128 0x2117
 3059 01fa 19       		.uleb128 0x19
 3060 01fb 01       		.uleb128 0x1
 3061 01fc 13       		.uleb128 0x13
 3062 01fd 00       		.byte	0
 3063 01fe 00       		.byte	0
 3064 01ff 28       		.uleb128 0x28
 3065 0200 05       		.uleb128 0x5
 3066 0201 00       		.byte	0
 3067 0202 03       		.uleb128 0x3
 3068 0203 0E       		.uleb128 0xe
 3069 0204 3A       		.uleb128 0x3a
 3070 0205 0B       		.uleb128 0xb
 3071 0206 3B       		.uleb128 0x3b
 3072 0207 05       		.uleb128 0x5
 3073 0208 49       		.uleb128 0x49
 3074 0209 13       		.uleb128 0x13
 3075 020a 02       		.uleb128 0x2
 3076 020b 17       		.uleb128 0x17
 3077 020c 00       		.byte	0
ARM GAS  C:\Users\TB1014~1\AppData\Local\Temp\ccTzyt2s.s 			page 83


 3078 020d 00       		.byte	0
 3079 020e 29       		.uleb128 0x29
 3080 020f 34       		.uleb128 0x34
 3081 0210 00       		.byte	0
 3082 0211 03       		.uleb128 0x3
 3083 0212 0E       		.uleb128 0xe
 3084 0213 3A       		.uleb128 0x3a
 3085 0214 0B       		.uleb128 0xb
 3086 0215 3B       		.uleb128 0x3b
 3087 0216 05       		.uleb128 0x5
 3088 0217 49       		.uleb128 0x49
 3089 0218 13       		.uleb128 0x13
 3090 0219 02       		.uleb128 0x2
 3091 021a 18       		.uleb128 0x18
 3092 021b 00       		.byte	0
 3093 021c 00       		.byte	0
 3094 021d 2A       		.uleb128 0x2a
 3095 021e 898201   		.uleb128 0x4109
 3096 0221 01       		.byte	0x1
 3097 0222 11       		.uleb128 0x11
 3098 0223 01       		.uleb128 0x1
 3099 0224 31       		.uleb128 0x31
 3100 0225 13       		.uleb128 0x13
 3101 0226 01       		.uleb128 0x1
 3102 0227 13       		.uleb128 0x13
 3103 0228 00       		.byte	0
 3104 0229 00       		.byte	0
 3105 022a 2B       		.uleb128 0x2b
 3106 022b 8A8201   		.uleb128 0x410a
 3107 022e 00       		.byte	0
 3108 022f 02       		.uleb128 0x2
 3109 0230 18       		.uleb128 0x18
 3110 0231 9142     		.uleb128 0x2111
 3111 0233 18       		.uleb128 0x18
 3112 0234 00       		.byte	0
 3113 0235 00       		.byte	0
 3114 0236 2C       		.uleb128 0x2c
 3115 0237 898201   		.uleb128 0x4109
 3116 023a 01       		.byte	0x1
 3117 023b 11       		.uleb128 0x11
 3118 023c 01       		.uleb128 0x1
 3119 023d 31       		.uleb128 0x31
 3120 023e 13       		.uleb128 0x13
 3121 023f 00       		.byte	0
 3122 0240 00       		.byte	0
 3123 0241 2D       		.uleb128 0x2d
 3124 0242 34       		.uleb128 0x34
 3125 0243 00       		.byte	0
 3126 0244 03       		.uleb128 0x3
 3127 0245 0E       		.uleb128 0xe
 3128 0246 3A       		.uleb128 0x3a
 3129 0247 0B       		.uleb128 0xb
 3130 0248 3B       		.uleb128 0x3b
 3131 0249 05       		.uleb128 0x5
 3132 024a 49       		.uleb128 0x49
 3133 024b 13       		.uleb128 0x13
 3134 024c 3F       		.uleb128 0x3f
ARM GAS  C:\Users\TB1014~1\AppData\Local\Temp\ccTzyt2s.s 			page 84


 3135 024d 19       		.uleb128 0x19
 3136 024e 3C       		.uleb128 0x3c
 3137 024f 19       		.uleb128 0x19
 3138 0250 00       		.byte	0
 3139 0251 00       		.byte	0
 3140 0252 2E       		.uleb128 0x2e
 3141 0253 2E       		.uleb128 0x2e
 3142 0254 01       		.byte	0x1
 3143 0255 3F       		.uleb128 0x3f
 3144 0256 19       		.uleb128 0x19
 3145 0257 03       		.uleb128 0x3
 3146 0258 0E       		.uleb128 0xe
 3147 0259 3A       		.uleb128 0x3a
 3148 025a 0B       		.uleb128 0xb
 3149 025b 3B       		.uleb128 0x3b
 3150 025c 0B       		.uleb128 0xb
 3151 025d 27       		.uleb128 0x27
 3152 025e 19       		.uleb128 0x19
 3153 025f 49       		.uleb128 0x49
 3154 0260 13       		.uleb128 0x13
 3155 0261 3C       		.uleb128 0x3c
 3156 0262 19       		.uleb128 0x19
 3157 0263 01       		.uleb128 0x1
 3158 0264 13       		.uleb128 0x13
 3159 0265 00       		.byte	0
 3160 0266 00       		.byte	0
 3161 0267 2F       		.uleb128 0x2f
 3162 0268 05       		.uleb128 0x5
 3163 0269 00       		.byte	0
 3164 026a 49       		.uleb128 0x49
 3165 026b 13       		.uleb128 0x13
 3166 026c 00       		.byte	0
 3167 026d 00       		.byte	0
 3168 026e 30       		.uleb128 0x30
 3169 026f 2E       		.uleb128 0x2e
 3170 0270 01       		.byte	0x1
 3171 0271 3F       		.uleb128 0x3f
 3172 0272 19       		.uleb128 0x19
 3173 0273 03       		.uleb128 0x3
 3174 0274 0E       		.uleb128 0xe
 3175 0275 3A       		.uleb128 0x3a
 3176 0276 0B       		.uleb128 0xb
 3177 0277 3B       		.uleb128 0x3b
 3178 0278 0B       		.uleb128 0xb
 3179 0279 27       		.uleb128 0x27
 3180 027a 19       		.uleb128 0x19
 3181 027b 3C       		.uleb128 0x3c
 3182 027c 19       		.uleb128 0x19
 3183 027d 01       		.uleb128 0x1
 3184 027e 13       		.uleb128 0x13
 3185 027f 00       		.byte	0
 3186 0280 00       		.byte	0
 3187 0281 31       		.uleb128 0x31
 3188 0282 2E       		.uleb128 0x2e
 3189 0283 01       		.byte	0x1
 3190 0284 3F       		.uleb128 0x3f
 3191 0285 19       		.uleb128 0x19
ARM GAS  C:\Users\TB1014~1\AppData\Local\Temp\ccTzyt2s.s 			page 85


 3192 0286 03       		.uleb128 0x3
 3193 0287 0E       		.uleb128 0xe
 3194 0288 3A       		.uleb128 0x3a
 3195 0289 0B       		.uleb128 0xb
 3196 028a 3B       		.uleb128 0x3b
 3197 028b 0B       		.uleb128 0xb
 3198 028c 27       		.uleb128 0x27
 3199 028d 19       		.uleb128 0x19
 3200 028e 3C       		.uleb128 0x3c
 3201 028f 19       		.uleb128 0x19
 3202 0290 00       		.byte	0
 3203 0291 00       		.byte	0
 3204 0292 00       		.byte	0
 3205              		.section	.debug_loc,"",%progbits
 3206              	.Ldebug_loc0:
 3207              	.LLST0:
 3208 0000 02000000 		.4byte	.LVL0
 3209 0004 06000000 		.4byte	.LVL1
 3210 0008 0200     		.2byte	0x2
 3211 000a 30       		.byte	0x30
 3212 000b 9F       		.byte	0x9f
 3213 000c 06000000 		.4byte	.LVL1
 3214 0010 26000000 		.4byte	.LVL3
 3215 0014 0100     		.2byte	0x1
 3216 0016 53       		.byte	0x53
 3217 0017 28000000 		.4byte	.LVL4
 3218 001b 7A000000 		.4byte	.LVL17
 3219 001f 0100     		.2byte	0x1
 3220 0021 55       		.byte	0x55
 3221 0022 7A000000 		.4byte	.LVL17
 3222 0026 7C000000 		.4byte	.LVL18
 3223 002a 0100     		.2byte	0x1
 3224 002c 53       		.byte	0x53
 3225 002d 7C000000 		.4byte	.LVL18
 3226 0031 80000000 		.4byte	.LVL20
 3227 0035 0100     		.2byte	0x1
 3228 0037 55       		.byte	0x55
 3229 0038 80000000 		.4byte	.LVL20
 3230 003c 8C000000 		.4byte	.LFE2
 3231 0040 0300     		.2byte	0x3
 3232 0042 73       		.byte	0x73
 3233 0043 7F       		.sleb128 -1
 3234 0044 9F       		.byte	0x9f
 3235 0045 00000000 		.4byte	0
 3236 0049 00000000 		.4byte	0
 3237              	.LLST1:
 3238 004d 2C000000 		.4byte	.LVL6
 3239 0051 4C000000 		.4byte	.LVL7
 3240 0055 0100     		.2byte	0x1
 3241 0057 52       		.byte	0x52
 3242 0058 52000000 		.4byte	.LVL9
 3243 005c 5A000000 		.4byte	.LVL10
 3244 0060 0100     		.2byte	0x1
 3245 0062 52       		.byte	0x52
 3246 0063 00000000 		.4byte	0
 3247 0067 00000000 		.4byte	0
 3248              	.LLST2:
ARM GAS  C:\Users\TB1014~1\AppData\Local\Temp\ccTzyt2s.s 			page 86


 3249 006b 2A000000 		.4byte	.LVL5
 3250 006f 7A000000 		.4byte	.LVL17
 3251 0073 0100     		.2byte	0x1
 3252 0075 56       		.byte	0x56
 3253 0076 00000000 		.4byte	0
 3254 007a 00000000 		.4byte	0
 3255              	.LLST3:
 3256 007e 28000000 		.4byte	.LVL4
 3257 0082 80000000 		.4byte	.LVL19
 3258 0086 0100     		.2byte	0x1
 3259 0088 54       		.byte	0x54
 3260 0089 00000000 		.4byte	0
 3261 008d 00000000 		.4byte	0
 3262              	.LLST4:
 3263 0091 5C000000 		.4byte	.LVL11
 3264 0095 76000000 		.4byte	.LVL15
 3265 0099 0100     		.2byte	0x1
 3266 009b 54       		.byte	0x54
 3267 009c 00000000 		.4byte	0
 3268 00a0 00000000 		.4byte	0
 3269              	.LLST5:
 3270 00a4 5E000000 		.4byte	.LVL12
 3271 00a8 62000000 		.4byte	.LVL13
 3272 00ac 0200     		.2byte	0x2
 3273 00ae 30       		.byte	0x30
 3274 00af 9F       		.byte	0x9f
 3275 00b0 62000000 		.4byte	.LVL13
 3276 00b4 76000000 		.4byte	.LVL15
 3277 00b8 0100     		.2byte	0x1
 3278 00ba 53       		.byte	0x53
 3279 00bb 00000000 		.4byte	0
 3280 00bf 00000000 		.4byte	0
 3281              	.LLST6:
 3282 00c3 5E000000 		.4byte	.LVL12
 3283 00c7 76000000 		.4byte	.LVL15
 3284 00cb 0100     		.2byte	0x1
 3285 00cd 51       		.byte	0x51
 3286 00ce 00000000 		.4byte	0
 3287 00d2 00000000 		.4byte	0
 3288              	.LLST7:
 3289 00d6 00000000 		.4byte	.LVL21
 3290 00da 06000000 		.4byte	.LVL22
 3291 00de 0200     		.2byte	0x2
 3292 00e0 30       		.byte	0x30
 3293 00e1 9F       		.byte	0x9f
 3294 00e2 06000000 		.4byte	.LVL22
 3295 00e6 14000000 		.4byte	.LFE6
 3296 00ea 0100     		.2byte	0x1
 3297 00ec 53       		.byte	0x53
 3298 00ed 00000000 		.4byte	0
 3299 00f1 00000000 		.4byte	0
 3300              	.LLST8:
 3301 00f5 00000000 		.4byte	.LVL23
 3302 00f9 2C000000 		.4byte	.LVL30
 3303 00fd 0100     		.2byte	0x1
 3304 00ff 50       		.byte	0x50
 3305 0100 2C000000 		.4byte	.LVL30
ARM GAS  C:\Users\TB1014~1\AppData\Local\Temp\ccTzyt2s.s 			page 87


 3306 0104 60000000 		.4byte	.LVL42
 3307 0108 0100     		.2byte	0x1
 3308 010a 56       		.byte	0x56
 3309 010b 60000000 		.4byte	.LVL42
 3310 010f 66000000 		.4byte	.LFE3
 3311 0113 0400     		.2byte	0x4
 3312 0115 F3       		.byte	0xf3
 3313 0116 01       		.uleb128 0x1
 3314 0117 50       		.byte	0x50
 3315 0118 9F       		.byte	0x9f
 3316 0119 00000000 		.4byte	0
 3317 011d 00000000 		.4byte	0
 3318              	.LLST9:
 3319 0121 0A000000 		.4byte	.LVL24
 3320 0125 2C000000 		.4byte	.LVL30
 3321 0129 0200     		.2byte	0x2
 3322 012b 30       		.byte	0x30
 3323 012c 9F       		.byte	0x9f
 3324 012d 2C000000 		.4byte	.LVL30
 3325 0131 42000000 		.4byte	.LVL33
 3326 0135 0200     		.2byte	0x2
 3327 0137 91       		.byte	0x91
 3328 0138 64       		.sleb128 -28
 3329 0139 42000000 		.4byte	.LVL33
 3330 013d 44000000 		.4byte	.LVL34
 3331 0141 0100     		.2byte	0x1
 3332 0143 50       		.byte	0x50
 3333 0144 44000000 		.4byte	.LVL34
 3334 0148 66000000 		.4byte	.LFE3
 3335 014c 0200     		.2byte	0x2
 3336 014e 91       		.byte	0x91
 3337 014f 64       		.sleb128 -28
 3338 0150 00000000 		.4byte	0
 3339 0154 00000000 		.4byte	0
 3340              	.LLST10:
 3341 0158 24000000 		.4byte	.LVL29
 3342 015c 2C000000 		.4byte	.LVL30
 3343 0160 0200     		.2byte	0x2
 3344 0162 30       		.byte	0x30
 3345 0163 9F       		.byte	0x9f
 3346 0164 2C000000 		.4byte	.LVL30
 3347 0168 60000000 		.4byte	.LVL43
 3348 016c 0100     		.2byte	0x1
 3349 016e 57       		.byte	0x57
 3350 016f 00000000 		.4byte	0
 3351 0173 00000000 		.4byte	0
 3352              	.LLST11:
 3353 0177 1E000000 		.4byte	.LVL27
 3354 017b 60000000 		.4byte	.LVL40
 3355 017f 0100     		.2byte	0x1
 3356 0181 54       		.byte	0x54
 3357 0182 00000000 		.4byte	0
 3358 0186 00000000 		.4byte	0
 3359              	.LLST12:
 3360 018a 22000000 		.4byte	.LVL28
 3361 018e 2C000000 		.4byte	.LVL30
 3362 0192 0100     		.2byte	0x1
ARM GAS  C:\Users\TB1014~1\AppData\Local\Temp\ccTzyt2s.s 			page 88


 3363 0194 52       		.byte	0x52
 3364 0195 2C000000 		.4byte	.LVL30
 3365 0199 66000000 		.4byte	.LFE3
 3366 019d 0200     		.2byte	0x2
 3367 019f 91       		.byte	0x91
 3368 01a0 5C       		.sleb128 -36
 3369 01a1 00000000 		.4byte	0
 3370 01a5 00000000 		.4byte	0
 3371              	.LLST13:
 3372 01a9 2C000000 		.4byte	.LVL30
 3373 01ad 60000000 		.4byte	.LVL41
 3374 01b1 0100     		.2byte	0x1
 3375 01b3 55       		.byte	0x55
 3376 01b4 00000000 		.4byte	0
 3377 01b8 00000000 		.4byte	0
 3378              	.LLST14:
 3379 01bc 1A000000 		.4byte	.LVL25
 3380 01c0 52000000 		.4byte	.LVL37
 3381 01c4 0100     		.2byte	0x1
 3382 01c6 5B       		.byte	0x5b
 3383 01c7 52000000 		.4byte	.LVL37
 3384 01cb 56000000 		.4byte	.LVL39
 3385 01cf 0100     		.2byte	0x1
 3386 01d1 53       		.byte	0x53
 3387 01d2 56000000 		.4byte	.LVL39
 3388 01d6 60000000 		.4byte	.LVL44
 3389 01da 0100     		.2byte	0x1
 3390 01dc 5B       		.byte	0x5b
 3391 01dd 00000000 		.4byte	0
 3392 01e1 00000000 		.4byte	0
 3393              	.LLST15:
 3394 01e5 00000000 		.4byte	.LVL45
 3395 01e9 10000000 		.4byte	.LVL50
 3396 01ed 0100     		.2byte	0x1
 3397 01ef 50       		.byte	0x50
 3398 01f0 10000000 		.4byte	.LVL50
 3399 01f4 3A000000 		.4byte	.LFE4
 3400 01f8 0400     		.2byte	0x4
 3401 01fa F3       		.byte	0xf3
 3402 01fb 01       		.uleb128 0x1
 3403 01fc 50       		.byte	0x50
 3404 01fd 9F       		.byte	0x9f
 3405 01fe 00000000 		.4byte	0
 3406 0202 00000000 		.4byte	0
 3407              	.LLST16:
 3408 0206 00000000 		.4byte	.LVL45
 3409 020a 15000000 		.4byte	.LVL52-1
 3410 020e 0100     		.2byte	0x1
 3411 0210 51       		.byte	0x51
 3412 0211 15000000 		.4byte	.LVL52-1
 3413 0215 38000000 		.4byte	.LVL61
 3414 0219 0100     		.2byte	0x1
 3415 021b 56       		.byte	0x56
 3416 021c 38000000 		.4byte	.LVL61
 3417 0220 3A000000 		.4byte	.LFE4
 3418 0224 0400     		.2byte	0x4
 3419 0226 F3       		.byte	0xf3
ARM GAS  C:\Users\TB1014~1\AppData\Local\Temp\ccTzyt2s.s 			page 89


 3420 0227 01       		.uleb128 0x1
 3421 0228 51       		.byte	0x51
 3422 0229 9F       		.byte	0x9f
 3423 022a 00000000 		.4byte	0
 3424 022e 00000000 		.4byte	0
 3425              	.LLST17:
 3426 0232 00000000 		.4byte	.LVL45
 3427 0236 12000000 		.4byte	.LVL51
 3428 023a 0100     		.2byte	0x1
 3429 023c 52       		.byte	0x52
 3430 023d 16000000 		.4byte	.LVL52
 3431 0241 20000000 		.4byte	.LVL53
 3432 0245 0100     		.2byte	0x1
 3433 0247 52       		.byte	0x52
 3434 0248 28000000 		.4byte	.LVL56
 3435 024c 35000000 		.4byte	.LVL58-1
 3436 0250 0100     		.2byte	0x1
 3437 0252 52       		.byte	0x52
 3438 0253 36000000 		.4byte	.LVL58
 3439 0257 3A000000 		.4byte	.LFE4
 3440 025b 0100     		.2byte	0x1
 3441 025d 52       		.byte	0x52
 3442 025e 00000000 		.4byte	0
 3443 0262 00000000 		.4byte	0
 3444              	.LLST18:
 3445 0266 00000000 		.4byte	.LVL45
 3446 026a 0E000000 		.4byte	.LVL49
 3447 026e 0100     		.2byte	0x1
 3448 0270 53       		.byte	0x53
 3449 0271 0E000000 		.4byte	.LVL49
 3450 0275 38000000 		.4byte	.LVL59
 3451 0279 0100     		.2byte	0x1
 3452 027b 54       		.byte	0x54
 3453 027c 38000000 		.4byte	.LVL59
 3454 0280 3A000000 		.4byte	.LFE4
 3455 0284 0400     		.2byte	0x4
 3456 0286 F3       		.byte	0xf3
 3457 0287 01       		.uleb128 0x1
 3458 0288 53       		.byte	0x53
 3459 0289 9F       		.byte	0x9f
 3460 028a 00000000 		.4byte	0
 3461 028e 00000000 		.4byte	0
 3462              	.LLST19:
 3463 0292 06000000 		.4byte	.LVL46
 3464 0296 26000000 		.4byte	.LVL55
 3465 029a 0200     		.2byte	0x2
 3466 029c 30       		.byte	0x30
 3467 029d 9F       		.byte	0x9f
 3468 029e 26000000 		.4byte	.LVL55
 3469 02a2 28000000 		.4byte	.LVL56
 3470 02a6 0100     		.2byte	0x1
 3471 02a8 50       		.byte	0x50
 3472 02a9 28000000 		.4byte	.LVL56
 3473 02ad 2A000000 		.4byte	.LVL57
 3474 02b1 0200     		.2byte	0x2
 3475 02b3 30       		.byte	0x30
 3476 02b4 9F       		.byte	0x9f
ARM GAS  C:\Users\TB1014~1\AppData\Local\Temp\ccTzyt2s.s 			page 90


 3477 02b5 2A000000 		.4byte	.LVL57
 3478 02b9 38000000 		.4byte	.LVL60
 3479 02bd 0100     		.2byte	0x1
 3480 02bf 55       		.byte	0x55
 3481 02c0 38000000 		.4byte	.LVL60
 3482 02c4 3A000000 		.4byte	.LFE4
 3483 02c8 0100     		.2byte	0x1
 3484 02ca 50       		.byte	0x50
 3485 02cb 00000000 		.4byte	0
 3486 02cf 00000000 		.4byte	0
 3487              	.LLST20:
 3488 02d3 08000000 		.4byte	.LVL47
 3489 02d7 26000000 		.4byte	.LVL55
 3490 02db 0100     		.2byte	0x1
 3491 02dd 55       		.byte	0x55
 3492 02de 28000000 		.4byte	.LVL56
 3493 02e2 2A000000 		.4byte	.LVL57
 3494 02e6 0100     		.2byte	0x1
 3495 02e8 55       		.byte	0x55
 3496 02e9 00000000 		.4byte	0
 3497 02ed 00000000 		.4byte	0
 3498              	.LLST21:
 3499 02f1 0A000000 		.4byte	.LVL48
 3500 02f5 38000000 		.4byte	.LVL62
 3501 02f9 0100     		.2byte	0x1
 3502 02fb 57       		.byte	0x57
 3503 02fc 00000000 		.4byte	0
 3504 0300 00000000 		.4byte	0
 3505              	.LLST22:
 3506 0304 00000000 		.4byte	.LVL63
 3507 0308 44000000 		.4byte	.LVL75
 3508 030c 0100     		.2byte	0x1
 3509 030e 50       		.byte	0x50
 3510 030f 44000000 		.4byte	.LVL75
 3511 0313 64000000 		.4byte	.LFE7
 3512 0317 0100     		.2byte	0x1
 3513 0319 50       		.byte	0x50
 3514 031a 00000000 		.4byte	0
 3515 031e 00000000 		.4byte	0
 3516              	.LLST23:
 3517 0322 00000000 		.4byte	.LVL63
 3518 0326 0C000000 		.4byte	.LVL68
 3519 032a 0100     		.2byte	0x1
 3520 032c 51       		.byte	0x51
 3521 032d 0C000000 		.4byte	.LVL68
 3522 0331 64000000 		.4byte	.LFE7
 3523 0335 0400     		.2byte	0x4
 3524 0337 F3       		.byte	0xf3
 3525 0338 01       		.uleb128 0x1
 3526 0339 51       		.byte	0x51
 3527 033a 9F       		.byte	0x9f
 3528 033b 00000000 		.4byte	0
 3529 033f 00000000 		.4byte	0
 3530              	.LLST24:
 3531 0343 04000000 		.4byte	.LVL64
 3532 0347 0E000000 		.4byte	.LVL69
 3533 034b 0100     		.2byte	0x1
ARM GAS  C:\Users\TB1014~1\AppData\Local\Temp\ccTzyt2s.s 			page 91


 3534 034d 52       		.byte	0x52
 3535 034e 0E000000 		.4byte	.LVL69
 3536 0352 10000000 		.4byte	.LVL70
 3537 0356 0100     		.2byte	0x1
 3538 0358 54       		.byte	0x54
 3539 0359 10000000 		.4byte	.LVL70
 3540 035d 5A000000 		.4byte	.LVL83
 3541 0361 0100     		.2byte	0x1
 3542 0363 5C       		.byte	0x5c
 3543 0364 5A000000 		.4byte	.LVL83
 3544 0368 5E000000 		.4byte	.LVL84
 3545 036c 0100     		.2byte	0x1
 3546 036e 52       		.byte	0x52
 3547 036f 5E000000 		.4byte	.LVL84
 3548 0373 62000000 		.4byte	.LVL85
 3549 0377 0100     		.2byte	0x1
 3550 0379 54       		.byte	0x54
 3551 037a 62000000 		.4byte	.LVL85
 3552 037e 64000000 		.4byte	.LFE7
 3553 0382 0100     		.2byte	0x1
 3554 0384 5C       		.byte	0x5c
 3555 0385 00000000 		.4byte	0
 3556 0389 00000000 		.4byte	0
 3557              	.LLST25:
 3558 038d 0A000000 		.4byte	.LVL67
 3559 0391 0E000000 		.4byte	.LVL69
 3560 0395 0200     		.2byte	0x2
 3561 0397 31       		.byte	0x31
 3562 0398 9F       		.byte	0x9f
 3563 0399 0E000000 		.4byte	.LVL69
 3564 039d 64000000 		.4byte	.LFE7
 3565 03a1 0100     		.2byte	0x1
 3566 03a3 51       		.byte	0x51
 3567 03a4 00000000 		.4byte	0
 3568 03a8 00000000 		.4byte	0
 3569              	.LLST26:
 3570 03ac 2E000000 		.4byte	.LVL74
 3571 03b0 4C000000 		.4byte	.LVL77
 3572 03b4 0100     		.2byte	0x1
 3573 03b6 52       		.byte	0x52
 3574 03b7 4E000000 		.4byte	.LVL78
 3575 03bb 50000000 		.4byte	.LVL79
 3576 03bf 0100     		.2byte	0x1
 3577 03c1 52       		.byte	0x52
 3578 03c2 00000000 		.4byte	0
 3579 03c6 00000000 		.4byte	0
 3580              	.LLST27:
 3581 03ca 22000000 		.4byte	.LVL71
 3582 03ce 2A000000 		.4byte	.LVL72
 3583 03d2 0100     		.2byte	0x1
 3584 03d4 52       		.byte	0x52
 3585 03d5 2C000000 		.4byte	.LVL73
 3586 03d9 2E000000 		.4byte	.LVL74
 3587 03dd 0100     		.2byte	0x1
 3588 03df 52       		.byte	0x52
 3589 03e0 00000000 		.4byte	0
 3590 03e4 00000000 		.4byte	0
ARM GAS  C:\Users\TB1014~1\AppData\Local\Temp\ccTzyt2s.s 			page 92


 3591              	.LLST28:
 3592 03e8 06000000 		.4byte	.LVL65
 3593 03ec 62000000 		.4byte	.LVL86
 3594 03f0 0100     		.2byte	0x1
 3595 03f2 55       		.byte	0x55
 3596 03f3 00000000 		.4byte	0
 3597 03f7 00000000 		.4byte	0
 3598              	.LLST29:
 3599 03fb 08000000 		.4byte	.LVL66
 3600 03ff 62000000 		.4byte	.LVL87
 3601 0403 0100     		.2byte	0x1
 3602 0405 57       		.byte	0x57
 3603 0406 00000000 		.4byte	0
 3604 040a 00000000 		.4byte	0
 3605              	.LLST30:
 3606 040e 00000000 		.4byte	.LVL88
 3607 0412 12000000 		.4byte	.LVL93
 3608 0416 0100     		.2byte	0x1
 3609 0418 50       		.byte	0x50
 3610 0419 12000000 		.4byte	.LVL93
 3611 041d 22000000 		.4byte	.LVL96
 3612 0421 0100     		.2byte	0x1
 3613 0423 5C       		.byte	0x5c
 3614 0424 22000000 		.4byte	.LVL96
 3615 0428 26000000 		.4byte	.LVL97
 3616 042c 0100     		.2byte	0x1
 3617 042e 50       		.byte	0x50
 3618 042f 26000000 		.4byte	.LVL97
 3619 0433 6A000000 		.4byte	.LVL108
 3620 0437 0100     		.2byte	0x1
 3621 0439 5C       		.byte	0x5c
 3622 043a 6A000000 		.4byte	.LVL108
 3623 043e 6C000000 		.4byte	.LVL109
 3624 0442 0200     		.2byte	0x2
 3625 0444 30       		.byte	0x30
 3626 0445 9F       		.byte	0x9f
 3627 0446 6C000000 		.4byte	.LVL109
 3628 044a 6E000000 		.4byte	.LVL110
 3629 044e 0100     		.2byte	0x1
 3630 0450 5C       		.byte	0x5c
 3631 0451 6E000000 		.4byte	.LVL110
 3632 0455 D6000000 		.4byte	.LVL125
 3633 0459 0100     		.2byte	0x1
 3634 045b 54       		.byte	0x54
 3635 045c D6000000 		.4byte	.LVL125
 3636 0460 DC000000 		.4byte	.LFE8
 3637 0464 0100     		.2byte	0x1
 3638 0466 50       		.byte	0x50
 3639 0467 00000000 		.4byte	0
 3640 046b 00000000 		.4byte	0
 3641              	.LLST31:
 3642 046f 00000000 		.4byte	.LVL88
 3643 0473 80000000 		.4byte	.LVL114
 3644 0477 0100     		.2byte	0x1
 3645 0479 51       		.byte	0x51
 3646 047a 80000000 		.4byte	.LVL114
 3647 047e BA000000 		.4byte	.LVL120
ARM GAS  C:\Users\TB1014~1\AppData\Local\Temp\ccTzyt2s.s 			page 93


 3648 0482 0100     		.2byte	0x1
 3649 0484 56       		.byte	0x56
 3650 0485 BA000000 		.4byte	.LVL120
 3651 0489 BE000000 		.4byte	.LVL122
 3652 048d 0100     		.2byte	0x1
 3653 048f 51       		.byte	0x51
 3654 0490 BE000000 		.4byte	.LVL122
 3655 0494 DC000000 		.4byte	.LFE8
 3656 0498 0400     		.2byte	0x4
 3657 049a F3       		.byte	0xf3
 3658 049b 01       		.uleb128 0x1
 3659 049c 51       		.byte	0x51
 3660 049d 9F       		.byte	0x9f
 3661 049e 00000000 		.4byte	0
 3662 04a2 00000000 		.4byte	0
 3663              	.LLST32:
 3664 04a6 0C000000 		.4byte	.LVL90
 3665 04aa 2E000000 		.4byte	.LVL99
 3666 04ae 0100     		.2byte	0x1
 3667 04b0 53       		.byte	0x53
 3668 04b1 2E000000 		.4byte	.LVL99
 3669 04b5 42000000 		.4byte	.LVL103
 3670 04b9 0100     		.2byte	0x1
 3671 04bb 57       		.byte	0x57
 3672 04bc 42000000 		.4byte	.LVL103
 3673 04c0 44000000 		.4byte	.LVL104
 3674 04c4 0100     		.2byte	0x1
 3675 04c6 53       		.byte	0x53
 3676 04c7 44000000 		.4byte	.LVL104
 3677 04cb D6000000 		.4byte	.LVL127
 3678 04cf 0100     		.2byte	0x1
 3679 04d1 57       		.byte	0x57
 3680 04d2 00000000 		.4byte	0
 3681 04d6 00000000 		.4byte	0
 3682              	.LLST33:
 3683 04da 28000000 		.4byte	.LVL98
 3684 04de 2E000000 		.4byte	.LVL99
 3685 04e2 0200     		.2byte	0x2
 3686 04e4 31       		.byte	0x31
 3687 04e5 9F       		.byte	0x9f
 3688 04e6 2E000000 		.4byte	.LVL99
 3689 04ea 74000000 		.4byte	.LVL111
 3690 04ee 0100     		.2byte	0x1
 3691 04f0 56       		.byte	0x56
 3692 04f1 BA000000 		.4byte	.LVL120
 3693 04f5 BE000000 		.4byte	.LVL122
 3694 04f9 0100     		.2byte	0x1
 3695 04fb 56       		.byte	0x56
 3696 04fc 00000000 		.4byte	0
 3697 0500 00000000 		.4byte	0
 3698              	.LLST34:
 3699 0504 28000000 		.4byte	.LVL98
 3700 0508 7A000000 		.4byte	.LVL112
 3701 050c 0100     		.2byte	0x1
 3702 050e 50       		.byte	0x50
 3703 050f 7A000000 		.4byte	.LVL112
 3704 0513 83000000 		.4byte	.LVL115-1
ARM GAS  C:\Users\TB1014~1\AppData\Local\Temp\ccTzyt2s.s 			page 94


 3705 0517 0100     		.2byte	0x1
 3706 0519 52       		.byte	0x52
 3707 051a BA000000 		.4byte	.LVL120
 3708 051e BC000000 		.4byte	.LVL121
 3709 0522 0100     		.2byte	0x1
 3710 0524 50       		.byte	0x50
 3711 0525 00000000 		.4byte	0
 3712 0529 00000000 		.4byte	0
 3713              	.LLST35:
 3714 052d 0A000000 		.4byte	.LVL89
 3715 0531 2E000000 		.4byte	.LVL99
 3716 0535 0200     		.2byte	0x2
 3717 0537 30       		.byte	0x30
 3718 0538 9F       		.byte	0x9f
 3719 0539 2E000000 		.4byte	.LVL99
 3720 053d 6E000000 		.4byte	.LVL110
 3721 0541 0100     		.2byte	0x1
 3722 0543 54       		.byte	0x54
 3723 0544 00000000 		.4byte	0
 3724 0548 00000000 		.4byte	0
 3725              	.LLST36:
 3726 054c 14000000 		.4byte	.LVL94
 3727 0550 16000000 		.4byte	.LVL95
 3728 0554 0100     		.2byte	0x1
 3729 0556 50       		.byte	0x50
 3730 0557 16000000 		.4byte	.LVL95
 3731 055b D6000000 		.4byte	.LVL128
 3732 055f 0100     		.2byte	0x1
 3733 0561 58       		.byte	0x58
 3734 0562 00000000 		.4byte	0
 3735 0566 00000000 		.4byte	0
 3736              	.LLST37:
 3737 056a 0E000000 		.4byte	.LVL91
 3738 056e 58000000 		.4byte	.LVL105
 3739 0572 0100     		.2byte	0x1
 3740 0574 52       		.byte	0x52
 3741 0575 64000000 		.4byte	.LVL106
 3742 0579 68000000 		.4byte	.LVL107
 3743 057d 0100     		.2byte	0x1
 3744 057f 52       		.byte	0x52
 3745 0580 00000000 		.4byte	0
 3746 0584 00000000 		.4byte	0
 3747              	.LLST38:
 3748 0588 10000000 		.4byte	.LVL92
 3749 058c D6000000 		.4byte	.LVL126
 3750 0590 0100     		.2byte	0x1
 3751 0592 55       		.byte	0x55
 3752 0593 00000000 		.4byte	0
 3753 0597 00000000 		.4byte	0
 3754              	.LLST39:
 3755 059b BC000000 		.4byte	.LVL121
 3756 059f D4000000 		.4byte	.LVL124
 3757 05a3 0100     		.2byte	0x1
 3758 05a5 50       		.byte	0x50
 3759 05a6 00000000 		.4byte	0
 3760 05aa 00000000 		.4byte	0
 3761              	.LLST40:
ARM GAS  C:\Users\TB1014~1\AppData\Local\Temp\ccTzyt2s.s 			page 95


 3762 05ae 0A000000 		.4byte	.LVL89
 3763 05b2 84000000 		.4byte	.LVL115
 3764 05b6 0200     		.2byte	0x2
 3765 05b8 30       		.byte	0x30
 3766 05b9 9F       		.byte	0x9f
 3767 05ba 84000000 		.4byte	.LVL115
 3768 05be 92000000 		.4byte	.LVL116
 3769 05c2 0100     		.2byte	0x1
 3770 05c4 50       		.byte	0x50
 3771 05c5 98000000 		.4byte	.LVL117
 3772 05c9 BA000000 		.4byte	.LVL120
 3773 05cd 0100     		.2byte	0x1
 3774 05cf 50       		.byte	0x50
 3775 05d0 BA000000 		.4byte	.LVL120
 3776 05d4 BC000000 		.4byte	.LVL121
 3777 05d8 0200     		.2byte	0x2
 3778 05da 30       		.byte	0x30
 3779 05db 9F       		.byte	0x9f
 3780 05dc BC000000 		.4byte	.LVL121
 3781 05e0 BE000000 		.4byte	.LVL122
 3782 05e4 0100     		.2byte	0x1
 3783 05e6 50       		.byte	0x50
 3784 05e7 00000000 		.4byte	0
 3785 05eb 00000000 		.4byte	0
 3786              	.LLST41:
 3787 05ef 98000000 		.4byte	.LVL117
 3788 05f3 BA000000 		.4byte	.LVL120
 3789 05f7 0100     		.2byte	0x1
 3790 05f9 55       		.byte	0x55
 3791 05fa 00000000 		.4byte	0
 3792 05fe 00000000 		.4byte	0
 3793              	.LLST42:
 3794 0602 98000000 		.4byte	.LVL117
 3795 0606 BA000000 		.4byte	.LVL120
 3796 060a 0100     		.2byte	0x1
 3797 060c 56       		.byte	0x56
 3798 060d 00000000 		.4byte	0
 3799 0611 00000000 		.4byte	0
 3800              	.LLST43:
 3801 0615 98000000 		.4byte	.LVL117
 3802 0619 BA000000 		.4byte	.LVL120
 3803 061d 0100     		.2byte	0x1
 3804 061f 50       		.byte	0x50
 3805 0620 00000000 		.4byte	0
 3806 0624 00000000 		.4byte	0
 3807              	.LLST44:
 3808 0628 98000000 		.4byte	.LVL117
 3809 062c BA000000 		.4byte	.LVL120
 3810 0630 0300     		.2byte	0x3
 3811 0632 91       		.byte	0x91
 3812 0633 64       		.sleb128 -28
 3813 0634 9F       		.byte	0x9f
 3814 0635 00000000 		.4byte	0
 3815 0639 00000000 		.4byte	0
 3816              	.LLST45:
 3817 063d 98000000 		.4byte	.LVL117
 3818 0641 9C000000 		.4byte	.LVL118
ARM GAS  C:\Users\TB1014~1\AppData\Local\Temp\ccTzyt2s.s 			page 96


 3819 0645 0200     		.2byte	0x2
 3820 0647 30       		.byte	0x30
 3821 0648 9F       		.byte	0x9f
 3822 0649 9C000000 		.4byte	.LVL118
 3823 064d BA000000 		.4byte	.LVL120
 3824 0651 0100     		.2byte	0x1
 3825 0653 52       		.byte	0x52
 3826 0654 00000000 		.4byte	0
 3827 0658 00000000 		.4byte	0
 3828              	.LLST46:
 3829 065c 00000000 		.4byte	.LVL129
 3830 0660 1C000000 		.4byte	.LVL132
 3831 0664 0100     		.2byte	0x1
 3832 0666 50       		.byte	0x50
 3833 0667 1C000000 		.4byte	.LVL132
 3834 066b 24000000 		.4byte	.LVL135
 3835 066f 0100     		.2byte	0x1
 3836 0671 54       		.byte	0x54
 3837 0672 24000000 		.4byte	.LVL135
 3838 0676 26000000 		.4byte	.LVL136
 3839 067a 0100     		.2byte	0x1
 3840 067c 50       		.byte	0x50
 3841 067d 26000000 		.4byte	.LVL136
 3842 0681 2E000000 		.4byte	.LVL139
 3843 0685 0100     		.2byte	0x1
 3844 0687 54       		.byte	0x54
 3845 0688 2E000000 		.4byte	.LVL139
 3846 068c 30000000 		.4byte	.LVL140
 3847 0690 0100     		.2byte	0x1
 3848 0692 50       		.byte	0x50
 3849 0693 30000000 		.4byte	.LVL140
 3850 0697 40000000 		.4byte	.LVL143
 3851 069b 0100     		.2byte	0x1
 3852 069d 54       		.byte	0x54
 3853 069e 40000000 		.4byte	.LVL143
 3854 06a2 6C000000 		.4byte	.LFE5
 3855 06a6 0400     		.2byte	0x4
 3856 06a8 F3       		.byte	0xf3
 3857 06a9 01       		.uleb128 0x1
 3858 06aa 50       		.byte	0x50
 3859 06ab 9F       		.byte	0x9f
 3860 06ac 00000000 		.4byte	0
 3861 06b0 00000000 		.4byte	0
 3862              	.LLST47:
 3863 06b4 00000000 		.4byte	.LVL129
 3864 06b8 1F000000 		.4byte	.LVL133-1
 3865 06bc 0100     		.2byte	0x1
 3866 06be 51       		.byte	0x51
 3867 06bf 1F000000 		.4byte	.LVL133-1
 3868 06c3 24000000 		.4byte	.LVL135
 3869 06c7 0400     		.2byte	0x4
 3870 06c9 F3       		.byte	0xf3
 3871 06ca 01       		.uleb128 0x1
 3872 06cb 51       		.byte	0x51
 3873 06cc 9F       		.byte	0x9f
 3874 06cd 24000000 		.4byte	.LVL135
 3875 06d1 29000000 		.4byte	.LVL137-1
ARM GAS  C:\Users\TB1014~1\AppData\Local\Temp\ccTzyt2s.s 			page 97


 3876 06d5 0100     		.2byte	0x1
 3877 06d7 51       		.byte	0x51
 3878 06d8 29000000 		.4byte	.LVL137-1
 3879 06dc 2E000000 		.4byte	.LVL139
 3880 06e0 0400     		.2byte	0x4
 3881 06e2 F3       		.byte	0xf3
 3882 06e3 01       		.uleb128 0x1
 3883 06e4 51       		.byte	0x51
 3884 06e5 9F       		.byte	0x9f
 3885 06e6 2E000000 		.4byte	.LVL139
 3886 06ea 33000000 		.4byte	.LVL141-1
 3887 06ee 0100     		.2byte	0x1
 3888 06f0 51       		.byte	0x51
 3889 06f1 33000000 		.4byte	.LVL141-1
 3890 06f5 6C000000 		.4byte	.LFE5
 3891 06f9 0400     		.2byte	0x4
 3892 06fb F3       		.byte	0xf3
 3893 06fc 01       		.uleb128 0x1
 3894 06fd 51       		.byte	0x51
 3895 06fe 9F       		.byte	0x9f
 3896 06ff 00000000 		.4byte	0
 3897 0703 00000000 		.4byte	0
 3898              	.LLST48:
 3899 0707 0C000000 		.4byte	.LVL131
 3900 070b 22000000 		.4byte	.LVL134
 3901 070f 0100     		.2byte	0x1
 3902 0711 55       		.byte	0x55
 3903 0712 22000000 		.4byte	.LVL134
 3904 0716 24000000 		.4byte	.LVL135
 3905 071a 0100     		.2byte	0x1
 3906 071c 50       		.byte	0x50
 3907 071d 24000000 		.4byte	.LVL135
 3908 0721 2C000000 		.4byte	.LVL138
 3909 0725 0100     		.2byte	0x1
 3910 0727 55       		.byte	0x55
 3911 0728 2C000000 		.4byte	.LVL138
 3912 072c 2E000000 		.4byte	.LVL139
 3913 0730 0100     		.2byte	0x1
 3914 0732 50       		.byte	0x50
 3915 0733 2E000000 		.4byte	.LVL139
 3916 0737 64000000 		.4byte	.LVL153
 3917 073b 0100     		.2byte	0x1
 3918 073d 55       		.byte	0x55
 3919 073e 00000000 		.4byte	0
 3920 0742 00000000 		.4byte	0
 3921              	.LLST49:
 3922 0746 3C000000 		.4byte	.LVL142
 3923 074a 4E000000 		.4byte	.LVL145
 3924 074e 0100     		.2byte	0x1
 3925 0750 53       		.byte	0x53
 3926 0751 4E000000 		.4byte	.LVL145
 3927 0755 50000000 		.4byte	.LVL146
 3928 0759 0300     		.2byte	0x3
 3929 075b 73       		.byte	0x73
 3930 075c 7C       		.sleb128 -4
 3931 075d 9F       		.byte	0x9f
 3932 075e 50000000 		.4byte	.LVL146
ARM GAS  C:\Users\TB1014~1\AppData\Local\Temp\ccTzyt2s.s 			page 98


 3933 0762 58000000 		.4byte	.LVL148
 3934 0766 0600     		.2byte	0x6
 3935 0768 F3       		.byte	0xf3
 3936 0769 01       		.uleb128 0x1
 3937 076a 50       		.byte	0x50
 3938 076b 35       		.byte	0x35
 3939 076c 25       		.byte	0x25
 3940 076d 9F       		.byte	0x9f
 3941 076e 58000000 		.4byte	.LVL148
 3942 0772 5C000000 		.4byte	.LVL150
 3943 0776 0100     		.2byte	0x1
 3944 0778 53       		.byte	0x53
 3945 0779 5C000000 		.4byte	.LVL150
 3946 077d 5E000000 		.4byte	.LVL151
 3947 0781 0300     		.2byte	0x3
 3948 0783 73       		.byte	0x73
 3949 0784 7C       		.sleb128 -4
 3950 0785 9F       		.byte	0x9f
 3951 0786 5E000000 		.4byte	.LVL151
 3952 078a 6C000000 		.4byte	.LFE5
 3953 078e 0600     		.2byte	0x6
 3954 0790 F3       		.byte	0xf3
 3955 0791 01       		.uleb128 0x1
 3956 0792 50       		.byte	0x50
 3957 0793 35       		.byte	0x35
 3958 0794 25       		.byte	0x25
 3959 0795 9F       		.byte	0x9f
 3960 0796 00000000 		.4byte	0
 3961 079a 00000000 		.4byte	0
 3962              	.LLST50:
 3963 079e 46000000 		.4byte	.LVL144
 3964 07a2 52000000 		.4byte	.LVL147
 3965 07a6 0100     		.2byte	0x1
 3966 07a8 52       		.byte	0x52
 3967 07a9 52000000 		.4byte	.LVL147
 3968 07ad 58000000 		.4byte	.LVL148
 3969 07b1 0100     		.2byte	0x1
 3970 07b3 54       		.byte	0x54
 3971 07b4 58000000 		.4byte	.LVL148
 3972 07b8 5A000000 		.4byte	.LVL149
 3973 07bc 0100     		.2byte	0x1
 3974 07be 52       		.byte	0x52
 3975 07bf 5A000000 		.4byte	.LVL149
 3976 07c3 62000000 		.4byte	.LVL152
 3977 07c7 0100     		.2byte	0x1
 3978 07c9 54       		.byte	0x54
 3979 07ca 62000000 		.4byte	.LVL152
 3980 07ce 6C000000 		.4byte	.LFE5
 3981 07d2 0800     		.2byte	0x8
 3982 07d4 31       		.byte	0x31
 3983 07d5 F3       		.byte	0xf3
 3984 07d6 01       		.uleb128 0x1
 3985 07d7 50       		.byte	0x50
 3986 07d8 4F       		.byte	0x4f
 3987 07d9 1A       		.byte	0x1a
 3988 07da 24       		.byte	0x24
 3989 07db 9F       		.byte	0x9f
ARM GAS  C:\Users\TB1014~1\AppData\Local\Temp\ccTzyt2s.s 			page 99


 3990 07dc 00000000 		.4byte	0
 3991 07e0 00000000 		.4byte	0
 3992              	.LLST51:
 3993 07e4 06000000 		.4byte	.LVL130
 3994 07e8 1F000000 		.4byte	.LVL133-1
 3995 07ec 0100     		.2byte	0x1
 3996 07ee 52       		.byte	0x52
 3997 07ef 24000000 		.4byte	.LVL135
 3998 07f3 29000000 		.4byte	.LVL137-1
 3999 07f7 0100     		.2byte	0x1
 4000 07f9 52       		.byte	0x52
 4001 07fa 2E000000 		.4byte	.LVL139
 4002 07fe 33000000 		.4byte	.LVL141-1
 4003 0802 0100     		.2byte	0x1
 4004 0804 52       		.byte	0x52
 4005 0805 00000000 		.4byte	0
 4006 0809 00000000 		.4byte	0
 4007              		.section	.debug_aranges,"",%progbits
 4008 0000 4C000000 		.4byte	0x4c
 4009 0004 0200     		.2byte	0x2
 4010 0006 00000000 		.4byte	.Ldebug_info0
 4011 000a 04       		.byte	0x4
 4012 000b 00       		.byte	0
 4013 000c 0000     		.2byte	0
 4014 000e 0000     		.2byte	0
 4015 0010 00000000 		.4byte	.LFB2
 4016 0014 8C000000 		.4byte	.LFE2-.LFB2
 4017 0018 00000000 		.4byte	.LFB6
 4018 001c 14000000 		.4byte	.LFE6-.LFB6
 4019 0020 00000000 		.4byte	.LFB3
 4020 0024 66000000 		.4byte	.LFE3-.LFB3
 4021 0028 00000000 		.4byte	.LFB4
 4022 002c 3A000000 		.4byte	.LFE4-.LFB4
 4023 0030 00000000 		.4byte	.LFB7
 4024 0034 64000000 		.4byte	.LFE7-.LFB7
 4025 0038 00000000 		.4byte	.LFB8
 4026 003c DC000000 		.4byte	.LFE8-.LFB8
 4027 0040 00000000 		.4byte	.LFB5
 4028 0044 6C000000 		.4byte	.LFE5-.LFB5
 4029 0048 00000000 		.4byte	0
 4030 004c 00000000 		.4byte	0
 4031              		.section	.debug_ranges,"",%progbits
 4032              	.Ldebug_ranges0:
 4033 0000 00000000 		.4byte	.LFB2
 4034 0004 8C000000 		.4byte	.LFE2
 4035 0008 00000000 		.4byte	.LFB6
 4036 000c 14000000 		.4byte	.LFE6
 4037 0010 00000000 		.4byte	.LFB3
 4038 0014 66000000 		.4byte	.LFE3
 4039 0018 00000000 		.4byte	.LFB4
 4040 001c 3A000000 		.4byte	.LFE4
 4041 0020 00000000 		.4byte	.LFB7
 4042 0024 64000000 		.4byte	.LFE7
 4043 0028 00000000 		.4byte	.LFB8
 4044 002c DC000000 		.4byte	.LFE8
 4045 0030 00000000 		.4byte	.LFB5
 4046 0034 6C000000 		.4byte	.LFE5
ARM GAS  C:\Users\TB1014~1\AppData\Local\Temp\ccTzyt2s.s 			page 100


 4047 0038 00000000 		.4byte	0
 4048 003c 00000000 		.4byte	0
 4049              		.section	.debug_line,"",%progbits
 4050              	.Ldebug_line0:
 4051 0000 9D030000 		.section	.debug_str,"MS",%progbits,1
 4051      0200B401 
 4051      00000201 
 4051      FB0E0D00 
 4051      01010101 
 4052              	.LASF23:
 4053 0000 43617053 		.ascii	"CapSense_WD_PROXIMITY_E\000"
 4053      656E7365 
 4053      5F57445F 
 4053      50524F58 
 4053      494D4954 
 4054              	.LASF117:
 4055 0018 43617053 		.ascii	"CapSense_DpProcessCsdSensorRawCountsExt\000"
 4055      656E7365 
 4055      5F447050 
 4055      726F6365 
 4055      73734373 
 4056              	.LASF138:
 4057 0040 474E5520 		.ascii	"GNU C 4.9.3 20150303 (release) [ARM/embedded-4_9-br"
 4057      4320342E 
 4057      392E3320 
 4057      32303135 
 4057      30333033 
 4058 0073 616E6368 		.ascii	"anch revision 221220] -mcpu=cortex-m0plus -mthumb -"
 4058      20726576 
 4058      6973696F 
 4058      6E203232 
 4058      31323230 
 4059 00a6 67202D4F 		.ascii	"g -Og -ffunction-sections -ffat-lto-objects\000"
 4059      67202D66 
 4059      66756E63 
 4059      74696F6E 
 4059      2D736563 
 4060              	.LASF121:
 4061 00d2 736E7343 		.ascii	"snsCnt\000"
 4061      6E7400
 4062              	.LASF106:
 4063 00d9 77646774 		.ascii	"wdgtId\000"
 4063      496400
 4064              	.LASF114:
 4065 00e0 666C7472 		.ascii	"fltrHistV\000"
 4065      48697374 
 4065      5600
 4066              	.LASF71:
 4067 00ea 736E7254 		.ascii	"snrTestWidgetId\000"
 4067      65737457 
 4067      69646765 
 4067      74496400 
 4068              	.LASF136:
 4069 00fa 43617053 		.ascii	"CapSense_DpFindLocalMaxSd\000"
 4069      656E7365 
 4069      5F447046 
 4069      696E644C 
ARM GAS  C:\Users\TB1014~1\AppData\Local\Temp\ccTzyt2s.s 			page 101


 4069      6F63616C 
 4070              	.LASF128:
 4071 0114 43617053 		.ascii	"CapSense_DpProcessCsdWidgetStatus\000"
 4071      656E7365 
 4071      5F447050 
 4071      726F6365 
 4071      73734373 
 4072              	.LASF8:
 4073 0136 756E7369 		.ascii	"unsigned int\000"
 4073      676E6564 
 4073      20696E74 
 4073      00
 4074              	.LASF62:
 4075 0143 7363616E 		.ascii	"scanCounter\000"
 4075      436F756E 
 4075      74657200 
 4076              	.LASF109:
 4077 014f 43617053 		.ascii	"CapSense_DpUpdateDifferences\000"
 4077      656E7365 
 4077      5F447055 
 4077      70646174 
 4077      65446966 
 4078              	.LASF142:
 4079 016c 43794861 		.ascii	"CyHalt\000"
 4079      6C7400
 4080              	.LASF111:
 4081 0173 64696666 		.ascii	"diffValue\000"
 4081      56616C75 
 4081      6500
 4082              	.LASF118:
 4083 017d 6D6F6465 		.ascii	"mode\000"
 4083      00
 4084              	.LASF22:
 4085 0182 43617053 		.ascii	"CapSense_WD_TOUCHPAD_E\000"
 4085      656E7365 
 4085      5F57445F 
 4085      544F5543 
 4085      48504144 
 4086              	.LASF51:
 4087 0199 43617053 		.ascii	"CapSense_RAM_WD_LIST_STRUCT\000"
 4087      656E7365 
 4087      5F52414D 
 4087      5F57445F 
 4087      4C495354 
 4088              	.LASF44:
 4089 01b5 62757430 		.ascii	"but0\000"
 4089      00
 4090              	.LASF45:
 4091 01ba 62757431 		.ascii	"but1\000"
 4091      00
 4092              	.LASF46:
 4093 01bf 62757433 		.ascii	"but3\000"
 4093      00
 4094              	.LASF47:
 4095 01c4 62757434 		.ascii	"but4\000"
 4095      00
 4096              	.LASF48:
ARM GAS  C:\Users\TB1014~1\AppData\Local\Temp\ccTzyt2s.s 			page 102


 4097 01c9 62757435 		.ascii	"but5\000"
 4097      00
 4098              	.LASF49:
 4099 01ce 62757436 		.ascii	"but6\000"
 4099      00
 4100              	.LASF50:
 4101 01d3 62757438 		.ascii	"but8\000"
 4101      00
 4102              	.LASF133:
 4103 01d8 43617053 		.ascii	"CapSense_dsFlash\000"
 4103      656E7365 
 4103      5F647346 
 4103      6C617368 
 4103      00
 4104              	.LASF123:
 4105 01e9 6E657753 		.ascii	"newStatus\000"
 4105      74617475 
 4105      7300
 4106              	.LASF13:
 4107 01f3 666C6F61 		.ascii	"float\000"
 4107      7400
 4108              	.LASF127:
 4109 01f9 746F7563 		.ascii	"touchCnt\000"
 4109      68436E74 
 4109      00
 4110              	.LASF12:
 4111 0202 696E7433 		.ascii	"int32\000"
 4111      3200
 4112              	.LASF108:
 4113 0208 43617053 		.ascii	"CapSense_DpInitialize\000"
 4113      656E7365 
 4113      5F447049 
 4113      6E697469 
 4113      616C697A 
 4114              	.LASF135:
 4115 021e 43617053 		.ascii	"CapSense_FtUpdateBaseline\000"
 4115      656E7365 
 4115      5F467455 
 4115      70646174 
 4115      65426173 
 4116              	.LASF70:
 4117 0238 736E734C 		.ascii	"snsList\000"
 4117      69737400 
 4118              	.LASF112:
 4119 0240 72657375 		.ascii	"result\000"
 4119      6C7400
 4120              	.LASF137:
 4121 0247 43617053 		.ascii	"CapSense_DpCalcLinearCentroid\000"
 4121      656E7365 
 4121      5F447043 
 4121      616C634C 
 4121      696E6561 
 4122              	.LASF7:
 4123 0265 6C6F6E67 		.ascii	"long long unsigned int\000"
 4123      206C6F6E 
 4123      6720756E 
 4123      7369676E 
ARM GAS  C:\Users\TB1014~1\AppData\Local\Temp\ccTzyt2s.s 			page 103


 4123      65642069 
 4124              	.LASF21:
 4125 027c 43617053 		.ascii	"CapSense_WD_MATRIX_BUTTON_E\000"
 4125      656E7365 
 4125      5F57445F 
 4125      4D415452 
 4125      49585F42 
 4126              	.LASF95:
 4127 0298 70747252 		.ascii	"ptrRegular\000"
 4127      6567756C 
 4127      617200
 4128              	.LASF72:
 4129 02a3 736E7254 		.ascii	"snrTestSensorId\000"
 4129      65737453 
 4129      656E736F 
 4129      72496400 
 4130              	.LASF83:
 4131 02b3 77646774 		.ascii	"wdgtType\000"
 4131      54797065 
 4131      00
 4132              	.LASF141:
 4133 02bc 43617053 		.ascii	"CapSense_FtRunEnabledFiltersInternal\000"
 4133      656E7365 
 4133      5F467452 
 4133      756E456E 
 4133      61626C65 
 4134              	.LASF96:
 4135 02e1 43617053 		.ascii	"CapSense_PTR_FILTER_VARIANT\000"
 4135      656E7365 
 4135      5F505452 
 4135      5F46494C 
 4135      5445525F 
 4136              	.LASF93:
 4137 02fd 72656775 		.ascii	"regularChannel\000"
 4137      6C617243 
 4137      68616E6E 
 4137      656C00
 4138              	.LASF68:
 4139 030c 6D6F6443 		.ascii	"modCsdClk\000"
 4139      7364436C 
 4139      6B00
 4140              	.LASF57:
 4141 0316 43617053 		.ascii	"CapSense_RAM_SNS_STRUCT\000"
 4141      656E7365 
 4141      5F52414D 
 4141      5F534E53 
 4141      5F535452 
 4142              	.LASF32:
 4143 032e 62736C6E 		.ascii	"bslnCoeff\000"
 4143      436F6566 
 4143      6600
 4144              	.LASF97:
 4145 0338 73697A65 		.ascii	"size_t\000"
 4145      5F7400
 4146              	.LASF37:
 4147 033f 73696750 		.ascii	"sigPFC\000"
 4147      464300
ARM GAS  C:\Users\TB1014~1\AppData\Local\Temp\ccTzyt2s.s 			page 104


 4148              	.LASF29:
 4149 0346 68797374 		.ascii	"hysteresis\000"
 4149      65726573 
 4149      697300
 4150              	.LASF20:
 4151 0351 43617053 		.ascii	"CapSense_WD_RADIAL_SLIDER_E\000"
 4151      656E7365 
 4151      5F57445F 
 4151      52414449 
 4151      414C5F53 
 4152              	.LASF88:
 4153 036d 43617053 		.ascii	"CapSense_FLASH_WD_STRUCT\000"
 4153      656E7365 
 4153      5F464C41 
 4153      53485F57 
 4153      445F5354 
 4154              	.LASF31:
 4155 0386 6C6F7742 		.ascii	"lowBslnRst\000"
 4155      736C6E52 
 4155      737400
 4156              	.LASF124:
 4157 0391 746F7563 		.ascii	"touchTh\000"
 4157      68546800 
 4158              	.LASF82:
 4159 0399 746F7461 		.ascii	"totalNumSns\000"
 4159      6C4E756D 
 4159      536E7300 
 4160              	.LASF27:
 4161 03a5 6E6F6973 		.ascii	"noiseTh\000"
 4161      65546800 
 4162              	.LASF15:
 4163 03ad 63686172 		.ascii	"char\000"
 4163      00
 4164              	.LASF116:
 4165 03b2 43617053 		.ascii	"CapSense_DpProcessCsdWidgetRawCounts\000"
 4165      656E7365 
 4165      5F447050 
 4165      726F6365 
 4165      73734373 
 4166              	.LASF105:
 4167 03d7 746F7563 		.ascii	"touchIdx\000"
 4167      68496478 
 4167      00
 4168              	.LASF10:
 4169 03e0 75696E74 		.ascii	"uint16\000"
 4169      313600
 4170              	.LASF25:
 4171 03e7 7265736F 		.ascii	"resolution\000"
 4171      6C757469 
 4171      6F6E00
 4172              	.LASF63:
 4173 03f2 73746174 		.ascii	"status\000"
 4173      757300
 4174              	.LASF139:
 4175 03f9 47656E65 		.ascii	"Generated_Source\\PSoC4\\CapSense_Processing.c\000"
 4175      72617465 
 4175      645F536F 
ARM GAS  C:\Users\TB1014~1\AppData\Local\Temp\ccTzyt2s.s 			page 105


 4175      75726365 
 4175      5C50536F 
 4176              	.LASF17:
 4177 0426 43617053 		.ascii	"CapSense_LOW_BSLN_RST_TYPE\000"
 4177      656E7365 
 4177      5F4C4F57 
 4177      5F42534C 
 4177      4E5F5253 
 4178              	.LASF119:
 4179 0441 43617053 		.ascii	"CapSense_DpProcessButton\000"
 4179      656E7365 
 4179      5F447050 
 4179      726F6365 
 4179      73734275 
 4180              	.LASF56:
 4181 045a 69646163 		.ascii	"idacComp\000"
 4181      436F6D70 
 4181      00
 4182              	.LASF6:
 4183 0463 6C6F6E67 		.ascii	"long long int\000"
 4183      206C6F6E 
 4183      6720696E 
 4183      7400
 4184              	.LASF84:
 4185 0471 6E756D43 		.ascii	"numCols\000"
 4185      6F6C7300 
 4186              	.LASF30:
 4187 0479 6F6E4465 		.ascii	"onDebounce\000"
 4187      626F756E 
 4187      636500
 4188              	.LASF69:
 4189 0484 77646774 		.ascii	"wdgtList\000"
 4189      4C697374 
 4189      00
 4190              	.LASF90:
 4191 048d 43617053 		.ascii	"CapSense_FLASH_STRUCT\000"
 4191      656E7365 
 4191      5F464C41 
 4191      53485F53 
 4191      54525543 
 4192              	.LASF98:
 4193 04a3 70747257 		.ascii	"ptrWdSlider\000"
 4193      64536C69 
 4193      64657200 
 4194              	.LASF132:
 4195 04af 43617053 		.ascii	"CapSense_dsRam\000"
 4195      656E7365 
 4195      5F647352 
 4195      616D00
 4196              	.LASF74:
 4197 04be 736E7254 		.ascii	"snrTestRawCount\000"
 4197      65737452 
 4197      6177436F 
 4197      756E7400 
 4198              	.LASF134:
 4199 04ce 6D656D73 		.ascii	"memset\000"
 4199      657400
ARM GAS  C:\Users\TB1014~1\AppData\Local\Temp\ccTzyt2s.s 			page 106


 4200              	.LASF28:
 4201 04d5 6E4E6F69 		.ascii	"nNoiseTh\000"
 4201      73655468 
 4201      00
 4202              	.LASF67:
 4203 04de 63736430 		.ascii	"csd0Config\000"
 4203      436F6E66 
 4203      696700
 4204              	.LASF39:
 4205 04e9 43617053 		.ascii	"CapSense_RAM_WD_BASE_STRUCT\000"
 4205      656E7365 
 4205      5F52414D 
 4205      5F57445F 
 4205      42415345 
 4206              	.LASF24:
 4207 0505 43617053 		.ascii	"CapSense_WD_TYPE_ENUM\000"
 4207      656E7365 
 4207      5F57445F 
 4207      54595045 
 4207      5F454E55 
 4208              	.LASF129:
 4209 051b 73656E73 		.ascii	"sensorStatus\000"
 4209      6F725374 
 4209      61747573 
 4209      00
 4210              	.LASF11:
 4211 0528 75696E74 		.ascii	"uint32\000"
 4211      333200
 4212              	.LASF100:
 4213 052f 44705570 		.ascii	"DpUpdateLinSlider\000"
 4213      64617465 
 4213      4C696E53 
 4213      6C696465 
 4213      7200
 4214              	.LASF79:
 4215 0541 70747232 		.ascii	"ptr2FltrHistory\000"
 4215      466C7472 
 4215      48697374 
 4215      6F727900 
 4216              	.LASF19:
 4217 0551 43617053 		.ascii	"CapSense_WD_LINEAR_SLIDER_E\000"
 4217      656E7365 
 4217      5F57445F 
 4217      4C494E45 
 4217      41525F53 
 4218              	.LASF130:
 4219 056d 77645374 		.ascii	"wdStatusIndex\000"
 4219      61747573 
 4219      496E6465 
 4219      7800
 4220              	.LASF126:
 4221 057b 43617053 		.ascii	"CapSense_DpProcessSlider\000"
 4221      656E7365 
 4221      5F447050 
 4221      726F6365 
 4221      7373536C 
 4222              	.LASF102:
ARM GAS  C:\Users\TB1014~1\AppData\Local\Temp\ccTzyt2s.s 			page 107


 4223 0594 6E657750 		.ascii	"newPos\000"
 4223      6F7300
 4224              	.LASF104:
 4225 059b 70747252 		.ascii	"ptrRamWdgt\000"
 4225      616D5764 
 4225      677400
 4226              	.LASF122:
 4227 05a6 736E734D 		.ascii	"snsMask\000"
 4227      61736B00 
 4228              	.LASF73:
 4229 05ae 736E7254 		.ascii	"snrTestScanCounter\000"
 4229      65737453 
 4229      63616E43 
 4229      6F756E74 
 4229      657200
 4230              	.LASF59:
 4231 05c1 636F6E66 		.ascii	"configId\000"
 4231      69674964 
 4231      00
 4232              	.LASF78:
 4233 05ca 70747232 		.ascii	"ptr2SnsRam\000"
 4233      536E7352 
 4233      616D00
 4234              	.LASF66:
 4235 05d5 736E7353 		.ascii	"snsStatus\000"
 4235      74617475 
 4235      7300
 4236              	.LASF35:
 4237 05df 736E7343 		.ascii	"snsClkSource\000"
 4237      6C6B536F 
 4237      75726365 
 4237      00
 4238              	.LASF85:
 4239 05ec 78526573 		.ascii	"xResolution\000"
 4239      6F6C7574 
 4239      696F6E00 
 4240              	.LASF2:
 4241 05f8 73686F72 		.ascii	"short int\000"
 4241      7420696E 
 4241      7400
 4242              	.LASF75:
 4243 0602 43617053 		.ascii	"CapSense_RAM_STRUCT\000"
 4243      656E7365 
 4243      5F52414D 
 4243      5F535452 
 4243      55435400 
 4244              	.LASF94:
 4245 0616 43617053 		.ascii	"CapSense_REGULAR_FLTR_STRUCT\000"
 4245      656E7365 
 4245      5F524547 
 4245      554C4152 
 4245      5F464C54 
 4246              	.LASF4:
 4247 0633 6C6F6E67 		.ascii	"long int\000"
 4247      20696E74 
 4247      00
 4248              	.LASF64:
ARM GAS  C:\Users\TB1014~1\AppData\Local\Temp\ccTzyt2s.s 			page 108


 4249 063c 77646774 		.ascii	"wdgtEnable\000"
 4249      456E6162 
 4249      6C6500
 4250              	.LASF54:
 4251 0647 64696666 		.ascii	"diff\000"
 4251      00
 4252              	.LASF61:
 4253 064c 74756E65 		.ascii	"tunerCmd\000"
 4253      72436D64 
 4253      00
 4254              	.LASF113:
 4255 0655 736E7349 		.ascii	"snsId\000"
 4255      6400
 4256              	.LASF18:
 4257 065b 43617053 		.ascii	"CapSense_WD_BUTTON_E\000"
 4257      656E7365 
 4257      5F57445F 
 4257      42555454 
 4257      4F4E5F45 
 4258              	.LASF92:
 4259 0670 43617053 		.ascii	"CapSense_REGULAR_FLTR_CHANNEL_STRUCT\000"
 4259      656E7365 
 4259      5F524547 
 4259      554C4152 
 4259      5F464C54 
 4260              	.LASF125:
 4261 0695 70747244 		.ascii	"ptrDebounceCnt\000"
 4261      65626F75 
 4261      6E636543 
 4261      6E7400
 4262              	.LASF36:
 4263 06a4 66696E67 		.ascii	"fingerCap\000"
 4263      65724361 
 4263      7000
 4264              	.LASF65:
 4265 06ae 77646774 		.ascii	"wdgtStatus\000"
 4265      53746174 
 4265      757300
 4266              	.LASF41:
 4267 06b9 43617053 		.ascii	"CapSense_RAM_WD_SLIDER_STRUCT\000"
 4267      656E7365 
 4267      5F52414D 
 4267      5F57445F 
 4267      534C4944 
 4268              	.LASF140:
 4269 06d7 433A5C55 		.ascii	"C:\\Users\\tb1014481\\Documents\\#PROJECTS#\\Eddie\\"
 4269      73657273 
 4269      5C746231 
 4269      30313434 
 4269      38315C44 
 4270 0705 536F6674 		.ascii	"Software\\Cypress_PSoC\\Eddie_DP0.0\\Slider_WS.Bund"
 4270      77617265 
 4270      5C437970 
 4270      72657373 
 4270      5F50536F 
 4271 0735 6C653035 		.ascii	"le05.cywrk.Archive04_LEDs_DEMO\\Eddie_DP0_Slider\\S"
 4271      2E637977 
ARM GAS  C:\Users\TB1014~1\AppData\Local\Temp\ccTzyt2s.s 			page 109


 4271      726B2E41 
 4271      72636869 
 4271      76653034 
 4272 0766 6C696465 		.ascii	"lider.cydsn\000"
 4272      722E6379 
 4272      64736E00 
 4273              	.LASF38:
 4274 0772 73697A65 		.ascii	"sizetype\000"
 4274      74797065 
 4274      00
 4275              	.LASF5:
 4276 077b 6C6F6E67 		.ascii	"long unsigned int\000"
 4276      20756E73 
 4276      69676E65 
 4276      6420696E 
 4276      7400
 4277              	.LASF33:
 4278 078d 69646163 		.ascii	"idacMod\000"
 4278      4D6F6400 
 4279              	.LASF80:
 4280 0795 70747232 		.ascii	"ptr2DebounceArr\000"
 4280      4465626F 
 4280      756E6365 
 4280      41727200 
 4281              	.LASF86:
 4282 07a5 7843656E 		.ascii	"xCentroidMultiplier\000"
 4282      74726F69 
 4282      644D756C 
 4282      7469706C 
 4282      69657200 
 4283              	.LASF26:
 4284 07b9 66696E67 		.ascii	"fingerTh\000"
 4284      65725468 
 4284      00
 4285              	.LASF53:
 4286 07c2 62736C6E 		.ascii	"bslnExt\000"
 4286      45787400 
 4287              	.LASF87:
 4288 07ca 70747232 		.ascii	"ptr2PosHistory\000"
 4288      506F7348 
 4288      6973746F 
 4288      727900
 4289              	.LASF42:
 4290 07d9 43617053 		.ascii	"CapSense_RAM_WD_BUTTON_STRUCT\000"
 4290      656E7365 
 4290      5F52414D 
 4290      5F57445F 
 4290      42555454 
 4291              	.LASF103:
 4292 07f7 6E756D54 		.ascii	"numTouches\000"
 4292      6F756368 
 4292      657300
 4293              	.LASF1:
 4294 0802 756E7369 		.ascii	"unsigned char\000"
 4294      676E6564 
 4294      20636861 
 4294      7200
ARM GAS  C:\Users\TB1014~1\AppData\Local\Temp\ccTzyt2s.s 			page 110


 4295              	.LASF131:
 4296 0810 77645374 		.ascii	"wdStatusMask\000"
 4296      61747573 
 4296      4D61736B 
 4296      00
 4297              	.LASF115:
 4298 081d 69735072 		.ascii	"isProxWdgt\000"
 4298      6F785764 
 4298      677400
 4299              	.LASF101:
 4300 0828 70747246 		.ascii	"ptrFlashWdgt\000"
 4300      6C617368 
 4300      57646774 
 4300      00
 4301              	.LASF81:
 4302 0835 73746174 		.ascii	"staticConfig\000"
 4302      6963436F 
 4302      6E666967 
 4302      00
 4303              	.LASF77:
 4304 0842 70747232 		.ascii	"ptr2WdgtRam\000"
 4304      57646774 
 4304      52616D00 
 4305              	.LASF16:
 4306 084e 43617053 		.ascii	"CapSense_THRESHOLD_TYPE\000"
 4306      656E7365 
 4306      5F544852 
 4306      4553484F 
 4306      4C445F54 
 4307              	.LASF91:
 4308 0866 69697248 		.ascii	"iirHistory\000"
 4308      6973746F 
 4308      727900
 4309              	.LASF43:
 4310 0871 6C696E65 		.ascii	"linearslider0\000"
 4310      6172736C 
 4310      69646572 
 4310      3000
 4311              	.LASF120:
 4312 087f 63757272 		.ascii	"currStatus\000"
 4312      53746174 
 4312      757300
 4313              	.LASF34:
 4314 088a 736E7343 		.ascii	"snsClk\000"
 4314      6C6B00
 4315              	.LASF99:
 4316 0891 43617053 		.ascii	"CapSense_DpInitSlider\000"
 4316      656E7365 
 4316      5F447049 
 4316      6E697453 
 4316      6C696465 
 4317              	.LASF110:
 4318 08a7 70747253 		.ascii	"ptrSns\000"
 4318      6E7300
 4319              	.LASF0:
 4320 08ae 7369676E 		.ascii	"signed char\000"
 4320      65642063 
ARM GAS  C:\Users\TB1014~1\AppData\Local\Temp\ccTzyt2s.s 			page 111


 4320      68617200 
 4321              	.LASF52:
 4322 08ba 62736C6E 		.ascii	"bsln\000"
 4322      00
 4323              	.LASF3:
 4324 08bf 73686F72 		.ascii	"short unsigned int\000"
 4324      7420756E 
 4324      7369676E 
 4324      65642069 
 4324      6E7400
 4325              	.LASF76:
 4326 08d2 70747232 		.ascii	"ptr2SnsFlash\000"
 4326      536E7346 
 4326      6C617368 
 4326      00
 4327              	.LASF9:
 4328 08df 75696E74 		.ascii	"uint8\000"
 4328      3800
 4329              	.LASF14:
 4330 08e5 646F7562 		.ascii	"double\000"
 4330      6C6500
 4331              	.LASF55:
 4332 08ec 6E656742 		.ascii	"negBslnRstCnt\000"
 4332      736C6E52 
 4332      7374436E 
 4332      7400
 4333              	.LASF107:
 4334 08fa 77696467 		.ascii	"widgetType\000"
 4334      65745479 
 4334      706500
 4335              	.LASF60:
 4336 0905 64657669 		.ascii	"deviceId\000"
 4336      63654964 
 4336      00
 4337              	.LASF40:
 4338 090e 706F7369 		.ascii	"position\000"
 4338      74696F6E 
 4338      00
 4339              	.LASF58:
 4340 0917 43617053 		.ascii	"CapSense_RAM_SNS_LIST_STRUCT\000"
 4340      656E7365 
 4340      5F52414D 
 4340      5F534E53 
 4340      5F4C4953 
 4341              	.LASF89:
 4342 0934 77646774 		.ascii	"wdgtArray\000"
 4342      41727261 
 4342      7900
 4343              		.ident	"GCC: (GNU Tools for ARM Embedded Processors) 4.9.3 20150303 (release) [ARM/embedded-4_9-br
