ARM GAS  C:\Users\TB1014~1\AppData\Local\Temp\cc2O9Zrf.s 			page 1


   1              		.cpu cortex-m0plus
   2              		.fpu softvfp
   3              		.eabi_attribute 20, 1
   4              		.eabi_attribute 21, 1
   5              		.eabi_attribute 23, 3
   6              		.eabi_attribute 24, 1
   7              		.eabi_attribute 25, 1
   8              		.eabi_attribute 26, 1
   9              		.eabi_attribute 30, 1
  10              		.eabi_attribute 34, 0
  11              		.eabi_attribute 18, 4
  12              		.code	16
  13              		.file	"led.c"
  14              		.text
  15              	.Ltext0:
  16              		.cfi_sections	.debug_frame
  17              		.section	.text.set_led_buffer,"ax",%progbits
  18              		.align	2
  19              		.code	16
  20              		.thumb_func
  21              		.type	set_led_buffer, %function
  22              	set_led_buffer:
  23              	.LFB36:
  24              		.file 1 "led.c"
   1:led.c         **** /* ========================================
   2:led.c         ****  *
   3:led.c         ****  * Copyright YOUR COMPANY, THE YEAR
   4:led.c         ****  * All Rights Reserved
   5:led.c         ****  * UNPUBLISHED, LICENSED SOFTWARE.
   6:led.c         ****  *
   7:led.c         ****  * CONFIDENTIAL AND PROPRIETARY INFORMATION
   8:led.c         ****  * WHICH IS THE PROPERTY OF your company.
   9:led.c         ****  *
  10:led.c         ****  * ========================================
  11:led.c         **** */
  12:led.c         **** #include "led.h"
  13:led.c         **** #include "util.h"
  14:led.c         **** 
  15:led.c         **** //=============================================================================
  16:led.c         **** //======================================================== types and structures
  17:led.c         **** //=============================================================================
  18:led.c         **** typedef struct tlc_5947_led_driver 
  19:led.c         **** {
  20:led.c         ****     char8  dummy[12];
  21:led.c         ****     uint16 led0 :12;
  22:led.c         ****     uint16 led1 :12;
  23:led.c         ****     uint16 led2 :12;
  24:led.c         ****     uint16 led3 :12;
  25:led.c         ****     uint16 led4 :12;
  26:led.c         ****     uint16 led5 :12;
  27:led.c         ****     uint16 led6 :12;
  28:led.c         ****     uint16 led7 :12;
  29:led.c         ****     uint16 led8 :12;
  30:led.c         ****     uint16 led9 :12;
  31:led.c         ****     uint16 led10:12;
  32:led.c         ****     uint16 led11:12;
  33:led.c         ****     uint16 led12:12;
ARM GAS  C:\Users\TB1014~1\AppData\Local\Temp\cc2O9Zrf.s 			page 2


  34:led.c         ****     uint16 led13:12;
  35:led.c         ****     uint16 led14:12;
  36:led.c         ****     uint16 led15:12;
  37:led.c         ****     uint16 led16:12;
  38:led.c         ****     uint16 led17:12;
  39:led.c         ****     uint16 led18:12;
  40:led.c         ****     uint16 led19:12;
  41:led.c         ****     uint16 led20:12;
  42:led.c         ****     uint16 led21:12;
  43:led.c         ****     uint16 led22:12;
  44:led.c         ****     uint16 led23:12;
  45:led.c         ****    }t_tlc_5947_led_driver;
  46:led.c         **** 
  47:led.c         **** //=============================================================================
  48:led.c         **** //============================================================ static variables
  49:led.c         **** //=============================================================================
  50:led.c         **** static t_tlc_5947_led_driver led_buffer;
  51:led.c         **** 
  52:led.c         **** #if USE_LED
  53:led.c         ****     static uint8 size_write = sizeof(led_buffer) / sizeof(uint16);
  54:led.c         **** #endif // USE_LED
  55:led.c         **** 
  56:led.c         **** //=============================================================================
  57:led.c         **** //============================================================= local funcitons
  58:led.c         **** //=============================================================================
  59:led.c         **** static void set_led_buffer   (char led, uint16 intensity);
  60:led.c         **** static void update_led_buffer(void);
  61:led.c         **** 
  62:led.c         **** //=============================================================================
  63:led.c         **** //=============================================================== set_led_strip 
  64:led.c         **** //=============================================================================
  65:led.c         **** void set_led_strip (uint16 led_vec[MAX_LEDS])
  66:led.c         **** {
  67:led.c         ****     led_buffer.led0  = led_vec[23];
  68:led.c         ****     led_buffer.led1  = led_vec[22];
  69:led.c         ****     led_buffer.led2  = led_vec[21];
  70:led.c         ****     led_buffer.led3  = led_vec[20];
  71:led.c         ****     led_buffer.led4  = led_vec[19];
  72:led.c         ****     led_buffer.led5  = led_vec[18];
  73:led.c         ****     led_buffer.led6  = led_vec[17];
  74:led.c         ****     led_buffer.led7  = led_vec[16];
  75:led.c         ****     led_buffer.led8  = led_vec[15];
  76:led.c         ****     led_buffer.led9  = led_vec[14];
  77:led.c         ****     led_buffer.led10 = led_vec[13];
  78:led.c         ****     led_buffer.led11 = led_vec[12];
  79:led.c         ****     led_buffer.led12 = led_vec[11];
  80:led.c         ****     led_buffer.led13 = led_vec[10];
  81:led.c         ****     led_buffer.led14 = led_vec[ 9];
  82:led.c         ****     led_buffer.led15 = led_vec[ 8];
  83:led.c         ****     led_buffer.led16 = led_vec[ 7];
  84:led.c         ****     led_buffer.led17 = led_vec[ 6];
  85:led.c         ****     led_buffer.led18 = led_vec[ 5];
  86:led.c         ****     led_buffer.led19 = led_vec[ 4];
  87:led.c         ****     led_buffer.led20 = led_vec[ 3];
  88:led.c         ****     led_buffer.led21 = led_vec[ 2];
  89:led.c         ****     led_buffer.led22 = led_vec[ 1];
  90:led.c         ****     led_buffer.led23 = led_vec[ 0];
ARM GAS  C:\Users\TB1014~1\AppData\Local\Temp\cc2O9Zrf.s 			page 3


  91:led.c         ****     
  92:led.c         ****     update_led_buffer();
  93:led.c         **** }// set_led_strip
  94:led.c         **** 
  95:led.c         **** //=============================================================================
  96:led.c         **** //============================================================== set_led_buffer 
  97:led.c         **** //=============================================================================
  98:led.c         **** void set_led_buffer (char led, uint16 intensity)
  99:led.c         **** {
  25              		.loc 1 99 0
  26              		.cfi_startproc
  27              	.LVL0:
 100:led.c         ****     uint16  set_value = intensity; // min(intensity, MAX_INTENSITY);
 101:led.c         ****     uint16  led_min   = min(led, MAX_LEDS - 1);
  28              		.loc 1 101 0
  29 0000 1628     		cmp	r0, #22
  30 0002 01D8     		bhi	.L29
  31              		.loc 1 101 0 is_stmt 0 discriminator 1
  32 0004 80B2     		uxth	r0, r0
  33              	.LVL1:
  34 0006 00E0     		b	.L2
  35              	.LVL2:
  36              	.L29:
  37              		.loc 1 101 0
  38 0008 1720     		mov	r0, #23
  39              	.LVL3:
  40              	.L2:
 102:led.c         **** 
 103:led.c         ****     switch (led_min)
  41              		.loc 1 103 0 is_stmt 1 discriminator 4
  42 000a 1728     		cmp	r0, #23
  43 000c 00D9     		bls	.LCB22
  44 000e DAE0     		b	.L1	@long jump
  45              	.LCB22:
  46 0010 8000     		lsl	r0, r0, #2
  47              	.LVL4:
  48 0012 6D4B     		ldr	r3, .L30
  49 0014 1B58     		ldr	r3, [r3, r0]
  50 0016 9F46     		mov	pc, r3
  51              		.section	.rodata
  52              		.align	2
  53              	.L5:
  54 0000 B6010000 		.word	.L4
  55 0004 A4010000 		.word	.L6
  56 0008 92010000 		.word	.L7
  57 000c 80010000 		.word	.L8
  58 0010 6E010000 		.word	.L9
  59 0014 5C010000 		.word	.L10
  60 0018 4A010000 		.word	.L11
  61 001c 38010000 		.word	.L12
  62 0020 26010000 		.word	.L13
  63 0024 14010000 		.word	.L14
  64 0028 02010000 		.word	.L15
  65 002c F0000000 		.word	.L16
  66 0030 DE000000 		.word	.L17
  67 0034 CC000000 		.word	.L18
  68 0038 BA000000 		.word	.L19
ARM GAS  C:\Users\TB1014~1\AppData\Local\Temp\cc2O9Zrf.s 			page 4


  69 003c A8000000 		.word	.L20
  70 0040 96000000 		.word	.L21
  71 0044 84000000 		.word	.L22
  72 0048 72000000 		.word	.L23
  73 004c 60000000 		.word	.L24
  74 0050 4E000000 		.word	.L25
  75 0054 3C000000 		.word	.L26
  76 0058 2A000000 		.word	.L27
  77 005c 18000000 		.word	.L28
  78              		.section	.text.set_led_buffer
  79              	.L28:
 104:led.c         ****     {
 105:led.c         ****         case 23: led_buffer.led0  = set_value;  // E_LED_LEFT_BLUE
  80              		.loc 1 105 0
  81 0018 6C4A     		ldr	r2, .L30+4
  82 001a 0905     		lsl	r1, r1, #20
  83              	.LVL5:
  84 001c 0B0D     		lsr	r3, r1, #20
  85 001e 9189     		ldrh	r1, [r2, #12]
  86 0020 090B     		lsr	r1, r1, #12
  87 0022 0903     		lsl	r1, r1, #12
  88 0024 1943     		orr	r1, r3
  89 0026 9181     		strh	r1, [r2, #12]
 106:led.c         ****                  break;
  90              		.loc 1 106 0
  91 0028 CDE0     		b	.L1
  92              	.LVL6:
  93              	.L27:
 107:led.c         ****         case 22: led_buffer.led1  = set_value;  // E_LED_LEFT_GREEN
  94              		.loc 1 107 0
  95 002a 684A     		ldr	r2, .L30+4
  96 002c 0905     		lsl	r1, r1, #20
  97              	.LVL7:
  98 002e 0B0D     		lsr	r3, r1, #20
  99 0030 D189     		ldrh	r1, [r2, #14]
 100 0032 090B     		lsr	r1, r1, #12
 101 0034 0903     		lsl	r1, r1, #12
 102 0036 1943     		orr	r1, r3
 103 0038 D181     		strh	r1, [r2, #14]
 108:led.c         ****                  break;
 104              		.loc 1 108 0
 105 003a C4E0     		b	.L1
 106              	.LVL8:
 107              	.L26:
 109:led.c         ****         case 21: led_buffer.led2  = set_value;  // E_LED_LEFT_RED 
 108              		.loc 1 109 0
 109 003c 634A     		ldr	r2, .L30+4
 110 003e 0905     		lsl	r1, r1, #20
 111              	.LVL9:
 112 0040 0B0D     		lsr	r3, r1, #20
 113 0042 118A     		ldrh	r1, [r2, #16]
 114 0044 090B     		lsr	r1, r1, #12
 115 0046 0903     		lsl	r1, r1, #12
 116 0048 1943     		orr	r1, r3
 117 004a 1182     		strh	r1, [r2, #16]
 110:led.c         ****                  break;
 118              		.loc 1 110 0
ARM GAS  C:\Users\TB1014~1\AppData\Local\Temp\cc2O9Zrf.s 			page 5


 119 004c BBE0     		b	.L1
 120              	.LVL10:
 121              	.L25:
 111:led.c         ****         case 20: led_buffer.led3  = set_value;  // E_LED_RIGHT_BLUE  
 122              		.loc 1 111 0
 123 004e 5F4A     		ldr	r2, .L30+4
 124 0050 0905     		lsl	r1, r1, #20
 125              	.LVL11:
 126 0052 0B0D     		lsr	r3, r1, #20
 127 0054 518A     		ldrh	r1, [r2, #18]
 128 0056 090B     		lsr	r1, r1, #12
 129 0058 0903     		lsl	r1, r1, #12
 130 005a 1943     		orr	r1, r3
 131 005c 5182     		strh	r1, [r2, #18]
 112:led.c         ****                  break;
 132              		.loc 1 112 0
 133 005e B2E0     		b	.L1
 134              	.LVL12:
 135              	.L24:
 113:led.c         ****         case 19: led_buffer.led4  = set_value;  // E_LED_RIGHT_GREEN  
 136              		.loc 1 113 0
 137 0060 5A4A     		ldr	r2, .L30+4
 138 0062 0905     		lsl	r1, r1, #20
 139              	.LVL13:
 140 0064 0B0D     		lsr	r3, r1, #20
 141 0066 918A     		ldrh	r1, [r2, #20]
 142 0068 090B     		lsr	r1, r1, #12
 143 006a 0903     		lsl	r1, r1, #12
 144 006c 1943     		orr	r1, r3
 145 006e 9182     		strh	r1, [r2, #20]
 114:led.c         ****                  break;
 146              		.loc 1 114 0
 147 0070 A9E0     		b	.L1
 148              	.LVL14:
 149              	.L23:
 115:led.c         ****         case 18: led_buffer.led5  = set_value;  // E_LED_RIGHT_RED
 150              		.loc 1 115 0
 151 0072 564A     		ldr	r2, .L30+4
 152 0074 0905     		lsl	r1, r1, #20
 153              	.LVL15:
 154 0076 0B0D     		lsr	r3, r1, #20
 155 0078 D18A     		ldrh	r1, [r2, #22]
 156 007a 090B     		lsr	r1, r1, #12
 157 007c 0903     		lsl	r1, r1, #12
 158 007e 1943     		orr	r1, r3
 159 0080 D182     		strh	r1, [r2, #22]
 116:led.c         ****                  break;
 160              		.loc 1 116 0
 161 0082 A0E0     		b	.L1
 162              	.LVL16:
 163              	.L22:
 117:led.c         ****         case 17: led_buffer.led6  = set_value;  // not used 
 164              		.loc 1 117 0
 165 0084 514A     		ldr	r2, .L30+4
 166 0086 0905     		lsl	r1, r1, #20
 167              	.LVL17:
 168 0088 0B0D     		lsr	r3, r1, #20
ARM GAS  C:\Users\TB1014~1\AppData\Local\Temp\cc2O9Zrf.s 			page 6


 169 008a 118B     		ldrh	r1, [r2, #24]
 170 008c 090B     		lsr	r1, r1, #12
 171 008e 0903     		lsl	r1, r1, #12
 172 0090 1943     		orr	r1, r3
 173 0092 1183     		strh	r1, [r2, #24]
 118:led.c         ****                  break;
 174              		.loc 1 118 0
 175 0094 97E0     		b	.L1
 176              	.LVL18:
 177              	.L21:
 119:led.c         ****         case 16: led_buffer.led7  = set_value;  // not used
 178              		.loc 1 119 0
 179 0096 4D4A     		ldr	r2, .L30+4
 180 0098 0905     		lsl	r1, r1, #20
 181              	.LVL19:
 182 009a 0B0D     		lsr	r3, r1, #20
 183 009c 518B     		ldrh	r1, [r2, #26]
 184 009e 090B     		lsr	r1, r1, #12
 185 00a0 0903     		lsl	r1, r1, #12
 186 00a2 1943     		orr	r1, r3
 187 00a4 5183     		strh	r1, [r2, #26]
 120:led.c         ****                  break;
 188              		.loc 1 120 0
 189 00a6 8EE0     		b	.L1
 190              	.LVL20:
 191              	.L20:
 121:led.c         ****         case 15: led_buffer.led8  = set_value;  // not used
 192              		.loc 1 121 0
 193 00a8 484A     		ldr	r2, .L30+4
 194 00aa 0905     		lsl	r1, r1, #20
 195              	.LVL21:
 196 00ac 0B0D     		lsr	r3, r1, #20
 197 00ae 918B     		ldrh	r1, [r2, #28]
 198 00b0 090B     		lsr	r1, r1, #12
 199 00b2 0903     		lsl	r1, r1, #12
 200 00b4 1943     		orr	r1, r3
 201 00b6 9183     		strh	r1, [r2, #28]
 122:led.c         ****                  break;
 202              		.loc 1 122 0
 203 00b8 85E0     		b	.L1
 204              	.LVL22:
 205              	.L19:
 123:led.c         ****         case 14: led_buffer.led9  = set_value;  // WHITE 14
 206              		.loc 1 123 0
 207 00ba 444A     		ldr	r2, .L30+4
 208 00bc 0905     		lsl	r1, r1, #20
 209              	.LVL23:
 210 00be 0B0D     		lsr	r3, r1, #20
 211 00c0 D18B     		ldrh	r1, [r2, #30]
 212 00c2 090B     		lsr	r1, r1, #12
 213 00c4 0903     		lsl	r1, r1, #12
 214 00c6 1943     		orr	r1, r3
 215 00c8 D183     		strh	r1, [r2, #30]
 124:led.c         ****                  break;
 216              		.loc 1 124 0
 217 00ca 7CE0     		b	.L1
 218              	.LVL24:
ARM GAS  C:\Users\TB1014~1\AppData\Local\Temp\cc2O9Zrf.s 			page 7


 219              	.L18:
 125:led.c         ****         case 13: led_buffer.led10 = set_value;  // WHITE 13 
 220              		.loc 1 125 0
 221 00cc 3F4A     		ldr	r2, .L30+4
 222 00ce 0905     		lsl	r1, r1, #20
 223              	.LVL25:
 224 00d0 0B0D     		lsr	r3, r1, #20
 225 00d2 118C     		ldrh	r1, [r2, #32]
 226 00d4 090B     		lsr	r1, r1, #12
 227 00d6 0903     		lsl	r1, r1, #12
 228 00d8 1943     		orr	r1, r3
 229 00da 1184     		strh	r1, [r2, #32]
 126:led.c         ****                  break;
 230              		.loc 1 126 0
 231 00dc 73E0     		b	.L1
 232              	.LVL26:
 233              	.L17:
 127:led.c         ****         case 12: led_buffer.led11 = set_value;  // WHITE 12
 234              		.loc 1 127 0
 235 00de 3B4A     		ldr	r2, .L30+4
 236 00e0 0905     		lsl	r1, r1, #20
 237              	.LVL27:
 238 00e2 0B0D     		lsr	r3, r1, #20
 239 00e4 518C     		ldrh	r1, [r2, #34]
 240 00e6 090B     		lsr	r1, r1, #12
 241 00e8 0903     		lsl	r1, r1, #12
 242 00ea 1943     		orr	r1, r3
 243 00ec 5184     		strh	r1, [r2, #34]
 128:led.c         ****                  break;
 244              		.loc 1 128 0
 245 00ee 6AE0     		b	.L1
 246              	.LVL28:
 247              	.L16:
 129:led.c         ****         case 11: led_buffer.led12 = set_value;  // WHITE 11
 248              		.loc 1 129 0
 249 00f0 364A     		ldr	r2, .L30+4
 250 00f2 0905     		lsl	r1, r1, #20
 251              	.LVL29:
 252 00f4 0B0D     		lsr	r3, r1, #20
 253 00f6 918C     		ldrh	r1, [r2, #36]
 254 00f8 090B     		lsr	r1, r1, #12
 255 00fa 0903     		lsl	r1, r1, #12
 256 00fc 1943     		orr	r1, r3
 257 00fe 9184     		strh	r1, [r2, #36]
 130:led.c         ****                  break;
 258              		.loc 1 130 0
 259 0100 61E0     		b	.L1
 260              	.LVL30:
 261              	.L15:
 131:led.c         ****         case 10: led_buffer.led13 = set_value;  // WHITE 10
 262              		.loc 1 131 0
 263 0102 324A     		ldr	r2, .L30+4
 264 0104 0905     		lsl	r1, r1, #20
 265              	.LVL31:
 266 0106 0B0D     		lsr	r3, r1, #20
 267 0108 D18C     		ldrh	r1, [r2, #38]
 268 010a 090B     		lsr	r1, r1, #12
ARM GAS  C:\Users\TB1014~1\AppData\Local\Temp\cc2O9Zrf.s 			page 8


 269 010c 0903     		lsl	r1, r1, #12
 270 010e 1943     		orr	r1, r3
 271 0110 D184     		strh	r1, [r2, #38]
 132:led.c         ****                  break;
 272              		.loc 1 132 0
 273 0112 58E0     		b	.L1
 274              	.LVL32:
 275              	.L14:
 133:led.c         ****         case  9: led_buffer.led14 = set_value;  // WHITE 9
 276              		.loc 1 133 0
 277 0114 2D4A     		ldr	r2, .L30+4
 278 0116 0905     		lsl	r1, r1, #20
 279              	.LVL33:
 280 0118 0B0D     		lsr	r3, r1, #20
 281 011a 118D     		ldrh	r1, [r2, #40]
 282 011c 090B     		lsr	r1, r1, #12
 283 011e 0903     		lsl	r1, r1, #12
 284 0120 1943     		orr	r1, r3
 285 0122 1185     		strh	r1, [r2, #40]
 134:led.c         ****                  break;
 286              		.loc 1 134 0
 287 0124 4FE0     		b	.L1
 288              	.LVL34:
 289              	.L13:
 135:led.c         ****         case  8: led_buffer.led15 = set_value;  // WHITE 8
 290              		.loc 1 135 0
 291 0126 294A     		ldr	r2, .L30+4
 292 0128 0905     		lsl	r1, r1, #20
 293              	.LVL35:
 294 012a 0B0D     		lsr	r3, r1, #20
 295 012c 518D     		ldrh	r1, [r2, #42]
 296 012e 090B     		lsr	r1, r1, #12
 297 0130 0903     		lsl	r1, r1, #12
 298 0132 1943     		orr	r1, r3
 299 0134 5185     		strh	r1, [r2, #42]
 136:led.c         ****                  break;
 300              		.loc 1 136 0
 301 0136 46E0     		b	.L1
 302              	.LVL36:
 303              	.L12:
 137:led.c         ****         case  7: led_buffer.led16 = set_value;  // WHITE 7
 304              		.loc 1 137 0
 305 0138 244A     		ldr	r2, .L30+4
 306 013a 0905     		lsl	r1, r1, #20
 307              	.LVL37:
 308 013c 0B0D     		lsr	r3, r1, #20
 309 013e 918D     		ldrh	r1, [r2, #44]
 310 0140 090B     		lsr	r1, r1, #12
 311 0142 0903     		lsl	r1, r1, #12
 312 0144 1943     		orr	r1, r3
 313 0146 9185     		strh	r1, [r2, #44]
 138:led.c         ****                  break;
 314              		.loc 1 138 0
 315 0148 3DE0     		b	.L1
 316              	.LVL38:
 317              	.L11:
 139:led.c         ****         case  6: led_buffer.led17 = set_value;  // WHITE 6
ARM GAS  C:\Users\TB1014~1\AppData\Local\Temp\cc2O9Zrf.s 			page 9


 318              		.loc 1 139 0
 319 014a 204A     		ldr	r2, .L30+4
 320 014c 0905     		lsl	r1, r1, #20
 321              	.LVL39:
 322 014e 0B0D     		lsr	r3, r1, #20
 323 0150 D18D     		ldrh	r1, [r2, #46]
 324 0152 090B     		lsr	r1, r1, #12
 325 0154 0903     		lsl	r1, r1, #12
 326 0156 1943     		orr	r1, r3
 327 0158 D185     		strh	r1, [r2, #46]
 140:led.c         ****                  break;
 328              		.loc 1 140 0
 329 015a 34E0     		b	.L1
 330              	.LVL40:
 331              	.L10:
 141:led.c         ****         case  5: led_buffer.led18 = set_value;  // WHITE 5
 332              		.loc 1 141 0
 333 015c 1B4A     		ldr	r2, .L30+4
 334 015e 0905     		lsl	r1, r1, #20
 335              	.LVL41:
 336 0160 0B0D     		lsr	r3, r1, #20
 337 0162 118E     		ldrh	r1, [r2, #48]
 338 0164 090B     		lsr	r1, r1, #12
 339 0166 0903     		lsl	r1, r1, #12
 340 0168 1943     		orr	r1, r3
 341 016a 1186     		strh	r1, [r2, #48]
 142:led.c         ****                  break;
 342              		.loc 1 142 0
 343 016c 2BE0     		b	.L1
 344              	.LVL42:
 345              	.L9:
 143:led.c         ****         case  4: led_buffer.led19 = set_value;  // WHITE 4
 346              		.loc 1 143 0
 347 016e 174A     		ldr	r2, .L30+4
 348 0170 0905     		lsl	r1, r1, #20
 349              	.LVL43:
 350 0172 0B0D     		lsr	r3, r1, #20
 351 0174 518E     		ldrh	r1, [r2, #50]
 352 0176 090B     		lsr	r1, r1, #12
 353 0178 0903     		lsl	r1, r1, #12
 354 017a 1943     		orr	r1, r3
 355 017c 5186     		strh	r1, [r2, #50]
 144:led.c         ****                  break;
 356              		.loc 1 144 0
 357 017e 22E0     		b	.L1
 358              	.LVL44:
 359              	.L8:
 145:led.c         ****         case  3: led_buffer.led20 = set_value;  // WHITE 3
 360              		.loc 1 145 0
 361 0180 124A     		ldr	r2, .L30+4
 362 0182 0905     		lsl	r1, r1, #20
 363              	.LVL45:
 364 0184 0B0D     		lsr	r3, r1, #20
 365 0186 918E     		ldrh	r1, [r2, #52]
 366 0188 090B     		lsr	r1, r1, #12
 367 018a 0903     		lsl	r1, r1, #12
 368 018c 1943     		orr	r1, r3
ARM GAS  C:\Users\TB1014~1\AppData\Local\Temp\cc2O9Zrf.s 			page 10


 369 018e 9186     		strh	r1, [r2, #52]
 146:led.c         ****                  break;
 370              		.loc 1 146 0
 371 0190 19E0     		b	.L1
 372              	.LVL46:
 373              	.L7:
 147:led.c         ****         case  2: led_buffer.led21 = set_value;  // WHITE 2
 374              		.loc 1 147 0
 375 0192 0E4A     		ldr	r2, .L30+4
 376 0194 0905     		lsl	r1, r1, #20
 377              	.LVL47:
 378 0196 0B0D     		lsr	r3, r1, #20
 379 0198 D18E     		ldrh	r1, [r2, #54]
 380 019a 090B     		lsr	r1, r1, #12
 381 019c 0903     		lsl	r1, r1, #12
 382 019e 1943     		orr	r1, r3
 383 01a0 D186     		strh	r1, [r2, #54]
 148:led.c         ****                  break;
 384              		.loc 1 148 0
 385 01a2 10E0     		b	.L1
 386              	.LVL48:
 387              	.L6:
 149:led.c         ****         case  1: led_buffer.led22 = set_value;  // WHITE 1
 388              		.loc 1 149 0
 389 01a4 094A     		ldr	r2, .L30+4
 390 01a6 0905     		lsl	r1, r1, #20
 391              	.LVL49:
 392 01a8 0B0D     		lsr	r3, r1, #20
 393 01aa 118F     		ldrh	r1, [r2, #56]
 394 01ac 090B     		lsr	r1, r1, #12
 395 01ae 0903     		lsl	r1, r1, #12
 396 01b0 1943     		orr	r1, r3
 397 01b2 1187     		strh	r1, [r2, #56]
 150:led.c         ****                  break;
 398              		.loc 1 150 0
 399 01b4 07E0     		b	.L1
 400              	.LVL50:
 401              	.L4:
 151:led.c         ****         case  0: led_buffer.led23 = set_value;  // WHITE 0
 402              		.loc 1 151 0
 403 01b6 054A     		ldr	r2, .L30+4
 404 01b8 0905     		lsl	r1, r1, #20
 405              	.LVL51:
 406 01ba 0B0D     		lsr	r3, r1, #20
 407 01bc 518F     		ldrh	r1, [r2, #58]
 408 01be 090B     		lsr	r1, r1, #12
 409 01c0 0903     		lsl	r1, r1, #12
 410 01c2 1943     		orr	r1, r3
 411 01c4 5187     		strh	r1, [r2, #58]
 412              	.L1:
 152:led.c         ****                  break;
 153:led.c         ****         default: return;
 154:led.c         ****     }
 155:led.c         ****     
 156:led.c         ****     return;
 157:led.c         **** }// set_led_buffer
 413              		.loc 1 157 0
ARM GAS  C:\Users\TB1014~1\AppData\Local\Temp\cc2O9Zrf.s 			page 11


 414              		@ sp needed
 415 01c6 7047     		bx	lr
 416              	.L31:
 417              		.align	2
 418              	.L30:
 419 01c8 00000000 		.word	.L5
 420 01cc 00000000 		.word	.LANCHOR0
 421              		.cfi_endproc
 422              	.LFE36:
 423              		.size	set_led_buffer, .-set_led_buffer
 424              		.section	.text.update_led_buffer,"ax",%progbits
 425              		.align	2
 426              		.code	16
 427              		.thumb_func
 428              		.type	update_led_buffer, %function
 429              	update_led_buffer:
 430              	.LFB37:
 158:led.c         **** 
 159:led.c         **** //=============================================================================
 160:led.c         **** //=========================================================== update_led_buffer
 161:led.c         **** //=============================================================================
 162:led.c         **** void update_led_buffer()
 163:led.c         **** {
 431              		.loc 1 163 0
 432              		.cfi_startproc
 433 0000 08B5     		push	{r3, lr}
 434              		.cfi_def_cfa_offset 8
 435              		.cfi_offset 3, -8
 436              		.cfi_offset 14, -4
 164:led.c         ****  #if USE_LED    
 165:led.c         ****     CapSense_ISR_Disable(); 
 437              		.loc 1 165 0
 438 0002 FFF7FEFF 		bl	CapSense_ISR_Disable
 439              	.LVL52:
 166:led.c         ****     SPIM_SpiUartPutArray((const uint16*)&led_buffer, size_write);
 440              		.loc 1 166 0
 441 0006 0B48     		ldr	r0, .L33
 442 0008 1E21     		mov	r1, #30
 443 000a FFF7FEFF 		bl	SPIM_SpiUartPutArray
 444              	.LVL53:
 167:led.c         ****     Blank_Write(1);
 445              		.loc 1 167 0
 446 000e 0120     		mov	r0, #1
 447 0010 FFF7FEFF 		bl	Blank_Write
 448              	.LVL54:
 168:led.c         ****     Latch_Write(1);
 449              		.loc 1 168 0
 450 0014 0120     		mov	r0, #1
 451 0016 FFF7FEFF 		bl	Latch_Write
 452              	.LVL55:
 169:led.c         ****     CyDelayUs  (1);
 453              		.loc 1 169 0
 454 001a 0120     		mov	r0, #1
 455 001c FFF7FEFF 		bl	CyDelayUs
 456              	.LVL56:
 170:led.c         ****     Latch_Write(0);
 457              		.loc 1 170 0
ARM GAS  C:\Users\TB1014~1\AppData\Local\Temp\cc2O9Zrf.s 			page 12


 458 0020 0020     		mov	r0, #0
 459 0022 FFF7FEFF 		bl	Latch_Write
 460              	.LVL57:
 171:led.c         ****     Blank_Write(0);       
 461              		.loc 1 171 0
 462 0026 0020     		mov	r0, #0
 463 0028 FFF7FEFF 		bl	Blank_Write
 464              	.LVL58:
 172:led.c         ****     CapSense_ISR_Enable();
 465              		.loc 1 172 0
 466 002c FFF7FEFF 		bl	CapSense_ISR_Enable
 467              	.LVL59:
 173:led.c         **** #endif // USE_LED
 174:led.c         **** }// update_led_buffer
 468              		.loc 1 174 0
 469              		@ sp needed
 470 0030 08BD     		pop	{r3, pc}
 471              	.L34:
 472 0032 C046     		.align	2
 473              	.L33:
 474 0034 00000000 		.word	.LANCHOR0
 475              		.cfi_endproc
 476              	.LFE37:
 477              		.size	update_led_buffer, .-update_led_buffer
 478              		.section	.text.set_led_strip,"ax",%progbits
 479              		.align	2
 480              		.global	set_led_strip
 481              		.code	16
 482              		.thumb_func
 483              		.type	set_led_strip, %function
 484              	set_led_strip:
 485              	.LFB35:
  66:led.c         ****     led_buffer.led0  = led_vec[23];
 486              		.loc 1 66 0
 487              		.cfi_startproc
 488              	.LVL60:
 489 0000 08B5     		push	{r3, lr}
 490              		.cfi_def_cfa_offset 8
 491              		.cfi_offset 3, -8
 492              		.cfi_offset 14, -4
  67:led.c         ****     led_buffer.led1  = led_vec[22];
 493              		.loc 1 67 0
 494 0002 C28D     		ldrh	r2, [r0, #46]
 495 0004 614B     		ldr	r3, .L36
 496 0006 1205     		lsl	r2, r2, #20
 497 0008 110D     		lsr	r1, r2, #20
 498 000a 9A89     		ldrh	r2, [r3, #12]
 499 000c 120B     		lsr	r2, r2, #12
 500 000e 1203     		lsl	r2, r2, #12
 501 0010 0A43     		orr	r2, r1
 502 0012 9A81     		strh	r2, [r3, #12]
  68:led.c         ****     led_buffer.led2  = led_vec[21];
 503              		.loc 1 68 0
 504 0014 828D     		ldrh	r2, [r0, #44]
 505 0016 1205     		lsl	r2, r2, #20
 506 0018 110D     		lsr	r1, r2, #20
 507 001a DA89     		ldrh	r2, [r3, #14]
ARM GAS  C:\Users\TB1014~1\AppData\Local\Temp\cc2O9Zrf.s 			page 13


 508 001c 120B     		lsr	r2, r2, #12
 509 001e 1203     		lsl	r2, r2, #12
 510 0020 0A43     		orr	r2, r1
 511 0022 DA81     		strh	r2, [r3, #14]
  69:led.c         ****     led_buffer.led3  = led_vec[20];
 512              		.loc 1 69 0
 513 0024 428D     		ldrh	r2, [r0, #42]
 514 0026 1205     		lsl	r2, r2, #20
 515 0028 110D     		lsr	r1, r2, #20
 516 002a 1A8A     		ldrh	r2, [r3, #16]
 517 002c 120B     		lsr	r2, r2, #12
 518 002e 1203     		lsl	r2, r2, #12
 519 0030 0A43     		orr	r2, r1
 520 0032 1A82     		strh	r2, [r3, #16]
  70:led.c         ****     led_buffer.led4  = led_vec[19];
 521              		.loc 1 70 0
 522 0034 028D     		ldrh	r2, [r0, #40]
 523 0036 1205     		lsl	r2, r2, #20
 524 0038 110D     		lsr	r1, r2, #20
 525 003a 5A8A     		ldrh	r2, [r3, #18]
 526 003c 120B     		lsr	r2, r2, #12
 527 003e 1203     		lsl	r2, r2, #12
 528 0040 0A43     		orr	r2, r1
 529 0042 5A82     		strh	r2, [r3, #18]
  71:led.c         ****     led_buffer.led5  = led_vec[18];
 530              		.loc 1 71 0
 531 0044 C28C     		ldrh	r2, [r0, #38]
 532 0046 1205     		lsl	r2, r2, #20
 533 0048 110D     		lsr	r1, r2, #20
 534 004a 9A8A     		ldrh	r2, [r3, #20]
 535 004c 120B     		lsr	r2, r2, #12
 536 004e 1203     		lsl	r2, r2, #12
 537 0050 0A43     		orr	r2, r1
 538 0052 9A82     		strh	r2, [r3, #20]
  72:led.c         ****     led_buffer.led6  = led_vec[17];
 539              		.loc 1 72 0
 540 0054 828C     		ldrh	r2, [r0, #36]
 541 0056 1205     		lsl	r2, r2, #20
 542 0058 110D     		lsr	r1, r2, #20
 543 005a DA8A     		ldrh	r2, [r3, #22]
 544 005c 120B     		lsr	r2, r2, #12
 545 005e 1203     		lsl	r2, r2, #12
 546 0060 0A43     		orr	r2, r1
 547 0062 DA82     		strh	r2, [r3, #22]
  73:led.c         ****     led_buffer.led7  = led_vec[16];
 548              		.loc 1 73 0
 549 0064 428C     		ldrh	r2, [r0, #34]
 550 0066 1205     		lsl	r2, r2, #20
 551 0068 110D     		lsr	r1, r2, #20
 552 006a 1A8B     		ldrh	r2, [r3, #24]
 553 006c 120B     		lsr	r2, r2, #12
 554 006e 1203     		lsl	r2, r2, #12
 555 0070 0A43     		orr	r2, r1
 556 0072 1A83     		strh	r2, [r3, #24]
  74:led.c         ****     led_buffer.led8  = led_vec[15];
 557              		.loc 1 74 0
 558 0074 028C     		ldrh	r2, [r0, #32]
ARM GAS  C:\Users\TB1014~1\AppData\Local\Temp\cc2O9Zrf.s 			page 14


 559 0076 1205     		lsl	r2, r2, #20
 560 0078 110D     		lsr	r1, r2, #20
 561 007a 5A8B     		ldrh	r2, [r3, #26]
 562 007c 120B     		lsr	r2, r2, #12
 563 007e 1203     		lsl	r2, r2, #12
 564 0080 0A43     		orr	r2, r1
 565 0082 5A83     		strh	r2, [r3, #26]
  75:led.c         ****     led_buffer.led9  = led_vec[14];
 566              		.loc 1 75 0
 567 0084 C28B     		ldrh	r2, [r0, #30]
 568 0086 1205     		lsl	r2, r2, #20
 569 0088 110D     		lsr	r1, r2, #20
 570 008a 9A8B     		ldrh	r2, [r3, #28]
 571 008c 120B     		lsr	r2, r2, #12
 572 008e 1203     		lsl	r2, r2, #12
 573 0090 0A43     		orr	r2, r1
 574 0092 9A83     		strh	r2, [r3, #28]
  76:led.c         ****     led_buffer.led10 = led_vec[13];
 575              		.loc 1 76 0
 576 0094 828B     		ldrh	r2, [r0, #28]
 577 0096 1205     		lsl	r2, r2, #20
 578 0098 110D     		lsr	r1, r2, #20
 579 009a DA8B     		ldrh	r2, [r3, #30]
 580 009c 120B     		lsr	r2, r2, #12
 581 009e 1203     		lsl	r2, r2, #12
 582 00a0 0A43     		orr	r2, r1
 583 00a2 DA83     		strh	r2, [r3, #30]
  77:led.c         ****     led_buffer.led11 = led_vec[12];
 584              		.loc 1 77 0
 585 00a4 428B     		ldrh	r2, [r0, #26]
 586 00a6 1205     		lsl	r2, r2, #20
 587 00a8 110D     		lsr	r1, r2, #20
 588 00aa 1A8C     		ldrh	r2, [r3, #32]
 589 00ac 120B     		lsr	r2, r2, #12
 590 00ae 1203     		lsl	r2, r2, #12
 591 00b0 0A43     		orr	r2, r1
 592 00b2 1A84     		strh	r2, [r3, #32]
  78:led.c         ****     led_buffer.led12 = led_vec[11];
 593              		.loc 1 78 0
 594 00b4 028B     		ldrh	r2, [r0, #24]
 595 00b6 1205     		lsl	r2, r2, #20
 596 00b8 110D     		lsr	r1, r2, #20
 597 00ba 5A8C     		ldrh	r2, [r3, #34]
 598 00bc 120B     		lsr	r2, r2, #12
 599 00be 1203     		lsl	r2, r2, #12
 600 00c0 0A43     		orr	r2, r1
 601 00c2 5A84     		strh	r2, [r3, #34]
  79:led.c         ****     led_buffer.led13 = led_vec[10];
 602              		.loc 1 79 0
 603 00c4 C28A     		ldrh	r2, [r0, #22]
 604 00c6 1205     		lsl	r2, r2, #20
 605 00c8 110D     		lsr	r1, r2, #20
 606 00ca 9A8C     		ldrh	r2, [r3, #36]
 607 00cc 120B     		lsr	r2, r2, #12
 608 00ce 1203     		lsl	r2, r2, #12
 609 00d0 0A43     		orr	r2, r1
 610 00d2 9A84     		strh	r2, [r3, #36]
ARM GAS  C:\Users\TB1014~1\AppData\Local\Temp\cc2O9Zrf.s 			page 15


  80:led.c         ****     led_buffer.led14 = led_vec[ 9];
 611              		.loc 1 80 0
 612 00d4 828A     		ldrh	r2, [r0, #20]
 613 00d6 1205     		lsl	r2, r2, #20
 614 00d8 110D     		lsr	r1, r2, #20
 615 00da DA8C     		ldrh	r2, [r3, #38]
 616 00dc 120B     		lsr	r2, r2, #12
 617 00de 1203     		lsl	r2, r2, #12
 618 00e0 0A43     		orr	r2, r1
 619 00e2 DA84     		strh	r2, [r3, #38]
  81:led.c         ****     led_buffer.led15 = led_vec[ 8];
 620              		.loc 1 81 0
 621 00e4 428A     		ldrh	r2, [r0, #18]
 622 00e6 1205     		lsl	r2, r2, #20
 623 00e8 110D     		lsr	r1, r2, #20
 624 00ea 1A8D     		ldrh	r2, [r3, #40]
 625 00ec 120B     		lsr	r2, r2, #12
 626 00ee 1203     		lsl	r2, r2, #12
 627 00f0 0A43     		orr	r2, r1
 628 00f2 1A85     		strh	r2, [r3, #40]
  82:led.c         ****     led_buffer.led16 = led_vec[ 7];
 629              		.loc 1 82 0
 630 00f4 028A     		ldrh	r2, [r0, #16]
 631 00f6 1205     		lsl	r2, r2, #20
 632 00f8 110D     		lsr	r1, r2, #20
 633 00fa 5A8D     		ldrh	r2, [r3, #42]
 634 00fc 120B     		lsr	r2, r2, #12
 635 00fe 1203     		lsl	r2, r2, #12
 636 0100 0A43     		orr	r2, r1
 637 0102 5A85     		strh	r2, [r3, #42]
  83:led.c         ****     led_buffer.led17 = led_vec[ 6];
 638              		.loc 1 83 0
 639 0104 C289     		ldrh	r2, [r0, #14]
 640 0106 1205     		lsl	r2, r2, #20
 641 0108 110D     		lsr	r1, r2, #20
 642 010a 9A8D     		ldrh	r2, [r3, #44]
 643 010c 120B     		lsr	r2, r2, #12
 644 010e 1203     		lsl	r2, r2, #12
 645 0110 0A43     		orr	r2, r1
 646 0112 9A85     		strh	r2, [r3, #44]
  84:led.c         ****     led_buffer.led18 = led_vec[ 5];
 647              		.loc 1 84 0
 648 0114 8289     		ldrh	r2, [r0, #12]
 649 0116 1205     		lsl	r2, r2, #20
 650 0118 110D     		lsr	r1, r2, #20
 651 011a DA8D     		ldrh	r2, [r3, #46]
 652 011c 120B     		lsr	r2, r2, #12
 653 011e 1203     		lsl	r2, r2, #12
 654 0120 0A43     		orr	r2, r1
 655 0122 DA85     		strh	r2, [r3, #46]
  85:led.c         ****     led_buffer.led19 = led_vec[ 4];
 656              		.loc 1 85 0
 657 0124 4289     		ldrh	r2, [r0, #10]
 658 0126 1205     		lsl	r2, r2, #20
 659 0128 110D     		lsr	r1, r2, #20
 660 012a 1A8E     		ldrh	r2, [r3, #48]
 661 012c 120B     		lsr	r2, r2, #12
ARM GAS  C:\Users\TB1014~1\AppData\Local\Temp\cc2O9Zrf.s 			page 16


 662 012e 1203     		lsl	r2, r2, #12
 663 0130 0A43     		orr	r2, r1
 664 0132 1A86     		strh	r2, [r3, #48]
  86:led.c         ****     led_buffer.led20 = led_vec[ 3];
 665              		.loc 1 86 0
 666 0134 0289     		ldrh	r2, [r0, #8]
 667 0136 1205     		lsl	r2, r2, #20
 668 0138 110D     		lsr	r1, r2, #20
 669 013a 5A8E     		ldrh	r2, [r3, #50]
 670 013c 120B     		lsr	r2, r2, #12
 671 013e 1203     		lsl	r2, r2, #12
 672 0140 0A43     		orr	r2, r1
 673 0142 5A86     		strh	r2, [r3, #50]
  87:led.c         ****     led_buffer.led21 = led_vec[ 2];
 674              		.loc 1 87 0
 675 0144 C288     		ldrh	r2, [r0, #6]
 676 0146 1205     		lsl	r2, r2, #20
 677 0148 110D     		lsr	r1, r2, #20
 678 014a 9A8E     		ldrh	r2, [r3, #52]
 679 014c 120B     		lsr	r2, r2, #12
 680 014e 1203     		lsl	r2, r2, #12
 681 0150 0A43     		orr	r2, r1
 682 0152 9A86     		strh	r2, [r3, #52]
  88:led.c         ****     led_buffer.led22 = led_vec[ 1];
 683              		.loc 1 88 0
 684 0154 8288     		ldrh	r2, [r0, #4]
 685 0156 1205     		lsl	r2, r2, #20
 686 0158 110D     		lsr	r1, r2, #20
 687 015a DA8E     		ldrh	r2, [r3, #54]
 688 015c 120B     		lsr	r2, r2, #12
 689 015e 1203     		lsl	r2, r2, #12
 690 0160 0A43     		orr	r2, r1
 691 0162 DA86     		strh	r2, [r3, #54]
  89:led.c         ****     led_buffer.led23 = led_vec[ 0];
 692              		.loc 1 89 0
 693 0164 4288     		ldrh	r2, [r0, #2]
 694 0166 1205     		lsl	r2, r2, #20
 695 0168 110D     		lsr	r1, r2, #20
 696 016a 1A8F     		ldrh	r2, [r3, #56]
 697 016c 120B     		lsr	r2, r2, #12
 698 016e 1203     		lsl	r2, r2, #12
 699 0170 0A43     		orr	r2, r1
 700 0172 1A87     		strh	r2, [r3, #56]
  90:led.c         ****     
 701              		.loc 1 90 0
 702 0174 0288     		ldrh	r2, [r0]
 703 0176 1205     		lsl	r2, r2, #20
 704 0178 110D     		lsr	r1, r2, #20
 705 017a 5A8F     		ldrh	r2, [r3, #58]
 706 017c 120B     		lsr	r2, r2, #12
 707 017e 1203     		lsl	r2, r2, #12
 708 0180 0A43     		orr	r2, r1
 709 0182 5A87     		strh	r2, [r3, #58]
  92:led.c         **** }// set_led_strip
 710              		.loc 1 92 0
 711 0184 FFF7FEFF 		bl	update_led_buffer
 712              	.LVL61:
ARM GAS  C:\Users\TB1014~1\AppData\Local\Temp\cc2O9Zrf.s 			page 17


  93:led.c         **** 
 713              		.loc 1 93 0
 714              		@ sp needed
 715 0188 08BD     		pop	{r3, pc}
 716              	.L37:
 717 018a C046     		.align	2
 718              	.L36:
 719 018c 00000000 		.word	.LANCHOR0
 720              		.cfi_endproc
 721              	.LFE35:
 722              		.size	set_led_strip, .-set_led_strip
 723              		.section	.text.set_led,"ax",%progbits
 724              		.align	2
 725              		.global	set_led
 726              		.code	16
 727              		.thumb_func
 728              		.type	set_led, %function
 729              	set_led:
 730              	.LFB38:
 175:led.c         **** 
 176:led.c         **** //=============================================================================
 177:led.c         **** //===================================================================== set_led
 178:led.c         **** //=============================================================================
 179:led.c         **** void set_led (char led, uint16 intensity)
 180:led.c         **** {
 731              		.loc 1 180 0
 732              		.cfi_startproc
 733              	.LVL62:
 734 0000 08B5     		push	{r3, lr}
 735              		.cfi_def_cfa_offset 8
 736              		.cfi_offset 3, -8
 737              		.cfi_offset 14, -4
 181:led.c         ****     set_led_buffer(led, intensity);
 738              		.loc 1 181 0
 739 0002 FFF7FEFF 		bl	set_led_buffer
 740              	.LVL63:
 182:led.c         ****     update_led_buffer();
 741              		.loc 1 182 0
 742 0006 FFF7FEFF 		bl	update_led_buffer
 743              	.LVL64:
 183:led.c         **** }// set_led
 744              		.loc 1 183 0
 745              		@ sp needed
 746 000a 08BD     		pop	{r3, pc}
 747              		.cfi_endproc
 748              	.LFE38:
 749              		.size	set_led, .-set_led
 750              		.section	.text.set_led_pair,"ax",%progbits
 751              		.align	2
 752              		.global	set_led_pair
 753              		.code	16
 754              		.thumb_func
 755              		.type	set_led_pair, %function
 756              	set_led_pair:
 757              	.LFB39:
 184:led.c         **** 
 185:led.c         **** void set_led_pair (char left_led, uint16 intensity_left, uint16 intensity_center)
ARM GAS  C:\Users\TB1014~1\AppData\Local\Temp\cc2O9Zrf.s 			page 18


 186:led.c         **** {
 758              		.loc 1 186 0
 759              		.cfi_startproc
 760              	.LVL65:
 761 0000 38B5     		push	{r3, r4, r5, lr}
 762              		.cfi_def_cfa_offset 16
 763              		.cfi_offset 3, -16
 764              		.cfi_offset 4, -12
 765              		.cfi_offset 5, -8
 766              		.cfi_offset 14, -4
 767 0002 041C     		mov	r4, r0
 768 0004 151C     		mov	r5, r2
 187:led.c         ****     set_led_buffer(left_led    , intensity_left  );
 769              		.loc 1 187 0
 770 0006 FFF7FEFF 		bl	set_led_buffer
 771              	.LVL66:
 188:led.c         ****     set_led_buffer(left_led + 1, intensity_center);  
 772              		.loc 1 188 0
 773 000a 0134     		add	r4, r4, #1
 774 000c E0B2     		uxtb	r0, r4
 775 000e 291C     		mov	r1, r5
 776 0010 FFF7FEFF 		bl	set_led_buffer
 777              	.LVL67:
 189:led.c         ****     update_led_buffer();
 778              		.loc 1 189 0
 779 0014 FFF7FEFF 		bl	update_led_buffer
 780              	.LVL68:
 190:led.c         **** }// set_led_triplet
 781              		.loc 1 190 0
 782              		@ sp needed
 783 0018 38BD     		pop	{r3, r4, r5, pc}
 784              		.cfi_endproc
 785              	.LFE39:
 786              		.size	set_led_pair, .-set_led_pair
 787 001a C046     		.section	.text.set_led_triplet,"ax",%progbits
 788              		.align	2
 789              		.global	set_led_triplet
 790              		.code	16
 791              		.thumb_func
 792              		.type	set_led_triplet, %function
 793              	set_led_triplet:
 794              	.LFB40:
 191:led.c         **** 
 192:led.c         **** void set_led_triplet (char left_led, uint16 intensity_left, uint16 intensity_center, uint16 intensi
 193:led.c         **** { 
 795              		.loc 1 193 0
 796              		.cfi_startproc
 797              	.LVL69:
 798 0000 70B5     		push	{r4, r5, r6, lr}
 799              		.cfi_def_cfa_offset 16
 800              		.cfi_offset 4, -16
 801              		.cfi_offset 5, -12
 802              		.cfi_offset 6, -8
 803              		.cfi_offset 14, -4
 804 0002 041C     		mov	r4, r0
 805 0004 161C     		mov	r6, r2
 806 0006 1D1C     		mov	r5, r3
ARM GAS  C:\Users\TB1014~1\AppData\Local\Temp\cc2O9Zrf.s 			page 19


 194:led.c         ****     set_led_buffer(left_led    , intensity_left  );
 807              		.loc 1 194 0
 808 0008 FFF7FEFF 		bl	set_led_buffer
 809              	.LVL70:
 195:led.c         ****     set_led_buffer(left_led + 1, intensity_center);  
 810              		.loc 1 195 0
 811 000c 601C     		add	r0, r4, #1
 812 000e C0B2     		uxtb	r0, r0
 813 0010 311C     		mov	r1, r6
 814 0012 FFF7FEFF 		bl	set_led_buffer
 815              	.LVL71:
 196:led.c         ****     set_led_buffer(left_led + 2, intensity_right );
 816              		.loc 1 196 0
 817 0016 0234     		add	r4, r4, #2
 818 0018 E0B2     		uxtb	r0, r4
 819 001a 291C     		mov	r1, r5
 820 001c FFF7FEFF 		bl	set_led_buffer
 821              	.LVL72:
 197:led.c         **** 
 198:led.c         ****     update_led_buffer();
 822              		.loc 1 198 0
 823 0020 FFF7FEFF 		bl	update_led_buffer
 824              	.LVL73:
 199:led.c         **** }// set_led_triplet
 825              		.loc 1 199 0
 826              		@ sp needed
 827 0024 70BD     		pop	{r4, r5, r6, pc}
 828              		.cfi_endproc
 829              	.LFE40:
 830              		.size	set_led_triplet, .-set_led_triplet
 831 0026 C046     		.section	.text.set_all_leds_intensity,"ax",%progbits
 832              		.align	2
 833              		.global	set_all_leds_intensity
 834              		.code	16
 835              		.thumb_func
 836              		.type	set_all_leds_intensity, %function
 837              	set_all_leds_intensity:
 838              	.LFB41:
 200:led.c         **** 
 201:led.c         **** //=============================================================================
 202:led.c         **** //====================================================== set_all_leds_intensity
 203:led.c         **** //=============================================================================
 204:led.c         **** void set_all_leds_intensity (uint16 intensity)
 205:led.c         **** {
 839              		.loc 1 205 0
 840              		.cfi_startproc
 841              	.LVL74:
 842 0000 38B5     		push	{r3, r4, r5, lr}
 843              		.cfi_def_cfa_offset 16
 844              		.cfi_offset 3, -16
 845              		.cfi_offset 4, -12
 846              		.cfi_offset 5, -8
 847              		.cfi_offset 14, -4
 848 0002 051C     		mov	r5, r0
 849              	.LVL75:
 206:led.c         ****     int i;
 207:led.c         ****     
ARM GAS  C:\Users\TB1014~1\AppData\Local\Temp\cc2O9Zrf.s 			page 20


 208:led.c         ****     for (i = 0; i < MAX_LEDS; i++)
 850              		.loc 1 208 0
 851 0004 0024     		mov	r4, #0
 852 0006 04E0     		b	.L42
 853              	.LVL76:
 854              	.L43:
 209:led.c         ****     {
 210:led.c         ****         set_led_buffer(i, intensity);  
 855              		.loc 1 210 0 discriminator 3
 856 0008 E0B2     		uxtb	r0, r4
 857 000a 291C     		mov	r1, r5
 858 000c FFF7FEFF 		bl	set_led_buffer
 859              	.LVL77:
 208:led.c         ****     {
 860              		.loc 1 208 0 discriminator 3
 861 0010 0134     		add	r4, r4, #1
 862              	.LVL78:
 863              	.L42:
 208:led.c         ****     {
 864              		.loc 1 208 0 is_stmt 0 discriminator 1
 865 0012 172C     		cmp	r4, #23
 866 0014 F8DD     		ble	.L43
 211:led.c         ****     }
 212:led.c         ****         
 213:led.c         ****     update_led_buffer();
 867              		.loc 1 213 0 is_stmt 1
 868 0016 FFF7FEFF 		bl	update_led_buffer
 869              	.LVL79:
 214:led.c         **** }// set_all_leds_intensity
 870              		.loc 1 214 0
 871              		@ sp needed
 872              	.LVL80:
 873 001a 38BD     		pop	{r3, r4, r5, pc}
 874              		.cfi_endproc
 875              	.LFE41:
 876              		.size	set_all_leds_intensity, .-set_all_leds_intensity
 877              		.section	.text.set_all_white_leds,"ax",%progbits
 878              		.align	2
 879              		.global	set_all_white_leds
 880              		.code	16
 881              		.thumb_func
 882              		.type	set_all_white_leds, %function
 883              	set_all_white_leds:
 884              	.LFB42:
 215:led.c         **** 
 216:led.c         **** //=============================================================================
 217:led.c         **** //========================================================== set_all_white_leds
 218:led.c         **** //=============================================================================
 219:led.c         **** void set_all_white_leds(uint16 intensity)
 220:led.c         **** {  
 885              		.loc 1 220 0
 886              		.cfi_startproc
 887              	.LVL81:
 888 0000 38B5     		push	{r3, r4, r5, lr}
 889              		.cfi_def_cfa_offset 16
 890              		.cfi_offset 3, -16
 891              		.cfi_offset 4, -12
ARM GAS  C:\Users\TB1014~1\AppData\Local\Temp\cc2O9Zrf.s 			page 21


 892              		.cfi_offset 5, -8
 893              		.cfi_offset 14, -4
 894 0002 051C     		mov	r5, r0
 895              	.LVL82:
 221:led.c         ****     int i;
 222:led.c         ****     
 223:led.c         ****     for (i = 0; i < NUMBER_OF_WHITE_LEDS; i++)
 896              		.loc 1 223 0
 897 0004 0024     		mov	r4, #0
 898 0006 04E0     		b	.L45
 899              	.LVL83:
 900              	.L46:
 224:led.c         ****     {
 225:led.c         ****         set_led_buffer(i, intensity);  
 901              		.loc 1 225 0 discriminator 3
 902 0008 E0B2     		uxtb	r0, r4
 903 000a 291C     		mov	r1, r5
 904 000c FFF7FEFF 		bl	set_led_buffer
 905              	.LVL84:
 223:led.c         ****     {
 906              		.loc 1 223 0 discriminator 3
 907 0010 0134     		add	r4, r4, #1
 908              	.LVL85:
 909              	.L45:
 223:led.c         ****     {
 910              		.loc 1 223 0 is_stmt 0 discriminator 1
 911 0012 0E2C     		cmp	r4, #14
 912 0014 F8DD     		ble	.L46
 226:led.c         ****     }
 227:led.c         ****         
 228:led.c         ****     update_led_buffer();
 913              		.loc 1 228 0 is_stmt 1
 914 0016 FFF7FEFF 		bl	update_led_buffer
 915              	.LVL86:
 229:led.c         **** }// set_all_white_leds
 916              		.loc 1 229 0
 917              		@ sp needed
 918              	.LVL87:
 919 001a 38BD     		pop	{r3, r4, r5, pc}
 920              		.cfi_endproc
 921              	.LFE42:
 922              		.size	set_all_white_leds, .-set_all_white_leds
 923              		.section	.text.set_all_colored_leds,"ax",%progbits
 924              		.align	2
 925              		.global	set_all_colored_leds
 926              		.code	16
 927              		.thumb_func
 928              		.type	set_all_colored_leds, %function
 929              	set_all_colored_leds:
 930              	.LFB43:
 230:led.c         **** 
 231:led.c         **** //=============================================================================
 232:led.c         **** //======================================================== set_all_colored_leds
 233:led.c         **** //=============================================================================
 234:led.c         **** void set_all_colored_leds(uint16 intensity)
 235:led.c         **** {  
 931              		.loc 1 235 0
ARM GAS  C:\Users\TB1014~1\AppData\Local\Temp\cc2O9Zrf.s 			page 22


 932              		.cfi_startproc
 933              	.LVL88:
 934 0000 38B5     		push	{r3, r4, r5, lr}
 935              		.cfi_def_cfa_offset 16
 936              		.cfi_offset 3, -16
 937              		.cfi_offset 4, -12
 938              		.cfi_offset 5, -8
 939              		.cfi_offset 14, -4
 940 0002 051C     		mov	r5, r0
 941              	.LVL89:
 236:led.c         ****     int i;
 237:led.c         ****     
 238:led.c         ****     for (i = NUMBER_OF_WHITE_LEDS; i < MAX_LEDS; i++)
 942              		.loc 1 238 0
 943 0004 0F24     		mov	r4, #15
 944 0006 04E0     		b	.L48
 945              	.LVL90:
 946              	.L49:
 239:led.c         ****     {
 240:led.c         ****         set_led_buffer(i, intensity);  
 947              		.loc 1 240 0 discriminator 3
 948 0008 E0B2     		uxtb	r0, r4
 949 000a 291C     		mov	r1, r5
 950 000c FFF7FEFF 		bl	set_led_buffer
 951              	.LVL91:
 238:led.c         ****     {
 952              		.loc 1 238 0 discriminator 3
 953 0010 0134     		add	r4, r4, #1
 954              	.LVL92:
 955              	.L48:
 238:led.c         ****     {
 956              		.loc 1 238 0 is_stmt 0 discriminator 1
 957 0012 172C     		cmp	r4, #23
 958 0014 F8DD     		ble	.L49
 241:led.c         ****     }
 242:led.c         ****         
 243:led.c         ****     update_led_buffer();
 959              		.loc 1 243 0 is_stmt 1
 960 0016 FFF7FEFF 		bl	update_led_buffer
 961              	.LVL93:
 244:led.c         **** }// set_all_colored_leds
 962              		.loc 1 244 0
 963              		@ sp needed
 964              	.LVL94:
 965 001a 38BD     		pop	{r3, r4, r5, pc}
 966              		.cfi_endproc
 967              	.LFE43:
 968              		.size	set_all_colored_leds, .-set_all_colored_leds
 969              		.section	.text.initialize_leds,"ax",%progbits
 970              		.align	2
 971              		.global	initialize_leds
 972              		.code	16
 973              		.thumb_func
 974              		.type	initialize_leds, %function
 975              	initialize_leds:
 976              	.LFB44:
 245:led.c         **** 
ARM GAS  C:\Users\TB1014~1\AppData\Local\Temp\cc2O9Zrf.s 			page 23


 246:led.c         **** //=============================================================================
 247:led.c         **** //============================================================= initialize_leds
 248:led.c         **** //=============================================================================
 249:led.c         **** void initialize_leds()
 250:led.c         **** {
 977              		.loc 1 250 0
 978              		.cfi_startproc
 979 0000 08B5     		push	{r3, lr}
 980              		.cfi_def_cfa_offset 8
 981              		.cfi_offset 3, -8
 982              		.cfi_offset 14, -4
 251:led.c         **** #if USE_LED
 252:led.c         ****     SPIM_Start      ( );
 983              		.loc 1 252 0
 984 0002 FFF7FEFF 		bl	SPIM_Start
 985              	.LVL95:
 253:led.c         ****     set_all_leds_intensity(0x00);
 986              		.loc 1 253 0
 987 0006 0020     		mov	r0, #0
 988 0008 FFF7FEFF 		bl	set_all_leds_intensity
 989              	.LVL96:
 254:led.c         **** #endif // USE_LED
 255:led.c         **** }// initialize_leds
 990              		.loc 1 255 0
 991              		@ sp needed
 992 000c 08BD     		pop	{r3, pc}
 993              		.cfi_endproc
 994              	.LFE44:
 995              		.size	initialize_leds, .-initialize_leds
 996 000e C046     		.bss
 997              		.align	2
 998              		.set	.LANCHOR0,. + 0
 999              		.type	led_buffer, %object
 1000              		.size	led_buffer, 60
 1001              	led_buffer:
 1002 0000 00000000 		.space	60
 1002      00000000 
 1002      00000000 
 1002      00000000 
 1002      00000000 
 1003              		.text
 1004              	.Letext0:
 1005              		.file 2 "Generated_Source\\PSoC4/cytypes.h"
 1006              		.file 3 "Generated_Source\\PSoC4/SPIM_SPI_UART.h"
 1007              		.file 4 "Generated_Source\\PSoC4/Blank.h"
 1008              		.file 5 "Generated_Source\\PSoC4/Latch.h"
 1009              		.file 6 "Generated_Source\\PSoC4/CyLib.h"
 1010              		.file 7 "Generated_Source\\PSoC4/CapSense_ISR.h"
 1011              		.file 8 "Generated_Source\\PSoC4/SPIM.h"